(dp0
S''
p1
I2
sS'raining'
p2
I49
sS'cusses'
p3
I49
sS'andre'
p4
I49
sS'sleep'
p5
I39
sS'cryingggggggf'
p6
I49
sS'hate'
p7
I40
sS'buddy'
p8
I49
sS'tweet'
p9
I47
sS'"ay'
p10
I49
sS'lord'
p11
I48
sS'sorry'
p12
I48
sS'pride'
p13
I49
sS'worth'
p14
I49
sS'updated'
p15
I49
sS'hahaaa\xe2\x80\x9d'
p16
I49
sS'every'
p17
I44
sS'messy'
p18
I49
sS'monkeys'
p19
I49
sS'school'
p20
I39
sS'yuuuuussss'
p21
I49
sS'clothes'
p22
I48
sS'charter'
p23
I49
sS'"all'
p24
I49
sS'ches'
p25
I49
sS'tired'
p26
I46
sS'nail'
p27
I49
sS'surrounding'
p28
I49
sS'second'
p29
I49
sS'street'
p30
I48
sS'goodnight\xe2\x80\x9d'
p31
I49
sS'chem'
p32
I48
sS'even'
p33
I40
sS'saved'
p34
I48
sS'bipolar'
p35
I49
sS'confusin'
p36
I49
sS'new'
p37
I47
sS'ever'
p38
I48
sS'told'
p39
I44
sS'mamas'
p40
I49
sS'never'
p41
I44
sS'here'
p42
I45
sS'\xe2\x9d\xa4\xef\xb8\x8f'
p43
I47
sS'nanny'
p44
I49
sS'stares'
p45
I49
sS'kids'
p46
I48
sS'tapes'
p47
I49
sS'study'
p48
I49
sS'changed'
p49
I49
sS'"why'
p50
I48
sS"i'd"
p51
I49
sS'smoke'
p52
I49
sS"i'm"
p53
I11
sS"someone's"
p54
I49
sS'slices'
p55
I49
sS'bro'
p56
I47
sS'guests'
p57
I49
sS'bra'
p58
I48
sS'sarah'
p59
I49
sS'would'
p60
I45
sS'arms'
p61
I49
sS'asappp'
p62
I49
sS'cali'
p63
I49
sS'asses'
p64
I49
sS'call'
p65
I47
sS'ok?\xe2\x80\x9d'
p66
I49
sS'tell'
p67
I46
sS'females'
p68
I48
sS'holy'
p69
I47
sS'patker'
p70
I49
sS'haha'
p71
I48
sS'subtweet'
p72
I46
sS'hurt'
p73
I49
sS'phone'
p74
I46
sS'warm'
p75
I49
sS'hold'
p76
I49
sS'me'
p77
I5
sS'te'
p78
I49
sS'word'
p79
I49
sS'room'
p80
I46
sS'work'
p81
I48
sS'cant'
p82
I46
sS'jax.teller'
p83
I49
sS'movies'
p84
I49
sS'locker'
p85
I47
sS'mr'
p86
I49
sS'my'
p87
I3
sS'cussing'
p88
I49
sS'matilda'
p89
I48
sS'triple'
p90
I49
sS'give'
p91
I44
sS'stressing'
p92
I48
sS'ready'
p93
I49
sS'want'
p94
I36
sS'david'
p95
I46
sS'pple'
p96
I49
sS'thing'
p97
I44
sS'song'
p98
I48
sS'machine'
p99
I49
sS'how'
p100
I33
sS'stupidity'
p101
I49
sS'beach'
p102
I49
sS'gata'
p103
I49
sS'pizza'
p104
I49
sS'bday'
p105
I49
sS'snapchats>>>'
p106
I49
sS'earlier'
p107
I48
sS'up>>>'
p108
I49
sS'whyyyy'
p109
I49
sS'wrong'
p110
I49
sS'sparkles'
p111
I49
sS'lesbian'
p112
I49
sS'wins'
p113
I49
sS'appreciate'
p114
I48
sS'think'
p115
I46
sS'goodbye'
p116
I49
sS'things'
p117
I47
sS'make'
p118
I44
sS'wine'
p119
I49
sS'deck'
p120
I48
sS'over'
p121
I44
sS'satisfied'
p122
I49
sS'3:00"'
p123
I49
sS'before'
p124
I48
sS'somewhere'
p125
I49
sS'better'
p126
I44
sS'3:15'
p127
I49
sS'weeks'
p128
I48
sS'luved'
p129
I49
sS'then'
p130
I45
sS'them'
p131
I45
sS'favvvv\xe2\x9d\xa4\xef\xb8\x8f\xe2\x9d\xa4\xef\xb8\x8f'
p132
I49
sS"we'll"
p133
I49
sS'break'
p134
I48
sS'2.15.13'
p135
I49
sS'they'
p136
I35
sS'yourself'
p137
I49
sS'rental'
p138
I49
sS"iran'"
p139
I49
sS'alex'
p140
I46
sS'each'
p141
I49
sS'went'
p142
I48
sS'tunnis'
p143
I49
sS'mean'
p144
I47
sS'gunna'
p145
I49
sS'martut'
p146
I49
sS'passwords'
p147
I49
sS'stealing'
p148
I49
sS'rt'
p149
I48
sS'god'
p150
I47
sS'chokers'
p151
I48
sS'daniel'
p152
I49
sS'smh'
p153
I45
sS'got'
p154
I46
sS'rn'
p155
I45
sS'sma'
p156
I49
sS'cutest'
p157
I49
sS"you're"
p158
I34
sS'uzummmm'
p159
I49
sS'rn>>>'
p160
I49
sS'appointments'
p161
I49
sS'grapes'
p162
I49
sS'wanted'
p163
I49
sS'mvp'
p164
I49
sS'dammit'
p165
I49
sS'starts'
p166
I45
sS'messages'
p167
I49
sS'days'
p168
I43
sS'flawless'
p169
I49
sS'hopeless'
p170
I49
sS'corrections'
p171
I49
sS'loud'
p172
I49
sS'fuckin'
p173
I49
sS'already'
p174
I47
sS'lifeee'
p175
I49
sS'another'
p176
I49
sS'comin'
p177
I49
sS'girly'
p178
I49
sS'top'
p179
I49
sS'girls'
p180
I49
sS'needed'
p181
I49
sS'ballistic'
p182
I48
sS'too'
p183
I37
sS'legs'
p184
I49
sS'dogs'
p185
I47
sS'listen'
p186
I49
sS'gym'
p187
I49
sS'took'
p188
I47
sS'rejected'
p189
I49
sS'"good'
p190
I49
sS'don\xe2\x80\x99t'
p191
I49
sS'silly'
p192
I49
sS'williams'
p193
I49
sS'ran'
p194
I49
sS'mind'
p195
I46
sS'mine'
p196
I48
sS'talking'
p197
I48
sS'seen'
p198
I49
sS'mins'
p199
I49
sS'tells'
p200
I49
sS'cryinggggggg'
p201
I49
sS'ouat'
p202
I49
sS'snow'
p203
I49
sS'curfew'
p204
I49
sS'cutestttt'
p205
I49
sS'sirunutyunits'
p206
I49
sS'anatomy'
p207
I49
sS'axchik'
p208
I49
sS'blacklist'
p209
I49
sS'don'
p210
I49
sS'alarm'
p211
I49
sS'dog'
p212
I46
sS'annoyed'
p213
I48
sS'came'
p214
I46
sS'saying'
p215
I47
sS'bomb'
p216
I48
sS'"nelly'
p217
I49
sS'random'
p218
I49
sS'colors'
p219
I49
sS'participate'
p220
I49
sS'araks'
p221
I49
sS'cruise\xe2\x9a\x93\xef\xb8\x8f'
p222
I49
sS'themm'
p223
I49
sS'boyfriend'
p224
I49
sS'lmfaaooaooo'
p225
I49
sS'wearing'
p226
I49
sS'monica'
p227
I49
sS'dm'
p228
I48
sS'ivanov'
p229
I49
sS'de'
p230
I49
sS'watch'
p231
I44
sS'coast'
p232
I49
sS'wedding'
p233
I49
sS'dw'
p234
I49
sS'tanlines'
p235
I49
sS'du'
p236
I49
sS'bad'
p237
I45
sS'gotta'
p238
I49
sS'decides'
p239
I49
sS'lmfaaaoooo'
p240
I49
sS'zoned'
p241
I49
sS'w/'
p242
I48
sS'goodnight'
p243
I49
sS'decided'
p244
I48
sS'nocturnal'
p245
I49
sS'best'
p246
I43
sS'said'
p247
I46
sS'bicepsss'
p248
I49
sS'away'
p249
I48
sS"there's"
p250
I47
sS'xosum'
p251
I49
sS'we'
p252
I39
sS'omg'
p253
I39
sS'wears'
p254
I49
sS'yaaaaayyyy'
p255
I49
sS'ask'
p256
I49
sS'ignorance'
p257
I49
sS'wtf'
p258
I41
sS'shamoyans'
p259
I49
sS'911me'
p260
I49
sS'gamee'
p261
I49
sS'accident'
p262
I48
sS'met'
p263
I49
sS'ill'
p264
I49
sS'compton'
p265
I49
sS'amazing'
p266
I47
sS'players'
p267
I49
sS'onion\xe2\x80\x9d'
p268
I49
sS'asked'
p269
I48
sS'ily'
p270
I48
sS'fuckingg'
p271
I49
sS'ayeee'
p272
I49
sS'"and'
p273
I49
sS'blonde'
p274
I49
sS'100'
p275
I49
sS'lifeeeeeeeeeee'
p276
I49
sS'nervats'
p277
I49
sS'been'
p278
I38
sS'much'
p279
I39
sS'xorovats'
p280
I49
sS'okayy'
p281
I49
sS'threw'
p282
I49
sS'life'
p283
I40
sS'drugs'
p284
I49
sS'lionel'
p285
I49
sS'has'
p286
I46
sS'lmfaoaoaoooo'
p287
I49
sS'ugly'
p288
I49
sS'gna'
p289
I48
sS'barevuma\xe2\x80\x9d'
p290
I49
sS'voice'
p291
I47
sS'k'
p292
I45
sS'is'
p293
I13
sS'sushi'
p294
I48
sS'it'
p295
I17
sS'"k'
p296
I49
sS'throat'
p297
I49
sS'ik'
p298
I47
sS'im'
p299
I41
sS'in'
p300
I13
sS'astronaut'
p301
I49
sS'id'
p302
I48
sS'if'
p303
I21
sS'lmaoooooo'
p304
I49
sS"'dolma'"
p305
I49
sS'kis'
p306
I47
sS'tops'
p307
I49
sS'"6'
p308
I49
sS'kim'
p309
I49
sS'lmfaaooooooooo'
p310
I49
sS'practiced'
p311
I49
sS'youre'
p312
I48
sS'tho'
p313
I47
sS'the'
p314
I7
sS'yours'
p315
I49
sS'meraaa'
p316
I49
sS'just'
p317
I12
sS'yea'
p318
I49
sS'greys'
p319
I49
sS'swearr'
p320
I49
sS'yes'
p321
I46
sS'yet'
p322
I46
sS'eli'
p323
I49
sS'scorpio'
p324
I49
sS'had'
p325
I47
sS'richie'
p326
I49
sS'innocent'
p327
I49
sS'save'
p328
I49
sS'gave'
p329
I49
sS'casually'
p330
I48
sS'judge'
p331
I48
sS'rumor'
p332
I49
sS'desire'
p333
I49
sS'-_-'
p334
I47
sS'mani/pedi'
p335
I49
sS'specific'
p336
I49
sS'night'
p337
I47
sS'amot'
p338
I49
sS'wyocmwyh'
p339
I49
sS'right'
p340
I41
sS'old'
p341
I44
sS'deal'
p342
I47
sS'people'
p343
I45
sS'sends'
p344
I49
sS'dead'
p345
I47
sS'ekel'
p346
I49
sS'\xd8\xb9\xd9\x84\xd9\x8a\xd9\x83'
p347
I49
sS'hemsworth'
p348
I49
sS'confusing'
p349
I49
sS'for'
p350
I19
sS'purple'
p351
I49
sS'notification'
p352
I49
sS'opposite'
p353
I49
sS'everything'
p354
I47
sS'christmas'
p355
I49
sS'booking'
p356
I49
sS'pls'
p357
I49
sS'deleted'
p358
I48
sS'players>>>'
p359
I49
sS'plz'
p360
I47
sS'hambal'
p361
I49
sS'post'
p362
I49
sS'latseluemmm'
p363
I49
sS'vaginas'
p364
I49
sS'o'
p365
I49
sS'plus'
p366
I49
sS'commit'
p367
I49
sS'soa'
p368
I48
sS'whats'
p369
I49
sS'froze'
p370
I49
sS'wasting'
p371
I49
sS'selfie'
p372
I49
sS'talent*'
p373
I49
sS'soo'
p374
I47
sS'yanno'
p375
I49
sS'thankful'
p376
I48
sS'care/get'
p377
I49
sS'constantly'
p378
I49
sS'class'
p379
I48
sS'gif'
p380
I49
sS'\xe2\x80\x9cturn'
p381
I49
sS'way'
p382
I47
sS'music'
p383
I49
sS"nicki's"
p384
I49
sS'was'
p385
I29
sS'war'
p386
I49
sS'happy'
p387
I39
sS'head'
p388
I49
sS'gorgeous'
p389
I49
sS'youuuuuuuuuuuu'
p390
I49
sS'notifications'
p391
I49
sS'heat'
p392
I48
sS'hear'
p393
I49
sS'true'
p394
I49
sS'whyy'
p395
I49
sS'inside'
p396
I48
sS'generosity'
p397
I49
sS'nicest'
p398
I48
sS'shitt'
p399
I49
sS'sevanaaaa'
p400
I49
sS'later'
p401
I49
sS'minaj'
p402
I49
sS'escape'
p403
I49
sS'covers'
p404
I48
sS'drive'
p405
I46
sS'sometime'
p406
I48
sS'annoying'
p407
I49
sS'trip'
p408
I49
sS'shit'
p409
I31
sS'dying'
p410
I47
sS'floor'
p411
I49
sS'when'
p412
I34
sS'actor'
p413
I49
sS'"hi"'
p414
I49
sS'til'
p415
I49
sS'test'
p416
I49
sS'enemies'
p417
I49
sS'smell'
p418
I48
sS'picture'
p419
I48
sS'ur'
p420
I47
sS'delivered'
p421
I49
sS'dies'
p422
I49
sS'welcome'
p423
I48
sS'crazyyyyt'
p424
I49
sS'lowmy'
p425
I49
sS'fell'
p426
I49
sS'weekend'
p427
I48
sS'died'
p428
I49
sS'chkam'
p429
I49
sS'parents>>>>'
p430
I49
sS'assume'
p431
I49
sS'ewest'
p432
I49
sS'daily'
p433
I49
sS'time'
p434
I39
sS'babyyy'
p435
I49
sS'serious'
p436
I49
sS':))'
p437
I49
sS':/'
p438
I48
sS':('
p439
I40
sS':)'
p440
I46
sS'whoever'
p441
I49
sS'huge"'
p442
I49
sS'rob'
p443
I49
sS'grateful'
p444
I49
sS'arman'
p445
I48
sS'venice'
p446
I49
sS'suicide'
p447
I49
sS'tea>'
p448
I49
sS'disgusting'
p449
I48
sS'passage'
p450
I49
sS'hiyastapvem'
p451
I49
sS'finally'
p452
I48
sS'\xe2\x9d\xa4\xef\x98\x8b'
p453
I49
sS'text'
p454
I45
sS':(((('
p455
I49
sS'warning.\xe2\x80\x9d'
p456
I49
sS'vegas'
p457
I46
sS'cook'
p458
I49
sS'exact'
p459
I49
sS'cool'
p460
I48
sS'level'
p461
I47
sS'did'
p462
I41
sS'die'
p463
I46
sS'utemm'
p464
I49
sS'posts'
p465
I49
sS'accidentally'
p466
I47
sS'leave'
p467
I44
sS'team'
p468
I49
sS'quick'
p469
I49
sS'guy'
p470
I42
sS'says'
p471
I47
sS'regret'
p472
I49
sS'be'
p473
I26
sS'shit/feelings'
p474
I49
sS'shirts'
p475
I49
sS'anaconda'
p476
I49
sS'eating'
p477
I48
sS'hair"'
p478
I49
sS'stressful'
p479
I49
sS'wut'
p480
I49
sS'tho\xe2\x80\x9d'
p481
I49
sS'goes'
p482
I47
sS'freaky'
p483
I49
sS'ayee'
p484
I49
sS'makeup'
p485
I49
sS'understanding'
p486
I49
sS'water'
p487
I48
sS'waittttttttt'
p488
I49
sS'alone'
p489
I44
sS'nother'
p490
I47
sS'wait'
p491
I48
sS'sending'
p492
I49
sS'shift'
p493
I49
sS'5ever'
p494
I49
sS'sevana'
p495
I49
sS'?armen'
p496
I49
sS'lmfaoooo'
p497
I42
sS'love'
p498
I27
sS'bs'
p499
I49
sS'huge""so'
p500
I49
sS'everybody'
p501
I47
sS'working'
p502
I48
sS'aye'
p503
I49
sS'angry'
p504
I49
sS'retweeted'
p505
I49
sS'number?"'
p506
I49
sS'kyank'
p507
I49
sS'meanss'
p508
I49
sS'wondering'
p509
I49
sS'papaj'
p510
I49
sS'thru'
p511
I49
sS'today'
p512
I36
sS'loving'
p513
I49
sS'w/out'
p514
I49
sS'clicking'
p515
I49
sS'ooo'
p516
I46
sS'everywhere'
p517
I49
sS'lakot'
p518
I49
sS'douche'
p519
I49
sS'niggas'
p520
I49
sS'pretend'
p521
I48
sS'gyotik'
p522
I49
sS'purge'
p523
I49
sS'can'
p524
I32
sS'following'
p525
I49
sS'making'
p526
I46
sS'crazy'
p527
I49
sS'tiras'
p528
I49
sS'vayyy'
p529
I49
sS'awesome'
p530
I49
sS'brown\xe2\x80\x9d'
p531
I49
sS"didn't"
p532
I40
sS'fuck'
p533
I35
sS'heard'
p534
I49
sS'burbank'
p535
I49
sS'watching'
p536
I48
sS'1'
p537
I48
sS'till'
p538
I48
sS'fourth'
p539
I49
sS'\xe2\x9d\xa4\xef\xb8\x8f\xe2\x9d\xa4\xef\xb8\x8f\xe2\x9d\xa4\xef\xb8\x8f'
p540
I49
sS'unbelievable'
p541
I48
sS'may'
p542
I49
sS'maa'
p543
I49
sS'birthday'
p544
I41
sS'mad'
p545
I45
sS'such'
p546
I41
sS'suck'
p547
I48
sS'guys'
p548
I33
sS'grow'
p549
I47
sS'man'
p550
I41
sS'remember'
p551
I47
sS'ss'
p552
I49
sS'maybe'
p553
I49
sS'holyyyyy'
p554
I49
sS'so'
p555
I10
sS'talk'
p556
I46
sS'rage-,91352\n508755663510462464,_nellly_,2014-09-07'
p557
I49
sS'wishing'
p558
I48
sS'years'
p559
I49
sS'course'
p560
I48
sS'still'
p561
I39
sS'group'
p562
I49
sS'thank'
p563
I48
sS'hot'
p564
I46
sS'hometown'
p565
I49
sS'tweets'
p566
I46
sS'puzzle'
p567
I48
sS'happened'
p568
I49
sS'nom'
p569
I48
sS'noo'
p570
I49
sS'moms'
p571
I46
sS'nation'
p572
I49
sS'half'
p573
I49
sS'not'
p574
I23
sS'now'
p575
I32
sS'bullshit'
p576
I48
sS'nor'
p577
I49
sS'nos'
p578
I49
sS'gushing'
p579
I49
sS'down'
p580
I45
sS'knats'
p581
I49
sS'em'
p582
I46
sS'eh'
p583
I48
sS'xapumem'
p584
I49
sS"s'cute"
p585
I49
sS'yeah'
p586
I48
sS'ex'
p587
I49
sS'sexually'
p588
I49
sS'ft'
p589
I48
sS'girl'
p590
I44
sS'obsession'
p591
I49
sS'es'
p592
I46
sS'naked'
p593
I49
sS'looking'
p594
I47
sS'attracted'
p595
I49
sS'seriously'
p596
I49
sS'miles'
p597
I49
sS"shouldn't"
p598
I49
sS'nudes'
p599
I48
sS'shows'
p600
I48
sS'smfh'
p601
I47
sS'lag'
p602
I49
sS'million'
p603
I49
sS'california'
p604
I49
sS'grandma'
p605
I47
sS'care'
p606
I48
sS'underwear'
p607
I49
sS'british'
p608
I49
sS'turn'
p609
I48
sS'place'
p610
I49
sS'massive'
p611
I49
sS'childhood'
p612
I49
sS'first'
p613
I48
sS'xi'
p614
I49
sS'mucho'
p615
I49
sS'open'
p616
I47
sS'tomorrow'
p617
I49
sS'little'
p618
I49
sS'stuck'
p619
I49
sS'caught'
p620
I49
sS'slept'
p621
I49
sS'cooling'
p622
I49
sS'2'
p623
I45
sS'white'
p624
I46
sS'*sister'
p625
I49
sS'friend'
p626
I43
sS'gives'
p627
I49
sS'bitchhhh'
p628
I49
sS'eyes'
p629
I48
sS'that'
p630
I16
sS'season'
p631
I49
sS'lmfaoaoooo'
p632
I49
sS'than'
p633
I47
sS'anum'
p634
I49
sS'10'
p635
I46
sS'cracks'
p636
I49
sS'15'
p637
I49
sS'lmao'
p638
I41
sS'depressed'
p639
I49
sS'18'
p640
I49
sS'yasss'
p641
I48
sS'future'
p642
I48
sS'were'
p643
I44
sS'asleep'
p644
I49
sS'and'
p645
I29
sS'say"haha'
p646
I49
sS'san'
p647
I49
sS'nicer'
p648
I49
sS'ani'
p649
I48
sS'slap'
p650
I49
sS'sad'
p651
I48
sS'say'
p652
I40
sS'rent'
p653
I49
sS'oovooing'
p654
I49
sS'breakfast'
p655
I47
sS'saw'
p656
I49
sS'any'
p657
I45
sS'sat'
p658
I48
sS'boners'
p659
I49
sS'answering'
p660
I48
sS'omfg'
p661
I49
sS'take'
p662
I46
sS'pashol"'
p663
I49
sS'sure'
p664
I48
sS'pain'
p665
I45
sS'normal'
p666
I49
sS"beyonce's"
p667
I49
sS'cheesecake'
p668
I49
sS'laughinggggg'
p669
I49
sS'mihat'
p670
I48
sS'lates'
p671
I48
sS'proud'
p672
I47
sS'hungry'
p673
I48
sS'mrs'
p674
I48
sS'up\xe2\x80\x9d'
p675
I49
sS'bawling'
p676
I49
sS'walking'
p677
I49
sS'shot'
p678
I49
sS'show'
p679
I47
sS'cheat'
p680
I49
sS'imagined'
p681
I49
sS'dick'
p682
I49
sS'3'
p683
I48
sS'either'
p684
I47
sS'only'
p685
I45
sS'going'
p686
I48
sS'black'
p687
I43
sS'get'
p688
I30
sS'truly'
p689
I49
sS'cannot'
p690
I49
sS'cryin'
p691
I49
sS'celebrate'
p692
I49
sS'lmfaooaoooooo'
p693
I49
sS'morning'
p694
I48
sS'luchesees'
p695
I49
sS":')"
p696
I49
sS'stupid'
p697
I48
sS'where'
p698
I48
sS"y'all"
p699
I49
sS'"bud"'
p700
I49
sS'up'
p701
I25
sS'college'
p702
I49
sS'hoes'
p703
I49
sS'sport'
p704
I49
sS'wonder'
p705
I48
sS'timeit'
p706
I49
sS'lmfaoaoao'
p707
I49
sS'lmfaoaoooo*'
p708
I49
sS'enough'
p709
I48
sS'gago'
p710
I49
sS'reading'
p711
I49
sS'kukla'
p712
I49
sS'notice'
p713
I49
sS'august'
p714
I49
sS'killing'
p715
I48
sS'says*"i\'m'
p716
I49
sS'armenian'
p717
I46
sS'hurts'
p718
I49
sS'spark'
p719
I49
sS'come'
p720
I44
sS'many'
p721
I47
sS'lmfaoaooooo'
p722
I49
sS'amalfi'
p723
I49
sS'personal'
p724
I48
sS"can't"
p725
I34
sS'color'
p726
I49
sS'jeans'
p727
I49
sS'period'
p728
I49
sS'yooooo'
p729
I49
sS'capable'
p730
I49
sS'vacation'
p731
I49
sS'wowzers'
p732
I49
sS'exav'
p733
I49
sS"rihanna's"
p734
I49
sS'wants'
p735
I45
sS'thousand'
p736
I48
sS'blessing'
p737
I49
sS'wake'
p738
I48
sS'careful'
p739
I49
sS'those'
p740
I48
sS'myself'
p741
I45
sS'faqs:age'
p742
I49
sS'straighten'
p743
I49
sS'blay'
p744
I49
sS'sleeping'
p745
I48
sS'someone'
p746
I43
sS'heels'
p747
I49
sS'everyday'
p748
I47
sS'worry'
p749
I48
sS'verified'
p750
I49
sS'pay'
p751
I49
sS'granted'
p752
I49
sS'same'
p753
I44
sS'check'
p754
I48
sS'food'
p755
I45
sS'speech'
p756
I49
sS'reminder'
p757
I49
sS'screenshot'
p758
I49
sS'arctic'
p759
I49
sS'weed'
p760
I49
sS'disown'
p761
I49
sS'\xe2\x9c\x8c\xef\xb8\x8f'
p762
I48
sS'costa'
p763
I49
sS'amazes'
p764
I48
sS'no'
p765
I30
sS'nothin'
p766
I49
sS'comes'
p767
I49
sS'bottle'
p768
I49
sS'shitttt'
p769
I49
sS'starbucks'
p770
I47
sS'summer'
p771
I47
sS'\xe2\x98\xba\xef\xb8\x8f'
p772
I49
sS'being'
p773
I49
sS'kill'
p774
I45
sS'death'
p775
I49
sS'clueless'
p776
I49
sS'thinking'
p777
I49
sS'seems'
p778
I49
sS'hovo'
p779
I49
sS'ahhhh'
p780
I49
sS'4'
p781
I48
sS'real'
p782
I48
sS'around'
p783
I47
sS'read'
p784
I48
sS'gonna'
p785
I44
sS'dark'
p786
I49
sS'mom'
p787
I35
sS'world'
p788
I48
sS'dare'
p789
I49
sS'furniture'
p790
I49
sS'christina'
p791
I49
sS'christine'
p792
I49
sS'nose'
p793
I49
sS'omgg'
p794
I49
sS'doll'
p795
I49
sS'cowboys'
p796
I49
sS'matching'
p797
I49
sS'nooo'
p798
I49
sS'kms'
p799
I49
sS'suchh'
p800
I49
sS'teared'
p801
I49
sS'football'
p802
I47
sS'business'
p803
I49
sS'lmfao'
p804
I45
sS'nails'
p805
I49
sS"picturesi'm"
p806
I49
sS'\xe2\x80\x9cyeah'
p807
I49
sS';)'
p808
I49
sS',91352\n499418223259836416,_nellly_,2014-08-13'
p809
I49
sS'throw'
p810
I49
sS'on'
p811
I18
sS'anormal'
p812
I49
sS'ok'
p813
I49
sS'oh'
p814
I41
sS'roar'
p815
I49
sS'of'
p816
I16
sS'favorite'
p817
I48
sS'wolf'
p818
I49
sS'luck'
p819
I48
sS'or'
p820
I37
sS'tanzi'
p821
I49
sS'wuldnt'
p822
I49
sS'snapchat'
p823
I44
sS'cryinggggggggg'
p824
I49
sS'youu'
p825
I49
sS'your'
p826
I31
sS'her'
p827
I40
sS'there'
p828
I45
sS'madden'
p829
I49
sS'lol'
p830
I42
sS'lmfaooo'
p831
I44
sS'start'
p832
I47
sS'dudeeeeee'
p833
I49
sS'low'
p834
I49
sS'lot'
p835
I49
sS'valley'
p836
I49
sS'chats'
p837
I49
sS'complete'
p838
I49
sS'motherly'
p839
I49
sS'you"'
p840
I49
sS'jus'
p841
I49
sS'trying'
p842
I47
sS'with'
p843
I22
sS"they're"
p844
I48
sS'october'
p845
I49
sS'dominican'
p846
I49
sS"wasn't"
p847
I46
sS'myself.\xe2\x80\x9d'
p848
I49
sS'dirty'
p849
I49
sS'ac'
p850
I49
sS'ohh'
p851
I49
sS'videos'
p852
I49
sS'af'
p853
I44
sS'exhausted'
p854
I49
sS'certain'
p855
I49
sS'am'
p856
I42
sS'deep'
p857
I49
sS'an'
p858
I37
sS'ap'
p859
I45
sS'as'
p860
I42
sS'okayyy'
p861
I49
sS'at'
p862
I28
sS'ay'
p863
I45
sS'watched'
p864
I49
sS'213-924-1298'
p865
I49
sS'again'
p866
I46
sS'idiot'
p867
I48
sS'deserve'
p868
I49
sS'graduate'
p869
I49
sS"cynthia's"
p870
I49
sS'twerk'
p871
I49
sS'you'
p872
I4
sS'forcing'
p873
I49
sS'a"'
p874
I49
sS'hey'
p875
I49
sS'obsessed'
p876
I48
sS"miley's"
p877
I49
sS'chris'
p878
I47
sS'redecorating'
p879
I49
sS'donee'
p880
I49
sS'srry'
p881
I48
sS'calls'
p882
I48
sS'wife'
p883
I49
sS'wifi'
p884
I49
sS'vines'
p885
I49
sS'u'
p886
I41
sS'vinee'
p887
I49
sS'biiitch'
p888
I49
sS'starting'
p889
I47
sS'all'
p890
I35
sS'ptl'
p891
I49
sS'liar'
p892
I49
sS'forget'
p893
I49
sS'month'
p894
I48
sS'limittttt'
p895
I49
sS'follow'
p896
I48
sS'children'
p897
I49
sS'ty'
p898
I48
sS'imma'
p899
I31
sS'to'
p900
I6
sS'tl'
p901
I49
sS'tf'
p902
I49
sS'health'
p903
I49
sS'enjoying'
p904
I48
sS'davay'
p905
I49
sS'woman'
p906
I49
sS'appointment'
p907
I49
sS'worse'
p908
I48
sS'sitting'
p909
I48
sS'very'
p910
I48
sS'fav'
p911
I49
sS'fat'
p912
I47
sS'worst'
p913
I49
sS'fall'
p914
I48
sS'fuckkkk'
p915
I49
sS'upppp'
p916
I49
sS'list'
p917
I49
sS'these'
p918
I41
sS"'ya?'"
p919
I49
sS'6\'2"eyes'
p920
I49
sS'20th'
p921
I49
sS"i'll"
p922
I42
sS'past'
p923
I49
sS'burger'
p924
I49
sS'gratitude.\xe2\x80\x9d'
p925
I49
sS'eating"why'
p926
I49
sS'what'
p927
I27
sS'abe'
p928
I49
sS'sun'
p929
I48
sS'guna'
p930
I49
sS'kyank"'
p931
I49
sS'tattoos'
p932
I47
sS'answers'
p933
I49
sS'hours'
p934
I48
sS'november'
p935
I49
sS'strong'
p936
I49
sS'legend'
p937
I49
sS'creeps'
p938
I49
sS'checkouts'
p939
I49
sS'kyanks'
p940
I49
sS'lmfaoaoaoooooo'
p941
I48
sS'amount'
p942
I49
sS'fwy'
p943
I49
sS'pick'
p944
I48
sS'hima'
p945
I49
sS'\xe2\x9d\xa4\xef\xb8\x8f\xe2\x9d\xa4\xef\xb8\x8f\xe2\x9d\xa4\xef\xb8\x8f\xe2\x9d\xa4\xef\xb8\x8f\xe2\x9d\xa4\xef\xb8\x8f'
p946
I49
sS'family'
p947
I47
sS'texts'
p948
I49
sS'armen'
p949
I49
sS'takes'
p950
I49
sS'kik\xe2\x80\x9d'
p951
I49
sS'two'
p952
I47
sS'6'
p953
I48
sS'shits'
p954
I49
sS'more'
p955
I37
sS'teen'
p956
I49
sS'tryna'
p957
I49
sS'bulgarian'
p958
I49
sS'knows'
p959
I47
sS"ain't"
p960
I47
sS'dislike'
p961
I49
sS'glad'
p962
I48
sS'none'
p963
I49
sS'hour'
p964
I47
sS'knocked'
p965
I49
sS'beautiful'
p966
I47
sS'\xe2\x98\x95\xef\xb8\x8f'
p967
I49
sS'mymini\xe2\x9d\xa4\xef\xb8\x8f'
p968
I49
sS'needs'
p969
I49
sS'awkward'
p970
I49
sS'rather'
p971
I48
sS'needa'
p972
I49
sS'hrach'
p973
I47
sS'goat'
p974
I49
sS'okay'
p975
I47
sS'tried'
p976
I48
sS'rude'
p977
I49
sS'scaryy'
p978
I49
sS'blood'
p979
I49
sS'pat'
p980
I49
sS'a'
p981
I8
sS'short'
p982
I48
sS'onto'
p983
I49
sS'anytime'
p984
I49
sS'tsap'
p985
I49
sS'lmfaooooo'
p986
I46
sS'pleasure'
p987
I49
sS'dream'
p988
I48
sS'playing'
p989
I48
sS"that's"
p990
I47
sS'help'
p991
I47
sS"don't"
p992
I20
sS'brotha'
p993
I49
sS'sooo'
p994
I48
sS'soon'
p995
I49
sS'bcuz'
p996
I47
sS'through'
p997
I49
sS'shit\xe2\x80\x9d'
p998
I48
sS'hell'
p999
I48
sS'24'
p1000
I49
sS'21'
p1001
I49
sS'thnx'
p1002
I49
sS'actually'
p1003
I45
sS'>>>'
p1004
I49
sS'systems'
p1005
I49
sS'bout'
p1006
I47
sS'might'
p1007
I49
sS"haven't"
p1008
I47
sS'good'
p1009
I36
sS'somebody'
p1010
I49
sS'sucking'
p1011
I49
sS'yo'
p1012
I48
sS'ya'
p1013
I47
sS'uhm'
p1014
I49
sS"you've"
p1015
I49
sS'bigger'
p1016
I49
sS'everytime'
p1017
I49
sS'always'
p1018
I46
sS"6'4"
p1019
I49
sS'found'
p1020
I47
sS'friendship'
p1021
I49
sS"isn't"
p1022
I49
sS'everyone'
p1023
I49
sS'weight'
p1024
I49
sS'house'
p1025
I45
sS'hard'
p1026
I49
sS'blues'
p1027
I49
sS'beyond'
p1028
I49
sS'really'
p1029
I41
sS'greenhair'
p1030
I49
sS'siremmm'
p1031
I49
sS'anasun'
p1032
I49
sS'since'
p1033
I49
sS'krispy'
p1034
I49
sS"they'll"
p1035
I49
sS'lolz'
p1036
I49
sS'ass'
p1037
I44
sS'drink'
p1038
I48
sS'bass'
p1039
I49
sS'pathetic'
p1040
I49
sS'timeline'
p1041
I49
sS'friday'
p1042
I49
sS'story'
p1043
I45
sS'ask\xe2\x80\x9d'
p1044
I49
sS'reason'
p1045
I49
sS'imagine'
p1046
I49
sS'put'
p1047
I49
sS'ash'
p1048
I49
sS'tolma'
p1049
I49
sS'expecting'
p1050
I48
sS'w'
p1051
I48
sS'feed'
p1052
I49
sS'dont'
p1053
I48
sS'feel'
p1054
I45
sS'number'
p1055
I47
sS'valentine'
p1056
I49
sS'done'
p1057
I45
sS'miss'
p1058
I49
sS'guess'
p1059
I48
sS'positano'
p1060
I49
sS'together'
p1061
I49
sS'least'
p1062
I48
sS'hundred'
p1063
I49
sS'headache'
p1064
I48
sS'muscles'
p1065
I49
sS'relationship'
p1066
I48
sS'hotel'
p1067
I49
sS'mentality'
p1068
I49
sS'part'
p1069
I49
sS'believe'
p1070
I47
sS'what?\xe2\x80\x9dlike'
p1071
I49
sS'04:52:37.0,34.22590249,-118.35763052,1021.03,\xe2\x98\x81\xef\xb8\x8f'
p1072
I49
sS'kind'
p1073
I48
sS'john'
p1074
I49
sS'god\xe2\x80\x9d'
p1075
I49
sS'gotten'
p1076
I48
sS'kreme'
p1077
I49
sS'grey'
p1078
I49
sS'recording'
p1079
I49
sS'supposed'
p1080
I49
sS'vapshe'
p1081
I48
sS'outta'
p1082
I48
sS'a.n.n.o.y.i.n.g'
p1083
I49
sS'nightt'
p1084
I49
sS'lik'
p1085
I49
sS'majority'
p1086
I49
sS'lip'
p1087
I49
sS'yeahh'
p1088
I49
sS'finding'
p1089
I49
sS'play'
p1090
I48
sS'towards'
p1091
I49
sS'literal'
p1092
I49
sS'much.\xe2\x80\x9d'
p1093
I49
sS'most'
p1094
I48
sS'seasons'
p1095
I49
sS'kay'
p1096
I48
sS'kk'
p1097
I48
sS'ko'
p1098
I46
sS'exi'
p1099
I49
sS'lolll'
p1100
I49
sS'aloneee'
p1101
I49
sS'clean'
p1102
I49
sS'arten'
p1103
I48
sS'ugh'
p1104
I48
sS'siktir'
p1105
I48
sS'grandmas'
p1106
I48
sS'workout"'
p1107
I48
sS'lmfaooooooo'
p1108
I48
sS'stfu'
p1109
I47
sS'fine'
p1110
I49
sS'find'
p1111
I46
sS'lovee'
p1112
I49
sS'glux'
p1113
I49
sS'failed'
p1114
I49
sS'flights'
p1115
I49
sS'pretty'
p1116
I48
sS'8'
p1117
I49
sS'lombard'
p1118
I49
sS'his'
p1119
I47
sS'hit'
p1120
I49
sS'\xd8\xa7\xd9\x84\xd9\x84\xd8\xb9\xd9\x86\xd8\xa9'
p1121
I49
sS'vinnyyy'
p1122
I49
sS'observatory'
p1123
I49
sS'him'
p1124
I48
sS'enemy'
p1125
I49
sS'rft'
p1126
I49
sS'cry'
p1127
I47
sS'lewinsky'
p1128
I49
sS'lmfaoooooo'
p1129
I48
sS'art'
p1130
I49
sS'vine'
p1131
I48
sS'scruffs'
p1132
I49
sS'angin'
p1133
I49
sS'ara'
p1134
I48
sS'see'
p1135
I46
sS'dumb'
p1136
I49
sS'whyyy'
p1137
I49
sS'arg'
p1138
I49
sS'ari'
p1139
I49
sS'"tight'
p1140
I49
sS'"straightening'
p1141
I49
sS'visiting'
p1142
I49
sS'movie'
p1143
I48
sS'wow'
p1144
I47
sS'nutella'
p1145
I49
sS'crossword'
p1146
I49
sS'probably'
p1147
I48
sS'rlly'
p1148
I49
sS'"that'
p1149
I49
sS'outfit'
p1150
I48
sS'pissed'
p1151
I49
sS'both'
p1152
I49
sS'last'
p1153
I46
sS'oovoo'
p1154
I49
sS'whole'
p1155
I47
sS'point'
p1156
I49
sS'8\xe2\x83\xa30\xe2\x83\xa38\xe2\x83\xa3'
p1157
I49
sS'loveee'
p1158
I49
sS'whatever'
p1159
I49
sS'simply'
p1160
I48
sS'damn'
p1161
I49
sS'9:30'
p1162
I49
sS'woke'
p1163
I46
sS'lived'
p1164
I49
sS'gay'
p1165
I46
sS'elsa'
p1166
I49
sS'else'
p1167
I45
sS'tomorrowworld'
p1168
I49
sS'tavari'
p1169
I49
sS'awake'
p1170
I47
sS':)))))'
p1171
I49
sS"what'd"
p1172
I49
sS'look'
p1173
I38
sS'frozen'
p1174
I49
sS'straight'
p1175
I49
sS'convo'
p1176
I49
sS'while'
p1177
I48
sS'fun'
p1178
I47
sS'\xee\x8c\x92\xee\x8c\x92'
p1179
I49
sS'rip'
p1180
I49
sS'sirun'
p1181
I49
sS'vor'
p1182
I49
sS'"xeris"'
p1183
I49
sS'rid'
p1184
I49
sS'funny'
p1185
I45
sS'italy'
p1186
I48
sS'g-eazy'
p1187
I49
sS'viola'
p1188
I49
sS'used'
p1189
I49
sS'tufta'
p1190
I49
sS'early'
p1191
I45
sS'waxed"ara'
p1192
I49
sS'anybody'
p1193
I49
sS'person'
p1194
I39
sS'inspirational'
p1195
I49
sS'tiredddd'
p1196
I49
sS"david's"
p1197
I48
sS'kaddy'
p1198
I49
sS'cocky'
p1199
I49
sS'cut'
p1200
I47
sS'also'
p1201
I49
sS'cuz'
p1202
I42
sS'overthinking'
p1203
I49
sS'parents'
p1204
I46
sS'crying'
p1205
I48
sS'snap'
p1206
I49
sS"nona's"
p1207
I49
sS'big'
p1208
I47
sS'couple'
p1209
I49
sS'game'
p1210
I47
sS'them"why"cuz'
p1211
I49
sS'shittt'
p1212
I49
sS'projects'
p1213
I49
sS'knock'
p1214
I48
sS'follows'
p1215
I48
sS'mexk'
p1216
I49
sS'walrus'
p1217
I49
sS'often'
p1218
I49
sS'fucking'
p1219
I39
sS'some'
p1220
I45
sS'back'
p1221
I42
sS'mirror'
p1222
I49
sS'daughter?"'
p1223
I49
sS'committing'
p1224
I49
sS'savage'
p1225
I49
sS'laughing'
p1226
I46
sS'will.\xe2\x80\x9d'
p1227
I49
sS'run'
p1228
I49
sS'bb'
p1229
I49
sS'bc'
p1230
I49
sS'remembered'
p1231
I49
sS'lmaoooo'
p1232
I49
sS'bh'
p1233
I48
sS'nelly'
p1234
I48
sS'bp'
p1235
I49
sS'nerves'
p1236
I48
sS'sarahs'
p1237
I49
sS'by'
p1238
I44
sS'anything'
p1239
I47
sS'kar'
p1240
I49
sS'idk'
p1241
I45
sS'wanna'
p1242
I37
sS'idc'
p1243
I49
sS'seeing'
p1244
I48
sS'dude'
p1245
I46
sS'mommy'
p1246
I49
sS'suicideare'
p1247
I49
sS'nigga'
p1248
I49
sS'lebron'
p1249
I49
sS'nelllyv'
p1250
I49
sS'\xe2\x80\x9ci'
p1251
I49
sS'question'
p1252
I49
sS'long'
p1253
I47
sS'bruh'
p1254
I39
sS'forward'
p1255
I49
sS'parem'
p1256
I49
sS'bored'
p1257
I47
sS'scared'
p1258
I49
sS'boys'
p1259
I49
sS'properly'
p1260
I49
sS'hopes'
p1261
I49
sS'episode'
p1262
I49
sS'line'
p1263
I49
sS'sovats'
p1264
I49
sS'erick'
p1265
I49
sS"hasn't"
p1266
I48
sS'us'
p1267
I48
sS'stalking'
p1268
I48
sS'un'
p1269
I49
sS'fried'
p1270
I49
sS'called'
p1271
I46
sS'110'
p1272
I49
sS'freak'
p1273
I49
sS'florida\xe2\x80\x9d'
p1274
I49
sS'chat'
p1275
I49
sS'%'
p1276
I48
sS'tara'
p1277
I49
sS'club'
p1278
I49
sS'nap'
p1279
I49
sS'nat'
p1280
I49
sS'naz'
p1281
I48
sS'ooooooo'
p1282
I49
sS'nice'
p1283
I47
sS'society.\xe2\x80\x9d'
p1284
I49
sS'accidental'
p1285
I49
sS'problems'
p1286
I49
sS"guy's"
p1287
I49
sS'caressss'
p1288
I49
sS'happier'
p1289
I49
sS'walked'
p1290
I49
sS'23:16:17.0,34.22586302,-118.35767149,1021.03,this'
p1291
I49
sS'waxing'
p1292
I49
sS'hella'
p1293
I48
sS'aiko'
p1294
I49
sS"she's"
p1295
I48
sS'having'
p1296
I47
sS'once'
p1297
I48
sS'edc'
p1298
I49
sS'glenoaks'
p1299
I49
sS'knockout'
p1300
I49
sS'cynthia'
p1301
I48
sS'edo'
p1302
I45
sS'steve'
p1303
I49
sS'go'
p1304
I29
sS'gn'
p1305
I49
sS'tweeted'
p1306
I49
sS'centers'
p1307
I49
sS'seemed'
p1308
I49
sS'send'
p1309
I47
sS'retweets'
p1310
I49
sS'holyy'
p1311
I49
sS'friendly'
p1312
I49
sS'asuma'
p1313
I49
sS'breathing'
p1314
I49
sS'outside'
p1315
I49
sS'omfgggg'
p1316
I49
sS'vine\xe2\x80\x9d'
p1317
I49
sS'wishes'
p1318
I49
sS'axchi'
p1319
I48
sS'telling'
p1320
I48
sS'entire'
p1321
I49
sS'lmfaaoaooo'
p1322
I49
sS'notes'
p1323
I48
sS'try'
p1324
I49
sS'this'
p1325
I14
sS'nude\xe2\x80\x9d'
p1326
I49
sS'min'
p1327
I49
sS':)\xe2\x80\x9d'
p1328
I49
sS'havent'
p1329
I49
sS'huge"i\'m'
p1330
I49
sS'bleeding'
p1331
I48
sS'crop'
p1332
I47
sS'video'
p1333
I49
sS'\xee\x84\x8c\xee\x80\xa2'
p1334
I49
sS'twitters'
p1335
I48
sS'click'
p1336
I49
sS'giving'
p1337
I49
sS'"bootklirs"'
p1338
I49
sS"lip's"
p1339
I49
sS'seconds'
p1340
I49
sS'waiting'
p1341
I49
sS'body'
p1342
I49
sS'wtfffff'
p1343
I49
sS'eminem'
p1344
I49
sS'mkay'
p1345
I49
sS"'king"
p1346
I49
sS'let'
p1347
I49
sS'yourself\xe2\x80\x9d'
p1348
I49
sS'sing'
p1349
I48
sS'kidnapped'
p1350
I49
sS'talent'
p1351
I49
sS'titanic'
p1352
I49
sS"weren't"
p1353
I49
sS'makes'
p1354
I49
sS'thats'
p1355
I48
sS'named'
p1356
I49
sS'apple'
p1357
I49
sS'app'
p1358
I48
sS'names'
p1359
I49
sS'singing'
p1360
I49
sS'from'
p1361
I40
sS'che'
p1362
I49
sS'blockaded'
p1363
I49
sS'&'
p1364
I9
sS';/'
p1365
I49
sS'mirrors'
p1366
I49
sS'next'
p1367
I48
sS'laying'
p1368
I49
sS'themselves'
p1369
I49
sS'vinnyyyy'
p1370
I49
sS'babe'
p1371
I49
sS'started'
p1372
I46
sS'confused'
p1373
I49
sS'baby'
p1374
I49
sS'annoy'
p1375
I49
sS'high'
p1376
I49
sS'meee'
p1377
I48
sS'hayvan'
p1378
I49
sS'mommas'
p1379
I49
sS'meet'
p1380
I49
sS'none"'
p1381
I49
sS'jewelry\xc2\xbf\xc2\xbf'
p1382
I49
sS'thirsty'
p1383
I48
sS'do'
p1384
I36
sS'kltchikkk'
p1385
I49
sS'escaped'
p1386
I49
sS'tag'
p1387
I49
sS'something'
p1388
I48
sS'tam'
p1389
I49
sS'tan'
p1390
I49
sS'cuteee'
p1391
I48
sS'sia'
p1392
I49
sS'stop'
p1393
I36
sS'workouts>'
p1394
I49
sS'dyinggggggg'
p1395
I49
sS'somethin'
p1396
I49
sS'light'
p1397
I49
sS'honestly'
p1398
I45
sS'a/c'
p1399
I49
sS"won't"
p1400
I46
sS'looks'
p1401
I49
sS'tyrant'
p1402
I49
sS'perfect'
p1403
I47
sS'la'
p1404
I48
sS'responsibilities'
p1405
I49
sS'orange'
p1406
I49
sS'bye'
p1407
I48
sS'dad'
p1408
I47
sS'cuss'
p1409
I48
sS'surrounds'
p1410
I48
sS'talents\xe2\x80\x9d'
p1411
I49
sS'2:30*2:30'
p1412
I49
sS'kindness'
p1413
I49
sS'day'
p1414
I42
sS'doesnt'
p1415
I49
sS"ya'll"
p1416
I49
sS'doing'
p1417
I48
sS'staying'
p1418
I49
sS'society'
p1419
I49
sS'books'
p1420
I48
sS'njdeh'
p1421
I48
sS'our'
p1422
I47
sS'special'
p1423
I49
sS'out'
p1424
I28
sS"music's"
p1425
I49
sS'hilarious'
p1426
I49
sS'9:00pm'
p1427
I49
sS'cause'
p1428
I48
sS'time"'
p1429
I49
sS'shut'
p1430
I49
sS'uppp'
p1431
I49
sS'clarify'
p1432
I49
sS'completely'
p1433
I49
sS'please'
p1434
I48
sS'craving'
p1435
I48
sS'die"kakus'
p1436
I49
sS'g'
p1437
I49
sS'geometry'
p1438
I49
sS'deprived'
p1439
I49
sS'too.\xe2\x80\x9d'
p1440
I49
sS'"idgaf"'
p1441
I49
sS'times'
p1442
I47
sS'freeeezing'
p1443
I49
sS'cavvvvvvvvv'
p1444
I49
sS'subtweeting'
p1445
I47
sS'timee'
p1446
I49
sS'south'
p1447
I49
sS'finest'
p1448
I49
sS'yells'
p1449
I49
sS'scene'
p1450
I49
sS'jesus'
p1451
I49
sS'pdarsak'
p1452
I49
sS'bitch'
p1453
I47
sS'prank'
p1454
I49
sS'sharon'
p1455
I49
sS'los'
p1456
I49
sS'accent'
p1457
I49
sS'don\'t."'
p1458
I49
sS'their'
p1459
I41
sS'vagina'
p1460
I49
sS'perfectly'
p1461
I49
sS'photoshopped'
p1462
I49
sS'stomach'
p1463
I49
sS'smthing'
p1464
I49
sS'july'
p1465
I49
sS'besttt'
p1466
I49
sS'haven'
p1467
I49
sS'melfie'
p1468
I49
sS'bother'
p1469
I49
sS'lion'
p1470
I49
sS'bed'
p1471
I46
sS'kaxem'
p1472
I49
sS'spaneluemmmmmmm'
p1473
I49
sS'are'
p1474
I21
sS'wakes'
p1475
I49
sS'spelled'
p1476
I49
sS'tonight'
p1477
I49
sS'howww'
p1478
I49
sS'have'
p1479
I24
sS'need'
p1480
I45
sS"let's"
p1481
I49
sS'congrats'
p1482
I49
sS'studying'
p1483
I48
sS'concerns'
p1484
I49
sS'which'
p1485
I49
sS'eat.\xe2\x80\x9d'
p1486
I49
sS'asshole'
p1487
I47
sS'lily'
p1488
I48
sS'comes*"dav'
p1489
I49
sS'now...i'
p1490
I49
sS'guys\xe2\x80\x9d'
p1491
I49
sS'unless'
p1492
I49
sS'aww'
p1493
I49
sS'who'
p1494
I36
sS'lmaooo'
p1495
I49
sS'cracking'
p1496
I49
sS'prisoner'
p1497
I49
sS'why'
p1498
I35
sS'face"'
p1499
I49
sS'dawgg'
p1500
I49
sS'face'
p1501
I49
sS'looked'
p1502
I49
sS"you'll"
p1503
I48
sS'pilibos'
p1504
I47
sS'skinny'
p1505
I49
sS'fact'
p1506
I49
sS'macaron'
p1507
I49
sS'me-bought'
p1508
I49
sS'lmaoo'
p1509
I48
sS'assholes'
p1510
I49
sS'bring'
p1511
I47
sS'pleasee'
p1512
I49
sS'one'
p1513
I32
sS'should'
p1514
I45
sS'hope'
p1515
I48
sS"lionel's"
p1516
I49
sS'meant'
p1517
I49
sS'means'
p1518
I48
sS'beat'
p1519
I48
sS'mainly'
p1520
I49
sS'tbh'
p1521
I49
sS'gortsit'
p1522
I49
sS'words'
p1523
I49
sS"everyday\xe2\x80\xa6'like"
p1524
I49
sS'rapper'
p1525
I49
sS'17height'
p1526
I49
sS'she'
p1527
I37
sS'grad'
p1528
I49
sS'view'
p1529
I49
sS'fmlll'
p1530
I48
sS'packed'
p1531
I49
sS'luv'
p1532
I48
sS'yass'
p1533
I48
sS'horrible'
p1534
I49
sS'bought'
p1535
I49
sS'ends'
p1536
I49
sS'blinker'
p1537
I49
sS'lmfaoaooooooo'
p1538
I49
sS'amen'
p1539
I49
sS'makur'
p1540
I49
sS'job'
p1541
I48
sS'merry'
p1542
I49
sS'legit'
p1543
I49
sS'joke'
p1544
I49
sS'taking'
p1545
I48
sS'*oovooing'
p1546
I49
sS'cuzzzylove'
p1547
I49
sS'anasun\xe2\x80\x9d'
p1548
I49
sS'stalkin'
p1549
I49
sS'fukin'
p1550
I49
sS'laugh'
p1551
I49
sS"lora's"
p1552
I48
sS'together"'
p1553
I49
sS'goodnight\xe2\x9c\x8c\xef\xb8\x8f'
p1554
I49
sS'lmfaoaooaoooo'
p1555
I49
sS'quit'
p1556
I49
sS"it's"
p1557
I28
sS'amiga'
p1558
I49
sS'"thatmerut'
p1559
I49
sS'drank'
p1560
I49
sS'>'
p1561
I49
sS'pic'
p1562
I49
sS'bit'
p1563
I49
sS'nayem'
p1564
I49
sS"doesn't"
p1565
I46
sS'tfti'
p1566
I49
sS'-.-'
p1567
I44
sS'chkamm'
p1568
I49
sS'harder'
p1569
I49
sS'will'
p1570
I48
sS'okay.\xe2\x80\x9d'
p1571
I49
sS'cuzin'
p1572
I49
sS'almost'
p1573
I48
sS'a.n.n.o.y.e.d'
p1574
I49
sS'avi'
p1575
I49
sS'partynextdoor'
p1576
I49
sS'capture'
p1577
I49
sS'privileges'
p1578
I49
sS'shittttttss'
p1579
I49
sS'parts'
p1580
I49
sS'inch'
p1581
I48
sS'party'
p1582
I49
sS'gets'
p1583
I47
sS'yooo'
p1584
I49
sS'1-0'
p1585
I49
sS'forgotten'
p1586
I49
sS'upon'
p1587
I49
sS'armen*'
p1588
I49
sS'fucked'
p1589
I48
sS'keep'
p1590
I48
sS'//'
p1591
I47
sS'tenam'
p1592
I49
sS'mech'
p1593
I49
sS'off'
p1594
I44
sS'i'
p1595
I1
sS'well'
p1596
I46
sS'dav'
p1597
I49
sS'thought'
p1598
I47
sS'dat\xe2\x80\x9d'
p1599
I49
sS'english'
p1600
I49
sS':))))'
p1601
I49
sS'janov'
p1602
I49
sS'fat"'
p1603
I49
sS'closer\xe2\x80\x9d'
p1604
I49
sS'barking'
p1605
I49
sS'cried'
p1606
I48
sS'6am'
p1607
I49
sS'innocent"'
p1608
I49
sS'rooms'
p1609
I49
sS'kisos'
p1610
I49
sS'griffith'
p1611
I49
sS'taken'
p1612
I49
sS'drunk'
p1613
I49
sS'clyde'
p1614
I49
sS'nicki'
p1615
I49
sS'crack'
p1616
I49
sS'5'
p1617
I44
sS'livin'
p1618
I49
sS'know'
p1619
I37
sS'nvm'
p1620
I49
sS'"your'
p1621
I49
sS'like'
p1622
I15
sS'fernando'
p1623
I49
sS'loser'
p1624
I49
sS'sissy'
p1625
I48
sS'leaves'
p1626
I49
sS'5\xe2\x83\xa3'
p1627
I49
sS'page'
p1628
I49
sS'because'
p1629
I46
sS'twitter'
p1630
I43
sS'alive'
p1631
I49
sS'hair'
p1632
I46
sS'shes'
p1633
I49
sS'home'
p1634
I45
sS"school's"
p1635
I49
sS'happens'
p1636
I48
sS'cryingggg'
p1637
I48
sS'literally'
p1638
I44
sS'does'
p1639
I44
sS'arnem'
p1640
I49
sS'poets'
p1641
I49
sS'lmfaoaoaooaoo'
p1642
I49
sS'kristie'
p1643
I49
sS'r'
p1644
I48
sS'after'
p1645
I49
sS'gained'
p1646
I49
sS'about'
p1647
I40
sS'getting'
p1648
I43
sS'shaking'
p1649
I49
sS'angeles'
p1650
I49
sS'jhene'
p1651
I49
sS'swear'
p1652
I47
sS'introduced'
p1653
I49
sS'meram'
p1654
I49
sS'own'
p1655
I47
sS'pussy'
p1656
I48
sS's(he)'
p1657
I49
sS'immune'
p1658
I49
sS'weather'
p1659
I49
sS'lowkey'
p1660
I49
sS'kidding'
p1661
I48
sS'vay'
p1662
I49
sS'buy'
p1663
I49
sS"i've"
p1664
I39
sS'bitches'
p1665
I49
sS'hw'
p1666
I48
sS'but'
p1667
I31
sS'ha'
p1668
I49
sS'bitched'
p1669
I49
sS'he'
p1670
I35
sS'made'
p1671
I43
sS'places'
p1672
I49
sS'wish'
p1673
I44
sS'fuckboy'
p1674
I49
sS'subtweets'
p1675
I49
sS'cake'
p1676
I47
sS'recognize'
p1677
I49
sS'year'
p1678
I49
sS'gtfo'
p1679
I49
sS'et'
p1680
I49
sS'lately'
p1681
I49
sS'other'
p1682
I47
sS'sick'
p1683
I48
sS'talkin'
p1684
I49
sS'conclusion'
p1685
I49
sS'francisco'
p1686
I49
sS'living'
p1687
I49
sS'hasel'
p1688
I49
sS'chance'
p1689
I49
sS'in)'
p1690
I47
sS'kinda'
p1691
I47
sS'friends'
p1692
I45
sS'kardashian'
p1693
I49
sS'oral'
p1694
I49
sS'understand'
p1695
I48
s.