(dp0
S''
p1
I4
sS'all'
p2
I25
sS':('
p3
I28
sS'dance'
p4
I28
sS'gf'
p5
I28
sS'sleep'
p6
I26
sS'go'
p7
I20
sS'gn'
p8
I27
sS'hate'
p9
I28
sS'issues'
p10
I28
sS'hmmm'
p11
I28
sS'21st'
p12
I28
sS'lovveedddd'
p13
I28
sS'tv'
p14
I28
sS'tu'
p15
I28
sS'young'
p16
I28
sS'thursday'
p17
I28
sS'to'
p18
I5
sS'finally'
p19
I27
sS'singing*'
p20
I28
sS'tf'
p21
I28
sS'charity'
p22
I28
sS'regrets'
p23
I28
sS'queen'
p24
I28
sS'point'
p25
I28
sS'tour"'
p26
I28
sS'very'
p27
I28
sS"zoe's"
p28
I28
sS'horror'
p29
I28
sS'avalon'
p30
I28
sS'every'
p31
I27
sS'minded'
p32
I28
sS'fall'
p33
I28
sS'portos'
p34
I28
sS'ticket'
p35
I27
sS'bringing'
p36
I28
sS'school'
p37
I25
sS'sore\xe2\x80\xa6'
p38
I28
sS'did'
p39
I26
sS'forth'
p40
I28
sS'try'
p41
I28
sS'hittin'
p42
I28
sS'car'
p43
I25
sS"bestfriend's"
p44
I28
sS'heading'
p45
I28
sS'clothes'
p46
I28
sS"i'll"
p47
I27
sS'booty'
p48
I28
sS'instagram'
p49
I28
sS'it..lol'
p50
I28
sS'weddings'
p51
I23
sS'second'
p52
I28
sS'ramp)'
p53
I28
sS'19+'
p54
I28
sS'follow'
p55
I28
sS'free-for-all'
p56
I28
sS'even'
p57
I28
sS'what'
p58
I23
sS'power'
p59
I28
sS'giving'
p60
I28
sS'sum'
p61
I28
sS'waiting'
p62
I27
sS'new'
p63
I28
sS'falling'
p64
I27
sS'ever'
p65
I27
sS'told'
p66
I27
sS'full'
p67
I28
sS"c'mon"
p68
I28
sS'exchange'
p69
I28
sS'never'
p70
I28
sS'here'
p71
I28
sS'\xe2\x9d\xa4\xef\xb8\x8f'
p72
I27
sS'let'
p73
I27
sS'alone'
p74
I28
sS'along'
p75
I28
sS'shoulda'
p76
I28
sS'celebration'
p77
I28
sS'boy'
p78
I28
sS'great'
p79
I27
sS'tire'
p80
I28
sS'stevie'
p81
I28
sS'leaves'
p82
I28
sS'leaving'
p83
I26
sS'stomachs'
p84
I28
sS'fwy'
p85
I26
sS'social'
p86
I28
sS"i'm"
p87
I2
sS'homecoming'
p88
I28
sS'thats'
p89
I24
sS'love'
p90
I22
sS'santa'
p91
I28
sS'family'
p92
I28
sS'ask'
p93
I28
sS'names'
p94
I28
sS'1st'
p95
I27
sS'imaginary'
p96
I28
sS'everybody'
p97
I27
sS'from'
p98
I24
sS'usa'
p99
I28
sS'&'
p100
I26
sS'doodle'
p101
I28
sS'two'
p102
I28
sS'insult'
p103
I28
sS'ca)'
p104
I6
sS'going'
p105
I28
sS'music'
p106
I25
sS'iphone'
p107
I28
sS',91352\n471086931242389504,royalm___,2014-05-27'
p108
I28
sS'tryin'
p109
I28
sS'type'
p110
I28
sS'tell'
p111
I27
sS'today'
p112
I24
sS'loving'
p113
I27
sS'babe'
p114
I28
sS'company'
p115
I28
sS'haha'
p116
I28
sS'ooh'
p117
I28
sS'award'
p118
I28
sS'it'
p119
I17
sS'fuel'
p120
I28
sS'flag'
p121
I28
sS'??june'
p122
I28
sS'stick'
p123
I28
sS'baby'
p124
I27
sS'hold'
p125
I28
sS'glad'
p126
I28
sS'must'
p127
I27
sS'me'
p128
I10
sS'mf'
p129
I28
sS'this'
p130
I19
sS'roscoe'
p131
I28
sS'ride'
p132
I27
sS'work'
p133
I28
sS'sucks'
p134
I28
sS'soul'
p135
I27
sS'seahawks'
p136
I28
sS'pr'
p137
I28
sS'mechanic'
p138
I28
sS'learn'
p139
I28
sS'growing'
p140
I28
sS'my'
p141
I7
sS'drizzling'
p142
I28
sS'150000'
p143
I28
sS'crazy'
p144
I28
sS'wheelchair-bound'
p145
I28
sS'december'
p146
I28
sS'snuck'
p147
I28
sS"didn't"
p148
I28
sS'fuck'
p149
I25
sS'high'
p150
I28
sS'o'
p151
I28
sS'want'
p152
I28
sS'station'
p153
I26
sS'story'
p154
I28
sS'dress'
p155
I28
sS'flatbed'
p156
I28
sS'low'
p157
I28
sS'hoe'
p158
I28
sS'end'
p159
I28
sS'awkward'
p160
I27
sS'thing'
p161
I28
sS'rather'
p162
I28
sS'watching'
p163
I28
sS'how'
p164
I19
sS'ig'
p165
I28
sS'\xe2\x9a\xbe\xef\xb8\x8f'
p166
I28
sS'instead'
p167
I28
sS'idk'
p168
I28
sS'fr'
p169
I28
sS'okay'
p170
I27
sS'monica'
p171
I28
sS'\xe2\x99\xa5\xe2\x99\xa5\xe2\x99\xa5'
p172
I28
sS'mess'
p173
I28
sS'stop'
p174
I28
sS'stahhhhp'
p175
I28
sS'fa'
p176
I28
sS'wrong'
p177
I27
sS'plane'
p178
I27
sS'mediated'
p179
I28
sS'coming'
p180
I28
sS'hahahaha'
p181
I28
sS'such'
p182
I27
sS'man'
p183
I25
sS'a'
p184
I8
sS'thought'
p185
I28
sS'short'
p186
I28
sS'babyjust'
p187
I28
sS'maybe'
p188
I28
sS'idc'
p189
I28
sS'mango'
p190
I28
sS'so'
p191
I27
sS'keeps'
p192
I28
sS'worst'
p193
I28
sS'playing'
p194
I27
sS'talk'
p195
I28
sS"that's"
p196
I27
sS'cute'
p197
I26
sS'theme'
p198
I28
sS"don't"
p199
I21
sS'over'
p200
I28
sS'soon'
p201
I28
sS'years'
p202
I27
sS'foreal'
p203
I28
sS'kanye'
p204
I27
sS'still'
p205
I26
sS'mayor'
p206
I26
sS'perfect'
p207
I27
sS'la'
p208
I26
sS'finee'
p209
I28
sS'better'
p210
I27
sS'grade'
p211
I28
sS'production'
p212
I28
sS'bout'
p213
I28
sS'bye'
p214
I28
sS'at\xe2\x80\xa6'
p215
I28
sS"haven't"
p216
I27
sS'dad'
p217
I28
sS'then'
p218
I28
sS'them'
p219
I28
sS'good'
p220
I26
sS'return'
p221
I28
sS'\xe2\x98\x94\xef\xb8\x8f'
p222
I28
sS'clippers'
p223
I28
sS'feelin'
p224
I28
sS'break'
p225
I27
sS'lunch'
p226
I28
sS'walls'
p227
I28
sS'they'
p228
I24
sS'hands'
p229
I28
sS'not'
p230
I22
sS'wargasm'
p231
I27
sS'now'
p232
I23
sS'day'
p233
I24
sS'suppose'
p234
I28
sS'alex'
p235
I28
sS'always'
p236
I27
sS'compassion'
p237
I28
sS'guard'
p238
I28
sS'drake'
p239
I28
sS'rock'
p240
I28
sS'side'
p241
I27
sS"isn't"
p242
I28
sS'bitch'
p243
I28
sS'everyone'
p244
I28
sS'gunna'
p245
I28
sS'house'
p246
I27
sS'energy'
p247
I28
sS'hard'
p248
I27
sS'yeah'
p249
I25
sS'challenger'
p250
I28
sS'static'
p251
I28
sS'year'
p252
I26
sS'hawt'
p253
I28
sS'homeruns'
p254
I28
sS'saturday'
p255
I28
sS'whip'
p256
I28
sS'really'
p257
I24
sS'rt'
p258
I28
sS'goi'
p259
I28
sS'network'
p260
I28
sS'fresno'
p261
I28
sS'god'
p262
I27
sS'since'
p263
I27
sS'rolls'
p264
I28
sS'seriously'
p265
I28
sS'miles'
p266
I27
sS'7'
p267
I28
sS'got'
p268
I21
sS'memes'
p269
I28
sS'cause'
p270
I28
sS'cartoons'
p271
I28
sS'ass'
p272
I21
sS'turning'
p273
I28
sS'298'
p274
I28
sS'cutest'
p275
I28
sS'pryor'
p276
I28
sS'(burbank'
p277
I6
sS'friday'
p278
I28
sS'motherfucker'
p279
I28
sS'free'
p280
I28
sS'reason'
p281
I28
sS'put'
p282
I28
sS'wanted'
p283
I27
sS'beginning'
p284
I28
sS'princess'
p285
I28
sS'playoffs'
p286
I28
sS'care'
p287
I25
sS'yard'
p288
I28
sS'launch'
p289
I28
sS'starts'
p290
I28
sS'could'
p291
I26
sS'days'
p292
I27
sS'kingdoms'
p293
I28
sS'turn'
p294
I27
sS'birthday'
p295
I24
sS'place'
p296
I28
sS'annoying'
p297
I28
sS'think'
p298
I26
sS'point.\xe2\x80\x9d'
p299
I28
sS'first'
p300
I27
sS'feed'
p301
I28
sS'already'
p302
I28
sS'dont'
p303
I25
sS'feel'
p304
I24
sS'?('
p305
I28
sS'one'
p306
I22
sS'staying'
p307
I28
sS'done'
p308
I27
sS'lol'
p309
I19
sS'says'
p310
I28
sS'miss'
p311
I27
sS'tomorrow'
p312
I25
sS'size'
p313
I28
sS'city'
p314
I27
sS'little'
p315
I24
sS'monkey'
p316
I28
sS'festival'
p317
I28
sS'caught'
p318
I28
sS'porn'
p319
I28
sS'least'
p320
I27
sS'ata'
p321
I28
sS'anyone'
p322
I28
sS'needed'
p323
I28
sS'2'
p324
I26
sS'i-5'
p325
I12
sS'too'
p326
I25
sS'mama'
p327
I28
sS'hollywood'
p328
I11
sS'trifling'
p329
I28
sS'williams'
p330
I28
sS'lease'
p331
I28
sS'tomato'
p332
I28
sS'shell'
p333
I26
sS'lot'
p334
I28
sS'that'
p335
I13
sS'gym'
p336
I28
sS'exactly'
p337
I28
sS'huh'
p338
I28
sS'jordan'
p339
I28
sS'becus'
p340
I28
sS'than'
p341
I27
sS'remember'
p342
I28
sS'11'
p343
I28
sS'10'
p344
I28
sS'b'
p345
I28
sS'bananas'
p346
I28
sS'lmao'
p347
I28
sS'boring'
p348
I27
sS'gotta'
p349
I27
sS'yet'
p350
I28
sS"bric's"
p351
I15
sS'bed'
p352
I28
sS'bee'
p353
I28
sS'friend'
p354
I28
sS'were'
p355
I28
sS'video'
p356
I28
sS'10th'
p357
I28
sS'ousted'
p358
I28
sS'browser'
p359
I28
sS'and'
p360
I9
sS'rad'
p361
I28
sS'fashion'
p362
I28
sS'san'
p363
I28
sS'tripred'
p364
I28
sS'sad'
p365
I28
sS'tonight'
p366
I27
sS'say'
p367
I28
sS'hug'
p368
I28
sS'have'
p369
I20
sS'need'
p370
I27
sS'cards-'
p371
I28
sS'tells'
p372
I28
sS'screw'
p373
I28
sS'nights'
p374
I28
sS'worry\xe2\x80\xa6'
p375
I28
sS'babysit'
p376
I28
sS'studying'
p377
I28
sS'me\xe2\x98\xba\xef\xb8\x8f'
p378
I28
sS'responsible'
p379
I28
sS'able'
p380
I28
sS'also'
p381
I28
sS'take'
p382
I27
sS'which'
p383
I28
sS'honestly'
p384
I28
sS'rides'
p385
I28
sS'though'
p386
I28
sS'uyy'
p387
I28
sS'quote'
p388
I28
sS"where's"
p389
I28
sS'tired'
p390
I28
sS'*starts'
p391
I28
sS'doi'
p392
I28
sS'jus'
p393
I28
sS'later'
p394
I27
sS'ko'
p395
I28
sS'drive'
p396
I27
sS'freeway'
p397
I11
sS'sd'
p398
I28
sS'came'
p399
I27
sS'europe*'
p400
I28
sS'alternator'
p401
I27
sS'ugh'
p402
I28
sS'shot'
p403
I28
sS'show'
p404
I27
sS'text'
p405
I27
sS'tampon'
p406
I28
sS'stfu'
p407
I28
sS'earth'
p408
I28
sS'fine'
p409
I28
sS'find'
p410
I27
sS'come.\xe2\x80\x9d'
p411
I28
sS'lessons'
p412
I28
sS'inspiring'
p413
I28
sS'slow'
p414
I28
sS'sayin'
p415
I28
sS'presets'
p416
I28
sS'justice'
p417
I28
sS'true'
p418
I28
sS'dick'
p419
I27
sS"baby's"
p420
I28
sS'roommates'
p421
I28
sS'should'
p422
I28
sS'penalty'
p423
I28
sS'only'
p424
I26
sS'jam'
p425
I28
sS"anyone's"
p426
I28
sS'pretty'
p427
I26
sS'money'
p428
I28
sS'california)'
p429
I27
sS'posted'
p430
I28
sS'chamberlain'
p431
I28
sS'meant'
p432
I28
sS'do'
p433
I26
sS'his'
p434
I23
sS'handle'
p435
I28
sS'get'
p436
I23
sS'sharting'
p437
I28
sS'watch'
p438
I28
sS'sipping'
p439
I28
sS'rebelution'
p440
I28
sS'feels'
p441
I27
sS'wedding'
p442
I28
sS'footballers'
p443
I28
sS'him'
p444
I28
sS'bat'
p445
I28
sS'la-_-'
p446
I28
sS'pimp'
p447
I28
sS'artist'
p448
I28
sS'lala'
p449
I28
sS'bay'
p450
I28
sS'twice'
p451
I28
sS'bad'
p452
I26
sS'bae'
p453
I27
sS'she'
p454
I18
sS'staaaaaaaarving'
p455
I28
sS'where'
p456
I27
sS'w/'
p457
I28
sS'see'
p458
I26
sS'asleep'
p459
I28
sS'are'
p460
I22
sS'desperate'
p461
I28
sS'hoes'
p462
I28
sS'best'
p463
I28
sS'wettest'
p464
I28
sS'mexicana'
p465
I28
sS'away'
p466
I28
sS'please'
p467
I28
sS'r.i.p'
p468
I28
sS'its'
p469
I27
sS'favor'
p470
I28
sS'3'
p471
I28
sS"there's"
p472
I28
sS':d'
p473
I28
sS'probably'
p474
I28
sS'lhhatl'
p475
I28
sS'bought'
p476
I28
sS'psychedelics'
p477
I28
sS'we'
p478
I21
sS'omg'
p479
I28
sS'august'
p480
I28
sS'boss'
p481
I28
sS'willing'
p482
I28
sS'white'
p483
I28
sS'joc'
p484
I28
sS'coffee'
p485
I28
sS'joe'
p486
I28
sS'(sun'
p487
I27
sS'genre'
p488
I28
sS'cousin'
p489
I28
sS'killing'
p490
I28
sS'come'
p491
I28
sS'feeling'
p492
I28
sS'last'
p493
I28
sS'signed'
p494
I28
sS'barely'
p495
I28
sS'ramp'
p496
I16
sS'conference'
p497
I28
sS'somewhere'
p498
I28
sS'way)'
p499
I28
sS'became'
p500
I28
sS'games'
p501
I28
sS'mane'
p502
I28
sS'kickboxing'
p503
I28
sS'whole'
p504
I28
sS'asked'
p505
I28
sS"can't"
p506
I28
sS"caleb's"
p507
I28
sS'bell'
p508
I28
sS'seems'
p509
I28
sS'malcolm'
p510
I28
sS'sweep'
p511
I28
sS'walk'
p512
I28
sS"silva's"
p513
I28
sS'niyan'
p514
I28
sS'loaded'
p515
I28
sS'throughout'
p516
I28
sS'considering'
p517
I28
sS'bathroom'
p518
I28
sS'would'
p519
I28
sS"it's"
p520
I25
sS'prince'
p521
I28
sS'three'
p522
I28
sS'been'
p523
I25
sS'much'
p524
I25
sS'damn'
p525
I27
sS'stadium'
p526
I28
sS'"friends'
p527
I28
sS'home)'
p528
I26
sS'life'
p529
I27
sS'pic'
p530
I28
sS'gay'
p531
I28
sS'fire'
p532
I28
sS'f**k'
p533
I28
sS"what's"
p534
I28
sS'gas'
p535
I26
sS'else'
p536
I28
sS'wake'
p537
I28
sS'kialala'
p538
I28
sS'child'
p539
I28
sS'weeks'
p540
I28
sS'present'
p541
I28
sS'paying'
p542
I28
sS"they're*"
p543
I28
sS'qb'
p544
I28
sS'stacked'
p545
I28
sS'sounded'
p546
I28
sS'these'
p547
I27
sS'means'
p548
I28
sS'as'
p549
I26
sS'will'
p550
I25
sS'ain'
p551
I27
sS'hdc'
p552
I28
sS'airport)'
p553
I28
sS'fun'
p554
I28
sS'situation'
p555
I28
sS'concertgoer'
p556
I28
sS'voice'
p557
I28
sS'robin'
p558
I28
sS'puttjng'
p559
I28
sS'alcoholic'
p560
I28
sS'almost'
p561
I28
sS'is'
p562
I9
sS'prayer'
p563
I28
sS'site'
p564
I28
sS'pinky'
p565
I28
sS'middle'
p566
I28
sS'someone'
p567
I25
sS'im'
p568
I22
sS'in'
p569
I13
sS'ready'
p570
I28
sS'worry'
p571
I27
sS'if'
p572
I23
sS'funny'
p573
I27
sS'raiders'
p574
I28
sS'because'
p575
I28
sS'open'
p576
I28
sS'saw'
p577
I28
sS'make'
p578
I28
sS'jammin'
p579
I28
sS'same'
p580
I27
sS'hdkdniejejdjd'
p581
I28
sS'poetic'
p582
I28
sS'pac'
p583
I28
sS'parent/father'
p584
I28
sS'film'
p585
I28
sS'party'
p586
I26
sS'used'
p587
I28
sS'cheeks'
p588
I28
sS'lie'
p589
I28
sS'\xe2\x9c\xa8\xe2\x9c\xa8'
p590
I28
sS'drink'
p591
I28
sS'hang'
p592
I28
sS'coachella'
p593
I28
sS'fruit'
p594
I28
sS'gonna'
p595
I28
sS'favorites'
p596
I28
sS'fucked'
p597
I28
sS'nickname'
p598
I28
sS'everywhere'
p599
I28
sS'kno'
p600
I28
sS'off'
p601
I26
sS'older'
p602
I28
sS'i'
p603
I4
sS'well'
p604
I25
sS'oxspades'
p605
I28
sS'tho'
p606
I27
sS'8910'
p607
I28
sS'wyd'
p608
I28
sS'oops'
p609
I28
sS'the'
p610
I3
sS'left'
p611
I28
sS'etiquette'
p612
I28
sS'>.<'
p613
I28
sS'underdog'
p614
I28
sS'loyal\xe2\x9c\x8c\xef\xb8\x8f'
p615
I28
sS'just'
p616
I14
sS'being'
p617
I27
sS'-'
p618
I28
sS'weekend'
p619
I28
sS'grader'
p620
I28
sS'kill'
p621
I28
sS'yes'
p622
I28
sS'spreecast'
p623
I28
sS'21+'
p624
I28
sS'happiness'
p625
I28
sS"some1's"
p626
I28
sS'web'
p627
I28
sS'cut'
p628
I28
sS'cus'
p629
I28
sS'hated'
p630
I28
sS'drunk'
p631
I28
sS'had'
p632
I25
sS'weenie'
p633
I28
sS'yaaaa'
p634
I28
sS'add'
p635
I28
sS'wet'
p636
I28
sS'20-22'
p637
I28
sS'has'
p638
I27
sS'excited'
p639
I28
sS'gave'
p640
I27
sS'starving'
p641
I28
sS'kills'
p642
I28
sS'big'
p643
I28
sS'showing'
p644
I28
sS'familyyyyyy'
p645
I28
sS'early'
p646
I28
sS'possibly'
p647
I28
sS'game'
p648
I28
sS'oj'
p649
I28
sS'know'
p650
I24
sS'mom'
p651
I26
sS'date\xe2\x9d\xa4\xef\xb8\x8f'
p652
I28
sS'play...delay'
p653
I28
sS"('"
p654
I28
sS'apart'
p655
I28
sS'prefect\xe2\x80\x9d'
p656
I28
sS'like'
p657
I16
sS'lost'
p658
I28
sS'fernando'
p659
I24
sS'admitted'
p660
I28
sS'gimme'
p661
I28
sS'either'
p662
I28
sS'night'
p663
I24
sS'hung'
p664
I28
sS'tower'
p665
I28
sS'lamest'
p666
I28
sS'krewella'
p667
I28
sS'beamers'
p668
I28
sS'right'
p669
I26
sS'old'
p670
I26
sS'people'
p671
I27
sS'fucking'
p672
I28
sS'twitter'
p673
I27
sS'some'
p674
I24
sS'back'
p675
I23
sS'mighty'
p676
I28
sS'home'
p677
I19
sS'hahaga'
p678
I28
sS'guess'
p679
I28
sS'thinks'
p680
I27
sS'outifts'
p681
I28
sS'for'
p682
I13
sS'literally'
p683
I25
sS'shall'
p684
I28
sS'diego'
p685
I28
sS'everything'
p686
I26
sS'does'
p687
I28
sS'('
p688
I28
sS'pee'
p689
I28
sS'adorable'
p690
I28
sS'christmas'
p691
I28
sS'cord'
p692
I28
sS'be'
p693
I22
sS'run'
p694
I28
sS'rapping'
p695
I28
sS'\xe2\x98\xba\xef\xb8\x8f\xe2\x98\xba\xef\xb8\x8f'
p696
I28
sS'withdrawals'
p697
I28
sS'broken'
p698
I28
sS'gannon'
p699
I28
sS'olsen'
p700
I28
sS'although'
p701
I28
sS'bs'
p702
I28
sS'throwback'
p703
I28
sS'valley)'
p704
I24
sS'post'
p705
I27
sS'super'
p706
I28
sS'on'
p707
I8
sS'about'
p708
I26
sS'offramp'
p709
I26
sS'duhhh.\xe2\x80\x9d'
p710
I28
sS'anything'
p711
I26
sS'of'
p712
I16
sS'burbank'
p713
I27
sS'stand'
p714
I28
sS'west'
p715
I28
sS'peeing'
p716
I28
sS'mean'
p717
I28
sS'wanna'
p718
I25
sS'or'
p719
I25
sS'tweetin'
p720
I28
sS'into'
p721
I28
sS'lien'
p722
I28
sS'down'
p723
I27
sS'momma'
p724
I28
sS'google'
p725
I28
sS'female'
p726
I28
sS'gary'
p727
I15
sS'your'
p728
I20
sS'fast'
p729
I28
sS'her'
p730
I17
sS"stacey's"
p731
I28
sS'apps'
p732
I28
sS'long'
p733
I26
sS'why'
p734
I28
sS'doing'
p735
I28
sS"we're"
p736
I28
sS'way'
p737
I10
sS'valley'
p738
I27
sS'was'
p739
I22
sS'boo'
p740
I28
sS'lowest'
p741
I28
sS'buy'
p742
I27
sS"i've"
p743
I27
sS'hr'
p744
I28
sS'hp'
p745
I28
sS'bitches'
p746
I28
sS'but'
p747
I20
sS'ford'
p748
I28
sS'boys'
p749
I28
sS'repeatedly'
p750
I28
sS'trying'
p751
I27
sS'with'
p752
I22
sS'bug'
p753
I28
sS'he'
p754
I25
sS'made'
p755
I28
sS'hitter'
p756
I28
sS"wasn't"
p757
I28
sS'mtv'
p758
I28
sS'up'
p759
I21
sS'us'
p760
I26
sS'sadness'
p761
I28
sS'dirty'
p762
I28
sS'faded'
p763
I28
sS"nothing's"
p764
I28
sS'problem'
p765
I28
sS'more'
p766
I27
sS"life's"
p767
I28
sS'uber'
p768
I28
sS'af'
p769
I28
sS'forgot'
p770
I28
sS'shid'
p771
I28
sS'an'
p772
I27
sS'elkwood'
p773
I20
sS'at'
p774
I1
sS'our'
p775
I28
sS'psychopath'
p776
I28
sS'happy'
p777
I28
sS'shit'
p778
I26
sS'hit'
p779
I28
sS'again'
p780
I28
sS'*reminiscing'
p781
I28
sS'no'
p782
I20
sS'dressed'
p783
I28
sS'nah'
p784
I28
sS'when'
p785
I24
sS'cave'
p786
I28
sS'virtual'
p787
I28
sS'ng'
p788
I28
sS'field'
p789
I28
sS'shrine'
p790
I28
sS'5'
p791
I21
sS'naw'
p792
I28
sS'papers'
p793
I28
sS'jenkins'
p794
I28
sS'you'
p795
I12
sS'out'
p796
I24
sS'conclusion'
p797
I28
sS'suites'
p798
I28
sS'kinds'
p799
I28
sS'welcome'
p800
I28
sS'reached'
p801
I28
sS'stay'
p802
I27
sS'important'
p803
I28
sS'friends'
p804
I26
sS'missed'
p805
I28
sS'booked'
p806
I28
sS'land'
p807
I28
sS'happening'
p808
I28
sS'calls'
p809
I27
sS'wife'
p810
I28
sS"he's"
p811
I28
sS'(san'
p812
I24
sS'rule'
p813
I28
sS'hello'
p814
I28
sS'bambi'
p815
I28
sS'u'
p816
I27
sS'fact'
p817
I28
sS'time'
p818
I25
sS"ain't"
p819
I28
sS'starting'
p820
I28
sS'having'
p821
I26
sS'songs'
p822
I28
s.