(dp0
S''
p1
I1
sS'gown'
p2
I33
sS'all'
p3
I21
sS':/'
p4
I33
sS':('
p5
I32
sS':)'
p6
I32
sS'msgs'
p7
I33
sS'dance'
p8
I33
sS'rob'
p9
I33
sS'lack'
p10
I33
sS'ouch'
p11
I33
sS'month'
p12
I33
sS'brainwashed'
p13
I33
sS'(sylmar'
p14
I33
sS'sleep'
p15
I29
sS'during'
p16
I33
sS'go'
p17
I24
sS'follow'
p18
I32
sS'hate'
p19
I28
sS'extra'
p20
I33
sS'tanners'
p21
I33
sS'swag'
p22
I33
sS'menzel'
p23
I33
sS'essentials'
p24
I33
sS'tweet'
p25
I31
sS'vs'
p26
I33
sS'young'
p27
I32
sS'champions'
p28
I33
sS'to'
p29
I5
sS'finally'
p30
I33
sS'those'
p31
I33
sS'lord'
p32
I32
sS'$40'
p33
I33
sS'boutta'
p34
I33
sS'worse'
p35
I33
sS'song'
p36
I33
sS'far'
p37
I32
sS'regional'
p38
I33
sS'fat'
p39
I33
sS"bae's"
p40
I33
sS'every'
p41
I33
sS'casas'
p42
I33
sS'fall'
p43
I33
sS'difference'
p44
I33
sS'memes'
p45
I32
sS'entire'
p46
I33
sS'school'
p47
I31
sS'magic'
p48
I33
sS'prize'
p49
I33
sS'did'
p50
I29
sS'cleaners'
p51
I33
sS'venue'
p52
I33
sS'try'
p53
I33
sS'frozen'
p54
I33
sS'guitars'
p55
I33
sS'wannaaaa'
p56
I33
sS'guy'
p57
I33
sS'beylin'
p58
I33
sS'straight'
p59
I33
sS"it'll"
p60
I33
sS"i'll"
p61
I30
sS'cap'
p62
I33
sS'says'
p63
I32
sS"you'd"
p64
I33
sS'tired'
p65
I29
sS'sigh'
p66
I33
sS'past'
p67
I33
sS'second'
p68
I33
sS'street'
p69
I32
sS'gn'
p70
I33
sS'transformers'
p71
I32
sS'nba'
p72
I33
sS'oscar'
p73
I33
sS'stealer'
p74
I33
sS'even'
p75
I32
sS'what'
p76
I28
sS'hide'
p77
I33
sS'diamonds'
p78
I33
sS'facebooking'
p79
I33
sS'giving'
p80
I32
sS'wrecked'
p81
I33
sS'asap'
p82
I33
sS'vampire'
p83
I33
sS'waiting'
p84
I32
sS'eating'
p85
I33
sS'goes'
p86
I32
sS'new'
p87
I31
sS'falling'
p88
I33
sS'fucke'
p89
I33
sS'officially'
p90
I33
sS'filled'
p91
I33
sS'mee'
p92
I33
sS'gawd'
p93
I31
sS'zack'
p94
I33
sS'bandwagon'
p95
I33
sS'leg'
p96
I33
sS'herb'
p97
I33
sS'never'
p98
I29
sS'punch'
p99
I33
sS'(los'
p100
I28
sS'"would'
p101
I33
sS'b-a'
p102
I33
sS'studio'
p103
I33
sS'others'
p104
I33
sS'sing'
p105
I33
sS'gawwwwd'
p106
I33
sS'diissss'
p107
I33
sS'wait'
p108
I32
sS'box'
p109
I33
sS'boy'
p110
I33
sS'great'
p111
I30
sS'kids'
p112
I33
sS'canoga'
p113
I33
sS'else'
p114
I33
sS'k'
p115
I33
sS'"why'
p116
I33
sS'shooter'
p117
I33
sS'social'
p118
I33
sS'action'
p119
I33
sS"would've"
p120
I33
sS'weird'
p121
I31
sS'floor'
p122
I33
sS'makes'
p123
I31
sS'fuckinrucked'
p124
I33
sS'thats'
p125
I33
sS'trainer'
p126
I33
sS'love'
p127
I29
sS'mannn'
p128
I33
sS'family'
p129
I33
sS'slices'
p130
I32
sS'prettiest'
p131
I33
sS'solitude'
p132
I33
sS'mexicos'
p133
I33
sS'feelings'
p134
I33
sS'bro'
p135
I26
sS'marina'
p136
I33
sS'drowned'
p137
I33
sS'fake'
p138
I33
sS'rko'
p139
I33
sS'florence'
p140
I33
sS'<3'
p141
I33
sS'everybody'
p142
I33
sS'from'
p143
I27
sS'spoke'
p144
I33
sS'would'
p145
I32
sS'&'
p146
I20
sS'catchy'
p147
I33
sS'donuts'
p148
I33
sS'dude'
p149
I30
sS'next'
p150
I31
sS'few'
p151
I32
sS'live'
p152
I31
sS'wondering'
p153
I33
sS'6'
p154
I33
sS'tell'
p155
I33
sS'today'
p156
I26
sS'more'
p157
I32
sS'teen'
p158
I33
sS'tryna'
p159
I33
sS'females'
p160
I33
sS'knows'
p161
I32
sS'holy'
p162
I33
sS'started'
p163
I33
sS'share'
p164
I33
sS'haha'
p165
I26
sS':-('
p166
I33
sS'chance\xe2\x80\x9dmy'
p167
I33
sS'confused'
p168
I33
sS'holding'
p169
I33
sS'ignorant'
p170
I33
sS'baby'
p171
I32
sS'ok'
p172
I33
sS'erica'
p173
I33
sS'readin'
p174
I33
sS'earth'
p175
I33
sS'me'
p176
I14
sS'enjoying'
p177
I33
sS'room'
p178
I33
sS'sucky'
p179
I33
sS'this'
p180
I24
sS'work'
p181
I32
sS'soul'
p182
I33
sS'mommas'
p183
I33
sS'donut'
p184
I33
sS'mall'
p185
I33
sS'anywhere'
p186
I33
sS'can'
p187
I27
sS'9th'
p188
I33
sS'meet'
p189
I33
sS'my'
p190
I10
sS'dollars'
p191
I33
sS'complain'
p192
I33
sS'(with'
p193
I33
sS'links'
p194
I33
sS'awesome'
p195
I33
sS'lorde'
p196
I33
sS"didn't"
p197
I32
sS'fuck'
p198
I29
sS'boycott'
p199
I33
sS'heard'
p200
I31
sS'homie'
p201
I32
sS'something'
p202
I31
sS'want'
p203
I28
sS'allowed'
p204
I33
sS'sharp'
p205
I33
sS'keep'
p206
I33
sS'impressed'
p207
I33
sS'drama'
p208
I33
sS'needs'
p209
I33
sS'court'
p210
I33
sS'awkward'
p211
I33
sS'turn'
p212
I33
sS'vibe'
p213
I32
sS'sitting'
p214
I33
sS'everyday'
p215
I33
sS'how'
p216
I31
sS'stupidity'
p217
I33
sS'(6th'
p218
I33
sS'beau'
p219
I33
sS'instead'
p220
I33
sS'fam'
p221
I33
sS'pizza'
p222
I31
sS'blacked'
p223
I33
sS'okay'
p224
I32
sS'rude'
p225
I33
sS'stop'
p226
I32
sS'after'
p227
I31
sS'southern'
p228
I33
sS'them'
p229
I33
sS'dinosaurs'
p230
I33
sS'wrong'
p231
I33
sS'birthday'
p232
I29
sS'mad'
p233
I33
sS'such'
p234
I32
sS'suck'
p235
I33
sS'guys'
p236
I32
sS'man'
p237
I29
sS'a'
p238
I6
sS"grindin'"
p239
I33
sS'remember'
p240
I31
sS'hypnotized'
p241
I33
sS'whenever'
p242
I33
sS'maybe'
p243
I31
sS'appreciate'
p244
I32
sS'st'
p245
I33
sS'fluent'
p246
I33
sS'so'
p247
I15
sS'fundamental'
p248
I33
sS'looking'
p249
I33
sS'order'
p250
I33
sS'turns'
p251
I33
sS"that's"
p252
I33
sS'leslie'
p253
I33
sS'cute'
p254
I32
sS'breaking'
p255
I33
sS'curren$y'
p256
I33
sS'feedback'
p257
I33
sS"don't"
p258
I19
sS'food'
p259
I33
sS'over'
p260
I31
sS'move'
p261
I32
sS'now?\xc2\xbf'
p262
I33
sS'soon'
p263
I33
sS'neta'
p264
I33
sS'years'
p265
I33
sS'elm'
p266
I33
sS'through'
p267
I33
sS'looks'
p268
I33
sS'shit\xe2\x80\x9d'
p269
I33
sS'foreal'
p270
I32
sS'cold'
p271
I32
sS'still'
p272
I30
sS'its'
p273
I33
sS'bunch'
p274
I33
sS'ima'
p275
I32
sS'26'
p276
I33
sS'thank'
p277
I28
sS'la'
p278
I31
sS'personal'
p279
I33
sS'trying'
p280
I33
sS'dollars"'
p281
I33
sS'actually'
p282
I31
sS'better'
p283
I32
sS'grade'
p284
I33
sS'fade'
p285
I33
sS'tweets'
p286
I33
sS'bout'
p287
I33
sS'soccer'
p288
I33
sS'might'
p289
I32
sS'up-up'
p290
I33
sS"haven't"
p291
I31
sS'dad'
p292
I32
sS'then'
p293
I30
sS'coffee'
p294
I31
sS'someone'
p295
I28
sS'fourth'
p296
I33
sS'yo'
p297
I31
sS'ya'
p298
I32
sS'dam'
p299
I33
sS'practice'
p300
I32
sS"we'll"
p301
I33
sS'lunch'
p302
I33
sS'bang'
p303
I32
sS'vomit'
p304
I33
sS'starbucks'
p305
I33
sS'\xe2\x98\xba\xef\xb8\x8f'
p306
I31
sS'hands'
p307
I33
sS'not'
p308
I28
sS'now'
p309
I27
sS'twilight'
p310
I33
sS'day'
p311
I28
sS'skinhead'
p312
I33
sS'nos'
p313
I33
sS'taurus'
p314
I33
sS'always'
p315
I31
sS'again\xe2\x80\x9d'
p316
I33
sS'ruined'
p317
I33
sS'late!fuck'
p318
I33
sS'stopped'
p319
I33
sS'victory'
p320
I33
sS'gender'
p321
I33
sS'went'
p322
I33
sS'bong'
p323
I33
sS'side'
p324
I33
sS"isn't"
p325
I31
sS'semifinal'
p326
I33
sS'em'
p327
I33
sS'everyone'
p328
I31
sS'lowkey'
p329
I33
sS'bentley'
p330
I33
sS'doing'
p331
I33
sS'series'
p332
I32
sS'fish'
p333
I33
sS'hard'
p334
I31
sS'ft'
p335
I33
sS'yeah'
p336
I33
sS'him'
p337
I33
sS'skins'
p338
I33
sS'each'
p339
I33
sS'catching'
p340
I33
sS'year'
p341
I32
sS'our'
p342
I32
sS'happen'
p343
I30
sS'event'
p344
I32
sS'neighbourhood'
p345
I33
sS'out'
p346
I26
sS'album'
p347
I33
sS'flower'
p348
I33
sS'missed'
p349
I33
sS'3rd'
p350
I33
sS'house'
p351
I33
sS'god'
p352
I33
sS'mattered'
p353
I33
sS'mason'
p354
I33
sS'mazatlan'
p355
I33
sS'seriously'
p356
I33
sS'stuff'
p357
I33
sS'7'
p358
I33
sS'smh'
p359
I32
sS'got'
p360
I31
sS'rn'
p361
I29
sS'cause'
p362
I32
sS'shows'
p363
I31
sS'ass'
p364
I28
sS'torres'
p365
I31
sS'grease'
p366
I33
sS'startin'
p367
I33
sS"doesn't"
p368
I32
sS"ivan's"
p369
I33
sS'million'
p370
I32
sS'boobs'
p371
I33
sS'free'
p372
I33
sS'mmm'
p373
I33
sS'california'
p374
I33
sS'disneyland'
p375
I33
sS'hoodie'
p376
I33
sS'ask'
p377
I33
sS'lesbi'
p378
I33
sS'shot'
p379
I33
sS'care'
p380
I32
sS'scary'
p381
I33
sS'owners'
p382
I33
sS'starts'
p383
I33
sS'used'
p384
I33
sS'times'
p385
I33
sS'thing'
p386
I32
sS'place'
p387
I32
sS',91342\n532746197724057601,alexcoronaa1,2014-11-13'
p388
I33
sS'july'
p389
I33
sS'think'
p390
I29
sS'first'
p391
I31
sS'feed'
p392
I33
sS'already'
p393
I27
sS'dont'
p394
I33
sS'feel'
p395
I31
sS'girls'
p396
I32
sS'number'
p397
I33
sS'one'
p398
I25
sS'whoop'
p399
I33
sS'xx'
p400
I33
sS'talked'
p401
I33
sS'done'
p402
I32
sS'lol'
p403
I12
sS'another'
p404
I32
sS'angeles)'
p405
I33
sS'comic'
p406
I33
sS'quality'
p407
I33
sS'tomorrow'
p408
I27
sS"you're"
p409
I28
sS'little'
p410
I30
sS'basketball'
p411
I33
sS'heads'
p412
I33
sS'los'
p413
I33
sS'me"'
p414
I33
sS'they'
p415
I26
sS'least'
p416
I33
sS'their'
p417
I32
sS'fml'
p418
I33
sS'station'
p419
I27
sS'too'
p420
I25
sS'decorations'
p421
I33
sS'rockin'
p422
I33
sS'white'
p423
I32
sS'boii'
p424
I32
sS'store'
p425
I33
sS'becauseeee'
p426
I33
sS'"let'
p427
I33
sS'2-0'
p428
I33
sS'shell'
p429
I33
sS'x-rays'
p430
I33
sS'that'
p431
I21
sS'nobody'
p432
I33
sS'proving'
p433
I33
sS'trippy'
p434
I31
sS'hillary'
p435
I33
sS'part'
p436
I32
sS'because'
p437
I32
sS'josh'
p438
I33
sS'kept'
p439
I31
sS'sylmar'
p440
I32
sS'copy'
p441
I33
sS'than'
p442
I31
sS'10'
p443
I33
sS'hundred'
p444
I33
sS'lmao'
p445
I28
sS'ew'
p446
I33
sS'kickback'
p447
I33
sS'rd'
p448
I33
sS'gotta'
p449
I31
sS'goodnight'
p450
I33
sS'bed'
p451
I33
sS'shower'
p452
I33
sS'firework'
p453
I33
sS'supposed'
p454
I33
sS'were'
p455
I31
sS'somethingggggf'
p456
I33
sS'asleep'
p457
I33
sS'beard'
p458
I33
sS'playing'
p459
I33
sS'bet'
p460
I33
sS'anyways'
p461
I33
sS'and'
p462
I9
sS'mini'
p463
I33
sS'san'
p464
I31
sS'face'
p465
I33
sS'anaconda'
p466
I33
sS'mind'
p467
I33
sS'mine'
p468
I33
sS'tonight'
p469
I30
sS'talking'
p470
I32
sS'say'
p471
I32
sS'alike'
p472
I33
sS'have'
p473
I25
sS'need'
p474
I26
sS'seen'
p475
I33
sS'saw'
p476
I33
sS'marathon'
p477
I33
sS'screening'
p478
I33
sS'opened'
p479
I33
sS'catholic'
p480
I33
sS'grody'
p481
I33
sS'bae'
p482
I33
sS'depending'
p483
I33
sS'lil'
p484
I29
sS'-'
p485
I30
sS'cheer'
p486
I33
sS'fitting'
p487
I33
sS'niece'
p488
I32
sS'linda'
p489
I33
sS'1\xe2\x80\xa2'
p490
I33
sS'blunt'
p491
I33
sS'buff'
p492
I33
sS'graduating'
p493
I33
sS'sure'
p494
I32
sS'unless'
p495
I33
sS'theatres'
p496
I33
sS'haircut!!oh'
p497
I33
sS'knew'
p498
I32
sS"sam's"
p499
I33
sS'most'
p500
I31
sS'awk'
p501
I33
sS'nothing'
p502
I32
sS'knee'
p503
I33
sS'facial'
p504
I33
sS'class'
p505
I32
sS'forever'
p506
I33
sS'episode'
p507
I31
sS'breh'
p508
I32
sS'sometimes'
p509
I32
sS'cover'
p510
I33
sS'bustin'
p511
I33
sS'doe'
p512
I33
sS'wind'
p513
I33
sS'pineapple'
p514
I33
sS'skinny'
p515
I33
sS'nightmare'
p516
I33
sS'fact'
p517
I33
sS'joining'
p518
I33
sS'saying'
p519
I33
sS'hiking'
p520
I33
sS'ugh'
p521
I31
sS'bomb'
p522
I32
sS'\xe2\x9c\xa8'
p523
I33
sS'show'
p524
I30
sS'chances'
p525
I33
sS'random'
p526
I32
sS'bring'
p527
I33
sS'session'
p528
I33
sS'livin'
p529
I33
sS'quad'
p530
I33
sS'corner'
p531
I33
sS'chicken'
p532
I33
sS'eyes'
p533
I33
sS'find'
p534
I32
sS'aint'
p535
I33
sS'o'
p536
I33
sS'busy'
p537
I33
sS'farting'
p538
I33
sS'crossfit'
p539
I33
sS'\xe2\x9c\x8a'
p540
I32
sS'winner'
p541
I33
sS'outside'
p542
I33
sS'should'
p543
I30
sS'being'
p544
I33
sS'only'
p545
I32
sS'going'
p546
I27
sS'black'
p547
I31
sS'lubb'
p548
I33
sS'pretty'
p549
I32
sS'lodge'
p550
I33
sS'8'
p551
I33
sS'f0000000'
p552
I33
sS'hope'
p553
I31
sS'wearing'
p554
I33
sS'do'
p555
I24
sS'dm'
p556
I33
sS'hit'
p557
I33
sS'get'
p558
I29
sS'cannon'
p559
I33
sS'horrible'
p560
I33
sS'watch'
p561
I31
sS'safetly'
p562
I33
sS'da'
p563
I33
sS'feels'
p564
I33
sS'cannot'
p565
I33
sS'words'
p566
I33
sS'reply'
p567
I33
sS'2'
p568
I33
sS'jurupa'
p569
I33
sS'banquet'
p570
I31
sS'celebrate'
p571
I33
sS'cif'
p572
I33
sS'shs'
p573
I33
sS'orrrrrrrr'
p574
I33
sS'quotes'
p575
I33
sS'ever'
p576
I33
sS'mon'
p577
I33
sS'morning'
p578
I33
sS'bad'
p579
I32
sS'stupid'
p580
I33
sS'she'
p581
I29
sS'raunchy'
p582
I33
sS'soulja'
p583
I33
sS'where'
p584
I29
sS'restaurants'
p585
I33
sS'down-downleft-right'
p586
I33
sS'bars'
p587
I33
sS'official'
p588
I33
sS'w/'
p589
I33
sS'nut'
p590
I33
sS"hasn't"
p591
I33
sS'see'
p592
I29
sS'decided'
p593
I33
sS'dumb'
p594
I33
sS'are'
p595
I20
sS'etiwanda'
p596
I33
sS'angie'
p597
I33
sS'retweet'
p598
I33
sS'allie'
p599
I33
sS'wonder'
p600
I33
sS'closer'
p601
I33
sS'said'
p602
I32
sS'movie'
p603
I33
sS'away'
p604
I33
sS'bootleg'
p605
I33
sS'please'
p606
I33
sS'forecast'
p607
I33
sS'r&b'
p608
I33
sS'fans'
p609
I33
sS"there's"
p610
I33
sS"'neighbors'"
p611
I33
sS'hopefully'
p612
I33
sS'probably'
p613
I33
sS'before'
p614
I33
sS'across'
p615
I33
sS'pants'
p616
I33
sS'we'
p617
I22
sS'omg'
p618
I30
sS'august'
p619
I33
sS'pisses'
p620
I32
sS'jv'
p621
I33
sS'attention'
p622
I33
sS'killing'
p623
I33
sS'here'
p624
I25
sS'wtf'
p625
I31
sS'hurts'
p626
I32
sS'cousin'
p627
I33
sS'oistnb'
p628
I33
sS'come'
p629
I29
sS'legit'
p630
I33
sS'water'
p631
I33
sS'c'
p632
I33
sS'last'
p633
I31
sS'jocelyn'
p634
I33
sS'ill'
p635
I33
sS'barely'
p636
I33
sS'literately'
p637
I33
sS'coc'
p638
I33
sS'games'
p639
I33
sS'seekers'
p640
I33
sS'lookin'
p641
I32
sS"we've"
p642
I33
sS'carwash'
p643
I33
sS'let'
p644
I33
sS'\xe2\xac\x9b\xef\xb8\x8f\xe2\xac\x9c\xef\xb8\x8f'
p645
I33
sS"can't"
p646
I28
sS'zeke'
p647
I33
sS'liked'
p648
I33
sS'relevant'
p649
I33
sS'key'
p650
I33
sS'point'
p651
I32
sS'seems'
p652
I33
sS'malcolm'
p653
I32
sS'kika02espinoza'
p654
I33
sS'dudes'
p655
I33
sS'2nd'
p656
I33
sS'slain'
p657
I33
sS'likes'
p658
I33
sS'suzie'
p659
I33
sS'polo'
p660
I33
sS'cux'
p661
I33
sS'flowers'
p662
I33
sS'sunday'
p663
I33
sS'code'
p664
I33
sS'late'
p665
I32
sS'bbm'
p666
I33
sS'yay'
p667
I31
sS'now*'
p668
I33
sS'cares'
p669
I33
sS"it's"
p670
I22
sS"ma'am"
p671
I33
sS'been'
p672
I29
sS'much'
p673
I30
sS'damn'
p674
I33
sS'stadium'
p675
I33
sS'basic'
p676
I33
sS'palacio\xe2\x80\xa6'
p677
I33
sS'waste'
p678
I33
sS'>'
p679
I33
sS'wants'
p680
I33
sS'mcm'
p681
I33
sS'sprite'
p682
I33
sS'titties'
p683
I33
sS'fire'
p684
I33
sS"what's"
p685
I33
sS'sooooo'
p686
I33
sS'movies'
p687
I33
sS'finished'
p688
I31
sS'lift'
p689
I33
sS'awake'
p690
I33
sS'oitnb'
p691
I33
sS'calls'
p692
I33
sS'wedding'
p693
I33
sS'irrelevant'
p694
I33
sS'weeks'
p695
I33
sS'funk'
p696
I33
sS'chill'
p697
I32
sS'myself'
p698
I31
sS'has'
p699
I33
sS'these'
p700
I29
sS'2-3:15'
p701
I33
sS'selfie'
p702
I33
sS'excited'
p703
I33
sS'will'
p704
I30
sS'ugly'
p705
I33
sS'homework'
p706
I33
sS'hahaha'
p707
I29
sS'fun'
p708
I32
sS'fool'
p709
I33
sS'lodges'
p710
I33
sS'phanie'
p711
I33
sS'jeiber'
p712
I33
sS'evelyn'
p713
I33
sS'is'
p714
I11
sS'it'
p715
I8
sS'rip'
p716
I33
sS'sleeping'
p717
I33
sS'blah'
p718
I31
sS'awakening'
p719
I33
sS'good'
p720
I22
sS'im'
p721
I31
sS'in'
p722
I20
sS'throwing'
p723
I33
sS'trade'
p724
I33
sS'if'
p725
I25
sS'different'
p726
I33
sS'raiders'
p727
I33
sS'doctor'
p728
I33
sS'left-rightb-a'
p729
I33
sS'make'
p730
I30
sS'same'
p731
I32
sS'trip'
p732
I33
sS'ruins'
p733
I33
sS'firearms'
p734
I33
sS'metrolink'
p735
I27
sS'party'
p736
I31
sS'gets'
p737
I33
sS'whiptastic'
p738
I33
sS'moose'
p739
I32
sS'finish'
p740
I33
sS'partners'
p741
I33
sS'innings'
p742
I33
sS'blue'
p743
I33
sS'palacio'
p744
I31
sS'daaaaaamnn'
p745
I33
sS'fucken'
p746
I33
sS'arrived'
p747
I33
sS'*drops'
p748
I33
sS'nip'
p749
I33
sS"i'm"
p750
I7
sS'understand'
p751
I33
sS'\xe2\x9c\x8c\xef\xb8\x8f'
p752
I33
sS'dark'
p753
I33
sS'lower'
p754
I33
sS'off'
p755
I28
sS'stays'
p756
I33
sS'killler'
p757
I33
sS'matters'
p758
I33
sS'i'
p759
I2
sS'~weeds~season'
p760
I33
sS'congrats'
p761
I33
sS'well'
p762
I30
sS'antonio'
p763
I33
sS'tho'
p764
I33
sS'person'
p765
I32
sS'idina'
p766
I33
sS'edge'
p767
I33
sS'massage'
p768
I33
sS'pandora'
p769
I33
sS'very'
p770
I33
sS'the'
p771
I3
sS'yours'
p772
I33
sS'protege'
p773
I33
sS'ny'
p774
I33
sS'taller'
p775
I33
sS'stores'
p776
I33
sS'frankie'
p777
I32
sS'just'
p778
I18
sS'yea'
p779
I32
sS'money'
p780
I31
sS'weeds'
p781
I33
sS'hubbard'
p782
I33
sS'rest'
p783
I33
sS'sylmar/san'
p784
I27
sS'kill'
p785
I32
sS'thanks'
p786
I17
sS'predicts'
p787
I33
sS'stunt'
p788
I33
sS'yes'
p789
I30
sS'yet'
p790
I32
sS'cigarette'
p791
I33
sS'vaughn'
p792
I33
sS'hills'
p793
I33
sS'wed'
p794
I33
sS'04:06:06.0,34.2927378,-118.4611271,1066.48,slayin'
p795
I33
sS"everyone's"
p796
I33
sS'had'
p797
I30
sS'except'
p798
I33
sS'hall'
p799
I31
sS'lets'
p800
I33
sS'nicki'
p801
I33
sS'4'
p802
I33
sS'snap'
p803
I33
sS'5'
p804
I33
sS'-colin'
p805
I33
sS'bread'
p806
I33
sS'pot'
p807
I33
sS'smart'
p808
I33
sS'take'
p809
I26
sS'real'
p810
I30
sS'around'
p811
I31
sS'big'
p812
I32
sS"who's"
p813
I33
sS'sneeze'
p814
I33
sS'hqqhhqhqhq'
p815
I33
sS'gonna'
p816
I30
sS'senior'
p817
I33
sS'early'
p818
I31
sS'quickness'
p819
I33
sS'game'
p820
I32
sS'life.\xe2\x80\x9d'
p821
I33
sS'bitch'
p822
I33
sS'know'
p823
I27
sS'mom'
p824
I32
sS'world'
p825
I33
sS'crushes'
p826
I32
sS'banda'
p827
I33
sS'lady'
p828
I33
sS'depot'
p829
I33
sS'like'
p830
I18
sS"ain't"
p831
I33
sS'wingstop'
p832
I33
sS'fernando'
p833
I25
sS'ignore'
p834
I33
sS'either'
p835
I32
sS'night'
p836
I32
sS'cheesiness'
p837
I33
sS'5$'
p838
I33
sS'right'
p839
I30
sS'mojo'
p840
I33
sS'deal'
p841
I32
sS'people'
p842
I25
sS'fucking'
p843
I28
sS'twitter'
p844
I33
sS'some'
p845
I27
sS'back'
p846
I28
sS'dead'
p847
I31
sS'hair'
p848
I32
sS'born'
p849
I33
sS'shet'
p850
I33
sS'downside'
p851
I33
sS'tomorrowwwww'
p852
I33
sS'home'
p853
I32
sS'fuuuuck'
p854
I33
sS'yesss'
p855
I33
sS'laundry'
p856
I33
sS'diaries'
p857
I33
sS'for'
p858
I14
sS'literally'
p859
I33
sS'slick'
p860
I33
sS'best'
p861
I33
sS'cast'
p862
I33
sS'everything'
p863
I32
sS'asking'
p864
I33
sS'trillion'
p865
I33
sS'christmas'
p866
I32
sS'refer'
p867
I32
sS'be'
p868
I23
sS'who'
p869
I31
sS'run'
p870
I32
sS'select-start"cheat'
p871
I33
sS'bc'
p872
I32
sS'corn'
p873
I33
sS'*says'
p874
I33
sS'2\xc2\xa1here'
p875
I33
sS'broken'
p876
I33
sS'nmc'
p877
I33
sS'crap'
p878
I33
sS'by'
p879
I33
sS'hearing'
p880
I33
sS'on'
p881
I13
sS'about'
p882
I27
sS"gambino's"
p883
I33
sS'working'
p884
I32
sS'anything'
p885
I32
sS'oh'
p886
I31
sS'of'
p887
I15
sS':)))'
p888
I33
sS'iced'
p889
I33
sS'flake'
p890
I33
sS'angeles'
p891
I28
sS'dinner'
p892
I33
sS'swear'
p893
I33
sS'wolf'
p894
I33
sS'idk'
p895
I31
sS'itty'
p896
I33
sS'act'
p897
I33
sS'puppies'
p898
I33
sS'mean'
p899
I33
sS'wanna'
p900
I30
sS'or'
p901
I30
sS'road'
p902
I33
sS'bitty'
p903
I33
sS'own'
p904
I33
sS'whats'
p905
I33
sS'into'
p906
I32
sS'tag'
p907
I33
sS'getting'
p908
I32
sS'down'
p909
I33
sS'gtfo'
p910
I33
sS'nigga'
p911
I32
sS'mic*'
p912
I33
sS'mera'
p913
I33
sS'b****'
p914
I33
sS'hang'
p915
I33
sS'your'
p916
I32
sS'forcing'
p917
I33
sS'go"'
p918
I33
sS'*falling'
p919
I33
sS'sonny'
p920
I33
sS'networking'
p921
I33
sS'drizzy'
p922
I33
sS'her'
p923
I29
sS'spam'
p924
I33
sS'transfer'
p925
I33
sS'there'
p926
I30
sS'ca)'
p927
I26
sS'long'
p928
I30
sS'kidding'
p929
I32
sS'editor'
p930
I33
sS'elevators'
p931
I33
sS'cats'
p932
I33
sS'low'
p933
I33
sS'lot'
p934
I32
sS'bruh'
p935
I28
sS'valley'
p936
I33
sS'was'
p937
I25
sS'happy'
p938
I26
sS'tight'
p939
I33
sS'cowherd'
p940
I33
sS"i've"
p941
I31
sS'fasho'
p942
I30
sS'bus'
p943
I33
sS'believe'
p944
I33
sS'bitches'
p945
I31
sS'but'
p946
I23
sS'somehow'
p947
I33
sS'boys'
p948
I33
sS'yesssss'
p949
I33
sS'hear'
p950
I33
sS'ha'
p951
I33
sS'with'
p952
I16
sS'eat'
p953
I32
sS'he'
p954
I31
sS'info'
p955
I33
sS"they're"
p956
I33
sS'throw'
p957
I33
sS'made'
p958
I32
sS'erick'
p959
I33
sS'streaming'
p960
I33
sS'wish'
p961
I33
sS'inside'
p962
I33
sS'booty"'
p963
I33
sS'spamming'
p964
I33
sS'up'
p965
I22
sS'us'
p966
I33
sS'ur'
p967
I33
sS'um'
p968
I33
sS'dawg'
p969
I33
sS'faded'
p970
I33
sS'problem'
p971
I33
sS'minutes'
p972
I33
sS'called'
p973
I33
sS'gone'
p974
I33
sS'his'
p975
I33
sS'ab'
p976
I33
sS'labrador'
p977
I33
sS'af'
p978
I31
sS'fuvked'
p979
I33
sS'am'
p980
I29
sS'alemany'
p981
I33
sS"you've"
p982
I33
sS'an'
p983
I32
sS'pix'
p984
I33
sS'imagination'
p985
I33
sS'as'
p986
I29
sS'cheetah'
p987
I33
sS'at'
p988
I13
sS'chat'
p989
I33
sS'cathedral'
p990
I33
sS'watched'
p991
I32
sS'annoying'
p992
I33
sS'girl'
p993
I30
sS'shit'
p994
I30
sS"text'"
p995
I33
sS'again'
p996
I29
sS'no'
p997
I26
sS'rains'
p998
I33
sS'bored'
p999
I33
sS'peace'
p1000
I33
sS'when'
p1001
I23
sS'successful'
p1002
I33
sS'other'
p1003
I30
sS'ppv'
p1004
I33
sS'special'
p1005
I33
sS'sick'
p1006
I31
sS'brings'
p1007
I33
sS'you'
p1008
I4
sS'really'
p1009
I22
sS'life'
p1010
I33
sS'tweeting*'
p1011
I33
sS'rt'
p1012
I33
sS'francisco'
p1013
I31
sS"'s"
p1014
I33
sS'hey'
p1015
I32
sS'obsessed'
p1016
I32
sS'surfin'
p1017
I33
sS'why'
p1018
I28
sS'felt'
p1019
I33
sS'forgot'
p1020
I33
sS'slammy'
p1021
I33
sS'cumbias'
p1022
I33
sS'drag'
p1023
I33
sS'award'
p1024
I33
sS'kinda'
p1025
I32
sS'hurt'
p1026
I33
sS'weekend'
p1027
I32
sS"jess'"
p1028
I33
sS'pool'
p1029
I33
sS'jewelry'
p1030
I33
sS'younger'
p1031
I33
sS'tweeting'
p1032
I33
sS'happier'
p1033
I33
sS'\xe2\x80\x94'
p1034
I33
sS'lana'
p1035
I33
sS'vice'
p1036
I33
sS'sarcasm.\xe2\x80\x9d'
p1037
I33
sS'youtube'
p1038
I33
sS'daily'
p1039
I33
sS'loyal'
p1040
I33
sS'u'
p1041
I29
sS"we're"
p1042
I33
sS'scare'
p1043
I33
sS'time'
p1044
I26
sS"she's"
p1045
I31
sS'having'
p1046
I31
sS'-.-'
p1047
I33
s.