(dp0
S''
p1
I1
sS'all'
p2
I16
sS':('
p3
I25
sS':)'
p4
I21
sS'pan-grilled'
p5
I25
sS'ali'
p6
I25
sS'four'
p7
I25
sS'zing'
p8
I25
sS'gang'
p9
I25
sS'go'
p10
I24
sS'hate'
p11
I24
sS'allll'
p12
I25
sS'aud'
p13
I25
sS'ttyl'
p14
I25
sS'ruffles'
p15
I25
sS'to'
p16
I3
sS'finally'
p17
I25
sS'dressing'
p18
I25
sS'sorry'
p19
I24
sS'friendly'
p20
I25
sS'hahahahahahaha'
p21
I25
sS'every'
p22
I24
sS'fam'
p23
I25
sS'winning'
p24
I25
sS'elena'
p25
I25
sS'blast'
p26
I25
sS':p'
p27
I25
sS'minute'
p28
I25
sS'din'
p29
I25
sS'salad'
p30
I25
sS'bring'
p31
I25
sS'meant'
p32
I25
sS'philippines'
p33
I25
sS'niggas'
p34
I25
sS'dia'
p35
I25
sS'joke'
p36
I25
sS'small'
p37
I25
sS'\xd0\xb1\xd1\x80\xd0\xb0\xd1\x82\xd0\xb0\xd0\xbd'
p38
I25
sS'louie'
p39
I25
sS"i'll"
p40
I24
sS'pork'
p41
I25
sS'tired'
p42
I25
sS'tea'
p43
I25
sS'sleeeepy'
p44
I25
sS'muuuuuaaaaccc'
p45
I25
sS'7th'
p46
I24
sS'run'
p47
I25
sS'dapat'
p48
I25
sS'even'
p49
I25
sS'sesame'
p50
I25
sS'what'
p51
I20
sS'hide'
p52
I25
sS'giving'
p53
I25
sS'sun'
p54
I24
sS'fingers'
p55
I25
sS'new'
p56
I24
sS'nurse'
p57
I25
sS'never'
p58
I23
sS'here'
p59
I25
sS'busy'
p60
I25
sS'focused'
p61
I25
sS'greedy'
p62
I25
sS'others'
p63
I25
sS'sexy'
p64
I25
sS'along'
p65
I25
sS'wait'
p66
I25
sS'boy'
p67
I25
sS'great'
p68
I25
sS'my'
p69
I9
sS'jogging'
p70
I24
sS"i'd"
p71
I24
sS'ako'
p72
I24
sS'advertising'
p73
I25
sS"i'm"
p74
I8
sS"someone's"
p75
I25
sS'morning/afternoon'
p76
I25
sS'honor'
p77
I25
sS'via'
p78
I25
sS'love'
p79
I21
sS'win'
p80
I24
sS'bro'
p81
I23
sS'put'
p82
I25
sS'follower'
p83
I25
sS'1st'
p84
I25
sS'carol'
p85
I25
sS'lime'
p86
I25
sS'use'
p87
I25
sS'from'
p88
I20
sS'working'
p89
I25
sS'super'
p90
I25
sS'pero'
p91
I25
sS'hurray'
p92
I25
sS'next'
p93
I22
sS'\xd0\xbf\xd0\xbe\xd0\xb7\xd0\xb4\xd1\x80\xd0\xb0\xd0\xb2\xd0\xbb\xd1\x8f\xd1\x8e'
p94
I25
sS'ca)'
p95
I25
sS'jam'
p96
I25
sS'tell'
p97
I25
sS'today'
p98
I21
sS'more'
p99
I22
sS'miro'
p100
I25
sS'evening'
p101
I25
sS'started'
p102
I25
sS'robbins'
p103
I25
sS'yeaaah'
p104
I25
sS'downtown'
p105
I25
sS"ain't"
p106
I24
sS'baby'
p107
I23
sS'youuuuu'
p108
I25
sS'effort'
p109
I25
sS'me'
p110
I17
sS'deserved'
p111
I24
sS'hour'
p112
I24
sS'anika'
p113
I25
sS'this'
p114
I15
sS'car'
p115
I25
sS'work'
p116
I25
sS'breakfast'
p117
I25
sS'cuddle'
p118
I25
sS'can'
p119
I24
sS'learn'
p120
I25
sS'meet'
p121
I25
sS'didnt'
p122
I25
sS'100%'
p123
I25
sS'something'
p124
I25
sS'heart'
p125
I25
sS'crazy'
p126
I24
sS'pushes'
p127
I24
sS'give'
p128
I25
sS'expanding'
p129
I25
sS'awesome'
p130
I25
sS"didn't"
p131
I25
sS'fuck'
p132
I23
sS'accept'
p133
I25
sS'numbers'
p134
I25
sS'want'
p135
I24
sS'honest'
p136
I25
sS'listens'
p137
I25
sS'pink'
p138
I25
sS'huge'
p139
I25
sS'answer'
p140
I25
sS'awkwardness'
p141
I25
sS'vibe'
p142
I25
sS'six'
p143
I25
sS'everyday'
p144
I25
sS'how'
p145
I23
sS'amazing'
p146
I25
sS'baracho'
p147
I25
sS'interview'
p148
I25
sS'hihi'
p149
I25
sS'afternoon'
p150
I25
sS'map'
p151
I25
sS'okay'
p152
I23
sS'dogs)'
p153
I25
sS'coworker'
p154
I25
sS'earlier'
p155
I25
sS'birthday'
p156
I20
sS'mad'
p157
I25
sS'hahahaha'
p158
I25
sS'guys'
p159
I23
sS'key\xe2\x80\x9d'
p160
I25
sS'man'
p161
I21
sS'a'
p162
I7
sS'chasing'
p163
I25
sS'solob'
p164
I25
sS'sit'
p165
I25
sS'lines'
p166
I25
sS'st'
p167
I25
sS'so'
p168
I13
sS'worst'
p169
I25
sS'talk'
p170
I25
sS'banger'
p171
I25
sS"don't"
p172
I25
sS'soon'
p173
I21
sS'through'
p174
I25
sS'tuckered'
p175
I25
sS'still'
p176
I24
sS'mayor'
p177
I25
sS'roots'
p178
I25
sS'perfect'
p179
I25
sS'26'
p180
I25
sS'21'
p181
I25
sS'la'
p182
I24
sS'somewhere'
p183
I25
sS'hot'
p184
I25
sS'[pic]'
p185
I25
sS'better'
p186
I24
sS'choose'
p187
I25
sS'2014'
p188
I25
sS'pesto'
p189
I25
sS'2013'
p190
I25
sS'instantly'
p191
I25
sS'dad'
p192
I24
sS'then'
p193
I24
sS'them'
p194
I23
sS'good'
p195
I17
sS'yo'
p196
I25
sS'ya'
p197
I25
sS'safe'
p198
I24
sS'zac'
p199
I25
sS'dat'
p200
I25
sS'lunch'
p201
I24
sS'drinking'
p202
I25
sS'snake'
p203
I25
sS'they'
p204
I24
sS'not'
p205
I20
sS'now'
p206
I21
sS'hall'
p207
I24
sS'thyme'
p208
I25
sS'pregnant'
p209
I25
sS'always'
p210
I23
sS'times'
p211
I25
sS'someone'
p212
I16
sS'weather'
p213
I25
sS'found'
p214
I25
sS'went'
p215
I23
sS"isn't"
p216
I25
sS'el'
p217
I25
sS'coridos'
p218
I25
sS'everyone'
p219
I22
sS'eh'
p220
I25
sS'doing'
p221
I25
sS'house'
p222
I24
sS'yeah'
p223
I23
sS'forgot'
p224
I24
sS'girl'
p225
I23
sS'monitors'
p226
I24
sS'out'
p227
I20
sS'hehe'
p228
I25
sS'washed'
p229
I25
sS'looking'
p230
I24
sS'acting'
p231
I25
sS'got'
p232
I20
sS'rn'
p233
I25
sS'cause'
p234
I25
sS'ass'
p235
I25
sS'bawi'
p236
I25
sS'dirt'
p237
I25
sS'friday'
p238
I23
sS'story'
p239
I25
sS'free'
p240
I25
sS'-10'
p241
I25
sS'california'
p242
I22
sS"people's"
p243
I25
sS'ask'
p244
I25
sS'maldita\xe2\x80\xa6'
p245
I25
sS'care'
p246
I24
sS'mvp'
p247
I25
sS'visit'
p248
I25
sS'starts'
p249
I25
sS'could'
p250
I22
sS'jwu'
p251
I25
sS'keep'
p252
I24
sS'turn'
p253
I25
sS'place'
p254
I25
sS'think'
p255
I24
sS'shave'
p256
I25
sS'dont'
p257
I25
sS'feel'
p258
I25
sS'pa'
p259
I25
sS'number'
p260
I25
sS'one'
p261
I19
sS'date'
p262
I25
sS'another'
p263
I24
sS'drove'
p264
I25
sS'miss'
p265
I19
sS'tomorrow'
p266
I25
sS"you're"
p267
I22
sS'guess'
p268
I25
sS'spinach'
p269
I25
sS'fuckers'
p270
I25
sS'2'
p271
I22
sS'too'
p272
I24
sS'blossoms'
p273
I25
sS'moon...and'
p274
I25
sS'legs'
p275
I25
sS'dogs'
p276
I22
sS'friend'
p277
I25
sS'gives'
p278
I25
sS'selling'
p279
I25
sS'relationship'
p280
I25
sS'that'
p281
I16
sS'saut\xc3\xa9ed'
p282
I25
sS'rubbing'
p283
I25
sS'park'
p284
I25
sS'shorty'
p285
I25
sS'mmmm'
p286
I25
sS'cops'
p287
I25
sS'9628'
p288
I25
sS'because'
p289
I25
sS'wasted'
p290
I25
sS'believe'
p291
I25
sS'than'
p292
I25
sS'stocking'
p293
I25
sS'boyfriend'
p294
I25
sS'vocab'
p295
I25
sS'10'
p296
I25
sS'valley'
p297
I25
sS'18'
p298
I25
sS'gotta'
p299
I25
sS'bed'
p300
I25
sS'shower'
p301
I25
sS'giver'
p302
I25
sS'havnt'
p303
I25
sS'feeling'
p304
I25
sS'spurs'
p305
I22
sS'and'
p306
I6
sS'ana'
p307
I25
sS'strengthen'
p308
I25
sS'ginger'
p309
I25
sS'tonight'
p310
I24
sS'talking'
p311
I23
sS'have'
p312
I20
sS'need'
p313
I25
sS'seen'
p314
I25
sS'regards'
p315
I25
sS'aburrido'
p316
I25
sS'any'
p317
I25
sS'speaking'
p318
I25
sS'dude'
p319
I25
sS'congrats'
p320
I25
sS'studying'
p321
I24
sS'self'
p322
I25
sS'shorts'
p323
I25
sS'upgrading'
p324
I25
sS'walk'
p325
I25
sS'anything'
p326
I25
sS'take'
p327
I20
sS'brand'
p328
I25
sS'youuuu'
p329
I25
sS'motha'
p330
I25
sS'who'
p331
I22
sS'took'
p332
I25
sS'nothing'
p333
I25
sS'hoodrats'
p334
I25
sS'why'
p335
I24
sS'forever'
p336
I25
sS'later'
p337
I25
sS'ko'
p338
I25
sS'yesssss'
p339
I25
sS'points'
p340
I24
sS'anton'
p341
I25
sS'saying'
p342
I25
sS'text'
p343
I25
sS'tequila'
p344
I25
sS'random'
p345
I25
sS'pops'
p346
I25
sS'estoy'
p347
I25
sS'stfu'
p348
I25
sS'chicken'
p349
I25
sS'fine'
p350
I24
sS'slow'
p351
I25
sS'bff'
p352
I24
sS'\xe2\x9c\x8b'
p353
I25
sS'situations'
p354
I25
sS'treasure'
p355
I25
sS'being'
p356
I25
sS'going'
p357
I22
sS'pretty'
p358
I23
sS'watching'
p359
I23
sS"should've"
p360
I25
sS'hope'
p361
I25
sS'jaber'
p362
I25
sS'continuity'
p363
I25
sS'do'
p364
I21
sS'hit'
p365
I25
sS'get'
p366
I19
sS'de'
p367
I25
sS'stop'
p368
I24
sS'words'
p369
I25
sS'midterms'
p370
I25
sS'chips'
p371
I25
sS'floods'
p372
I25
sS'morning'
p373
I15
sS'bad'
p374
I24
sS'she'
p375
I25
sS'double'
p376
I25
sS'sunset)'
p377
I24
sS'household)'
p378
I25
sS'generations'
p379
I24
sS'concert'
p380
I23
sS'rockstar'
p381
I25
sS'vine'
p382
I25
sS'annina'
p383
I25
sS'see'
p384
I19
sS'individual'
p385
I25
sS'are'
p386
I23
sS'close'
p387
I25
sS'sport'
p388
I25
sS'best'
p389
I25
sS'wonder'
p390
I25
sS'said'
p391
I25
sS'wow'
p392
I25
sS'please'
p393
I25
sS'connective'
p394
I25
sS'between'
p395
I25
sS'sorts'
p396
I25
sS'frustrated'
p397
I25
sS'across'
p398
I25
sS'kinzie'
p399
I25
sS'we'
p400
I22
sS'tommys'
p401
I25
sS'god'
p402
I25
sS'missing'
p403
I23
sS'boss'
p404
I25
sS"3'am"
p405
I25
sS'job'
p406
I25
sS'louboitins'
p407
I25
sS'jk'
p408
I25
sS'doms'
p409
I25
sS'come'
p410
I22
sS'both'
p411
I24
sS'last'
p412
I22
sS'kicking'
p413
I25
sS'many'
p414
I25
sS'nila'
p415
I25
sS'connection'
p416
I25
sS'became'
p417
I25
sS'faces'
p418
I24
sS'argue'
p419
I25
sS'98-96'
p420
I25
sS"can't"
p421
I25
sS'among'
p422
I25
sS'drunk'
p423
I25
sS'tuesday'
p424
I25
sS'cuando'
p425
I25
sS'coincidence'
p426
I25
sS'likes'
p427
I25
sS'laugh'
p428
I24
sS'god\xe2\x80\x99s'
p429
I25
sS'boysssss'
p430
I25
sS'it\xe2\x80\x99s'
p431
I25
sS'expensive'
p432
I25
sS'esta'
p433
I25
sS'naps'
p434
I25
sS"it's"
p435
I18
sS'wills'
p436
I25
sS'been'
p437
I24
sS'cared'
p438
I25
sS'much'
p439
I25
sS'treat'
p440
I25
sS'woke'
p441
I25
sS'life'
p442
I24
sS"what's"
p443
I23
sS'sunshine'
p444
I25
sS'squash'
p445
I25
sS'hmm'
p446
I25
sS'an'
p447
I25
sS'squirrels'
p448
I25
sS'chill'
p449
I24
sS'paying'
p450
I25
sS'sayang'
p451
I25
sS'convo'
p452
I25
sS'single'
p453
I25
sS'excited'
p454
I25
sS'will'
p455
I23
sS'while'
p456
I24
sS"haven't"
p457
I25
sS'hahaha'
p458
I25
sS'fun'
p459
I24
sS'ill'
p460
I25
sS'chilling'
p461
I25
sS'baskin-robbins'
p462
I25
sS'is'
p463
I10
sS'it'
p464
I15
sS'bibingka'
p465
I25
sS'tissue'
p466
I25
sS'im'
p467
I24
sS'in'
p468
I15
sS'ready'
p469
I25
sS'ave'
p470
I25
sS'rid'
p471
I25
sS'id'
p472
I24
sS'ig'
p473
I25
sS'if'
p474
I23
sS"b'a"
p475
I25
sS'different'
p476
I25
sS'spurssss'
p477
I25
sS'wearing'
p478
I25
sS'things'
p479
I25
sS'make'
p480
I25
sS'cross'
p481
I25
sS'same'
p482
I22
sS'moms'
p483
I25
sS'manila'
p484
I23
sS'peoples'
p485
I25
sS'party'
p486
I25
sS'yesterday'
p487
I25
sS'holidays'
p488
I25
sS'moment'
p489
I24
sS'nights'
p490
I25
sS'fucked'
p491
I25
sS'lemon'
p492
I25
sS'off'
p493
I23
sS'i'
p494
I4
sS'makes'
p495
I25
sS'dancing'
p496
I25
sS'well'
p497
I24
sS'tho'
p498
I25
sS'person'
p499
I25
sS'flags'
p500
I25
sS'deserve'
p501
I25
sS'y'
p502
I24
sS'hearts'
p503
I25
sS'the'
p504
I2
sS'just'
p505
I19
sS'savannah'
p506
I25
sS'accurate'
p507
I25
sS'baskin'
p508
I25
sS'cousins<3'
p509
I25
sS'yes'
p510
I24
sS'praying'
p511
I25
sS'yet'
p512
I25
sS'babalik'
p513
I25
sS'hills'
p514
I24
sS'cup'
p515
I25
sS'drive'
p516
I25
sS'day'
p517
I23
sS'lets'
p518
I25
sS'easy'
p519
I25
sS'homies'
p520
I25
sS'has'
p521
I24
sS'city'
p522
I25
sS'kick'
p523
I25
sS'nalang'
p524
I25
sS'real'
p525
I21
sS'livin'
p526
I25
sS'big'
p527
I25
sS"who's"
p528
I25
sS'triste'
p529
I25
sS'gonna'
p530
I24
sS'early'
p531
I25
sS'game'
p532
I24
sS'kasi'
p533
I25
sS'know'
p534
I25
sS'mom'
p535
I25
sS'world'
p536
I24
sS'banda'
p537
I25
sS'forcing'
p538
I25
sS'like'
p539
I19
sS'texting'
p540
I25
sS'manalo'
p541
I25
sS'nose'
p542
I25
sS'night'
p543
I19
sS'right'
p544
I22
sS'honored'
p545
I25
sS'people'
p546
I23
sS'fucking'
p547
I24
sS'some'
p548
I21
sS'back'
p549
I23
sS'oh'
p550
I25
sS'oscars'
p551
I25
sS'offer'
p552
I25
sS'amzg'
p553
I25
sS'salir'
p554
I25
sS'home'
p555
I18
sS'little'
p556
I25
sS'wetter'
p557
I25
sS'peppermint'
p558
I25
sS'for'
p559
I11
sS'everything'
p560
I25
sS'prom'
p561
I25
sS'dizon'
p562
I25
sS'be'
p563
I20
sS'eating'
p564
I25
sS'coronas'
p565
I25
sS'pueda'
p566
I25
sS'beach'
p567
I25
sS'losing'
p568
I25
sS'usc'
p569
I25
sS';)'
p570
I25
sS'bury'
p571
I25
sS'throw'
p572
I25
sS'oo'
p573
I24
sS'on'
p574
I18
sS'about'
p575
I20
sS'panalo'
p576
I25
sS'8pm'
p577
I24
sS'getting'
p578
I23
sS'of'
p579
I16
sS'dinner'
p580
I25
sS'spanglish'
p581
I25
sS'wanna'
p582
I23
sS'or'
p583
I25
sS'ladies'
p584
I25
sS'momager'
p585
I25
sS'communication'
p586
I25
sS'into'
p587
I21
sS'bound'
p588
I25
sS'ppl'
p589
I25
sS'momma'
p590
I25
sS'nigga'
p591
I23
sS'your'
p592
I23
sS'trabajar'
p593
I25
sS'her'
p594
I25
sS'panorama'
p595
I25
sS'there'
p596
I21
sS'lol'
p597
I18
sS'fight'
p598
I25
sS'start'
p599
I23
sS'\xe2\x98\x9dha'
p600
I25
sS'way'
p601
I23
sS'bored'
p602
I25
sS'was'
p603
I18
sS'happy'
p604
I16
sS'north'
p605
I25
sS'gluten'
p606
I25
sS"i've"
p607
I25
sS'adjusting'
p608
I25
sS'toooo'
p609
I25
sS'but'
p610
I17
sS'somehow'
p611
I25
sS'boys'
p612
I25
sS'heat'
p613
I23
sS'bessss'
p614
I25
sS'jabers'
p615
I25
sS'with'
p616
I12
sS'buying'
p617
I25
sS'count'
p618
I25
sS"they're"
p619
I25
sS'made'
p620
I25
sS'wish'
p621
I25
sS'samsung'
p622
I25
sS'up'
p623
I14
sS'natick'
p624
I25
sS'ur'
p625
I25
sS'favorite\xe2\x80\xa6'
p626
I25
sS'faded'
p627
I24
sS'cake'
p628
I24
sS'loving'
p629
I25
sS'minutes'
p630
I25
sS'gone'
p631
I21
sS':*\xe2\x80\x9dyesss'
p632
I25
sS'year'
p633
I25
sS'am'
p634
I25
sS'dog'
p635
I25
sS'joohee'
p636
I25
sS'as'
p637
I23
sS'warning'
p638
I25
sS'at'
p639
I16
sS'watched'
p640
I25
sS'\xe2\x9c\x8f\xef\xb8\x8f'
p641
I25
sS'shit'
p642
I20
sS'marinated'
p643
I25
sS'again'
p644
I25
sS'tita'
p645
I25
sS'no'
p646
I24
sS'rains'
p647
I25
sS'na'
p648
I24
sS'tito'
p649
I25
sS'45'
p650
I25
sS'when'
p651
I19
sS'(north'
p652
I25
sS'other'
p653
I25
sS'sick'
p654
I25
sS'you'
p655
I5
sS'really'
p656
I23
sS'nice'
p657
I25
sS'championship'
p658
I25
sS'congratsssss'
p659
I25
sS'janella'
p660
I25
sS'welcome'
p661
I25
sS'june'
p662
I24
sS'stay'
p663
I23
sS"let's"
p664
I25
sS'important'
p665
I25
sS'trouble'
p666
I25
sS'pan-roasted'
p667
I25
sS'weekend'
p668
I25
sS'christians'
p669
I25
sS'puss'
p670
I25
sS'potato'
p671
I25
sS'napping'
p672
I25
sS'having'
p673
I23
sS'cooked'
p674
I25
sS'u'
p675
I25
sS'time'
p676
I21
sS'beers'
p677
I25
sS'songs'
p678
I25
sS'starting'
p679
I25
sS'hello'
p680
I24
sS':))'
p681
I23
s.