(dp0
S''
p1
I2
sS'raining'
p2
I131
sS'unscientific'
p3
I133
sS'yellow'
p4
I132
sS'four'
p5
I130
sS"friend's"
p6
I133
sS'hanging'
p7
I130
sS'conjuring'
p8
I133
sS'pardon'
p9
I133
sS'pigged'
p10
I133
sS'isaih'
p11
I133
sS'prinsesa"'
p12
I133
sS'hahhahaha'
p13
I133
sS'lord'
p14
I127
sS'immature'
p15
I133
sS'foul'
p16
I133
sS'stabbed'
p17
I132
sS'screaming'
p18
I128
sS'grueling'
p19
I133
sS'wooden'
p20
I133
sS'wednesday'
p21
I127
sS'oooo'
p22
I133
sS'oooh'
p23
I133
sS'eh'
p24
I131
sS'straight'
p25
I129
sS'(except'
p26
I133
sS'tired'
p27
I116
sS'bacon'
p28
I131
sS'tires'
p29
I133
sS'second'
p30
I125
sS'&i'
p31
I132
sS'tether'
p32
I133
sS'snuggled'
p33
I133
sS'madali'
p34
I133
sS'forgetting'
p35
I133
sS'thunder'
p36
I133
sS'cooking'
p37
I133
sS'fingers'
p38
I133
sS'pataba'
p39
I133
sS'hero'
p40
I132
sS'splinter'
p41
I132
sS'here'
p42
I100
sS'\xe2\x9d\xa4\xef\xb8\x8f'
p43
I118
sS'tatum'
p44
I132
sS'kids'
p45
I124
sS"i's"
p46
I131
sS'k'
p47
I128
sS'"why'
p48
I132
sS'reports'
p49
I131
sS"i'd"
p50
I127
sS"s'mores"
p51
I133
sS'military'
p52
I132
sS"i'm"
p53
I15
sS'explained'
p54
I133
sS'replace'
p55
I133
sS'brought'
p56
I133
sS'hahahahah'
p57
I132
sS'cocaine'
p58
I131
sS'unit'
p59
I133
sS'cheating'
p60
I132
sS'guythhhhhh'
p61
I133
sS'dnt'
p62
I129
sS'music'
p63
I122
sS'therefore'
p64
I133
sS'until'
p65
I123
sS'females'
p66
I133
sS'holy'
p67
I124
sS'relax'
p68
I130
sS'successful'
p69
I133
sS'subtweet'
p70
I132
sS'hurt'
p71
I121
sS'99'
p72
I131
sS'glass'
p73
I132
sS'ahahhaah'
p74
I133
sS'90'
p75
I131
sS'midst'
p76
I133
sS'hold'
p77
I128
sS'2.0\xe2\x80\x9d'
p78
I133
sS'morally'
p79
I131
sS'locked'
p80
I133
sS'mcauley'
p81
I133
sS'imyqt'
p82
I133
sS'sweeter'
p83
I133
sS'exhale'
p84
I133
sS'example'
p85
I133
sS'pooped'
p86
I133
sS'organized'
p87
I133
sS'dragons'
p88
I133
sS'maligo'
p89
I133
sS'want'
p90
I48
sS'goat-versations'
p91
I133
sS"deborah's"
p92
I133
sS'absolute'
p93
I132
sS'hoe'
p94
I128
sS'feature'
p95
I132
sS'hov'
p96
I133
sS'how'
p97
I57
sS'hot'
p98
I110
sS'yum'
p99
I132
sS'hoy'
p100
I130
sS'credential'
p101
I131
sS'beauty'
p102
I131
sS'mufasa'
p103
I133
sS'headache.\xe2\x80\x9d'
p104
I133
sS'swing'
p105
I133
sS'wrong'
p106
I116
sS'buzzy'
p107
I133
sS'childhood'
p108
I133
sS'cigarettes'
p109
I133
sS'keeps'
p110
I130
sS'wing'
p111
I133
sS'wine'
p112
I130
sS'school)'
p113
I133
sS'ghettotasmic'
p114
I133
sS'kaaaaaaa'
p115
I133
sS'fit'
p116
I131
sS'bringing'
p117
I129
sS'fix'
p118
I132
sS'nobles'
p119
I133
sS'easier'
p120
I133
sS'are\xe2\x9d\xa4\xef\xb8\x8f\xe2\x9d\xa4\xef\xb8\x8f'
p121
I133
sS'schools'
p122
I133
sS'celebrating"'
p123
I133
sS'debut'
p124
I133
sS':///'
p125
I133
sS'fisker'
p126
I133
sS'lockout'
p127
I133
sS'"happy'
p128
I133
sS'addicted'
p129
I133
sS'development'
p130
I132
sS'spider'
p131
I132
sS'bowls'
p132
I132
sS'xmen'
p133
I133
sS'2day'
p134
I132
sS'fuck\xe2\x80\x9d'
p135
I133
sS'ring'
p136
I132
sS'whip'
p137
I133
sS'rt'
p138
I102
sS'chokers'
p139
I133
sS'ry'
p140
I132
sS're'
p141
I133
sS'ra'
p142
I133
sS'smh'
p143
I125
sS'rn'
p144
I113
sS'yesterday'
p145
I123
sS'"hey'
p146
I133
sS'grapes'
p147
I133
sS'ass\xe2\x80\x9d'
p148
I133
sS'ate'
p149
I128
sS'auditioned'
p150
I133
sS'atl'
p151
I133
sS'heading'
p152
I133
sS'disturbed'
p153
I133
sS"today's"
p154
I127
sS'9pm'
p155
I133
sS'=))))'
p156
I130
sS'angelic'
p157
I133
sS'wash'
p158
I132
sS'spinning'
p159
I133
sS'tango'
p160
I133
sS'needed'
p161
I129
sS'listed'
p162
I133
sS'gilbert'
p163
I133
sS'legs'
p164
I130
sS'listen'
p165
I127
sS'collapse'
p166
I133
sS'frowned'
p167
I133
sS'wisdom'
p168
I132
sS"knott's"
p169
I132
sS'crawl'
p170
I133
sS'6/6plus'
p171
I133
sS'spayed'
p172
I133
sS'fufu'
p173
I132
sS'basha'
p174
I133
sS'tree'
p175
I133
sS'shower'
p176
I130
sS'tres'
p177
I133
sS'feeling'
p178
I122
sS'yeezys'
p179
I133
sS'we\xe2\x80\x99ve'
p180
I132
sS'runner'
p181
I132
sS'kayo'
p182
I132
sS'pics"'
p183
I133
sS'responsible'
p184
I133
sS'kaya'
p185
I129
sS'okie'
p186
I133
sS'doors'
p187
I132
sS'shall'
p188
I131
sS'doin'
p189
I132
sS'harry."'
p190
I133
sS'victoria'
p191
I133
sS'swiss'
p192
I133
sS'mouth'
p193
I130
sS'letter'
p194
I132
sS'drought'
p195
I131
sS'dummy'
p196
I133
sS'singer'
p197
I133
sS'episode'
p198
I126
sS'cops'
p199
I133
sS'grove'
p200
I133
sS'professor'
p201
I129
sS'camp'
p202
I133
sS'drunks'
p203
I133
sS'tech'
p204
I133
sS'doesn\xe2\x80\x99t'
p205
I133
sS'scream'
p206
I133
sS'came'
p207
I119
sS'saying'
p208
I124
sS'bomb'
p209
I128
sS'boreanaz'
p210
I133
sS'tequila'
p211
I133
sS'nominated'
p212
I133
sS'forsure'
p213
I133
sS'unmanaged'
p214
I133
sS'tempted'
p215
I133
sS'godddd'
p216
I132
sS'lessons'
p217
I133
sS'busy'
p218
I130
sS'cousins'
p219
I133
sS'bust'
p220
I133
sS'than'
p221
I101
sS'rihanna'
p222
I133
sS'tonight\xe2\x80\x9d'
p223
I133
sS'theme'
p224
I132
sS'touched'
p225
I133
sS'wonda'
p226
I133
sS'rice'
p227
I131
sS'mulan'
p228
I133
sS'culkin'
p229
I133
sS'staaaaaahp'
p230
I133
sS"vanessa's"
p231
I133
sS"k'ed"
p232
I133
sS'respond'
p233
I132
sS'blew'
p234
I133
sS'fair'
p235
I132
sS'goodnight'
p236
I128
sS'fail'
p237
I133
sS'pinoy'
p238
I133
sS'best'
p239
I86
sS'lots'
p240
I130
sS'rings'
p241
I133
sS'score'
p242
I132
sS'indecisive'
p243
I133
sS'men'
p244
I131
sS'nature'
p245
I133
sS'wtf'
p246
I120
sS'wth'
p247
I131
sS'pity'
p248
I132
sS'accident'
p249
I131
sS'country'
p250
I133
sS'adventures'
p251
I132
sS'planned'
p252
I130
sS'lookin'
p253
I129
sS'n***a'
p254
I133
sS'argue'
p255
I133
sS'asked'
p256
I123
sS'happenin'
p257
I133
sS'canyon'
p258
I133
sS'niya'
p259
I132
sS'pregnancy'
p260
I133
sS'diff'
p261
I133
sS'blonde'
p262
I129
sS'lighthouse'
p263
I133
sS'cardboard'
p264
I133
sS'studies/lesson'
p265
I133
sS'sixflags'
p266
I132
sS'fetish??\xe2\x80\x9d'
p267
I133
sS'frm'
p268
I133
sS'bothers'
p269
I133
sS'much'
p270
I61
sS'life'
p271
I54
sS'spit'
p272
I131
sS'talagang'
p273
I133
sS'dave'
p274
I133
sS'dotd'
p275
I126
sS'worked'
p276
I132
sS'haters'
p277
I133
sS'cunt'
p278
I129
sS'chill'
p279
I126
sS'linkin'
p280
I131
sS"idina's"
p281
I133
sS'naunahan'
p282
I133
sS'elaborate'
p283
I133
sS'remembering'
p284
I133
sS'basic\xe2\x80\x9d'
p285
I133
sS'played'
p286
I130
sS'ditching'
p287
I133
sS'player'
p288
I132
sS'"savannah'
p289
I132
sS'conditioner'
p290
I133
sS'things'
p291
I103
sS'toaster'
p292
I131
sS'laguerta'
p293
I133
sS'split'
p294
I133
sS'babies'
p295
I132
sS"70's"
p296
I132
sS'inadvertently'
p297
I133
sS'typhoid'
p298
I133
sS'imysm'
p299
I132
sS'fideos'
p300
I133
sS'opinions'
p301
I132
sS'holidays\xe2\x80\xa6'
p302
I133
sS'sleepy'
p303
I131
sS'succeeding'
p304
I133
sS'broncos'
p305
I133
sS'had'
p306
I76
sS'hay'
p307
I133
sS'innocent'
p308
I133
sS'wce'
p309
I132
sS'has'
p310
I84
sS'hat'
p311
I132
sS'menne'
p312
I133
sS'"adamed"'
p313
I132
sS'shadow'
p314
I133
sS'instagrammers'
p315
I133
sS'bobby'
p316
I132
sS'favoriting'
p317
I133
sS'bonkers'
p318
I133
sS'ola'
p319
I133
sS'&now'
p320
I133
sS'right'
p321
I76
sS'old'
p322
I108
sS'crowd'
p323
I133
sS'people'
p324
I42
sS'billboard'
p325
I133
sS'harassment'
p326
I133
sS'sociology'
p327
I131
sS'for'
p328
I14
sS'bottom'
p329
I132
sS'foo'
p330
I133
sS'with/talk'
p331
I133
sS'shakes'
p332
I133
sS'gunshots"'
p333
I133
sS'wancha'
p334
I133
sS'mummmaaa'
p335
I133
sS'losing'
p336
I133
sS'filipino'
p337
I131
sS'dyin'
p338
I133
sS'o'
p339
I131
sS'slightly'
p340
I133
sS'raised'
p341
I133
sS'facility'
p342
I133
sS'talent)'
p343
I133
sS'nietzsche\xe2\x9d\xa4\xef\xb8\x8f'
p344
I133
sS'soo'
p345
I129
sS'son'
p346
I133
sS'thankful'
p347
I130
sS'cali'
p348
I130
sS'support'
p349
I130
sS'constantly'
p350
I133
sS'>>>>'
p351
I129
sS'absolutely'
p352
I129
sS'goddamn'
p353
I133
sS'jane'
p354
I133
sS'happy'
p355
I65
sS'$200'
p356
I133
sS'inside'
p357
I131
sS"franco's"
p358
I133
sS'auditioning'
p359
I133
sS'servings'
p360
I133
sS'cleverr'
p361
I133
sS'passenger'
p362
I133
sS'proud'
p363
I127
sS'bathrobe'
p364
I133
sS'soothe'
p365
I133
sS'meron'
p366
I130
sS'exist'
p367
I131
sS'sprouts'
p368
I133
sS'iyak'
p369
I133
sS'cassie'
p370
I133
sS'floor'
p371
I131
sS'awwwwhhh'
p372
I133
sS'actor'
p373
I133
sS'psssht'
p374
I133
sS'flood'
p375
I133
sS'role'
p376
I132
sS'smell'
p377
I133
sS'roll'
p378
I130
sS'rdtii'
p379
I133
sS"'s"
p380
I131
sS'models'
p381
I132
sS'devon'
p382
I130
sS'smelling'
p383
I133
sS'adrianna'
p384
I133
sS'organizer\xe2\x80\x9d'
p385
I133
sS'98'
p386
I133
sS'pet'
p387
I131
sS"stepdad's"
p388
I133
sS'time'
p389
I54
sS'gown'
p390
I133
sS':/'
p391
I131
sS':('
p392
I98
sS':)'
p393
I122
sS':*'
p394
I127
sS'whoever'
p395
I132
sS'drastically'
p396
I133
sS'chair'
p397
I132
sS':0'
p398
I133
sS'hole'
p399
I133
sS':3'
p400
I132
sS'venice'
p401
I133
sS"when's"
p402
I133
sS'macho'
p403
I133
sS':o'
p404
I133
sS'woodley'
p405
I132
sS':d'
p406
I133
sS'choice'
p407
I133
sS'bchavooo'
p408
I133
sS'stays'
p409
I132
sS':p'
p410
I132
sS'minute'
p411
I128
sS'moola'
p412
I133
sS'mickeys'
p413
I132
sS'minnie'
p414
I133
sS'leave'
p415
I125
sS'team'
p416
I124
sS'bonfire'
p417
I133
sS'prevent'
p418
I133
sS'sige'
p419
I128
sS'videochat'
p420
I133
sS'teamnatural'
p421
I133
sS'sign'
p422
I131
sS'\xe2\x9e\xb0'
p423
I133
sS'educate'
p424
I133
sS'celebrated'
p425
I133
sS'current'
p426
I130
sS'remembered'
p427
I131
sS'freaks'
p428
I133
sS'falling'
p429
I132
sS'ground'
p430
I133
sS'boost'
p431
I131
sS'\xe2\x9e\x95'
p432
I133
sS'drafted'
p433
I133
sS'grandparents'
p434
I133
sS'funeral'
p435
I133
sS'jayde'
p436
I133
sS'address'
p437
I133
sS'alone'
p438
I124
sS'along'
p439
I130
sS'p\xc3\xbato'
p440
I133
sS'canoga'
p441
I132
sS'wherever'
p442
I133
sS'commonly'
p443
I133
sS'accomplished'
p444
I132
sS'love'
p445
I28
sS'santa'
p446
I131
sS'tingnan'
p447
I133
sS'bloody'
p448
I133
sS'be."'
p449
I133
sS'fake'
p450
I129
sS"nick's"
p451
I133
sS'red'
p452
I128
sS'working'
p453
I124
sS'angry'
p454
I129
sS"it'll"
p455
I132
sS'fire\xe2\x80\x9d'
p456
I133
sS'films'
p457
I132
sS'loving'
p458
I131
sS'afford'
p459
I131
sS'everywhere'
p460
I132
sS'\xe2\x9d\xa4\xef\xb8\x8f\xe2\x9d\xa4\xef\xb8\x8f'
p461
I132
sS'easiest'
p462
I133
sS'involve'
p463
I133
sS'anything'
p464
I121
sS'nearrrrr'
p465
I133
sS'whaaaat'
p466
I133
sS'originally'
p467
I133
sS'believes'
p468
I133
sS'awesome'
p469
I114
sS'allowed'
p470
I133
sS'offense'
p471
I133
sS'listens'
p472
I133
sS'winter'
p473
I128
sS's1'
p474
I133
sS'immune'
p475
I133
sS'snaps'
p476
I130
sS'laundry'
p477
I131
sS'shoessss'
p478
I133
sS'spot'
p479
I132
sS'tick!"'
p480
I133
sS'applications'
p481
I133
sS'dati'
p482
I132
sS'date'
p483
I121
sS'such'
p484
I92
sS'suck'
p485
I131
sS'data'
p486
I133
sS'stress'
p487
I133
sS'natural'
p488
I131
sS'whyyyyy'
p489
I133
sS'st'
p490
I133
sS'si'
p491
I126
sS'mango'
p492
I133
sS'so'
p493
I13
sS'sm'
p494
I128
sS'sc'
p495
I133
sS'sb'
p496
I133
sS'sa'
p497
I101
sS'pulled'
p498
I132
sS'sd'
p499
I133
sS'chicharong'
p500
I133
sS'years'
p501
I122
sS'professors'
p502
I133
sS'course'
p503
I128
sS'episodes'
p504
I132
sS'"numbers'
p505
I133
sS'kanye'
p506
I132
sS'$hit'
p507
I131
sS'celebrate'
p508
I132
sS'instantly'
p509
I133
sS'insomnia'
p510
I133
sS'feelin'
p511
I130
sS'drilling'
p512
I133
sS'ahaha'
p513
I128
sS'photoshoot'
p514
I133
sS'square'
p515
I133
sS'lowkey'
p516
I130
sS'receipt'
p517
I132
sS'beetle'
p518
I133
sS'troll'
p519
I133
sS'naked'
p520
I133
sS'workaholic'
p521
I133
sS'grandad'
p522
I133
sS'contained'
p523
I133
sS'investigation'
p524
I133
sS'internet'
p525
I128
sS'sings'
p526
I133
sS'dodgers'
p527
I130
sS'million'
p528
I126
sS'plez'
p529
I133
sS'maganda'
p530
I132
sS'quite'
p531
I133
sS'besides'
p532
I132
sS'grandma'
p533
I131
sS'quits'
p534
I133
sS'scarred'
p535
I133
sS'tasting'
p536
I133
sS'horas'
p537
I133
sS'saving'
p538
I132
sS'clause'
p539
I133
sS'potter'
p540
I124
sS'one'
p541
I41
sS'pagkakuha'
p542
I133
sS"eddie's"
p543
I133
sS'spanish'
p544
I133
sS'chubby'
p545
I133
sS'u2'
p546
I133
sS'open'
p547
I127
sS'city'
p548
I128
sS'2'
p549
I88
sS'draft'
p550
I128
sS'williams'
p551
I131
sS'"let'
p552
I133
sS'ridiculous'
p553
I133
sS'bebes'
p554
I133
sS'friend-iversary'
p555
I133
sS'boyfriend'
p556
I128
sS'depressed'
p557
I131
sS'future'
p558
I125
sS'san'
p559
I130
sS'nicer'
p560
I133
sS'turned'
p561
I130
sS'sad'
p562
I115
sS'woah'
p563
I133
sS'tastes'
p564
I133
sS'backyard)'
p565
I133
sS'buried'
p566
I133
sS'saw'
p567
I113
sS'sav'
p568
I133
sS'sat'
p569
I131
sS'aside'
p570
I133
sS'zoo'
p571
I133
sS'note'
p572
I132
sS'omfg'
p573
I119
sS'take'
p574
I86
sS'wanting'
p575
I132
sS'mayer'
p576
I133
sS'butterfly'
p577
I133
sS'knew'
p578
I127
sS'knee'
p579
I133
sS'pages'
p580
I133
sS'lawd'
p581
I133
sS'liverpoolmanchester'
p582
I133
sS'drive'
p583
I123
sS'ways'
p584
I133
sS'axe'
p585
I133
sS'sals'
p586
I133
sS'walking'
p587
I125
sS'bright'
p588
I133
sS'imagined'
p589
I133
sS'slow'
p590
I130
sS'farting'
p591
I133
sS'bbz'
p592
I133
sS'\xe2\x9c\x8b'
p593
I133
sS'\xe2\x9c\x8a'
p594
I132
sS'tears'
p595
I123
sS'going'
p596
I60
sS'slob'
p597
I133
sS'goodnight!"'
p598
I133
sS'goodluck'
p599
I130
sS'assistant'
p600
I133
sS'pimp'
p601
I133
sS'*things'
p602
I133
sS'awwwww'
p603
I131
sS'worried'
p604
I131
sS'whitegirl'
p605
I133
sS'awwwwh'
p606
I133
sS'priest'
p607
I133
sS'roger'
p608
I132
sS"could've"
p609
I133
sS'worries'
p610
I133
sS'where'
p611
I93
sS'"kevin'
p612
I133
sS'gangster'
p613
I133
sS'anyways'
p614
I130
sS'euclid'
p615
I133
sS'dexter'
p616
I118
sS'jumped'
p617
I131
sS'bootleg'
p618
I133
sS'man"'
p619
I133
sS'punta'
p620
I133
sS'jobs'
p621
I132
sS'tatlo'
p622
I133
sS'persians'
p623
I133
sS'screen'
p624
I131
sS'awards'
p625
I133
sS'many'
p626
I118
sS's'
p627
I133
sS'mane'
p628
I130
sS'unflattering'
p629
I133
sS'expression'
p630
I133
sS'backpack'
p631
I133
sS"can't"
p632
I51
sS'mejj'
p633
I131
sS'coked'
p634
I133
sS'nooooo'
p635
I129
sS'noooot'
p636
I133
sS'noooow'
p637
I132
sS'constant'
p638
I133
sS'cramps'
p639
I133
sS'locally'
p640
I133
sS'vacation'
p641
I133
sS'breath'
p642
I133
sS'motives'
p643
I133
sS'wants'
p644
I114
sS'thousand'
p645
I133
sS'photos'
p646
I132
sS'hashtag'
p647
I128
sS'tatoos'
p648
I133
sS'dusted'
p649
I133
sS'isabelle'
p650
I133
sS'polls'
p651
I133
sS'situation'
p652
I130
sS'wowowooww'
p653
I133
sS'internets'
p654
I133
sS'engaged'
p655
I133
sS'mixtape'
p656
I132
sS'bros'
p657
I131
sS'blah'
p658
I131
sS'nation'
p659
I133
sS'technology'
p660
I132
sS'ivy'
p661
I133
sS'dragging'
p662
I132
sS'threatens'
p663
I133
sS'thinkin'
p664
I128
sS'defy'
p665
I133
sS'costa'
p666
I133
sS'awesomeness'
p667
I130
sS'nothin'
p668
I132
sS'summer'
p669
I122
sS'being'
p670
I109
sS'rest'
p671
I128
sS'foreva'
p672
I133
sS'blondes'
p673
I132
sS'lolllll'
p674
I133
sS'life.\xe2\x80\x9dbucket'
p675
I133
sS'dicks'
p676
I133
sS'skies'
p677
I132
sS'starving'
p678
I133
sS'aspects'
p679
I133
sS'around'
p680
I110
sS'por'
p681
I133
sS'sums'
p682
I132
sS'panget'
p683
I132
sS'dark'
p684
I130
sS'traffic'
p685
I133
sS'darn'
p686
I133
sS'world'
p687
I98
sS"nana's"
p688
I133
sS"('"
p689
I131
sS'dare'
p690
I131
sS'in-n-out'
p691
I133
sS'stranger'
p692
I133
sS'homeroom'
p693
I133
sS'gimme'
p694
I132
sS'clap'
p695
I133
sS"couldn't"
p696
I129
sS'arrested'
p697
I133
sS'playin'
p698
I130
sS'pickles'
p699
I133
sS'"eto'
p700
I133
sS'thinks'
p701
I130
sS'yesss'
p702
I132
sS'memories'
p703
I132
sS'tube'
p704
I133
sS'nooo'
p705
I129
sS'exit'
p706
I133
sS'ddd'
p707
I133
sS'power'
p708
I129
sS'free.\xe2\x80\x9d'
p709
I133
sS'throwback'
p710
I130
sS';)'
p711
I131
sS'diba'
p712
I133
sS'package'
p713
I132
sS'favorite'
p714
I117
sS'meal'
p715
I131
sS'his.\xe2\x80\x9d'
p716
I133
sS'neighbor'
p717
I130
sS'act'
p718
I127
sS'luck'
p719
I130
sS'burning'
p720
I131
sS'homeless'
p721
I133
sS'parties'
p722
I131
sS'kahiya'
p723
I133
sS'her'
p724
I69
sS'hes'
p725
I133
sS'eksenang'
p726
I133
sS'ulul'
p727
I130
sS'hey'
p728
I120
sS'bubble'
p729
I133
sS'ago'
p730
I129
sS'perrence'
p731
I133
sS'complete'
p732
I129
sS'awwwwww'
p733
I133
sS'influential\xe2\x80\xa6'
p734
I133
sS'with'
p735
I21
sS'buying'
p736
I132
sS'handsome'
p737
I132
sS"they're"
p738
I122
sS'october'
p739
I133
sS'naming'
p740
I133
sS'rage'
p741
I133
sS'dirty'
p742
I128
sS'agree'
p743
I133
sS'gone'
p744
I121
sS'ac'
p745
I132
sS'ab'
p746
I132
sS'ohh'
p747
I133
sS'butthole'
p748
I133
sS'af'
p749
I123
sS'exhausted'
p750
I130
sS'certain'
p751
I131
sS'am'
p752
I80
sS'watches'
p753
I132
sS'an'
p754
I74
sS'natella'
p755
I133
sS'as'
p756
I67
sS'at'
p757
I30
sS'aw'
p758
I120
sS'walks'
p759
I132
sS'watched'
p760
I129
sS'cream'
p761
I129
sS'yoga'
p762
I131
sS'whiners'
p763
I133
sS'tight'
p764
I132
sS'yummmm'
p765
I133
sS'incomprehensible'
p766
I133
sS'morning\xe2\x80\x9d'
p767
I133
sS'hi\xe2\x80\x9d'
p768
I133
sS'vocabulary'
p769
I133
sS'gifts'
p770
I132
sS'slang'
p771
I133
sS'5:45'
p772
I133
sS'sobbing'
p773
I133
sS'hello'
p774
I131
sS'adam'
p775
I129
sS'consider'
p776
I133
sS'nicca'
p777
I133
sS'hunting'
p778
I132
sS'ty'
p779
I132
sS'tv'
p780
I127
sS'irrelevant'
p781
I133
sS'to'
p782
I3
sS'tl'
p783
I133
sS'chewing'
p784
I131
sS'dressing'
p785
I133
sS'tf'
p786
I128
sS'smile'
p787
I128
sS'td'
p788
I132
sS'te'
p789
I133
sS'tb'
p790
I133
sS'ghana'
p791
I132
sS'appointment'
p792
I133
sS'myself'
p793
I108
sS"colombia's"
p794
I133
sS'ppls'
p795
I133
sS'tatted'
p796
I133
sS'hooking'
p797
I133
sS'anesthetics'
p798
I133
sS'laying'
p799
I132
sS'sana'
p800
I132
sS'small'
p801
I129
sS'dodger'
p802
I132
sS'mount'
p803
I133
sS'lecturing'
p804
I133
sS'penalties'
p805
I133
sS'koooooo'
p806
I133
sS'past'
p807
I133
sS'pass'
p808
I129
sS'amplified'
p809
I133
sS'trick'
p810
I133
sS'richard'
p811
I133
sS'clock'
p812
I130
sS'youuu'
p813
I132
sS'fucks'
p814
I133
sS'undecided'
p815
I133
sS'full'
p816
I117
sS'nakikipaglandian'
p817
I133
sS'andddd'
p818
I133
sS'hours'
p819
I109
sS'smartest'
p820
I133
sS'ganda'
p821
I126
sS'november'
p822
I132
sS'legend'
p823
I133
sS'weirded'
p824
I133
sS'experience'
p825
I132
sS'pics'
p826
I120
sS'social'
p827
I131
sS'action'
p828
I133
sS"would've"
p829
I131
sS'smuggle'
p830
I133
sS'sobrang'
p831
I130
sS'followed'
p832
I132
sS'adidas'
p833
I133
sS'vin'
p834
I133
sS'traumatized'
p835
I133
sS'vip'
p836
I133
sS'attendance'
p837
I133
sS'kyankussss'
p838
I133
sS'turista'
p839
I133
sS'more'
p840
I85
sS'door'
p841
I124
sS'company'
p842
I127
sS'anywaaaay'
p843
I133
sS'rudeness'
p844
I133
sS'keeping'
p845
I131
sS'booooored'
p846
I133
sS'science'
p847
I133
sS'4:00'
p848
I133
sS'&wow'
p849
I133
sS'morgan'
p850
I133
sS'learn'
p851
I129
sS'male'
p852
I133
sS'beautiful'
p853
I106
sS'(with'
p854
I133
sS'stated'
p855
I133
sS'"can"'
p856
I133
sS'accept'
p857
I133
sS'salty'
p858
I132
sS'sense'
p859
I133
sS'dress'
p860
I128
sS'\xd7\xa9\xd7\x91\xd7\xaa'
p861
I133
sS'clint'
p862
I133
sS'tuing'
p863
I133
sS'hugh'
p864
I133
sS'hugs'
p865
I133
sS'scoreboard"'
p866
I133
sS'stfuuuu'
p867
I133
sS'lotssss'
p868
I133
sS'brett'
p869
I133
sS'wedding/proposal'
p870
I133
sS'soundtrack'
p871
I133
sS'plane'
p872
I129
sS'neverland.."'
p873
I133
sS'waves'
p874
I133
sS'backyard'
p875
I133
sS'friends\xe2\x80\x9d'
p876
I133
sS'refuse'
p877
I133
sS'register'
p878
I133
sS'"f*ck'
p879
I133
sS'replied'
p880
I131
sS'rottweiler'
p881
I133
sS'mexican'
p882
I131
sS'trade'
p883
I133
sS'attitude'
p884
I132
sS'paper'
p885
I130
sS'scott'
p886
I133
sS'$26'
p887
I133
sS'its'
p888
I117
sS'bummed'
p889
I133
sS'ruining'
p890
I132
sS'sauce'
p891
I133
sS'ally'
p892
I133
sS'\xe2\x98\x81\xef\xb8\x8f\xe2\x98\x81\xef\xb8\x8f'
p893
I133
sS'motley'
p894
I133
sS'icymi'
p895
I133
sS'idols'
p896
I133
sS'sucked'
p897
I133
sS'coping'
p898
I133
sS'always'
p899
I88
sS'found'
p900
I116
sS'reduce'
p901
I132
sS'dymond'
p902
I133
sS'tahiti'
p903
I133
sS'really'
p904
I65
sS'24hours'
p905
I133
sS'psychology'
p906
I132
sS'candlelight'
p907
I133
sS'bubba'
p908
I133
sS'salute'
p909
I133
sS'porcelain'
p910
I133
sS'imagine'
p911
I131
sS'mcchicken'
p912
I133
sS'owners'
p913
I133
sS'sytycd'
p914
I132
sS'w'
p915
I118
sS'castle'
p916
I130
sS'major'
p917
I130
sS'slipped'
p918
I133
sS'number'
p919
I126
sS'stage'
p920
I133
sS'wishin'
p921
I133
sS'heads'
p922
I132
sS'guest'
p923
I132
sS'benedict'
p924
I133
sS'swipe'
p925
I133
sS'saint'
p926
I133
sS'all-you-can-eat'
p927
I133
sS'essays'
p928
I133
sS'jen'
p929
I132
sS'complained'
p930
I133
sS'relationship'
p931
I127
sS'appreciation'
p932
I133
sS'endlessly'
p933
I133
sS'obama'
p934
I133
sS'ungrateful'
p935
I133
sS'kreme'
p936
I133
sS'nidownload'
p937
I133
sS'marriage'
p938
I133
sS'video'
p939
I125
sS'remembers'
p940
I133
sS'eggos'
p941
I133
sS'fights'
p942
I133
sS'graffiti'
p943
I133
sS'sell'
p944
I128
sS'spaghetti'
p945
I132
sS'self'
p946
I127
sS'jeopardize'
p947
I133
sS'also'
p948
I120
sS'internal'
p949
I133
sS'6year'
p950
I132
sS'all-nighter'
p951
I133
sS'yearbooks'
p952
I132
sS'nasan'
p953
I131
sS'plan'
p954
I129
sS'accepting'
p955
I133
sS'funnier'
p956
I132
sS'sometimes'
p957
I118
sS'green\xe2\x80\x9d'
p958
I133
sS'gabi'
p959
I133
sS'day!\xe2\x98\xba\xef\xb8\x8f'
p960
I133
sS'ugh'
p961
I121
sS'gold'
p962
I133
sS'session'
p963
I133
sS'sayin'
p964
I131
sS'failed'
p965
I133
sS'condom'
p966
I133
sS'captures'
p967
I133
sS'ingram'
p968
I133
sS'quizzes'
p969
I133
sS'sunny'
p970
I131
sS'preparing'
p971
I132
sS'reporters'
p972
I133
sS'distraction'
p973
I133
sS'cry'
p974
I118
sS'ahhhhh'
p975
I133
sS'depressin'
p976
I133
sS'insane'
p977
I133
sS'body'
p978
I124
sS'set'
p979
I125
sS'creator'
p980
I133
sS':-))'
p981
I133
sS'sex'
p982
I128
sS'see'
p983
I52
sS'sec'
p984
I132
sS'sea'
p985
I133
sS'iiight'
p986
I133
sS'project'
p987
I132
sS'vitamins'
p988
I131
sS'movie'
p989
I100
sS'currently'
p990
I133
sS'demons'
p991
I133
sS'captured'
p992
I133
sS'nope'
p993
I130
sS'compliment'
p994
I133
sS'knowing'
p995
I132
sS'\xe2\x8f\xb3\xe2\x8f\xb0\xe2\x8c\x9b\xef\xb8\x8f'
p996
I133
sS'spoiled'
p997
I133
sS'swarley'
p998
I133
sS'longest\xe2\x80\x9d'
p999
I133
sS'leo'
p1000
I133
sS'last'
p1001
I100
sS'influential'
p1002
I132
sS'thot'
p1003
I131
sS'barely'
p1004
I128
sS"damn!!'"
p1005
I133
sS'rose'
p1006
I133
sS'whole'
p1007
I120
sS'patty'
p1008
I133
sS':-////'
p1009
I133
sS'seryoso'
p1010
I133
sS'drunk'
p1011
I124
sS'yaaaaaaassss'
p1012
I133
sS'celeste'
p1013
I133
sS'community'
p1014
I131
sS'coincidence'
p1015
I133
sS'magjog'
p1016
I133
sS'bitch"'
p1017
I132
sS'church'
p1018
I131
sS'sammy'
p1019
I117
sS"trippin'"
p1020
I133
sS'devil'
p1021
I132
sS'hitting'
p1022
I133
sS'initiation'
p1023
I133
sS'mindset'
p1024
I133
sS'>:(<'
p1025
I133
sS'raced'
p1026
I133
sS'champion'
p1027
I133
sS'fire'
p1028
I126
sS"what's"
p1029
I120
sS'roooooooood'
p1030
I133
sS'awake'
p1031
I126
sS'funk'
p1032
I133
sS'"do'
p1033
I133
sS'tip'
p1034
I133
sS'"rach'
p1035
I133
sS'pressed'
p1036
I133
sS'lasheng'
p1037
I133
sS'robin'
p1038
I132
sS'swim'
p1039
I132
sS'pound'
p1040
I133
sS'<3'
p1041
I124
sS'moth'
p1042
I129
sS'calculator'
p1043
I133
sS'"hov"'
p1044
I133
sS'owes'
p1045
I133
sS'chase'
p1046
I130
sS'funny'
p1047
I102
sS'barney'
p1048
I133
sS'barnes'
p1049
I133
sS'rules'
p1050
I133
sS'safiya'
p1051
I133
sS'"aa"'
p1052
I133
sS'dreamcatcher'
p1053
I133
sS'deformity'
p1054
I133
sS'alert'
p1055
I133
sS'levels'
p1056
I133
sS'101'
p1057
I133
sS'picky'
p1058
I133
sS'awwwwwwwwwwwwww'
p1059
I133
sS'doubt!"'
p1060
I133
sS'picks'
p1061
I133
sS'hatchery'
p1062
I133
sS'person'
p1063
I112
sS'kelly'
p1064
I131
sS'"acidic'
p1065
I133
sS'magpakuha'
p1066
I133
sS'craving\xe2\x80\x9d'
p1067
I133
sS'nyahahaha'
p1068
I133
sS'it.\xe2\x80\x9d'
p1069
I133
sS'amp'
p1070
I132
sS'ricky"'
p1071
I133
sS'goblet'
p1072
I133
sS'koooo'
p1073
I133
sS'signals'
p1074
I133
sS'"lolz"'
p1075
I133
sS'walaaaa'
p1076
I133
sS'parents'
p1077
I120
sS'location'
p1078
I132
sS'crying'
p1079
I105
sS'surprised'
p1080
I133
sS'emergency'
p1081
I132
sS'demands'
p1082
I133
sS'couple'
p1083
I123
sS'block/report'
p1084
I132
sS'shitty'
p1085
I132
sS'suffering'
p1086
I133
sS'cuteness'
p1087
I132
sS'formal'
p1088
I133
sS'spring'
p1089
I133
sS'b3'
p1090
I133
sS'pala'
p1091
I131
sS'curious'
p1092
I131
sS'and/or'
p1093
I133
sS'dating'
p1094
I133
sS'"call"'
p1095
I133
sS'be'
p1096
I22
sS'bf'
p1097
I133
sS'ba'
p1098
I128
sS'bb'
p1099
I129
sS'bc'
p1100
I104
sS'malabo'
p1101
I133
sS'bv'
p1102
I133
sS'nowhere'
p1103
I132
sS'kunin'
p1104
I133
sS'darkskin'
p1105
I133
sS'by'
p1106
I95
sS'bears"'
p1107
I133
sS'deserved'
p1108
I133
sS'netflix'
p1109
I128
sS'deserves'
p1110
I133
sS'forgave'
p1111
I133
sS'cockblock'
p1112
I133
sS'repair'
p1113
I132
sS'glumly'
p1114
I133
sS'hometown'
p1115
I133
sS'into'
p1116
I103
sS'vaas'
p1117
I132
sS'appropriate'
p1118
I133
sS'lebron'
p1119
I133
sS'span'
p1120
I133
sS'sneaky'
p1121
I133
sS'spending'
p1122
I133
sS'sock'
p1123
I133
sS'specifically'
p1124
I133
sS'custom'
p1125
I133
sS'suit'
p1126
I133
sS'opens'
p1127
I133
sS'butters'
p1128
I133
sS'poster'
p1129
I131
sS'relaxed'
p1130
I133
sS'slums'
p1131
I133
sS'link'
p1132
I132
sS'competition'
p1133
I133
sS'line'
p1134
I132
sS'posted'
p1135
I129
sS'kayong'
p1136
I133
sS'up'
p1137
I29
sS'us'
p1138
I106
sS'ur'
p1139
I92
sS'um'
p1140
I130
sS'uh'
p1141
I128
sS'mature'
p1142
I133
sS'medical'
p1143
I133
sS'yelled'
p1144
I130
sS'showtime'
p1145
I133
sS'gulaaaaay."'
p1146
I133
sS'rowie'
p1147
I133
sS'magprerog'
p1148
I133
sS'chat'
p1149
I126
sS'thugs'
p1150
I133
sS'realest'
p1151
I133
sS'points'
p1152
I132
sS'exum'
p1153
I133
sS'okayyyyy'
p1154
I133
sS'meals'
p1155
I133
sS'lang'
p1156
I113
sS'texted'
p1157
I131
sS'lana'
p1158
I132
sS'agh'
p1159
I133
sS'napping'
p1160
I133
sS'holes'
p1161
I133
sS'walked'
p1162
I132
sS'hella'
p1163
I130
sS'fresh'
p1164
I129
sS'having'
p1165
I99
sS'essay'
p1166
I133
sS'\xe2\x98\xba\xef\xb8\x8f\xe2\x98\xba\xef\xb8\x8f\xe2\x98\xba\xef\xb8\x8f'
p1167
I131
sS'scratch'
p1168
I133
sS'results'
p1169
I133
sS'gossip'
p1170
I131
sS'chillin'
p1171
I132
sS'seemed'
p1172
I133
sS'ulit'
p1173
I133
sS'pag-uwi'
p1174
I133
sS'turkish'
p1175
I133
sS'young'
p1176
I129
sS'send'
p1177
I119
sS'sinabi'
p1178
I132
sS'sent'
p1179
I125
sS'waters"'
p1180
I133
sS'torture'
p1181
I132
sS'dodgerssssss'
p1182
I133
sS'decorating'
p1183
I133
sS'categories'
p1184
I133
sS'magic'
p1185
I132
sS'marry'
p1186
I132
sS'gettin'
p1187
I132
sS'eve'
p1188
I133
sS'damning'
p1189
I133
sS'try'
p1190
I124
sS'race'
p1191
I132
sS'tru'
p1192
I133
sS'mehhh'
p1193
I133
sS'hyde'
p1194
I133
sS'spaghetto'
p1195
I133
sS'pajamas'
p1196
I132
sS'graduating'
p1197
I133
sS'dumamoves'
p1198
I133
sS'sweats'
p1199
I132
sS'iggreet'
p1200
I133
sS'twins'
p1201
I133
sS'kershaw'
p1202
I133
sS'harassing'
p1203
I133
sS'lea'
p1204
I133
sS'tybg'
p1205
I133
sS'leg'
p1206
I133
sS'punch'
p1207
I130
sS'reasons)....but'
p1208
I133
sS'shmurda'
p1209
I132
sS'let'
p1210
I109
sS'kilala'
p1211
I133
sS'stahhhp'
p1212
I133
sS'great'
p1213
I102
sS'engage'
p1214
I133
sS'receive'
p1215
I133
sS'didnt'
p1216
I128
sS'titanic'
p1217
I133
sS'dyan'
p1218
I127
sS'survey'
p1219
I132
sS'popcorn'
p1220
I132
sS'opinion'
p1221
I131
sS'makes'
p1222
I99
sS'weekends'
p1223
I133
sS'thats'
p1224
I127
sS'emos'
p1225
I133
sS'bens'
p1226
I133
sS'dumbest'
p1227
I132
sS'standing'
p1228
I133
sS'coldpress."me'
p1229
I133
sS'confidence'
p1230
I133
sS'cheered'
p1231
I133
sS'bush'
p1232
I133
sS'next'
p1233
I95
sS'pleaseeee'
p1234
I133
sS'doubt'
p1235
I131
sS'pencil'
p1236
I132
sS'babe'
p1237
I132
sS'kampihan'
p1238
I133
sS'baby'
p1239
I113
sS'antichrist'
p1240
I133
sS'charity'
p1241
I133
sS'customer'
p1242
I133
sS'balls'
p1243
I132
sS'animals'
p1244
I133
sS'this'
p1245
I18
sS'challenge'
p1246
I132
sS'clients'
p1247
I133
sS'sabi'
p1248
I133
sS'thin'
p1249
I133
sS'coffin'
p1250
I130
sS'slid'
p1251
I133
sS'pieces'
p1252
I130
sS'high'
p1253
I108
sS'slip'
p1254
I133
sS'blvd'
p1255
I133
sS'martyr'
p1256
I133
sS'csun'
p1257
I132
sS'think.\xe2\x80\x9d'
p1258
I133
sS'hookin'
p1259
I133
sS'animal'
p1260
I132
sS'kravitz'
p1261
I133
sS'intelligent'
p1262
I133
sS'greatly'
p1263
I133
sS'naiwan'
p1264
I133
sS'tied'
p1265
I133
sS'notebook'
p1266
I133
sS'fits'
p1267
I133
sS'stos'
p1268
I133
sS'tomato'
p1269
I133
sS'realized'
p1270
I129
sS'noises'
p1271
I133
sS'element'
p1272
I133
sS'akala'
p1273
I133
sS'thigh'
p1274
I133
sS'shoes....bitch'
p1275
I133
sS'mute'
p1276
I133
sS'react'
p1277
I133
sS'move'
p1278
I126
sS'vibe\xe2\x80\x9d'
p1279
I133
sS'motorcycle'
p1280
I133
sS'blunts\xe2\x9d\xa4\xef\xb8\x8f\xe2\x9d\xa4\xef\xb8\x8f'
p1281
I133
sS'perfect'
p1282
I116
sS'chosen'
p1283
I133
sS'degrees'
p1284
I131
sS'2018'
p1285
I133
sS'2014'
p1286
I133
sS'2013'
p1287
I133
sS'2012'
p1288
I133
sS'cuss'
p1289
I133
sS'nade'
p1290
I133
sS'bothering'
p1291
I133
sS'kiss'
p1292
I131
sS'*loud'
p1293
I133
sS'cage'
p1294
I133
sS'realize'
p1295
I127
sS'bette'
p1296
I133
sS'sneezed'
p1297
I133
sS'betty'
p1298
I133
sS'truth'
p1299
I125
sS'glasses'
p1300
I132
sS'watery'
p1301
I133
sS'tents'
p1302
I133
sS'doing'
p1303
I112
sS'beautiful\xe2\x80\x9d'
p1304
I132
sS'society'
p1305
I133
sS'books'
p1306
I132
sS'meth'
p1307
I133
sS'tuyo'
p1308
I133
sS'bunches'
p1309
I133
sS'hilarious'
p1310
I127
sS'(that'
p1311
I133
sS'shut'
p1312
I124
sS'yaaayyy'
p1313
I133
sS'ban'
p1314
I133
sS'tempt'
p1315
I133
sS'craving'
p1316
I132
sS'scary'
p1317
I131
sS'plur\xe2\x80\x9d'
p1318
I133
sS'gallons'
p1319
I131
sS'could'
p1320
I102
sS'david'
p1321
I133
sS'bird'
p1322
I132
sS'\xd7\xa9\xd7\x9c\xd7\x95\xd7\x9d'
p1323
I133
sS'myself...without'
p1324
I133
sS'ihy'
p1325
I133
sS'blown'
p1326
I132
sS'scene'
p1327
I130
sS'jesus'
p1328
I129
sS'los'
p1329
I132
sS'system'
p1330
I131
sS'haves'
p1331
I133
sS'gummy'
p1332
I132
sS'stomach'
p1333
I131
sS'kfine'
p1334
I133
sS'depressing'
p1335
I133
sS'accompaniment'
p1336
I133
sS'carmi'
p1337
I132
sS'elite'
p1338
I133
sS'gotchu'
p1339
I133
sS'bother'
p1340
I133
sS"gary's"
p1341
I133
sS'roberts'
p1342
I133
sS'hashtags'
p1343
I133
sS'spelled'
p1344
I133
sS'tonight'
p1345
I108
sS'queeeeennnnnnnnnnnn'
p1346
I133
sS'can\'t"'
p1347
I133
sS'sky'
p1348
I130
sS'clearly'
p1349
I133
sS'lila'
p1350
I133
sS'dishes'
p1351
I133
sS'studying'
p1352
I131
sS'hangover'
p1353
I132
sS'cuatro'
p1354
I133
sS'babes'
p1355
I132
sS'soap'
p1356
I133
sS';-)'
p1357
I129
sS'eyeliner'
p1358
I132
sS'courtesy'
p1359
I133
sS'medal'
p1360
I131
sS'yellow\xe2\x80\x9d'
p1361
I133
sS'fack'
p1362
I133
sS'stronger'
p1363
I133
sS'face'
p1364
I101
sS"you'll"
p1365
I131
sS'wounded'
p1366
I133
sS'painting'
p1367
I132
sS'fact'
p1368
I128
sS'oreos'
p1369
I133
sS'vacancy'
p1370
I133
sS'bring'
p1371
I126
sS'mean"'
p1372
I133
sS'bedroom'
p1373
I132
sS'rough'
p1374
I132
sS'laosuvebd'
p1375
I133
sS'jay'
p1376
I132
sS'jaw'
p1377
I133
sS'jar'
p1378
I132
sS'should'
p1379
I90
sS'buttons'
p1380
I133
sS'jam'
p1381
I133
sS'tape'
p1382
I133
sS'jah'
p1383
I133
sS'riding'
p1384
I133
sS'hope'
p1385
I109
sS'meant'
p1386
I129
sS'handle'
p1387
I131
sS'listened'
p1388
I132
sS'means'
p1389
I130
sS'wanted\xe2\x80\x9d'
p1390
I133
sS'09/14/2014'
p1391
I133
sS'ms-13'
p1392
I133
sS'sinus'
p1393
I133
sS'antagonist'
p1394
I133
sS'smash'
p1395
I132
sS'taxes'
p1396
I133
sS'summon'
p1397
I133
sS'stuff'
p1398
I119
sS'dallas'
p1399
I132
sS'week/weekend'
p1400
I133
sS'guessing'
p1401
I132
sS'crayons'
p1402
I133
sS'edition'
p1403
I133
sS'snapchatting'
p1404
I133
sS'bumabalik'
p1405
I133
sS"creepin'"
p1406
I132
sS'(etc)'
p1407
I133
sS'email'
p1408
I130
sS'ends'
p1409
I132
sS'comebacks'
p1410
I133
sS'rugrats'
p1411
I133
sS'ily\xe2\x9d\xa4\xef\xb8\x8f'
p1412
I132
sS'lawsuit'
p1413
I133
sS'mane\xe2\x80\x9d'
p1414
I133
sS'invited'
p1415
I131
sS'ramp'
p1416
I133
sS'drug'
p1417
I131
sS'etc'
p1418
I132
sS'tutus'
p1419
I133
sS'smilin'
p1420
I133
sS'invites'
p1421
I133
sS'gorgeous'
p1422
I129
sS'co'
p1423
I133
sS'extent'
p1424
I133
sS'cc'
p1425
I133
sS'ca'
p1426
I132
sS'roughed'
p1427
I133
sS'cd'
p1428
I133
sS'incest'
p1429
I133
sS'>:d<'
p1430
I132
sS'ampffff'
p1431
I132
sS'motto'
p1432
I133
sS'drank'
p1433
I133
sS'waste'
p1434
I132
sS'trinity'
p1435
I132
sS'>'
p1436
I131
sS'lgi'
p1437
I133
sS'talagaaaaa'
p1438
I133
sS'muslims'
p1439
I133
sS'ravens'
p1440
I133
sS'snowglobe\xe2\x80\x9d'
p1441
I133
sS'toothless'
p1442
I133
sS'cvm'
p1443
I133
sS'papanindigan'
p1444
I133
sS'hahaha'
p1445
I105
sS'crabbe'
p1446
I133
sS'ombre'
p1447
I132
sS'cmonnnnn'
p1448
I133
sS'hahahahahhaah'
p1449
I133
sS'lust'
p1450
I133
sS'vs'
p1451
I128
sS'bby\xe2\x9d\xa4\xef\xb8\x8f'
p1452
I133
sS'jenner'
p1453
I133
sS'tattoo'
p1454
I128
sS'terrorist'
p1455
I132
sS'tupac'
p1456
I132
sS'kidddding'
p1457
I133
sS'juan'
p1458
I133
sS'verrrry'
p1459
I131
sS'is/was'
p1460
I133
sS'pickin'
p1461
I133
sS'phi'
p1462
I133
sS'ball'
p1463
I131
sS'urls'
p1464
I133
sS'yon'
p1465
I131
sS'wisest'
p1466
I133
sS'upon'
p1467
I132
sS'hahaahahah'
p1468
I133
sS'makasalubong'
p1469
I133
sS'ofc'
p1470
I130
sS'off'
p1471
I86
sS'ofl'
p1472
I132
sS'patterns'
p1473
I133
sS'(also'
p1474
I133
sS'drawing'
p1475
I133
sS'less'
p1476
I127
sS'moments'
p1477
I133
sS'bumbay'
p1478
I133
sS'clocks'
p1479
I132
sS'paul'
p1480
I133
sS'wen'
p1481
I133
sS'cosmetics'
p1482
I133
sS'crack'
p1483
I130
sS'government'
p1484
I133
sS'checking'
p1485
I133
sS'yucked'
p1486
I133
sS'hehehehe'
p1487
I133
sS'nvm'
p1488
I132
sS'pies'
p1489
I133
sS'mhm'
p1490
I133
sS'emma'
p1491
I133
sS'ahhhhhhhhhhh'
p1492
I133
sS'garage'
p1493
I133
sS'emscoble'
p1494
I132
sS'become'
p1495
I128
sS'brekkieeeee'
p1496
I133
sS'zzzzz'
p1497
I133
sS'thief'
p1498
I133
sS'boo:/'
p1499
I133
sS'literally'
p1500
I94
sS'avoid'
p1501
I132
sS'does'
p1502
I111
sS'passion'
p1503
I133
sS'stairway'
p1504
I133
sS'mats."\xe2\x80\x9d'
p1505
I133
sS'schedule'
p1506
I132
sS'pressure'
p1507
I130
sS'hiding'
p1508
I133
sS'gained'
p1509
I132
sS'sister'
p1510
I125
sS'lifestyle'
p1511
I132
sS'dickhole'
p1512
I133
sS"donald's"
p1513
I133
sS'kourtney'
p1514
I133
sS'angeles'
p1515
I132
sS'documentary'
p1516
I133
sS'youuuuuu'
p1517
I133
sS'swimming'
p1518
I133
sS'letters'
p1519
I133
sS'pussy'
p1520
I129
sS'luna'
p1521
I133
sS'tiny'
p1522
I133
sS'joyce'
p1523
I133
sS'mere'
p1524
I133
sS'2k14'
p1525
I133
sS'mawatch'
p1526
I133
sS'brownies'
p1527
I133
sS'mattyyyyyy'
p1528
I133
sS'spots'
p1529
I133
sS'peters'
p1530
I132
sS'yrs'
p1531
I132
sS'nawwwww'
p1532
I133
sS'bagged'
p1533
I133
sS'hanggang'
p1534
I133
sS'radrik'
p1535
I133
sS'delivery'
p1536
I133
sS'sat\xe2\x98\xba\xef\xb8\x8f\xe2\x98\xba\xef\xb8\x8f\xe2\x98\xba\xef\xb8\x8f'
p1537
I133
sS'delivers'
p1538
I133
sS'daaaaay'
p1539
I133
sS'count'
p1540
I131
sS'baptist'
p1541
I133
sS'places'
p1542
I131
sS'ahahahha'
p1543
I133
sS'official'
p1544
I130
sS'\xc2\xa9'
p1545
I133
sS'excitement'
p1546
I132
sS'placed'
p1547
I133
sS'"ducking"'
p1548
I133
sS'convince'
p1549
I131
sS'idol'
p1550
I131
sS'problem'
p1551
I132
sS'irish'
p1552
I132
sS'recognize'
p1553
I133
sS'$30'
p1554
I133
sS'ink'
p1555
I133
sS'nastiest/coolest'
p1556
I133
sS'ing'
p1557
I133
sS'jesse'
p1558
I133
sS'diggy'
p1559
I133
sS'trials'
p1560
I133
sS'lately'
p1561
I130
sS'happiest'
p1562
I133
sS'chubs'
p1563
I133
sS'*3am'
p1564
I133
sS'illusion'
p1565
I133
sS'francisco'
p1566
I133
sS'lakers-spurs'
p1567
I133
sS'monday'
p1568
I123
sS'soccer>'
p1569
I133
sS'annabelle'
p1570
I133
sS'chance'
p1571
I126
sS'mwahhhhh'
p1572
I133
sS'badass'
p1573
I133
sS'dolphins'
p1574
I133
sS'ghost'
p1575
I133
sS'yeaah'
p1576
I133
sS'suicidal'
p1577
I133
sS'child'
p1578
I128
sS'desirable'
p1579
I132
sS'yikes'
p1580
I133
sS'hahahahahahhaa'
p1581
I133
sS'integrity'
p1582
I132
sS'relationships'
p1583
I133
sS'reaaaaallly'
p1584
I133
sS'porno'
p1585
I133
sS'afterparty'
p1586
I133
sS'aaron\xe2\x80\x9d'
p1587
I132
sS'on-point'
p1588
I133
sS'bike'
p1589
I133
sS'booties'
p1590
I133
sS'worth'
p1591
I127
sS'jacob'
p1592
I133
sS'ehehehe'
p1593
I132
sS'tickets'
p1594
I128
sS"we'll"
p1595
I129
sS'pacsun'
p1596
I133
sS'bahahahahahahah'
p1597
I133
sS'humidity'
p1598
I133
sS'samurai'
p1599
I133
sS'nigger'
p1600
I133
sS'announced'
p1601
I133
sS"yesterday's"
p1602
I133
sS'reaaal'
p1603
I133
sS'phones'
p1604
I133
sS'----->'
p1605
I133
sS'preacher'
p1606
I133
sS'7th'
p1607
I133
sS'kayoooo'
p1608
I133
sS'+'
p1609
I132
sS'bipolar'
p1610
I132
sS'above'
p1611
I133
sS'leviosa'
p1612
I133
sS'sunset-set-set-set'
p1613
I133
sS'officially'
p1614
I127
sS'told'
p1615
I113
sS'simultaneously'
p1616
I133
sS'post-sex'
p1617
I133
sS'saticoy'
p1618
I133
sS'stalkerrrrrr'
p1619
I133
sS'celebration'
p1620
I132
sS'daughter'
p1621
I130
sS'study'
p1622
I131
sS'foolishness'
p1623
I133
sS'adopt'
p1624
I133
sS'itunes'
p1625
I133
sS'ako'
p1626
I113
sS'smoke'
p1627
I130
sS'stressed'
p1628
I133
sS'lonesome'
p1629
I133
sS'aka'
p1630
I130
sS'spooky'
p1631
I133
sS'mainggit'
p1632
I133
sS'highly'
p1633
I133
sS'bro'
p1634
I126
sS'insta'
p1635
I132
sS'total'
p1636
I133
sS'plot'
p1637
I133
sS'a_____"\xe2\x80\x9d'
p1638
I133
sS'sweater'
p1639
I133
sS'gloss'
p1640
I133
sS'negative'
p1641
I132
sS'sarap'
p1642
I132
sS'is'
p1643
I9
sS'haha'
p1644
I102
sS'hehe'
p1645
I127
sS'pierced'
p1646
I133
sS'defeated'
p1647
I133
sS'bunnies'
p1648
I132
sS'word'
p1649
I126
sS'shame'
p1650
I133
sS'work'
p1651
I68
sS'ik'
p1652
I129
sS'theories'
p1653
I133
sS'snapchats'
p1654
I124
sS'cuddle'
p1655
I129
sS'era'
p1656
I133
sS'"love'
p1657
I133
sS'veggies'
p1658
I133
sS'yaaaay'
p1659
I133
sS'provide'
p1660
I133
sS'nuts'
p1661
I129
sS'hihihi'
p1662
I127
sS'ig'
p1663
I128
sS'moron'
p1664
I133
sS'disappoint'
p1665
I133
sS'beach'
p1666
I126
sS'pizza'
p1667
I132
sS'konting'
p1668
I133
sS'bday'
p1669
I122
sS'after'
p1670
I99
sS'lab'
p1671
I133
sS'lay'
p1672
I129
sS'las'
p1673
I133
sS'oblation'
p1674
I133
sS'chillen'
p1675
I133
sS'appreciate'
p1676
I132
sS'greet'
p1677
I132
sS'green'
p1678
I130
sS'fan'
p1679
I127
sS'order'
p1680
I127
sS'lindsay'
p1681
I133
sS'office'
p1682
I132
sS'zee'
p1683
I133
sS'satisfied'
p1684
I133
sS'migos'
p1685
I129
sS'guyyys'
p1686
I133
sS':-//'
p1687
I130
sS'dapper'
p1688
I130
sS'bombing'
p1689
I133
sS'venti'
p1690
I133
sS'somewhere'
p1691
I126
sS'denver'
p1692
I133
sS'then'
p1693
I87
sS'them'
p1694
I79
sS'affected'
p1695
I132
sS'wow\xe2\x98\xba\xef\xb8\x8f\xe2\x9d\xa4\xef\xb8\x8f'
p1696
I133
sS'safe'
p1697
I126
sS'break'
p1698
I128
sS'band'
p1699
I130
sS'bang'
p1700
I133
sS'bana'
p1701
I133
sS'they'
p1702
I56
sS'soothing'
p1703
I133
sS'bank'
p1704
I132
sS'rocky'
p1705
I133
sS'hahhaahahha'
p1706
I133
sS'l'
p1707
I132
sS'feeds'
p1708
I133
sS'nooooooooooo'
p1709
I133
sS'carlos'
p1710
I133
sS'asdfghjjkl'
p1711
I133
sS'flock'
p1712
I133
sS'monteith'
p1713
I132
sS'um..."swooning"'
p1714
I133
sS'cameras'
p1715
I133
sS'diesel'
p1716
I133
sS'daniel'
p1717
I133
sS'show"more'
p1718
I133
sS'forth'
p1719
I133
sS'"even"'
p1720
I133
sS"people's"
p1721
I132
sS'certified'
p1722
I133
sS'drench'
p1723
I133
sS'dammit'
p1724
I130
sS'created'
p1725
I131
sS'hahahahhahaha'
p1726
I133
sS'oppose'
p1727
I133
sS'whatta'
p1728
I133
sS'margaritas>>>>>>>>'
p1729
I133
sS'raheem'
p1730
I132
sS'another'
p1731
I114
sS'comin'
p1732
I133
sS'nah"'
p1733
I133
sS'madilim'
p1734
I133
sS'2050'
p1735
I133
sS'rated'
p1736
I133
sS'dogg'
p1737
I133
sS'dumbass'
p1738
I132
sS'john'
p1739
I132
sS'dogs'
p1740
I128
sS'nahs'
p1741
I133
sS'cereal'
p1742
I133
sS'wasted'
p1743
I131
sS'bebe'
p1744
I130
sS'hike'
p1745
I132
sS'ebay'
p1746
I133
sS'powers'
p1747
I133
sS'minus'
p1748
I132
sS'manner'
p1749
I133
sS'forced'
p1750
I133
sS'genuine'
p1751
I132
sS'dequan'
p1752
I133
sS'boyfriend"'
p1753
I133
sS'boyfriend&'
p1754
I133
sS'twitter....my'
p1755
I133
sS'circles'
p1756
I133
sS'blessedddddd'
p1757
I133
sS'distracts'
p1758
I133
sS'involving'
p1759
I133
sS'moontribe'
p1760
I133
sS'shye'
p1761
I133
sS'noooott"'
p1762
I133
sS'missed'
p1763
I126
sS'aunt'
p1764
I133
sS'grandpa'
p1765
I132
sS'boyfriends'
p1766
I132
sS'sum'
p1767
I133
sS'fitted'
p1768
I133
sS'juss'
p1769
I133
sS'sharks'
p1770
I133
sS'just'
p1771
I20
sS'yaaasss'
p1772
I133
sS'hrs'
p1773
I132
sS"'back'"
p1774
I133
sS'unfollow'
p1775
I132
sS'personality'
p1776
I131
sS'magkakakilala'
p1777
I133
sS'do'
p1778
I34
sS'dl'
p1779
I122
sS'dm'
p1780
I132
sS'di'
p1781
I118
sS'de'
p1782
I130
sS'db'
p1783
I133
sS'da'
p1784
I132
sS'nasty'
p1785
I129
sS'du'
p1786
I132
sS'dp'
p1787
I133
sS'peyton'
p1788
I133
sS'runs'
p1789
I132
sS'emo'
p1790
I133
sS'ahhhhhhh'
p1791
I133
sS'pwetssss'
p1792
I133
sS'emt'
p1793
I133
sS'3:07'
p1794
I132
sS'steal'
p1795
I132
sS'erewhon'
p1796
I130
sS'reread'
p1797
I133
sS'w/'
p1798
I133
sS'depends'
p1799
I133
sS'miserable'
p1800
I132
sS'annabelle\xe2\x80\x9d'
p1801
I132
sS'away'
p1802
I119
sS'unable'
p1803
I133
sS'props'
p1804
I133
sS'misguided'
p1805
I133
sS'we'
p1806
I39
sS'korea'
p1807
I133
sS'gunaaayt'
p1808
I133
sS'kitchen'
p1809
I132
sS'tfti'
p1810
I131
sS'complainin'
p1811
I133
sS'brat'
p1812
I133
sS'ill'
p1813
I132
sS'ncaa'
p1814
I133
sS'friday\xe2\x80\x9d'
p1815
I133
sS'pinas'
p1816
I133
sS'coo'
p1817
I127
sS'ily'
p1818
I121
sS'tough'
p1819
I133
sS'tons'
p1820
I132
sS'tony'
p1821
I133
sS'yasss\xe2\x80\x9dwhy'
p1822
I133
sS'speak'
p1823
I133
sS'pauwi'
p1824
I132
sS'sleepover'
p1825
I133
sS'easy'
p1826
I124
sS'relaxing'
p1827
I131
sS'excite'
p1828
I133
sS'fest'
p1829
I133
sS'higit'
p1830
I133
sS'-______-idk'
p1831
I133
sS'clairvoyant'
p1832
I133
sS'air'
p1833
I132
sS'voice'
p1834
I127
sS'loooove'
p1835
I133
sS'beetles'
p1836
I133
sS'thursdays'
p1837
I133
sS'skipping'
p1838
I132
sS'totoo'
p1839
I132
sS"girls'"
p1840
I133
sS'confirmed'
p1841
I133
sS'perform'
p1842
I133
sS'apparently'
p1843
I131
sS':(('
p1844
I131
sS'puttin'
p1845
I132
sS'arent'
p1846
I133
sS'wheel'
p1847
I133
sS'raid'
p1848
I133
sS'pube'
p1849
I133
sS'alittle'
p1850
I133
sS'(trilogy)'
p1851
I133
sS'evil'
p1852
I130
sS'hand'
p1853
I133
sS'lol\xe2\x80\x9d'
p1854
I133
sS'kept'
p1855
I133
sS'soak'
p1856
I133
sS'scenario'
p1857
I133
sS'thx'
p1858
I129
sS'oohhh'
p1859
I133
sS'tho'
p1860
I110
sS'contact'
p1861
I132
sS'humbly'
p1862
I133
sS'world!"'
p1863
I133
sS'musical'
p1864
I132
sS'tha'
p1865
I131
sS'she\xe2\x80\x99s'
p1866
I133
sS'kala'
p1867
I132
sS"she'll"
p1868
I131
sS'hahahha'
p1869
I132
sS'quotes'
p1870
I133
sS'thanks'
p1871
I83
sS'victim'
p1872
I132
sS'adding'
p1873
I133
sS'hills'
p1874
I131
sS'josh'
p1875
I132
sS'shout'
p1876
I133
sS'belongs'
p1877
I132
sS'transformed'
p1878
I133
sS'board'
p1879
I133
sS'araw'
p1880
I133
sS'tarzan'
p1881
I133
sS'picasso'
p1882
I133
sS'never\xe2\x80\x9d'
p1883
I132
sS'cooler'
p1884
I133
sS'night'
p1885
I75
sS'security'
p1886
I132
sS'honored'
p1887
I132
sS'lashes'
p1888
I133
sS'sends'
p1889
I130
sS'&said'
p1890
I133
sS'idgaf'
p1891
I130
sS'born'
p1892
I133
sS'everyday\xe2\x80\x9d'
p1893
I133
sS'confusing'
p1894
I133
sS'nagsabing'
p1895
I133
sS'/'
p1896
I132
sS'asking'
p1897
I127
sS'beating'
p1898
I133
sS'adorable'
p1899
I132
sS'cockiest'
p1900
I133
sS'pls'
p1901
I127
sS'peel'
p1902
I133
sS'plz'
p1903
I131
sS'peer'
p1904
I133
sS'post'
p1905
I128
sS'lightheaded'
p1906
I133
sS'months'
p1907
I130
sS'kumatok'
p1908
I133
sS'wasting'
p1909
I133
sS'pays'
p1910
I132
sS'float'
p1911
I133
sS'bound'
p1912
I132
sS'(when'
p1913
I133
sS'ahahah'
p1914
I128
sS'shhhh'
p1915
I133
sS'wag'
p1916
I129
sS'fight'
p1917
I129
sS'accordingly'
p1918
I133
sS'way'
p1919
I85
sS'kasing'
p1920
I133
sS'was'
p1921
I27
sS'war'
p1922
I133
sS'becoming'
p1923
I131
sS'needles'
p1924
I133
sS'true'
p1925
I124
sS'aghhhhh'
p1926
I133
sS'isis'
p1927
I133
sS'(cc'
p1928
I133
sS'r.i.p'
p1929
I133
sS'emotional'
p1930
I132
sS'promises'
p1931
I132
sS'cry\xe2\x80\xa6'
p1932
I133
sS'reality'
p1933
I133
sS'interested'
p1934
I131
sS'holding'
p1935
I132
sS'"when'
p1936
I132
sS'test'
p1937
I125
sS'scored'
p1938
I133
sS'brothers'
p1939
I133
sS'helps'
p1940
I133
sS'welcome'
p1941
I131
sS'update'
p1942
I131
sS"let's"
p1943
I121
sS'juicee'
p1944
I133
sS'together'
p1945
I120
sS'loyal'
p1946
I133
sS'lineup'
p1947
I133
sS'songs'
p1948
I127
sS'mag-eatsumo'
p1949
I133
sS'vampires'
p1950
I133
sS'switched'
p1951
I133
sS'dance'
p1952
I120
sS'lannister'
p1953
I133
sS'grateful'
p1954
I133
sS'battle'
p1955
I132
sS'zone'
p1956
I133
sS'flash'
p1957
I133
sS'breesus'
p1958
I133
sS'shmoney'
p1959
I133
sS'brown'
p1960
I132
sS'3am'
p1961
I133
sS'\xe2\x9a\xbe\xef\xb8\x8f'
p1962
I133
sS'vegan'
p1963
I132
sS'kitteh'
p1964
I133
sS'vegas'
p1965
I130
sS'trouble'
p1966
I132
sS'blast'
p1967
I132
sS'turns'
p1968
I131
sS'gun'
p1969
I133
sS'p'
p1970
I132
sS'soooo'
p1971
I129
sS'guy'
p1972
I112
sS'"i\'ll'
p1973
I133
sS'upper'
p1974
I133
sS'brave'
p1975
I132
sS'regret'
p1976
I131
sS'abahahah'
p1977
I133
sS'cost'
p1978
I133
sS'dapat'
p1979
I133
sS'curse'
p1980
I132
sS'assistance'
p1981
I133
sS'uniform'
p1982
I132
sS'=))'
p1983
I128
sS'explosion'
p1984
I133
sS'6?airplane'
p1985
I133
sS'happened.\xe2\x80\x9d'
p1986
I133
sS'muslim'
p1987
I133
sS'downloaded'
p1988
I133
sS'coloring'
p1989
I132
sS'teaches'
p1990
I133
sS'change'
p1991
I128
sS'sending'
p1992
I131
sS'condoms'
p1993
I133
sS'lakers'
p1994
I133
sS'usually'
p1995
I131
sS'pillow'
p1996
I133
sS'homecoming'
p1997
I133
sS'regardless'
p1998
I133
sS'extra'
p1999
I129
sS'eggs\xe2\x80\xa6glad'
p2000
I133
sS'(9-4)'
p2001
I133
sS'muerta"'
p2002
I133
sS'flavors'
p2003
I132
sS"bieber's"
p2004
I132
sS'prove'
p2005
I133
sS'live'
p2006
I123
sS'wonderfully'
p2007
I133
sS'cuter'
p2008
I133
sS'angels'
p2009
I132
sS'club'
p2010
I130
sS'clue'
p2011
I131
sS'niggas'
p2012
I126
sS'indescribable'
p2013
I133
sS'car'
p2014
I112
sS'cap'
p2015
I133
sS'payin'
p2016
I133
sS'cat'
p2017
I131
sS'purge'
p2018
I130
sS'can'
p2019
I47
sS'cal'
p2020
I133
sS'niggah'
p2021
I133
sS'heart'
p2022
I117
sS'dedicated'
p2023
I133
sS'december'
p2024
I133
sS"didn't"
p2025
I110
sS'heard'
p2026
I124
sS'chin'
p2027
I133
sS'"night'
p2028
I133
sS'spa'
p2029
I133
sS'productive'
p2030
I133
sS'write'
p2031
I130
sS'\xe2\x9d\xa4\xef\xb8\x8fthis'
p2032
I133
sS'familiar'
p2033
I132
sS'nonstop'
p2034
I133
sS'rotweiler'
p2035
I133
sS'sacrifice'
p2036
I133
sS'southern'
p2037
I133
sS'lucky'
p2038
I127
sS'yabang'
p2039
I133
sS'\xd8\xa7\xd8\xb1\xd8\xac\xd8\xb9'
p2040
I133
sS'pave'
p2041
I133
sS'commit'
p2042
I133
sS'seaon'
p2043
I133
sS'goal'
p2044
I129
sS'remember'
p2045
I121
sS'whenever'
p2046
I129
sS'futures'
p2047
I133
sS'holyyyyy'
p2048
I133
sS'tagged'
p2049
I132
sS'serving'
p2050
I133
sS'haircut'
p2051
I132
sS'ended'
p2052
I130
sS'cold'
p2053
I126
sS'still'
p2054
I70
sS'birds'
p2055
I133
sS'either.\xe2\x80\x9d'
p2056
I133
sS'birthdays'
p2057
I131
sS'window'
p2058
I133
sS'spacious'
p2059
I133
sS'tiara'
p2060
I131
sS'halp'
p2061
I132
sS'half'
p2062
I130
sS'not'
p2063
I43
sS'now'
p2064
I39
sS'hall'
p2065
I132
sS'nor'
p2066
I133
sS'wont'
p2067
I133
sS'ruuuuuuun'
p2068
I133
sS'james'
p2069
I120
sS'drop'
p2070
I129
sS'entirely'
p2071
I133
sS'em'
p2072
I127
sS'el'
p2073
I129
sS'eo'
p2074
I133
sS'en'
p2075
I133
sS'fired'
p2076
I132
sS"another's"
p2077
I133
sS'challenged'
p2078
I133
sS'ed'
p2079
I133
sS'wechaaaat'
p2080
I133
sS'kane'
p2081
I133
sS'yeah'
p2082
I116
sS'ex'
p2083
I131
sS'year'
p2084
I95
sS'ew'
p2085
I131
sS'calling'
p2086
I132
sS'album'
p2087
I130
sS'space'
p2088
I132
sS'thirst'
p2089
I131
sS'looking'
p2090
I120
sS'shows'
p2091
I133
sS'cars'
p2092
I131
sS'pambawi'
p2093
I133
sS'kaage'
p2094
I133
sS'existentialist'
p2095
I133
sS'sorryyyyyy'
p2096
I133
sS'rebel'
p2097
I133
sS'cara'
p2098
I133
sS'card'
p2099
I133
sS'care'
p2100
I118
sS'christmakah('
p2101
I133
sS'tangled'
p2102
I130
sS'yaaa'
p2103
I133
sS'blind'
p2104
I133
sS'strahan'
p2105
I133
sS'toeing'
p2106
I133
sS'yourself'
p2107
I125
sS'knowwwwww'
p2108
I133
sS'message'
p2109
I131
sS'tomorrow'
p2110
I84
sS'size'
p2111
I133
sS'caught'
p2112
I127
sS'brees'
p2113
I132
sS'friend'
p2114
I105
sS'nutrition'
p2115
I133
sS'expounding'
p2116
I133
sS'thaw'
p2117
I133
sS'mostly'
p2118
I128
sS'that'
p2119
I16
sS'thai'
p2120
I133
sS'flowers'
p2121
I132
sS'appreciated'
p2122
I133
sS'professionals'
p2123
I133
sS'hessians'
p2124
I133
sS'condoms\xe2\x80\x9d'
p2125
I133
sS'cloudmybiz'
p2126
I133
sS'angel'
p2127
I132
sS'hills\xe2\x80\x9d'
p2128
I133
sS'craig'
p2129
I132
sS'(and'
p2130
I130
sS'slam'
p2131
I133
sS'anger'
p2132
I133
sS'breakfast'
p2133
I130
sS'stoners'
p2134
I133
sS'wcw'
p2135
I132
sS'sorry.\xe2\x80\x9d'
p2136
I133
sS'there\xe2\x80\x99s'
p2137
I133
sS'nyebera'
p2138
I133
sS'hookah'
p2139
I132
sS'man.\xe2\x80\x9d'
p2140
I133
sS'online'
p2141
I131
sS'bitching'
p2142
I133
sS'begin'
p2143
I132
sS'youur='
p2144
I133
sS'pennsatuckey'
p2145
I133
sS'destiny'
p2146
I132
sS'forever'
p2147
I118
sS'steady'
p2148
I133
sS'sunset'
p2149
I131
sS'professional'
p2150
I130
sS'german'
p2151
I133
sS'ahahahaah'
p2152
I133
sS'fifty'
p2153
I129
sS'realizing'
p2154
I133
sS'aint'
p2155
I133
sS'nemesis'
p2156
I133
sS'ratio'
p2157
I133
sS'saints'
p2158
I132
sS'tosh.o'
p2159
I133
sS'only'
p2160
I83
sS'cannot'
p2161
I129
sS'wahlberg'
p2162
I133
sS'reelz'
p2163
I133
sS'husband'
p2164
I131
sS'concert'
p2165
I124
sS'"come'
p2166
I133
sS'bounds'
p2167
I133
sS'famine'
p2168
I133
sS'actively'
p2169
I133
sS'asleep'
p2170
I122
sS'hoes'
p2171
I128
sS'sport'
p2172
I133
sS'loudspeaker'
p2173
I133
sS'ofmg'
p2174
I133
sS'thurs'
p2175
I133
sS'goddd'
p2176
I133
sS'3'
p2177
I122
sS'estas'
p2178
I133
sS'between'
p2179
I128
sS'fascinates'
p2180
I133
sS'omfggg'
p2181
I133
sS'hurts'
p2182
I131
sS'comeback'
p2183
I133
sS'talented'
p2184
I133
sS'hhaha'
p2185
I133
sS'gym-ed'
p2186
I133
sS'comes'
p2187
I126
sS'150'
p2188
I133
sS'jeans'
p2189
I133
sS'oxnard'
p2190
I133
sS'learning'
p2191
I132
sS'\xd8\xa7\xd9\x84\xd8\xb4\xd9\x88\xd9\x82'
p2192
I133
sS'\xe2\x80\x9cattendance'
p2193
I133
sS'cares'
p2194
I131
sS'reenacting'
p2195
I133
sS'-because'
p2196
I133
sS'cared'
p2197
I133
sS'gutom'
p2198
I133
sS'blenders'
p2199
I133
sS'punished'
p2200
I133
sS'seasooooon'
p2201
I133
sS'sked'
p2202
I132
sS'1030'
p2203
I133
sS'aero'
p2204
I131
sS'figured'
p2205
I132
sS'these'
p2206
I109
sS'handicapped'
p2207
I133
sS'joke'
p2208
I121
sS'fool'
p2209
I131
sS'"yaaaassas!!"'
p2210
I133
sS'bias'
p2211
I132
sS'embrace'
p2212
I133
sS'somebody'
p2213
I121
sS'petunia'
p2214
I133
sS'worry'
p2215
I130
sS'media'
p2216
I133
sS'natanggap'
p2217
I133
sS'ya'
p2218
I88
sS'followers'
p2219
I133
sS'coworkers'
p2220
I131
sS'morticia'
p2221
I133
sS'finish'
p2222
I131
sS'10pm\xe2\x80\x9d'
p2223
I133
sS'fruit'
p2224
I132
sS'favorites'
p2225
I132
sS'tradition'
p2226
I133
sS'\xe2\x9c\x8c\xef\xb8\x8f'
p2227
I132
sS'charger'
p2228
I133
sS'hahahahahaha'
p2229
I125
sS'mad\xe2\x80\x9d'
p2230
I133
sS'ccc'
p2231
I133
sS"you've"
p2232
I131
sS'noam'
p2233
I132
sS'cheek...so'
p2234
I133
sS'battleship'
p2235
I133
sS'neon'
p2236
I133
sS'kit\xe2\x98\xba\xef\xb8\x8f'
p2237
I133
sS'speed'
p2238
I132
sS'death'
p2239
I131
sS'legitimately'
p2240
I132
sS'thinking'
p2241
I129
sS'versa'
p2242
I133
sS'struck'
p2243
I132
sS'real'
p2244
I106
sS'read'
p2245
I124
sS'amc'
p2246
I133
sS'gonna'
p2247
I63
sS'wehhhhh'
p2248
I133
sS'early'
p2249
I124
sS'listening'
p2250
I128
sS'using'
p2251
I129
sS'dito'
p2252
I124
sS'execution'
p2253
I133
sS'lady'
p2254
I129
sS'whatchu'
p2255
I133
sS'pounds'
p2256
I131
sS'is:no'
p2257
I133
sS'day."so'
p2258
I133
sS't'
p2259
I128
sS'tooooooo'
p2260
I133
sS'molehills'
p2261
I133
sS'hehehehehehe'
p2262
I133
sS'ewww'
p2263
I133
sS'eddie'
p2264
I131
sS'bless'
p2265
I129
sS'willie'
p2266
I131
sS'business'
p2267
I124
sS'asap'
p2268
I129
sS'bilis'
p2269
I133
sS'equivalent'
p2270
I133
sS'innocence'
p2271
I133
sS'exciting'
p2272
I133
sS'throw'
p2273
I124
sS'central'
p2274
I132
sS'journey'
p2275
I133
sS"isn't"
p2276
I125
sS'soundin'
p2277
I133
sS'vball'
p2278
I133
sS'bye\xe2\x9c\x8c\xef\xb8\x8f'
p2279
I133
sS'snapchat'
p2280
I105
sS'poly'
p2281
I133
sS'youu'
p2282
I131
sS'your'
p2283
I45
sS'intervention'
p2284
I133
sS'area'
p2285
I130
sS'lol'
p2286
I53
sS'start'
p2287
I100
sS'low'
p2288
I133
sS'lot'
p2289
I116
sS'twitterbombing'
p2290
I133
sS'uncalled'
p2291
I133
sS'petty'
p2292
I133
sS'you"'
p2293
I132
sS'trying'
p2294
I107
sS'bucket'
p2295
I132
sS'tellin'
p2296
I133
sS'sadness'
p2297
I132
sS'miguel'
p2298
I133
sS'&to'
p2299
I133
sS'moved'
p2300
I133
sS'moves'
p2301
I133
sS'innings'
p2302
I132
sS'oovooooooo-ed'
p2303
I133
sS'event'
p2304
I131
sS'you'
p2305
I7
sS'forcing'
p2306
I132
sS"tonight's"
p2307
I133
sS'poor'
p2308
I127
sS'aneurism'
p2309
I133
sS'diaries'
p2310
I132
sS"ella's"
p2311
I133
sS'dornan'
p2312
I133
sS'pool'
p2313
I126
sS'building'
p2314
I129
sS'fangirling'
p2315
I133
sS'vines'
p2316
I133
sS'balls"\xe2\x80\x9d'
p2317
I133
sS'noooooooooo'
p2318
I133
sS'tomorrows'
p2319
I133
sS'ceases'
p2320
I133
sS'month'
p2321
I127
sS'dymonds'
p2322
I133
sS'"luke."'
p2323
I133
sS'tupee"'
p2324
I133
sS"'so"
p2325
I133
sS'krispy'
p2326
I133
sS'very'
p2327
I121
sS'horror'
p2328
I131
sS'tasmans'
p2329
I133
sS'decide'
p2330
I132
sS'securely'
p2331
I133
sS'milf'
p2332
I133
sS'heaven'
p2333
I128
sS'agad'
p2334
I133
sS'strudels'
p2335
I133
sS'yrzzzz'
p2336
I133
sS"i'll"
p2337
I107
sS'ass'
p2338
I103
sS'cookies'
p2339
I133
sS'instagram'
p2340
I125
sS'streets'
p2341
I133
sS'darkness'
p2342
I133
sS'nana'
p2343
I133
sS'emotions'
p2344
I132
sS'jedi'
p2345
I132
sS'apologized'
p2346
I133
sS'learned'
p2347
I133
sS'deborah'
p2348
I132
sS'turmoil'
p2349
I133
sS'loose'
p2350
I133
sS'answers'
p2351
I133
sS'forgive'
p2352
I133
sS'depend'
p2353
I133
sS'strong'
p2354
I128
sS'ahead'
p2355
I129
sS'auntie_jessie'
p2356
I132
sS'inspired'
p2357
I133
sS'creepy'
p2358
I133
sS'amount'
p2359
I127
sS'advertising'
p2360
I133
sS'inspires'
p2361
I131
sS'trainer'
p2362
I133
sS'tuwa'
p2363
I133
sS'family'
p2364
I122
sS'ask'
p2365
I116
sS'aimee'
p2366
I133
sS'toys'
p2367
I132
sS'pang-gay'
p2368
I133
sS'lasing'
p2369
I133
sS'contains'
p2370
I133
sS'taken'
p2371
I132
sS'cookin'
p2372
I133
sS'yuck'
p2373
I132
sS'feel.\xe2\x80\x9d'
p2374
I133
sS'excuse'
p2375
I133
sS'remixed'
p2376
I133
sS'broke'
p2377
I132
sS'hurry'
p2378
I133
sS'grill'
p2379
I132
sS'sheeeet'
p2380
I133
sS'offended'
p2381
I132
sS'hermione'
p2382
I133
sS'history'
p2383
I131
sS'stackin'
p2384
I133
sS'boycott'
p2385
I133
sS'actor/actresses'
p2386
I133
sS'downloading'
p2387
I133
sS'monthsary'
p2388
I133
sS'phrase'
p2389
I130
sS'firmly'
p2390
I133
sS'caption'
p2391
I132
sS'stayed'
p2392
I131
sS'reject'
p2393
I133
sS'ayyyyy'
p2394
I133
sS'anywaaay'
p2395
I133
sS'fr'
p2396
I132
sS'tried'
p2397
I125
sS'rude'
p2398
I130
sS'sneak'
p2399
I133
sS'tries'
p2400
I133
sS'fc'
p2401
I133
sS'gardeners'
p2402
I133
sS'gasp'
p2403
I133
sS'fl'
p2404
I133
sS'a'
p2405
I6
sS'doritos'
p2406
I133
sS'overnight'
p2407
I133
sS'anytime'
p2408
I131
sS'ego'
p2409
I128
sS'scaring'
p2410
I133
sS'banks'
p2411
I133
sS'dream'
p2412
I118
sS'up\xe2\x80\x9d'
p2413
I132
sS'chicks'
p2414
I133
sS'gaaaaahhhh'
p2415
I133
sS'help'
p2416
I105
sS'sooo'
p2417
I124
sS'soon'
p2418
I124
sS'hell'
p2419
I110
sS'mcdonalds'
p2420
I133
sS'exact'
p2421
I133
sS'singing/dancing'
p2422
I133
sS'actually'
p2423
I97
sS'>>>'
p2424
I130
sS'absence'
p2425
I133
sS'systems'
p2426
I133
sS'radical'
p2427
I133
sS'cutie'
p2428
I127
sS'ewwwww'
p2429
I133
sS"haven't"
p2430
I120
sS'yi'
p2431
I132
sS'evening'
p2432
I132
sS'yo'
p2433
I111
sS'food'
p2434
I117
sS'peeing'
p2435
I133
sS'vomit'
p2436
I133
sS'starbucks'
p2437
I132
sS'foot'
p2438
I132
sS'ninja'
p2439
I132
sS'erection'
p2440
I133
sS'ifs'
p2441
I133
sS'fairs'
p2442
I133
sS'stopped'
p2443
I132
sS'trailer'
p2444
I129
sS'stupidness'
p2445
I133
sS'hehe\xe2\x98\xba\xef\xb8\x8f'
p2446
I133
sS'wacka'
p2447
I133
sS'beyond'
p2448
I131
sS'butthurt'
p2449
I132
sS'anarchy'
p2450
I132
sS'meannnnns'
p2451
I133
sS'*does'
p2452
I133
sS'juniors'
p2453
I133
sS'auntie_keepstakingnaps_jessie'
p2454
I133
sS'since'
p2455
I120
sS'meditating'
p2456
I133
sS'jolly'
p2457
I132
sS'dominated'
p2458
I133
sS'7'
p2459
I131
sS'issue'
p2460
I133
sS'navidad'
p2461
I133
sS'pun'
p2462
I133
sS'drink'
p2463
I129
sS'bass'
p2464
I133
sS'timeline'
p2465
I133
sS'kinocorrect'
p2466
I133
sS'labo'
p2467
I133
sS'reason'
p2468
I121
sS'put'
p2469
I116
sS'ash'
p2470
I128
sS'finallyyyyy'
p2471
I133
sS'launch'
p2472
I133
sS'terrible'
p2473
I129
sS'cheering'
p2474
I133
sS'american'
p2475
I131
sS'diffuser'
p2476
I133
sS'kung'
p2477
I133
sS'blush'
p2478
I133
sS'virgin'
p2479
I133
sS'dequans'
p2480
I133
sS'\xc2\xaf\\_(\xe3\x83\x84)_/\xc2\xaf'
p2481
I133
sS'knocking'
p2482
I133
sS'fucked'
p2483
I127
sS':">'
p2484
I130
sS'kapal'
p2485
I133
sS'miss'
p2486
I71
sS'maple'
p2487
I133
sS'station'
p2488
I133
sS'banana'
p2489
I133
sS'selling'
p2490
I132
sS'undies'
p2491
I133
sS'trapped'
p2492
I131
sS'jamie'
p2493
I132
sS'jordan'
p2494
I133
sS'boredom'
p2495
I133
sS'cute\xe2\x80\x9d'
p2496
I133
sS'grocery'
p2497
I132
sS'grew'
p2498
I133
sS'grey'
p2499
I125
sS'pipiliin'
p2500
I133
sS'recovered'
p2501
I133
sS'nuthin'
p2502
I132
sS'mickey'
p2503
I129
sS'deciding'
p2504
I132
sS'wasnt'
p2505
I132
sS'randomly'
p2506
I131
sS'juice'
p2507
I127
sS'null'
p2508
I133
sS'organs'
p2509
I133
sS'lie'
p2510
I127
sS'u.s'
p2511
I131
sS'lil'
p2512
I128
sS'cave'
p2513
I133
sS'labour'
p2514
I133
sS'lip'
p2515
I132
sS'quote'
p2516
I131
sS'promiscuous'
p2517
I133
sS'arellano'
p2518
I133
sS'yewww'
p2519
I133
sS'eaten'
p2520
I133
sS'possible'
p2521
I133
sS'alpha'
p2522
I133
sS'kay'
p2523
I132
sS'fvcking'
p2524
I133
sS'nagpapasaya'
p2525
I133
sS'yasiel'
p2526
I133
sS'clean'
p2527
I133
sS'\xe2\x98\x80\xef\xb8\x8f'
p2528
I130
sS'boozy'
p2529
I130
sS'hyped'
p2530
I133
sS'zobhir'
p2531
I133
sS'makapagpalipat'
p2532
I133
sS'pretty'
p2533
I102
sS'circle'
p2534
I128
sS'natin'
p2535
I133
sS"ron's"
p2536
I133
sS'famous'
p2537
I131
sS'feels'
p2538
I122
sS'basement'
p2539
I133
sS'during'
p2540
I118
sS'fluff'
p2541
I133
sS'erbody'
p2542
I133
sS'frickin'
p2543
I133
sS'sacrifices'
p2544
I133
sS'recommendations'
p2545
I133
sS'hype'
p2546
I133
sS'x'
p2547
I133
sS'cramp'
p2548
I133
sS'creepiest'
p2549
I133
sS'throwing'
p2550
I133
sS'manning'
p2551
I133
sS'kinikilig'
p2552
I133
sS'close'
p2553
I126
sS'horrid'
p2554
I133
sS'pictures'
p2555
I114
sS'wow'
p2556
I76
sS'meeeeee'
p2557
I132
sS'woo'
p2558
I132
sS'won'
p2559
I132
sS'babalik'
p2560
I133
sS'probably'
p2561
I121
sS'rlly'
p2562
I130
sS'merida/brave'
p2563
I133
sS'makeup'
p2564
I132
sS'chapstick'
p2565
I133
sS'spray'
p2566
I133
sS'dickly'
p2567
I133
sS'both'
p2568
I124
sS'memorized'
p2569
I133
sS"wouldn't"
p2570
I129
sS'protector'
p2571
I133
sS'liked'
p2572
I133
sS'malandi'
p2573
I133
sS'battery'
p2574
I133
sS'whatever'
p2575
I127
sS'yazlim'
p2576
I133
sS'header'
p2577
I131
sS'likes'
p2578
I131
sS'naps'
p2579
I133
sS'sarrehhhh'
p2580
I133
sS'lahat'
p2581
I129
sS'reciprocate'
p2582
I133
sS'dami'
p2583
I131
sS'damn'
p2584
I91
sS'maintenance'
p2585
I133
sS'threaten'
p2586
I133
sS'empty'
p2587
I131
sS'walter'
p2588
I129
sS'lived'
p2589
I133
sS'else'
p2590
I122
sS'katherine'
p2591
I133
sS':)))))'
p2592
I133
sS'pact'
p2593
I133
sS'iya'
p2594
I133
sS'look'
p2595
I92
sS'sagie'
p2596
I131
sS'governor'
p2597
I133
sS'bikini'
p2598
I133
sS'smart'
p2599
I132
sS'hbd'
p2600
I133
sS'fleet'
p2601
I133
sS'animated'
p2602
I133
sS'pack'
p2603
I133
sS'smacked'
p2604
I133
sS'videossssss'
p2605
I133
sS'ready'
p2606
I116
sS'salons'
p2607
I133
sS'shaq'
p2608
I133
sS'shat'
p2609
I133
sS'napanaginipan'
p2610
I133
sS'squiggly'
p2611
I133
sS'madly'
p2612
I133
sS'grand'
p2613
I133
sS'dayummmm'
p2614
I133
sS'hallway'
p2615
I132
sS'used'
p2616
I123
sS'addams'
p2617
I132
sS'blair'
p2618
I131
sS'backstreet'
p2619
I133
sS'uses'
p2620
I133
sS'cleaning'
p2621
I133
sS'flirty'
p2622
I132
sS'wuttup'
p2623
I133
sS'3.\xe2\x80\x9d'
p2624
I133
sS'grind'
p2625
I133
sS'olden'
p2626
I133
sS'yankees'
p2627
I133
sS'chord'
p2628
I133
sS'(hopefully)'
p2629
I133
sS'2getha'
p2630
I133
sS'praying'
p2631
I133
sS'retirement'
p2632
I133
sS'exercising'
p2633
I133
sS'soooooo'
p2634
I132
sS'sooooon'
p2635
I133
sS'remaining'
p2636
I133
sS'march'
p2637
I133
sS'finalize'
p2638
I133
sS'prefer'
p2639
I133
sS'showing'
p2640
I133
sS'tiring'
p2641
I133
sS'game'
p2642
I101
sS'"thanks'
p2643
I133
sS'wings'
p2644
I133
sS'success'
p2645
I132
sS'mext'
p2646
I133
sS'manifest'
p2647
I133
sS'bukas'
p2648
I133
sS'donna'
p2649
I133
sS'crawled'
p2650
I133
sS'roscoes'
p2651
I133
sS'swooped'
p2652
I132
sS'some'
p2653
I70
sS'yolk'
p2654
I133
sS'lips'
p2655
I132
sS'magets'
p2656
I132
sS'savage'
p2657
I133
sS'exceeding'
p2658
I133
sS'debra'
p2659
I133
sS'potatoes\xe2\x80\x9d'
p2660
I133
sS'bruhhh'
p2661
I133
sS'minimal'
p2662
I133
sS'receipt/wth'
p2663
I133
sS'goooooo'
p2664
I133
sS'run'
p2665
I125
sS'rub'
p2666
I132
sS'hypocritical'
p2667
I133
sS'step'
p2668
I130
sS'scaredy'
p2669
I133
sS'wealth'
p2670
I133
sS'faith'
p2671
I133
sS'nothinn'
p2672
I133
sS'awwwh'
p2673
I130
sS'awwww'
p2674
I132
sS'aye'
p2675
I133
sS'idk'
p2676
I119
sS'classics'
p2677
I133
sS'idc'
p2678
I132
sS'silence'
p2679
I132
sS'kailangan'
p2680
I132
sS"'cause"
p2681
I133
sS'visit'
p2682
I126
sS'within'
p2683
I132
sS'nonsense'
p2684
I133
sS'qtpie'
p2685
I132
sS'sweg'
p2686
I133
sS'rolls'
p2687
I132
sS'smells'
p2688
I132
sS'computer'
p2689
I133
sS'infuriating'
p2690
I133
sS'heritage'
p2691
I130
sS'tobey'
p2692
I133
sS'haren'
p2693
I133
sS'himself'
p2694
I133
sS'registered'
p2695
I133
sS'ditoooo'
p2696
I133
sS'properly'
p2697
I132
sS'russian'
p2698
I133
sS'info'
p2699
I133
sS'fdb'
p2700
I133
sS'intuitive'
p2701
I133
sS'wicked'
p2702
I133
sS'ordered'
p2703
I132
sS'w/out'
p2704
I133
sS'kidney'
p2705
I131
sS'naa'
p2706
I133
sS'pandak'
p2707
I133
sS'btwn'
p2708
I132
sS'nah'
p2709
I129
sS'nap'
p2710
I129
sS'kickboxing'
p2711
I133
sS'tits'
p2712
I130
sS'nay'
p2713
I133
sS'smiles'
p2714
I132
sS'reportedly'
p2715
I133
sS'evan'
p2716
I131
sS'reservation'
p2717
I133
sS'everyday)'
p2718
I133
sS'pescado'
p2719
I133
sS'e'
p2720
I122
sS'practically'
p2721
I133
sS'required'
p2722
I133
sS'youtube'
p2723
I132
sS'nagulat'
p2724
I133
sS'\xd9\x8a\xd9\x84\xd8\xa7'
p2725
I133
sS"she's"
p2726
I118
sS'katt'
p2727
I133
sS'gf'
p2728
I133
sS'gc'
p2729
I133
sS'go'
p2730
I37
sS'pasalubong'
p2731
I133
sS'tweeted'
p2732
I131
sS'wizard'
p2733
I130
sS'tyty'
p2734
I133
sS'out.proverbs'
p2735
I133
sS'friendly'
p2736
I133
sS'kitty'
p2737
I132
sS'facebook'
p2738
I131
sS'telling'
p2739
I128
sS'olaf'
p2740
I133
sS'button'
p2741
I133
sS'michael'
p2742
I131
sS'pengeng'
p2743
I133
sS'barbara'
p2744
I132
sS'"intellectual'
p2745
I133
sS'booty'
p2746
I123
sS'waking'
p2747
I128
sS'jump'
p2748
I126
sS'picked'
p2749
I130
sS'duhhhh'
p2750
I133
sS'click'
p2751
I133
sS'sausage'
p2752
I131
sS'plays'
p2753
I131
sS'soup'
p2754
I133
sS'sangria'
p2755
I133
sS'vampire'
p2756
I132
sS'cell'
p2757
I133
sS'inggitero'
p2758
I133
sS'tournaments'
p2759
I133
sS'commercial'
p2760
I127
sS'weirdo'
p2761
I133
sS'thiiiiiissssss'
p2762
I133
sS'etsy\xe2\x98\xba\xef\xb8\x8f'
p2763
I133
sS'faaaaackkkk'
p2764
I133
sS'bangag'
p2765
I133
sS'win'
p2766
I130
sS'manage'
p2767
I132
sS'wii'
p2768
I133
sS'wit'
p2769
I133
sS'anomalies'
p2770
I133
sS'singing'
p2771
I133
sS'kilig'
p2772
I133
sS'cloud'
p2773
I133
sS'crap'
p2774
I131
sS'snoop'
p2775
I133
sS'hudson'
p2776
I133
sS'cray'
p2777
I132
sS'time\xe2\x98\xba\xef\xb8\x8f'
p2778
I133
sS'camera'
p2779
I133
sS'vehicle'
p2780
I131
sS'\xe2\x9d\xa4\xe2\x9d\xa4\xe2\x9d\xa4\xe2\x9d\xa4'
p2781
I133
sS"now's"
p2782
I133
sS'\xd7\x94\xd7\x91\xd7\xa8\xd7\x99\xd7\xaa'
p2783
I133
sS'1/2'
p2784
I133
sS'started'
p2785
I124
sS'becomes'
p2786
I132
sS'econ'
p2787
I133
sS'about'
p2788
I44
sS'confused'
p2789
I124
sS'clubbin'
p2790
I133
sS':-/'
p2791
I129
sS'meee'
p2792
I133
sS'ride'
p2793
I131
sS'waisting'
p2794
I133
sS'meet'
p2795
I125
sS'control'
p2796
I132
sS'halloween'
p2797
I126
sS'pulling'
p2798
I133
sS'wonderful'
p2799
I132
sS'unthot'
p2800
I133
sS'vibe'
p2801
I133
sS'farm'
p2802
I132
sS'trees'
p2803
I133
sS'agenda'
p2804
I133
sS"florida's"
p2805
I133
sS"won't"
p2806
I115
sS'costume'
p2807
I132
sS'"season"'
p2808
I133
sS'coldpress'
p2809
I128
sS'housewife'
p2810
I133
sS'[pic]'
p2811
I133
sS'omfgg'
p2812
I133
sS'auto'
p2813
I133
sS'gmgmmfmgmg'
p2814
I133
sS'hands'
p2815
I129
sS'front'
p2816
I133
sS'handy'
p2817
I132
sS'masters'
p2818
I133
sS'guard'
p2819
I132
sS'slide'
p2820
I132
sS'mode'
p2821
I132
sS'seniors'
p2822
I133
sS'showering'
p2823
I133
sS'&knocked'
p2824
I133
sS'700'
p2825
I133
sS'staying'
p2826
I131
sS'twitta'
p2827
I133
sS'confuzed'
p2828
I133
sS'special'
p2829
I133
sS'welll'
p2830
I133
sS'food"\xe2\x80\x9d'
p2831
I133
sS'entertainment'
p2832
I133
sS'reboot'
p2833
I133
sS'ricky'
p2834
I129
sS'lazzzzzzyyyyy'
p2835
I133
sS'thickkkk'
p2836
I133
sS'cause'
p2837
I126
sS'attending'
p2838
I133
sS'completely'
p2839
I131
sS'ecr'
p2840
I133
sS'princess'
p2841
I132
sS'wookie'
p2842
I133
sS'hostile'
p2843
I133
sS'"bach"'
p2844
I133
sS'florida'
p2845
I132
sS'keep'
p2846
I117
sS'keef'
p2847
I133
sS'margaritas'
p2848
I132
sS'austin'
p2849
I133
sS':((((('
p2850
I133
sS':(((("'
p2851
I133
sS'confuse'
p2852
I133
sS'emscobitch'
p2853
I133
sS'bitch'
p2854
I118
sS'quality'
p2855
I133
sS'(andy'
p2856
I133
sS"you're"
p2857
I81
sS'playlist'
p2858
I133
sS'privacy'
p2859
I133
sS'bears'
p2860
I129
sS'attack'
p2861
I129
sS'noooooo'
p2862
I130
sS'cuzzo'
p2863
I133
sS'perfectly'
p2864
I132
sS'final'
p2865
I133
sS'beard'
p2866
I130
sS'2-0'
p2867
I133
sS'craziest'
p2868
I132
sS'exactly'
p2869
I128
sS'lists'
p2870
I133
sS"that'll"
p2871
I132
sS'overwhelming'
p2872
I133
sS'ben'
p2873
I132
sS'coast'
p2874
I132
sS'beg'
p2875
I133
sS'submitted'
p2876
I133
sS'h.a.m'
p2877
I133
sS'anaheim'
p2878
I132
sS'providing'
p2879
I133
sS'bet'
p2880
I132
sS'function'
p2881
I130
sS'p.s'
p2882
I133
sS":'))))"
p2883
I133
sS'portrait'
p2884
I132
sS'need'
p2885
I54
sS'taba'
p2886
I133
sS'emptying'
p2887
I133
sS'q'
p2888
I133
sS';)\xe2\x80\x9d'
p2889
I133
sS'able'
p2890
I129
sS'procrastinated'
p2891
I132
sS'relatives'
p2892
I133
sS'empathic'
p2893
I133
sS'deposit'
p2894
I133
sS'aww'
p2895
I130
sS'kayo"'
p2896
I133
sS'hahahaha."gulay'
p2897
I133
sS'connected'
p2898
I133
sS'awh'
p2899
I131
sS'awe'
p2900
I133
sS'folgers'
p2901
I133
sS'consequences'
p2902
I133
sS'basahin'
p2903
I133
sS'url'
p2904
I133
sS'indy'
p2905
I133
sS'urs'
p2906
I131
sS'impression'
p2907
I133
sS'anyway'
p2908
I133
sS'parked'
p2909
I133
sS'gulaaay'
p2910
I133
sS'partners'
p2911
I133
sS'nga'
p2912
I126
sS'nakakausap'
p2913
I133
sS'ngl'
p2914
I131
sS'virgo'
p2915
I131
sS'bases'
p2916
I133
sS'employee'
p2917
I133
sS'boyfriends/girlfriends'
p2918
I133
sS'kiligpeps'
p2919
I133
sS'mga'
p2920
I129
sS"carsbeerbottlesparty's"
p2921
I133
sS'naaalala'
p2922
I133
sS'sassy'
p2923
I133
sS'kong'
p2924
I130
sS'scrolling'
p2925
I133
sS'endless'
p2926
I131
sS'hiring'
p2927
I133
sS'ughh'
p2928
I133
sS"skin's"
p2929
I133
sS"somebody's"
p2930
I133
sS'she'
p2931
I67
sS'umuwi'
p2932
I132
sS'contain'
p2933
I132
sS'piss'
p2934
I133
sS'humans'
p2935
I133
sS'officials'
p2936
I133
sS'desperate'
p2937
I133
sS'stats'
p2938
I129
sS'luv'
p2939
I130
sS'joys'
p2940
I133
sS'nightmare'
p2941
I131
sS'missing'
p2942
I131
sS'willpower'
p2943
I133
sS'written'
p2944
I131
sS'supernatural'
p2945
I133
sS'horrible'
p2946
I126
sS'neither'
p2947
I133
sS'lul'
p2948
I133
sS'subtweets'
p2949
I133
sS'sole'
p2950
I133
sS'buckets'
p2951
I132
sS'spared'
p2952
I133
sS'key'
p2953
I132
sS'police'
p2954
I129
sS'precious'
p2955
I132
sS'"f___'
p2956
I133
sS'hits'
p2957
I132
sS'minds'
p2958
I133
sS'jersey'
p2959
I131
sS'tuesday'
p2960
I132
sS'quit'
p2961
I133
sS'yay'
p2962
I123
sS'babe\xe2\x80\x9d'
p2963
I133
sS'yas'
p2964
I132
sS'quiz'
p2965
I131
sS'yan'
p2966
I128
sS'yah'
p2967
I132
sS'troopers'
p2968
I133
sS'pic'
p2969
I125
sS'league'
p2970
I132
sS'frshman'
p2971
I133
sS'jeeez'
p2972
I133
sS'kicks'
p2973
I133
sS'smoking'
p2974
I133
sS"ba't"
p2975
I133
sS'harder'
p2976
I133
sS'chalk'
p2977
I133
sS'gucci'
p2978
I130
sS'ymiiiiiiiiiiiiiiii'
p2979
I133
sS'fraaaands'
p2980
I133
sS'demi'
p2981
I133
sS'bucks'
p2982
I133
sS'anjelica'
p2983
I133
sS'strange'
p2984
I133
sS'party'
p2985
I118
sS'huhuhu'
p2986
I119
sS'bantayan'
p2987
I133
sS'impeccable'
p2988
I133
sS'//'
p2989
I133
sS'paycheck'
p2990
I133
sS'reflection'
p2991
I133
sS'shalom'
p2992
I133
sS'obstacles'
p2993
I133
sS'well'
p2994
I96
sS'finds'
p2995
I133
sS'dharma'
p2996
I133
sS'flexing'
p2997
I133
sS'taller'
p2998
I133
sS'savannah'
p2999
I127
sS'accurate'
p3000
I129
sS'sources'
p3001
I133
sS'spells'
p3002
I133
sS'vida'
p3003
I133
sS'killed'
p3004
I131
sS'balloons'
p3005
I133
sS'size)'
p3006
I133
sS'kick'
p3007
I132
sS'livin'
p3008
I133
sS'fate'
p3009
I133
sS'utah'
p3010
I133
sS'crushed'
p3011
I133
sS'utak'
p3012
I133
sS'boiiiii'
p3013
I133
sS'5am'
p3014
I131
sS'bukowski'
p3015
I133
sS'lincoln'
p3016
I133
sS'necessary'
p3017
I130
sS'"mega'
p3018
I133
sS'lost'
p3019
I118
sS'candy'
p3020
I130
sS"luke's"
p3021
I126
sS'martin'
p3022
I133
sS'store\xe2\x98\xba\xef\xb8\x8f'
p3023
I133
sS'page'
p3024
I131
sS'983'
p3025
I133
sS'twitter'
p3026
I111
sS'shet'
p3027
I130
sS'repeat'
p3028
I133
sS'shes'
p3029
I127
sS'home'
p3030
I99
sS'liking'
p3031
I132
sS'drizzle'
p3032
I132
sS'tiaras'
p3033
I133
sS'avi\xe2\x98\xba\xef\xb8\x8f\xe2\x9d\xa4\xef\xb8\x8f'
p3034
I133
sS'balboa'
p3035
I133
sS'house!\xe2\x98\xba\xef\xb8\x8f\xe2\x98\xba\xef\xb8\x8f'
p3036
I133
sS'instinct'
p3037
I133
sS'"making'
p3038
I133
sS'quarter'
p3039
I133
sS'muting'
p3040
I133
sS'tongue'
p3041
I132
sS'equally'
p3042
I133
sS'haha\xe2\x80\x9d'
p3043
I133
sS'whos'
p3044
I133
sS'say"i\'ll'
p3045
I133
sS'noticed'
p3046
I132
sS'inner'
p3047
I133
sS'there\xe2\x80\x9d'
p3048
I133
sS'cricket'
p3049
I133
sS'gluten'
p3050
I133
sS'hr'
p3051
I133
sS'hq'
p3052
I132
sS'hw'
p3053
I133
sS'evacuate'
p3054
I133
sS'kayang'
p3055
I133
sS'hi'
p3056
I121
sS'gain'
p3057
I131
sS'hc'
p3058
I131
sS'ha'
p3059
I122
sS'eat'
p3060
I117
sS'he'
p3061
I65
sS'dmg'
p3062
I133
sS'benditaaaaaaaa'
p3063
I133
sS'fuckboy'
p3064
I133
sS'dms'
p3065
I131
sS'stories'
p3066
I133
sS'pumped'
p3067
I133
sS'piece'
p3068
I128
sS'mechanics'
p3069
I133
sS'penny'
p3070
I133
sS'upsets'
p3071
I133
sS'twist'
p3072
I132
sS'beats'
p3073
I133
sS'education'
p3074
I133
sS'eric'
p3075
I130
sS'rumors'
p3076
I133
sS'ingredients'
p3077
I133
sS'lakas'
p3078
I133
sS'babyyyyy'
p3079
I133
sS'7/10'
p3080
I133
sS'talkin'
p3081
I131
sS'star'
p3082
I131
sS'yeaaaaaar'
p3083
I133
sS'mmmbop'
p3084
I133
sS'stay'
p3085
I115
sS'stab'
p3086
I133
sS'friends'
p3087
I76
sS'blogs'
p3088
I133
sS'portion'
p3089
I133
sS"cinderella's"
p3090
I133
sS'hny'
p3091
I132
sS'lives'
p3092
I130
sS'watermarked'
p3093
I133
sS'msgs'
p3094
I133
sS'whoops'
p3095
I133
sS"sa'min"
p3096
I133
sS'captain'
p3097
I132
sS'swag'
p3098
I133
sS'buddy'
p3099
I133
sS'roof\xe2\x80\x9d'
p3100
I133
sS':""">'
p3101
I132
sS'sweetest'
p3102
I132
sS'seriously'
p3103
I119
sS'masyado'
p3104
I133
sS'teaching'
p3105
I128
sS'sorry'
p3106
I116
sS'updated'
p3107
I132
sS'rescue'
p3108
I133
sS'smack'
p3109
I133
sS'updates'
p3110
I133
sS'pilipinas'
p3111
I133
sS'molesting'
p3112
I133
sS'phun'
p3113
I133
sS'ups'
p3114
I132
sS'clothes'
p3115
I127
sS'10k'
p3116
I133
sS'force'
p3117
I132
sS'me"'
p3118
I133
sS'disneyside'
p3119
I133
sS'japanese'
p3120
I133
sS'across'
p3121
I130
sS'crave'
p3122
I132
sS'even'
p3123
I74
sS'trapping'
p3124
I132
sS'saved'
p3125
I133
sS'while'
p3126
I109
sS'f*ck'
p3127
I133
sS'lights'
p3128
I133
sS'new'
p3129
I91
sS'ever'
p3130
I78
sS'\xd8\xb0\xd8\xa7\xd8\xa8\xd8\xad\xd9\x86\xd9\x8a'
p3131
I133
sS'pancakes'
p3132
I133
sS'mel'
p3133
I133
sS'never'
p3134
I77
sS'drew'
p3135
I130
sS'dokie'
p3136
I133
sS'\xe2\x9d\xa4\xef\xb8\x8f\xe2\x9d\xa4\xef\xb8\x8f\xe2\x9d\xa4\xef\xb8\x8f\xe2\x9d\xa4\xef\xb8\x8f'
p3137
I132
sS'met'
p3138
I129
sS'100'
p3139
I131
sS"aren't"
p3140
I129
sS'106'
p3141
I133
sS'104'
p3142
I133
sS'dry'
p3143
I129
sS'luther'
p3144
I133
sS'scoopers'
p3145
I133
sS'credit'
p3146
I131
sS'groupchat'
p3147
I132
sS'adopting'
p3148
I133
sS"someone's"
p3149
I131
sS'kayyyyyyyyy'
p3150
I133
sS'eyebrows'
p3151
I133
sS'fantastic'
p3152
I132
sS'county'
p3153
I133
sS"niece's"
p3154
I133
sS'moral'
p3155
I131
sS'broadcasters'
p3156
I133
sS"5's"
p3157
I133
sS'army'
p3158
I133
sS'armo'
p3159
I133
sS'call'
p3160
I123
sS'calm'
p3161
I133
sS'recommend'
p3162
I133
sS'survive'
p3163
I132
sS'type'
p3164
I128
sS'tell'
p3165
I112
sS'posting'
p3166
I132
sS'oscar'
p3167
I133
sS'expose'
p3168
I133
sS'wars'
p3169
I129
sS'warm'
p3170
I131
sS'adult'
p3171
I133
sS'eternally'
p3172
I133
sS'aligned'
p3173
I133
sS'room'
p3174
I122
sS'rood'
p3175
I133
sS'roof'
p3176
I131
sS'ilysm'
p3177
I128
sS'movies'
p3178
I125
sS'exceptions'
p3179
I133
sS'vodka'
p3180
I132
sS'headphones'
p3181
I132
sS'give'
p3182
I115
sS'laughs'
p3183
I133
sS'honey'
p3184
I132
sS'foods'
p3185
I133
sS'homie'
p3186
I130
sS'brest'
p3187
I133
sS'pogi'
p3188
I133
sS'amazing'
p3189
I108
sS'answer'
p3190
I127
sS"justice's"
p3191
I133
sS'shroom'
p3192
I133
sS'whyyyy'
p3193
I132
sS'president'
p3194
I133
sS'lesbian'
p3195
I131
sS'purchase'
p3196
I133
sS'anymore'
p3197
I128
sS'third'
p3198
I132
sS'14400'
p3199
I133
sS'nicki'
p3200
I133
sS'goodbye'
p3201
I133
sS'operate'
p3202
I133
sS'athletes'
p3203
I133
sS'fifa'
p3204
I133
sS'tribulations'
p3205
I133
sS'wut'
p3206
I131
sS'pahahaha'
p3207
I132
sS'pahingi'
p3208
I132
sS'before'
p3209
I116
sS'deathly'
p3210
I132
sS'rescheduled'
p3211
I133
sS'personal'
p3212
I130
sS'crew'
p3213
I130
sS'better'
p3214
I106
sS'weeks'
p3215
I128
sS'workout'
p3216
I132
sS'\xe2\x98\xba\xef\xb8\x8f'
p3217
I129
sS'grammar'
p3218
I133
sS'sleepless'
p3219
I133
sS'ewwww'
p3220
I130
sS'went'
p3221
I119
sS'bong'
p3222
I133
sS'side'
p3223
I129
sS'mean'
p3224
I109
sS'gunna'
p3225
I133
sS'taught'
p3226
I133
sS'trading'
p3227
I133
sS'forgot'
p3228
I129
sS'navy'
p3229
I133
sS'dawn'
p3230
I133
sS'satans'
p3231
I133
sS'content'
p3232
I133
sS'surprise'
p3233
I131
sS'turning'
p3234
I133
sS'cutest'
p3235
I130
sS'resume'
p3236
I133
sS'fave'
p3237
I129
sS'revenge'
p3238
I133
sS'struggle'
p3239
I124
sS'hoodie'
p3240
I133
sS'everyman'
p3241
I133
sS'jackman'
p3242
I133
sS'logging'
p3243
I132
sS'starts'
p3244
I131
sS'messages'
p3245
I127
sS'ish'
p3246
I129
sS'fuckin'
p3247
I131
sS'stewart'
p3248
I133
sS'grade'
p3249
I132
sS'huwehhhhh'
p3250
I133
sS'hook'
p3251
I131
sS'nordhoff'
p3252
I133
sS'hood'
p3253
I130
sS'mag-artista'
p3254
I133
sS'girls'
p3255
I117
sS'hollywood'
p3256
I131
sS'pictures/video'
p3257
I133
sS'years\xe2\x80\x9d'
p3258
I133
sS'gym'
p3259
I124
sS'somewhat'
p3260
I133
sS'begins'
p3261
I132
sS'distance'
p3262
I131
sS'anxiety'
p3263
I131
sS'older'
p3264
I132
sS'matter'
p3265
I132
sS'silly'
p3266
I132
sS'girl)'
p3267
I133
sS'loiter'
p3268
I133
sS'aiight'
p3269
I131
sS'hallucination'
p3270
I133
sS'sees'
p3271
I133
sS'mind'
p3272
I123
sS'mine'
p3273
I125
sS'ginger'
p3274
I132
sS'seen'
p3275
I124
sS'seem'
p3276
I131
sS'mins'
p3277
I128
sS'seek'
p3278
I133
sS'tells'
p3279
I132
sS'it\xe2\x80\x9d'
p3280
I133
sS'timberlake'
p3281
I133
sS'chest'
p3282
I132
sS'niece'
p3283
I130
sS'panties'
p3284
I133
sS'quarterback'
p3285
I132
sS'rappers'
p3286
I133
sS'regular'
p3287
I131
sS'car.i'
p3288
I133
sS'maria'
p3289
I133
sS'don'
p3290
I133
sS'dom'
p3291
I133
sS'alarm'
p3292
I131
sS'impostor'
p3293
I132
sS'dog'
p3294
I101
sS'dod'
p3295
I132
sS'doe'
p3296
I133
sS'definitely'
p3297
I129
sS'dos'
p3298
I133
sS'yessssssss'
p3299
I133
sS'annoyed'
p3300
I131
sS'dot'
p3301
I130
sS'highschooler'
p3302
I133
sS'lyrics'
p3303
I131
sS'hunger'
p3304
I133
sS'bakit'
p3305
I132
sS'health.\xe2\x80\x9d'
p3306
I133
sS'ending'
p3307
I132
sS'rundisney'
p3308
I133
sS'probs'
p3309
I133
sS'gyms'
p3310
I133
sS'explain'
p3311
I130
sS'debts'
p3312
I133
sS'mejjjj'
p3313
I133
sS'sugar'
p3314
I132
sS'judged'
p3315
I133
sS'stabbing'
p3316
I133
sS'folks'
p3317
I133
sS'gangsta'
p3318
I133
sS'magpagaling'
p3319
I133
sS'wearing'
p3320
I129
sS'stop'
p3321
I90
sS'ahahaha'
p3322
I126
sS'bat'
p3323
I124
sS'bar'
p3324
I132
sS'bag'
p3325
I133
sS'bad'
p3326
I95
sS'bae'
p3327
I106
sS'18'
p3328
I132
sS'today\xe2\x98\xba\xef\xb8\x8f'
p3329
I133
sS'bam'
p3330
I132
sS'effing'
p3331
I133
sS'ears'
p3332
I132
sS'playstation'
p3333
I133
sS'zoned'
p3334
I133
sS'testing'
p3335
I133
sS'decided'
p3336
I130
sS'brazil'
p3337
I133
sS'said'
p3338
I89
sS'duff'
p3339
I133
sS'inappropriate'
p3340
I133
sS'sorta'
p3341
I133
sS'...as'
p3342
I133
sS"there's"
p3343
I115
sS'sayooooo'
p3344
I133
sS'lazy'
p3345
I128
sS'omg'
p3346
I63
sS'ignorance'
p3347
I132
sS'mabuksaaaaan'
p3348
I133
sS'duckie'
p3349
I133
sS'cousin'
p3350
I128
sS'picking'
p3351
I132
sS'suggested'
p3352
I133
sS'compton'
p3353
I132
sS'stuffff'
p3354
I133
sS'against'
p3355
I132
sS'una'
p3356
I133
sS'unf'
p3357
I133
sS'uno'
p3358
I133
sS'yaay'
p3359
I133
sS'offerings'
p3360
I133
sS'tiana'
p3361
I133
sS'loaded'
p3362
I133
sS'asks'
p3363
I133
sS'ayan'
p3364
I133
sS'youuuuuuuuuuu'
p3365
I132
sS'three'
p3366
I127
sS"f'ed"
p3367
I133
sS'interest'
p3368
I132
sS'basic'
p3369
I131
sS'lovely'
p3370
I133
sS'riley'
p3371
I133
sS'website'
p3372
I132
sS'alemany'
p3373
I132
sS'scabbers'
p3374
I133
sS'sunshine'
p3375
I133
sS'sooooo'
p3376
I132
sS'yaaaasss'
p3377
I132
sS'tiisin'
p3378
I132
sS'amazzzzzzing'
p3379
I133
sS'say'
p3380
I91
sS'transformation'
p3381
I132
sS'ugly'
p3382
I123
sS'near'
p3383
I130
sS'iz'
p3384
I133
sS'mexico'
p3385
I133
sS'???\xe2\x80\x9d'
p3386
I133
sS'sushi'
p3387
I132
sS'nutter'
p3388
I133
sS'it'
p3389
I17
sS'stoppp'
p3390
I133
sS'jess'
p3391
I133
sS'cant'
p3392
I116
sS'im'
p3393
I87
sS'in'
p3394
I12
sS'seattle'
p3395
I133
sS'mouse'
p3396
I133
sS'id'
p3397
I129
sS'disappear'
p3398
I132
sS'if'
p3399
I40
sS'grown'
p3400
I132
sS'kahit'
p3401
I132
sS'make'
p3402
I73
sS'meetup'
p3403
I132
sS'bottled'
p3404
I133
sS'hahah'
p3405
I128
sS'80s'
p3406
I133
sS'hahaa'
p3407
I133
sS'grows'
p3408
I133
sS'meets'
p3409
I130
sS'kanila'
p3410
I132
sS'ella'
p3411
I133
sS'kit'
p3412
I133
sS'kim'
p3413
I132
sS'jealous'
p3414
I130
sS"he'll"
p3415
I133
sS'thoughts'
p3416
I129
sS'kid'
p3417
I128
sS'butter'
p3418
I129
sS'youre'
p3419
I133
sS'smokes'
p3420
I133
sS'pandora'
p3421
I131
sS'romo'
p3422
I132
sS'smoked'
p3423
I133
sS'yours'
p3424
I128
sS'chaaaaat'
p3425
I133
sS'left'
p3426
I119
sS'slutty'
p3427
I133
sS'meet-up'
p3428
I133
sS'yea'
p3429
I132
sS'||'
p3430
I133
sS'unfair'
p3431
I132
sS'psych'
p3432
I133
sS'human'
p3433
I130
sS'ciara'
p3434
I132
sS'facts'
p3435
I133
sS'yep'
p3436
I132
sS'yes'
p3437
I103
sS'yet'
p3438
I120
sS'sunflower'
p3439
I133
sS'defrag'
p3440
I133
sS'character'
p3441
I129
sS'hahahhaa'
p3442
I132
sS'potential'
p3443
I133
sS'save'
p3444
I129
sS'preseason'
p3445
I133
sS"savannah's"
p3446
I133
sS'background'
p3447
I133
sS'dissin'
p3448
I133
sS'dreams'
p3449
I132
sS'inste'
p3450
I133
sS'nevermind'
p3451
I132
sS'disneybounding'
p3452
I132
sS'nude'
p3453
I133
sS'hahha'
p3454
I133
sS'"bae"'
p3455
I133
sS'deal'
p3456
I126
sS'"that\'s'
p3457
I133
sS'dead'
p3458
I125
sS'binabawi'
p3459
I133
sS'wwe'
p3460
I133
sS'eastwood'
p3461
I133
sS'poolside'
p3462
I132
sS'dear'
p3463
I133
sS'a\xe2\x80\xa6'
p3464
I133
sS'mag-monday'
p3465
I133
sS'"yeaaaaahhh'
p3466
I133
sS'dunkin'
p3467
I133
sS'burn'
p3468
I131
sS'keeper'
p3469
I133
sS'super'
p3470
I130
sS"something's"
p3471
I131
sS'yelling'
p3472
I132
sS'valentines'
p3473
I132
sS'lapit'
p3474
I133
sS'wepa'
p3475
I133
sS'dilis'
p3476
I133
sS'islands'
p3477
I132
sS'for)'
p3478
I133
sS'subs'
p3479
I132
sS'lied'
p3480
I131
sS'selfie'
p3481
I128
sS'down'
p3482
I92
sS'woo-hoo'
p3483
I133
sS'victorious'
p3484
I133
sS'bert'
p3485
I132
sS'northridge'
p3486
I131
sS'form'
p3487
I132
sS'batman'
p3488
I133
sS'fireworks'
p3489
I128
sS'landing'
p3490
I133
sS'analyst'
p3491
I133
sS'fort'
p3492
I133
sS'fills'
p3493
I133
sS'isang'
p3494
I133
sS'centipede'
p3495
I133
sS'ayaw'
p3496
I132
sS'daddy'
p3497
I128
sS'delete'
p3498
I132
sS'new-ish'
p3499
I133
sS'classic'
p3500
I132
sS'petit'
p3501
I133
sS"beauty's"
p3502
I132
sS'sale'
p3503
I131
sS'kys\xe2\x80\x9d'
p3504
I133
sS'shit'
p3505
I101
sS'holla'
p3506
I132
sS'offensive\xe2\x80\x9d'
p3507
I133
sS'game?!"'
p3508
I133
sS'handed'
p3509
I133
sS'hangin'
p3510
I133
sS'tamale'
p3511
I133
sS'"omg'
p3512
I132
sS'delivered'
p3513
I133
sS'dies'
p3514
I131
sS'felt'
p3515
I129
sS'diet'
p3516
I131
sS'fell'
p3517
I132
sS'wechat'
p3518
I133
sS'hahahahahah'
p3519
I131
sS'weekend'
p3520
I103
sS'died'
p3521
I131
sS'jacked'
p3522
I133
sS'happening'
p3523
I126
sS'blushing'
p3524
I133
sS'daily'
p3525
I128
sS'jacket'
p3526
I133
sS'topanga'
p3527
I133
sS'teeth'
p3528
I130
sS'anong'
p3529
I130
sS'milt'
p3530
I132
sS'managed'
p3531
I133
sS'skip'
p3532
I131
sS'souls'
p3533
I133
sS'laura'
p3534
I132
sS'manager'
p3535
I127
sS'mile'
p3536
I129
sS'lechh'
p3537
I133
sS'skin'
p3538
I131
sS'leche'
p3539
I130
sS'milk'
p3540
I133
sS'21st'
p3541
I133
sS'suicide'
p3542
I132
sS'yummy'
p3543
I133
sS'technique'
p3544
I133
sS'father'
p3545
I130
sS'disgusting'
p3546
I130
sS'amaze'
p3547
I133
sS'finally'
p3548
I119
sS'foursquare'
p3549
I133
sS'shoot'
p3550
I131
sS'string'
p3551
I133
sS'tacos'
p3552
I133
sS"donovan's"
p3553
I133
sS'ma'
p3554
I131
sS'din'
p3555
I131
sS'swapping'
p3556
I133
sS'did'
p3557
I86
sS'die'
p3558
I119
sS'stiffed'
p3559
I133
sS'accidentally'
p3560
I132
sS'travels'
p3561
I133
sS'item'
p3562
I132
sS'diy'
p3563
I133
sS'dis'
p3564
I130
sS'shave'
p3565
I132
sS'here]'
p3566
I133
sS'tnx'
p3567
I131
sS'eating'
p3568
I132
sS'cuddly'
p3569
I133
sS'schoool'
p3570
I133
sS'cov\xc3\xa8'
p3571
I133
sS'special\xe2\x80\x9d'
p3572
I133
sS'norris'
p3573
I132
sS'at\xe2\x9d\xa4\xef\xb8\x8f'
p3574
I133
sS'international'
p3575
I133
sS'ummmm'
p3576
I131
sS'weilers'
p3577
I133
sS'univision'
p3578
I133
sS'french'
p3579
I133
sS'laughin'
p3580
I133
sS'earthquake'
p3581
I132
sS'wait'
p3582
I80
sS'box'
p3583
I132
sS'boy'
p3584
I108
sS'yessss'
p3585
I133
sS'maguire'
p3586
I133
sS'shift'
p3587
I132
sS'mahirap'
p3588
I132
sS'bow'
p3589
I132
sS'boi'
p3590
I131
sS'boo'
p3591
I128
sS'priceless'
p3592
I133
sS'bob'
p3593
I133
sS'massage'
p3594
I132
sS'teenage'
p3595
I133
sS'dick'
p3596
I131
sS'everybody'
p3597
I121
sS'pera'
p3598
I133
sS'franco'
p3599
I131
sS'baes'
p3600
I132
sS'ariel'
p3601
I130
sS'dude'
p3602
I117
sS'do.....what'
p3603
I133
sS'france'
p3604
I133
sS'perr'
p3605
I133
sS'ayy'
p3606
I128
sS'perv'
p3607
I133
sS'ahhh'
p3608
I130
sS'ayt'
p3609
I133
sS'boyyyyyy!!!!"'
p3610
I133
sS'thru'
p3611
I133
sS'tmrrw'
p3612
I133
sS'--->'
p3613
I133
sS'claudette'
p3614
I133
sS'acceptable'
p3615
I133
sS'ooh'
p3616
I132
sS'downtown'
p3617
I133
sS'effort'
p3618
I132
sS'fly'
p3619
I130
sS'cream*'
p3620
I133
sS'deformed'
p3621
I132
sS'quoting'
p3622
I133
sS'soul'
p3623
I125
sS'wallet'
p3624
I132
sS'9th'
p3625
I133
sS'growing'
p3626
I133
sS'making'
p3627
I114
sS'crazy'
p3628
I107
sS'fuck'
p3629
I88
sS'agent'
p3630
I133
sS'council'
p3631
I132
sS'(9-11)'
p3632
I133
sS'pina'
p3633
I133
sS'toilet....i'
p3634
I133
sS'till'
p3635
I130
sS'sunday'
p3636
I126
sS'nyo'
p3637
I130
sS'pure'
p3638
I132
sS'puro'
p3639
I133
sS'map'
p3640
I130
sS'mas'
p3641
I132
sS'may'
p3642
I112
sS'mad'
p3643
I113
sS'mah'
p3644
I129
sS'guys'
p3645
I105
sS'grow'
p3646
I129
sS'man'
p3647
I92
sS'hemlock'
p3648
I133
sS'neck'
p3649
I132
sS'maybe'
p3650
I122
sS'chef'
p3651
I133
sS'tale'
p3652
I133
sS'switch'
p3653
I130
sS'jail'
p3654
I132
sS'block'
p3655
I131
sS'talk'
p3656
I116
sS'cute'
p3657
I99
sS'druggies'
p3658
I133
sS'shoes'
p3659
I128
sS'seeing'
p3660
I120
sS'zelzah'
p3661
I133
sS'shake'
p3662
I132
sS'marshmallows'
p3663
I132
sS'group'
p3664
I119
sS'thank'
p3665
I67
sS'interesting'
p3666
I124
sS'birthdayyyy'
p3667
I133
sS'serenaded'
p3668
I133
sS'tweets'
p3669
I122
sS'mail'
p3670
I133
sS'main'
p3671
I131
sS'piglets'
p3672
I132
sS'yungsnowbunny'
p3673
I133
sS'bein'
p3674
I131
sS'killer'
p3675
I132
sS'sooner'
p3676
I132
sS'lunch'
p3677
I126
sS'kanina'
p3678
I131
sS'bullshit'
p3679
I131
sS'peasant'
p3680
I133
sS'rock'
p3681
I130
sS'luke..."'
p3682
I133
sS'labyu'
p3683
I125
sS"party's"
p3684
I133
sS'unlock'
p3685
I133
sS'girl'
p3686
I90
sS'summary'
p3687
I133
sS'canada'
p3688
I121
sS'living'
p3689
I128
sS'stitch'
p3690
I132
sS'3rd'
p3691
I132
sS'stupid'
p3692
I117
sS'itttttttttttttt'
p3693
I133
sS'nudes'
p3694
I132
sS'correct'
p3695
I131
sS'goth'
p3696
I133
sS'earlier'
p3697
I131
sS'monster'
p3698
I133
sS'california'
p3699
I131
sS'jakes'
p3700
I132
sS'language'
p3701
I133
sS'drizzling'
p3702
I131
sS'listings'
p3703
I133
sS'thing'
p3704
I101
sS'uncredited'
p3705
I132
sS'yess'
p3706
I133
sS'think'
p3707
I64
sS'first'
p3708
I107
sS'cheese'
p3709
I130
sS'rachel'
p3710
I133
sS'americans'
p3711
I133
sS'long'
p3712
I109
sS'salsa'
p3713
I133
sS'carry'
p3714
I132
sS'sounds'
p3715
I126
sS'cheesy'
p3716
I133
sS'little'
p3717
I106
sS'personalities'
p3718
I133
sS'slept'
p3719
I132
sS'anyone'
p3720
I116
sS'1d'
p3721
I133
sS'speaking'
p3722
I132
sS"we're"
p3723
I123
sS'bobo'
p3724
I133
sS'joselyns'
p3725
I133
sS'eyes'
p3726
I121
sS'neverland'
p3727
I133
sS'continuous'
p3728
I133
sS'buts'
p3729
I133
sS'butt'
p3730
I132
sS"here's"
p3731
I133
sS'11'
p3732
I133
sS'10'
p3733
I128
sS'12'
p3734
I127
sS'15'
p3735
I132
sS'14'
p3736
I133
sS'17'
p3737
I132
sS'16'
p3738
I132
sS'19'
p3739
I133
sS'notches'
p3740
I133
sS'gotta'
p3741
I106
sS'were'
p3742
I98
sS'coconut'
p3743
I133
sS'lameeee\xe2\x80\x9d'
p3744
I133
sS'marijuana'
p3745
I133
sS'conspiracy'
p3746
I133
sS'sorryyyy'
p3747
I133
sS'surgery'
p3748
I132
sS'kevin'
p3749
I131
sS'bailed'
p3750
I133
sS'fronteirland'
p3751
I133
sS'squad'
p3752
I129
sS'performance'
p3753
I133
sS'neeeeed'
p3754
I133
sS'channel'
p3755
I133
sS'200'
p3756
I133
sS'pain'
p3757
I129
sS'theatre'
p3758
I133
sS'normal'
p3759
I132
sS'track'
p3760
I132
sS'paid'
p3761
I131
sS'then\xe2\x80\x9d'
p3762
I133
sS'woooo'
p3763
I133
sS'especially'
p3764
I130
sS'surprising'
p3765
I133
sS'lenny'
p3766
I133
sS'kilay'
p3767
I133
sS'shop'
p3768
I132
sS'otherwise'
p3769
I133
sS'shot'
p3770
I128
sS'show'
p3771
I113
sS'kapaaaal'
p3772
I133
sS'drawings'
p3773
I133
sS'outmy'
p3774
I133
sS'takin'
p3775
I133
sS'curled'
p3776
I133
sS'dicc'
p3777
I133
sS'with?\xe2\x80\x9d'
p3778
I133
sS'treasure'
p3779
I132
sS'behind'
p3780
I130
sS'raffies'
p3781
I133
sS'help\xe2\x80\x9d'
p3782
I133
sS'black'
p3783
I121
sS'mikay'
p3784
I133
sS'get'
p3785
I36
sS'reps'
p3786
I133
sS'killers'
p3787
I133
sS'gee'
p3788
I133
sS'pinsan'
p3789
I133
sS'gem'
p3790
I133
sS'thanksss'
p3791
I133
sS'morning'
p3792
I109
sS'miles'
p3793
I129
sS'miley'
p3794
I133
sS'buhok'
p3795
I133
sS'kernel'
p3796
I133
sS'declared'
p3797
I133
sS'kermit'
p3798
I133
sS'wonder'
p3799
I125
sS'rt:can'
p3800
I133
sS'kwento'
p3801
I133
sS'sleepin'
p3802
I133
sS'24/7'
p3803
I133
sS'chaminade'
p3804
I132
sS'enough'
p3805
I124
sS'reading'
p3806
I131
sS'\xe2\x80\x93colette'
p3807
I133
sS'retardedly'
p3808
I133
sS'weird\xe2\x80\x9d'
p3809
I133
sS'syrup\xe2\x80\x9d'
p3810
I133
sS'august'
p3811
I133
sS'parent'
p3812
I133
sS'killing'
p3813
I128
sS'invite'
p3814
I131
sS'jk'
p3815
I128
sS'tub'
p3816
I133
sS'js'
p3817
I130
sS'dates'
p3818
I132
sS'warmness'
p3819
I133
sS'trader'
p3820
I133
sS'=)))'
p3821
I131
sS'dated'
p3822
I132
sS'remake'
p3823
I133
sS'guardians'
p3824
I133
sS'among'
p3825
I133
sS'6:39'
p3826
I133
sS'cancel'
p3827
I133
sS'ya\xe2\x80\x9d'
p3828
I133
sS'nose'
p3829
I132
sS'trolling'
p3830
I133
sS'jan&mar'
p3831
I133
sS'ucla'
p3832
I133
sS'mark'
p3833
I132
sS'arte'
p3834
I133
sS'mars'
p3835
I133
sS'mary'
p3836
I133
sS'shopping'
p3837
I131
sS'happyyyy'
p3838
I133
sS'30000'
p3839
I133
sS'elefante'
p3840
I133
sS'dramatic'
p3841
I133
sS'wake'
p3842
I124
sS'hardcore'
p3843
I132
sS'those'
p3844
I100
sS'sound'
p3845
I123
sS'predicament'
p3846
I133
sS'kappa'
p3847
I133
sS'turtles'
p3848
I133
sS'slumber'
p3849
I132
sS'ratchet'
p3850
I133
sS'ignition'
p3851
I133
sS'profiled'
p3852
I133
sS'sleepyheaaaad'
p3853
I133
sS'seein'
p3854
I133
sS'rubbing'
p3855
I133
sS'coffee'
p3856
I127
sS'sleeping'
p3857
I127
sS'middle'
p3858
I127
sS'sudden'
p3859
I130
sS'protein'
p3860
I133
sS'everyday'
p3861
I128
sS'diseases'
p3862
I133
sS'bags'
p3863
I132
sS'different'
p3864
I121
sS'pat'
p3865
I133
sS'doctor'
p3866
I133
sS'balik'
p3867
I133
sS'pay'
p3868
I130
sS'sama'
p3869
I130
sS'woodland'
p3870
I133
sS'same'
p3871
I99
sS'speech'
p3872
I133
sS'pag'
p3873
I131
sS'stepped'
p3874
I133
sS'emojis'
p3875
I129
sS'pan'
p3876
I133
sS'disappointment'
p3877
I133
sS'extended'
p3878
I133
sS'assist'
p3879
I133
sS'bopis'
p3880
I133
sS'running'
p3881
I130
sS'stairwell'
p3882
I133
sS'totally'
p3883
I128
sS'weave'
p3884
I132
sS'drain'
p3885
I133
sS'amazes'
p3886
I133
sS'bottle'
p3887
I132
sS'yet??"'
p3888
I133
sS'drais'
p3889
I133
sS'money'
p3890
I123
sS'sights'
p3891
I133
sS'gated'
p3892
I133
sS"dm's"
p3893
I133
sS'asthma'
p3894
I133
sS'pile'
p3895
I133
sS'4'
p3896
I115
sS'pill'
p3897
I133
sS'borat'
p3898
I132
sS'jake'
p3899
I132
sS'mom'
p3900
I96
sS'mob'
p3901
I133
sS'disappointed'
p3902
I130
sS'serves'
p3903
I133
sS'either'
p3904
I130
sS'hallelujah'
p3905
I133
sS'passionate'
p3906
I133
sS'dolo'
p3907
I133
sS'jews'
p3908
I130
sS'titan'
p3909
I133
sS'images'
p3910
I133
sS'organizing'
p3911
I133
sS'matching'
p3912
I130
sS'gross'
p3913
I130
sS'outs'
p3914
I133
sS'"it"'
p3915
I133
sS'naaaaaa'
p3916
I133
sS'kms'
p3917
I132
sS'comicon'
p3918
I133
sS'dispensary'
p3919
I133
sS'pa-ombre'
p3920
I133
sS'seconds'
p3921
I132
sS'fitness'
p3922
I133
sS'patigasan'
p3923
I133
sS'broken'
p3924
I133
sS'vacation\xe2\x80\x9d'
p3925
I133
sS"dexter's"
p3926
I133
sS':-/////'
p3927
I133
sS'road'
p3928
I132
sS'referenced'
p3929
I133
sS'yeyyyyy'
p3930
I133
sS'spreading'
p3931
I133
sS'auschwitz'
p3932
I133
sS'blessed'
p3933
I131
sS'strip'
p3934
I131
sS'landi'
p3935
I132
sS'gomez'
p3936
I133
sS'fantasy'
p3937
I133
sS'precious\xe2\x98\xba\xef\xb8\x8f\xe2\x98\xba\xef\xb8\x8f'
p3938
I133
sS'lions'
p3939
I133
sS'swerte'
p3940
I133
sS'hysterical'
p3941
I132
sS'me\xe2\x80\xa6it'
p3942
I133
sS'chats'
p3943
I132
sS'mornings'
p3944
I130
sS'buggy'
p3945
I133
sS'happier'
p3946
I133
sS'khloe'
p3947
I133
sS'romantic'
p3948
I132
sS"wasn't"
p3949
I121
sS'ronaldo'
p3950
I131
sS'ugggh'
p3951
I133
sS'blasians'
p3952
I133
sS'yessssssssssdssssssdfjdjdjfbrjrjrb'
p3953
I133
sS'videos'
p3954
I131
sS'savemesf'
p3955
I132
sS'deep'
p3956
I133
sS'fellow'
p3957
I133
sS'file'
p3958
I131
sS'girlfriend'
p3959
I131
sS'film'
p3960
I133
sS'fill'
p3961
I132
sS'again'
p3962
I99
sS'bro!"'
p3963
I133
sS'effin'
p3964
I133
sS'-and'
p3965
I133
sS'weeee'
p3966
I131
sS'obsessed'
p3967
I127
sS'students'
p3968
I132
sS'brandy'
p3969
I132
sS'important'
p3970
I130
sS'chris'
p3971
I132
sS'turtleneck'
p3972
I133
sS"life's"
p3973
I133
sS'unsee'
p3974
I133
sS'spills'
p3975
I133
sS'u'
p3976
I46
sS'alright'
p3977
I131
sS'starting'
p3978
I128
sS'growling'
p3979
I133
sS'liar'
p3980
I131
sS'forget'
p3981
I121
sS"sittin'"
p3982
I133
sS'dollar'
p3983
I133
sS'shrooms'
p3984
I128
sS'commute'
p3985
I132
sS'children'
p3986
I133
sS'sumuka'
p3987
I133
sS'imma'
p3988
I125
sS'ulittttt'
p3989
I133
sS'mornin'
p3990
I132
sS'sitting'
p3991
I131
sS'bestie'
p3992
I131
sS'fall'
p3993
I129
sS'difference'
p3994
I133
sS'upppp'
p3995
I133
sS'(etc.?)'
p3996
I133
sS'washing'
p3997
I133
sS'drugged'
p3998
I132
sS'celebrity'
p3999
I133
sS'yeah!!!"'
p4000
I133
sS'burger'
p4001
I132
sS'zero'
p4002
I132
sS'perspective'
p4003
I133
sS'further'
p4004
I133
sS'psycho'
p4005
I132
sS'ribbon'
p4006
I133
sS'90s'
p4007
I132
sS'stood'
p4008
I132
sS'abs'
p4009
I132
sS'abt'
p4010
I133
sS'tribute'
p4011
I133
sS'public'
p4012
I133
sS'tattoos'
p4013
I129
sS'5001'
p4014
I133
sS'ggv'
p4015
I133
sS'verrrrry'
p4016
I133
sS'shiiitttt'
p4017
I133
sS'yaaaaas'
p4018
I133
sS'hmmmm'
p4019
I133
sS'fwy'
p4020
I133
sS'do?"i\'d'
p4021
I133
sS'\xe2\x9d\xa4\xef\xb8\x8f\xe2\x9d\xa4\xef\xb8\x8f\xe2\x9d\xa4\xef\xb8\x8f\xe2\x9d\xa4\xef\xb8\x8f\xe2\x9d\xa4\xef\xb8\x8f'
p4022
I132
sS'transit'
p4023
I133
sS'africa'
p4024
I133
sS'you\xe2\x80\x99re'
p4025
I133
sS'eye'
p4026
I127
sS'twd'
p4027
I133
sS'destination'
p4028
I133
sS'texting'
p4029
I128
sS'two'
p4030
I115
sS'omgggg'
p4031
I132
sS'splash'
p4032
I133
sS'healthy.\xe2\x80\x9d'
p4033
I133
sS'diamond'
p4034
I133
sS'much-needed'
p4035
I133
sS'tasking'
p4036
I133
sS'camye'
p4037
I133
sS"ain't"
p4038
I117
sS'that\xe2\x80\x9d'
p4039
I132
sS'youuuuu'
p4040
I132
sS'town'
p4041
I129
sS"spencer's"
p4042
I133
sS'none'
p4043
I130
sS'hour'
p4044
I123
sS'sucks'
p4045
I129
sS'dev'
p4046
I131
sS'del'
p4047
I132
sS'dem'
p4048
I133
sS'den'
p4049
I133
sS'def'
p4050
I132
sS'exciteeeeddddd'
p4051
I133
sS'shark'
p4052
I133
sS'wazowski'
p4053
I133
sS'share'
p4054
I133
sS'confirmation'
p4055
I133
sS'rainstorm'
p4056
I133
sS'numbers'
p4057
I131
sS'purchased'
p4058
I132
sS'pamasahe'
p4059
I133
sS'ughhhh'
p4060
I132
sS'needs'
p4061
I124
sS'awkward'
p4062
I127
sS'needy'
p4063
I133
sS'plans'
p4064
I129
sS'comfort'
p4065
I133
sS'fame'
p4066
I132
sS'needa'
p4067
I133
sS'lesbehonest'
p4068
I133
sS'advice'
p4069
I133
sS'n\xc2\xa1ggas'
p4070
I133
sS'blood'
p4071
I127
sS'blacker'
p4072
I133
sS'tweeting'
p4073
I132
sS'playing'
p4074
I130
sS'mollies'
p4075
I133
sS"that's"
p4076
I72
sS'through'
p4077
I119
sS'cabana'
p4078
I132
sS'existence'
p4079
I132
sS'myselfwanting'
p4080
I133
sS'24'
p4081
I121
sS'messed'
p4082
I131
sS'20'
p4083
I127
sS'21'
p4084
I133
sS'22'
p4085
I132
sS'late'
p4086
I125
sS'pch'
p4087
I133
sS'messes'
p4088
I133
sS'baliw'
p4089
I133
sS'at\xe2\x80\xa6'
p4090
I133
sS'9/2014'
p4091
I133
sS'someone'
p4092
I102
sS'siyaaaaa'
p4093
I133
sS'seeking'
p4094
I133
sS'uhm'
p4095
I132
sS'ralphs'
p4096
I133
sS"sammy's"
p4097
I133
sS'naging'
p4098
I133
sS'struggling'
p4099
I133
sS'easily'
p4100
I130
sS'pregnant'
p4101
I132
sS'drake'
p4102
I133
sS'habits'
p4103
I132
sS'everyone'
p4104
I104
sS'delicious'
p4105
I133
sS'house'
p4106
I99
sS'fish'
p4107
I133
sS'hard'
p4108
I112
sS'tooooon'
p4109
I133
sS'toooooo'
p4110
I132
sS'foxes'
p4111
I133
sS'oil'
p4112
I133
sS'huhuhuhuhu'
p4113
I133
sS'perry'
p4114
I122
sS'childish'
p4115
I133
sS'pring'
p4116
I133
sS'"go'
p4117
I133
sS'acting'
p4118
I132
sS"they'll"
p4119
I132
sS'print'
p4120
I133
sS'today...)'
p4121
I133
sS'unswallow\xe2\x80\x9d'
p4122
I133
sS'giveaway'
p4123
I133
sS'members'
p4124
I133
sS"babie's"
p4125
I133
sS'santaana'
p4126
I133
sS'beginning'
p4127
I133
sS'computers'
p4128
I133
sS'taha'
p4129
I133
sS'concluded'
p4130
I133
sS'dont'
p4131
I130
sS'hyde\xe2\x98\xba\xef\xb8\x8f'
p4132
I133
sS'done'
p4133
I112
sS'flacco'
p4134
I133
sS'cups'
p4135
I133
sS'visors'
p4136
I133
sS'kailee'
p4137
I133
sS'mundo'
p4138
I133
sS'18+'
p4139
I133
sS'5th'
p4140
I133
sS'least'
p4141
I129
sS'paint'
p4142
I133
sS'statement'
p4143
I131
sS'"wtf'
p4144
I133
sS'mama'
p4145
I126
sS'rates'
p4146
I133
sS'muscles'
p4147
I133
sS'eating/drinking'
p4148
I133
sS'para'
p4149
I129
sS'you\xe2\x80\x9d'
p4150
I131
sS'mentality'
p4151
I133
sS'part'
p4152
I127
sS'trolls'
p4153
I133
sS'believe'
p4154
I115
sS'woops'
p4155
I133
sS'b'
p4156
I133
sS'gotten'
p4157
I131
sS'youth'
p4158
I132
sS'supposed'
p4159
I126
sS'treated'
p4160
I133
sS'yoself'
p4161
I133
sS'showers'
p4162
I132
sS'confirms'
p4163
I133
sS'mountain'
p4164
I131
sS'built'
p4165
I131
sS'dancing'
p4166
I132
sS'couch'
p4167
I133
sS'lifts'
p4168
I133
sS'habakabejaka'
p4169
I133
sS'obviously'
p4170
I133
sS'commentary'
p4171
I133
sS'waitin'
p4172
I130
sS'godfather'
p4173
I133
sS'most'
p4174
I113
sS'sinong'
p4175
I133
sS'charm'
p4176
I133
sS'"tell'
p4177
I133
sS'11:10'
p4178
I133
sS'11:11'
p4179
I132
sS'extremely'
p4180
I133
sS'chard'
p4181
I133
sS'ka'
p4182
I102
sS'kk'
p4183
I133
sS'kj'
p4184
I127
sS'ko'
p4185
I88
sS'kp'
p4186
I129
sS'nagffavorite'
p4187
I133
sS'aaaaaand'
p4188
I133
sS'kakayanin'
p4189
I133
sS'kamukhaaaa'
p4190
I133
sS'finn'
p4191
I133
sS'chock'
p4192
I133
sS'fine'
p4193
I129
sS'find'
p4194
I106
sS'chimes'
p4195
I133
sS'giant'
p4196
I133
sS'konti'
p4197
I133
sS'nervous'
p4198
I132
sS'ruin'
p4199
I130
sS'poppin'
p4200
I133
sS'idiots'
p4201
I133
sS'marathons'
p4202
I133
sS'8'
p4203
I126
sS'hoesis'
p4204
I133
sS"dm'd"
p4205
I133
sS'happen!?"'
p4206
I133
sS'toddlers'
p4207
I133
sS'sila'
p4208
I132
sS'courage'
p4209
I133
sS'resolve'
p4210
I133
sS'common'
p4211
I133
sS'look.\xe2\x80\x9d'
p4212
I133
sS'vine'
p4213
I130
sS'lion'
p4214
I132
sS'individual'
p4215
I131
sS'(ratatouille)\xe2\x80\x9d'
p4216
I133
sS'retweet'
p4217
I133
sS'cozy'
p4218
I133
sS'expert'
p4219
I132
sS'please'
p4220
I97
sS'paisa'
p4221
I133
sS'up.\xe2\x80\x9d'
p4222
I133
sS'burned'
p4223
I133
sS'donate'
p4224
I133
sS'yick'
p4225
I132
sS'ikr'
p4226
I132
sS'mailbox'
p4227
I133
sS'foothill'
p4228
I133
sS'outsidelands'
p4229
I129
sS'pissed'
p4230
I132
sS'magwwork'
p4231
I133
sS'restaurant'
p4232
I133
sS'foreign'
p4233
I133
sS'point'
p4234
I129
sS'simple'
p4235
I131
sS'smother'
p4236
I133
sS'panicking'
p4237
I133
sS'dances'
p4238
I133
sS'die\xe2\x80\x9dplease'
p4239
I133
sS'simply'
p4240
I132
sS'trapaholic'
p4241
I133
sS'kadiiriiiii'
p4242
I133
sS'headaches'
p4243
I132
sS'raise'
p4244
I133
sS'dibaaaaaaa'
p4245
I133
sS'tgif'
p4246
I133
sS'balikan'
p4247
I133
sS"michael's"
p4248
I133
sS'secret'
p4249
I133
sS'dropping'
p4250
I132
sS'meeting'
p4251
I131
sS'kathy'
p4252
I133
sS'gay'
p4253
I121
sS'kuya'
p4254
I133
sS'gas'
p4255
I133
sS'hahahhaah'
p4256
I133
sS'understand'
p4257
I126
sS'gah'
p4258
I133
sS'nandyan'
p4259
I133
sS'pierce'
p4260
I131
sS'solid'
p4261
I131
sS'bill'
p4262
I132
sS'convo'
p4263
I128
sS'fux'
p4264
I133
sS'patingin'
p4265
I133
sS'fun'
p4266
I101
sS'yaaan'
p4267
I133
sS'sriracha'
p4268
I133
sS'portugal'
p4269
I132
sS'cents'
p4270
I133
sS'do\xe2\x98\xba\xef\xb8\x8f\xe2\x98\xba\xef\xb8\x8f'
p4271
I133
sS'echelon'
p4272
I133
sS'itself'
p4273
I133
sS'arenas'
p4274
I133
sS'yata'
p4275
I131
sS'*this*'
p4276
I133
sS'monroe'
p4277
I133
sS'hahahahha'
p4278
I130
sS'migraine'
p4279
I133
sS'puig'
p4280
I133
sS'basta'
p4281
I133
sS'wine."'
p4282
I133
sS'pakiramdam'
p4283
I133
sS'woowowow'
p4284
I133
sS'you.\xe2\x9d\x8c'
p4285
I133
sS'assignment'
p4286
I133
sS'syn'
p4287
I133
sS'moment'
p4288
I127
sS'purpose'
p4289
I132
sS'bootcut'
p4290
I133
sS'hows'
p4291
I133
sS'werewolf'
p4292
I133
sS'spent'
p4293
I132
sS'flags'
p4294
I131
sS'y'
p4295
I132
sS'yeyyy'
p4296
I133
sS'spend'
p4297
I130
sS'\xe2\x9d\xa4'
p4298
I131
sS'i\xe2\x80\x99d'
p4299
I133
sS'ldr'
p4300
I133
sS'shape'
p4301
I131
sS'asdfghjkl'
p4302
I133
sS'letting'
p4303
I133
sS'cut'
p4304
I125
sS'cup'
p4305
I125
sS'hated'
p4306
I131
sS'cuz'
p4307
I119
sS'source'
p4308
I133
sS'homies'
p4309
I133
sS'snap'
p4310
I126
sS'smmm'
p4311
I133
sS'easter'
p4312
I133
sS'excited'
p4313
I118
sS'hates'
p4314
I132
sS'ridiculously'
p4315
I133
sS'bio'
p4316
I133
sS'big'
p4317
I115
sS'8:30pm'
p4318
I133
sS'bit'
p4319
I132
sS'curfew'
p4320
I133
sS'kraby'
p4321
I133
sS'ha\xe2\x80\x9d'
p4322
I133
sS'indication'
p4323
I133
sS'bahay'
p4324
I133
sS'google'
p4325
I133
sS'often'
p4326
I132
sS'humorous'
p4327
I133
sS'back'
p4328
I73
sS'ah'
p4329
I125
sS'nakakakilig'
p4330
I133
sS'ehhh'
p4331
I132
sS'ourselves'
p4332
I132
sS'contacts'
p4333
I131
sS'apush'
p4334
I133
sS'affects'
p4335
I133
sS'decision'
p4336
I129
sS'proficient'
p4337
I133
sS'pep'
p4338
I133
sS'per'
p4339
I132
sS'pelo'
p4340
I133
sS'sushi\xe2\x98\xba\xef\xb8\x8f'
p4341
I133
sS'pee'
p4342
I132
sS'invade'
p4343
I133
sS'laughing'
p4344
I132
sS'patient'
p4345
I130
sS'300'
p4346
I132
sS'ufc'
p4347
I133
sS'costumer'
p4348
I133
sS'costumes'
p4349
I132
sS'sickness\xe2\x80\x9d'
p4350
I133
sS'khasackstan'
p4351
I133
sS'jeezus'
p4352
I133
sS'piles'
p4353
I133
sS'iced'
p4354
I133
sS'drama'
p4355
I132
sS'beans'
p4356
I133
sS'germany'
p4357
I133
sS'hahahah'
p4358
I133
sS'daisies'
p4359
I131
sS'idgi'
p4360
I133
sS'aliens'
p4361
I133
sS'framed'
p4362
I133
sS'steven'
p4363
I133
sS'lesson'
p4364
I132
sS'faaaaaavorite'
p4365
I133
sS'calming'
p4366
I133
sS'pronunciation'
p4367
I133
sS'infected'
p4368
I133
sS'parting'
p4369
I133
sS'forward'
p4370
I130
sS'bored'
p4371
I128
sS'pimpin'
p4372
I133
sS'boys'
p4373
I123
sS'tapos'
p4374
I131
sS'\xe2\x99\xa1'
p4375
I133
sS'laziest'
p4376
I133
sS'planet'
p4377
I133
sS"tomorrow's"
p4378
I133
sS'planes'
p4379
I132
sS'"ewwww'
p4380
I133
sS'geese'
p4381
I133
sS'single'
p4382
I127
sS'cure'
p4383
I132
sS'diving'
p4384
I133
sS'cafe'
p4385
I132
sS'stripper'
p4386
I130
sS'200k'
p4387
I133
sS'hahhhahaahah'
p4388
I133
sS'plugged'
p4389
I133
sS"ugly'"
p4390
I133
sS'ganyan'
p4391
I133
sS'prepared'
p4392
I131
sS'lens'
p4393
I133
sS"guy's"
p4394
I133
sS'gulay'
p4395
I133
sS'desert'
p4396
I132
sS'n\xc2\xa1gga'
p4397
I133
sS'scodelario'
p4398
I133
sS'implied'
p4399
I133
sS'noon'
p4400
I132
sS'kayoooooo'
p4401
I133
sS'groceries'
p4402
I133
sS'westwood'
p4403
I133
sS'peanut'
p4404
I129
sS'retweets'
p4405
I133
sS'fatal'
p4406
I133
sS'queen'
p4407
I123
sS'mouf'
p4408
I133
sS'putting'
p4409
I131
sS'other\xe2\x80\x9d'
p4410
I133
sS'looooove'
p4411
I133
sS'entire'
p4412
I124
sS'shock'
p4413
I133
sS'joes'
p4414
I133
sS'havent'
p4415
I133
sS'mwah'
p4416
I130
sS'block/ignore'
p4417
I133
sS'quakes'
p4418
I133
sS'108%'
p4419
I133
sS'uncomfortable'
p4420
I132
sS'chicago'
p4421
I133
sS'giving'
p4422
I130
sS'pipes'
p4423
I131
sS'piper'
p4424
I126
sS'fat'
p4425
I127
sS'hubba'
p4426
I133
sS'access'
p4427
I133
sS'exercise'
p4428
I131
sS'repeatedly.\xe2\x80\x9d'
p4429
I133
sS'---->'
p4430
I133
sS'sins'
p4431
I133
sS'nonexistent'
p4432
I132
sS'sino'
p4433
I130
sS'packing'
p4434
I131
sS'sink'
p4435
I133
sS'others'
p4436
I133
sS'luis'
p4437
I132
sS'love\xe2\x9d\xa4\xef\xb8\x8f'
p4438
I133
sS'extreme'
p4439
I132
sS'38'
p4440
I133
sS'talent'
p4441
I133
sS'31'
p4442
I133
sS'30'
p4443
I128
sS'36'
p4444
I133
sS'35'
p4445
I133
sS'honor'
p4446
I133
sS'named'
p4447
I133
sS'crashing'
p4448
I132
sS'private'
p4449
I133
sS'names'
p4450
I131
sS'cha'
p4451
I133
sS'hahahhahaha'
p4452
I133
sS'oils'
p4453
I133
sS'themselves'
p4454
I131
sS'trait'
p4455
I133
sS'train'
p4456
I132
sS'harvest'
p4457
I133
sS'account'
p4458
I132
sS'f'
p4459
I130
sS'unreal'
p4460
I133
sS'obvious'
p4461
I133
sS'praise'
p4462
I131
sS'thuggin'
p4463
I133
sS'simbang'
p4464
I133
sS'unpacking'
p4465
I133
sS'reserved'
p4466
I133
sS'snacks'
p4467
I133
sS'cappuccino'
p4468
I133
sS'bones'
p4469
I133
sS'lame'
p4470
I133
sS'boxing'
p4471
I133
sS'responsibilities'
p4472
I133
sS'whiteboys'
p4473
I133
sS'stock'
p4474
I133
sS'profile'
p4475
I131
sS'collection'
p4476
I133
sS'cuddling'
p4477
I133
sS'chasing'
p4478
I133
sS'lines'
p4479
I133
sS'chief'
p4480
I132
sS'mcrib'
p4481
I133
sS'addiction'
p4482
I132
sS'ugly\xe2\x80\x9d'
p4483
I133
sS'cease-fire'
p4484
I133
sS'ivana'
p4485
I132
sS'flattering'
p4486
I133
sS'horny'
p4487
I132
sS'galaxy'
p4488
I133
sS'bunch'
p4489
I133
sS'le'
p4490
I133
sS'marshmallow'
p4491
I133
sS'la'
p4492
I125
sS'tse'
p4493
I133
sS'\xe2\x9d\xa4\xef\xb8\x8fyou'
p4494
I133
sS'winning'
p4495
I133
sS'age'
p4496
I133
sS'ruffians'
p4497
I133
sS'criminal'
p4498
I133
sS'dad'
p4499
I118
sS'dan'
p4500
I133
sS'spell'
p4501
I133
sS'dat'
p4502
I132
sS'mention'
p4503
I132
sS'daw'
p4504
I129
sS'kindness'
p4505
I133
sS'day'
p4506
I38
sS'phineas'
p4507
I133
sS'blazing'
p4508
I132
sS'mars-'
p4509
I133
sS'lingerie'
p4510
I133
sS'magyabang'
p4511
I133
sS'warner'
p4512
I132
sS'stayway'
p4513
I133
sS'sexual'
p4514
I133
sS'popping'
p4515
I133
sS'nyahahahahahaha'
p4516
I133
sS'rey'
p4517
I133
sS'defend'
p4518
I133
sS'repress'
p4519
I133
sS'disick'
p4520
I133
sS'barley'
p4521
I133
sS'omygahd'
p4522
I133
sS'ref'
p4523
I132
sS'math'
p4524
I132
sS'jessica'
p4525
I133
sS'\xe2\x80\x9csometimes'
p4526
I133
sS'franz'
p4527
I133
sS'rn"don\'t'
p4528
I133
sS'backwards'
p4529
I132
sS'yard'
p4530
I132
sS':(\xe2\x80\x9d'
p4531
I133
sS'magbreaaaaakkkkk'
p4532
I133
sS'(only'
p4533
I133
sS'south'
p4534
I132
sS'reached'
p4535
I133
sS'sadly'
p4536
I132
sS'monkey'
p4537
I133
sS'love"'
p4538
I133
sS'habit'
p4539
I133
sS'hilary'
p4540
I133
sS'hahahahahhaa'
p4541
I133
sS'mondays'
p4542
I133
sS'messing'
p4543
I132
sS'gear'
p4544
I133
sS'explanation'
p4545
I133
sS'nobody'
p4546
I130
sS'ipad'
p4547
I132
sS'loved'
p4548
I130
sS'shampoo'
p4549
I133
sS'loves'
p4550
I125
sS'visited'
p4551
I133
sS'coodles'
p4552
I133
sS'wakes'
p4553
I132
sS'ehehe'
p4554
I132
sS'comfortable'
p4555
I131
sS'have'
p4556
I23
sS'throat'
p4557
I133
sS'youuuuuuu'
p4558
I133
sS'(still)'
p4559
I133
sS'min'
p4560
I129
sS'mia'
p4561
I131
sS'gravity'
p4562
I133
sS'parks'
p4563
I131
sS'mix'
p4564
I130
sS'unless'
p4565
I131
sS'kbyeeeeee'
p4566
I133
sS'disappointments'
p4567
I133
sS"where's"
p4568
I133
sS'prisoner'
p4569
I133
sS'payment'
p4570
I133
sS'gather'
p4571
I133
sS'request'
p4572
I133
sS'disease'
p4573
I133
sS'occasion'
p4574
I133
sS'normally'
p4575
I133
sS'wruuuuu'
p4576
I133
sS'text'
p4577
I107
sS'\xe2\x9d\xa4\xef\xb8\x8fstrippers"'
p4578
I133
sS'magtatagal'
p4579
I133
sS'thicker'
p4580
I133
sS'inspiring'
p4581
I133
sS'5pm'
p4582
I133
sS'knowledge'
p4583
I132
sS'housewives'
p4584
I133
sS'satan'
p4585
I129
sS'systemone'
p4586
I131
sS'pull'
p4587
I128
sS'beat'
p4588
I130
sS'photography'
p4589
I133
sS'coworker'
p4590
I125
sS'carmiiiii'
p4591
I133
sS'bear'
p4592
I133
sS'perfection'
p4593
I130
sS'timing'
p4594
I131
sS'kardashians'
p4595
I133
sS'awkwardness'
p4596
I133
sS'ganan'
p4597
I133
sS'teams'
p4598
I133
sS'including'
p4599
I133
sS'fixed'
p4600
I133
sS"laura's"
p4601
I133
sS'exists'
p4602
I133
sS'showdown'
p4603
I133
sS'straight"'
p4604
I133
sS'stadium:49653largest'
p4605
I133
sS'interview'
p4606
I130
sS'bruno'
p4607
I132
sS'routine'
p4608
I133
sS'ebola'
p4609
I128
sS'progress'
p4610
I133
sS'pustahan'
p4611
I132
sS'junkies'
p4612
I133
sS'legit'
p4613
I133
sS'1000th'
p4614
I133
sS'empathy'
p4615
I133
sS'day*"savannah'
p4616
I133
sS'freely'
p4617
I133
sS'taking'
p4618
I123
sS'busted'
p4619
I133
sS'conquered'
p4620
I133
sS'wear'
p4621
I122
sS'10:/'
p4622
I133
sS'laugh'
p4623
I126
sS'fukushima'
p4624
I133
sS'leaked'
p4625
I133
sS'venn'
p4626
I133
sS'yoooooo'
p4627
I133
sS'pouring'
p4628
I133
sS'49er'
p4629
I133
sS"it's"
p4630
I33
sS'home"'
p4631
I133
sS'gaza'
p4632
I133
sS'tseeeee'
p4633
I133
sS"it'd"
p4634
I131
sS'wear\xe2\x80\x9d'
p4635
I133
sS'finished'
p4636
I129
sS'kyrie'
p4637
I133
sS'huehue'
p4638
I131
sS"run's"
p4639
I133
sS'multi'
p4640
I133
sS'bye'
p4641
I111
sS'ap'
p4642
I129
sS'plain'
p4643
I133
sS'gurrrlllssss'
p4644
I133
sS'frustrating'
p4645
I133
sS'napunta'
p4646
I133
sS'almost'
p4647
I117
sS'partner'
p4648
I132
sS'hiccups...for'
p4649
I133
sS')'
p4650
I133
sS'practice'
p4651
I128
sS'selfish'
p4652
I133
sS'fucken'
p4653
I133
sS'sisters'
p4654
I132
sS'retard'
p4655
I133
sS'center'
p4656
I132
sS'seth'
p4657
I132
sS'antonio'
p4658
I133
sS'thought'
p4659
I110
sS'dakota)'
p4660
I133
sS'oops'
p4661
I132
sS'position'
p4662
I132
sS'disneylandgoats"'
p4663
I133
sS'usual'
p4664
I131
sS'tone'
p4665
I133
sS'laki'
p4666
I133
sS'field'
p4667
I132
sS'hippies'
p4668
I132
sS'add'
p4669
I131
sS'gms'
p4670
I133
sS'twerk'
p4671
I132
sS'match'
p4672
I133
sS'fyi'
p4673
I132
sS'puppy'
p4674
I129
sS'like'
p4675
I26
sS'inviting'
p4676
I132
sS'sofa'
p4677
I133
sS'drummers'
p4678
I133
sS'chick'
p4679
I131
sS'works'
p4680
I132
sS'soft'
p4681
I133
sS'jan'
p4682
I132
sS"stewie's"
p4683
I133
sS'alive'
p4684
I130
sS'hair'
p4685
I114
sS'proper'
p4686
I133
sS'happens'
p4687
I132
sS'corpse'
p4688
I132
sS'kyron'
p4689
I133
sS'assuming'
p4690
I133
sS'sisigggggg'
p4691
I133
sS'ngayon'
p4692
I132
sS'dca'
p4693
I128
sS'kristin'
p4694
I133
sS'although'
p4695
I132
sS'pagkaread'
p4696
I133
sS'noisy'
p4697
I133
sS'nakakakita'
p4698
I133
sS':-('
p4699
I132
sS':-)'
p4700
I122
sS'actual'
p4701
I131
sS'justin'
p4702
I131
sS'pieology'
p4703
I133
sS'"magbbreak'
p4704
I133
sS'blessings'
p4705
I133
sS'introduced'
p4706
I133
sS'playoff'
p4707
I133
sS'female'
p4708
I133
sS'dead.\xe2\x80\x9d'
p4709
I133
sS'(the'
p4710
I133
sS'1987'
p4711
I133
sS'meeee'
p4712
I133
sS'firefighter'
p4713
I133
sS'biggest'
p4714
I129
sS'maze'
p4715
I133
sS'buy'
p4716
I119
sS'chatting'
p4717
I133
sS'bus'
p4718
I132
sS'coke'
p4719
I132
sS'but'
p4720
I25
sS'bun'
p4721
I132
sS'bug'
p4722
I133
sS'wise'
p4723
I131
sS'glory'
p4724
I133
sS'wish'
p4725
I115
sS'j'
p4726
I133
sS'flip'
p4727
I133
sS'bulaklak'
p4728
I133
sS'minutes'
p4729
I128
sS'houseguest'
p4730
I133
sS'replying'
p4731
I131
sS'measure'
p4732
I132
sS'pie'
p4733
I133
sS'pix'
p4734
I132
sS'commentators'
p4735
I133
sS'shooting'
p4736
I133
sS'campus'
p4737
I132
sS'anino'
p4738
I133
sS'dressed'
p4739
I132
sS'44'
p4740
I133
sS'45'
p4741
I133
sS'42'
p4742
I131
sS'40'
p4743
I133
sS'yesssssss'
p4744
I133
sS'newsi'
p4745
I133
sS'dresses'
p4746
I132
sS'yummiest'
p4747
I133
sS'uba'
p4748
I133
sS'gatsby'
p4749
I133
sS'goin'
p4750
I128
sS'kardashian'
p4751
I129
sS'sicko'
p4752
I133
sS'\xe2\x80\x9c'
p4753
I133
sS'lightskin'
p4754
I132
sS"dog's"
p4755
I133
sS'krispey'
p4756
I133
sS'yell'
p4757
I133
sS'accidents'
p4758
I133
sS'baked'
p4759
I132
sS'meltzer'
p4760
I132
sS'sleep'
p4761
I101
sS'hating'
p4762
I133
sS'hate'
p4763
I86
sS'hypocrite-tennessee'
p4764
I133
sS'(for'
p4765
I133
sS'tweet'
p4766
I117
sS'midseason'
p4767
I133
sS'under'
p4768
I131
sS'pride'
p4769
I133
sS'lure'
p4770
I133
sS'stanton'
p4771
I133
sS'risk'
p4772
I133
sS'lololol'
p4773
I132
sS'every'
p4774
I95
sS'jack'
p4775
I133
sS'school'
p4776
I94
sS'bestfriend'
p4777
I131
sS'omgeeeeeeeeeeeee'
p4778
I133
sS'enjoy'
p4779
I130
sS'almond'
p4780
I130
sS'estimates'
p4781
I133
sS'direct'
p4782
I130
sS'nail'
p4783
I132
sS'street'
p4784
I130
sS"porto's"
p4785
I133
sS'blue'
p4786
I131
sS'hide'
p4787
I130
sS'kadiri'
p4788
I132
sS'disney'
p4789
I113
sS"grandma's"
p4790
I133
sS'soundsational'
p4791
I130
sS'(aka'
p4792
I133
sS'ulterior'
p4793
I133
sS"seabass's"
p4794
I133
sS'path'
p4795
I131
sS'ganon'
p4796
I133
sS'property'
p4797
I133
sS'tx'
p4798
I133
sS'\xe2\x80\x9cgood'
p4799
I133
sS'backpacking'
p4800
I133
sS'leaves'
p4801
I128
sS'changed'
p4802
I126
sS'live?a'
p4803
I133
sS'wdw'
p4804
I133
sS"jen's"
p4805
I133
sS'changes'
p4806
I132
sS'psychedelics?"'
p4807
I133
sS'feelings'
p4808
I127
sS'patience'
p4809
I133
sS'punching'
p4810
I133
sS'kanya.\xe2\x80\x9dweh'
p4811
I133
sS'swings'
p4812
I133
sS'would'
p4813
I61
sS'hospital'
p4814
I132
sS'distributing'
p4815
I133
sS'chargers'
p4816
I133
sS'sorrrryyyyyy'
p4817
I133
sS'love-hate'
p4818
I133
sS'annotations'
p4819
I133
sS'breathe'
p4820
I131
sS'muse'
p4821
I133
sS'phone'
p4822
I120
sS'varsity'
p4823
I133
sS'pouch'
p4824
I133
sS'must'
p4825
I119
sS'me'
p4826
I10
sS'sylmar.\xe2\x80\x9d'
p4827
I133
sS'join'
p4828
I132
sS'mc'
p4829
I133
sS'mo'
p4830
I108
sS'mj'
p4831
I133
sS'mt'
p4832
I133
sS'mr'
p4833
I132
sS'my'
p4834
I5
sS'message!)'
p4835
I133
sS'dolphin'
p4836
I133
sS'mermaids'
p4837
I133
sS'times'
p4838
I122
sS'ceremony'
p4839
I133
sS'end'
p4840
I114
sS'!!)'
p4841
I133
sS'buns'
p4842
I132
sS'toxic'
p4843
I133
sS'badly'
p4844
I129
sS'mess'
p4845
I130
sS'arthritis'
p4846
I132
sS'lump'
p4847
I133
sS'sparkles'
p4848
I133
sS'\xe2\x9d\xa4\xe2\x9d\xa4'
p4849
I133
sS'candid'
p4850
I133
sS'funniest'
p4851
I130
sS'ultimate'
p4852
I133
sS'enter'
p4853
I133
sS'naman'
p4854
I122
sS'waldorf'
p4855
I133
sS'over'
p4856
I75
sS'mukhang'
p4857
I133
sS'crumbs'
p4858
I132
sS'husban'
p4859
I133
sS'exchange'
p4860
I133
sS'makauwi'
p4861
I133
sS'writing'
p4862
I131
sS'imy'
p4863
I131
sS'vandalize'
p4864
I133
sS'tourist'
p4865
I133
sS'borracho'
p4866
I133
sS'shadows'
p4867
I133
sS'notified'
p4868
I133
sS'chuck'
p4869
I130
sS'explode'
p4870
I132
sS'each'
p4871
I125
sS'"gummy'
p4872
I133
sS'\xe2\x9d\x84\xef\xb8\x8f\xe2\x9b\x84\xef\xb8\x8f'
p4873
I133
sS'twas'
p4874
I133
sS'saturday'
p4875
I123
sS'gon'
p4876
I133
sS'labyuuuuuu'
p4877
I133
sS'driving'
p4878
I130
sS'god'
p4879
I94
sS'sleep........where'
p4880
I133
sS'laid'
p4881
I131
sS'up..and'
p4882
I133
sS'nite'
p4883
I117
sS'got'
p4884
I62
sS'washer'
p4885
I133
sS'bald'
p4886
I133
sS'eddiefilms'
p4887
I133
sS'hang'
p4888
I122
sS'harry'
p4889
I123
sS'eternal'
p4890
I133
sS'free'
p4891
I122
sS'rain'
p4892
I129
sS'inom'
p4893
I133
sS'wanted'
p4894
I126
sS'17-13'
p4895
I133
sS'ritual'
p4896
I133
sS'days'
p4897
I101
sS'priorities'
p4898
I132
sS'heck'
p4899
I129
sS'uuwi'
p4900
I133
sS'shootin'
p4901
I132
sS'onto'
p4902
I133
sS'recite'
p4903
I133
sS'already'
p4904
I108
sS'sakin'
p4905
I131
sS'hearing'
p4906
I130
sS'lovable'
p4907
I133
sS'sakit'
p4908
I133
sS'sober'
p4909
I132
sS'calorie'
p4910
I133
sS'blunts'
p4911
I132
sS'mandingo'
p4912
I133
sS'toy'
p4913
I131
sS"'merica"
p4914
I133
sS'sarcasm'
p4915
I132
sS'top'
p4916
I129
sS'jamba'
p4917
I133
sS'too'
p4918
I55
sS'tom'
p4919
I133
sS'ceiling'
p4920
I133
sS'murder'
p4921
I132
sS'tooo'
p4922
I133
sS'tool'
p4923
I133
sS'took'
p4924
I122
sS'yasssss'
p4925
I133
sS'replyan'
p4926
I133
sS'classes'
p4927
I131
sS'prioritize'
p4928
I133
sS'photoshopped'
p4929
I133
sS'rad'
p4930
I133
sS"blog's"
p4931
I133
sS'ran'
p4932
I129
sS'talking'
p4933
I115
sS'rap'
p4934
I132
sS'shine.......early'
p4935
I133
sS'ohhhh'
p4936
I129
sS'botswana'
p4937
I133
sS'ray'
p4938
I130
sS'-'
p4939
I129
sS'snow'
p4940
I132
sS'balling'
p4941
I131
sS'brandon'
p4942
I133
sS'laughed'
p4943
I133
sS'bothered.\xe2\x80\x9d'
p4944
I133
sS'rides'
p4945
I132
sS'though'
p4946
I120
sS'dmed'
p4947
I133
sS'the'
p4948
I4
sS'calabasas.it'
p4949
I133
sS'singular."'
p4950
I133
sS'treats'
p4951
I133
sS'flop'
p4952
I133
sS'freeway'
p4953
I133
sS'storm'
p4954
I133
sS'dipshit'
p4955
I133
sS'pineapple'
p4956
I133
sS'section'
p4957
I133
sS'hahhahaa'
p4958
I133
sS'random'
p4959
I127
sS'walt)'
p4960
I133
sS'colors'
p4961
I133
sS'radio'
p4962
I133
sS'icicles'
p4963
I133
sS'earth'
p4964
I130
sS'sags'
p4965
I133
sS'&told'
p4966
I133
sS'chipotle'
p4967
I132
sS'madaling'
p4968
I133
sS'watch'
p4969
I107
sS'higherrrr'
p4970
I133
sS'amazon'
p4971
I133
sS'omgeeeeeee'
p4972
I133
sS'wedding'
p4973
I132
sS'report'
p4974
I131
sS'actorsingerdancermusiciancomedian'
p4975
I133
sS'twice'
p4976
I133
sS'shots'
p4977
I131
sS'pacifist'
p4978
I133
sS"what've"
p4979
I133
sS'seabass'
p4980
I130
sS'nun'
p4981
I132
sS'bed'
p4982
I101
sS'disturbing'
p4983
I132
sS'noodles'
p4984
I132
sS'glennieeeeee'
p4985
I133
sS'"oh'
p4986
I133
sS'so....this'
p4987
I133
sS'finger'
p4988
I133
sS'hopefully'
p4989
I132
sS'approach'
p4990
I133
sS'discovery'
p4991
I133
sS'tuwang'
p4992
I133
sS'drivin'
p4993
I133
sS'jose'
p4994
I133
sS'lupe'
p4995
I133
sS'confusion'
p4996
I133
sS'weak'
p4997
I133
sS'boss'
p4998
I130
sS'nightmares'
p4999
I132
sS'fugly'
p5000
I132
sS'now."'
p5001
I133
sS'news'
p5002
I129
sS'blasted'
p5003
I133
sS'fault'
p5004
I133
sS'players'
p5005
I131
sS'games'
p5006
I131
sS'faces'
p5007
I133
sS'hypocrites'
p5008
I133
sS'(whispers)'
p5009
I133
sS'epidemic'
p5010
I133
sS'nako'
p5011
I133
sS'trust'
p5012
I132
sS'hitler'
p5013
I133
sS'bingo'
p5014
I133
sS'bathroom'
p5015
I132
sS'incomparable'
p5016
I133
sS'beef'
p5017
I133
sS'"you'
p5018
I133
sS'binge'
p5019
I133
sS'been'
p5020
I82
sS'beer'
p5021
I131
sS'kelso'
p5022
I133
sS'expected'
p5023
I133
sS'disneylandgoats'
p5024
I133
sS'drugs'
p5025
I126
sS'catch'
p5026
I127
sS'n'
p5027
I124
sS'yaaaaay'
p5028
I133
sS'"i'
p5029
I129
sS'phare'
p5030
I133
sS'suggest'
p5031
I133
sS'oookay'
p5032
I133
sS'latinas'
p5033
I133
sS'\xe2\x9d\xa4\xef\xb8\x8f\xe2\x98\x81\xef\xb8\x8f'
p5034
I133
sS'forehead'
p5035
I132
sS'complex'
p5036
I133
sS'yung'
p5037
I127
sS'screw'
p5038
I131
sS'pick'
p5039
I125
sS'coachella'
p5040
I133
sS'springtime'
p5041
I133
sS'characters'
p5042
I133
sS'positives'
p5043
I133
sS'umaasa'
p5044
I133
sS'pics\xe2\x80\x9d'
p5045
I133
sS'charlie'
p5046
I131
sS'degrees.\xe2\x80\xa6'
p5047
I133
sS'ocean'
p5048
I133
sS'werewolves'
p5049
I133
sS'greatest'
p5050
I131
sS'mother'
p5051
I131
sS'alarms'
p5052
I133
sS'sianaaaaaaaa'
p5053
I133
sS'spencer'
p5054
I133
sS'dads'
p5055
I133
sS'leagues'
p5056
I133
sS'assembling'
p5057
I133
sS'burn"'
p5058
I133
sS'grades'
p5059
I133
sS'"fuck'
p5060
I133
sS'sonidito'
p5061
I133
sS'cherry'
p5062
I133
sS'5s'
p5063
I133
sS'gave'
p5064
I126
sS'breaks'
p5065
I133
sS'not\xe2\x80\x9d'
p5066
I132
sS'naiiyak'
p5067
I133
sS'judge'
p5068
I131
sS'fullmetal'
p5069
I133
sS'roach'
p5070
I133
sS'burns'
p5071
I133
sS'gifs'
p5072
I133
sS'brutality'
p5073
I133
sS'gift'
p5074
I131
sS'50'
p5075
I132
sS'specific'
p5076
I133
sS'10ks'
p5077
I133
sS'overrated'
p5078
I133
sS'5$'
p5079
I133
sS'petting'
p5080
I131
sS'nagsusuot'
p5081
I133
sS'emails'
p5082
I132
sS'breached.\xe2\x80\x9d'
p5083
I133
sS'sponge'
p5084
I133
sS'malaysia'
p5085
I133
sS'clubs'
p5086
I132
sS'escape'
p5087
I130
sS'doorstep'
p5088
I132
sS':"">'
p5089
I133
sS'ice'
p5090
I125
sS'everything'
p5091
I108
sS'noooooo"'
p5092
I133
sS'cnn'
p5093
I133
sS'brekkie'
p5094
I132
sS'christmas'
p5095
I128
sS'giaaaaaaa'
p5096
I133
sS'deleted'
p5097
I133
sS'corn'
p5098
I133
sS'disappeared'
p5099
I133
sS'cory'
p5100
I131
sS'chapter'
p5101
I132
sS'malaki'
p5102
I133
sS'papatayin'
p5103
I133
sS'cowboy'
p5104
I133
sS'plum'
p5105
I133
sS'burbank'
p5106
I133
sS'dinner'
p5107
I125
sS'plus'
p5108
I131
sS'efforts'
p5109
I133
sS'facetime'
p5110
I129
sS'aha'
p5111
I130
sS'ferg'
p5112
I133
sS'ahh'
p5113
I129
sS'ppl'
p5114
I127
sS'ahs'
p5115
I133
sS'annotating'
p5116
I133
sS"bradley's"
p5117
I133
sS'rounds'
p5118
I132
sS'nawwww'
p5119
I133
sS'class'
p5120
I110
sS'gig'
p5121
I133
sS'stuck'
p5122
I123
sS'lagi'
p5123
I132
sS'benchwarmers'
p5124
I133
sS'hahhahahaha'
p5125
I132
sS'dank'
p5126
I133
sS'mad-t'
p5127
I133
sS'questionable'
p5128
I133
sS'head'
p5129
I115
sS'6'
p5130
I129
sS'heat'
p5131
I130
sS'uncle'
p5132
I132
sS'removed'
p5133
I133
sS'viva'
p5134
I133
sS'vivo'
p5135
I133
sS'ruined'
p5136
I130
sS'camaro'
p5137
I133
sS'adore'
p5138
I133
sS'90%'
p5139
I133
sS'upset'
p5140
I129
sS'sometime'
p5141
I132
sS'annoying'
p5142
I127
sS'trip'
p5143
I128
sS'ni'
p5144
I129
sS'tix'
p5145
I133
sS'no'
p5146
I49
sS'tit'
p5147
I133
sS'na'
p5148
I94
sS'commercials'
p5149
I133
sS'when'
p5150
I35
sS'ng'
p5151
I105
sS'til'
p5152
I122
sS'tim'
p5153
I131
sS'whet'
p5154
I133
sS'tie'
p5155
I131
sS':-///'
p5156
I130
sS'picture'
p5157
I114
sS'turnup'
p5158
I133
sS'football'
p5159
I127
sS'longer'
p5160
I132
sS'*only*'
p5161
I133
sS'serious'
p5162
I125
sS'vballers'
p5163
I133
sS':))'
p5164
I126
sS'neighbors'
p5165
I133
sS'coach'
p5166
I132
sS'celebs'
p5167
I133
sS'ouch'
p5168
I132
sS'graphing'
p5169
I133
sS'comments'
p5170
I133
sS'row'
p5171
I132
sS'greaking'
p5172
I133
sS'charge'
p5173
I133
sS'sing'
p5174
I126
sS'espa\xc3\xb1ol'
p5175
I133
sS'unfamiliar'
p5176
I133
sS'wallets'
p5177
I133
sS"bae's"
p5178
I133
sS'cool'
p5179
I106
sS'clouds'
p5180
I130
sS'lohan'
p5181
I133
sS'level'
p5182
I130
sS'philippines'
p5183
I133
sS'::lays'
p5184
I133
sS'posts'
p5185
I129
sS'brother'
p5186
I131
sS'quick'
p5187
I132
sS'yall'
p5188
I132
sS'says'
p5189
I121
sS'porn'
p5190
I133
sS'trend'
p5191
I132
sS'fxck'
p5192
I133
sS'saya'
p5193
I133
sS'inaaway'
p5194
I133
sS'sayo'
p5195
I133
sS'bake'
p5196
I132
sS'drinks'
p5197
I132
sS'stressful'
p5198
I132
sS'goes'
p5199
I127
sS'reply'
p5200
I129
sS'kami'
p5201
I132
sS'water'
p5202
I122
sS'baseball'
p5203
I132
sS'(aside'
p5204
I133
sS'tagal'
p5205
I132
sS'pearl~'
p5206
I133
sS'shove'
p5207
I133
sS'healthy'
p5208
I133
sS'rethink'
p5209
I133
sS'guilty'
p5210
I133
sS'exams'
p5211
I133
sS'pagbalik'
p5212
I133
sS'weird'
p5213
I110
sS'shootings'
p5214
I133
sS'case"'
p5215
I133
sS'swerv'
p5216
I132
sS'1st'
p5217
I132
sS'sanitizing'
p5218
I133
sS'"my'
p5219
I132
sS'trinidad'
p5220
I133
sS'russell'
p5221
I133
sS'wrecking'
p5222
I132
sS'sports'
p5223
I128
sS'handles'
p5224
I133
sS'andy'
p5225
I132
sS'iphone'
p5226
I130
sS'memory'
p5227
I132
sS'msg'
p5228
I133
sS'today'
p5229
I46
sS'rios'
p5230
I133
sS'cashier'
p5231
I133
sS'baduy'
p5232
I131
sS'chocolate'
p5233
I127
sS'casey'
p5234
I133
sS'teaser'
p5235
I133
sS'drown'
p5236
I133
sS'ceviche'
p5237
I133
sS'cases'
p5238
I133
sS'siya'
p5239
I133
sS'you!!\xe2\x98\xba\xef\xb8\x8f\xe2\x9d\xa4\xef\xb8\x8f'
p5240
I133
sS'valle'
p5241
I133
sS'pickle'
p5242
I133
sS'unconditional'
p5243
I133
sS'figure'
p5244
I130
sS'performed'
p5245
I133
sS'kys'
p5246
I133
sS'counting'
p5247
I133
sS'shuttup'
p5248
I132
sS'48572\xe2\x80\x9d'
p5249
I133
sS'etches'
p5250
I133
sS'1'
p5251
I126
sS'fourth'
p5252
I132
sS'hihi'
p5253
I121
sS'flavored'
p5254
I133
sS'$100'
p5255
I133
sS'huge'
p5256
I133
sS'birthday'
p5257
I70
sS'1\xe2\x83\xa3'
p5258
I133
sS'obvi'
p5259
I132
sS'unbelievably'
p5260
I133
sS'muggy'
p5261
I133
sS'better.\xe2\x80\x9d'
p5262
I133
sS'gotchaaaa'
p5263
I133
sS'tbh'
p5264
I125
sS'rollin'
p5265
I133
sS'midnight'
p5266
I130
sS'ferb'
p5267
I133
sS'lamilton'
p5268
I133
sS'worship'
p5269
I133
sS'blocked'
p5270
I133
sS"he's"
p5271
I121
sS'chalice'
p5272
I133
sS'cheyenne'
p5273
I133
sS'happened'
p5274
I125
sS'lonely'
p5275
I130
sS'moms'
p5276
I129
sS'conversations'
p5277
I129
sS'momo'
p5278
I133
sS'lukey'
p5279
I133
sS'term'
p5280
I133
sS'name'
p5281
I122
sS'sophomore'
p5282
I133
sS'clutch'
p5283
I133
sS'love...with'
p5284
I133
sS'debating'
p5285
I133
sS'"months"'
p5286
I133
sS'30x5'
p5287
I132
sS'hiccups'
p5288
I132
sS'plant'
p5289
I131
sS'catching'
p5290
I133
sS'begun'
p5291
I133
sS'intended'
p5292
I132
sS'pokie'
p5293
I133
sS'continuing'
p5294
I132
sS'infuriated'
p5295
I133
sS'yayaya'
p5296
I133
sS'factory'
p5297
I133
sS'obispo'
p5298
I133
sS'attracted'
p5299
I132
sS"shouldn't"
p5300
I131
sS'\xe2\x9c\x8b\xe2\x9b\x94\xef\xb8\x8f'
p5301
I133
sS"have/don't"
p5302
I133
sS'theory'
p5303
I133
sS'boobs'
p5304
I130
sS'3-year-old'
p5305
I133
sS'you.\xe2\x80\x9d'
p5306
I133
sS'hahhaahaha'
p5307
I133
sS'heheh'
p5308
I133
sS'yup'
p5309
I130
sS'100%'
p5310
I129
sS'motion'
p5311
I133
sS'turn'
p5312
I124
sS'lockscreen'
p5313
I133
sS'place'
p5314
I124
sS'yun'
p5315
I133
sS'creepily'
p5316
I133
sS'1000'
p5317
I133
sS'coming'
p5318
I118
sS'awfully'
p5319
I133
sS'ios8'
p5320
I132
sS'imym'
p5321
I133
sS'given'
p5322
I132
sS'day\xe2\x80\x9d'
p5323
I132
sS'gif'
p5324
I133
sS'plastic'
p5325
I133
sS'white'
p5326
I114
sS'stuco'
p5327
I133
sS'hug'
p5328
I132
sS'releases'
p5329
I133
sS'cope'
p5330
I133
sS'season'
p5331
I117
sS'iniisip'
p5332
I133
sS'$300+'
p5333
I133
sS'huh'
p5334
I129
sS'alam'
p5335
I133
sS'released'
p5336
I132
sS'sylmar'
p5337
I132
sS'holder'
p5338
I133
sS'wide'
p5339
I132
sS'ratchets'
p5340
I133
sS'lmao'
p5341
I96
sS'-thanks'
p5342
I133
sS'r'
p5343
I124
sS'cards'
p5344
I132
sS'outcome'
p5345
I133
sS'and'
p5346
I8
sS'ang'
p5347
I120
sS'ana'
p5348
I132
sS'chloe'
p5349
I133
sS'pro'
p5350
I133
sS'ano'
p5351
I130
sS'pri'
p5352
I133
sS'ilong'
p5353
I133
sS'joseeee'
p5354
I133
sS'grebat'
p5355
I133
sS'any'
p5356
I109
sS'marathon'
p5357
I129
sS'superman'
p5358
I133
sS'kush'
p5359
I133
sS'ideas'
p5360
I133
sS'dining'
p5361
I133
sS'naaaattt'
p5362
I133
sS'blunt'
p5363
I131
sS'teehee'
p5364
I132
sS'sure'
p5365
I117
sS'sherman'
p5366
I133
sS'falls'
p5367
I133
sS'yeeessss'
p5368
I133
sS'freshman'
p5369
I133
sS'fck'
p5370
I133
sS'icon'
p5371
I133
sS'pencils'
p5372
I133
sS'later'
p5373
I122
sS'sshhhh'
p5374
I133
sS'hungry'
p5375
I130
sS'hear'
p5376
I124
sS'senior'
p5377
I128
sS'penge'
p5378
I133
sS'cortes'
p5379
I133
sS'horribly'
p5380
I133
sS'cheat'
p5381
I133
sS'ugali'
p5382
I132
sS'recipe'
p5383
I133
sS'convos'
p5384
I129
sS'troy'
p5385
I133
sS'multifaceted'
p5386
I133
sS'qties'
p5387
I133
sS'wood'
p5388
I132
sS'boyle'
p5389
I133
sS'tayo'
p5390
I133
sS'jazz'
p5391
I133
sS'begging'
p5392
I133
sS'magstay'
p5393
I133
sS'omygod'
p5394
I133
sS'dye'
p5395
I132
sS'freaking'
p5396
I129
sS'reveal'
p5397
I133
sS'tomorrooow'
p5398
I133
sS":'("
p5399
I133
sS'jokes'
p5400
I125
sS'bought'
p5401
I127
sS'discussing'
p5402
I133
sS"y'all"
p5403
I129
sS'ignored'
p5404
I133
sS'picnic'
p5405
I133
sS'violated'
p5406
I133
sS'1921'
p5407
I133
sS'college'
p5408
I128
sS'parking'
p5409
I132
sS'fails'
p5410
I133
sS'today.\xe2\x80\x9d'
p5411
I133
sS'crooked'
p5412
I133
sS'outside'
p5413
I129
sS'arrival'
p5414
I133
sS'25'
p5415
I133
sS'$900'
p5416
I133
sS'come'
p5417
I85
sS'reaction'
p5418
I133
sS's-dawg'
p5419
I133
sS'deportes'
p5420
I133
sS'quiet'
p5421
I132
sS'berry'
p5422
I133
sS'adorn'
p5423
I133
sS'duty'
p5424
I133
sS'merry'
p5425
I131
sS'color'
p5426
I128
sS'pot'
p5427
I133
sS'colony'
p5428
I133
sS'period'
p5429
I133
sS'pop'
p5430
I132
sS'messin'
p5431
I132
sS'satisfaction'
p5432
I133
sS'pole'
p5433
I133
sS'jammed'
p5434
I133
sS'68'
p5435
I133
sS'pumasok'
p5436
I133
sS'hayst'
p5437
I129
sS'ricaaaaa'
p5438
I133
sS'howard'
p5439
I130
sS'peaceful'
p5440
I132
sS'hardly'
p5441
I132
sS'500'
p5442
I132
sS'direction'
p5443
I133
sS'b*tches'
p5444
I133
sS'robbed'
p5445
I133
sS'tiger'
p5446
I133
sS'careful'
p5447
I132
sS'po"'
p5448
I133
sS'spirit'
p5449
I133
sS'case'
p5450
I126
sS"house..........there's"
p5451
I133
sS'fiendz'
p5452
I133
sS'arnold'
p5453
I133
sS'mag-alaga'
p5454
I133
sS'jahlil'
p5455
I130
sS'tyyy'
p5456
I133
sS'couples'
p5457
I129
sS'good'
p5458
I58
sS'punched'
p5459
I133
sS'dafuq'
p5460
I133
sS'sleeptalking'
p5461
I133
sS'disrespectful'
p5462
I132
sS'$20'
p5463
I133
sS'10:30'
p5464
I133
sS'bowl'
p5465
I132
sS'check'
p5466
I126
sS'buys'
p5467
I133
sS'bred1'
p5468
I133
sS'retweeting'
p5469
I133
sS'events'
p5470
I128
sS'week'
p5471
I112
sS'duckies'
p5472
I133
sS'weed'
p5473
I129
sS'changing'
p5474
I131
sS'luto'
p5475
I133
sS'ranch'
p5476
I131
sS'magical'
p5477
I131
sS'yassssssssss'
p5478
I133
sS'without'
p5479
I125
sS'model'
p5480
I132
sS'bodies'
p5481
I132
sS'nd'
p5482
I132
sS'arteeeee'
p5483
I133
sS'gavin'
p5484
I133
sS'kill'
p5485
I121
sS'dummmy'
p5486
I133
sS'nanghingi'
p5487
I133
sS'blow'
p5488
I132
sS"noam's"
p5489
I133
sS"we've"
p5490
I133
sS"everyone's"
p5491
I128
sS'seems'
p5492
I132
sS'except'
p5493
I132
sS'complain'
p5494
I133
sS'blog'
p5495
I130
sS'lets'
p5496
I129
sS'shrine'
p5497
I133
sS'huhuhuhu'
p5498
I130
sS'getting-ready-to-go-out'
p5499
I133
sS'scheduled'
p5500
I133
sS'kpkpkpkpkpkpkpkpkp'
p5501
I133
sS'kills'
p5502
I131
sS'<<<<<'
p5503
I133
sS'fridge'
p5504
I133
sS'schedules'
p5505
I132
sS'confined'
p5506
I133
sS'accepted'
p5507
I133
sS'kennedy'
p5508
I133
sS'patrick'
p5509
I133
sS'buddies'
p5510
I129
sS'bracelet'
p5511
I132
sS'gumawa'
p5512
I133
sS'staaaahp'
p5513
I133
sS'*mutes'
p5514
I133
sS'pacific'
p5515
I133
sS'whaaaaat'
p5516
I133
sS'snatched'
p5517
I133
sS'cowboys'
p5518
I132
sS'mood'
p5519
I131
sS'hahahhahahahah'
p5520
I133
sS'epiphanies'
p5521
I133
sS'"magnum"'
p5522
I133
sS'highest'
p5523
I133
sS'slick'
p5524
I133
sS'stops'
p5525
I133
sS'moon'
p5526
I132
sS'goofy'
p5527
I133
sS'buddha'
p5528
I133
sS'ahahahah'
p5529
I130
sS'lmfao'
p5530
I131
sS'nails'
p5531
I127
sS'communicate'
p5532
I133
sS'nudist'
p5533
I133
sS'embarassing'
p5534
I133
sS'guyzzzzzz'
p5535
I133
sS'on'
p5536
I19
sS'jeez'
p5537
I131
sS'boondocks'
p5538
I129
sS'ok'
p5539
I100
sS'oh'
p5540
I64
sS'of'
p5541
I11
sS'culata'
p5542
I133
sS'oa'
p5543
I133
sS'stand'
p5544
I131
sS'oy'
p5545
I133
sS'naiirita'
p5546
I133
sS'or'
p5547
I55
sS'ladies'
p5548
I132
sS'nyahahahaha'
p5549
I132
sS'augustus'
p5550
I133
sS'cursed'
p5551
I133
sS'tutor'
p5552
I133
sS'strictly'
p5553
I132
sS'there'
p5554
I66
sS'racism'
p5555
I133
sS'christianity'
p5556
I133
sS'strict'
p5557
I133
sS'racist'
p5558
I131
sS'valley'
p5559
I128
sS'energy'
p5560
I131
sS'treat'
p5561
I131
sS'lmaooo'
p5562
I132
sS'idea'
p5563
I123
sS'jus'
p5564
I133
sS'yooooooo'
p5565
I133
sS'applying'
p5566
I133
sS'hallows'
p5567
I132
sS'tiptoe'
p5568
I133
sS'"it\'s'
p5569
I133
sS'beg\xe2\x80\x9d'
p5570
I133
sS'grass'
p5571
I133
sS'creeping'
p5572
I133
sS'taylor'
p5573
I133
sS'taste'
p5574
I133
sS'ahahha'
p5575
I132
sS'pic\xe2\x80\x9d'
p5576
I133
sS'intro'
p5577
I132
sS'pre-season'
p5578
I133
sS'deserve'
p5579
I132
sS'rubber'
p5580
I132
sS'5'
p5581
I118
sS'announcements'
p5582
I132
sS'trash'
p5583
I133
sS'pillows'
p5584
I133
sS'finale'
p5585
I131
sS'nakipagthreesome'
p5586
I133
sS'finals'
p5587
I133
sS'lipstick'
p5588
I131
sS'booked'
p5589
I132
sS'srry'
p5590
I132
sS'ernie'
p5591
I133
sS'calls'
p5592
I127
sS'wife'
p5593
I131
sS'wifi'
p5594
I132
sS'exhausting'
p5595
I133
sS'*intention'
p5596
I133
sS'dokey'
p5597
I133
sS'all'
p5598
I32
sS'lack'
p5599
I133
sS'fuego'
p5600
I131
sS'kthxbye'
p5601
I133
sS'concept'
p5602
I133
sS'follow'
p5603
I127
sS'meditation'
p5604
I133
sS'everyones'
p5605
I133
sS'decisions'
p5606
I133
sS'hmmm'
p5607
I132
sS'jessie'
p5608
I131
sS'ignorant'
p5609
I133
sS'twirrurrrr-ing'
p5610
I133
sS'thursday'
p5611
I130
sS'eat!\xe2\x80\x9d'
p5612
I133
sS'4..oops\xe2\x80\x9d'
p5613
I133
sS'pakinggan'
p5614
I133
sS'everyone*'
p5615
I133
sS'woman'
p5616
I128
sS'worse'
p5617
I133
sS'song'
p5618
I119
sS'far'
p5619
I123
sS'faq'
p5620
I133
sS'fav'
p5621
I129
sS'imessage'
p5622
I131
sS'simpsons'
p5623
I133
sS'uwi'
p5624
I131
sS'sons'
p5625
I132
sS'worst'
p5626
I123
sS'fam'
p5627
I123
sS'ticket'
p5628
I131
sS'faf'
p5629
I133
sS'fag'
p5630
I133
sS'list'
p5631
I130
sS'vibes'
p5632
I132
sS'fluent'
p5633
I133
sS'lisa'
p5634
I133
sS'conflicted'
p5635
I133
sS'"cocaine"'
p5636
I133
sS'hitta'
p5637
I133
sS'tea'
p5638
I131
sS'ted'
p5639
I133
sS'tee'
p5640
I133
sS'breakers'
p5641
I133
sS'invention'
p5642
I133
sS'design'
p5643
I133
sS'nba'
p5644
I133
sS'what'
p5645
I31
sS'sub'
p5646
I133
sS'sun'
p5647
I130
sS'follower'
p5648
I133
sS'anniversary'
p5649
I130
sS'crush'
p5650
I133
sS'suv'
p5651
I133
sS'sus'
p5652
I132
sS'sup'
p5653
I132
sS'racing'
p5654
I132
sS'toes'
p5655
I133
sS'christian'
p5656
I129
sS'reheard'
p5657
I133
sS'relaxation'
p5658
I133
sS'shoulda'
p5659
I133
sS'allows'
p5660
I133
sS'navas'
p5661
I133
sS'options'
p5662
I132
sS'disneyland'
p5663
I112
sS'sticking'
p5664
I133
sS'suddenly'
p5665
I133
sS'semester'
p5666
I133
sS'emoji'
p5667
I130
sS'dgaf'
p5668
I133
sS'conspiring'
p5669
I133
sS'shits'
p5670
I133
sS'minou'
p5671
I133
sS'angrier'
p5672
I133
sS'unforgotten'
p5673
I133
sS'tryna'
p5674
I130
sS'israel'
p5675
I133
sS'knows'
p5676
I124
sS'2000+'
p5677
I133
sS'flag'
p5678
I133
sS'basically'
p5679
I126
sS'known'
p5680
I129
sS'mellow'
p5681
I133
sS'glad'
p5682
I128
sS"puppy's"
p5683
I133
sS'debates'
p5684
I133
sS'wrestler'
p5685
I133
sS'pero'
p5686
I133
sS'b\xc2\xa1tches'
p5687
I133
sS'embarrassing'
p5688
I133
sS'pond'
p5689
I133
sS'pong'
p5690
I132
sS'chores'
p5691
I133
sS'court'
p5692
I133
sS'dreads'
p5693
I133
sS'oyy'
p5694
I133
sS'rather'
p5695
I128
sS'explains'
p5696
I133
sS'sandwich'
p5697
I133
sS'okay'
p5698
I115
sS'pilit'
p5699
I133
sS'lighting'
p5700
I133
sS'short'
p5701
I133
sS'teka'
p5702
I133
sS'shady'
p5703
I133
sS'stash'
p5704
I133
sS'shore'
p5705
I132
sS"don't"
p5706
I40
sS'september'
p5707
I133
sS'sloot'
p5708
I133
sS'mission'
p5709
I132
sS'disabled'
p5710
I133
sS'"is'
p5711
I133
sS'style'
p5712
I130
sS'pray'
p5713
I132
sS'beyonce'
p5714
I133
sS'hahahahahhaha'
p5715
I133
sS'mattress'
p5716
I133
sS'parts'
p5717
I130
sS'5000%'
p5718
I133
sS'bout'
p5719
I121
sS'soccer'
p5720
I128
sS'might'
p5721
I119
sS'alter'
p5722
I133
sS'little)'
p5723
I133
sS'return'
p5724
I132
sS'woulda'
p5725
I133
sS'communities'
p5726
I133
sS'three-year-old'
p5727
I133
sS'up.....is'
p5728
I133
sS'damage.\xe2\x80\x9d'
p5729
I133
sS'ikno'
p5730
I133
sS'telegraph'
p5731
I133
sS'friendship'
p5732
I130
sS'\xd9\x83\xd8\xa7\xd9\x81\xd9\x8a'
p5733
I133
sS'pirates'
p5734
I133
sS'weight'
p5735
I133
sS'needless'
p5736
I132
sS'hawaii'
p5737
I133
sS'expect'
p5738
I132
sS'loops'
p5739
I133
sS'gagana'
p5740
I133
sS'"yer'
p5741
I133
sS'gangland'
p5742
I133
sS'alcohol'
p5743
I131
sS'wondered'
p5744
I133
sS'health'
p5745
I131
sS'hill'
p5746
I132
sS'wayyyyy'
p5747
I133
sS'lolz'
p5748
I132
sS'caucasian'
p5749
I133
sS'wisconsin'
p5750
I133
sS'\xd7\x9e\xd7\x90\xd7\xa8\xd7\xa6\xd7\x95\xd7\xaa'
p5751
I133
sS'friday'
p5752
I127
sS'guess'
p5753
I130
sS'cirque'
p5754
I133
sS'teach'
p5755
I129
sS'generate'
p5756
I133
sS'lag'
p5757
I133
sS'jew'
p5758
I130
sS'snowboarding'
p5759
I132
sS'feed'
p5760
I130
sS'unhealthy'
p5761
I133
sS'feel'
p5762
I75
sS'relate'
p5763
I132
sS'hahahahahha'
p5764
I133
sS'fancy'
p5765
I133
sS'feet'
p5766
I131
sS'colombia'
p5767
I133
sS'8:15pm'
p5768
I133
sS'plummer'
p5769
I133
sS'thoughts*'
p5770
I133
sS'story'
p5771
I118
sS'"'
p5772
I132
sS'interviews'
p5773
I133
sS'jollibee'
p5774
I133
sS'ayoko'
p5775
I133
sS'passed'
p5776
I133
sS'syrup'
p5777
I133
sS'store'
p5778
I133
sS'headache'
p5779
I133
sS'hotel'
p5780
I131
sS'scooby'
p5781
I133
sS'treasures'
p5782
I133
sS'convinced'
p5783
I132
sS'explodes'
p5784
I133
sS'king'
p5785
I129
sS'kind'
p5786
I128
sS'double'
p5787
I132
sS'i'
p5788
I1
sS'stall'
p5789
I133
sS'stalk'
p5790
I131
sS'risks'
p5791
I133
sS'dang'
p5792
I130
sS'dana'
p5793
I133
sS'risky'
p5794
I133
sS'motivation'
p5795
I131
sS'alike'
p5796
I132
sS'*eats'
p5797
I133
sS'nights'
p5798
I129
sS'sandwiches'
p5799
I133
sS'finding'
p5800
I131
sS'baka'
p5801
I133
sS'added'
p5802
I132
sS'electric'
p5803
I133
sS'park'
p5804
I127
sS'reach'
p5805
I133
sS'do.she'
p5806
I133
sS'reunited'
p5807
I133
sS'jst'
p5808
I132
sS'cigarette'
p5809
I133
sS'72'
p5810
I133
sS'nothing'
p5811
I122
sS'seasons'
p5812
I133
sS'huhu'
p5813
I115
sS'won\xe2\x80\x99t'
p5814
I133
sS'doggie'
p5815
I133
sS'10am'
p5816
I133
sS'*compton'
p5817
I133
sS'lying'
p5818
I133
sS'stumped'
p5819
I133
sS'stfu'
p5820
I129
sS'stoned'
p5821
I133
sS'etsy'
p5822
I133
sS'bff'
p5823
I131
sS'sharing'
p5824
I133
sS"bana's"
p5825
I133
sS'shepherd'
p5826
I133
sS'his'
p5827
I88
sS'hit'
p5828
I118
sS'longest'
p5829
I131
sS'him'
p5830
I100
sS'typos'
p5831
I133
sS'while\xe2\x80\x9dyou'
p5832
I133
sS'underachiever'
p5833
I133
sS'wrote'
p5834
I130
sS'adamed'
p5835
I131
sS'bars'
p5836
I133
sS'art'
p5837
I131
sS'dump'
p5838
I132
sS'kylie'
p5839
I131
sS'defense'
p5840
I131
sS'dumb'
p5841
I122
sS'are'
p5842
I24
sS'\xe2\x98\xba\xef\xb8\x8f\xe2\x98\xba\xef\xb8\x8f\xe2\x98\xba\xef\xb8\x8f\xe2\x98\xba\xef\xb8\x8f'
p5843
I133
sS'arm'
p5844
I132
sS'nailed'
p5845
I133
sS'nangyari'
p5846
I133
sS'freshmen'
p5847
I133
sS"other's"
p5848
I132
sS'watchin'
p5849
I130
sS'solo'
p5850
I131
sS'know\xe2\x80\x9d'
p5851
I133
sS'fgt'
p5852
I130
sS'sold'
p5853
I132
sS'attention'
p5854
I130
sS'outfit'
p5855
I132
sS'c'
p5856
I131
sS'"deyna'
p5857
I133
sS'annie'
p5858
I133
sS'witch'
p5859
I133
sS'9:00'
p5860
I133
sS'sloth'
p5861
I133
sS'ranchers'
p5862
I132
sS'reasons'
p5863
I133
sS'sweet'
p5864
I127
sS'rave'
p5865
I133
sS'goats'
p5866
I130
sS'duh'
p5867
I130
sS'ps'
p5868
I133
sS'dum'
p5869
I132
sS'dun'
p5870
I133
sS'due'
p5871
I133
sS'dug'
p5872
I133
sS'pa'
p5873
I118
sS'pd'
p5874
I133
sS'txt'
p5875
I133
sS'ph'
p5876
I133
sS'pi'
p5877
I133
sS'po'
p5878
I125
sS'woke'
p5879
I120
sS'pm'
p5880
I133
sS'flight'
p5881
I130
sS"kyle's"
p5882
I133
sS'transferring'
p5883
I133
sS'cinco'
p5884
I133
sS'oitnb'
p5885
I133
sS'opposites'
p5886
I132
sS'rocking'
p5887
I133
sS'jars'
p5888
I133
sS'pleasssse'
p5889
I133
sS'dude"'
p5890
I133
sS'stolen'
p5891
I132
sS'frozen'
p5892
I129
sS'batch'
p5893
I133
sS'homework'
p5894
I127
sS'theres'
p5895
I133
sS'doors\xe2\x80\x9d'
p5896
I133
sS'rip'
p5897
I127
sS'disappointing'
p5898
I133
sS'rollerskating'
p5899
I133
sS'rid'
p5900
I129
sS'shirt'
p5901
I125
sS'noooo'
p5902
I130
sS'peoples'
p5903
I133
sS'9'
p5904
I130
sS'higher'
p5905
I131
sS"&i'm"
p5906
I133
sS'moving'
p5907
I126
sS'89%'
p5908
I133
sS'wheres'
p5909
I133
sS'b.s'
p5910
I133
sS'depending'
p5911
I133
sS'anybody'
p5912
I130
sS'cheer'
p5913
I132
sS'edge'
p5914
I133
sS'[insert'
p5915
I133
sS'murder-suicide'
p5916
I133
sS'questions'
p5917
I133
sS'awake"'
p5918
I133
sS'meanest'
p5919
I133
sS'gems'
p5920
I133
sS'sounding'
p5921
I133
sS'lovin'
p5922
I133
sS'kasi'
p5923
I131
sS'moody'
p5924
I133
sS'shaped'
p5925
I132
sS'confront'
p5926
I133
sS'violation"'
p5927
I133
sS'ignore'
p5928
I132
sS'collect'
p5929
I133
sS':-))))'
p5930
I133
sS'me\xe2\x80\x9d'
p5931
I132
sS'essential'
p5932
I133
sS'ikaw'
p5933
I132
sS'fucking'
p5934
I86
sS'play'
p5935
I118
sS'streaming'
p5936
I133
sS'litter'
p5937
I133
sS'clown'
p5938
I133
sS'walhberg'
p5939
I133
sS'chumps'
p5940
I133
sS'bs-ing'
p5941
I133
sS'meds'
p5942
I133
sS'seriously?bridge'
p5943
I133
sS'prob'
p5944
I133
sS"ppl's"
p5945
I133
sS'lmaoooo'
p5946
I133
sS'lose'
p5947
I127
sS's/o'
p5948
I133
sS'withdrawals'
p5949
I131
sS'juju'
p5950
I132
sS'yaaassss'
p5951
I133
sS'intense'
p5952
I131
sS'nueva'
p5953
I133
sS'drought.."i'
p5954
I133
sS'driest'
p5955
I133
sS"mcdonald's"
p5956
I132
sS'close.\xe2\x80\x9d'
p5957
I133
sS'hatred'
p5958
I132
sS'wanna'
p5959
I87
sS'bleeds'
p5960
I133
sS'significant'
p5961
I133
sS'plethora'
p5962
I133
sS'mommy'
p5963
I132
sS'momma'
p5964
I127
sS'nigga'
p5965
I117
sS'fat.\xe2\x80\x9d'
p5966
I133
sS'reallyyyyyy'
p5967
I133
sS'question'
p5968
I128
sS'fast'
p5969
I131
sS'prettier'
p5970
I133
sS'bruh'
p5971
I128
sS'mountains'
p5972
I133
sS'girlfriends'
p5973
I133
sS'repeatedly'
p5974
I133
sS'junior'
p5975
I133
sS'raising'
p5976
I133
sS'drinkers'
p5977
I132
sS'fries'
p5978
I133
sS"hasn't"
p5979
I131
sS'stalking'
p5980
I130
sS'suckin'
p5981
I133
sS'dehh'
p5982
I132
sS'highlight'
p5983
I130
sS'fried'
p5984
I131
sS'called'
p5985
I122
sS'freak'
p5986
I132
sS'stick'
p5987
I133
sS'cover'
p5988
I133
sS'philadelphia"'
p5989
I133
sS'warning'
p5990
I131
sS'rally'
p5991
I133
sS'(again)'
p5992
I133
sS'rainy'
p5993
I133
sS'unresponsive'
p5994
I131
sS'rains'
p5995
I133
sS'peace'
p5996
I131
sS'nick'
p5997
I133
sS'nice'
p5998
I110
sS'problems'
p5999
I130
sS'helping'
p6000
I133
sS'meaning'
p6001
I132
sS'naps...is'
p6002
I133
sS'pakshet'
p6003
I132
sS'remix'
p6004
I132
sS'suffers'
p6005
I133
sS'8:15'
p6006
I132
sS'vice'
p6007
I130
sS'departments'
p6008
I133
sS'nasa'
p6009
I133
sS'karma'
p6010
I133
sS'once'
p6011
I116
sS'guys....it'
p6012
I133
sS'edi'
p6013
I133
sS'steelers'
p6014
I133
sS'midget.\xe2\x80\x9d'
p6015
I133
sS'yaaaaayyy'
p6016
I133
sS'inbreeding'
p6017
I133
sS'dandy'
p6018
I133
sS'breathing'
p6019
I132
sS'wishes'
p6020
I132
sS'drinking'
p6021
I128
sS'fastfood'
p6022
I133
sS'redonculous'
p6023
I133
sS'congrats'
p6024
I129
sS'sandman'
p6025
I133
sS'newsboys'
p6026
I132
sS'someday'
p6027
I133
sS'plows'
p6028
I133
sS"you'd"
p6029
I133
sS'goodies'
p6030
I133
sS'ochs'
p6031
I133
sS'ummm'
p6032
I132
sS'manipulating'
p6033
I133
sS'folk'
p6034
I133
sS'universities'
p6035
I133
sS'kris'
p6036
I133
sS'tuesdays'
p6037
I133
sS'waiting'
p6038
I122
sS'toenails'
p6039
I133
sS'chose'
p6040
I133
sS'degree'
p6041
I133
sS'explore'
p6042
I132
sS'sext'
p6043
I133
sS'5626393002763'
p6044
I133
sS'jawwdinzz'
p6045
I133
sS'sexy'
p6046
I131
sS'ewok'
p6047
I132
sS'settling'
p6048
I133
sS'geeeee'
p6049
I133
sS'shades'
p6050
I129
sS'leaving'
p6051
I128
sS'7/21'
p6052
I133
sS'7/23'
p6053
I133
sS'mindblowing'
p6054
I133
sS'apple'
p6055
I133
sS'spy'
p6056
I133
sS'app'
p6057
I133
sS'kristina'
p6058
I133
sS'cheerleader'
p6059
I133
sS'apply'
p6060
I131
sS'use'
p6061
I119
sS'hahahahaha'
p6062
I111
sS'from'
p6063
I61
sS'hippie'
p6064
I128
sS'usa'
p6065
I133
sS'&'
p6066
I77
sS'uso'
p6067
I133
sS'fel'
p6068
I133
sS'few'
p6069
I124
sS'scariest'
p6070
I131
sS'eagles'
p6071
I132
sS'fez'
p6072
I133
sS"sun's"
p6073
I132
sS'clever'
p6074
I133
sS'rarest'
p6075
I133
sS'infection'
p6076
I133
sS'!\xe2\x80\x9d'
p6077
I133
sS'heil'
p6078
I133
sS'madami'
p6079
I133
sS'parrots'
p6080
I133
sS'rabbit'
p6081
I133
sS'penis'
p6082
I132
sS'women'
p6083
I133
sS'annoy'
p6084
I133
sS'bothhhh\xe2\x9d\xa4\xef\xb8\x8f'
p6085
I133
sS'anywhere'
p6086
I132
sS'cazdyn'
p6087
I133
sS'hagrid'
p6088
I133
sS'thirsty'
p6089
I131
sS'tax'
p6090
I133
sS'villain'
p6091
I132
sS'assumptions'
p6092
I133
sS'something'
p6093
I117
sS'tan'
p6094
I131
sS'tao'
p6095
I131
sS'sis'
p6096
I133
sS'sir'
p6097
I130
sS'united'
p6098
I133
sS'sit'
p6099
I128
sS'six'
p6100
I129
sS'perks'
p6101
I133
sS'sic'
p6102
I133
sS'brian'
p6103
I133
sS'thrroooughhh'
p6104
I133
sS'yayyyyy'
p6105
I132
sS'luke'
p6106
I77
sS'instead'
p6107
I121
sS'sin'
p6108
I133
sS'attend'
p6109
I132
sS'abuse'
p6110
I133
sS'taco'
p6111
I132
sS'hahahaha'
p6112
I111
sS'hahahahhahahahahahahhahahahahaha'
p6113
I133
sS'cheaper'
p6114
I133
sS'"coffeeeee"'
p6115
I133
sS'somethin'
p6116
I132
sS'light'
p6117
I131
sS'straps'
p6118
I133
sS'honestly'
p6119
I125
sS'scrubs'
p6120
I132
sS'crawling'
p6121
I133
sS'bed.....fml'
p6122
I133
sS'*sleeping'
p6123
I133
sS'churros'
p6124
I133
sS'dearest'
p6125
I133
sS'hemp'
p6126
I133
sS'looks'
p6127
I116
sS'contaminated'
p6128
I133
sS'nostalgic'
p6129
I133
sS'tyler'
p6130
I133
sS'choose'
p6131
I133
sS'orange'
p6132
I133
sS'holiday'
p6133
I133
sS'rsvp'
p6134
I133
sS'originator'
p6135
I133
sS'violating'
p6136
I133
sS'crash'
p6137
I133
sS'once*"can'
p6138
I133
sS'material'
p6139
I133
sS'flew'
p6140
I133
sS'black-green'
p6141
I133
sS'ferguson'
p6142
I133
sS'mushrooms'
p6143
I133
sS"night's"
p6144
I133
sS'rockets'
p6145
I133
sS'trap'
p6146
I125
sS'promise'
p6147
I133
sS'bentley'
p6148
I133
sS'related'
p6149
I131
sS'skank'
p6150
I133
sS'our'
p6151
I83
sS'87'
p6152
I133
sS'out'
p6153
I36
sS'whooped'
p6154
I133
sS'okey'
p6155
I133
sS'supports'
p6156
I133
sS'checkdisk'
p6157
I133
sS'ipon'
p6158
I132
sS'pours'
p6159
I133
sS'ipod'
p6160
I133
sS'molly'
p6161
I133
sS'york'
p6162
I131
sS'dumpster'
p6163
I133
sS'organic'
p6164
I133
sS'disneyparksblog'
p6165
I133
sS'conversation'
p6166
I129
sS'4th'
p6167
I133
sS'hence'
p6168
I132
sS'tysm'
p6169
I131
sS'"pero'
p6170
I133
sS'magmura'
p6171
I133
sS'madamot'
p6172
I133
sS'postseason'
p6173
I133
sS"doesn't"
p6174
I116
sS'righ'
p6175
I132
sS'accent'
p6176
I133
sS'their'
p6177
I103
sS'misunderstood'
p6178
I133
sS'klemm'
p6179
I132
sS'wingardium'
p6180
I133
sS"kuya's"
p6181
I133
sS'july'
p6182
I129
sS'"god'
p6183
I133
sS'boring'
p6184
I130
sS'revealing."'
p6185
I133
sS'nasabi'
p6186
I133
sS'beatin'
p6187
I133
sS'blip'
p6188
I133
sS'unfriend'
p6189
I133
sS'afraid'
p6190
I131
sS'agency'
p6191
I133
sS'zzzquill'
p6192
I133
sS'which'
p6193
I123
sS'asshole'
p6194
I130
sS'martha'
p6195
I133
sS'='
p6196
I126
sS'youuuu'
p6197
I133
sS'pretzels'
p6198
I133
sS'knees'
p6199
I131
sS'who'
p6200
I63
sS'handle\xe2\x80\x9d'
p6201
I133
sS'snacking'
p6202
I133
sS'saraaaaap'
p6203
I133
sS'why'
p6204
I59
sS'spirits'
p6205
I133
sS'excited.\xe2\x80\x9d'
p6206
I133
sS'looked'
p6207
I130
sS'goals'
p6208
I127
sS'"trippin"'
p6209
I133
sS'planning'
p6210
I133
sS'dorothy'
p6211
I133
sS'fear'
p6212
I132
sS'darkest'
p6213
I133
sS'feat'
p6214
I133
sS'2morrow'
p6215
I133
sS'ftw'
p6216
I132
sS'dooooooooddddgggggerrrrrssssssss'
p6217
I133
sS'piano'
p6218
I133
sS'995'
p6219
I133
sS'watching'
p6220
I107
sS'dope'
p6221
I133
sS'awwh'
p6222
I132
sS'99%'
p6223
I132
sS'awww'
p6224
I131
sS'ones'
p6225
I120
sS'words'
p6226
I126
sS'chips'
p6227
I133
sS"ball's"
p6228
I133
sS'qt'
p6229
I132
sS'brain'
p6230
I129
sS'married'
p6231
I130
sS'class\xe2\x81\x89\xef\xb8\x8f\xe2\x81\x89\xef\xb8\x8f\xe2\x81\x89\xef\xb8\x8f\xe2\x81\x89\xef\xb8\x8f'
p6232
I133
sS'11am'
p6233
I133
sS'available'
p6234
I133
sS'delayed'
p6235
I133
sS'2k14\xe2\x80\x9d'
p6236
I133
sS'tulog'
p6237
I132
sS'closer'
p6238
I133
sS'cole'
p6239
I133
sS'closet'
p6240
I133
sS'meatballs'
p6241
I133
sS'superb'
p6242
I133
sS'genius'
p6243
I133
sS'mexicans'
p6244
I133
sS'closed'
p6245
I133
sS'dmt'
p6246
I133
sS"walter's"
p6247
I133
sS'pants'
p6248
I131
sS'a.e'
p6249
I133
sS'yaman'
p6250
I133
sS'weighing'
p6251
I133
sS'ability'
p6252
I133
sS'trynna'
p6253
I126
sS'amen'
p6254
I133
sS'joy'
p6255
I132
sS'job'
p6256
I106
sS'joc'
p6257
I133
sS'joe'
p6258
I133
sS'spoil'
p6259
I133
sS'swift'
p6260
I132
sS'jon'
p6261
I133
sS'titties'
p6262
I132
sS'safely'
p6263
I132
sS'"adam'
p6264
I133
sS'hehehe'
p6265
I133
sS'wala'
p6266
I131
sS'wall'
p6267
I131
sS'makin'
p6268
I132
sS'walk'
p6269
I125
sS'walt'
p6270
I133
sS'"hold'
p6271
I133
sS'respect'
p6272
I132
sS'twerks'
p6273
I133
sS'decent'
p6274
I132
sS'trademark'
p6275
I133
sS'charts'
p6276
I133
sS'marilyn'
p6277
I133
sS'"just'
p6278
I132
sS'gopro'
p6279
I133
sS'hindi'
p6280
I132
sS'bby'
p6281
I128
sS'"i\'m'
p6282
I132
sS'jaden'
p6283
I133
sS'mike'
p6284
I133
sS'tissues'
p6285
I133
sS'nickel'
p6286
I133
sS'verizon'
p6287
I133
sS'hmu'
p6288
I132
sS'makaconnect'
p6289
I133
sS'hmm'
p6290
I133
sS'spammed'
p6291
I133
sS'present'
p6292
I129
sS'vanilla'
p6293
I133
sS'choices'
p6294
I133
sS'will'
p6295
I50
sS'thou'
p6296
I133
sS'stunning'
p6297
I133
sS'wild'
p6298
I133
sS"nobody's"
p6299
I133
sS'~'
p6300
I133
sS'mutant'
p6301
I133
sS'refs'
p6302
I132
sS'thus'
p6303
I133
sS'avi'
p6304
I128
sS'snuck'
p6305
I133
sS'ave'
p6306
I133
sS'whore'
p6307
I133
sS'kissed'
p6308
I133
sS'radiation'
p6309
I132
sS'8189846584'
p6310
I133
sS'units'
p6311
I133
sS'gets'
p6312
I127
sS'difficult'
p6313
I130
sS'&why'
p6314
I133
sS'collab'
p6315
I133
sS'beast'
p6316
I133
sS'sopa'
p6317
I133
sS'student'
p6318
I130
sS'543pm'
p6319
I133
sS'valerie'
p6320
I133
sS'english'
p6321
I130
sS'cried'
p6322
I133
sS"should've"
p6323
I132
sS'only)'
p6324
I133
sS'cries'
p6325
I133
sS'rocked'
p6326
I133
sS'happiness'
p6327
I132
sS'kamukha'
p6328
I131
sS'supply'
p6329
I133
sS'smith'
p6330
I132
sS'discuss'
p6331
I132
sS'googling'
p6332
I133
sS'book'
p6333
I126
sS'neeeeddd'
p6334
I133
sS'presh'
p6335
I133
sS"who's"
p6336
I131
sS'know'
p6337
I53
sS'catchers'
p6338
I133
sS'"but'
p6339
I133
sS'miami'
p6340
I133
sS'loses'
p6341
I133
sS'virginity'
p6342
I133
sS'because'
p6343
I73
sS'scared'
p6344
I124
sS'11('
p6345
I133
sS'tumblr'
p6346
I133
sS"why'd"
p6347
I133
sS'empire'
p6348
I133
sS'scares'
p6349
I133
sS'leak'
p6350
I132
sS'lean'
p6351
I133
sS'mines'
p6352
I133
sS'leap'
p6353
I133
sS'leader'
p6354
I133
sS'ripped'
p6355
I132
sS"y'know"
p6356
I133
sS'murderer'
p6357
I133
sS'her\xe2\x9d\xa4\xef\xb8\x8f'
p6358
I133
sS'mith'
p6359
I133
sS'nationalities'
p6360
I133
sS'panalo'
p6361
I133
sS'carried'
p6362
I133
sS'getting'
p6363
I103
sS'universe'
p6364
I132
sS'epiphany'
p6365
I133
sS'swear'
p6366
I128
sS'sweat'
p6367
I133
sS'channing'
p6368
I133
sS'own'
p6369
I119
sS'"drank"'
p6370
I133
sS'wilderness'
p6371
I133
sS'owe'
p6372
I133
sS'tag'
p6373
I132
sS'channinh'
p6374
I133
sS'loner'
p6375
I133
sS'weather'
p6376
I130
sS'hotline'
p6377
I133
sS'brush'
p6378
I133
sS'registration'
p6379
I133
sS'yankee'
p6380
I132
sS'van'
p6381
I133
sS'rivals'
p6382
I133
sS'kidding'
p6383
I131
sS'overtime'
p6384
I133
sS'squeal'
p6385
I133
sS"i've"
p6386
I91
sS'bitches'
p6387
I123
sS'volume'
p6388
I133
sS'granny'
p6389
I133
sS'squeeze'
p6390
I133
sS'made'
p6391
I93
sS'nigga\xe2\x80\x9d'
p6392
I133
sS'whether'
p6393
I133
sS'record'
p6394
I132
sS'faggot'
p6395
I131
sS'cmon'
p6396
I133
sS'inadequate'
p6397
I133
sS'maroon'
p6398
I133
sS'amiright'
p6399
I132
sS'goodness'
p6400
I132
sS'4***'
p6401
I133
sS'happen'
p6402
I126
sS'incredible'
p6403
I132
sS'papunta'
p6404
I133
sS'other'
p6405
I109
sS'boom'
p6406
I133
sS'sick'
p6407
I116
sS'boob'
p6408
I133
sS'kinda'
p6409
I119
sS'4.22'
p6410
I133
sS'gap'
p6411
I133
sS'cliff'
p6412
I133
sS':-)))))))))'
p6413
I133
sS'sass'
p6414
I132
sS'yummmmm'
p6415
I133
sS'solonga'
p6416
I133
sS'kalbo'
p6417
I133
sS"farm's"
p6418
I133
s.