(dp0
S''
p1
I2
sS'raining'
p2
I28
sS'all'
p3
I20
sS':/'
p4
I29
sS':('
p5
I29
sS':)'
p6
I26
sS'whoever'
p7
I29
sS'dance'
p8
I26
sS'scratch'
p9
I29
sS'saves'
p10
I29
sS'felt'
p11
I29
sS'cougars'
p12
I29
sS'skate'
p13
I29
sS'go'
p14
I23
sS'dilfs'
p15
I29
sS'hate'
p16
I29
sS'competition'
p17
I29
sS':3'
p18
I29
sS'armenian..this'
p19
I29
sS'referring'
p20
I29
sS'tv'
p21
I29
sS'send'
p22
I29
sS'igual'
p23
I29
sS'to'
p24
I3
sS'finally'
p25
I28
sS'saw'
p26
I29
sS'under'
p27
I29
sS'sorry'
p28
I29
sS'veterans'
p29
I29
sS'worth'
p30
I29
sS'brown'
p31
I29
sS':o'
p32
I28
sS'mouf'
p33
I29
sS'sitting'
p34
I27
sS':d'
p35
I25
sS'fat'
p36
I28
sS'choice'
p37
I29
sS'fall'
p38
I28
sS'ticket'
p39
I29
sS'minute'
p40
I29
sS'school'
p41
I28
sS'waldo'
p42
I29
sS'estoy'
p43
I29
sS'did'
p44
I29
sS'die'
p45
I29
sS'list'
p46
I29
sS'haber'
p47
I29
sS'try'
p48
I29
sS'tunnel'
p49
I29
sS'were\xe2\x80\xa6'
p50
I29
sS'gana'
p51
I29
sS'red'
p52
I29
sS'team'
p53
I29
sS'mundial'
p54
I29
sS'guy'
p55
I27
sS'heading'
p56
I29
sS'20th'
p57
I29
sS'40oz'
p58
I29
sS"i'll"
p59
I29
sS'titled'
p60
I29
sS'mi'
p61
I29
sS'sign'
p62
I28
sS'nail'
p63
I29
sS'seeeeee'
p64
I29
sS'video'
p65
I29
sS'ummm'
p66
I29
sS'wings'
p67
I29
sS'even'
p68
I27
sS'will'
p69
I28
sS'what'
p70
I25
sS'clock'
p71
I29
sS'+'
p72
I28
sS'stars'
p73
I29
sS'crust'
p74
I29
sS'vampire'
p75
I29
sS'lmfao'
p76
I29
sS'goes'
p77
I28
sS'new'
p78
I28
sS'learned'
p79
I29
sS'ever'
p80
I28
sS'full'
p81
I29
sS'funeral'
p82
I29
sS'men'
p83
I29
sS'feisty'
p84
I29
sS'here'
p85
I25
sS'hours'
p86
I28
sS'met'
p87
I29
sS'bachelor'
p88
I29
sS'let'
p89
I28
sS'sing'
p90
I29
sS'along'
p91
I29
sS'yaaaaaa'
p92
I29
sS'nother'
p93
I29
sS'wait'
p94
I27
sS'great'
p95
I27
sS'38'
p96
I29
sS'talent'
p97
I29
sS'receive'
p98
I29
sS'hbd'
p99
I29
sS'leaves'
p100
I29
sS'changed'
p101
I29
sS'whine'
p102
I29
sS'grandes'
p103
I29
sS'pics'
p104
I29
sS'healthier'
p105
I29
sS"weren't"
p106
I29
sS'social'
p107
I29
sS'91331'
p108
I28
sS'california'
p109
I29
sS"i'm"
p110
I12
sS'honor'
p111
I29
sS'love'
p112
I21
sS'10:30-11:30'
p113
I29
sS'app'
p114
I29
sS'branford'
p115
I29
sS'1st'
p116
I29
sS'"my'
p117
I29
sS'standing'
p118
I29
sS'fed'
p119
I29
sS'from'
p120
I24
sS'would'
p121
I26
sS'&'
p122
I27
sS'goodness'
p123
I29
sS'dude'
p124
I29
sS'two'
p125
I26
sS'next'
p126
I28
sS'live'
p127
I29
sS'until'
p128
I29
sS'wondering'
p129
I29
sS'25th'
p130
I29
sS'tell'
p131
I27
sS'today'
p132
I22
sS'more'
p133
I27
sS'tryna'
p134
I29
sS'babe'
p135
I29
sS'holy'
p136
I29
sS'started'
p137
I29
sS'haha'
p138
I22
sS'training'
p139
I29
sS'guy"'
p140
I29
sS'phone'
p141
I28
sS"ain't"
p142
I28
sS'rip'
p143
I29
sS'broke'
p144
I29
sS'8'
p145
I29
sS'rare'
p146
I29
sS'youuuuu'
p147
I29
sS'me'
p148
I14
sS'majority'
p149
I29
sS'balls'
p150
I29
sS'ma'
p151
I29
sS'anything'
p152
I29
sS'this'
p153
I17
sS'car'
p154
I28
sS'work'
p155
I25
sS'sucks'
p156
I29
sS'movies'
p157
I29
sS'nine'
p158
I29
sS'can'
p159
I27
sS'growing'
p160
I29
sS'making'
p161
I29
sS'my'
p162
I9
sS'alyssa'
p163
I29
sS'excuses'
p164
I29
sS'monica'
p165
I28
sS'awesome'
p166
I26
sS"didn't"
p167
I29
sS'fuck'
p168
I27
sS'high'
p169
I26
sS'heard'
p170
I29
sS'woman'
p171
I29
sS'something'
p172
I28
sS'want'
p173
I23
sS'sense'
p174
I29
sS'csun'
p175
I29
sS'onions'
p176
I29
sS'offspring'
p177
I29
sS'huge'
p178
I29
sS'end'
p179
I29
sS'winter'
p180
I29
sS'means'
p181
I29
sS'dinner'
p182
I29
sS'how'
p183
I25
sS'hot'
p184
I29
sS'jugado'
p185
I29
sS'argan'
p186
I29
sS"doesn't"
p187
I28
sS'hoy'
p188
I29
sS'unbelievable'
p189
I28
sS'okay'
p190
I28
sS'plans'
p191
I28
sS'rude'
p192
I29
sS'bday'
p193
I29
sS'after'
p194
I29
sS'spot'
p195
I29
sS'ball'
p196
I29
sS'wrong'
p197
I29
sS'birthday'
p198
I27
sS'lax'
p199
I29
sS'mad'
p200
I28
sS'hahahaha'
p201
I28
sS'mah'
p202
I28
sS'guys'
p203
I28
sS'excited'
p204
I29
sS'man'
p205
I27
sS'a'
p206
I6
sS'krauze'
p207
I29
sS'whenever'
p208
I28
sS'light'
p209
I29
sS'overnight'
p210
I29
sS'ones'
p211
I29
sS'so'
p212
I20
sS'allow'
p213
I29
sS'dream'
p214
I29
sS'wind'
p215
I29
sS"that's"
p216
I25
sS'breaking'
p217
I29
sS"don't"
p218
I23
sS'serve'
p219
I29
sS'over'
p220
I29
sS'midnight'
p221
I29
sS'paper'
p222
I28
sS'through'
p223
I29
sS'hell'
p224
I28
sS'"it'
p225
I29
sS'still'
p226
I25
sS'saucy'
p227
I29
sS'style'
p228
I29
sS'crabby'
p229
I29
sS'group'
p230
I29
sS'thank'
p231
I23
sS'fit'
p232
I29
sS'la'
p233
I27
sS'sale'
p234
I29
sS'sunday'
p235
I29
sS'actually'
p236
I28
sS'late'
p237
I29
sS'window'
p238
I29
sS'choose'
p239
I29
sS'tweets'
p240
I28
sS'2014'
p241
I29
sS'weeks'
p242
I29
sS'bye'
p243
I27
sS'round'
p244
I29
sS'outside'
p245
I29
sS'dad'
p246
I29
sS'then'
p247
I29
sS'them'
p248
I29
sS'good'
p249
I20
sS'yo'
p250
I27
sS'ya'
p251
I26
sS'practice'
p252
I29
sS'fiesta'
p253
I28
sS'jeezy'
p254
I29
sS'they'
p255
I26
sS'hands'
p256
I29
sS'not'
p257
I25
sS'now'
p258
I27
sS'day'
p259
I24
sS'down'
p260
I29
sS'on-demand'
p261
I29
sS'always'
p262
I29
sS'times'
p263
I29
sS'drake'
p264
I29
sS'm\xc3\xa1s'
p265
I29
sS'ferlara'
p266
I29
sS'donde'
p267
I29
sS'pizza'
p268
I29
sS'(ca)'
p269
I28
sS'el'
p270
I29
sS'financial'
p271
I29
sS'csunity'
p272
I29
sS'doing'
p273
I29
sS'house'
p274
I28
sS'valenzuela'
p275
I29
sS'yeah'
p276
I25
sS'brother'
p277
I29
sS"andy's"
p278
I29
sS'catching'
p279
I29
sS'year'
p280
I25
sS'our'
p281
I28
sS'butthurt'
p282
I29
sS'saturday'
p283
I29
sS'out'
p284
I25
sS'living'
p285
I29
sS'rex'
p286
I29
sS'missed'
p287
I29
sS'god'
p288
I28
sS'tried'
p289
I29
sS'since'
p290
I28
sS'lols'
p291
I29
sS'bonus'
p292
I29
sS'got'
p293
I17
sS'rn'
p294
I29
sS'be\xe2\x80\xa6'
p295
I29
sS'math'
p296
I29
sS'ass'
p297
I27
sS'zulmahawaii'
p298
I29
sS'dirt'
p299
I29
sS'friday'
p300
I29
sS'subway..la'
p301
I29
sS'little'
p302
I29
sS'free'
p303
I29
sS'grudge.\xe2\x80\x9d'
p304
I29
sS'hurrrtt'
p305
I29
sS'"'
p306
I29
sS'que'
p307
I27
sS'grandma'
p308
I29
sS'put'
p309
I28
sS'awig'
p310
I29
sS'princess'
p311
I29
sS'care'
p312
I27
sS'dammit'
p313
I29
sS'fixed'
p314
I29
sS'yard'
p315
I28
sS'g'
p316
I29
sS'starts'
p317
I29
sS'could'
p318
I28
sS'success'
p319
I29
sS'honest'
p320
I28
sS'turn'
p321
I28
sS'shred'
p322
I29
sS'place'
p323
I29
sS'<3('
p324
I29
sS'disfruto'
p325
I29
sS'clasifican'
p326
I29
sS'think'
p327
I29
sS'first'
p328
I28
sS'cheese'
p329
I29
sS'already'
p330
I29
sS'saving'
p331
I29
sS'feel'
p332
I28
sS'seeester'
p333
I29
sS'xd'
p334
I29
sS'one'
p335
I26
sS'stylistics'
p336
I29
sS'done'
p337
I29
sS'bitch'
p338
I28
sS'colombia'
p339
I29
sS'vote'
p340
I29
sS'miss'
p341
I27
sS'tomorrow'
p342
I27
sS"you're"
p343
I28
sS'story'
p344
I28
sS'basketball'
p345
I29
sS'sheet'
p346
I29
sS'script'
p347
I29
sS'-pastor'
p348
I29
sS'comfy'
p349
I29
sS'felicidades'
p350
I29
sS'their'
p351
I29
sS'2'
p352
I27
sS'too'
p353
I24
sS'statement'
p354
I29
sS'ze'
p355
I29
sS'hollywood'
p356
I19
sS'john'
p357
I29
sS'final'
p358
I29
sS'ecuador'
p359
I29
sS'beard'
p360
I29
sS'2-1'
p361
I29
sS'craziest'
p362
I29
sS'wallet"'
p363
I29
sS'that'
p364
I11
sS'terrain'
p365
I29
sS'nobody'
p366
I28
sS'park'
p367
I28
sS'findin'
p368
I29
sS'released'
p369
I29
sS'semester'
p370
I29
sS'because'
p371
I28
sS'butt'
p372
I29
sS'believe'
p373
I28
sS'representing'
p374
I29
sS'than'
p375
I29
sS'sticker'
p376
I29
sS'begins'
p377
I29
sS'circa'
p378
I29
sS'15'
p379
I28
sS'lmao'
p380
I24
sS'16'
p381
I29
sS'boring'
p382
I29
sS'gotta'
p383
I29
sS'bed'
p384
I28
sS'r'
p385
I28
sS'marriage'
p386
I29
sS'williams'
p387
I29
sS'rainnn'
p388
I29
sS'sister'
p389
I29
sS'country'
p390
I29
sS'bet'
p391
I29
sS'94-2014'
p392
I29
sS'and'
p393
I7
sS'san'
p394
I29
sS'wasnt'
p395
I29
sS'mind'
p396
I28
sS'sad'
p397
I29
sS'tonight'
p398
I29
sS'talking'
p399
I29
sS'himself'
p400
I29
sS'comedian'
p401
I29
sS'buried'
p402
I29
sS'have'
p403
I15
sS'need'
p404
I27
sS'apparently'
p405
I29
sS'alive'
p406
I29
sS'coach'
p407
I29
sS'thought'
p408
I29
sS'realm'
p409
I29
sS'form'
p410
I29
sS'laws'
p411
I29
sS'congrats'
p412
I29
sS'mia'
p413
I29
sS'veteran'
p414
I29
sS'skatinnnn'
p415
I29
sS'-'
p416
I27
sS'snow'
p417
I29
sS'also'
p418
I29
sS'sexier'
p419
I29
sS'arleta'
p420
I28
sS'take'
p421
I29
sS'which'
p422
I29
sS'online'
p423
I29
sS'squaddddddddd'
p424
I29
sS'blunt'
p425
I28
sS'93.5'
p426
I29
sS'goodbye'
p427
I29
sS'though'
p428
I29
sS'aww'
p429
I29
sS'\xee\x80\x91'
p430
I29
sS'who'
p431
I27
sS'pyt'
p432
I29
sS'falls'
p433
I29
sS'eharmony'
p434
I29
sS'laquisha'
p435
I29
sS'connected'
p436
I29
sS'plan'
p437
I29
sS'nothing'
p438
I25
sS'accepting'
p439
I29
sS'why'
p440
I27
sS'understands'
p441
I29
sS'don'
p442
I29
sS'cams'
p443
I29
sS'dog'
p444
I28
sS'face'
p445
I29
sS"you'll"
p446
I29
sS'definitely'
p447
I29
sS'talk'
p448
I29
sS'\xe2\x98\x80\xef\xb8\x8f'
p449
I29
sS'left'
p450
I29
sS'blend'
p451
I29
sS'scream'
p452
I29
sS'came'
p453
I29
sS'teemo'
p454
I29
sS'wild'
p455
I29
sS'paul'
p456
I29
sS'ugh'
p457
I29
sS"mel's"
p458
I29
sS'hunger'
p459
I29
sS'text'
p460
I28
sS'lay'
p461
I29
sS'able'
p462
I29
sS'discovered'
p463
I29
sS'bring'
p464
I27
sS'session'
p465
I29
sS'enjoyed'
p466
I29
sS'aint'
p467
I29
sS'hahah'
p468
I29
sS'gnar'
p469
I29
sS'tech/dress'
p470
I29
sS'should'
p471
I28
sS'only'
p472
I29
sS'going'
p473
I26
sS'pretty'
p474
I29
sS'photo'
p475
I29
sS'sketchbooks'
p476
I29
sS'watching'
p477
I29
sS'hope'
p478
I29
sS'do'
p479
I22
sS'his'
p480
I26
sS'hit'
p481
I29
sS'get'
p482
I23
sS'watch'
p483
I29
sS'lucky'
p484
I29
sS'bear'
p485
I29
sS'da'
p486
I29
sS'joint'
p487
I29
sS'feels'
p488
I29
sS'b'
p489
I29
sS'tierra'
p490
I29
sS'wedding'
p491
I29
sS'cryin'
p492
I29
sS'items'
p493
I29
sS'him'
p494
I26
sS'prime'
p495
I29
sS'following'
p496
I29
sS"homework....what's"
p497
I29
sS'artist'
p498
I29
sS'married'
p499
I29
sS'morning'
p500
I29
sS'bae'
p501
I27
sS'common'
p502
I29
sS'shots'
p503
I29
sS"won't"
p504
I29
sS'river'
p505
I29
sS'where'
p506
I27
sS'secretary'
p507
I29
sS"y'all"
p508
I29
sS'osbourne'
p509
I29
sS'w/'
p510
I29
sS'vine'
p511
I29
sS'see'
p512
I29
sS'defense'
p513
I29
sS'asleep'
p514
I29
sS'are'
p515
I19
sS'parking'
p516
I29
sS'fart"'
p517
I29
sS'progress'
p518
I29
sS'sh*t'
p519
I29
sS'pentakill'
p520
I28
sS'best'
p521
I29
sS'seems'
p522
I29
sS'said'
p523
I29
sS'awaw'
p524
I29
sS'lots'
p525
I29
sS'movie'
p526
I29
sS'wop'
p527
I29
sS'slapped'
p528
I29
sS"kid's"
p529
I29
sS"father's"
p530
I29
sS'3'
p531
I29
sS"there's"
p532
I29
sS'probably'
p533
I29
sS'uncanny'
p534
I29
sS'we'
p535
I17
sS'never'
p536
I28
sS'omg'
p537
I29
sS'august'
p538
I29
sS'pot!"'
p539
I29
sS'sho'
p540
I29
sS'weak'
p541
I29
sS'dome'
p542
I29
sS'rinsed'
p543
I29
sS'coffee'
p544
I29
sS'2!?2?2'
p545
I29
sS'como'
p546
I29
sS'jk'
p547
I29
sS'news'
p548
I29
sS'come'
p549
I28
sS'instagrams'
p550
I29
sS'legit'
p551
I28
sS'david'
p552
I29
sS'water'
p553
I29
sS'piece'
p554
I29
sS'last'
p555
I27
sS'\xe2\x9d\xa4\xef\xb8\x8f'
p556
I29
sS'fault'
p557
I28
sS'taking'
p558
I29
sS"he's"
p559
I28
sS'ahora'
p560
I29
sS'contract'
p561
I29
sS'conference'
p562
I29
sS'games'
p563
I28
sS'annie'
p564
I29
sS'whole'
p565
I28
sS'asked'
p566
I29
sS"can't"
p567
I24
sS'load'
p568
I29
sS'wtf'
p569
I29
sS'sweet'
p570
I28
sS'ca'
p571
I17
sS'por'
p572
I29
sS'leon'
p573
I29
sS'expectations'
p574
I29
sS"couldn't"
p575
I27
sS'sexy'
p576
I29
sS'duh'
p577
I29
sS'better'
p578
I29
sS'arts'
p579
I28
sS'yay'
p580
I29
sS'skatepark'
p581
I29
sS"it's"
p582
I19
sS'been'
p583
I26
sS'730'
p584
I29
sS'much'
p585
I25
sS'damn'
p586
I26
sS'l.a.\xe2\x9d\xa4\xef\xb8\x8f'
p587
I29
sS'waste'
p588
I29
sS'username'
p589
I29
sS'mike'
p590
I26
sS'shopping'
p591
I29
sS'both'
p592
I29
sS'fire'
p593
I29
sS'kisses'
p594
I29
sS"what's"
p595
I27
sS'gas'
p596
I29
sS'al'
p597
I29
sS'imy'
p598
I29
sS'understand'
p599
I27
sS'chile'
p600
I29
sS'smoking'
p601
I29
sS'haters'
p602
I29
sS'bout'
p603
I29
sS'chill'
p604
I28
sS'myself'
p605
I29
sS'casa'
p606
I29
sS'look'
p607
I25
sS'these'
p608
I27
sS'"do'
p609
I29
sS"bro's"
p610
I29
sS'hahahahahahah'
p611
I29
sS'n'
p612
I26
sS'trick'
p613
I29
sS'near'
p614
I29
sS"haven't"
p615
I29
sS'hahaha'
p616
I27
sS'fun'
p617
I29
sS'aid'
p618
I29
sS'balance'
p619
I29
sS'wake'
p620
I29
sS'robin'
p621
I29
sS'"dad'
p622
I29
sS'<3'
p623
I27
sS'37'
p624
I29
sS'is'
p625
I18
sS'sushi'
p626
I29
sS'it'
p627
I10
sS'surface'
p628
I29
sS'sleeping'
p629
I29
sS'cant'
p630
I29
sS'someone'
p631
I28
sS'im'
p632
I29
sS'in'
p633
I8
sS'ready'
p634
I29
sS'ignoring'
p635
I29
sS'ig'
p636
I29
sS'if'
p637
I25
sS'perhaps'
p638
I29
sS'suggest'
p639
I29
sS'make'
p640
I24
sS'moms'
p641
I29
sS'lbo'
p642
I29
sS'party'
p643
I27
sS'gets'
p644
I29
sS'evidence'
p645
I29
sS'oil'
p646
I29
sS'lie'
p647
I29
sS'keys'
p648
I29
sS'sigue'
p649
I29
sS'moment'
p650
I26
sS'arrived'
p651
I29
sS'decency'
p652
I29
sS'fucked'
p653
I29
sS'totally'
p654
I28
sS'thoughts'
p655
I29
sS'\xe2\x9c\x8c\xef\xb8\x8f'
p656
I29
sS'hmmmmmm'
p657
I29
sS'off'
p658
I29
sS'i'
p659
I1
sS'floor'
p660
I29
sS'well'
p661
I29
sS'gamez'
p662
I29
sS'tho'
p663
I27
sS'ah-waz-born'
p664
I29
sS"howard's"
p665
I29
sS'y'
p666
I28
sS'the'
p667
I4
sS':))))'
p668
I29
sS'4hrs'
p669
I29
sS"david's"
p670
I29
sS'summer'
p671
I28
sS'listening'
p672
I29
sS'just'
p673
I13
sS'being'
p674
I29
sS'mie'
p675
I29
sS'enjoy'
p676
I29
sS'rotated'
p677
I29
sS'foot'
p678
I29
sS'kill'
p679
I29
sS'thanks'
p680
I25
sS'human'
p681
I29
sS'behind'
p682
I29
sS'yes'
p683
I27
sS'replayed'
p684
I29
sS'cus'
p685
I29
sS'sheldon'
p686
I28
sS'tim'
p687
I29
sS'yaaay'
p688
I29
sS'drive'
p689
I29
sS'had'
p690
I23
sS'sochi'
p691
I29
sS'bww'
p692
I29
sS'it\xe2\x80\x99s'
p693
I29
sS'add'
p694
I29
sS'treatment'
p695
I29
sS'door'
p696
I29
sS'has'
p697
I27
sS'tuesday'
p698
I29
sS'naw'
p699
I29
sS'around'
p700
I29
sS'knock'
p701
I29
sS'read'
p702
I29
sS'big'
p703
I27
sS'showing'
p704
I29
sS'laughed'
p705
I29
sS'mitch_o_rama'
p706
I29
sS'gonna'
p707
I27
sS'early'
p708
I29
sS'game'
p709
I28
sS'know'
p710
I21
sS'mom'
p711
I25
sS'dearly'
p712
I29
sS'speshul\xe2\x80\x9d'
p713
I29
sS'd'
p714
I29
sS'melting'
p715
I29
sS'mornin'
p716
I29
sS'wbu'
p717
I29
sS'like'
p718
I22
sS'lost'
p719
I29
sS'follows'
p720
I29
sS'*%*^'
p721
I29
sS'shabu'
p722
I29
sS'fernando'
p723
I29
sS'translates'
p724
I29
sS'csula'
p725
I29
sS'desmadre'
p726
I29
sS'night'
p727
I26
sS'served'
p728
I29
sS'heel'
p729
I29
sS'right'
p730
I25
sS'old'
p731
I29
sS'laugh'
p732
I29
sS'joking'
p733
I29
sS'people'
p734
I25
sS'absolutely'
p735
I29
sS'karthus'
p736
I28
sS'some'
p737
I24
sS'back'
p738
I28
sS'dead'
p739
I28
sS'martial'
p740
I28
sS'printer'
p741
I29
sS'sight'
p742
I29
sS'proper'
p743
I29
sS'home'
p744
I26
sS'friend'
p745
I29
sS'mood'
p746
I29
sS'for'
p747
I14
sS'religion'
p748
I29
sS'passion'
p749
I29
sS'umm'
p750
I29
sS'wilshire'
p751
I29
sS'be'
p752
I21
sS'knew'
p753
I29
sS'ayyyyyeee'
p754
I29
sS'schedule'
p755
I29
sS'remembered'
p756
I29
sS'use'
p757
I29
sS'"lost'
p758
I29
sS'santa'
p759
I28
sS'become'
p760
I29
sS'eye'
p761
I29
sS'smothered'
p762
I29
sS'by'
p763
I28
sS'earlier'
p764
I29
sS'pacoima'
p765
I29
sS'on'
p766
I16
sS'about'
p767
I25
sS'ok'
p768
I28
sS'usa'
p769
I28
sS'deserved'
p770
I28
sS'oh'
p771
I27
sS'of'
p772
I15
sS'cares'
p773
I29
sS'oc'
p774
I29
sS'o'
p775
I28
sS'side'
p776
I28
sS'range'
p777
I29
sS'idk'
p778
I29
sS'waaaaaaaaaaayyy'
p779
I29
sS'tomo'
p780
I29
sS'bean'
p781
I29
sS'or'
p782
I24
sS'seeing'
p783
I28
sS'ladies'
p784
I29
sS'nunca'
p785
I29
sS'pussy'
p786
I29
sS'bound'
p787
I29
sS'getting'
p788
I28
sS'mas'
p789
I29
sS'thankful'
p790
I29
sS'nigga'
p791
I27
sS'parties'
p792
I29
sS'(get'
p793
I29
sS'your'
p794
I27
sS'smells'
p795
I29
sS'"this'
p796
I29
sS'omfg'
p797
I29
sS'wack'
p798
I29
sS'fast'
p799
I29
sS'van'
p800
I29
sS'her'
p801
I22
sS'friends'
p802
I29
sS'support'
p803
I29
sS'there'
p804
I25
sS'hey'
p805
I28
sS'lol'
p806
I11
sS'fight'
p807
I29
sS'los'
p808
I29
sS"we're"
p809
I29
sS'way'
p810
I27
sS'ujizz'
p811
I29
sS'forward'
p812
I29
sS'crazzzzy'
p813
I29
sS'bored'
p814
I29
sS'was'
p815
I18
sS'happy'
p816
I26
sS'buy'
p817
I28
sS'invite'
p818
I29
sS'neighbors'
p819
I29
sS"i've"
p820
I29
sS'brand'
p821
I29
sS'forever'
p822
I29
sS'but'
p823
I22
sS'notifications'
p824
I29
sS'heat'
p825
I29
sS'hear'
p826
I28
sS'ho'
p827
I29
sS'tolle'
p828
I29
sS'trying'
p829
I29
sS'with'
p830
I16
sS'eat'
p831
I26
sS'posted'
p832
I28
sS'univision'
p833
I29
sS'made'
p834
I29
sS"wasn't"
p835
I28
sS'wish'
p836
I29
sS'fries'
p837
I28
sS'up'
p838
I20
sS'ur'
p839
I28
sS'excitement'
p840
I29
sS'trabajo'
p841
I29
sS'rerun'
p842
I29
sS'girl."'
p843
I29
sS'slaughtered'
p844
I29
sS'called'
p845
I28
sS'mariela'
p846
I29
sS'ttwo'
p847
I29
sS'exhausted'
p848
I28
sS'forgot'
p849
I29
sS'am'
p850
I28
sS'life'
p851
I26
sS'an'
p852
I25
sS'as'
p853
I25
sS'at'
p854
I14
sS'no\xe2\x80\xa6'
p855
I29
sS'playin'
p856
I29
sS'paraguay'
p857
I29
sS'yessssss'
p858
I29
sS'shooting'
p859
I29
sS'shit'
p860
I26
sS'physical'
p861
I29
sS'again'
p862
I29
sS'options'
p863
I29
sS'no'
p864
I26
sS'creeper'
p865
I29
sS'nah'
p866
I26
sS'when'
p867
I25
sS'club'
p868
I26
sS'other'
p869
I29
sS'diego'
p870
I29
sS'holding'
p871
I29
sS'wheres'
p872
I29
sS'you'
p873
I5
sS'really'
p874
I27
sS'cultivating'
p875
I29
sS'poop'
p876
I29
sS'papi'
p877
I29
sS'potd'
p878
I29
sS'sm'
p879
I29
sS'funnest'
p880
I29
sS'stay'
p881
I29
sS'kinda'
p882
I29
sS'stan'
p883
I29
sS'weekend'
p884
I29
sS'goin'
p885
I28
sS'callin'
p886
I29
sS'e'
p887
I29
sS'happening'
p888
I28
sS'hellz'
p889
I29
sS'buffalo'
p890
I29
sS'moved'
p891
I29
sS'hello'
p892
I29
sS'tyrannosaurus'
p893
I29
sS'u'
p894
I24
sS'time'
p895
I22
sS'tapping'
p896
I29
sS'yell'
p897
I29
sS'09/08/2013'
p898
I29
sS'starting'
p899
I29
sS'having'
p900
I29
s.