(dp0
S''
p1
I1
sS'essay'
p2
I20
sS'all'
p3
I19
sS'd\xc3\xada'
p4
I18
sS'tweeter'
p5
I20
sS'maldito'
p6
I20
sS'roy'
p7
I20
sS'aveces'
p8
I18
sS'sleep'
p9
I19
sS':-d'
p10
I18
sS'oso'
p11
I20
sS'go'
p12
I19
sS'follow'
p13
I20
sS'sue\xc3\xb1o'
p14
I20
sS'forget'
p15
I20
sS'ver'
p16
I20
sS'ves'
p17
I19
sS'tv'
p18
I20
sS'tu'
p19
I18
sS'migo'
p20
I20
sS'to'
p21
I8
sS'decir'
p22
I20
sS'everyyyyythinnnng.\xe2\x80\x9d'
p23
I20
sS'tener'
p24
I20
sS'sorry'
p25
I19
sS'te'
p26
I19
sS'fly'
p27
I20
sS'worse'
p28
I20
sS'song'
p29
I20
sS'very'
p30
I18
sS'fav'
p31
I20
sS'every'
p32
I20
sS'seguir\xc3\xa9'
p33
I20
sS'llama'
p34
I20
sS'fam'
p35
I20
sS'ala'
p36
I16
sS'cool'
p37
I19
sS'gnarly'
p38
I20
sS'dio'
p39
I20
sS'level'
p40
I20
sS'did'
p41
I18
sS'stop...had'
p42
I20
sS'dia'
p43
I20
sS'turnt'
p44
I20
sS'try'
p45
I20
sS'skate'
p46
I20
sS'turno'
p47
I20
sS'team'
p48
I20
sS'tours'
p49
I20
sS'largo'
p50
I20
sS"i'll"
p51
I18
sS'babygirl'
p52
I20
sS'ocha'
p53
I20
sS'booty'
p54
I20
sS'nunk'
p55
I20
sS'hablaras'
p56
I20
sS'est\xc3\xa1'
p57
I20
sS'waking'
p58
I20
sS'past'
p59
I20
sS'picked'
p60
I20
sS'gn'
p61
I20
sS'rato'
p62
I20
sS'eating'
p63
I20
sS'pedo'
p64
I20
sS'hijos'
p65
I20
sS'huele'
p66
I20
sS'even'
p67
I19
sS'what'
p68
I17
sS'camita'
p69
I20
sS'tipo'
p70
I20
sS'kris'
p71
I20
sS'play\xe2\x80\x9d'
p72
I20
sS'ajajaj'
p73
I20
sS'while'
p74
I20
sS'siiiiiiiii'
p75
I20
sS'discutir'
p76
I20
sS'!!!!!!this'
p77
I20
sS'bird'
p78
I19
sS'vamos'
p79
I19
sS'zamba'
p80
I20
sS'full'
p81
I20
sS'fr\xc3\xado'
p82
I18
sS'never'
p83
I20
sS'pregunta'
p84
I20
sS'15minutos'
p85
I20
sS'let'
p86
I20
sS'mes'
p87
I19
sS'relaxation'
p88
I20
sS'ley'
p89
I20
sS'extreme'
p90
I20
sS'dry'
p91
I20
sS'lol'
p92
I13
sS'shove'
p93
I20
sS'changed'
p94
I20
sS'lakers'
p95
I19
sS'cages'
p96
I20
sS'smoke'
p97
I20
sS'muuuuuaaaaaaa'
p98
I20
sS'clima'
p99
I20
sS"i'm"
p100
I15
sS'asf\xe2\x80\x9d'
p101
I20
sS'massage'
p102
I20
sS'love'
p103
I20
sS'vez'
p104
I20
sS'escuchar'
p105
I20
sS'vodka'
p106
I20
sS'feelings'
p107
I20
sS'bro'
p108
I19
sS'af,91402\n482742055639076864,vincegarcia_7,2014-06-28'
p109
I20
sS'buenas'
p110
I20
sS'otros'
p111
I19
sS'wuuuuaaoooo'
p112
I19
sS'siempre'
p113
I20
sS'oigame'
p114
I19
sS'would'
p115
I19
sS'&'
p116
I18
sS'21:15:40.0,34.23209396,-118.45114295,1193.40,crackhead'
p117
I20
sS'coraz\xc3\xb3n'
p118
I19
sS'pero'
p119
I15
sS'nadie'
p120
I19
sS'\xe2\x99\xa5\xef\xb8\x8f'
p121
I20
sS'podido'
p122
I20
sS'few'
p123
I20
sS'music'
p124
I20
sS'tell'
p125
I20
sS'trabajo'
p126
I20
sS'more'
p127
I20
sS'pencil'
p128
I20
sS'about'
p129
I19
sS'cu\xc3\xa1ndo'
p130
I20
sS'fuck'
p131
I18
sS'phone'
p132
I20
sS':-)'
p133
I5
sS"ain't"
p134
I20
sS'jajajajajajaja'
p135
I20
sS'dios'
p136
I19
sS'baby'
p137
I19
sS'hole'
p138
I20
sS'hola'
p139
I20
sS'me'
p140
I3
sS'......por'
p141
I20
sS'balls'
p142
I20
sS"me!!!!!!!!!!!!!'"
p143
I20
sS'conmi'
p144
I20
sS'this'
p145
I15
sS'work'
p146
I19
sS'mi'
p147
I12
sS'valla'
p148
I20
sS'malo'
p149
I20
sS'd\xc3\xadaprobchos'
p150
I20
sS'del'
p151
I18
sS'obedeser'
p152
I20
sS'following'
p153
I20
sS'excelente'
p154
I19
sS'my'
p155
I10
sS'mala'
p156
I20
sS'crazy'
p157
I20
sS'casita'
p158
I18
sS'pooped'
p159
I20
sS'nemo'
p160
I20
sS'loco'
p161
I20
sS'cantante'
p162
I20
sS'ssssssshhhhh'
p163
I20
sS'timeeeeeeee'
p164
I20
sS'sentimientos'
p165
I20
sS'recognized'
p166
I20
sS'want'
p167
I20
sS'allowed'
p168
I20
sS'tal'
p169
I20
sS'jajajajaaj'
p170
I20
sS'mermeja'
p171
I20
sS'sis'
p172
I20
sS'recompensa'
p173
I20
sS'di'
p174
I20
sS'amistad'
p175
I20
sS'voy'
p176
I20
sS'ves:-)'
p177
I20
sS'sunday'
p178
I20
sS'oficina'
p179
I20
sS'buenos'
p180
I20
sS'galleria'
p181
I20
sS'beach'
p182
I20
sS'hoy'
p183
I20
sS'mas'
p184
I20
sS'okay'
p185
I20
sS'falta'
p186
I20
sS'stop'
p187
I19
sS'alegra'
p188
I20
sS'after'
p189
I20
sS'birthday'
p190
I19
sS'jajaja'
p191
I19
sS'suck'
p192
I20
sS'las'
p193
I20
sS'a'
p194
I4
sS'stress'
p195
I20
sS'remember'
p196
I18
sS'jajajajaj'
p197
I20
sS'su'
p198
I20
sS'q'
p199
I11
sS'si'
p200
I18
sS'so'
p201
I15
sS't\xc3\xada'
p202
I19
sS'noches'
p203
I20
sS'sg'
p204
I20
sS'wing'
p205
I20
sS'se'
p206
I19
sS'wine'
p207
I20
sS'cute'
p208
I20
sS'gustaron'
p209
I20
sS"don't"
p210
I14
sS'over'
p211
I19
sS'17:34:40.0,34.23224702,-118.45032504,1193.40,i'
p212
I20
sS'durmiendo'
p213
I20
sS'whaaataaa'
p214
I20
sS'through'
p215
I20
sS'virgen'
p216
I19
sS'ma\xc3\xb1ana'
p217
I20
sS'osmond"'
p218
I20
sS'mcdonalds'
p219
I20
sS'still'
p220
I20
sS'mayor'
p221
I20
sS'before'
p222
I20
sS'osico'
p223
I20
sS'21'
p224
I20
sS'la'
p225
I9
sS'lo'
p226
I15
sS'canci\xc3\xb3n'
p227
I20
sS'jugando'
p228
I20
sS'better'
p229
I20
sS'd\xc3\xadas'
p230
I20
sS'pena'
p231
I20
sS'sudando'
p232
I20
sS'insomnio'
p233
I20
sS'yo'
p234
I18
sS'trippin'
p235
I20
sS'ya'
p236
I14
sS'nada'
p237
I19
sS'jajajajaja'
p238
I20
sS'hala'
p239
I20
sS'mention'
p240
I20
sS'heaven'
p241
I20
sS'they'
p242
I20
sS'half'
p243
I20
sS'not'
p244
I17
sS'now'
p245
I19
sS'cage'
p246
I20
sS'day'
p247
I19
sS'jajajajajajajajajqjqjj'
p248
I20
sS'pregnant'
p249
I20
sS'always'
p250
I20
sS'recuerdo'
p251
I20
sS'm\xc3\xa1s'
p252
I19
sS'desde'
p253
I20
sS'truth'
p254
I20
sS'star!!!!!!!because'
p255
I20
sS'found'
p256
I20
sS'caer\xc3\xada'
p257
I20
sS"isn't"
p258
I20
sS'modo'
p259
I20
sS'el'
p260
I13
sS'studios'
p261
I20
sS'en'
p262
I17
sS'doing'
p263
I20
sS'house'
p264
I20
sS'buena'
p265
I20
sS'ahorita!!!!!!!ya'
p266
I20
sS'ufffff'
p267
I20
sS'toda'
p268
I20
sS'meta'
p269
I20
sS'happen'
p270
I20
sS'todo'
p271
I18
sS'saturday'
p272
I20
sS'es'
p273
I13
sS'really'
p274
I17
sS'ejercicio'
p275
I20
sS'"wow'
p276
I20
sS'as\xc3\xad'
p277
I19
sS'acting'
p278
I20
sS'stupid'
p279
I20
sS'nite'
p280
I15
sS'got'
p281
I20
sS'ten\xc3\xada'
p282
I20
sS'hermosa'
p283
I20
sS'ass'
p284
I14
sS'e/'
p285
I20
sS"doesn't"
p286
I20
sS'timeline'
p287
I20
sS'story'
p288
I20
sS'free'
p289
I20
sS'wanted'
p290
I20
sS'there\xe3\x85\xa4\xe3\x85\xa4\xe3\x85\xa4\xe3\x85\xa4\xe3\x85\xa4\xe3\x85\xa4\xe3\x85\xa4\xe3\x85\xa4\xe3\x85\xa4\xe3\x85\xa4fuck'
p291
I20
sS'care'
p292
I20
sS'atm'
p293
I20
sS'days'
p294
I20
sS'times'
p295
I19
sS'thing'
p296
I20
sS"!!!!!!!!!!!!!!'"
p297
I20
sS'fascina'
p298
I20
sS'think'
p299
I18
sS'tirame'
p300
I20
sS'hora'
p301
I20
sS'\xe3\x84\x96_\xe3\x84\x96'
p302
I20
sS'feel'
p303
I20
sS'bendiciones'
p304
I18
sS'embarrassed'
p305
I20
sS'bitch'
p306
I19
sS'conmovi\xc3\xb3'
p307
I20
sS'drove'
p308
I20
sS'sargento'
p309
I20
sS'asustaste'
p310
I20
sS"you're"
p311
I20
sS'guess'
p312
I20
sS'basketball'
p313
I19
sS'their'
p314
I20
sS'girls'
p315
I18
sS'anyone'
p316
I20
sS'guadalupe'
p317
I19
sS'too'
p318
I20
sS'aver'
p319
I20
sS'white'
p320
I20
sS'wueva'
p321
I20
sS'thas'
p322
I19
sS'para'
p323
I13
sS'that'
p324
I11
sS'month'
p325
I20
sS'despertar'
p326
I20
sS'ocho-('
p327
I20
sS'am\xc3\xa9rica'
p328
I20
sS'!!!!!!:-)'
p329
I20
sS'listo'
p330
I18
sS'dawg'
p331
I20
sS'bajo'
p332
I20
sS'cagado'
p333
I20
sS'believe'
p334
I19
sS'than'
p335
I20
sS'loved'
p336
I20
sS'regresiva'
p337
I20
sS'double'
p338
I20
sS'gotta'
p339
I20
sS'mierda'
p340
I18
sS'bed'
p341
I20
sS'shower'
p342
I20
sS'dank'
p343
I20
sS'were'
p344
I20
sS'tres'
p345
I20
sS'encanta'
p346
I20
sS'and'
p347
I14
sS'este'
p348
I18
sS'amigo'
p349
I20
sS'san'
p350
I20
sS'clip'
p351
I20
sS'tonight'
p352
I20
sS'rat'
p353
I20
sS'himself'
p354
I20
sS'alike'
p355
I20
sS'have'
p356
I19
sS'need'
p357
I15
sS'sells'
p358
I20
sS'golllllll'
p359
I20
sS'saw'
p360
I20
sS'batting'
p361
I20
sS'thought'
p362
I19
sS'peligro'
p363
I20
sS'take'
p364
I20
sS'mis'
p365
I19
sS'had\xe2\x80\x9d'
p366
I20
sS';-)'
p367
I20
sS'jungle'
p368
I20
sS'vali\xc3\xb3'
p369
I20
sS'though'
p370
I20
sS'price'
p371
I20
sS'who'
p372
I20
sS'faaaaxk'
p373
I20
sS'jajajaja'
p374
I20
sS'cigarette'
p375
I20
sS'renuncies'
p376
I20
sS'amas'
p377
I20
sS'nothing'
p378
I20
sS'marie'
p379
I20
sS'comienza'
p380
I20
sS'4'
p381
I20
sS'forever'
p382
I20
sS'give'
p383
I20
sS"as'f"
p384
I20
sS'proud'
p385
I20
sS'est\xc3\xa1s'
p386
I20
sS'sf'
p387
I20
sS'emputado'
p388
I20
sS"you'll"
p389
I20
sS'!!!!!!diciembre'
p390
I20
sS'dos'
p391
I20
sS"that's"
p392
I20
sS'bomb'
p393
I20
sS'pi\xc3\xa9nsalo'
p394
I20
sS'text'
p395
I20
sS'basketbolista'
p396
I20
sS'dije'
p397
I20
sS'estoy'
p398
I20
sS'stfu'
p399
I19
sS'hace'
p400
I20
sS'fine'
p401
I20
sS'cansadito'
p402
I20
sS'touches'
p403
I20
sS'dice'
p404
I20
sS'mi\xc3\xa9rcoles'
p405
I20
sS'true'
p406
I20
sS'ruin'
p407
I20
sS'realmente'
p408
I20
sS'lol,91402\n486201647723323392,haroout_11,2014-07-07'
p409
I20
sS'jugar'
p410
I19
sS'should'
p411
I20
sS'rico'
p412
I17
sS'only'
p413
I17
sS'ultimo'
p414
I20
sS'quieres'
p415
I20
sS'logr\xc3\xb3'
p416
I20
sS'rica'
p417
I20
sS'do'
p418
I19
sS'side.\xe2\x80\x9d'
p419
I20
sS'get'
p420
I16
sS'de'
p421
I11
sS'watch'
p422
I20
sS'tbh'
p423
I20
sS'dijo'
p424
I20
sS"!!!!'"
p425
I20
sS'married'
p426
I20
sS'way,91402\n506187971411083265,sabrina_soda,2014-08-31'
p427
I20
sS":'("
p428
I20
sS'bad'
p429
I20
sS'bae'
p430
I18
sS'she'
p431
I18
sS"won't"
p432
I20
sS'fixed'
p433
I20
sS'where'
p434
I20
sS'ser'
p435
I19
sS'lazy'
p436
I20
sS'are'
p437
I20
sS'sea'
p438
I19
sS'said'
p439
I20
sS'hambre'
p440
I18
sS'movie'
p441
I20
sS'away'
p442
I19
sS'bien'
p443
I18
sS'smallest'
p444
I20
sS'confianza'
p445
I20
sS'estas'
p446
I19
sS'!!!!!!!:('
p447
I20
sS'vrs'
p448
I20
sS'solo'
p449
I20
sS'we'
p450
I18
sS'omg'
p451
I20
sS'tus'
p452
I18
sS'boss'
p453
I20
sS'inocente'
p454
I20
sS'despu\xc3\xa9s'
p455
I20
sS'vale'
p456
I20
sS'como'
p457
I19
sS'picking'
p458
I20
sS'come'
p459
I17
sS'volvi\xc3\xb3'
p460
I20
sS'last'
p461
I16
sS'celebrar'
p462
I20
sS'thot'
p463
I19
sS"wouldn't"
p464
I20
sS'coz'
p465
I20
sS'ahora'
p466
I18
sS'cumplir'
p467
I20
sS'muaaaaaaaaaaaaaaaaaaaaaaaaaaaaaa'
p468
I20
sS'una'
p469
I20
sS'dir\xc3\xa1'
p470
I20
sS'niggas'
p471
I20
sS'mean'
p472
I20
sS'traded'
p473
I20
sS'gente'
p474
I20
sS"can't"
p475
I17
sS'con'
p476
I16
sS'aaaaaaaaaaaaaaaaaaaaaaaaaaaaaaaa'
p477
I20
sS'sak'
p478
I20
sS'llegada'
p479
I20
sS'simplemente'
p480
I20
sS'wtf'
p481
I20
sS'point'
p482
I20
sS'sweet'
p483
I20
sS'...fr\xc3\xa1giles'
p484
I20
sS'por'
p485
I14
sS'envidia'
p486
I20
sS'hotter'
p487
I20
sS'cansado'
p488
I20
sS'esta'
p489
I20
sS'tiene'
p490
I20
sS'm\xc3\xbasica'
p491
I20
sS'contrario'
p492
I20
sS'hay'
p493
I20
sS"it's"
p494
I14
sS'tgif'
p495
I20
sS'cre\xc3\xb3'
p496
I20
sS'been'
p497
I20
sS'pa'
p498
I20
sS'0(==)0'
p499
I20
sS'threw'
p500
I20
sS'life'
p501
I20
sS'lived'
p502
I20
sS'caf\xc3\xa9'
p503
I20
sS'hmu'
p504
I20
sS'pasandola'
p505
I20
sS'!!!!:-)'
p506
I19
sS'smoking'
p507
I20
sS'::-)'
p508
I20
sS'chill'
p509
I19
sS'gracias'
p510
I16
sS'b\xc3\xa1rbara'
p511
I20
sS'look'
p512
I20
sS'these'
p513
I20
sS'20:15:08.0,34.23539165,-118.45065119,1193.40,moms'
p514
I20
sS'casi'
p515
I18
sS'ten\xc3\xa9s'
p516
I20
sS'can'
p517
I20
sS'will'
p518
I20
sS'ugly'
p519
I20
sS'near'
p520
I20
sS'fue'
p521
I20
sS'\xe2\x99\xa5\xef\xb8\x8f.\xe2\x80\x9d'
p522
I20
sS'venecia'
p523
I20
sS"nobody's"
p524
I20
sS'!!se'
p525
I20
sS'pushin'
p526
I20
sS'unos'
p527
I20
sS'weed\xe2\x80\x9d'
p528
I20
sS'vi'
p529
I20
sS'is'
p530
I15
sS'ir'
p531
I20
sS'it'
p532
I13
sS'todoooooooo'
p533
I20
sS'despues'
p534
I20
sS'vs'
p535
I20
sS'im'
p536
I20
sS'in'
p537
I15
sS'mujer'
p538
I20
sS'debes'
p539
I20
sS'id'
p540
I20
sS'if'
p541
I17
sS'jenner'
p542
I20
sS'funny'
p543
I19
sS"satan's"
p544
I20
sS'make'
p545
I20
sS'same'
p546
I20
sS'trip'
p547
I20
sS'corridos'
p548
I20
sS'party'
p549
I20
sS'gets'
p550
I19
sS'todos'
p551
I20
sS'lunes'
p552
I20
sS'caer'
p553
I20
sS'tiempo'
p554
I20
sS'used'
p555
I20
sS'tarde'
p556
I20
sS'tambi\xc3\xa9n'
p557
I20
sS'provechoso'
p558
I20
sS'futboll'
p559
I19
sS'hacer'
p560
I20
sS'volar'
p561
I20
sS'ahorita'
p562
I20
sS'entre'
p563
I20
sS'thy'
p564
I20
sS'i'
p565
I2
sS'hago'
p566
I20
sS'tho'
p567
I18
sS'comes'
p568
I20
sS'bottle'
p569
I20
sS'y'
p570
I12
sS'the'
p571
I7
sS'uno'
p572
I20
sS'aloooong'
p573
I20
sS'left'
p574
I20
sS'lest'
p575
I20
sS'just'
p576
I15
sS'ganando'
p577
I20
sS'competitive'
p578
I20
sS'!!!!!!!!:-['
p579
I20
sS'thanks'
p580
I20
sS'yes'
p581
I19
sS'sonrisas'
p582
I20
sS'wheeeee'
p583
I20
sS'antes'
p584
I20
sS'jahahahaah'
p585
I20
sS'!:-\\'
p586
I20
sS'had'
p587
I20
sS'cuz'
p588
I19
sS'janeth'
p589
I20
sS'kool-aid'
p590
I20
sS'sza-'
p591
I20
sS'buen'
p592
I20
sS'has'
p593
I18
sS'levantarme'
p594
I20
sS'kick'
p595
I20
sS'real'
p596
I19
sS',91402\n475732782665048064,bxreaal,2014-06-08'
p597
I20
sS'amo'
p598
I19
sS'couple'
p599
I20
sS"who's"
p600
I20
sS'triste'
p601
I19
sS'gonna'
p602
I19
sS'perfecto'
p603
I20
sS'life.\xe2\x80\x9d'
p604
I20
sS"t'f"
p605
I20
sS'know'
p606
I20
sS'password'
p607
I20
sS'wings'
p608
I20
sS'd'
p609
I19
sS"m\xc3\xa1s!!!!''"
p610
I20
sS'like'
p611
I18
sS'night'
p612
I17
sS'periods'
p613
I20
sS'amor'
p614
I19
sS'regresar'
p615
I20
sS'nigga'
p616
I19
sS'999-'
p617
I20
sS'otras'
p618
I19
sS'madrid'
p619
I20
sS'twitter'
p620
I19
sS'some'
p621
I15
sS':-\\'
p622
I19
sS'home'
p623
I18
sS'little'
p624
I20
sS'(--)'
p625
I20
sS'scrolling\xe3\x85\xa4\xe3\x85\xa4\xe3\x85\xa4\xe3\x85\xa4\xe3\x85\xa4\xe3\x85\xa4\xe3\x85\xa4\xe3\x85\xa4\xe3\x85\xa4\xe3\x85\xa4almost'
p626
I20
sS'!!!as\xc3\xad'
p627
I20
sS'reventemonos'
p628
I20
sS'for'
p629
I18
sS'reci\xc3\xa9n'
p630
I20
sS'pues'
p631
I20
sS'ice'
p632
I19
sS'everything'
p633
I19
sS'passion'
p634
I20
sS'!!!!!:-('
p635
I20
sS'esa'
p636
I20
sS'venir!!!:-)'
p637
I20
sS'bigote'
p638
I20
sS'be'
p639
I16
sS'\xe3\x85\xa4\xe3\x85\xa4\xe3\x85\xa4\xe3\x85\xa4\xe3\x85\xa4\xe3\x85\xa4\xe3\x85\xa4\xe3\x85\xa4\xe3\x85\xa4\xe3\x85\xa4\xe3\x85\xa4\xe3\x85\xa4keep'
p640
I20
sS'puedo'
p641
I20
sS'business'
p642
I19
sS'lmfao'
p643
I20
sS'lose'
p644
I19
sS'jack'
p645
I20
sS'olor'
p646
I20
sS'wuuurk'
p647
I20
sS'snapped'
p648
I20
sS'from'
p649
I19
sS'super'
p650
I20
sS'by'
p651
I20
sS'on'
p652
I16
sS':-('
p653
I19
sS'!!!!!!quien'
p654
I20
sS'everyday'
p655
I20
sS'anything'
p656
I19
sS'getting'
p657
I20
sS'of'
p658
I16
sS'favorite'
p659
I20
sS'o'
p660
I20
sS'pistachio'
p661
I20
sS'dinner'
p662
I20
sS'idk'
p663
I20
sS'mismo'
p664
I20
sS'!!!;-)'
p665
I20
sS'esperar'
p666
I19
sS'or'
p667
I17
sS'dude'
p668
I19
sS'washington'
p669
I20
sS'son'
p670
I20
sS'down'
p671
I20
sS'quiero'
p672
I20
sS'donde'
p673
I20
sS'show'
p674
I20
sS'soy'
p675
I20
sS'your'
p676
I18
sS'trabajar'
p677
I20
sS'sue\xc3\xb1os'
p678
I20
sS'???:-)'
p679
I20
sS'meterlagritar........y'
p680
I20
sS'fault!iknow'
p681
I20
sS'esperando'
p682
I19
sS'question'
p683
I20
sS'abrazo'
p684
I20
sS'long'
p685
I19
sS'fucking'
p686
I20
sS'things\xe2\x80\x9d'
p687
I20
sS'horngry'
p688
I20
sS'way'
p689
I20
sS'bruh'
p690
I19
sS'todav\xc3\xada'
p691
I19
sS'...y'
p692
I20
sS'was'
p693
I15
sS'poder'
p694
I20
sS"!!!!!'':-d"
p695
I20
sS'happy'
p696
I20
sS'head'
p697
I20
sS'dormir'
p698
I19
sS"child's"
p699
I20
sS'sacrificio'
p700
I20
sS'jajjaja'
p701
I20
sS'=-o'
p702
I20
sS'but'
p703
I20
sS'e'
p704
I20
sS'with'
p705
I18
sS'bud'
p706
I20
sS'he'
p707
I20
sS'wish'
p708
I20
sS'up'
p709
I17
sS'un'
p710
I13
sS'gust\xc3\xb3'
p711
I20
sS'xolos'
p712
I20
sS'z'
p713
I15
sS'siiiiiiiiiiiiiii'
p714
I20
sS'asap,91402\n'
p715
I20
sS'recordarte'
p716
I20
sS'feliz'
p717
I20
sS'universal'
p718
I20
sS'am'
p719
I20
sS'al'
p720
I19
sS'mundo'
p721
I20
sS'disfrutar'
p722
I20
sS'tengo'
p723
I17
sS'at'
p724
I16
sS'mejor'
p725
I16
sS'curious'
p726
I20
sS'lifetime'
p727
I20
sS'annoying'
p728
I19
sS'2anos'
p729
I20
sS',91402\n495644661331943424,chuloooo_,2014-08-02'
p730
I20
sS'shit'
p731
I15
sS'cream'
p732
I20
sS'ni'
p733
I20
sS'no'
p734
I6
sS'niceeee'
p735
I19
sS'nah'
p736
I20
sS'when'
p737
I17
sS'cuenta'
p738
I19
sS'nap'
p739
I20
sS'acab\xc3\xb3'
p740
I20
sS'grind'
p741
I20
sS'you'
p742
I7
sS'selecci\xc3\xb3n'
p743
I19
sS'nice'
p744
I17
sS'picture'
p745
I20
sS'francisco'
p746
I20
sS'much'
p747
I20
sS'ready\xc2\xa1\xc2\xa1\xc2\xa1\xc2\xa1\xc2\xa1'
p748
I20
sS'a\xc3\xb1o'
p749
I20
sS'siento'
p750
I20
sS'fuckin'
p751
I20
sS'sentirla'
p752
I20
sS'land'
p753
I20
sS'mente'
p754
I19
sS'sftu'
p755
I20
sS'demasiados'
p756
I20
sS'stroller'
p757
I20
sS'levantar'
p758
I20
sS'u'
p759
I19
sS'time'
p760
I19
sS'serious'
p761
I20
sS's\xc3\xb3lo'
p762
I18
sS'scroll'
p763
I20
sS'once'
p764
I20
s.