(dp0
S''
p1
I2
sS'raining'
p2
I99
sS'magtatanim'
p3
I100
sS'hats'
p4
I100
sS'yikes'
p5
I100
sS'betch'
p6
I100
sS'unplug'
p7
I100
sS'sleep'
p8
I71
sS'asian'
p9
I88
sS'hating'
p10
I100
sS'mansion'
p11
I100
sS'hate'
p12
I62
sS'worked'
p13
I100
sS'relationships'
p14
I100
sS'omgaaahhhhh'
p15
I100
sS'buddy'
p16
I99
sS'girl/boy/it'
p17
I100
sS'tweet'
p18
I89
sS'sweetest'
p19
I100
sS'otra'
p20
I100
sS'aun'
p21
I100
sS'homeworkkkk'
p22
I100
sS'swat'
p23
I100
sS'under'
p24
I100
sS'lord'
p25
I96
sS'sorry'
p26
I91
sS'pride'
p27
I100
sS'worth'
p28
I98
sS'thoooooo'
p29
I100
sS'lurk'
p30
I100
sS'incha'
p31
I100
sS'shoot'
p32
I100
sS'smack'
p33
I100
sS'every'
p34
I76
sS'jack'
p35
I100
sS'screenshotted'
p36
I99
sS'11:36:54.0,34.22573059,-118.42585031,1197,i'
p37
I100
sS'eshem'
p38
I100
sS'screaming'
p39
I100
sS'courageous'
p40
I100
sS'tagging'
p41
I100
sS'tickets'
p42
I97
sS'four'
p43
I100
sS'school'
p44
I83
sS'shays'
p45
I99
sS'bestfriend'
p46
I100
sS'broiler'
p47
I100
sS'hehe'
p48
I100
sS'oooo'
p49
I100
sS'relationship"'
p50
I100
sS'red'
p51
I100
sS'affect'
p52
I100
sS"yesterday's"
p53
I100
sS',91402\n498735237371662336,melissatweets_,2014-08-11'
p54
I100
sS'shows'
p55
I100
sS'ups'
p56
I99
sS'11:16:00.0,34.22574211,-118.42582223,1197,i'
p57
I100
sS'enjoy'
p58
I99
sS'her*'
p59
I100
sS'canelo'
p60
I100
sS'"all'
p61
I100
sS'force'
p62
I100
sS'tired'
p63
I89
sS'phones'
p64
I99
sS'weddings'
p65
I100
sS'......life'
p66
I100
sS'surrounding'
p67
I100
sS'second'
p68
I97
sS'fabulous'
p69
I99
sS"bryan's"
p70
I100
sS'chem'
p71
I100
sS'others)'
p72
I100
sS'even'
p73
I56
sS'yooouuuu'
p74
I100
sS'ruben'
p75
I97
sS'saved'
p76
I100
sS'+'
p77
I92
sS'revolves'
p78
I100
sS'fingers'
p79
I100
sS'scrolling'
p80
I100
sS'unfair...gorgeous'
p81
I100
sS'coasters'
p82
I100
sS'above'
p83
I99
sS'new'
p84
I82
sS'tips'
p85
I100
sS'ever'
p86
I76
sS'disney'
p87
I100
sS'told'
p88
I88
sS'mee'
p89
I100
sS'med'
p90
I100
sS',91402\n498200258493435905,melissatweets_,2014-08-09'
p91
I100
sS'kicked'
p92
I100
sS'guysss'
p93
I100
sS'zack'
p94
I100
sS'anxella'
p95
I100
sS'meeeeemories'
p96
I100
sS'pancakes'
p97
I100
sS'never'
p98
I64
sS'here'
p99
I91
sS'10%'
p100
I100
sS'\xe2\x9d\xa4\xef\xb8\x8f'
p101
I81
sS'protection'
p102
I100
sS'dorm'
p103
I100
sS'11:36:25.0,34.22570431,-118.42587034,1197,i'
p104
I100
sS'100'
p105
I100
sS"aren't"
p106
I97
sS'digits'
p107
I100
sS'minigolfing'
p108
I100
sS'kids'
p109
I94
sS'daughter'
p110
I100
sS'k'
p111
I98
sS'changed'
p112
I99
sS'jail'
p113
I100
sS'mantis'
p114
I100
sS'tv'
p115
I100
sS"i'd"
p116
I99
sS'ako'
p117
I96
sS'smoke'
p118
I99
sS'stressed'
p119
I100
sS'\xe2\x9c\x94\xef\xb8\x8f'
p120
I98
sS'complicated'
p121
I99
sS"i'm"
p122
I14
sS"someone's"
p123
I96
sS'sleepy,91402\n495498938078601220,melissatweets_,2014-08-02'
p124
I100
sS'cancellation'
p125
I100
sS'chowder'
p126
I100
sS'first"'
p127
I100
sS'julie'
p128
I97
sS'graders'
p129
I100
sS'bro'
p130
I98
sS'hahahahah'
p131
I97
sS'pyramid'
p132
I100
sS'insta'
p133
I95
sS'punching'
p134
I100
sS'18:59:09.0,34.22573528,-118.42623152,1197,when'
p135
I100
sS'total'
p136
I100
sS'mananahimik'
p137
I100
sS'charge'
p138
I100
sS'would'
p139
I77
sS'runyon'
p140
I100
sS'hospital'
p141
I100
sS'mexico'
p142
I93
sS'negative'
p143
I100
sS'craving'
p144
I100
sS'asses'
p145
I100
sS'music'
p146
I92
sS'calm'
p147
I99
sS'passport'
p148
I100
sS'typa'
p149
I100
sS'survive'
p150
I100
sS'sexy'
p151
I100
sS'calc'
p152
I100
sS'type'
p153
I92
sS'until'
p154
I88
sS'ir'
p155
I100
sS'females'
p156
I100
sS'holy'
p157
I100
sS'relax'
p158
I94
sS'successful'
p159
I99
sS'oscar'
p160
I99
sS'haha'
p161
I74
sS'subtweet'
p162
I97
sS'hurt'
p163
I94
sS'99'
p164
I100
sS'phone'
p165
I85
sS'warm'
p166
I100
sS'ommggg'
p167
I100
sS'adult'
p168
I100
sS'siblings'
p169
I100
sS'saben'
p170
I100
sS'hold'
p171
I98
sS'immature'
p172
I100
sS'dot'
p173
I100
sS'must'
p174
I99
sS'me'
p175
I9
sS'umiinom'
p176
I100
sS'9-3'
p177
I100
sS'enjoying'
p178
I100
sS'ma'
p179
I95
sS'room'
p180
I95
sS'jess'
p181
I91
sS'pursue'
p182
I100
sS'mo'
p183
I85
sS'work'
p184
I75
sS'mi'
p185
I98
sS'movies'
p186
I93
sS'cuddle'
p187
I100
sS'ms'
p188
I100
sS'mr'
p189
I100
sS'shoon'
p190
I100
sS'my'
p191
I7
sS'coulda'
p192
I100
sS'excuses'
p193
I100
sS'yur'
p194
I100
sS'triple'
p195
I100
sS'estate'
p196
I95
sS'give'
p197
I86
sS'pretty\xe2\x9d\xa4\xef\xb8\x8f'
p198
I100
sS'novio'
p199
I100
sS'stressing'
p200
I100
sS'"love'
p201
I100
sS'honey'
p202
I100
sS'homie'
p203
I100
sS'want'
p204
I42
sS'keep'
p205
I92
sS'guarantee'
p206
I100
sS'hoe'
p207
I95
sS'end'
p208
I93
sS'recovery'
p209
I100
sS'thing'
p210
I75
sS'provide'
p211
I100
sS'sitting'
p212
I100
sS'braids'
p213
I96
sS',91402\n495796223635255296,melissatweets_,2014-08-03'
p214
I100
sS'how'
p215
I55
sS'hot'
p216
I87
sS'cures'
p217
I100
sS'ig'
p218
I96
sS'significance'
p219
I100
sS'interview'
p220
I99
sS'tangled'
p221
I100
sS'misssssssss'
p222
I100
sS'beach'
p223
I97
sS'provincias'
p224
I100
sS'pizza'
p225
I99
sS':)),91402\n495238414929625088,melissatweets_,2014-08-01'
p226
I100
sS'sweets...but'
p227
I100
sS'elizabeth'
p228
I100
sS'beauty'
p229
I99
sS'bday'
p230
I98
sS'after'
p231
I83
sS'loyalty'
p232
I100
sS'lab'
p233
I97
sS'hence'
p234
I100
sS'wrong'
p235
I96
sS'badumtss'
p236
I100
sS'lay'
p237
I100
sS'sundresses'
p238
I100
sS'lav'
p239
I98
sS'law'
p240
I100
sS'meaningful'
p241
I100
sS'las'
p242
I99
sS'purchase'
p243
I100
sS'lisence'
p244
I100
sS'third'
p245
I100
sS'wins'
p246
I100
sS'marerealize'
p247
I100
sS'appreciate'
p248
I96
sS'maaannn'
p249
I100
sS'hasta'
p250
I100
sS'greek'
p251
I99
sS'funniest'
p252
I100
sS'keeps'
p253
I98
sS'worst'
p254
I93
sS'first'
p255
I80
sS'nonsensical'
p256
I99
sS'order'
p257
I99
sS'wind'
p258
I100
sS'fifa'
p259
I100
sS'belong'
p260
I100
sS'naman'
p261
I96
sS'over'
p262
I63
sS'fam'
p263
I100
sS'zen'
p264
I99
sS'babyshower'
p265
I100
sS'baratos'
p266
I100
sS'"put'
p267
I100
sS'foreal'
p268
I97
sS'licuados'
p269
I100
sS'medusa'
p270
I100
sS'before'
p271
I86
sS'ima'
p272
I100
sS'4evr'
p273
I100
sS'fit'
p274
I100
sS'"say'
p275
I100
sS'somewhere'
p276
I99
sS'fix'
p277
I100
sS'maramdaman'
p278
I100
sS'albums'
p279
I100
sS'expectations'
p280
I100
sS'writing'
p281
I98
sS'better'
p282
I79
sS'goddesses.\xe2\x80\x9d'
p283
I100
sS'405'
p284
I100
sS'fig'
p285
I100
sS'tinatamad'
p286
I100
sS'imy'
p287
I99
sS'weeks'
p288
I98
sS'easier'
p289
I99
sS'split'
p290
I100
sS'theo'
p291
I100
sS'then'
p292
I76
sS'them'
p293
I72
sS'servant?!-.-'
p294
I100
sS'blowjobs'
p295
I100
sS'woken'
p296
I99
sS'druuuuuuuuugs'
p297
I100
sS'weakness'
p298
I100
sS'workout'
p299
I99
sS'safe'
p300
I96
sS'disturb'
p301
I100
sS'break'
p302
I99
sS'therapy'
p303
I99
sS'xd'
p304
I100
sS'they'
p305
I47
sS'killed'
p306
I99
sS'one'
p307
I43
sS'itchy'
p308
I100
sS'headboard'
p309
I100
sS'rhetoric'
p310
I100
sS'alex'
p311
I84
sS'rocky'
p312
I100
sS'chandler'
p313
I100
sS'rocks'
p314
I100
sS'xarnuvel'
p315
I100
sS'each'
p316
I94
sS'went'
p317
I85
sS"'axperutsun'"
p318
I100
sS'side'
p319
I97
sS'bone'
p320
I100
sS'mean'
p321
I86
sS'signing'
p322
I100
sS'11:38:14.0,34.22580083,-118.42579331,1197,we'
p323
I100
sS'lagging'
p324
I100
sS'lmaooo'
p325
I92
sS'series'
p326
I100
sS'braiding'
p327
I100
sS'valenzuela'
p328
I100
sS'dawg'
p329
I100
sS'forgot'
p330
I98
sS'logo'
p331
I100
sS'saturday'
p332
I98
sS'profesora'
p333
I100
sS'rt'
p334
I86
sS'funnnnyy'
p335
I100
sS'driving'
p336
I96
sS'god'
p337
I77
sS'sms'
p338
I100
sS'cheesy'
p339
I100
sS'daniel'
p340
I100
sS'medicine'
p341
I100
sS'got'
p342
I60
sS'rn'
p343
I75
sS'forth'
p344
I100
sS'twice'
p345
I100
sS'independence'
p346
I100
sS'cutest'
p347
I97
sS"you're"
p348
I53
sS'fave'
p349
I100
sS'little'
p350
I69
sS'free'
p351
I97
sS'bailar'
p352
I100
sS'struggle'
p353
I98
sS'hoodie'
p354
I99
sS"people's"
p355
I98
sS'wanted'
p356
I96
sS'sowwwyyy'
p357
I100
sS'mvp'
p358
I100
sS'ate'
p359
I99
sS'starts'
p360
I98
sS'atm'
p361
I100
sS'messages'
p362
I100
sS'days'
p363
I84
sS'regrese'
p364
I100
sS'7'
p365
I99
sS'creates'
p366
I100
sS'nahhhhhhh'
p367
I100
sS'choices'
p368
I100
sS'madedeny'
p369
I100
sS"today's"
p370
I100
sS'soda'
p371
I100
sS'uses'
p372
I100
sS'loud'
p373
I91
sS'fuckin'
p374
I96
sS'already'
p375
I75
sS'hateeee'
p376
I100
sS'lol\xe2\x80\x9d'
p377
I99
sS'champs'
p378
I100
sS'grade'
p379
I100
sS'hearing'
p380
I100
sS'wash'
p381
I100
sS'another'
p382
I95
sS'comin'
p383
I99
sS'cards,91402\n495787388979802113,melissatweets_,2014-08-03'
p384
I100
sS'skipped'
p385
I100
sS'basketball'
p386
I100
sS'sweeeet'
p387
I100
sS'likely'
p388
I100
sS'11:12:52.0,34.22582413,-118.425868,1197,like'
p389
I100
sS'sarcasm'
p390
I100
sS'top'
p391
I100
sS'me"'
p392
I97
sS'girls'
p393
I83
sS'vibrate'
p394
I100
sS'needed'
p395
I99
sS'toh'
p396
I100
sS'dumbass'
p397
I99
sS'too'
p398
I47
sS'bienvenida'
p399
I100
sS'ayeeee'
p400
I100
sS'gilbert'
p401
I100
sS'legs'
p402
I100
sS'fastaa,91402\n496582128214110208,melissatweets_,2014-08-05'
p403
I100
sS'listen'
p404
I94
sS"me?don't"
p405
I100
sS'nunuf'
p406
I100
sS'centered'
p407
I100
sS'tooo'
p408
I99
sS'gym'
p409
I98
sS'jesscuh'
p410
I100
sS'took'
p411
I95
sS'rejected'
p412
I100
sS'11:22:43.0,34.22565419,-118.42585207,1197,it'
p413
I100
sS'predictable'
p414
I100
sS'hazelnut'
p415
I100
sS'life,91402\n494713622216445952,melissatweets_,2014-07-31'
p416
I100
sS'eshi'
p417
I100
sS'toronto'
p418
I100
sS'"make'
p419
I100
sS'messing'
p420
I100
sS'showed'
p421
I99
sS'kumakain'
p422
I100
sS'hike'
p423
I100
sS'yofuck'
p424
I100
sS'10x'
p425
I99
sS'wthh'
p426
I100
sS'shower'
p427
I97
sS'matter'
p428
I99
sS'classes'
p429
I95
sS'flame'
p430
I100
sS'hottie'
p431
I99
sS'tres'
p432
I100
sS'feeling'
p433
I96
sS'guessin'
p434
I99
sS'mini'
p435
I98
sS'tht'
p436
I100
sS'esta'
p437
I99
sS'bumangon'
p438
I100
sS'me,91402\n496617386527559683,melissatweets_,2014-08-05'
p439
I100
sS'mind'
p440
I96
sS'mine'
p441
I94
sS'ming'
p442
I100
sS'talking'
p443
I84
sS'natatakot'
p444
I100
sS'seen'
p445
I90
sS'seem'
p446
I99
sS'mins'
p447
I89
sS'tells'
p448
I100
sS'drunk"'
p449
I100
sS'karmas'
p450
I100
sS'responsible'
p451
I100
sS'-'
p452
I84
sS'snow'
p453
I100
sS'kaya'
p454
I100
sS'okie'
p455
I100
sS'laughed'
p456
I100
sS'completed'
p457
I100
sS'circles'
p458
I100
sS"girl's"
p459
I100
sS'exactly'
p460
I100
sS'lousinee'
p461
I100
sS'though'
p462
I93
sS'putos'
p463
I100
sS'proving'
p464
I100
sS'doin'
p465
I98
sS'wells'
p466
I100
sS'anatomy'
p467
I100
sS'welll'
p468
I100
sS'regular'
p469
I100
sS'mouth'
p470
I99
sS'splinter'
p471
I100
sS'now,91402\n498748498511024129,melissatweets_,2014-08-11'
p472
I100
sS'11:20:39.0,34.22578867,-118.42587961,1197,ok'
p473
I100
sS'obvio'
p474
I98
sS'episode'
p475
I100
sS'treats'
p476
I100
sS'curis'
p477
I100
sS'medical'
p478
I99
sS'devastating'
p479
I100
sS'dog'
p480
I94
sS"ballin'"
p481
I100
sS'doe'
p482
I97
sS'definitely'
p483
I98
sS'overnight'
p484
I100
sS'pineapple'
p485
I100
sS'dos'
p486
I100
sS'yessssssss'
p487
I100
sS'annoyed'
p488
I100
sS'came'
p489
I99
sS'kristen'
p490
I100
sS'saying'
p491
I93
sS'11:21:51.0,34.22577472,-118.42581812,1197,and'
p492
I100
sS'mejia'
p493
I100
sS'bomb'
p494
I98
sS'lyrics'
p495
I99
sS'bakit'
p496
I100
sS'tequila'
p497
I100
sS'random'
p498
I99
sS'funnnnnyyyy'
p499
I100
sS'nominated'
p500
I100
sS'ending'
p501
I100
sS'colors'
p502
I100
sS'\xd8\xb3\xd9\x85\xd9\x8a\xd9\x8a\xd9\x88\xd9\x82\xd9\x8b'
p503
I100
sS'earth'
p504
I100
sS'enjoyed'
p505
I99
sS'mainis'
p506
I100
sS'out!!!\xe2\x80\x9d'
p507
I100
sS'orleans'
p508
I100
sS'touches'
p509
I100
sS'busy'
p510
I98
sS'lalalalalalalalalalall'
p511
I100
sS'situations'
p512
I100
sS'explain'
p513
I98
sS'fundus'
p514
I100
sS"baby's"
p515
I100
sS'bipolar'
p516
I100
sS'yeezus'
p517
I100
sS'rich'
p518
I98
sS'photo'
p519
I100
sS'chipotle'
p520
I100
sS'rice'
p521
I100
sS'scrubbing'
p522
I100
sS'personality'
p523
I99
sS'wearing'
p524
I95
sS'do'
p525
I35
sS'sunglasses'
p526
I100
sS'asians'
p527
I99
sS'colorful'
p528
I100
sS'di'
p529
I97
sS'it\xe2\x80\x99ll'
p530
I100
sS'de'
p531
I96
sS'stop'
p532
I85
sS'13'
p533
I100
sS'hudgens'
p534
I100
sS'da'
p535
I96
sS'cartels'
p536
I100
sS'dx'
p537
I100
sS'wedding'
p538
I100
sS'impractical'
p539
I100
sS'nasty'
p540
I99
sS'midterms'
p541
I99
sS'dr'
p542
I99
sS'nurse'
p543
I100
sS'runs'
p544
I100
sS'catholic'
p545
I100
sS"'nisaaaaaaaaaa"
p546
I100
sS'officially'
p547
I98
sS'loob'
p548
I98
sS'11:21:13.0,34.22578867,-118.42587961,1197,so'
p549
I100
sS'depressed'
p550
I99
sS'bad'
p551
I81
sS'bae'
p552
I84
sS'18'
p553
I98
sS'bus"'
p554
I100
sS'complimenting'
p555
I100
sS'steal'
p556
I100
sS'ears'
p557
I100
sS'espanol'
p558
I100
sS'beso'
p559
I100
sS'fair'
p560
I99
sS'3days'
p561
I100
sS'w/'
p562
I98
sS'nun'
p563
I99
sS'goodnight'
p564
I92
sS'decided'
p565
I98
sS'discussions'
p566
I100
sS'miserable'
p567
I100
sS'too,91402\n496621196536840192,melissatweets_,2014-08-05'
p568
I100
sS'best'
p569
I70
sS'brazil'
p570
I100
sS'iry'
p571
I94
sS'said'
p572
I75
sS'away'
p573
I89
sS'irs'
p574
I100
sS'rings'
p575
I99
sS'bien'
p576
I100
sS"there's"
p577
I83
sS'olympics'
p578
I100
sS'finger'
p579
I99
sS'hopefully'
p580
I99
sS'louboutins'
p581
I100
sS'nahhht'
p582
I100
sS'lazy'
p583
I96
sS'men'
p584
I99
sS'omg'
p585
I70
sS'lakers!"'
p586
I100
sS'confusion'
p587
I99
sS'weak'
p588
I100
sS'boss'
p589
I99
sS'toothbrush'
p590
I100
sS'loading'
p591
I100
sS'rescued,91402\n496620466384039938,melissatweets_,2014-08-05'
p592
I100
sS'wear'
p593
I95
sS'wtf'
p594
I90
sS'mukha'
p595
I100
sS'cousin'
p596
I98
sS'flexin'
p597
I99
sS'lessss'
p598
I100
sS'29th'
p599
I100
sS'bras'
p600
I100
sS'cop'
p601
I100
sS'goddess'
p602
I100
sS'tfti'
p603
I100
sS'met'
p604
I98
sS'bachelorette'
p605
I98
sS'country'
p606
I93
sS'ill'
p607
I100
sS'ahora'
p608
I100
sS'cuddles'
p609
I100
sS'una'
p610
I99
sS'21:11:42.0,34.22584333,-118.42594787,1197,scabs'
p611
I100
sS'games'
p612
I98
sS'05:45:42.0,34.225758,-118.42595684,1197,that'
p613
I100
sS'greets?\xe2\x80\x9d'
p614
I100
sS'marrying'
p615
I100
sS'witcha'
p616
I100
sS'requests'
p617
I100
sS'asked'
p618
I96
sS'ily'
p619
I92
sS'pre'
p620
I99
sS'tough'
p621
I100
sS'cura\xc3\xa7ao'
p622
I100
sS'character'
p623
I100
sS'vain'
p624
I100
sS'2nd'
p625
I100
sS'canyon'
p626
I100
sS'niya'
p627
I100
sS'path'
p628
I100
sS'yaaa'
p629
I100
sS'blonde'
p630
I99
sS'trust'
p631
I98
sS'speak'
p632
I96
sS'bathroom'
p633
I100
sS'strong'
p634
I100
sS'angel'
p635
I100
sS'asks'
p636
I99
sS'"you'
p637
I99
sS'sororities'
p638
I100
sS'three'
p639
I99
sS'been'
p640
I82
sS'hahahhaha'
p641
I100
sS'much'
p642
I54
sS'puta'
p643
I99
sS'basic'
p644
I97
sS'puto'
p645
I100
sS'topics'
p646
I100
sS'rutards'
p647
I100
sS'life'
p648
I65
sS'soooooo'
p649
I100
sS'relaxing'
p650
I99
sS'drugs'
p651
I98
sS'talagang'
p652
I100
sS'sooooo'
p653
I99
sS'rappas'
p654
I100
sS'fest'
p655
I100
sS'bullying'
p656
I100
sS'child'
p657
I98
sS'catch'
p658
I98
sS'it\xe2\x9d\xa4\xef\xb8\x8f'
p659
I100
sS'08:23:39.0,34.22580594,-118.42578141,1197,i'
p660
I100
sS'church)'
p661
I100
sS'chill'
p662
I99
sS'tide'
p663
I100
sS'exception'
p664
I100
sS'has'
p665
I79
sS'tank'
p666
I100
sS'n'
p667
I99
sS'ugly'
p668
I91
sS'gna'
p669
I100
sS'suppose'
p670
I100
sS'teachers'
p671
I100
sS'visit'
p672
I95
sS'"1hr"'
p673
I100
sS'jotitos'
p674
I100
sS'12am'
p675
I100
sS'voice'
p676
I98
sS'study'
p677
I98
sS'chilling'
p678
I100
sS'mistake'
p679
I99
sS'uxarkelulmaoooo'
p680
I100
sS'settles'
p681
I100
sS'project'
p682
I100
sS'played'
p683
I99
sS'bolivian'
p684
I100
sS'is'
p685
I10
sS'sushi'
p686
I99
sS'"i'
p687
I98
sS'stoppp'
p688
I99
sS'estos'
p689
I100
sS'player'
p690
I96
sS'cant'
p691
I98
sS'im'
p692
I87
sS'creepy'
p693
I100
sS'in'
p694
I12
sS'casting'
p695
I100
sS'id'
p696
I99
sS'disappear'
p697
I99
sS'if'
p698
I36
sS'igdaf'
p699
I100
sS'kahit'
p700
I98
sS'perform'
p701
I100
sS'things'
p702
I95
sS'make'
p703
I66
sS'bella'
p704
I100
sS'hahah'
p705
I89
sS'babies'
p706
I97
sS'whitened'
p707
I100
sS'plates'
p708
I100
sS'sat'
p709
I100
sS'showing'
p710
I100
sS'yung'
p711
I91
sS'vibrates'
p712
I100
sS'hurt\xe2\x80\x9d'
p713
I100
sS'lovaaaas'
p714
I100
sS'groupchat'
p715
I100
sS'mujeres'
p716
I100
sS'boredum'
p717
I100
sS'social'
p718
I99
sS'hang'
p719
I97
sS'rain'
p720
I97
sS'hand'
p721
I99
sS'kik'
p722
I100
sS'heartbroken'
p723
I99
sS'!!!!!!\xe2\x80\x9d'
p724
I100
sS'kim'
p725
I99
sS'earlobes'
p726
I100
sS'jealous'
p727
I99
sS"he'll"
p728
I100
sS'tune'
p729
I100
sS'kid'
p730
I95
sS'suitable'
p731
I100
sS'kept'
p732
I100
sS'shitty'
p733
I100
sS'changes'
p734
I100
sS'youre'
p735
I98
sS'huddling'
p736
I100
sS'80%'
p737
I100
sS'ocean'
p738
I99
sS'tho'
p739
I81
sS'hispanic'
p740
I100
sS'greatest'
p741
I100
sS'goals'
p742
I100
sS'mother'
p743
I99
sS'kasi'
p744
I100
sS'the'
p745
I4
sS'invitan'
p746
I100
sS'yours'
p747
I100
sS'tha'
p748
I100
sS'left'
p749
I92
sS'just'
p750
I19
sS'sentence'
p751
I100
sS'yea'
p752
I92
sS'gods'
p753
I100
sS'unfollow'
p754
I100
sS'newton'
p755
I100
sS'sleepy'
p756
I98
sS'unfair'
p757
I100
sS'11:20:17.0,34.22573281,-118.42583204,1197,420,91402\n496616223694540801,melissatweets_,2014-08-05'
p758
I100
sS'yey'
p759
I100
sS'quotes'
p760
I98
sS'grades'
p761
I100
sS'thanks'
p762
I90
sS'facts'
p763
I100
sS'yep'
p764
I97
sS'yes'
p765
I82
sS'life\xe2\x9d\xa4\xef\xb8\x8f'
p766
I100
sS'yet'
p767
I97
sS'yev'
p768
I99
sS'hah'
p769
I99
sS'jose'
p770
I100
sS"ed's"
p771
I100
sS'sciences'
p772
I100
sS"o_o'"
p773
I100
sS'had'
p774
I84
sS'ginawa'
p775
I100
sS'buff\xe2\x80\x9d'
p776
I100
sS'shout'
p777
I99
sS'affinity'
p778
I100
sS'er)'
p779
I100
sS'easy'
p780
I97
sS'karotomem'
p781
I99
sS'save'
p782
I99
sS'hat'
p783
I100
sS'gave'
p784
I96
sS'"cannot'
p785
I100
sS'11:21:55.0,34.22567376,-118.42584419,1197,nope,91402\n496617071187218432,melissatweets_,2014-08-05'
p786
I100
sS'maya'
p787
I100
sS'lightsaber'
p788
I100
sS'vanessa'
p789
I100
sS'africa'
p790
I100
sS'sapat'
p791
I100
sS'patience.i'
p792
I100
sS'possible'
p793
I99
sS'cryinggggg'
p794
I100
sS"sleep'"
p795
I100
sS'sleep"'
p796
I100
sS'judge'
p797
I99
sS'work,91402\n497342272480882688,melissatweets_,2014-08-07'
p798
I100
sS'dreams'
p799
I99
sS'apart'
p800
I100
sS'brought'
p801
I98
sS'nevermind'
p802
I100
sS'gift'
p803
I97
sS'-_-'
p804
I98
sS'patience'
p805
I100
sS'55'
p806
I100
sS'afternoon.\xe2\x80\xa6'
p807
I100
sS'50'
p808
I100
sS'remind'
p809
I99
sS'fastest'
p810
I100
sS'night'
p811
I58
sS'moral'
p812
I99
sS'security'
p813
I100
sS'towards'
p814
I100
sS'right'
p815
I61
sS'old'
p816
I96
sS'warm,91402\n495509080186703872,melissatweets_,2014-08-02'
p817
I100
sS'deal'
p818
I96
sS'people'
p819
I53
sS'proudly'
p820
I100
sS'caughtmom-mary'
p821
I100
sS'dead'
p822
I99
sS'hablar'
p823
I100
sS"nothing's"
p824
I100
sS'helpin'
p825
I100
sS'billboard'
p826
I100
sS'multiple'
p827
I99
sS'indirect'
p828
I100
sS'creep'
p829
I100
sS'confusing'
p830
I99
sS"daddy's"
p831
I100
sS'humor'
p832
I100
sS'01:27:11.0,34.22581977,-118.42596148,1197,when'
p833
I100
sS'for'
p834
I16
sS'purple'
p835
I100
sS'notification'
p836
I99
sS'encyclopedia"'
p837
I100
sS'ice'
p838
I96
sS'creative'
p839
I99
sS'everything'
p840
I82
sS'asking'
p841
I99
sS'navicular'
p842
I100
sS'cheesecake'
p843
I100
sS'umm'
p844
I99
sS'420'
p845
I99
sS'3:30'
p846
I100
sS'foo'
p847
I100
sS'adorable'
p848
I100
sS'8days\xe2\x9d\xa4\xef\xb8\x8f'
p849
I100
sS'package'
p850
I100
sS'sherman'
p851
I100
sS'pls'
p852
I96
sS'bold'
p853
I100
sS'deleted'
p854
I98
sS'lot/take'
p855
I100
sS'pose'
p856
I100
sS'plz'
p857
I100
sS'conjuring'
p858
I100
sS'discount'
p859
I100
sS'amor'
p860
I100
sS'keeper'
p861
I100
sS'post'
p862
I94
sS'falls'
p863
I100
sS'super'
p864
I87
sS"something's"
p865
I100
sS'hyna'
p866
I99
sS'filipino'
p867
I97
sS'cowboy'
p868
I96
sS'theirs'
p869
I100
sS'months'
p870
I94
sS'o'
p871
I100
sS'dinner'
p872
I99
sS'plus'
p873
I98
sS'efforts'
p874
I99
sS'nooooooo'
p875
I100
sS'sept'
p876
I100
sS'obs'
p877
I100
sS'automatically'
p878
I100
sS'raised'
p879
I100
sS'kita'
p880
I100
sS'froze'
p881
I100
sS'lied'
p882
I99
sS'selfie'
p883
I96
sS'marigus'
p884
I100
sS'soo'
p885
I99
sS'ppl'
p886
I82
sS'down'
p887
I88
sS"ex's"
p888
I99
sS'jeeeez'
p889
I100
sS'soy'
p890
I100
sS'mamba'
p891
I99
sS"elena's"
p892
I100
sS'"walking'
p893
I100
sS'uno'
p894
I100
sS'saturdays'
p895
I100
sS'stab'
p896
I100
sS'water?mom:do'
p897
I100
sS'stereotype'
p898
I100
sS'wag'
p899
I100
sS'panorama'
p900
I99
sS'support'
p901
I97
sS'flying'
p902
I100
sS'wab'
p903
I100
sS'why'
p904
I52
sS'stuck'
p905
I100
sS'way'
p906
I86
sS'call'
p907
I86
sS'was'
p908
I24
sS'war'
p909
I100
sS'shhh'
p910
I100
sS'happy'
p911
I61
sS'head'
p912
I93
sS'emoji.\xe2\x80\x9d'
p913
I100
sS'offer'
p914
I100
sS',91402\n498728899354689536,melissatweets_,2014-08-11'
p915
I100
sS'becoming'
p916
I100
sS'gorgeous'
p917
I99
sS'truu'
p918
I100
sS'fuckkkkkk'
p919
I100
sS'26th'
p920
I100
sS'notifications'
p921
I100
sS'heat'
p922
I97
sS'hear'
p923
I96
sS'dedications'
p924
I100
sS'weirdos'
p925
I100
sS'nyquill'
p926
I100
sS'true'
p927
I91
sS'congratulations'
p928
I100
sS'chuuuu'
p929
I100
sS'consequences'
p930
I100
sS'economia'
p931
I100
sS'negativity'
p932
I100
sS'inside'
p933
I100
sS'isang'
p934
I100
sS'tell'
p935
I80
sS'whiskey'
p936
I100
sS'mooney'
p937
I100
sS'nicest'
p938
I100
sS'felicia'
p939
I100
sS'emotional'
p940
I99
sS'daddy'
p941
I98
sS'propaganda'
p942
I100
sS'delete'
p943
I98
sS'promises'
p944
I100
sS'adopt'
p945
I99
sS'disgrace'
p946
I100
sS'permanente'
p947
I97
sS'nicholson'
p948
I100
sS'pag-ulan'
p949
I100
sS'hungry'
p950
I100
sS'dear'
p951
I100
sS'list'
p952
I100
sS'proves'
p953
I100
sS'09:03:00.0,34.22569408,-118.4258854,1197,i'
p954
I100
sS'dierks'
p955
I100
sS'awhile'
p956
I100
sS'annoying'
p957
I93
sS'trip'
p958
I99
sS'shit'
p959
I70
sS'physical'
p960
I99
sS'kdot'
p961
I100
sS'dying'
p962
I96
sS'floor'
p963
I98
sS'tit'
p964
I100
sS'na'
p965
I85
sS'nc'
p966
I100
sS'when'
p967
I31
sS'dowling'
p968
I100
sS'ng'
p969
I83
sS'til'
p970
I94
sS'8.1.14'
p971
I100
sS'papers'
p972
I100
sS'test'
p973
I96
sS'tie'
p974
I100
sS'enemies'
p975
I100
sS'helllll'
p976
I100
sS'roll'
p977
I100
sS'tic'
p978
I99
sS'meeeee'
p979
I99
sS'picture'
p980
I95
sS'brother:mom'
p981
I100
sS'mary-'
p982
I100
sS'hateeeeeeeeeee'
p983
I100
sS'brothers'
p984
I100
sS'palms'
p985
I100
sS'welcome'
p986
I99
sS'convincing'
p987
I100
sS'diet'
p988
I100
sS'11:24:56.0,34.22573206,-118.4258162,1197,but'
p989
I100
sS"let's"
p990
I86
sS'fell'
p991
I95
sS'procedimiento'
p992
I100
sS'scores'
p993
I99
sS'aware'
p994
I100
sS'weekend'
p995
I91
sS'babysitting'
p996
I100
sS'happening'
p997
I99
sS'marathon'
p998
I100
sS'(san'
p999
I100
sS'together'
p1000
I93
sS'pet'
p1001
I100
sS'loyal'
p1002
I100
sS'songz'
p1003
I100
sS'time'
p1004
I51
sS'serious'
p1005
I99
sS':))'
p1006
I98
sS'neighbors'
p1007
I100
sS'"no!"'
p1008
I100
sS':('
p1009
I76
sS':)'
p1010
I93
sS'switched'
p1011
I100
sS'dance'
p1012
I99
sS'foot'
p1013
I100
sS'rod'
p1014
I100
sS'themes'
p1015
I100
sS'reeeeeal'
p1016
I100
sS'manager'
p1017
I100
sS'mile'
p1018
I99
sS'comments'
p1019
I100
sS'skin'
p1020
I100
sS'precisa'
p1021
I100
sS'chair'
p1022
I100
sS'row'
p1023
I100
sS'devoted'
p1024
I100
sS'supposedly'
p1025
I99
sS'ver'
p1026
I100
sS'zone'
p1027
I100
sS'filming'
p1028
I100
sS'father'
p1029
I100
sS'disgusting'
p1030
I100
sS'contemplating'
p1031
I100
sS'click'
p1032
I100
sS'finally'
p1033
I83
sS"'yes"
p1034
I100
sS'<<wait'
p1035
I100
sS'text'
p1036
I85
sS'cheat."'
p1037
I100
sS'better.think'
p1038
I100
sS'division'
p1039
I99
sS'feeeellll'
p1040
I100
sS'3am'
p1041
I100
sS'assholes'
p1042
I100
sS'okaaayyy'
p1043
I100
sS'keeping'
p1044
I100
sS'\xe2\x9c\x88\xef\xb8\x8f\xe2\x80\x9d'
p1045
I100
sS'vegas'
p1046
I98
sS'join'
p1047
I100
sS'trouble'
p1048
I100
sS'blast'
p1049
I100
sS':p'
p1050
I99
sS'help\xe2\x80\x9dapush'
p1051
I100
sS'minute'
p1052
I99
sS'cool'
p1053
I80
sS'din'
p1054
I99
sS'..,91402\n496620861986570240,melissatweets_,2014-08-05'
p1055
I100
sS'clouds'
p1056
I99
sS'level'
p1057
I97
sS'did'
p1058
I70
sS'die'
p1059
I94
sS'dif'
p1060
I100
sS'posts'
p1061
I100
sS'brother'
p1062
I92
sS'turnt'
p1063
I100
sS'leave'
p1064
I93
sS'mm'
p1065
I100
sS'soooo'
p1066
I97
sS'settle'
p1067
I100
sS',91402\n495760587997986816,melissatweets_,2014-08-03'
p1068
I100
sS'subway'
p1069
I100
sS'..so'
p1070
I100
sS'team'
p1071
I99
sS'quick'
p1072
I100
sS'guy'
p1073
I92
sS'dip'
p1074
I100
sS'round'
p1075
I100
sS"it'll"
p1076
I98
sS'upper'
p1077
I98
sS'talaga'
p1078
I100
sS'brave'
p1079
I99
sS'says'
p1080
I92
sS'regret'
p1081
I100
sS'porn'
p1082
I100
sS'...noo'
p1083
I100
sS'cyber'
p1084
I100
sS'sign'
p1085
I96
sS'dismissive'
p1086
I100
sS'soldiers'
p1087
I100
sS'eating'
p1088
I99
sS'"tama'
p1089
I100
sS'dapat'
p1090
I99
sS'u,91402\n496615602270646273,melissatweets_,2014-08-05'
p1091
I100
sS'drinks'
p1092
I99
sS'mely'
p1093
I98
sS'appear'
p1094
I100
sS'anagnost'
p1095
I100
sS'bachelorette\xe2\x80\x9d'
p1096
I100
sS'melt'
p1097
I100
sS'remembered'
p1098
I100
sS'meli'
p1099
I100
sS'goes'
p1100
I98
sS'view'
p1101
I100
sS'reply'
p1102
I99
sS'falling'
p1103
I99
sS'gawd'
p1104
I100
sS'burn'
p1105
I100
sS'calculations'
p1106
I100
sS'loooooks'
p1107
I100
sS'11:23:32.0,34.22587911,-118.42592989,1197,out'
p1108
I100
sS'learn'
p1109
I96
sS'french'
p1110
I100
sS'agreement'
p1111
I100
sS'downloaded'
p1112
I100
sS'baseball'
p1113
I99
sS'say"'
p1114
I100
sS'cuts*'
p1115
I100
sS'alone'
p1116
I91
sS'gorge'
p1117
I100
sS'along'
p1118
I100
sS'disappeared'
p1119
I100
sS'earthquake'
p1120
I99
sS'change'
p1121
I98
sS'wait'
p1122
I82
sS'boy'
p1123
I97
sS'yessss'
p1124
I100
sS'shift'
p1125
I99
sS'bruises'
p1126
I100
sS'bruiser'
p1127
I100
sS'wherever'
p1128
I100
sS'lakers'
p1129
I99
sS'exams'
p1130
I99
sS'4mins'
p1131
I100
sS'boo'
p1132
I100
sS'usually'
p1133
I99
sS'weird'
p1134
I91
sS'omggggg'
p1135
I100
sS'shit,91402\n496617290230530048,melissatweets_,2014-08-05'
p1136
I100
sS'homecoming'
p1137
I99
sS'lova'
p1138
I99
sS'lmfaoooo'
p1139
I98
sS'love'
p1140
I34
sS'extra'
p1141
I100
sS"'stupid'"
p1142
I100
sS'kayak'
p1143
I99
sS'losing'
p1144
I100
sS'verga'
p1145
I100
sS'randoms'
p1146
I100
sS'fbf'
p1147
I100
sS'fake'
p1148
I94
sS'omggggggg'
p1149
I100
sS'argentinas'
p1150
I100
sS'siempre'
p1151
I100
sS'ayyyyy'
p1152
I100
sS'andi'
p1153
I94
sS'working'
p1154
I95
sS'baes'
p1155
I99
sS'positive'
p1156
I97
sS'angry'
p1157
I99
sS'dude'
p1158
I93
sS'tears'
p1159
I100
sS'kyank'
p1160
I100
sS'live'
p1161
I95
sS'believing'
p1162
I100
sS'thru'
p1163
I96
sS'angels'
p1164
I100
sS'prep'
p1165
I100
sS'today'
p1166
I66
sS"sd's"
p1167
I100
sS'laughs'
p1168
I100
sS'ooo'
p1169
I100
sS'chocolate'
p1170
I98
sS'heels"'
p1171
I100
sS'everywhere'
p1172
I99
sS'scratches'
p1173
I100
sS'olive'
p1174
I100
sS'effort'
p1175
I100
sS'fly'
p1176
I99
sS'graphic'
p1177
I100
sS'douche'
p1178
I100
sS'fosho'
p1179
I99
sS'whaaaat'
p1180
I99
sS'car'
p1181
I95
sS'originally'
p1182
I100
sS'flu'
p1183
I100
sS'soul'
p1184
I99
sS'purge'
p1185
I99
sS'hardest'
p1186
I97
sS'bugs'
p1187
I100
sS'can'
p1188
I38
sS'cam'
p1189
I100
sS'cal'
p1190
I99
sS'following'
p1191
I100
sS'making'
p1192
I95
sS'sleeep'
p1193
I100
sS'bites'
p1194
I99
sS'heart'
p1195
I92
sS'crazy'
p1196
I81
sS'valentines'
p1197
I100
sS'nursing'
p1198
I99
sS'figure'
p1199
I99
sS'predict'
p1200
I100
sS'awesome'
p1201
I95
sS'nemo'
p1202
I100
sS"didn't"
p1203
I73
sS'fuck'
p1204
I56
sS'ximena'
p1205
I96
sS'bridesmaid'
p1206
I100
sS'heard'
p1207
I97
sS'chin'
p1208
I100
sS'hides'
p1209
I100
sS'allowed'
p1210
I100
sS'workin'
p1211
I100
sS'counting'
p1212
I100
sS'minsan'
p1213
I97
sS'listens'
p1214
I100
sS'pink'
p1215
I99
sS'scar'
p1216
I100
sS'winter'
p1217
I100
sS'reliving'
p1218
I100
sS"molorak'"
p1219
I100
sS'1'
p1220
I95
sS'till'
p1221
I100
sS'sunday'
p1222
I99
sS'actual'
p1223
I100
sS'pure'
p1224
I100
sS'\xe2\x9d\xa4\xef\xb8\x8f\xe2\x9d\xa4\xef\xb8\x8f\xe2\x9d\xa4\xef\xb8\x8f'
p1225
I100
sS'speaks'
p1226
I100
sS'sureeee'
p1227
I100
sS'community'
p1228
I100
sS'$100'
p1229
I100
sS'staying'
p1230
I97
sS'huge'
p1231
I100
sS'may'
p1232
I96
sS'overall'
p1233
I100
sS'spot'
p1234
I99
sS'latte'
p1235
I100
sS'crashed'
p1236
I100
sS'membership'
p1237
I100
sS'birthday'
p1238
I71
sS'mae'
p1239
I100
sS'mad'
p1240
I91
sS'hombre'
p1241
I100
sS'date'
p1242
I99
sS'such'
p1243
I84
sS'suck'
p1244
I93
sS'guys'
p1245
I80
sS'grow'
p1246
I100
sS'man'
p1247
I86
sS'stress'
p1248
I99
sS'20:12:52.0,34.22581948,-118.4258478,1197,i'
p1249
I100
sS'remember'
p1250
I96
sS'whenever'
p1251
I100
sS'maybe'
p1252
I92
sS'ponytail'
p1253
I100
sS'baka'
p1254
I100
sS'bean'
p1255
I100
sS'chaxkal'
p1256
I100
sS'sk'
p1257
I100
sS'switch'
p1258
I100
sS'mango'
p1259
I100
sS'so'
p1260
I11
sS'"do'
p1261
I100
sS'sa'
p1262
I95
sS'wifis'
p1263
I100
sS'sg'
p1264
I100
sS'talk'
p1265
I92
sS'papansinin'
p1266
I100
sS'cute'
p1267
I70
sS'bleeding,91402\n496620977061523457,melissatweets_,2014-08-05'
p1268
I100
sS'you?"'
p1269
I100
sS'kailangan'
p1270
I100
sS'ingrid'
p1271
I100
sS'midnight'
p1272
I100
sS'years'
p1273
I95
sS'professors'
p1274
I100
sS'course'
p1275
I92
sS'kimmel'
p1276
I100
sS'11:36:43.0,34.22573059,-118.42585031,1197,fast'
p1277
I100
sS'lmk'
p1278
I100
sS'cuts'
p1279
I100
sS'cold'
p1280
I99
sS'still'
p1281
I67
sS'moaning'
p1282
I100
sS'tendency'
p1283
I100
sS'blocked'
p1284
I100
sS'aper'
p1285
I100
sS'group'
p1286
I99
sS'thank'
p1287
I85
sS'curly'
p1288
I100
sS"he's"
p1289
I95
sS'willow'
p1290
I100
sS'interesting'
p1291
I99
sS'amazing'
p1292
I84
sS'faves'
p1293
I100
sS'woaaaaah'
p1294
I100
sS'window'
p1295
I100
sS'according'
p1296
I100
sS'farmer'
p1297
I99
sS'tweets'
p1298
I98
sS'mail'
p1299
I100
sS'main'
p1300
I99
sS'pockets-kevin'
p1301
I100
sS'abusive'
p1302
I100
sS'texas'
p1303
I99
sS'happened'
p1304
I96
sS'lonely'
p1305
I98
sS'offffffff'
p1306
I100
sS'views'
p1307
I100
sS'moms'
p1308
I98
sS'conversations'
p1309
I100
sS'songs"'
p1310
I100
sS'21y/o'
p1311
I100
sS'insomnia'
p1312
I99
sS'sooner'
p1313
I99
sS'jalape\xc3\xb1o'
p1314
I100
sS'lunch'
p1315
I98
sS'touching'
p1316
I99
sS'tails'
p1317
I99
sS'"gn"'
p1318
I100
sS'half'
p1319
I97
sS'not'
p1320
I28
sS'hahahahahahahahah'
p1321
I100
sS'now'
p1322
I45
sS'twilight'
p1323
I100
sS'bullshit'
p1324
I98
sS'nor'
p1325
I100
sS'josh'
p1326
I100
sS'term'
p1327
I97
sS'name'
p1328
I92
sS'thankful'
p1329
I100
sS'january'
p1330
I100
sS'11:13'
p1331
I100
sS'drop'
p1332
I99
sS'pealing'
p1333
I100
sS'realistic'
p1334
I100
sS'careless'
p1335
I100
sS'rock'
p1336
I100
sS'ashkerov'
p1337
I100
sS'partyyyy(:<3'
p1338
I100
sS'quarter'
p1339
I97
sS'concerts'
p1340
I93
sS'em'
p1341
I92
sS'el'
p1342
I93
sS'en'
p1343
I97
sS'lowkey'
p1344
I99
sS'kani'
p1345
I100
sS'ed'
p1346
I95
sS'faaaaccccckkk'
p1347
I100
sS'yeah'
p1348
I96
sS'kana'
p1349
I100
sS'catching'
p1350
I100
sS'changover'
p1351
I99
sS'ex'
p1352
I94
sS'preaching'
p1353
I100
sS'year'
p1354
I93
sS'gtfo'
p1355
I99
sS'girl'
p1356
I72
sS'morning'
p1357
I91
sS'frijoles'
p1358
I100
sS'refined'
p1359
I100
sS'es'
p1360
I98
sS'tried'
p1361
I96
sS'album'
p1362
I100
sS'living'
p1363
I97
sS'medications'
p1364
I100
sS'jackson'
p1365
I100
sS'3rd'
p1366
I100
sS'ughhhhh'
p1367
I100
sS'algebra'
p1368
I100
sS'looking'
p1369
I96
sS'mess'
p1370
I99
sS'seriously'
p1371
I80
sS"shouldn't"
p1372
I100
sS'momma.2'
p1373
I100
sS'nagmahal'
p1374
I99
sS'bugging'
p1375
I100
sS'correct'
p1376
I100
sS'mascara'
p1377
I100
sS'\xd0\xb2\xd0\xbe\xd0\xbe\xd0\xb1\xd1\x89\xd0\xb5'
p1378
I100
sS'haaapppyyyyyyy'
p1379
I100
sS'dodgers'
p1380
I97
sS'state'
p1381
I100
sS'byts'
p1382
I100
sS'tachycardic\xe2\x9d\xa4\xef\xb8\x8f'
p1383
I100
sS'quite'
p1384
I100
sS'hulu'
p1385
I100
sS'g'
p1386
I100
sS'11:24:16.0,34.22573206,-118.4258162,1197,it'
p1387
I100
sS'hirap'
p1388
I99
sS'california'
p1389
I97
sS'grandma'
p1390
I100
sS'tienes'
p1391
I99
sS'cara'
p1392
I99
sS'keith'
p1393
I100
sS'card'
p1394
I100
sS'care'
p1395
I90
sS'partner'
p1396
I100
sS'advance'
p1397
I100
sS'training'
p1398
I100
sS'gusta'
p1399
I100
sS',91402\n497309788363956225,melissatweets_,2014-08-07'
p1400
I100
sS'yup'
p1401
I99
sS'100%'
p1402
I99
sS'headphones'
p1403
I100
sS'gusto'
p1404
I100
sS'tbt'
p1405
I100
sS'turn'
p1406
I96
sS'place'
p1407
I95
sS'pepperoni'
p1408
I99
sS'yun'
p1409
I99
sS'hooch'
p1410
I100
sS'delevingne'
p1411
I100
sS'yess'
p1412
I100
sS'think'
p1413
I68
sS'waited'
p1414
I100
sS'1000'
p1415
I99
sS'emotion'
p1416
I100
sS'8500'
p1417
I100
sS'softball'
p1418
I97
sS'ong'
p1419
I100
sS'crib'
p1420
I100
sS'yourself'
p1421
I97
sS'fast'
p1422
I91
sS'spanish'
p1423
I91
sS'impossible'
p1424
I99
sS'sounds'
p1425
I99
sS'drove'
p1426
I100
sS'open'
p1427
I100
sS'tomorrow'
p1428
I68
sS'cris'
p1429
I100
sS'city'
p1430
I100
sS'given'
p1431
I99
sS'requirement'
p1432
I100
sS'ceviche'
p1433
I100
sS'caught'
p1434
I97
sS'slept'
p1435
I98
sS't'
p1436
I100
sS'anyone'
p1437
I94
sS'2'
p1438
I91
sS'draft'
p1439
I100
sS'typing'
p1440
I100
sS'07:18:41.0,34.22576973,-118.42584419,1197,best'
p1441
I100
sS'white'
p1442
I92
sS'friend'
p1443
I93
sS'gives'
p1444
I98
sS'bitchhhh'
p1445
I100
sS'eyes'
p1446
I99
sS'hug'
p1447
I100
sS'mostly'
p1448
I98
sS'that'
p1449
I17
sS'season'
p1450
I94
sS'loneliest'
p1451
I100
sS'bruh'
p1452
I100
sS'huh'
p1453
I95
sS'dorms'
p1454
I100
sS'concieted'
p1455
I100
sS'massages'
p1456
I100
sS'wtfuuccckkk'
p1457
I100
sS'ridiculous'
p1458
I100
sS'eyed'
p1459
I100
sS'gin'
p1460
I100
sS'thai'
p1461
I98
sS'copy'
p1462
I99
sS'than'
p1463
I77
sS'boyfriend'
p1464
I99
sS'11'
p1465
I98
sS'10'
p1466
I95
sS'ratchets'
p1467
I100
sS'12'
p1468
I99
sS'15'
p1469
I99
sS'lmao'
p1470
I41
sS'yes!\xe2\x80\x9d'
p1471
I100
sS'19'
p1472
I99
sS"adriana's"
p1473
I98
sS'gotta'
p1474
I96
sS'lyfe'
p1475
I100
sS'kinesiology'
p1476
I100
sS'11:26:13.0,34.22582333,-118.42577211,1197,my'
p1477
I100
sS'were'
p1478
I84
sS'asleep'
p1479
I92
sS'anyways'
p1480
I100
sS'and'
p1481
I8
sS'ang'
p1482
I94
sS'sam'
p1483
I97
sS'michele'
p1484
I100
sS'parking'
p1485
I100
sS',91402\n496227004216123392,melissatweets_,2014-08-04'
p1486
I100
sS'slap'
p1487
I97
sS'sad'
p1488
I95
sS'happily'
p1489
I100
sS'woah'
p1490
I100
sS'say'
p1491
I72
sS'suspense'
p1492
I100
sS"04:24:59.0,34.2257707,-118.42585391,1197,i'm"
p1493
I100
sS'anger'
p1494
I100
sS'pursuing'
p1495
I100
sS'desires.\xe2\x80\x9df'
p1496
I100
sS'recover'
p1497
I100
sS'saw'
p1498
I92
sS'any'
p1499
I100
sS'kevin'
p1500
I98
sS'st.peters'
p1501
I100
sS'zoe'
p1502
I99
sS'wcw'
p1503
I100
sS'advil'
p1504
I100
sS'answering'
p1505
I99
sS'ideas'
p1506
I100
sS',91402\n495495875993427968,melissatweets_,2014-08-02'
p1507
I100
sS'omfg'
p1508
I99
sS'omggg'
p1509
I97
sS'take'
p1510
I70
sS'\xe2\x98\x91\xef\xb8\x8f'
p1511
I100
sS'peprally'
p1512
I100
sS'edc"'
p1513
I100
sS'sure'
p1514
I94
sS'pain'
p1515
I95
sS'thanksssssss'
p1516
I100
sS'wooow'
p1517
I100
sS'normal'
p1518
I95
sS'backyards'
p1519
I100
sS'knew'
p1520
I95
sS'story,91402\n496619817470672896,melissatweets_,2014-08-05'
p1521
I100
sS'paid'
p1522
I100
sS'then\xe2\x80\x9d'
p1523
I100
sS'boiling'
p1524
I98
sS'nutella'
p1525
I100
sS'tfios'
p1526
I100
sS'freshman'
p1527
I98
sS'knee'
p1528
I100
sS'fck'
p1529
I99
sS'water,91402\n496620706705055745,melissatweets_,2014-08-05'
p1530
I100
sS'icon'
p1531
I100
sS'forever'
p1532
I97
sS'nigga,91402\n499079249022574592,melissatweets_,2014-08-12'
p1533
I100
sS'especially'
p1534
I98
sS'twitters'
p1535
I100
sS'considered'
p1536
I99
sS'11:36:17.0,34.22575754,-118.42590253,1197,when'
p1537
I100
sS'rivers/creeks'
p1538
I100
sS'proud'
p1539
I99
sS'drive'
p1540
I96
sS'tooth'
p1541
I100
sS'julian'
p1542
I100
sS'wore'
p1543
I99
sS'inch,91402\n496620567684861953,melissatweets_,2014-08-05'
p1544
I100
sS'uncle'
p1545
I100
sS'senior'
p1546
I97
sS'something.\xe2\x80\x9d'
p1547
I100
sS'filing'
p1548
I100
sS'beaner'
p1549
I99
sS'walking'
p1550
I98
sS'shot'
p1551
I98
sS'show'
p1552
I90
sS'cheat'
p1553
I100
sS'curler'
p1554
I100
sS'estoy'
p1555
I100
sS'materialistic'
p1556
I100
sS'holiday.\xe2\x80\x9d'
p1557
I100
sS'shok'
p1558
I99
sS'kid...duh'
p1559
I100
sS'curled'
p1560
I100
sS'loquera'
p1561
I99
sS'slow'
p1562
I100
sS'farting'
p1563
I100
sS'raptors'
p1564
I100
sS'\xe2\x9c\x8b'
p1565
I99
sS'\xe2\x9c\x8a'
p1566
I100
sS'daily'
p1567
I100
sS'dick'
p1568
I99
sS'enough'
p1569
I90
sS'only'
p1570
I74
sS'going'
p1571
I48
sS'black'
p1572
I96
sS'hockey'
p1573
I100
sS'eghel'
p1574
I100
sS'pumpkin'
p1575
I100
sS'tayo'
p1576
I100
sS'back,91402\n496621541451255808,melissatweets_,2014-08-05'
p1577
I100
sS'11:35:44.0,34.22573201,-118.42593296,1197,so'
p1578
I100
sS'get'
p1579
I37
sS'goodluck'
p1580
I100
sS'assistant'
p1581
I100
sS'\xe2\x80\x98i\xe2\x80\x99m'
p1582
I100
sS'freezing'
p1583
I100
sS'truly'
p1584
I99
sS'responding'
p1585
I100
sS'yamen'
p1586
I100
sS'dye'
p1587
I98
sS'gen'
p1588
I100
sS'freaking'
p1589
I98
sS"where'd"
p1590
I100
sS"'avoided'"
p1591
I100
sS"8500'"
p1592
I100
sS'awwwww'
p1593
I100
sS'worried'
p1594
I98
sS'naked'
p1595
I100
sS'jokes'
p1596
I98
sS'stupid'
p1597
I87
sS'losers'
p1598
I100
sS"could've"
p1599
I97
sS'embiids'
p1600
I100
sS'scieeennnccceee'
p1601
I100
sS'hungerford'
p1602
I95
sS'scott'
p1603
I100
sS'kiddinnnnnggggggg'
p1604
I100
sS'where'
p1605
I82
sS'bachata'
p1606
I100
sS'train..me'
p1607
I100
sS"y'all"
p1608
I82
sS'cali\xe2\x80\xa6nashville'
p1609
I100
sS'concert'
p1610
I92
sS"church's"
p1611
I100
sS'physically'
p1612
I100
sS'vn,91402\n496616771495792641,melissatweets_,2014-08-05'
p1613
I100
sS'up'
p1614
I29
sS'cologne'
p1615
I100
sS'meters'
p1616
I100
sS'adriana\xe2\x80\x9d'
p1617
I100
sS'college'
p1618
I98
sS'pacoima'
p1619
I99
sS'kermit'
p1620
I100
sS'hoes'
p1621
I99
sS'sport'
p1622
I99
sS'wonder'
p1623
I96
sS"alex's"
p1624
I99
sS'fails'
p1625
I100
sS'camping'
p1626
I100
sS'crystal'
p1627
I100
sS'thurs'
p1628
I100
sS'laber'
p1629
I100
sS'3'
p1630
I97
sS'un'
p1631
I100
sS'estas'
p1632
I100
sS'between'
p1633
I99
sS'it'
p1634
I13
sS'adore'
p1635
I100
sS'reading'
p1636
I100
sS'knowww'
p1637
I100
sS'nakikita'
p1638
I100
sS'50000'
p1639
I100
sS'grandpas'
p1640
I99
sS'slate'
p1641
I100
sS'august'
p1642
I100
sS'tur'
p1643
I100
sS'preach'
p1644
I100
sS'escupir'
p1645
I100
sS'lord.-psalm\xe2\x80\xa6'
p1646
I100
sS'blame'
p1647
I100
sS'a-rod'
p1648
I100
sS'axchiiiiii'
p1649
I100
sS'como'
p1650
I99
sS'jk'
p1651
I88
sS'coma'
p1652
I100
sS'piscina'
p1653
I99
sS'riiiiggghhhtttttt'
p1654
I100
sS'come'
p1655
I73
sS'lopez'
p1656
I100
sS'reaction'
p1657
I98
sS'dates'
p1658
I98
sS'mans'
p1659
I100
sS'signed'
p1660
I100
sS'many'
p1661
I85
sS'jokers'
p1662
I100
sS'haskatsa'
p1663
I100
sS'dedicate'
p1664
I99
sS'lashes'
p1665
I100
sS'flipped'
p1666
I100
sS'999999'
p1667
I100
sS'personal'
p1668
I100
sS'6.30.14'
p1669
I100
sS'mane'
p1670
I100
sS'quien'
p1671
I100
sS'11:18:29.0,34.22585522,-118.42592438,1197,ive'
p1672
I100
sS'tiroch'
p1673
I100
sS"can't"
p1674
I52
sS'joe'
p1675
I99
sS'photo"'
p1676
I100
sS'12:00'
p1677
I100
sS'jj'
p1678
I96
sS'cancer'
p1679
I100
sS'color'
p1680
I100
sS'hurts'
p1681
I99
sS'jeans'
p1682
I99
sS'period'
p1683
I99
sS'poly'
p1684
I100
sS'blurring'
p1685
I100
sS"couldn't"
p1686
I96
sS'comeback'
p1687
I100
sS'proved'
p1688
I100
sS'assumptions.no'
p1689
I100
sS'mattress'
p1690
I100
sS'cokes'
p1691
I100
sS'nicole'
p1692
I100
sS'girrrrlll'
p1693
I100
sS'grand'
p1694
I100
sS'cares'
p1695
I97
sS'kayaking,91402\n496620064661966848,melissatweets_,2014-08-05'
p1696
I100
sS'informed'
p1697
I100
sS'mark'
p1698
I99
sS'legit'
p1699
I100
sS'judging'
p1700
I100
sS'mary'
p1701
I98
sS'"goodnight"'
p1702
I100
sS'schoolboy'
p1703
I100
sS'wants'
p1704
I92
sS'mong'
p1705
I100
sS'blessing'
p1706
I100
sS'andrei'
p1707
I95
sS'wake'
p1708
I89
sS'minister'
p1709
I100
sS'escondido'
p1710
I100
sS'"who'
p1711
I100
sS'sticky'
p1712
I100
sS'argentina'
p1713
I100
sS'those'
p1714
I86
sS'sound'
p1715
I100
sS'myself'
p1716
I88
sS'soccer'
p1717
I98
sS'these'
p1718
I94
sS'sauce'
p1719
I100
sS'knowwwww'
p1720
I99
sS'hayes'
p1721
I100
sS'cast'
p1722
I100
sS'dorky'
p1723
I100
sS'cure'
p1724
I100
sS'ratchet'
p1725
I98
sS'ani.818'
p1726
I100
sS'situation'
p1727
I100
sS'invited'
p1728
I100
sS'ex?!"'
p1729
I100
sS'whatya'
p1730
I100
sS'eventually'
p1731
I100
sS'informational'
p1732
I100
sS'sincere'
p1733
I100
sS'ayayayayyyy'
p1734
I100
sS'coffee'
p1735
I100
sS'bros'
p1736
I100
sS'quiet'
p1737
I99
sS'couples'
p1738
I99
sS'middle'
p1739
I95
sS'sudden'
p1740
I99
sS'guroxxx\xe2\x9d\xa4\xef\xb8\x8f'
p1741
I100
sS'loosing'
p1742
I100
sS'technology'
p1743
I100
sS'everyday'
p1744
I96
sS'worry'
p1745
I100
sS'07:13:30.0,34.22575238,-118.42589096,1197,i'
p1746
I100
sS'different'
p1747
I97
sS'disrespectful'
p1748
I100
sS'medio'
p1749
I100
sS'pay'
p1750
I98
sS'sama'
p1751
I98
sS'bowl'
p1752
I100
sS'someones'
p1753
I100
sS'same'
p1754
I86
sS'check'
p1755
I96
sS'food'
p1756
I97
sS'heartbreak'
p1757
I100
sS'speech'
p1758
I98
sS'coworkers'
p1759
I99
sS'pag'
p1760
I99
sS'11:35:20.0,34.22573201,-118.42593296,1197,and'
p1761
I100
sS'downs'
p1762
I100
sS'berry'
p1763
I100
sS'week'
p1764
I92
sS'favorited'
p1765
I99
sS'us\xe2\x9d\xa4\xef\xb8\x8f'
p1766
I100
sS'screenshot'
p1767
I99
sS"suzette's"
p1768
I100
sS'it"'
p1769
I100
sS'weed'
p1770
I98
sS'running'
p1771
I98
sS'past..to'
p1772
I100
sS'me?even'
p1773
I100
sS'clippers'
p1774
I100
sS'21:11:18.0,34.22584333,-118.42594787,1197,i'
p1775
I100
sS'changing'
p1776
I100
sS'totally'
p1777
I99
sS'mentally'
p1778
I100
sS'\xe2\x9c\x8c\xef\xb8\x8f'
p1779
I98
sS'burrito'
p1780
I100
sS'aunts'
p1781
I100
sS'ramirez'
p1782
I100
sS'charger'
p1783
I99
sS'no'
p1784
I40
sS'walls'
p1785
I100
sS'"how'
p1786
I100
sS'11:20:32.0,34.22578867,-118.42587961,1197,i'
p1787
I100
sS'without'
p1788
I96
sS'comes'
p1789
I93
sS'gain'
p1790
I100
sS'very'
p1791
I99
sS'vomit'
p1792
I100
sS'model'
p1793
I98
sS'starbucks'
p1794
I99
sS'summer'
p1795
I89
sS'(x'
p1796
I100
sS'\xe2\x98\xba\xef\xb8\x8f'
p1797
I96
sS'210'
p1798
I100
sS'being'
p1799
I69
sS'money'
p1800
I100
sS'water?mom:of'
p1801
I100
sS'9months'
p1802
I100
sS'pacquiao'
p1803
I100
sS'rest'
p1804
I95
sS'communities'
p1805
I100
sS'kill'
p1806
I93
sS'greetings'
p1807
I100
sS'touch'
p1808
I97
sS'ps3'
p1809
I100
sS'speed'
p1810
I100
sS'99.99%'
p1811
I100
sS'12:01'
p1812
I100
sS'sweatpants'
p1813
I100
sS"'siro"
p1814
I100
sS'application'
p1815
I100
sS'thinking'
p1816
I93
sS"we've"
p1817
I100
sS'pups'
p1818
I99
sS"everyone's"
p1819
I97
sS'except'
p1820
I99
sS'it\xe2\x80\x99s'
p1821
I100
sS'43'
p1822
I100
sS'gooooo'
p1823
I100
sS'lets'
p1824
I100
sS'4'
p1825
I89
sS'heyyyy'
p1826
I100
sS'careers'
p1827
I100
sS'real'
p1828
I90
sS'fucked'
p1829
I99
sS'around'
p1830
I93
sS'kills'
p1831
I99
sS'chillllllll'
p1832
I100
sS'read'
p1833
I94
sS'por'
p1834
I100
sS'gonna'
p1835
I71
sS'early'
p1836
I94
sS'chainsaw'
p1837
I99
sS'dimples..*melts*'
p1838
I100
sS'traffic'
p1839
I98
sS'listening'
p1840
I97
sS'it.\xe2\x80\x9d'
p1841
I100
sS'world'
p1842
I93
sS'moises'
p1843
I99
sS'cd'
p1844
I100
sS'lady'
p1845
I99
sS'meat'
p1846
I100
sS'\xe2\x9d\x93'
p1847
I100
sS'whatchu'
p1848
I99
sS'towel'
p1849
I100
sS'stranger'
p1850
I100
sS'patrice'
p1851
I100
sS'postcard'
p1852
I100
sS'smell'
p1853
I100
sS'pregnant'
p1854
I100
sS'gimme'
p1855
I100
sS'either'
p1856
I94
sS'omgg'
p1857
I99
sS'fully'
p1858
I100
sS'beverly'
p1859
I100
sS'scurred'
p1860
I100
sS'learning'
p1861
I100
sS'"omg'
p1862
I100
sS'class...my'
p1863
I100
sS'confused'
p1864
I96
sS'ewww'
p1865
I100
sS'kings'
p1866
I100
sS'playin'
p1867
I99
sS'stagecoach'
p1868
I100
sS'thanks,91402\n495127820721348608,melissatweets_,2014-08-01'
p1869
I100
sS'in\xe2\x80\x9d'
p1870
I100
sS'gross'
p1871
I98
sS'kayyyyy'
p1872
I100
sS'kaiser'
p1873
I93
sS'mood'
p1874
I95
sS'hahahahhaha'
p1875
I100
sS'memories'
p1876
I99
sS'shirtless'
p1877
I100
sS'googled'
p1878
I100
sS'legal'
p1879
I100
sS'moon'
p1880
I98
sS'((((((:\xe2\x80\x9dsame'
p1881
I100
sS'throat'
p1882
I100
sS'exit'
p1883
I100
sS'picks'
p1884
I99
sS'golzy'
p1885
I100
sS'lich'
p1886
I100
sS'biased'
p1887
I100
sS'felt'
p1888
I98
sS'\xe2\x9c\x88\xef\xb8\x8f'
p1889
I100
sS'business'
p1890
I99
sS'asap'
p1891
I99
sS'seconds'
p1892
I98
sS'fdb\xe2\x80\x9d'
p1893
I100
sS'nails'
p1894
I100
sS"play'n"
p1895
I100
sS'flabs'
p1896
I100
sS'\xd0\xbc\xd1\x8b'
p1897
I100
sS'frappuccino.\xe2\x80\x9d'
p1898
I100
sS'weritos'
p1899
I100
sS'asan'
p1900
I100
sS'purse'
p1901
I100
sS';('
p1902
I100
sS'palmdale'
p1903
I100
sS'throw'
p1904
I97
sS'earlier'
p1905
I100
sS'on'
p1906
I25
sS'845'
p1907
I100
sS'ok'
p1908
I82
sS'ace'
p1909
I100
sS'oh'
p1910
I77
sS'of'
p1911
I15
sS'capable'
p1912
I100
sS'favorite'
p1913
I95
sS'05:18:13.0,34.22568956,-118.42583497,1197,i'
p1914
I100
sS'shrimp'
p1915
I100
sS'out"'
p1916
I100
sS'wolf'
p1917
I100
sS'stand'
p1918
I97
sS'neighbor'
p1919
I100
sS'act'
p1920
I98
sS'mixed'
p1921
I99
sS'ov'
p1922
I99
sS'ou'
p1923
I100
sS'luck'
p1924
I100
sS'backup'
p1925
I100
sS'or'
p1926
I50
sS'road'
p1927
I98
sS'amber'
p1928
I100
sS'curling'
p1929
I100
sS'burning'
p1930
I100
sS'follows'
p1931
I100
sS'communication'
p1932
I100
sS'blessed'
p1933
I98
sS'snapchat'
p1934
I92
sS'michaelson'
p1935
I100
sS'mas'
p1936
I99
sS'noone'
p1937
I100
sS'lifeeeeeeee'
p1938
I100
sS'lippy'
p1939
I100
sS'youz'
p1940
I100
sS'determine'
p1941
I100
sS'parties'
p1942
I99
sS'me?you'
p1943
I100
sS'wade'
p1944
I100
sS'your'
p1945
I40
sS'day\xe2\x9d\xa4\xef\xb8\x8f'
p1946
I100
sS'ngayon'
p1947
I100
sS'her'
p1948
I49
sS'area'
p1949
I100
sS'budden'
p1950
I100
sS'strictly'
p1951
I100
sS'there'
p1952
I81
sS'hunky'
p1953
I100
sS'hey'
p1954
I95
sS'lol'
p1955
I18
sS'ass"'
p1956
I100
sS'lmfaooo'
p1957
I100
sS'start'
p1958
I95
sS'cats'
p1959
I100
sS'racist'
p1960
I99
sS'lot'
p1961
I96
sS"michele's"
p1962
I100
sS'valley'
p1963
I93
sS'heh'
p1964
I100
sS'misss'
p1965
I100
sS'chats'
p1966
I99
sS'lang'
p1967
I93
sS'namang'
p1968
I100
sS'complete'
p1969
I99
sS'11:22:21.0,34.22565419,-118.42585207,1197,but'
p1970
I100
sS'mars'
p1971
I100
sS'you"'
p1972
I99
sS"greinke's"
p1973
I100
sS'$800'
p1974
I100
sS'jus'
p1975
I99
sS'muy'
p1976
I100
sS'explanatory'
p1977
I100
sS'texted'
p1978
I100
sS'trying'
p1979
I92
sS'with'
p1980
I23
sS'proposal'
p1981
I100
sS'buying'
p1982
I100
sS'spice'
p1983
I100
sS"they're"
p1984
I93
sS'hire'
p1985
I100
sS'october'
p1986
I97
sS'applying'
p1987
I100
sS'haha,91402\n496105032614281216,melissatweets_,2014-08-04'
p1988
I100
sS"wasn't"
p1989
I97
sS'pillows.\xe2\x80\x9d'
p1990
I100
sS'bucket'
p1991
I100
sS'"it\'s'
p1992
I100
sS'jamaican'
p1993
I100
sS'adriana'
p1994
I92
sS'smoke,91402\n496616676968763393,melissatweets_,2014-08-05'
p1995
I100
sS'dubbing'
p1996
I100
sS'ladies...men'
p1997
I100
sS'politically'
p1998
I100
sS'creeping'
p1999
I100
sS'connect'
p2000
I100
sS'swaggy'
p2001
I100
sS'gone'
p2002
I98
sS'entiende'
p2003
I100
sS'videos'
p2004
I99
sS'af'
p2005
I98
sS'exhausted'
p2006
I99
sS'ah'
p2007
I100
sS'am'
p2008
I79
sS'doctor'
p2009
I100
sS'an'
p2010
I65
sS'alarm'
p2011
I100
sS'as'
p2012
I59
sS'at'
p2013
I32
sS'walks'
p2014
I100
sS'ay'
p2015
I99
sS'watched'
p2016
I100
sS'az'
p2017
I100
sS'shokrolah'
p2018
I100
sS'nerd'
p2019
I100
sS'you.\xe2\x80\x9d'
p2020
I100
sS'cream'
p2021
I100
sS'again'
p2022
I82
sS'stumbled'
p2023
I100
sS'kaba'
p2024
I100
sS'idiot'
p2025
I99
sS'deserve'
p2026
I100
sS'storage'
p2027
I100
sS'waaaaattterrrrrr'
p2028
I100
sS'hard\xe2\x80\x9d'
p2029
I100
sS'tight'
p2030
I100
sS'5'
p2031
I88
sS'whip'
p2032
I100
sS'hmu'
p2033
I100
sS'you'
p2034
I5
sS'puppy'
p2035
I99
sS'poor'
p2036
I98
sS'08:23:59.0,34.22574794,-118.42582667,1197,it'
p2037
I100
sS'obsessed'
p2038
I98
sS'rhett'
p2039
I100
sS'teeth'
p2040
I100
sS'gifts'
p2041
I100
sS'lovers'
p2042
I100
sS"she's"
p2043
I90
sS'chris'
p2044
I78
sS'dunked'
p2045
I100
sS'grimshaw'
p2046
I100
sS'finals'
p2047
I100
sS'pool'
p2048
I97
sS'alcohol'
p2049
I99
sS'building'
p2050
I100
sS'mimis'
p2051
I100
sS'oras'
p2052
I100
sS'remote'
p2053
I99
sS'calls'
p2054
I98
sS'wife'
p2055
I98
sS'tendrias'
p2056
I100
sS"life's"
p2057
I100
sS'curve'
p2058
I100
sS'vines'
p2059
I97
sS'scroll'
p2060
I100
sS'dramatic'
p2061
I100
sS'u'
p2062
I83
sS'alright'
p2063
I100
sS'songs'
p2064
I100
sS'starting'
p2065
I95
sS'cruisin'
p2066
I100
sS'alonzo'
p2067
I100
sS'fleury'
p2068
I100
sS'all'
p2069
I35
sS'since'
p2070
I96
sS'liar'
p2071
I100
sS'forget'
p2072
I98
sS'chinese'
p2073
I100
sS'rascals'
p2074
I100
sS'dollar'
p2075
I100
sS'month'
p2076
I98
sS'ados'
p2077
I100
sS'em\xe2\x80\x99'
p2078
I100
sS'follow'
p2079
I98
sS'everyones'
p2080
I100
sS'decisions'
p2081
I99
sS'monty'
p2082
I100
sS'emily'
p2083
I100
sS'e/c'
p2084
I100
sS'jessie'
p2085
I100
sS'hunting'
p2086
I100
sS'imma'
p2087
I99
sS'tu'
p2088
I99
sS'thursday'
p2089
I100
sS'hablo'
p2090
I100
sS'to'
p2091
I3
sS'tl'
p2092
I100
sS'program'
p2093
I100
sS'tj'
p2094
I100
sS'dirty'
p2095
I100
sS'smile'
p2096
I99
sS'te'
p2097
I99
sS'paying'
p2098
I100
sS'woman'
p2099
I99
sS'appointment'
p2100
I99
sS'worse'
p2101
I95
sS'song'
p2102
I96
sS'far'
p2103
I98
sS'dwyane'
p2104
I100
sS'fav'
p2105
I98
sS'hahahahahahaha'
p2106
I97
sS'selfies'
p2107
I98
sS'fan'
p2108
I97
sS'minded'
p2109
I100
sS'decide'
p2110
I98
sS'fall'
p2111
I91
sS'fab'
p2112
I100
sS'difference'
p2113
I99
sS'stuff,91402\n496616915192672256,melissatweets_,2014-08-05'
p2114
I100
sS'heaven'
p2115
I100
sS'ambien'
p2116
I100
sS'sfvdm'
p2117
I100
sS'laying'
p2118
I99
sS'windy'
p2119
I100
sS'right...just'
p2120
I100
sS'reminding'
p2121
I100
sS'vibes'
p2122
I100
sS'cholita'
p2123
I99
sS'gotchu\xe2\x9d\xa4\xef\xb8\x8f\xe2\x80\x9d'
p2124
I100
sS'liars'
p2125
I99
sS'small'
p2126
I100
sS'yourself.\xe2\x80\x9d'
p2127
I100
sS'dodger'
p2128
I98
sS'whyphy'
p2129
I100
sS'20th'
p2130
I100
sS"i'll"
p2131
I73
sS'instagram'
p2132
I98
sS'"positive'
p2133
I100
sS'tea'
p2134
I99
sS'muhahaha'
p2135
I100
sS'past'
p2136
I95
sS'orgasm'
p2137
I100
sS'zero'
p2138
I100
sS'to,91402\n496614969731854336,melissatweets_,2014-08-05'
p2139
I100
sS'kezee'
p2140
I100
sS'pass'
p2141
I98
sS'further'
p2142
I100
sS'nba'
p2143
I100
sS'bales!me:mom'
p2144
I100
sS'guav'
p2145
I100
sS'oil?!"'
p2146
I100
sS'what'
p2147
I43
sS'abc'
p2148
I100
sS'sub'
p2149
I100
sS'noooooooo'
p2150
I100
sS'sun'
p2151
I100
sS'youuu'
p2152
I99
sS'05:00:05.0,34.22573964,-118.42581737,1197,you'
p2153
I100
sS'what??lol'
p2154
I100
sS'emotions'
p2155
I100
sS'bendita'
p2156
I100
sS'crush'
p2157
I98
sS'faded'
p2158
I100
sS'\xd0\xb3\xd0\xb4\xd0\xb5'
p2159
I100
sS'chismosa'
p2160
I100
sS'learned'
p2161
I97
sS'method'
p2162
I100
sS'fuuucck'
p2163
I100
sS'edited'
p2164
I100
sS'full'
p2165
I100
sS'unprofessional'
p2166
I100
sS'loose'
p2167
I100
sS'21st'
p2168
I100
sS'answers'
p2169
I99
sS'hours'
p2170
I86
sS'kimi'
p2171
I100
sS'jonas'
p2172
I98
sS'november'
p2173
I100
sS'iraq'
p2174
I100
sS'table'
p2175
I100
sS'shoulda'
p2176
I100
sS'chipped'
p2177
I100
sS'tiyyyyaaahhhhd'
p2178
I100
sS'fwd'
p2179
I100
sS'edible,91402\n496617090506162177,melissatweets_,2014-08-05'
p2180
I100
sS'brutal'
p2181
I100
sS'pics'
p2182
I92
sS'evil'
p2183
I100
sS'airport'
p2184
I100
sS'time\xe2\x9c\x8c\xef\xb8\x8f'
p2185
I100
sS'pick'
p2186
I95
sS'action'
p2187
I99
sS',91402\n494743938599632896,melissatweets_,2014-07-31'
p2188
I100
sS'~'
p2189
I100
sS'options'
p2190
I100
sS'\xe2\x9d\xa4\xef\xb8\x8f\xe2\x9d\xa4\xef\xb8\x8f\xe2\x9d\xa4\xef\xb8\x8f\xe2\x9d\xa4\xef\xb8\x8f\xe2\x9d\xa4\xef\xb8\x8f'
p2191
I100
sS'melissa\xe2\x80\x9d'
p2192
I100
sS'ours'
p2193
I100
sS'family'
p2194
I90
sS'girrrrl'
p2195
I100
sS'suddenly'
p2196
I100
sS'caravan'
p2197
I100
sS'affffff'
p2198
I100
sS'hateeeeeee'
p2199
I100
sS'munchkin'
p2200
I100
sS'texts'
p2201
I92
sS'vip'
p2202
I100
sS'sleeeeeeepppp'
p2203
I100
sS'dangg'
p2204
I100
sS'\xe2\x88\x9e'
p2205
I100
sS'whoever'
p2206
I100
sS'gosh'
p2207
I97
sS'sayingggggg'
p2208
I100
sS'golf'
p2209
I100
sS'iglesias'
p2210
I100
sS'takes'
p2211
I98
sS'09:31:51.0,34.2258027,-118.42594676,1197,give'
p2212
I100
sS'plastered'
p2213
I100
sS'texting'
p2214
I100
sS'two'
p2215
I82
sS'.\xe2\x80\x9d'
p2216
I99
sS'omgggg'
p2217
I97
sS'frats'
p2218
I100
sS'6'
p2219
I94
sS'tush'
p2220
I100
sS'injury'
p2221
I100
sS'more'
p2222
I66
sS'tryna'
p2223
I97
sS'door'
p2224
I99
sS'knows'
p2225
I97
sS'engaged'
p2226
I100
sS'company'
p2227
I100
sS'excuse'
p2228
I100
sS'landed'
p2229
I100
sS"ain't"
p2230
I89
sS'basically'
p2231
I99
sS'broke'
p2232
I95
sS'known'
p2233
I98
sS'dooo'
p2234
I99
sS'sleeping'
p2235
I95
sS'dranky'
p2236
I100
sS'glad'
p2237
I96
sS'none'
p2238
I98
sS'unbearable'
p2239
I100
sS'hour'
p2240
I91
sS'science'
p2241
I99
sS'equation'
p2242
I100
sS'xime'
p2243
I87
sS'sucks'
p2244
I96
sS'duh'
p2245
I100
sS'thooooo'
p2246
I100
sS'mall'
p2247
I100
sS'\xd0\x95\xd0\xb1\xd0\xb0\xd1\x82\xd1\x8c'
p2248
I100
sS'dem'
p2249
I100
sS'obviously.\xe2\x80\x9d'
p2250
I100
sS'v'
p2251
I99
sS'"salty"'
p2252
I100
sS'class/work'
p2253
I100
sS'def'
p2254
I99
sS'history'
p2255
I99
sS'beautiful'
p2256
I96
sS'stubborn'
p2257
I100
sS'embarrassing'
p2258
I98
sS'bffs'
p2259
I98
sS'brown'
p2260
I100
sS'lives'
p2261
I100
sS'joints'
p2262
I100
sS'"staying'
p2263
I100
sS'share'
p2264
I100
sS'them.\xe2\x80\x9d'
p2265
I100
sS'sike'
p2266
I100
sS'salty'
p2267
I99
sS'sense'
p2268
I99
sS'stopppp'
p2269
I100
sS'dress'
p2270
I97
sS'ughhhh'
p2271
I100
sS'filter'
p2272
I100
sS'needs'
p2273
I88
sS'simps'
p2274
I100
sS'court'
p2275
I98
sS'awkward'
p2276
I100
sS'rather'
p2277
I100
sS'simpy'
p2278
I99
sS'breaking'
p2279
I99
sS'stayed'
p2280
I99
sS'bro,91402\n496620815744389121,melissatweets_,2014-08-05'
p2281
I100
sS'imy2'
p2282
I100
sS'occasionally'
p2283
I100
sS'venting'
p2284
I100
sS'influences'
p2285
I100
sS'hugs'
p2286
I100
sS'ajshejwjfksbfjrb'
p2287
I99
sS'okay'
p2288
I89
sS'plans'
p2289
I98
sS'rude'
p2290
I96
sS'communicating'
p2291
I100
sS'espa\xc3\xb1ol'
p2292
I100
sS'advice'
p2293
I98
sS'sneak'
p2294
I100
sS'brownie'
p2295
I100
sS'flashflood'
p2296
I100
sS'plane'
p2297
I100
sS'blood'
p2298
I97
sS'coming'
p2299
I92
sS'pendeja'
p2300
I100
sS'backyard'
p2301
I100
sS'bruhh,91402\n499096943516069889,melissatweets_,2014-08-12'
p2302
I100
sS'friends\xe2\x80\x9d'
p2303
I100
sS'a'
p2304
I6
sS'-max'
p2305
I100
sS'refuse'
p2306
I100
sS'short'
p2307
I100
sS'doritos'
p2308
I100
sS'tweeting'
p2309
I96
sS'shady'
p2310
I100
sS':),91402\n495496456107610112,melissatweets_,2014-08-02'
p2311
I100
sS'eats'
p2312
I100
sS'guard\xe2\x9c\x94\xef\xb8\x8f'
p2313
I100
sS'secs'
p2314
I99
sS'10:30:00.0,34.225729,-118.42583321,1197,ya'
p2315
I100
sS'responsibility'
p2316
I100
sS'media'
p2317
I99
sS'lmfaooooo'
p2318
I98
sS'pleasure'
p2319
I99
sS'dream'
p2320
I100
sS'thinkin'
p2321
I99
sS"that's"
p2322
I68
sS'chicks'
p2323
I100
sS'mexican'
p2324
I88
sS'help'
p2325
I99
sS"don't"
p2326
I30
sS'september'
p2327
I100
sS'essence'
p2328
I100
sS'sooo'
p2329
I93
sS'soon'
p2330
I96
sS'trade'
p2331
I100
sS'isnt'
p2332
I100
sS'paper'
p2333
I99
sS'through'
p2334
I96
sS'unusually'
p2335
I100
sS'replies'
p2336
I100
sS'drives>'
p2337
I100
sS'hell'
p2338
I93
sS'suffer'
p2339
I100
sS'direction.\xe2\x80\x9d'
p2340
I100
sS'its'
p2341
I95
sS'miissssss'
p2342
I100
sS'24'
p2343
I100
sS'25'
p2344
I100
sS'26'
p2345
I100
sS'20'
p2346
I96
sS'22'
p2347
I100
sS'adios'
p2348
I99
sS'pray'
p2349
I98
sS'continued'
p2350
I100
sS'yan'
p2351
I100
sS'adoooo'
p2352
I100
sS'actually'
p2353
I88
sS'late'
p2354
I94
sS'>>>'
p2355
I100
sS'millers??\xe2\x80\x9d'
p2356
I100
sS'ruining'
p2357
I100
sS'baan'
p2358
I100
sS'followers'
p2359
I100
sS'bout'
p2360
I100
sS'cutie'
p2361
I97
sS'might'
p2362
I96
sS"haven't"
p2363
I93
sS'kemp'
p2364
I100
sS'good'
p2365
I63
sS'somebody'
p2366
I97
sS'sucking'
p2367
I100
sS'yo'
p2368
I95
sS'ya'
p2369
I79
sS"it'"
p2370
I100
sS'weeeeeeeeks'
p2371
I100
sS'hunter'
p2372
I99
sS'redbox'
p2373
I99
sS'borrow'
p2374
I100
sS'shot?me'
p2375
I100
sS'hahahahahaha'
p2376
I100
sS"you've"
p2377
I98
sS'kennesaw'
p2378
I100
sS'complain'
p2379
I100
sS'bigger'
p2380
I99
sS'instructions'
p2381
I100
sS'diary'
p2382
I100
sS'bryan'
p2383
I98
sS'..still'
p2384
I100
sS'everytime'
p2385
I99
sS'hateeeeee'
p2386
I100
sS'always'
p2387
I69
sS'kayaking'
p2388
I99
sS'guess,91402\n496614814051880961,melissatweets_,2014-08-05'
p2389
I100
sS'drake'
p2390
I99
sS'denny'
p2391
I99
sS'bless'
p2392
I100
sS'someone'
p2393
I68
sS'turns'
p2394
I99
sS'1am'
p2395
I100
sS'found'
p2396
I99
sS'friendship'
p2397
I100
sS'notes'
p2398
I100
sS"isn't"
p2399
I97
sS'status'
p2400
I100
sS'harm'
p2401
I100
sS'everyone'
p2402
I75
sS'house'
p2403
I87
sS'fish'
p2404
I98
sS'hard'
p2405
I90
sS'idea'
p2406
I98
sS'huuuuggeee'
p2407
I100
sS'accidentally'
p2408
I99
sS'fkcn'
p2409
I100
sS'finish'
p2410
I100
sS'expect'
p2411
I98
sS'callate'
p2412
I100
sS'hanging'
p2413
I100
sS'portland'
p2414
I100
sS'hart'
p2415
I100
sS'really'
p2416
I57
sS'eeeeeveryones'
p2417
I100
sS'missed'
p2418
I99
sS'assignments'
p2419
I100
sS'surrounded'
p2420
I99
sS"ge's"
p2421
I100
sS'nyan'
p2422
I100
sS'si'
p2423
I100
sS'acting'
p2424
I99
sS'health'
p2425
I100
sS"they'll"
p2426
I99
sS'darling'
p2427
I99
sS'perra'
p2428
I100
sS'issue'
p2429
I99
sS'me!!"'
p2430
I100
sS'baeee'
p2431
I100
sS'ass'
p2432
I72
sS'figuring'
p2433
I100
sS'textin'
p2434
I99
sS'bully'
p2435
I100
sS'pue'
p2436
I100
sS'friday'
p2437
I90
sS'guess'
p2438
I94
sS'mmm'
p2439
I100
sS'reason'
p2440
I98
sS'base'
p2441
I100
sS'disneyland'
p2442
I97
sS'imagine'
p2443
I98
sS'ask'
p2444
I89
sS'moans'
p2445
I100
sS'div'
p2446
I100
sS'bumped'
p2447
I100
sS'sextin'
p2448
I99
sS'beeeeeee'
p2449
I100
sS'fruit'
p2450
I100
sS'kung'
p2451
I99
sS'w'
p2452
I98
sS'bumper'
p2453
I100
sS'11:34:32.0,34.22577916,-118.42582986,1197,one'
p2454
I100
sS'syria'
p2455
I100
sS'fallen'
p2456
I100
sS'delicate'
p2457
I100
sS'major'
p2458
I100
sS'lmaaaaooo'
p2459
I100
sS'gatsbys'
p2460
I100
sS'dont'
p2461
I93
sS'mish'
p2462
I100
sS'feel'
p2463
I76
sS'bullies'
p2464
I100
sS'knocking'
p2465
I100
sS'number'
p2466
I99
sS'explored'
p2467
I100
sS'feet'
p2468
I100
sS'kapag'
p2469
I98
sS'talked'
p2470
I100
sS'done'
p2471
I94
sS'cerveza'
p2472
I99
sS'lifestyle"'
p2473
I100
sS'miss'
p2474
I81
sS'carter'
p2475
I100
sS'passes'
p2476
I100
sS'story'
p2477
I92
sS'"'
p2478
I99
sS'l.a'
p2479
I100
sS'5th'
p2480
I99
sS'insignificant'
p2481
I100
sS'tata'
p2482
I100
sS'mansions'
p2483
I100
sS'least'
p2484
I93
sS'mami'
p2485
I100
sS'paint'
p2486
I100
sS'passed'
p2487
I99
sS'woohooo'
p2488
I100
sS'mama'
p2489
I99
sS'unread'
p2490
I100
sS'suckkkk'
p2491
I100
sS'banana'
p2492
I100
sS'store'
p2493
I100
sS'storm'
p2494
I100
sS'relationship'
p2495
I96
sS'behind'
p2496
I97
sS'$$'
p2497
I100
sS'cd\xe2\x9c\x8b'
p2498
I100
sS'park'
p2499
I99
sS'you\xe2\x80\x99'
p2500
I100
sS'rockin'
p2501
I100
sS'asco'
p2502
I100
sS'part'
p2503
I98
sS'typhoon'
p2504
I100
sS'boredom'
p2505
I100
sS'word'
p2506
I100
sS'doctors'
p2507
I100
sS'translation'
p2508
I100
sS'believe'
p2509
I94
sS'endlessly'
p2510
I100
sS'woops'
p2511
I100
sS'jamba'
p2512
I100
sS'kind'
p2513
I99
sS'b'
p2514
I98
sS'mahal'
p2515
I95
sS'inaalagaan'
p2516
I100
sS'bro\xe2\x80\x9d'
p2517
I100
sS'gotten'
p2518
I100
sS'youth'
p2519
I100
sS'determined'
p2520
I100
sS'stalk'
p2521
I100
sS'head"'
p2522
I100
sS'me-now'
p2523
I100
sS'dang'
p2524
I100
sS'nailed'
p2525
I100
sS'toe'
p2526
I100
sS'playing'
p2527
I100
sS'booth'
p2528
I100
sS'motivation'
p2529
I100
sS'vapshe'
p2530
I100
sS'outta'
p2531
I99
sS'uncomfortable'
p2532
I99
sS'"imy"'
p2533
I100
sS'lmaooooo'
p2534
I95
sS'juice'
p2535
I100
sS'aburrida'
p2536
I100
sS'teddys'
p2537
I100
sS':),91402\n494920217722486784,melissatweets_,2014-07-31'
p2538
I100
sS'events'
p2539
I100
sS'organs'
p2540
I100
sS'sell'
p2541
I99
sS'lie'
p2542
I100
sS'nights'
p2543
I99
sS'para'
p2544
I98
sS'pasan'
p2545
I99
sS'mapigilan'
p2546
I100
sS'self'
p2547
I97
sS'cave'
p2548
I100
sS'11:13:30.0,34.2258877,-118.42590415,1197,i'
p2549
I100
sS'acing'
p2550
I100
sS'also'
p2551
I99
sS'lifts'
p2552
I100
sS'build'
p2553
I100
sS'piojitos'
p2554
I98
sS'you\xe2\x80\x9d'
p2555
I100
sS'pringles'
p2556
I100
sS'darte'
p2557
I100
sS'play'
p2558
I95
sS'hotel'
p2559
I100
sS'mother,91402\n496621059701874689,melissatweets_,2014-08-05'
p2560
I100
sS'patrick'
p2561
I100
sS'nakakaramdam'
p2562
I99
sS'english'
p2563
I99
sS'most'
p2564
I95
sS'off\xe2\x80\x9d'
p2565
I100
sS'plan'
p2566
I97
sS'sandra'
p2567
I100
sS'nothing'
p2568
I93
sS'alpha'
p2569
I100
sS'massaging'
p2570
I100
sS'extremely'
p2571
I100
sS'funnier'
p2572
I99
sS'stands'
p2573
I100
sS'ka'
p2574
I90
sS'muscle'
p2575
I100
sS'whatever,91402\n495678247435120640,melissatweets_,2014-08-02'
p2576
I100
sS'5-0'
p2577
I100
sS'bug'
p2578
I100
sS'gaby'
p2579
I95
sS'clear'
p2580
I96
sS'sometimes'
p2581
I89
sS'ko'
p2582
I90
sS'11:38:28.0,34.22580083,-118.42579331,1197,and'
p2583
I100
sS'10am'
p2584
I100
sS"accident...that's"
p2585
I100
sS'prettier'
p2586
I100
sS'ku'
p2587
I100
sS'\xe2\x98\x80\xef\xb8\x8f'
p2588
I100
sS'jordan'
p2589
I100
sS'physics'
p2590
I99
sS'shoutout'
p2591
I99
sS'lying'
p2592
I97
sS'enamoras'
p2593
I100
sS'lmaoooooo'
p2594
I100
sS'thomas'
p2595
I100
sS'ugh'
p2596
I98
sS'*tells'
p2597
I100
sS'wheneva'
p2598
I100
sS'gold'
p2599
I100
sS'gnas'
p2600
I100
sS"starvin'"
p2601
I100
sS'wasted'
p2602
I100
sS'stfu'
p2603
I99
sS'session'
p2604
I99
sS'plllzzz'
p2605
I100
sS'rts'
p2606
I100
sS'harvesting'
p2607
I100
sS'fine'
p2608
I99
sS'find'
p2609
I95
sS'giant'
p2610
I100
sS'nicknames'
p2611
I100
sS'pinche'
p2612
I100
sS'nervous'
p2613
I100
sS'presale'
p2614
I100
sS'ball'
p2615
I100
sS'medicine)'
p2616
I100
sS'failed'
p2617
I99
sS'email'
p2618
I100
sS'pretty'
p2619
I92
sS'8'
p2620
I96
sS"chang's"
p2621
I100
sS'11:37:22.0,34.22573059,-118.42585031,1197,i'
p2622
I100
sS'giants'
p2623
I99
sS'his'
p2624
I80
sS'hit'
p2625
I90
sS'freaks'
p2626
I100
sS'luke'
p2627
I92
sS'salud'
p2628
I100
sS'06:00:32.0,34.22582399,-118.42595497,1197,okbye'
p2629
I100
sS'else\xe2\x9d\xa4\xef\xb8\x8f'
p2630
I100
sS'arm'
p2631
I100
sS'pwedeng'
p2632
I100
sS'thanxxxxxx'
p2633
I100
sS'famous'
p2634
I98
sS'feels'
p2635
I97
sS'lame,91402\n496614599353856000,melissatweets_,2014-08-05'
p2636
I100
sS'actions'
p2637
I100
sS'theft'
p2638
I100
sS'compass'
p2639
I100
sS'more,91402\n496617198362693632,melissatweets_,2014-08-05'
p2640
I100
sS'during'
p2641
I97
sS'maraming'
p2642
I100
sS':)\xe2\x80\x9dcome'
p2643
I100
sS'him'
p2644
I70
sS'stamp'
p2645
I100
sS'(((-:\xe2\x80\x9d'
p2646
I100
sS'noises'
p2647
I100
sS'cry'
p2648
I92
sS'dante'
p2649
I100
sS'"but'
p2650
I100
sS'ugliezzz'
p2651
I100
sS'caramel'
p2652
I99
sS'double'
p2653
I100
sS'hype'
p2654
I100
sS'x'
p2655
I100
sS'aguachile'
p2656
I98
sS'11:23:06.0,34.22572556,-118.42581234,1197,3'
p2657
I100
sS'11:34:48.0,34.22574903,-118.4259327,1197,with'
p2658
I100
sS'set'
p2659
I97
sS'art'
p2660
I100
sS'throwing'
p2661
I99
sS'vibin'
p2662
I100
sS'vine'
p2663
I94
sS'sex'
p2664
I93
sS'ara'
p2665
I98
sS'see'
p2666
I60
sS'dumb'
p2667
I99
sS'are'
p2668
I22
sS'pumasok'
p2669
I100
sS'close'
p2670
I93
sS'retweet'
p2671
I98
sS'chose'
p2672
I100
sS'trey'
p2673
I100
sS'pictures'
p2674
I94
sS'wow'
p2675
I88
sS'currently'
p2676
I100
sS'please'
p2677
I92
sS'slapped'
p2678
I99
sS'poghots'
p2679
I100
sS'meeeeee'
p2680
I99
sS'case'
p2681
I100
sS'fans'
p2682
I99
sS'won'
p2683
I100
sS'10:18:03.0,34.22589173,-118.42581282,1197,go'
p2684
I100
sS'probably'
p2685
I92
sS'burned'
p2686
I100
sS"other's"
p2687
I99
sS'nope'
p2688
I98
sS'compliment'
p2689
I100
sS'piss'
p2690
I99
sS'knowing'
p2691
I97
sS'solo'
p2692
I99
sS'makeup'
p2693
I96
sS'recently'
p2694
I100
sS'missing'
p2695
I100
sS'pisses'
p2696
I100
sS'attention'
p2697
I98
sS'moodle'
p2698
I100
sS'outfit'
p2699
I100
sS'layla,91402\n496620266449936385,melissatweets_,2014-08-05'
p2700
I100
sS'raver'
p2701
I99
sS'"not'
p2702
I100
sS'ahoy'
p2703
I100
sS'pissed'
p2704
I99
sS'both'
p2705
I97
sS'11:33:44.0,34.22580657,-118.42582609,1197,ok'
p2706
I100
sS'last'
p2707
I80
sS'reverse'
p2708
I100
sS'license'
p2709
I99
sS'restaurant'
p2710
I99
sS"wouldn't"
p2711
I100
sS'barely'
p2712
I99
sS'foreign'
p2713
I100
sS'blazed'
p2714
I100
sS'became'
p2715
I100
sS'8am'
p2716
I100
sS'rose'
p2717
I100
sS'sext'
p2718
I100
sS'08:31:23.0,34.22582264,-118.42593527,1197,reading'
p2719
I100
sS'whole'
p2720
I88
sS'finds'
p2721
I100
sS'dimple\xe2\x9d\xa4\xef\xb8\x8f'
p2722
I100
sS'liked'
p2723
I100
sS'drunk'
p2724
I86
sS'simple'
p2725
I98
sS'sweet'
p2726
I99
sS'fitness'
p2727
I100
sS'whatever'
p2728
I96
sS'))'
p2729
I100
sS'header'
p2730
I96
sS'01:47:40.0,34.22583551,-118.42588917,1197,basic'
p2731
I100
sS'fashion'
p2732
I100
sS'simply'
p2733
I100
sS'likes'
p2734
I99
sS'6-7'
p2735
I100
sS'rave'
p2736
I98
sS'patiently'
p2737
I99
sS"ralph's"
p2738
I98
sS'devin'
p2739
I100
sS'agree'
p2740
I100
sS"ugly?don't"
p2741
I100
sS'lahat'
p2742
I98
sS'teacher'
p2743
I100
sS'magbibilang'
p2744
I100
sS'pa'
p2745
I98
sS'damn'
p2746
I81
sS'maintenance'
p2747
I100
sS'meeting'
p2748
I100
sS'po'
p2749
I100
sS'woke'
p2750
I95
sS'pm'
p2751
I99
sS'blankets'
p2752
I100
sS'you!,91402\n495678350036201472,melissatweets_,2014-08-02'
p2753
I100
sS'akong'
p2754
I99
sS'flight'
p2755
I100
sS'gay'
p2756
I91
sS'sending'
p2757
I100
sS'hour-long'
p2758
I100
sS"what's"
p2759
I87
sS'transferring'
p2760
I100
sS'gas'
p2761
I100
sS'else'
p2762
I93
sS'cones'
p2763
I100
sS'cinco'
p2764
I100
sS'moderation'
p2765
I100
sS'awake'
p2766
I97
sS'towns'
p2767
I100
sS'instructor'
p2768
I100
sS'wheeled'
p2769
I100
sS'lool'
p2770
I100
sS'st.louis'
p2771
I100
sS'truuuuu'
p2772
I100
sS'look'
p2773
I79
sS'mazerov'
p2774
I100
sS'belly'
p2775
I100
sS'straight'
p2776
I98
sS'convo'
p2777
I98
sS'while'
p2778
I85
sS'replaced'
p2779
I100
sS'kick'
p2780
I96
sS'fun'
p2781
I94
sS'theres'
p2782
I98
sS'napped'
p2783
I100
sS'dublin'
p2784
I100
sS'rip'
p2785
I100
sS'rin'
p2786
I100
sS'sirum'
p2787
I100
sS'vow'
p2788
I99
sS'happend\xe2\x80\x9d'
p2789
I100
sS'vor'
p2790
I99
sS'ready'
p2791
I94
sS'rid'
p2792
I100
sS'leaving'
p2793
I100
sS'rib'
p2794
I100
sS'ohhhh'
p2795
I100
sS'chase'
p2796
I98
sS'funny'
p2797
I76
sS'hahahahha'
p2798
I100
sS'shirt'
p2799
I96
sS'anymore'
p2800
I97
sS'james'
p2801
I100
sS'shay'
p2802
I83
sS'some1'
p2803
I98
sS'mos'
p2804
I100
sS'prescribe'
p2805
I100
sS'peoples'
p2806
I100
sS'9'
p2807
I97
sS'aldean'
p2808
I100
sS'dunno'
p2809
I100
sS'eww'
p2810
I99
sS'jescuh'
p2811
I99
sS'sya'
p2812
I99
sS'used'
p2813
I94
sS'syd'
p2814
I99
sS'blair'
p2815
I100
sS'yesterday'
p2816
I93
sS'alert'
p2817
I100
sS'moment'
p2818
I97
sS'moving'
p2819
I99
sS'purpose'
p2820
I98
sS'opinion'
p2821
I100
sS'apenas'
p2822
I100
sS'sandals'
p2823
I100
sS'flirty'
p2824
I99
sS'30-50'
p2825
I100
sS'usc'
p2826
I100
sS'whores'
p2827
I99
sS'picky'
p2828
I100
sS'older'
p2829
I100
sS"dad's"
p2830
I100
sS'anybody'
p2831
I100
sS'erexa'
p2832
I100
sS'obviously'
p2833
I96
sS'rapping'
p2834
I100
sS'person'
p2835
I91
sS'cheer'
p2836
I100
sS'flags'
p2837
I100
sS'<333333333'
p2838
I100
sS'f'
p2839
I100
sS'y'
p2840
I96
sS'5am'
p2841
I100
sS'loveeee'
p2842
I99
sS'sleepin'
p2843
I100
sS'yankees'
p2844
I100
sS'i\xe2\x80\x99m'
p2845
I100
sS'simp'
p2846
I93
sS'mom'
p2847
I80
sS'competitive'
p2848
I100
sS'hercules'
p2849
I100
sS'cocky'
p2850
I100
sS'questions'
p2851
I100
sS'using'
p2852
I100
sS'02:09:48.0,34.22582589,-118.42593798,1197,i'
p2853
I100
sS'praying'
p2854
I99
sS'prince'
p2855
I100
sS'discipline'
p2856
I100
sS'superficial'
p2857
I100
sS'cut'
p2858
I97
sS'sarili'
p2859
I98
sS'cup'
p2860
I98
sS'disappointed'
p2861
I100
sS'queen'
p2862
I100
sS'cuz'
p2863
I97
sS'tonight\xe2\x80\xa6amazing'
p2864
I100
sS'\xe2\x9d\xa4\xef\xb8\x8f,91402\n496615773259825152,melissatweets_,2014-08-05'
p2865
I100
sS'cud'
p2866
I100
sS'parents'
p2867
I91
sS'crying'
p2868
I95
sS'snap'
p2869
I99
sS'guarantees'
p2870
I100
sS'excited'
p2871
I92
sS'hates'
p2872
I96
sS'hater'
p2873
I100
sS'ridiculously'
p2874
I99
sS'bio'
p2875
I99
sS'emergency'
p2876
I99
sS'big'
p2877
I91
sS'couple'
p2878
I95
sS'great.hate'
p2879
I100
sS'game'
p2880
I82
sS'in-n-out'
p2881
I100
sS'volver'
p2882
I100
sS'wii'
p2883
I99
sS'wiser'
p2884
I100
sS'necessary'
p2885
I100
sS'bit'
p2886
I96
sS'"call'
p2887
I100
sS'wings'
p2888
I100
sS'know!,91402\n496617923620769793,melissatweets_,2014-08-05'
p2889
I100
sS'pangako'
p2890
I100
sS'reminded'
p2891
I100
sS'fireworks'
p2892
I99
sS'd'
p2893
I100
sS'hahha'
p2894
I97
sS'wingstop'
p2895
I100
sS'kennedy'
p2896
I100
sS'hahaahahahahah'
p2897
I100
sS'ignore'
p2898
I100
sS'ore'
p2899
I100
sS'arthur'
p2900
I100
sS'continue'
p2901
I100
sS'nosy'
p2902
I100
sS'ivan'
p2903
I100
sS'fault'
p2904
I100
sS'me\xe2\x80\x9d'
p2905
I100
sS'isusumbat'
p2906
I100
sS'truuuu'
p2907
I100
sS'mathematical'
p2908
I100
sS'masipag'
p2909
I100
sS"jonathan's"
p2910
I100
sS'often'
p2911
I99
sS'fucking'
p2912
I90
sS'spring'
p2913
I98
sS'revined'
p2914
I100
sS'some'
p2915
I70
sS'back'
p2916
I65
sS'bounce'
p2917
I100
sS'understood'
p2918
I99
sS'strongest'
p2919
I99
sS'pack'
p2920
I99
sS'mighty'
p2921
I100
sS'sakanya'
p2922
I100
sS'pala'
p2923
I100
sS'curious'
p2924
I100
sS'ehhh'
p2925
I100
sS'preparing'
p2926
I100
sS'ahkra'
p2927
I100
sS'beyonces\xe2\x9d\xa4\xef\xb8\x8f'
p2928
I100
sS'weirdo'
p2929
I100
sS'apush'
p2930
I97
sS'decision'
p2931
I100
sS'shall'
p2932
I100
sS'\xe2\x9d\x93\xe2\x9d\x93\xe2\x9d\x93\xe2\x9d\x93\xe2\x9d\x93'
p2933
I100
sS'per'
p2934
I100
sS'modest'
p2935
I100
sS'prom'
p2936
I100
sS'quote'
p2937
I100
sS'prof'
p2938
I100
sS'dating'
p2939
I99
sS'prob'
p2940
I99
sS'anna'
p2941
I99
sS'laughing'
p2942
I97
sS'be'
p2943
I21
sS'bf'
p2944
I100
sS'run'
p2945
I95
sS'ba'
p2946
I100
sS'bb'
p2947
I96
sS'bc'
p2948
I62
sS'rub'
p2949
I100
sS'lmaoooo'
p2950
I97
sS'martin'
p2951
I99
sS'continuing'
p2952
I100
sS'ando'
p2953
I100
sS'uff'
p2954
I100
sS'zombie'
p2955
I100
sS'jazzy'
p2956
I100
sS'step'
p2957
I100
sS'09:59:05.0,34.22575626,-118.4258509,1197,sooooo'
p2958
I100
sS'bp'
p2959
I100
sS'santa'
p2960
I99
sS'crap'
p2961
I100
sS'by'
p2962
I71
sS'shine'
p2963
I100
sS'anything'
p2964
I93
sS'netflix'
p2965
I95
sS'graduation'
p2966
I100
sS'drama'
p2967
I97
sS'idk'
p2968
I91
sS'bish'
p2969
I100
sS'charm'
p2970
I100
sS'hatred'
p2971
I100
sS'nuys'
p2972
I99
sS'hahahah'
p2973
I99
sS'idc'
p2974
I99
sS'block'
p2975
I100
sS'seeing'
p2976
I92
sS'omgggggggg'
p2977
I100
sS'jimmy'
p2978
I100
sS'8186489701'
p2979
I100
sS'pero'
p2980
I96
sS'into'
p2981
I83
sS'within'
p2982
I100
sS'anyway,91402\n496619730879270912,melissatweets_,2014-08-05'
p2983
I100
sS'momma'
p2984
I98
sS'because'
p2985
I89
sS'smelly'
p2986
I100
sS'seasons'
p2987
I100
sS'lesson'
p2988
I100
sS'drunkie'
p2989
I100
sS'kuzi'
p2990
I100
sS'statistics'
p2991
I100
sS'pares'
p2992
I100
sS'most**he'
p2993
I100
sS'ew'
p2994
I99
sS'long'
p2995
I87
sS'eventhough'
p2996
I100
sS'goodnigghjjhhhhtttttt'
p2997
I100
sS"we're"
p2998
I94
sS'suit'
p2999
I99
sS'forward'
p3000
I100
sS'bored'
p3001
I95
sS'scared'
p3002
I97
sS'etc'
p3003
I100
sS'himself'
p3004
I99
sS'invite'
p3005
I99
sS'relaxed'
p3006
I100
sS'7am'
p3007
I100
sS'boys'
p3008
I93
sS'link'
p3009
I100
sS'familia'
p3010
I100
sS'line'
p3011
I100
sS'serio'
p3012
I100
sS'posted'
p3013
I100
sS'abracadabra'
p3014
I100
sS'charmein'
p3015
I100
sS"place...it's"
p3016
I100
sS'requesting'
p3017
I100
sS'fries'
p3018
I100
sS"hasn't"
p3019
I99
sS'us'
p3020
I89
sS'ur'
p3021
I88
sS'clips'
p3022
I100
sS"tomorrow's"
p3023
I100
sS'marquez'
p3024
I100
sS'perfectness'
p3025
I99
sS'aaaaaalll'
p3026
I100
sS'ud'
p3027
I100
sS'called'
p3028
I96
sS'11:37:42.0,34.22576998,-118.42584503,1197,so'
p3029
I100
sS'ordered'
p3030
I100
sS"why'd"
p3031
I100
sS'luhhhh'
p3032
I100
sS'cowboys'
p3033
I100
sS'influence'
p3034
I100
sS'gabs'
p3035
I100
sS'abs\xc3\xad'
p3036
I100
sS'single'
p3037
I98
sS'warning'
p3038
I100
sS'crepes'
p3039
I97
sS'field'
p3040
I100
sS'me.think'
p3041
I100
sS'yearbook'
p3042
I100
sS'hovo'
p3043
I100
sS'ansel'
p3044
I100
sS'may.\xe2\x80\x9dlord'
p3045
I100
sS'peach'
p3046
I100
sS'truuu'
p3047
I99
sS'nah'
p3048
I91
sS'sessions'
p3049
I100
sS'cheetto'
p3050
I100
sS'nick'
p3051
I91
sS'nap'
p3052
I96
sS'points'
p3053
I100
sS'statement'
p3054
I100
sS'kickboxing'
p3055
I97
sS'exum'
p3056
I100
sS'cuando'
p3057
I100
sS'hydrated'
p3058
I100
sS'06:30:33.0,34.22581302,-118.42591382,1197,k'
p3059
I100
sS'nice'
p3060
I93
sS'smiles'
p3061
I100
sS'clean'
p3062
I100
sS'favourite'
p3063
I100
sS'understatement'
p3064
I100
sS'problems'
p3065
I100
sS'goooooood'
p3066
I100
sS'prepared'
p3067
I100
sS"karma's"
p3068
I99
sS'outs'
p3069
I100
sS"embiid's"
p3070
I100
sS'smiled'
p3071
I100
sS'asel'
p3072
I100
sS'weed/take'
p3073
I100
sS'clue'
p3074
I100
sS'06:18:15.0,34.22582344,-118.42588818,1197,walked'
p3075
I100
sS'ago'
p3076
I95
sS'e'
p3077
I99
sS'gangur'
p3078
I100
sS'dvd'
p3079
I100
sS'youtube'
p3080
I100
sS'walked'
p3081
I99
sS'dragged'
p3082
I100
sS'impatient'
p3083
I100
sS'bbys'
p3084
I100
sS'2000'
p3085
I100
sS'bruised'
p3086
I100
sS'karma'
p3087
I98
sS'fresh'
p3088
I99
sS'having'
p3089
I90
sS'once'
p3090
I95
sS'essay'
p3091
I100
sS'edc'
p3092
I98
sS'chanlas'
p3093
I100
sS'tubig'
p3094
I100
sS'regards'
p3095
I100
sS'stalked'
p3096
I100
sS'nunu'
p3097
I99
sS'weekend?\xe2\x80\x9d'
p3098
I100
sS'gumising'
p3099
I100
sS'results'
p3100
I100
sS'lmfaaaoooooo'
p3101
I100
sS'hyper'
p3102
I99
sS'stops'
p3103
I100
sS'superbowl'
p3104
I100
sS'freakin'
p3105
I98
sS'go'
p3106
I33
sS'gossip'
p3107
I99
sS'psycho'
p3108
I99
sS'tweeted'
p3109
I98
sS'chillin'
p3110
I100
sS'putaaasssss'
p3111
I100
sS'cody'
p3112
I99
sS'kez"'
p3113
I100
sS'young'
p3114
I90
sS'send'
p3115
I95
sS'nose'
p3116
I100
sS'hahahaahhhahahaha'
p3117
I100
sS'amigas'
p3118
I100
sS'helps'
p3119
I100
sS'11:23:26.0,34.22583528,-118.42592793,1197,erica'
p3120
I100
sS'sent'
p3121
I98
sS'consuela'
p3122
I100
sS'06:25:40.0,34.22575622,-118.42589555,1197,marrying'
p3123
I100
sS'breathing'
p3124
I99
sS'street'
p3125
I100
sS'garden'
p3126
I99
sS'outside'
p3127
I99
sS'bimbo'
p3128
I100
sS"'not"
p3129
I100
sS'knows...she'
p3130
I100
sS',91402\n496173820990865408,melissatweets_,2014-08-04'
p3131
I100
sS'agua'
p3132
I100
sS'thoooo'
p3133
I100
sS'putting'
p3134
I97
sS'emmm'
p3135
I100
sS'homework'
p3136
I100
sS'mixing'
p3137
I100
sS'drinking'
p3138
I100
sS'11:25:14.0,34.22574429,-118.42581712,1197,i'
p3139
I100
sS'maaa'
p3140
I100
sS'now.\xe2\x80\x9d'
p3141
I100
sS'entire'
p3142
I100
sS'sasabihin'
p3143
I100
sS'driving...so'
p3144
I100
sS'marry'
p3145
I98
sS'shock'
p3146
I100
sS"they've"
p3147
I100
sS'ryan'
p3148
I100
sS'try'
p3149
I88
sS'11:16:10.0,34.22574211,-118.42582223,1197,i'
p3150
I100
sS'huuuhhhhh'
p3151
I100
sS'race'
p3152
I100
sS'entender'
p3153
I100
sS'humaba'
p3154
I100
sS'babes\xe2\x9d\xa4\xef\xb8\x8f'
p3155
I100
sS'challenge'
p3156
I99
sS'joey'
p3157
I100
sS',91402\n495513854109941760,melissatweets_,2014-08-02'
p3158
I100
sS'booty'
p3159
I100
sS"you'd"
p3160
I99
sS'09:14:27.0,34.22580038,-118.42585536,1197,ya'
p3161
I100
sS'boots'
p3162
I96
sS'waking'
p3163
I100
sS'jump'
p3164
I98
sS'blowing'
p3165
I100
sS'video'
p3166
I97
sS'addicted....on'
p3167
I100
sS'picked'
p3168
I98
sS'reunion'
p3169
I100
sS'nalang'
p3170
I100
sS'carlo'
p3171
I100
sS'rivera'
p3172
I100
sS'graduating'
p3173
I100
sS'cupcakes'
p3174
I100
sS'plays'
p3175
I99
sS'power'
p3176
I99
sS'kris'
p3177
I100
sS'giving'
p3178
I96
sS'antok'
p3179
I100
sS'gaztoor'
p3180
I100
sS'lmfao'
p3181
I92
sS'waiting'
p3182
I96
sS'gn'
p3183
I100
sS'playa'
p3184
I100
sS'flowing'
p3185
I100
sS'kershaw'
p3186
I97
sS'(smoke),91402\n496617679302565888,melissatweets_,2014-08-05'
p3187
I100
sS'ahhhhh'
p3188
I99
sS'exercise'
p3189
I100
sS'body'
p3190
I92
sS'lea'
p3191
I100
sS'pediatrics'
p3192
I99
sS'lee'
p3193
I100
sS'pushing'
p3194
I100
sS'commercial'
p3195
I99
sS'punch'
p3196
I98
sS'desiree'
p3197
I99
sS'bachelor'
p3198
I92
sS'let'
p3199
I87
sS'sink'
p3200
I100
sS'separation'
p3201
I100
sS'urs'
p3202
I100
sS'sing'
p3203
I99
sS'physiology'
p3204
I98
sS'extreme'
p3205
I99
sS'vacay'
p3206
I100
sS'great'
p3207
I90
sS'38'
p3208
I100
sS'talent'
p3209
I100
sS'fiyah'
p3210
I100
sS'involved'
p3211
I99
sS'30'
p3212
I94
sS'tumaas'
p3213
I100
sS'later'
p3214
I95
sS'maaaannnn'
p3215
I100
sS'draking'
p3216
I99
sS'products'
p3217
I100
sS"weren't"
p3218
I100
sS'11:16:41.0,34.22572858,-118.42581645,1197,lol'
p3219
I100
sS'cousins'
p3220
I100
sS'uglyyyyy'
p3221
I100
sS'makes'
p3222
I87
sS'weekends'
p3223
I99
sS'thats'
p3224
I99
sS'wid'
p3225
I100
sS'apple'
p3226
I99
sS'chamoy'
p3227
I100
sS'win'
p3228
I92
sS'app'
p3229
I98
sS'336'
p3230
I100
sS'taza'
p3231
I100
sS'private'
p3232
I99
sS'wit'
p3233
I97
sS'booooothangggggg'
p3234
I100
sS'dumbest'
p3235
I100
sS'apply'
p3236
I99
sS'singing'
p3237
I100
sS'staple'
p3238
I99
sS'standing'
p3239
I100
sS'momma"'
p3240
I100
sS'use'
p3241
I98
sS'hahahahaha'
p3242
I95
sS'from'
p3243
I57
sS'thirsty'
p3244
I100
sS'&'
p3245
I74
sS'far"'
p3246
I100
sS'next'
p3247
I81
sS'few'
p3248
I96
sS'crab'
p3249
I98
sS"put'n"
p3250
I100
sS'themselves'
p3251
I100
sS'jonathan'
p3252
I98
sS'chip'
p3253
I100
sS'pencil'
p3254
I100
sS'babe'
p3255
I99
sS'bailando'
p3256
I100
sS'started'
p3257
I95
sS'becomes'
p3258
I100
sS'econ'
p3259
I100
sS'about'
p3260
I46
sS'charming'
p3261
I99
sS'sore'
p3262
I99
sS'train'
p3263
I100
sS'talks'
p3264
I100
sS'baby'
p3265
I85
sS'4am'
p3266
I100
sS'oooooohhhhhh'
p3267
I100
sS'haircuts'
p3268
I100
sS'annoy'
p3269
I99
sS'topic'
p3270
I100
sS'menkenk'
p3271
I100
sS'balls'
p3272
I100
sS'midterm'
p3273
I100
sS'this'
p3274
I20
sS'gabriel'
p3275
I99
sS'ride'
p3276
I99
sS'6am'
p3277
I100
sS'donut'
p3278
I100
sS'lmfaoooooooo'
p3279
I100
sS'sabi'
p3280
I100
sS'obvious'
p3281
I100
sS"mom's"
p3282
I100
sS'shelton'
p3283
I99
sS'island'
p3284
I100
sS'meet'
p3285
I98
sS'drops'
p3286
I100
sS'didnt'
p3287
I99
sS'proof'
p3288
I100
sS'porque'
p3289
I100
sS'loca'
p3290
I99
sS'"sirum'
p3291
I100
sS'sky\xe2\x9d\xa4\xef\xb8\x8f'
p3292
I100
sS'waaaay'
p3293
I100
sS'geez'
p3294
I100
sS'process'
p3295
I100
sS'oc'
p3296
I100
sS':((((((((((('
p3297
I100
sS'halloween'
p3298
I98
sS'loco'
p3299
I100
sS'high'
p3300
I92
sS'hug.\xe2\x80\x9d....about'
p3301
I100
sS'something'
p3302
I79
sS'tam'
p3303
I100
sS'tan'
p3304
I99
sS'tao'
p3305
I99
sS'enrique'
p3306
I100
sS'rape'
p3307
I100
sS'relaxxx'
p3308
I100
sS'sis'
p3309
I99
sS'csun'
p3310
I99
sS'syndrome'
p3311
I100
sS'memorize'
p3312
I100
sS'sit'
p3313
I100
sS'vibe'
p3314
I100
sS'stole'
p3315
I100
sS'six'
p3316
I99
sS'delay'
p3317
I100
sS'blessings'
p3318
I100
sS'interrogated'
p3319
I100
sS'natin'
p3320
I100
sS'instead'
p3321
I98
sS'whose'
p3322
I100
sS'gurl'
p3323
I99
sS'attractive.\xe2\x80\x9d'
p3324
I100
sS'monica'
p3325
I100
sS'watch'
p3326
I83
sS'wallpaper'
p3327
I100
sS'tarsals'
p3328
I100
sS'skills"'
p3329
I100
sS'physio'
p3330
I99
sS'sip'
p3331
I100
sS'verlos'
p3332
I100
sS'hahahaha'
p3333
I94
sS'naghihintay'
p3334
I99
sS'account'
p3335
I100
sS'realized'
p3336
I99
sS'twins'
p3337
I100
sS'chasing'
p3338
I100
sS'sila'
p3339
I100
sS'"yelper"'
p3340
I100
sS'lame'
p3341
I100
sS'cudi'
p3342
I99
sS'salty,91402\n497309744051130368,melissatweets_,2014-08-07'
p3343
I100
sS'honestly'
p3344
I96
sS'hay'
p3345
I100
sS'pardi'
p3346
I99
sS'aram'
p3347
I100
sS'3/4'
p3348
I100
sS'dedos'
p3349
I100
sS'bathing'
p3350
I100
sS'tonight?!?\xe2\x80\x9d'
p3351
I100
sS'move'
p3352
I99
sS"won't"
p3353
I96
sS'looks'
p3354
I94
sS'huuuuuuurrrrrr'
p3355
I100
sS'happiest'
p3356
I97
sS'bunch'
p3357
I95
sS'perfect'
p3358
I87
sS'write'
p3359
I97
sS'blake'
p3360
I98
sS'du'
p3361
I99
sS'la'
p3362
I92
sS'voiceless'
p3363
I100
sS'labor'
p3364
I100
sS'mek'
p3365
I100
sS'trinity'
p3366
I100
sS'fianc\xc3\xa9e'
p3367
I100
sS'choose'
p3368
I98
sS'orange'
p3369
I100
sS'covered'
p3370
I99
sS'bye'
p3371
I96
sS'2011'
p3372
I100
sS'2010'
p3373
I99
sS'2012'
p3374
I100
sS'dad'
p3375
I96
sS'physicians'
p3376
I100
sS'ruined'
p3377
I100
sS'buzzin'
p3378
I100
sS'driveway'
p3379
I100
sS'auto'
p3380
I100
sS'dan'
p3381
I90
sS'"some'
p3382
I100
sS'fiesta'
p3383
I100
sS'flew'
p3384
I100
sS'dat'
p3385
I98
sS'dock'
p3386
I100
sS'cutting'
p3387
I100
sS'bothering'
p3388
I100
sS'das'
p3389
I98
sS'front'
p3390
I98
sS'determines'
p3391
I99
sS'cage'
p3392
I100
sS'day'
p3393
I55
sS'strive'
p3394
I99
sS'wrigley'
p3395
I100
sS"me.don't"
p3396
I100
sS'sucks.\xe2\x80\x9d'
p3397
I100
sS'freaked'
p3398
I100
sS'plans>'
p3399
I100
sS'parks'
p3400
I100
sS'pomona'
p3401
I100
sS'truth'
p3402
I100
sS'tights'
p3403
I100
sS'tinatawag'
p3404
I100
sS'patron'
p3405
I100
sS'glasses'
p3406
I100
sS'pinipili'
p3407
I99
sS'bentley'
p3408
I100
sS'much.oops'
p3409
I100
sS'doing'
p3410
I90
sS'apologize'
p3411
I100
sS'snaps'
p3412
I99
sS'related'
p3413
I100
sS'roughest'
p3414
I100
sS'books'
p3415
I99
sS'twitta'
p3416
I99
sS'our'
p3417
I92
sS'sexual'
p3418
I100
sS'badone'
p3419
I100
sS'special'
p3420
I95
sS'out'
p3421
I48
sS'sirunus'
p3422
I100
sS'bag'
p3423
I100
sS'rep'
p3424
I99
sS'"domo_thomo1"'
p3425
I100
sS'school,91402\n496604022183194624,melissatweets_,2014-08-05'
p3426
I100
sS'lecture'
p3427
I100
sS'masaya'
p3428
I100
sS'yankee'
p3429
I100
sS'cause'
p3430
I75
sS'math'
p3431
I95
sS'het'
p3432
I100
sS'shut'
p3433
I89
sS'home.\xe2\x80\x9d'
p3434
I100
sS'jessica'
p3435
I99
sS'indecisive'
p3436
I100
sS'brainpower'
p3437
I100
sS'embassy'
p3438
I100
sS'completely'
p3439
I100
sS'que'
p3440
I95
sS'trends'
p3441
I100
sS'doubles'
p3442
I100
sS'11:39:36.0,34.22574345,-118.42589524,1197,but'
p3443
I100
sS'stupidity'
p3444
I100
sS'princess'
p3445
I93
sS'shortest'
p3446
I100
sS'scary'
p3447
I97
sS'ya..um..no'
p3448
I100
sS'aieko'
p3449
I100
sS'together..breaks'
p3450
I100
sS'city...its'
p3451
I100
sS'you\xe2\x80\x99ve'
p3452
I100
sS'snapchats'
p3453
I97
sS'could'
p3454
I85
sS'scars'
p3455
I100
sS'put'
p3456
I94
sS'cupsis'
p3457
I100
sS'times'
p3458
I98
sS'conversation'
p3459
I100
sS'misssss'
p3460
I99
sS'4th'
p3461
I98
sS'8-9'
p3462
I100
sS'worst\xe2\x80\xa6'
p3463
I100
sS'subtweeting'
p3464
I100
sS'scare'
p3465
I100
sS'comfiest'
p3466
I100
sS'daniels'
p3467
I100
sS'calcaneus'
p3468
I100
sS'advisor'
p3469
I100
sS'jesus'
p3470
I100
sS'exact'
p3471
I100
sS'klan'
p3472
I100
sS'bitch'
p3473
I81
sS'boats'
p3474
I100
sS'noticed'
p3475
I99
sS'quality'
p3476
I100
sS'now...for'
p3477
I100
sS"doesn't"
p3478
I90
sS'los'
p3479
I100
sS'quieran'
p3480
I100
sS'data'
p3481
I100
sS'seat'
p3482
I100
sS'that,91402\n496615644423401474,melissatweets_,2014-08-05'
p3483
I100
sS'cully'
p3484
I100
sS'their'
p3485
I90
sS'bukas'
p3486
I100
sS'wrapped'
p3487
I100
sS'mondays'
p3488
I98
sS'tumigil'
p3489
I100
sS"farrell's"
p3490
I100
sS'borrachos'
p3491
I100
sS'final'
p3492
I99
sS'evacuated'
p3493
I100
sS'vid'
p3494
I100
sS'apushhhhnerrr'
p3495
I100
sS'stars'
p3496
I100
sS'07:35:58.0,34.22584434,-118.42588907,1197,in'
p3497
I100
sS'kulines'
p3498
I100
sS'nobody'
p3499
I95
sS'studies'
p3500
I100
sS'negro'
p3501
I100
sS'chemicals'
p3502
I100
sS'lil'
p3503
I100
sS'musica'
p3504
I100
sS"that'll"
p3505
I100
sS'july'
p3506
I98
sS'herself'
p3507
I99
sS'loved'
p3508
I97
sS'laker'
p3509
I100
sS'2015'
p3510
I100
sS'boring'
p3511
I99
sS'nah,91402\n496980558698668032,melissatweets_,2014-08-06'
p3512
I100
sS'bed'
p3513
I89
sS'ruiner'
p3514
I100
sS'anaheim'
p3515
I99
sS'loves'
p3516
I97
sS'6th'
p3517
I100
sS'sec'
p3518
I100
sS'whyyy'
p3519
I100
sS'pweez'
p3520
I100
sS'wakes'
p3521
I98
sS'urtex'
p3522
I100
sS'p.s'
p3523
I100
sS'carrots'
p3524
I99
sS'whatevers,91402\n495786746181734401,melissatweets_,2014-08-03'
p3525
I100
sS'tonight'
p3526
I88
sS'tender'
p3527
I100
sS'safe?!?mary-'
p3528
I100
sS'justttt'
p3529
I100
sS'have'
p3530
I27
sS'need'
p3531
I51
sS'element'
p3532
I100
sS'point?\xe2\x80\x9d'
p3533
I100
sS'screw'
p3534
I97
sS'aladdin'
p3535
I99
sS'congrats'
p3536
I99
sS'studying'
p3537
I99
sS'able'
p3538
I97
sS'mid'
p3539
I100
sS'battles'
p3540
I99
sS'fake\xe2\x80\x9d'
p3541
I100
sS'cuatro'
p3542
I100
sS'kidnapped'
p3543
I100
sS'which'
p3544
I98
sS'hs'
p3545
I100
sS'truck'
p3546
I100
sS'mis'
p3547
I100
sS'haven...\xe2\x9d\xa4\xef\xb8\x8f'
p3548
I100
sS'='
p3549
I100
sS'kande'
p3550
I100
sS'youuuu'
p3551
I100
sS'calculus'
p3552
I100
sS'lectures'
p3553
I100
sS'unless'
p3554
I97
sS'eres'
p3555
I100
sS'aww'
p3556
I98
sS'whn'
p3557
I100
sS'who'
p3558
I45
sS'grouptexts'
p3559
I100
sS'eyeliner'
p3560
I98
sS"where's"
p3561
I100
sS'tumahimik'
p3562
I99
sS"2500'"
p3563
I100
sS'view..at'
p3564
I100
sS'gaby\xe2\x80\x9d'
p3565
I100
sS'hahahahhaahaha'
p3566
I100
sS'highschool'
p3567
I99
sS'future'
p3568
I100
sS'class'
p3569
I86
sS'fack'
p3570
I99
sS'hypocrite'
p3571
I99
sS'refreshing'
p3572
I100
sS'inds'
p3573
I100
sS'absolutely'
p3574
I100
sS'ass,91402\n498746552706289664,melissatweets_,2014-08-11'
p3575
I100
sS'upset'
p3576
I99
sS'face'
p3577
I84
sS'looked'
p3578
I99
sS"you'll"
p3579
I97
sS'se'
p3580
I98
sS'friendship\xe2\x80\x99s'
p3581
I100
sS'movie'
p3582
I88
sS'weatherrrrrr'
p3583
I100
sS'happpppppy'
p3584
I100
sS'brothers\xe2\x80\x9d'
p3585
I100
sS'positivity'
p3586
I100
sS'fact'
p3587
I98
sS'manila'
p3588
I100
sS"beckett's"
p3589
I100
sS'$500'
p3590
I100
sS'kurik'
p3591
I100
sS'lmaoo'
p3592
I94
sS'scotty'
p3593
I98
sS'photobombing'
p3594
I100
sS'bring'
p3595
I96
sS'either,91402\n496621254095273984,melissatweets_,2014-08-05'
p3596
I100
sS'utter'
p3597
I100
sS"11:32:45.0,34.22583004,-118.42584419,1197,i'm"
p3598
I100
sS'natraffic'
p3599
I100
sS'ni'
p3600
I100
sS'grabbed'
p3601
I100
sS'craziness'
p3602
I100
sS'09:14:17.0,34.22587866,-118.42593557,1197,i'
p3603
I100
sS'downstairs'
p3604
I100
sS'should'
p3605
I78
sS'am...all'
p3606
I100
sS"anyone's"
p3607
I100
sS'employee'
p3608
I99
sS'hopa'
p3609
I100
sS'rocking'
p3610
I100
sS'hope'
p3611
I85
sS'melissa'
p3612
I98
sS'meant'
p3613
I99
sS'jacqueline'
p3614
I100
sS'mga'
p3615
I100
sS'sings\xe2\x80\x9d'
p3616
I100
sS'handle'
p3617
I100
sS'listened'
p3618
I100
sS'watching'
p3619
I88
sS'beat'
p3620
I100
sS'dope'
p3621
I100
sS'flirting'
p3622
I100
sS'coworker'
p3623
I100
sS'lucky'
p3624
I94
sS'bear'
p3625
I100
sS'boutcha'
p3626
I100
sS'tbh'
p3627
I98
sS'awww'
p3628
I97
sS'ones'
p3629
I91
sS'relaxants'
p3630
I100
sS'words'
p3631
I99
sS'richards'
p3632
I100
sS'thing,91402\n496617849322889216,melissatweets_,2014-08-05'
p3633
I100
sS'kong'
p3634
I99
sS'chips'
p3635
I100
sS'soulmate'
p3636
I100
sS'ghetto'
p3637
I99
sS'11:32:25.0,34.225818,-118.42596382,1197,say'
p3638
I100
sS'sundress'
p3639
I100
sS'ended'
p3640
I98
sS'wellness'
p3641
I100
sS'married'
p3642
I99
sS'stuff'
p3643
I99
sS'she'
p3644
I49
sS'waterfalls'
p3645
I99
sS'shh'
p3646
I100
sS'tipong'
p3647
I100
sS'grab'
p3648
I100
sS'truer'
p3649
I100
sS'dayzzzzz'
p3650
I100
sS'europe'
p3651
I100
sS'btw'
p3652
I98
sS'j'
p3653
I100
sS'araw-araw'
p3654
I100
sS'prayers'
p3655
I100
sS"draftee's"
p3656
I100
sS'national'
p3657
I100
sS'we'
p3658
I44
sS'\xd8\xad\xd8\xb3\xd9\x83\xd9\x8a'
p3659
I100
sS'independent-girl'
p3660
I100
sS'teas'
p3661
I100
sS'greece'
p3662
I100
sS'fashowwww'
p3663
I100
sS'braid'
p3664
I100
sS'stats'
p3665
I100
sS'destiny'
p3666
I100
sS'luv'
p3667
I100
sS'nightmare'
p3668
I100
sS'ralph'
p3669
I94
sS'camille'
p3670
I100
sS'malayo'
p3671
I100
sS'mexicans'
p3672
I98
sS'value.\xe2\x80\x9d'
p3673
I100
sS'bruno'
p3674
I100
sS'correctly'
p3675
I100
sS'horrible'
p3676
I98
sS'quoting'
p3677
I100
sS'bought'
p3678
I97
sS'\xe2\x9d\xa4\xef\xb8\x8f,91402\n495496376470364160,melissatweets_,2014-08-02'
p3679
I100
sS'ends'
p3680
I100
sS'nashville'
p3681
I100
sS'exam'
p3682
I97
sS'opening'
p3683
I100
sS'joy'
p3684
I100
sS'nunushhhhh'
p3685
I100
sS'job'
p3686
I95
sS'kez'
p3687
I99
sS'guadalajara'
p3688
I100
sS'rooftop'
p3689
I100
sS'jon'
p3690
I98
sS'bahahahahaja'
p3691
I100
sS'hits'
p3692
I100
sS'figured'
p3693
I100
sS'drum'
p3694
I100
sS'limits'
p3695
I100
sS'career'
p3696
I100
sS'joke'
p3697
I97
sS'taking'
p3698
I94
sS'yaahhhhh'
p3699
I100
sS'drug'
p3700
I100
sS'twitching'
p3701
I100
sS'april'
p3702
I100
sS'admit'
p3703
I100
sS'alright...i'
p3704
I100
sS'tanes'
p3705
I100
sS'feeeeel'
p3706
I100
sS'maaga'
p3707
I100
sS'comment'
p3708
I99
sS'relevant'
p3709
I100
sS'gokarting'
p3710
I100
sS'toilet'
p3711
I99
sS'wall'
p3712
I100
sS'tuesday'
p3713
I100
sS'unbelievable'
p3714
I100
sS'walk'
p3715
I99
sS'taong'
p3716
I99
sS'laugh'
p3717
I96
sS'news'
p3718
I99
sS'respect'
p3719
I96
sS'lies'
p3720
I100
sS'maiinis'
p3721
I100
sS'quit'
p3722
I100
sS'applies'
p3723
I100
sS'yay'
p3724
I93
sS'not,91402\n495747799611228161,melissatweets_,2014-08-03'
p3725
I100
sS'teach'
p3726
I100
sS"it's"
p3727
I26
sS'02:38:29.0,34.22575636,-118.42588199,1197,me'
p3728
I100
sS'quiz'
p3729
I100
sS'taste'
p3730
I100
sS'drank'
p3731
I99
sS'hindi'
p3732
I93
sS'bby'
p3733
I100
sS'"i\'m'
p3734
I100
sS'degrees'
p3735
I100
sS'hottest'
p3736
I99
sS'waste'
p3737
I100
sS'bbs'
p3738
I98
sS'fishtail'
p3739
I100
sS"it'd"
p3740
I99
sS'\xe2\x80\x9cbeen'
p3741
I100
sS'username'
p3742
I100
sS'faccck'
p3743
I100
sS'preworkout'
p3744
I100
sS'wanna'
p3745
I76
sS'league'
p3746
I100
sS'painted'
p3747
I100
sS'moved'
p3748
I99
sS'tap'
p3749
I100
sS'finale'
p3750
I100
sS'90210!!!\xe2\x80\x9d'
p3751
I100
sS'finished'
p3752
I96
sS'-.-'
p3753
I94
sS'napapala'
p3754
I100
sS'2014'
p3755
I99
sS'smoking'
p3756
I99
sS'archuk'
p3757
I100
sS'aced'
p3758
I100
sS'homes'
p3759
I100
sS'holiday'
p3760
I98
sS'laser'
p3761
I100
sS'unlike'
p3762
I99
sS'sucio'
p3763
I100
sS'vanilla'
p3764
I99
sS'fitzgerald'
p3765
I100
sS'harder'
p3766
I98
sS'hahahahahahah'
p3767
I100
sS'90210'
p3768
I100
sS'will'
p3769
I70
sS'hahaha'
p3770
I77
sS'wild'
p3771
I100
sS'balance'
p3772
I100
sS"nobody's"
p3773
I100
sS'frustrating'
p3774
I100
sS'mapapagod'
p3775
I100
sS'clam'
p3776
I100
sS'hateeeeeeeeeeeee'
p3777
I100
sS'induced'
p3778
I100
sS'almost'
p3779
I93
sS'madness'
p3780
I100
sS'frat'
p3781
I100
sS'vo'
p3782
I100
sS'respected'
p3783
I100
sS'girlfriend'
p3784
I100
sS'kurrikkss'
p3785
I100
sS'noo'
p3786
I100
sS'layed'
p3787
I100
sS'avi'
p3788
I99
sS'babyboy'
p3789
I100
sS'lmaoooooooooo'
p3790
I100
sS'whore'
p3791
I97
sS'truuuuuuuu'
p3792
I100
sS'players'
p3793
I100
sS')'
p3794
I91
sS'summer\xe2\x98\x80\xef\xb8\x8f'
p3795
I100
sS'amo'
p3796
I100
sS'cross'
p3797
I100
sS'manroom)'
p3798
I100
sS'eric'
p3799
I100
sS"mkrtchyan's"
p3800
I100
sS'videos...people'
p3801
I100
sS'dam'
p3802
I100
sS'inch'
p3803
I100
sS'party'
p3804
I93
sS'android'
p3805
I100
sS'gets'
p3806
I91
sS'nada'
p3807
I100
sS'tomatoes'
p3808
I100
sS'difficult'
p3809
I99
sS'spirited'
p3810
I100
sS'spell'
p3811
I100
sS'slave'
p3812
I100
sS'selfish'
p3813
I100
sS'...."oh'
p3814
I100
sS'"reality'
p3815
I100
sS'drink'
p3816
I100
sS'know,91402\n496181376865939456,melissatweets_,2014-08-04'
p3817
I100
sS'sigue'
p3818
I98
sS'padres'
p3819
I100
sS'student'
p3820
I100
sS'sisters'
p3821
I98
sS'croissants'
p3822
I100
sS'sunburn'
p3823
I100
sS'upset...at'
p3824
I100
sS'pull'
p3825
I100
sS'retard'
p3826
I100
sS'off'
p3827
I80
sS'center'
p3828
I98
sS'i'
p3829
I1
sS'well'
p3830
I83
sS'fighting'
p3831
I99
sS"here...i'm"
p3832
I100
sS'thought'
p3833
I80
sS'command'
p3834
I100
sS'oops'
p3835
I99
sS'sets'
p3836
I99
sS'con'
p3837
I99
sS'oaks'
p3838
I100
sS'cried'
p3839
I98
sS'less'
p3840
I100
sS'moments'
p3841
I100
sS"should've"
p3842
I95
sS'cakes'
p3843
I100
sS'\xe2\x80\x9ci\xe2\x80\x99m'
p3844
I100
sS'gun'
p3845
I99
sS'cabo'
p3846
I100
sS'cries'
p3847
I100
sS'that?!!"'
p3848
I100
sS'rooms'
p3849
I100
sS'seats'
p3850
I98
sS'tone'
p3851
I100
sS'spells'
p3852
I100
sS'quiero'
p3853
I99
sS'uzum\xe2\x80\x9dsame'
p3854
I100
sS'quiere'
p3855
I99
sS'vida'
p3856
I100
sS'point'
p3857
I99
sS'logged'
p3858
I100
sS'lake'
p3859
I100
sS'realize'
p3860
I97
sS'reasons'
p3861
I100
sS'add'
p3862
I100
sS'other'
p3863
I88
sS'attractive'
p3864
I100
sS'crack'
p3865
I96
sS'riverside'
p3866
I100
sS'earthquakes'
p3867
I100
sS'smart'
p3868
I98
sS'livin'
p3869
I100
sS'checking'
p3870
I100
sS"who's"
p3871
I98
sS'kkkk'
p3872
I100
sS'>'
p3873
I100
sS'five'
p3874
I100
sS'know'
p3875
I39
sS'desk'
p3876
I100
sS'hehehehe'
p3877
I100
sS'nvm'
p3878
I99
sS'password'
p3879
I100
sS'gum'
p3880
I100
sS'high,91402\n496617469595746304,melissatweets_,2014-08-05'
p3881
I100
sS'emma'
p3882
I100
sS'like'
p3883
I22
sS'lost'
p3884
I95
sS'miami'
p3885
I96
sS'mera\xe2\x80\x9dsame'
p3886
I100
sS'ring'
p3887
I100
sS'sophomore'
p3888
I100
sS'fernando'
p3889
I100
sS'talkin'
p3890
I100
sS'goneeee'
p3891
I100
sS'desmadre'
p3892
I100
sS'lose'
p3893
I98
sS'pagod'
p3894
I100
sS'become'
p3895
I94
sS'works'
p3896
I98
sS'soft'
p3897
I100
sS'page'
p3898
I99
sS'\xd8\xb3\xd9\x83'
p3899
I100
sS'nigga'
p3900
I95
sS'weekend,91402\n496620740330803200,melissatweets_,2014-08-05'
p3901
I100
sS'twitter'
p3902
I84
sS'church'
p3903
I100
sS'authority'
p3904
I100
sS'hair'
p3905
I80
sS'truuuuuu'
p3906
I100
sS'shes'
p3907
I100
sS'choosing'
p3908
I100
sS'cleveland'
p3909
I100
sS'yuuuu'
p3910
I100
sS'home'
p3911
I68
sS'peter'
p3912
I100
sS'ins'
p3913
I100
sS'happens'
p3914
I96
sS'"what'
p3915
I99
sS'niyo'
p3916
I100
sS'highlighting'
p3917
I100
sS'cruelest'
p3918
I100
sS'literally'
p3919
I95
sS'lean'
p3920
I100
sS',91402\n494748670932164608,melissatweets_,2014-07-31'
p3921
I100
sS'does'
p3922
I90
sS'passion'
p3923
I99
sS'worse.\xe2\x80\x9djoe'
p3924
I100
sS'hysterically'
p3925
I100
sS'stuffs'
p3926
I100
sS'enkomem'
p3927
I100
sS'blurry'
p3928
I100
sS'esh'
p3929
I100
sS'stay.\xe2\x80\x9ddeep'
p3930
I100
sS'atin'
p3931
I100
sS'noise'
p3932
I100
sS'hola'
p3933
I100
sS'schedule'
p3934
I99
sS'"melissa'
p3935
I100
sS'slut'
p3936
I99
sS'best.the'
p3937
I100
sS'kristin'
p3938
I99
sS'07:38:41.0,34.22581725,-118.42596791,1197,watermelon'
p3939
I100
sS'life\xe2\x80\x9dkyankus'
p3940
I100
sS'pumps'
p3941
I100
sS'sister'
p3942
I94
sS'rare'
p3943
I99
sS'justin'
p3944
I100
sS'getting'
p3945
I90
sS'longest'
p3946
I100
sS'go..and'
p3947
I100
sS'vacation/day'
p3948
I100
sS'|'
p3949
I100
sS'angeles'
p3950
I100
sS'monthly'
p3951
I100
sS'flaky'
p3952
I100
sS'swear'
p3953
I92
sS'nohe'
p3954
I100
sS'puppies'
p3955
I99
sS'swimming'
p3956
I98
sS'own'
p3957
I99
sS'letters'
p3958
I99
sS'booboo'
p3959
I100
sS'wilderness'
p3960
I100
sS'reunite'
p3961
I100
sS'commitment'
p3962
I100
sS'included'
p3963
I99
sS'doesnt'
p3964
I100
sS'promise'
p3965
I99
sS'drowning-'
p3966
I100
sS'paulina'
p3967
I99
sS'listen,91402\n496620333248425984,melissatweets_,2014-08-05'
p3968
I100
sS'fired'
p3969
I100
sS'knuckles'
p3970
I100
sS'vai'
p3971
I100
sS'van'
p3972
I99
sS'crave'
p3973
I100
sS'*'
p3974
I99
sS'apps'
p3975
I100
sS'kidding'
p3976
I98
sS'bump'
p3977
I98
sS'bees'
p3978
I100
sS'biggest'
p3979
I95
sS'daniela'
p3980
I89
sS'acceptance/rejection'
p3981
I100
sS'jason'
p3982
I100
sS'naturally'
p3983
I100
sS'uncoming'
p3984
I100
sS'buy'
p3985
I91
sS"i've"
p3986
I86
sS'bus'
p3987
I99
sS'brand'
p3988
I100
sS'bitches'
p3989
I99
sS'hw'
p3990
I96
sS'but'
p3991
I21
sS'blaming'
p3992
I100
sS'reminds'
p3993
I99
sS'hi'
p3994
I98
sS'bun'
p3995
I100
sS'ughhh'
p3996
I100
sS'hc'
p3997
I95
sS'ha'
p3998
I99
sS'bitched'
p3999
I100
sS'eat'
p4000
I94
sS'witness'
p4001
I100
sS'he'
p4002
I55
sS'count'
p4003
I98
sS'b-rad'
p4004
I100
sS'baptist'
p4005
I100
sS'made'
p4006
I79
sS'wise'
p4007
I98
sS'places'
p4008
I100
sS'whether'
p4009
I100
sS'wish'
p4010
I88
sS'official'
p4011
I99
sS'smooth'
p4012
I100
sS'flip'
p4013
I99
sS'distract'
p4014
I100
sS'supa'
p4015
I100
sS'excitement'
p4016
I100
sS'record'
p4017
I100
sS'cruel'
p4018
I100
sS'stories'
p4019
I100
sS'subtweets'
p4020
I100
sS'cake'
p4021
I100
sS'mista'
p4022
I100
sS'piece'
p4023
I99
sS'minutes'
p4024
I99
sS'cmon'
p4025
I100
sS'ucr'
p4026
I100
sS'controlarse'
p4027
I100
sS'nurses'
p4028
I100
sS'laughs\xe2\x9d\xa4\xef\xb8\x8f'
p4029
I100
sS'pic'
p4030
I88
sS'pie'
p4031
I99
sS'pig'
p4032
I99
sS"sdsu's"
p4033
I100
sS'"so'
p4034
I100
sS'et'
p4035
I100
sS'happen'
p4036
I92
sS'48'
p4037
I100
sS'weeeeeed'
p4038
I100
sS'obsession'
p4039
I100
sS'no\xe2\x80\x9d'
p4040
I100
sS'deserved'
p4041
I100
sS'11:12:01.0,34.22581856,-118.4258623,1197,i'
p4042
I100
sS'book'
p4043
I97
sS'popping'
p4044
I100
sS'sick'
p4045
I99
sS'pueden'
p4046
I100
sS'7/11'
p4047
I100
sS'relive'
p4048
I100
sS'4"'
p4049
I100
sS'clicks'
p4050
I100
sS'nacer'
p4051
I100
sS'repeat'
p4052
I100
sS'star'
p4053
I100
sS'monday'
p4054
I99
sS',91402\n495274892137226242,melissatweets_,2014-08-01'
p4055
I100
sS'bff'
p4056
I100
sS'june'
p4057
I99
sS'stay'
p4058
I94
sS'chance'
p4059
I97
sS'masasaktan'
p4060
I100
sS'kinda'
p4061
I99
sS'gap'
p4062
I100
sS'friends'
p4063
I77
sS'breaks'
p4064
I100
sS'\xe2\x80\x94'
p4065
I100
sS'hiked'
p4066
I100
sS"dooo'"
p4067
I100
sS'kardashian'
p4068
I100
sS'voicemail'
p4069
I100
sS'!,91402\n496616742269882368,melissatweets_,2014-08-05'
p4070
I100
sS'macchiato'
p4071
I100
sS'understand'
p4072
I95
sS'yell'
p4073
I100
sS'ticketed'
p4074
I100
sS'yummmmm'
p4075
I100
sS'work\xe2\x80\x9d'
p4076
I100
sS'8th'
p4077
I99
s.