(dp0
S''
p1
I3
sS'all'
p2
I24
sS'coach'
p3
I36
sS'sentimiento'
p4
I36
sS':)'
p5
I35
sS'dance'
p6
I35
sS'drugs'
p7
I36
sS"they're"
p8
I36
sS'known'
p9
I36
sS'playas'
p10
I36
sS'sleep'
p11
I35
sS"friend's"
p12
I36
sS'go'
p13
I23
sS'follow'
p14
I33
sS'scv'
p15
I36
sS'hate'
p16
I35
sS':3'
p17
I36
sS'mucho'
p18
I36
sS'habla'
p19
I36
sS'glimpse'
p20
I36
sS'parentschris'
p21
I36
sS'zone'
p22
I36
sS'everywhere'
p23
I36
sS'tweet'
p24
I36
sS'white'
p25
I36
sS'\xe2\x98\xba\xef\xb8\x8f'
p26
I36
sS'seriously'
p27
I36
sS'send'
p28
I35
sS'countdown'
p29
I36
sS'to'
p30
I7
sS'relaxs'
p31
I36
sS'saw'
p32
I36
sS'under'
p33
I36
sS'tf'
p34
I36
sS'sorry'
p35
I32
sS'must'
p36
I36
sS'knot'
p37
I36
sS'worth'
p38
I36
sS'shoot'
p39
I36
sS'(official'
p40
I35
sS'woman'
p41
I36
sS'hahahah'
p42
I36
sS'song'
p43
I35
sS':d'
p44
I34
sS'feminist'
p45
I36
sS'\xe2\x9d\xa4\xef\xb8\x8f\xe2\x80\x9d'
p46
I36
sS'kitty'
p47
I35
sS'choice'
p48
I36
sS'begging'
p49
I36
sS'vegas'
p50
I35
sS'every'
p51
I30
sS'sunny'
p52
I36
sS'kitten'
p53
I36
sS'telling'
p54
I36
sS'word'
p55
I36
sS'ticket'
p56
I36
sS':p'
p57
I36
sS'cool'
p58
I35
sS'entire'
p59
I36
sS'school'
p60
I36
sS'magic'
p61
I35
sS'pitbull'
p62
I36
sS'did'
p63
I32
sS'forth'
p64
I36
sS'conceive'
p65
I36
sS'gettin'
p66
I36
sS'brother'
p67
I34
sS'leave'
p68
I35
sS'ch\xc3\xa9vere'
p69
I36
sS'soooo'
p70
I36
sS'honor'
p71
I36
sS'red'
p72
I36
sS'team'
p73
I36
sS'radio'
p74
I36
sS'guy'
p75
I36
sS'round'
p76
I36
sS'dis'
p77
I36
sS"i'll"
p78
I35
sS'someday'
p79
I36
sS'titled'
p80
I36
sS"you'd"
p81
I36
sS'awake'
p82
I36
sS'miller'
p83
I36
sS'horn'
p84
I36
sS'past'
p85
I36
sS'second'
p86
I34
sS'street'
p87
I36
sS'video'
p88
I36
sS'picked'
p89
I36
sS'patient'
p90
I36
sS'shining'
p91
I35
sS'even'
p92
I36
sS'what'
p93
I27
sS'hide'
p94
I36
sS'ugly'
p95
I36
sS'prayer'
p96
I36
sS'section'
p97
I36
sS'deliciousness'
p98
I36
sS'waiting'
p99
I36
sS'indian'
p100
I36
sS'melo'
p101
I36
sS'new'
p102
I34
sS'learned'
p103
I36
sS'told'
p104
I35
sS'body'
p105
I34
sS'relationships'
p106
I36
sS'full'
p107
I36
sS'christian'
p108
I36
sS'chose'
p109
I35
sS'leg'
p110
I36
sS'bowtie'
p111
I36
sS'never'
p112
I33
sS'stared'
p113
I36
sS'here'
p114
I34
sS'hours'
p115
I35
sS'\xe2\x9d\xa4\xef\xb8\x8f'
p116
I35
sS'tracks'
p117
I36
sS'let'
p118
I36
sS'separation'
p119
I36
sS'endor'
p120
I31
sS'aftermath'
p121
I36
sS'100'
p122
I36
sS'forver'
p123
I36
sS'change'
p124
I33
sS'knowledge'
p125
I35
sS'great'
p126
I29
sS'kids'
p127
I36
sS'daughter'
p128
I36
sS'receive'
p129
I36
sS'didnt'
p130
I36
sS'vegetarian'
p131
I36
sS'deferring'
p132
I36
sS'shades'
p133
I36
sS'alaska'
p134
I36
sS'lakers'
p135
I36
sS'bow'
p136
I35
sS'mixtape\xe2\x80\xa6'
p137
I36
sS'airport'
p138
I36
sS'techno'
p139
I36
sS'smoke'
p140
I36
sS'defeat'
p141
I36
sS'*buys'
p142
I36
sS"i'm"
p143
I9
sS'share'
p144
I36
sS'makes'
p145
I35
sS'sayin'
p146
I35
sS'control'
p147
I36
sS'via'
p148
I36
sS'love'
p149
I20
sS'limos'
p150
I33
sS'fireworks'
p151
I36
sS'siri'
p152
I36
sS'vodka'
p153
I36
sS'private'
p154
I36
sS'it....boghos....you'
p155
I36
sS'bro'
p156
I33
sS'put'
p157
I36
sS'wit'
p158
I36
sS'win..cause'
p159
I36
sS'bra'
p160
I36
sS'yourself'
p161
I36
sS'from'
p162
I27
sS'working'
p163
I35
sS'&'
p164
I30
sS"that's"
p165
I31
sS'positive'
p166
I36
sS'lorro'
p167
I36
sS'dude'
p168
I33
sS'two'
p169
I35
sS'next'
p170
I34
sS'cali'
p171
I36
sS'ca)'
p172
I33
sS'doubt'
p173
I34
sS'music'
p174
I33
sS'6'
p175
I36
sS'expressway'
p176
I36
sS'bowl'
p177
I36
sS'tell'
p178
I35
sS'today'
p179
I33
sS'more'
p180
I31
sS'teen'
p181
I36
sS"'the"
p182
I36
sS'threw'
p183
I36
sS'club'
p184
I36
sS'engaged'
p185
I36
sS'hoffman'
p186
I36
sS'getting'
p187
I36
sS'haha'
p188
I36
sS'"publius'
p189
I36
sS'it'
p190
I15
sS'hs87'
p191
I35
sS'babs'
p192
I36
sS"ain't"
p193
I34
sS'basically'
p194
I36
sS'baby'
p195
I35
sS'rooster'
p196
I36
sS'glad'
p197
I36
sS'skur'
p198
I35
sS'me'
p199
I14
sS'te'
p200
I36
sS'practicing'
p201
I36
sS'g'
p202
I36
sS'hour'
p203
I36
sS'niggas'
p204
I36
sS'this'
p205
I16
sS'car'
p206
I34
sS'work'
p207
I34
sS'sucks'
p208
I36
sS'roof'
p209
I36
sS'movies'
p210
I36
sS'vs'
p211
I36
sS'del'
p212
I36
sS'can'
p213
I31
sS'universe'
p214
I35
sS'growing'
p215
I36
sS'making'
p216
I35
sS'my'
p217
I2
sS'beautiful'
p218
I35
sS'claim'
p219
I36
sS'crazy'
p220
I34
sS'months'
p221
I36
sS'shepherd'
p222
I36
sS'lives'
p223
I36
sS'awesome'
p224
I35
sS'carroll'
p225
I36
sS'fuck'
p226
I33
sS'high'
p227
I36
sS'heard'
p228
I36
sS'foods'
p229
I36
sS'homie'
p230
I35
sS'bend'
p231
I36
sS'want'
p232
I34
sS'fundamentalism'
p233
I36
sS'wonderful'
p234
I35
sS'tan'
p235
I36
sS'david'
p236
I36
sS'wayyyy'
p237
I36
sS'worse'
p238
I36
sS'pink'
p239
I34
sS'caption'
p240
I36
sS'destroying'
p241
I36
sS'sitting'
p242
I36
sS'how'
p243
I34
sS'sunday'
p244
I35
sS'pure'
p245
I36
sS'interview'
p246
I36
sS'instead'
p247
I36
sS'if'
p248
I30
sS'beach'
p249
I36
sS'hopeless'
p250
I36
sS'profile'
p251
I35
sS'sis'
p252
I36
sS'ft'
p253
I35
sS'tried'
p254
I36
sS'may'
p255
I35
sS'stop'
p256
I34
sS'ponies'
p257
I36
sS'after'
p258
I36
sS'doesn\xe2\x80\x99t'
p259
I36
sS'tied'
p260
I36
sS'fa'
p261
I36
sS'mac'
p262
I36
sS'birthday'
p263
I35
sS'blood'
p264
I36
sS'numb'
p265
I36
sS'taco'
p266
I36
sS'date'
p267
I35
sS'law'
p268
I36
sS'guys'
p269
I35
sS'types'
p270
I36
sS'man'
p271
I34
sS'a'
p272
I6
sS'sentir'
p273
I36
sS'danny'
p274
I36
sS'remember'
p275
I35
sS'reminiscing'
p276
I36
sS'light'
p277
I35
sS'st'
p278
I23
sS'q'
p279
I36
sS'rather'
p280
I36
sS'meditate'
p281
I36
sS'honestly'
p282
I35
sS'block'
p283
I36
sS'vintage'
p284
I36
sS'lmfaooooo'
p285
I36
sS'fan'
p286
I35
sS'playing'
p287
I36
sS'talk'
p288
I36
sS'wine'
p289
I35
sS'leslie'
p290
I36
sS'cute'
p291
I35
sS'ha'
p292
I36
sS'comfort'
p293
I36
sS'poor'
p294
I36
sS"don't"
p295
I31
sS'reminded'
p296
I36
sS'over'
p297
I35
sS'fam'
p298
I36
sS'soon'
p299
I36
sS'years'
p300
I36
sS'ended'
p301
I36
sS"view'"
p302
I36
sS'through'
p303
I36
sS'existence'
p304
I36
sS'still'
p305
I32
sS'thyself'
p306
I36
sS'mayor'
p307
I36
sS'before'
p308
I34
sS'perfect'
p309
I36
sS'style'
p310
I33
sS'group'
p311
I35
sS'thank'
p312
I31
sS'22'
p313
I36
sS'la'
p314
I35
sS'somewhere'
p315
I36
sS'presence'
p316
I36
sS'hot'
p317
I36
sS'banquet'
p318
I34
sS'better'
p319
I35
sS'degrees'
p320
I36
sS'laces'
p321
I36
sS'tweets'
p322
I36
sS'covered'
p323
I35
sS'holiday'
p324
I36
sS'mommy'
p325
I36
sS"haven't"
p326
I35
sS'happened'
p327
I36
sS'dad'
p328
I35
sS'then'
p329
I36
sS'them'
p330
I34
sS'good'
p331
I33
sS'emailed'
p332
I36
sS'woken'
p333
I36
sS'yo'
p334
I36
sS'ya'
p335
I36
sS'conversations'
p336
I36
sS'safe'
p337
I36
sS'video)'
p338
I35
sS'nation'
p339
I36
sS'break'
p340
I35
sS'miedo'
p341
I35
sS'damnnnn'
p342
I36
sS'they'
p343
I28
sS'hands'
p344
I34
sS'not'
p345
I30
sS'now'
p346
I25
sS'hall'
p347
I34
sS'masters'
p348
I36
sS'realist'
p349
I35
sS'nugget'
p350
I36
sS'always'
p351
I36
sS'well.....that'
p352
I36
sS'possibilities'
p353
I36
sS'someone'
p354
I36
sS'weather'
p355
I36
sS'check-in'
p356
I36
sS'trap'
p357
I36
sS'truth'
p358
I35
sS'rock'
p359
I36
sS'shoka'
p360
I36
sS'went'
p361
I36
sS'side'
p362
I34
sS'trailer'
p363
I36
sS'bantu'
p364
I36
sS'nick'
p365
I36
sS'studios'
p366
I36
sS'everyone'
p367
I34
sS'bday'
p368
I36
sS'delicious'
p369
I36
sS'doing'
p370
I34
sS'house'
p371
I35
sS'hard'
p372
I36
sS'solution'
p373
I36
sS'celebrating'
p374
I36
sS'used'
p375
I36
sS'forgot'
p376
I36
sS'okay'
p377
I36
sS'girl'
p378
I34
sS'tuned'
p379
I36
sS'obsession'
p380
I36
sS'saturday'
p381
I35
sS'out'
p382
I30
sS'rt'
p383
I35
sS'living'
p384
I36
sS'ascension'
p385
I36
sS'missed'
p386
I35
sS'3rd'
p387
I36
sS'<<<'
p388
I35
sS'god'
p389
I22
sS'trooper'
p390
I36
sS'bellaire'
p391
I35
sS'looking'
p392
I36
sS'mess'
p393
I36
sS'misses'
p394
I36
sS'smk'
p395
I36
sS'hill'
p396
I36
sS'rap'
p397
I36
sS'smh'
p398
I36
sS'got'
p399
I28
sS'darling'
p400
I36
sS'cause'
p401
I36
sS'advice'
p402
I36
sS'math'
p403
I36
sS"one's"
p404
I36
sS'ass'
p405
I36
sS'screw'
p406
I36
sS'shut'
p407
I36
sS'drink'
p408
I36
sS"doesn't"
p409
I36
sS'million'
p410
I36
sS'dokie'
p411
I36
sS'greedy'
p412
I36
sS'completely'
p413
I36
sS'please'
p414
I35
sS'que'
p415
I35
sS'grandma'
p416
I36
sS'ask'
p417
I35
sS'wanted'
p418
I35
sS'marine'
p419
I36
sS"ever!'"
p420
I36
sS"how's"
p421
I36
sS'mvp'
p422
I36
sS'allergic'
p423
I36
sS'dammit'
p424
I36
sS'holding'
p425
I36
sS'comfy'
p426
I36
sS'carnival'
p427
I36
sS'snapchats'
p428
I36
sS'starts'
p429
I36
sS'could'
p430
I35
sS'scars'
p431
I36
sS'messages'
p432
I36
sS'days'
p433
I34
sS'times'
p434
I35
sS'thing'
p435
I35
sS'pigs'
p436
I36
sS'place'
p437
I31
sS'8-9'
p438
I36
sS"today's"
p439
I36
sS'gurrrls'
p440
I36
sS'think'
p441
I34
sS'first'
p442
I32
sS'great?knowing'
p443
I36
sS"y'all"
p444
I36
sS'finest'
p445
I36
sS'dont'
p446
I36
sS'feel'
p447
I35
sS'meet'
p448
I36
sS'coming'
p449
I36
sS'powerful'
p450
I36
sS'one'
p451
I30
sS'hahahaha'
p452
I36
sS'done'
p453
I36
sS'long'
p454
I36
sS'another'
p455
I34
sS'force'
p456
I36
sS'message'
p457
I35
sS'drove'
p458
I36
sS'miss'
p459
I35
sS'tomorrow'
p460
I34
sS"'em"
p461
I36
sS'170'
p462
I35
sS"you're"
p463
I29
sS'little'
p464
I35
sS'snapchating'
p465
I36
sS'festival'
p466
I36
sS'trillion'
p467
I36
sS'girls'
p468
I36
sS'tow'
p469
I36
sS'adopted'
p470
I36
sS'name?"'
p471
I36
sS'their'
p472
I36
sS'fml'
p473
I35
sS'2'
p474
I34
sS'too'
p475
I34
sS'realization'
p476
I36
sS'ayeeee'
p477
I36
sS'hollywood'
p478
I26
sS'returns'
p479
I36
sS'makeout'
p480
I36
sS'friend'
p481
I36
sS'gives'
p482
I35
sS'meme'
p483
I36
sS'you\xe2\x80\x94'
p484
I36
sS'stomach'
p485
I36
sS'relationship'
p486
I36
sS'that'
p487
I22
sS'gym'
p488
I36
sS'serve'
p489
I36
sS'kelving'
p490
I36
sS"eminem's"
p491
I36
sS'released'
p492
I36
sS'toot'
p493
I36
sS'because'
p494
I33
sS'off'
p495
I36
sS'july'
p496
I36
sS'believe'
p497
I36
sS'stairs'
p498
I36
sS'than'
p499
I36
sS'boyfriend'
p500
I35
sS'begins'
p501
I36
sS'10'
p502
I35
sS'cracks'
p503
I36
sS'15'
p504
I35
sS'lmao'
p505
I33
sS'19'
p506
I36
sS'gotta'
p507
I35
sS'fcken'
p508
I36
sS'grey'
p509
I36
sS'bed'
p510
I34
sS"gary's"
p511
I36
sS'future'
p512
I36
sS'were'
p513
I35
sS'suaveeeeee'
p514
I36
sS'feeling'
p515
I35
sS'ousted'
p516
I36
sS'bet'
p517
I36
sS'result'
p518
I35
sS'and'
p519
I5
sS'mini'
p520
I36
sS'san'
p521
I23
sS'angel'
p522
I36
sS'remained'
p523
I36
sS'face'
p524
I36
sS'p.s'
p525
I36
sS'esto'
p526
I36
sS'mind'
p527
I36
sS'familiarity'
p528
I36
sS'sad'
p529
I34
sS'tonight'
p530
I32
sS'talking'
p531
I36
sS'say'
p532
I36
sS'have'
p533
I26
sS'ambitious'
p534
I36
sS'need'
p535
I34
sS'seen'
p536
I36
sS'breakfast'
p537
I36
sS'turn'
p538
I36
sS'seek'
p539
I36
sS'clearly'
p540
I36
sS'alive'
p541
I36
sS'men..go'
p542
I36
sS"let's"
p543
I36
sS'twitter"'
p544
I36
sS'congrats'
p545
I36
sS'lil'
p546
I36
sS'sherri'
p547
I36
sS'seymour'
p548
I36
sS'couch'
p549
I36
sS'okie'
p550
I36
sS'becca'
p551
I36
sS'take'
p552
I33
sS'so'
p553
I20
sS';-)'
p554
I36
sS'rhcp'
p555
I36
sS'patchy'
p556
I36
sS'knots'
p557
I36
sS'pain'
p558
I35
sS'though'
p559
I36
sS'park'
p560
I36
sS'who'
p561
I31
sS'joyis'
p562
I36
sS'paid'
p563
I36
sS'hw'
p564
I36
sS'mario'
p565
I36
sS'minecraft'
p566
I36
sS'pleasure'
p567
I36
sS'freshman'
p568
I36
sS'concumed'
p569
I36
sS'why'
p570
I30
sS'forever'
p571
I36
sS'section.then'
p572
I36
sS'boys'
p573
I36
sS'sometimes'
p574
I36
sS'stronger'
p575
I36
sS'disease'
p576
I36
sS'tooth'
p577
I36
sS"didn't"
p578
I36
sS"you'll"
p579
I35
sS'definitely'
p580
I36
sS'aunt'
p581
I36
sS'clean'
p582
I35
sS'left'
p583
I35
sS'away'
p584
I35
sS'came'
p585
I36
sS'joining'
p586
I36
sS'son'
p587
I36
sS'saying'
p588
I36
sS'columbian'
p589
I36
sS'hunger'
p590
I36
sS'german'
p591
I36
sS'text'
p592
I34
sS'chanel'
p593
I36
sS'stfu'
p594
I36
sS'weho'
p595
I36
sS'yr'
p596
I36
sS'corner'
p597
I36
sS'fear'
p598
I34
sS'heavens'
p599
I36
sS'find'
p600
I35
sS'lessons'
p601
I36
sS'\xe2\x9c\x8c'
p602
I36
sS'besampt'
p603
I36
sS'consciousness'
p604
I35
sS'cousins'
p605
I35
sS'life\xe2\x80\x9d'
p606
I36
sS'3'
p607
I36
sS'worthy'
p608
I36
sS'should'
p609
I35
sS'only'
p610
I34
sS'going'
p611
I31
sS'black'
p612
I36
sS'pretty'
p613
I36
sS'photo'
p614
I35
sS'california)'
p615
I34
sS'watching'
p616
I36
sS'posted'
p617
I36
sS'hope'
p618
I35
sS'meant'
p619
I36
sS'do'
p620
I28
sS'his'
p621
I33
sS'get'
p622
I32
sS'goodluck'
p623
I36
sS'itunes'
p624
I36
sS'de'
p625
I36
sS'watch'
p626
I33
sS'him,91605\n466792339118108674,420godbody,2014-05-15'
p627
I36
sS'da'
p628
I35
sS'due_mr_rick'
p629
I36
sS'cannot'
p630
I36
sS'procrastination'
p631
I36
sS'wedding'
p632
I35
sS'hahahahahahahah'
p633
I36
sS'nasty'
p634
I36
sS'beards'
p635
I36
sS'him'
p636
I33
sS'freaking'
p637
I36
sS'humiliate'
p638
I36
sS'...lemme'
p639
I36
sS'married'
p640
I36
sS'morning'
p641
I36
sS'book'
p642
I36
sS'bad'
p643
I36
sS'bae'
p644
I36
sS'she'
p645
I35
sS'release'
p646
I36
sS'ohio'
p647
I36
sS'hollywood)'
p648
I34
sS'where'
p649
I34
sS'-_-'
p650
I36
sS'respond'
p651
I36
sS'reveals'
p652
I36
sS'learn'
p653
I34
sS'qtr'
p654
I36
sS'd.u.e'
p655
I36
sS'wack\xe2\x80\x9d'
p656
I36
sS'lazy'
p657
I36
sS'pic'
p658
I36
sS'edition'
p659
I36
sS'see'
p660
I29
sS'dumb'
p661
I36
sS'are'
p662
I20
sS'hell'
p663
I36
sS'"whats'
p664
I36
sS'news'
p665
I36
sS'ruined'
p666
I36
sS'paul'
p667
I36
sS'best'
p668
I33
sS'nationals.how'
p669
I36
sS'excitement'
p670
I36
sS'practice'
p671
I36
sS'destiny'
p672
I36
sS'ways'
p673
I36
sS'movie'
p674
I34
sS'wow'
p675
I34
sS'willard'
p676
I23
sS'its'
p677
I36
sS'favor'
p678
I36
sS'bien'
p679
I36
sS"there's"
p680
I35
sS'bruno'
p681
I36
sS'roscoe'
p682
I36
sS'routine'
p683
I36
sS'weird'
p684
I36
sS'problems'
p685
I36
sS'rlly'
p686
I36
sS'across'
p687
I36
sS'rita'
p688
I36
sS'bought'
p689
I36
sS'knowing'
p690
I36
sS'ken'
p691
I36
sS'we'
p692
I29
sS'omg'
p693
I36
sS'eye'
p694
I36
sS'spring'
p695
I36
sS'joy'
p696
I36
sS'butts'
p697
I36
sS'spray'
p698
I36
sS'momma,91605\n467117887270821889,420godbody,2014-05-16'
p699
I36
sS'wtf'
p700
I34
sS'20'
p701
I35
sS'killing'
p702
I36
sS'come'
p703
I35
sS'(12835'
p704
I23
sS'perfection'
p705
I36
sS'21'
p706
I36
sS'summe'
p707
I36
sS'last'
p708
I34
sS'met'
p709
I36
sS'many'
p710
I36
sS'invited'
p711
I36
sS"he's"
p712
I36
sS'sterling'
p713
I36
sS'encore'
p714
I36
sS'fans'
p715
I36
sS'passing'
p716
I36
sS'mean'
p717
I36
sS'whole'
p718
I32
sS'asked'
p719
I36
sS"can't"
p720
I30
sS'con'
p721
I36
sS'gooood'
p722
I36
sS'key'
p723
I36
sS'drunk'
p724
I35
sS'simple'
p725
I36
sS'sweet'
p726
I21
sS'stuck'
p727
I36
sS'teasing'
p728
I36
sS'laugh'
p729
I35
sS'village'
p730
I36
sS'girl..you'
p731
I36
sS'actually'
p732
I36
sS'beats'
p733
I36
sS'speak'
p734
I35
sS'platinum'
p735
I33
sS'late'
p736
I36
sS'unopened'
p737
I36
sS'tafreshi_fashion'
p738
I36
sS'3-5am'
p739
I36
sS"it's"
p740
I32
sS'gals'
p741
I36
sS'elmer'
p742
I36
sS'been'
p743
I32
sS'mark'
p744
I36
sS'much'
p745
I31
sS'damn'
p746
I35
sS'mars'
p747
I36
sS'expected'
p748
I36
sS'parents'
p749
I36
sS'wait'
p750
I36
sS'meeting'
p751
I35
sS'qu\xc3\xa9'
p752
I36
sS'schoolboy'
p753
I36
sS'wants'
p754
I36
sS'tears'
p755
I36
sS'life'
p756
I32
sS'cal'
p757
I36
sS'eastern'
p758
I36
sS'fire'
p759
I35
sS'andres'
p760
I36
sS"what's"
p761
I35
sS'gas'
p762
I35
sS'else'
p763
I35
sS'annoyed'
p764
I36
sS'orange'
p765
I36
sS'wake'
p766
I35
sS'showered'
p767
I36
sS'hardcore'
p768
I36
sS'cake*'
p769
I36
sS'those'
p770
I35
sS'myself'
p771
I33
sS'dicks'
p772
I36
sS'tank'
p773
I36
sS'look'
p774
I33
sS'turns'
p775
I36
sS'these'
p776
I34
sS'xoxoxo'
p777
I36
sS'as'
p778
I20
sS'premature'
p779
I36
sS'will'
p780
I34
sS'w'
p781
I36
sS'while'
p782
I35
sS'felling'
p783
I36
sS'overcome'
p784
I36
sS'hahaha'
p785
I35
sS'fun'
p786
I34
sS'settler'
p787
I36
sS'scheduled'
p788
I36
sS'alize'
p789
I36
sS'01:42:37.0,34.2191211,-118.4134996,1216,nigga'
p790
I36
sS'<3'
p791
I33
sS'bellair'
p792
I35
sS'empanadas'
p793
I36
sS'discourses'
p794
I36
sS'is'
p795
I10
sS'ishhhhh'
p796
I36
sS'thus'
p797
I35
sS'site'
p798
I34
sS'sleeping'
p799
I36
sS'lolol'
p800
I36
sS'middle'
p801
I36
sS'itself'
p802
I35
sS'im'
p803
I34
sS'in'
p804
I12
sS'dentists...chris'
p805
I36
sS'return'
p806
I36
sS'arabic'
p807
I36
sS'leaving'
p808
I36
sS'espa\xc3\xb1ol!\xe2\x80\x9d'
p809
I36
sS'voz'
p810
I36
sS'chase'
p811
I35
sS'funny'
p812
I36
sS'open'
p813
I36
sS'wearing'
p814
I36
sS'things'
p815
I30
sS'make'
p816
I32
sS'0'
p817
I36
sS'same'
p818
I35
sS'trip'
p819
I36
sS'days...i'
p820
I36
sS'9'
p821
I36
sS'party'
p822
I34
sS'eww'
p823
I36
sS'ascend'
p824
I36
sS'week'
p825
I34
sS"craving's"
p826
I36
sS'finish'
p827
I36
sS'smkie'
p828
I36
sS'mountain'
p829
I36
sS'keys'
p830
I36
sS'derby'
p831
I36
sS'upon'
p832
I35
sS'rain'
p833
I36
sS'cheers'
p834
I36
sS'spoiler'
p835
I36
sS'moment'
p836
I36
sS'i*'
p837
I36
sS'driven'
p838
I36
sS'cousin'
p839
I36
sS'infinite'
p840
I35
sS'fuxking'
p841
I36
sS'mayra'
p842
I36
sS'single'
p843
I36
sS'deflates'
p844
I36
sS'net'
p845
I36
sS'whose'
p846
I36
sS'lunch'
p847
I36
sS'i'
p848
I1
sS'unconditionally'
p849
I35
sS'floor'
p850
I36
sS'well'
p851
I35
sS'intrigue'
p852
I36
sS'thought'
p853
I31
sS'hispanic'
p854
I36
sS'does'
p855
I36
sS'louisiana'
p856
I36
sS'the'
p857
I4
sS'smoked'
p858
I36
sS'dimension'
p859
I36
sS'dads'
p860
I36
sS'seahawks'
p861
I33
sS'world'
p862
I36
sS'\xe2\x9d\xa4'
p863
I36
sS'just'
p864
I22
sS'yea'
p865
I36
sS'money'
p866
I34
sS'amark'
p867
I36
sS'wednesday'
p868
I36
sS'rest'
p869
I36
sS'skincare'
p870
I36
sS'sources'
p871
I36
sS'hehehe'
p872
I36
sS'kill'
p873
I36
sS'thanks'
p874
I34
sS'swears'
p875
I36
sS'yes'
p876
I33
sS'24/7'
p877
I36
sS'yet'
p878
I36
sS'mccormick'
p879
I36
sS'wowowowo'
p880
I36
sS'generous'
p881
I36
sS'broncos'
p882
I35
sS'having'
p883
I36
sS'infinitely'
p884
I35
sS'had'
p885
I35
sS'cuz'
p886
I36
sS'day'
p887
I32
sS'romantics'
p888
I36
sS'havin'
p889
I36
sS'lets'
p890
I35
sS'other'
p891
I35
sS'ahhhh'
p892
I36
sS'dare'
p893
I36
sS'before...but'
p894
I36
sS'has'
p895
I35
sS'excited'
p896
I35
sS'homework'
p897
I35
sS"pant's"
p898
I36
sS'real'
p899
I31
sS'customers'
p900
I36
sS'21st'
p901
I36
sS'around'
p902
I35
sS'read'
p903
I35
sS'utah'
p904
I36
sS'lmmfao'
p905
I36
sS'early'
p906
I33
sS'>'
p907
I36
sS'game'
p908
I35
sS'life.\xe2\x80\x9d'
p909
I36
sS'traffic'
p910
I35
sS'know'
p911
I25
sS'mom'
p912
I33
sS'performance'
p913
I36
sS'using'
p914
I36
sS'bit'
p915
I36
sS'lunacy'
p916
I36
sS'dreams'
p917
I35
sS'd'
p918
I35
sS'county'
p919
I36
sS'wbu'
p920
I36
sS'mntn'
p921
I36
sS'like'
p922
I29
sS'lost'
p923
I35
sS'miami'
p924
I36
sS'wingstop'
p925
I35
sS'ring'
p926
I36
sS'huns'
p927
I36
sS'fernando'
p928
I20
sS'manifest'
p929
I36
sS'true'
p930
I36
sS'laughing'
p931
I36
sS'night'
p932
I33
sS'roscoes'
p933
I36
sS'page'
p934
I36
sS'classes'
p935
I36
sS'meeeee'
p936
I36
sS'right'
p937
I32
sS'old'
p938
I35
sS'deal'
p939
I36
sS'people'
p940
I33
sS'fucking'
p941
I35
sS'workd'
p942
I36
sS'twitter'
p943
I35
sS'creation'
p944
I36
sS'magnificent'
p945
I36
sS'back'
p946
I36
sS'emails'
p947
I36
sS'50'
p948
I36
sS'hair'
p949
I35
sS'feed'
p950
I36
sS'donald'
p951
I36
sS'sure'
p952
I36
sS'mirror'
p953
I36
sS'home'
p954
I13
sS'guess'
p955
I36
sS'gonna'
p956
I36
sS'ourselves'
p957
I35
sS'blessed\xe2\x80\xa6'
p958
I36
sS'for'
p959
I17
sS'literally'
p960
I36
sS'interesting.......but'
p961
I36
sS'gimme'
p962
I36
sS'horkoor'
p963
I36
sS'resonate'
p964
I36
sS'everything'
p965
I33
sS'throat'
p966
I36
sS'asking'
p967
I36
sS'exit'
p968
I36
sS'confieso'
p969
I36
sS'harness'
p970
I36
sS'hurt'
p971
I36
sS'adorable'
p972
I36
sS'leader'
p973
I36
sS'victory'
p974
I36
sS'be'
p975
I30
sS'says'
p976
I36
sS'sherman'
p977
I35
sS'run'
p978
I34
sS'cry'
p979
I36
sS'thomas*'
p980
I36
sS'lmfao'
p981
I35
sS'lmaoooo'
p982
I36
sS'nails'
p983
I36
sS'lose'
p984
I36
sS'aj'
p985
I36
sS'blackmail'
p986
I36
sS'cork'
p987
I36
sS'zombie'
p988
I36
sS'darko'
p989
I36
sS'become'
p990
I36
sS'seeing'
p991
I36
sS'valley)'
p992
I20
sS';)'
p993
I36
sS'exciting'
p994
I36
sS'by'
p995
I33
sS'throne'
p996
I34
sS'on'
p997
I18
sS'about'
p998
I29
sS'coast'
p999
I36
sS'would'
p1000
I32
sS'anything'
p1001
I34
sS'oh'
p1002
I34
sS'of'
p1003
I19
sS'uugghhh'
p1004
I36
sS'soulmates'
p1005
I36
sS'label'
p1006
I36
sS'hercules'
p1007
I36
sS'aye'
p1008
I36
sS'swear'
p1009
I34
sS'*is'
p1010
I36
sS'own'
p1011
I36
sS'puppies'
p1012
I36
sS'luck'
p1013
I36
sS'wanna'
p1014
I34
sS'or'
p1015
I32
sS'enter'
p1016
I36
sS'flying'
p1017
I36
sS'ppl'
p1018
I36
sS'virginity'
p1019
I36
sS'ladies'
p1020
I36
sS'acceptance'
p1021
I36
sS'colorado'
p1022
I36
sS'keeps'
p1023
I36
sS'pero'
p1024
I36
sS'into'
p1025
I35
sS'siento'
p1026
I36
sS'"grindin\''
p1027
I36
sS'usa'
p1028
I36
sS'negative'
p1029
I36
sS'down'
p1030
I36
sS'thankful'
p1031
I35
sS'nigga'
p1032
I34
sS'farted'
p1033
I36
sS'mikey'
p1034
I36
sS'oaks'
p1035
I36
sS'wrap'
p1036
I36
sS'colonial'
p1037
I36
sS'lesson'
p1038
I36
sS'your'
p1039
I23
sS'clutch'
p1040
I36
sS'fast'
p1041
I36
sS'brakes'
p1042
I36
sS'her'
p1043
I35
sS'anymore'
p1044
I36
sS'weekend'
p1045
I35
sS'apparently'
p1046
I36
sS'there'
p1047
I34
sS'question'
p1048
I36
sS'live'
p1049
I36
sS'lol'
p1050
I27
sS'gig'
p1051
I36
sS'start'
p1052
I36
sS'workshop'
p1053
I36
sS"we're"
p1054
I36
sS'dodgers'
p1055
I36
sS'everythaaang'
p1056
I36
sS'biggest'
p1057
I36
sS'call'
p1058
I36
sS'valley'
p1059
I36
sS'was'
p1060
I25
sS'war'
p1061
I36
sS'happy'
p1062
I35
sS'medium'
p1063
I36
sS'north'
p1064
I34
sS'complete'
p1065
I36
sS"i've"
p1066
I35
sS'fascination'
p1067
I35
sS'bus'
p1068
I36
sS'bitches'
p1069
I36
sS'won\xe2\x80\x99t'
p1070
I36
sS'but'
p1071
I28
sS'transformed'
p1072
I36
sS'tokyo\xe2\x9c\xa8'
p1073
I36
sS'reminds'
p1074
I36
sS'bmac'
p1075
I36
sS'verda'
p1076
I36
sS'texted'
p1077
I36
sS'bunyan'
p1078
I36
sS'-becca'
p1079
I36
sS'with'
p1080
I20
sS'bud'
p1081
I36
sS'he'
p1082
I28
sS'pull'
p1083
I36
sS'congratulations'
p1084
I36
sS'wish'
p1085
I36
sS'up'
p1086
I29
sS'tho'
p1087
I36
sS'until'
p1088
I34
sS'planet'
p1089
I31
sS'camaro'
p1090
I36
sS'un'
p1091
I36
sS'native'
p1092
I36
sS'idol'
p1093
I36
sS'stressin'
p1094
I36
sS'cake'
p1095
I36
sS'nominations'
p1096
I36
sS'guessin\xe2\x80\x9d'
p1097
I36
sS'called'
p1098
I35
sS'gone'
p1099
I35
sS'videos'
p1100
I36
sS'af'
p1101
I35
sS'humbling'
p1102
I36
sS'youtube'
p1103
I36
sS'year'
p1104
I36
sS'am'
p1105
I36
sS"you've"
p1106
I36
sS'an'
p1107
I35
sS'excuse'
p1108
I36
sS'tengo'
p1109
I35
sS'exist'
p1110
I35
sS'at'
p1111
I11
sS'goodness'
p1112
I36
sS'our'
p1113
I36
sS'some'
p1114
I36
sS'watched'
p1115
I36
sS'annoying'
p1116
I35
sS'yearbook'
p1117
I36
sS'check'
p1118
I35
sS'shit'
p1119
I31
sS'again'
p1120
I35
sS'peter'
p1121
I36
sS'us'
p1122
I36
sS'no'
p1123
I33
sS'dressed'
p1124
I36
sS'peace'
p1125
I36
sS'when'
p1126
I33
sS'beef,91605\n466876767513214976,420godbody,2014-05-15'
p1127
I36
sS'actor'
p1128
I36
sS'(north'
p1129
I29
sS'tooooo'
p1130
I36
sS'(wil/alc'
p1131
I35
sS'5'
p1132
I36
sS'sick'
p1133
I35
sS'u'
p1134
I36
sS'you'
p1135
I8
sS'really'
p1136
I34
sS'tea'
p1137
I36
sS'pills'
p1138
I36
sS'star'
p1139
I36
sS'hey'
p1140
I36
sS'padawans'
p1141
I36
sS'felt'
p1142
I35
sS'rosen'
p1143
I36
sS'intimate'
p1144
I36
sS'stay'
p1145
I36
sS'gifts'
p1146
I35
sS'town'
p1147
I36
sS'evan'
p1148
I36
sS"she's"
p1149
I36
sS'chris'
p1150
I36
sS'crappy'
p1151
I36
sS'friends'
p1152
I35
sS'building'
p1153
I36
sS'\xe2\x80\x93'
p1154
I36
sS'tweeting'
p1155
I36
sS'studio'
p1156
I36
sS'driving'
p1157
I36
sS'bpusa'
p1158
I36
sS'glass'
p1159
I36
sS'pete'
p1160
I36
sS'(san'
p1161
I34
sS'dog'
p1162
I36
sS'holes'
p1163
I36
sS'lasted'
p1164
I36
sS'together'
p1165
I36
sS'dragged'
p1166
I36
sS'texter'
p1167
I36
sS'napoleon'
p1168
I36
sS'tmc'
p1169
I36
sS'time'
p1170
I28
sS'understand'
p1171
I35
sS'songs'
p1172
I36
sS'premier'
p1173
I36
sS'hello'
p1174
I36
sS'life"'
p1175
I36
s.