(dp0
S''
p1
I4
sS'raining'
p2
I96
sS'longer..,91605\n476609430872535040,_arieltp8,2014-06-11'
p3
I96
sS'headband'
p4
I96
sS'sleep'
p5
I50
sS'arminta'
p6
I96
sS'hanging'
p7
I94
sS'tfios'
p8
I96
sS'oldest'
p9
I96
sS'hate'
p10
I59
sS'chili'
p11
I96
sS'mucho'
p12
I96
sS'dehydrated'
p13
I96
sS'swag'
p14
I96
sS'buddy'
p15
I94
sS'paris'
p16
I94
sS'sweetest'
p17
I96
sS'according'
p18
I96
sS'under'
p19
I95
sS'teaching'
p20
I96
sS'sorry'
p21
I92
sS'pride'
p22
I96
sS'worth'
p23
I96
sS'snowman....no'
p24
I96
sS'ampm)'
p25
I96
sS'rise'
p26
I95
sS'connects'
p27
I96
sS'lololol'
p28
I89
sS'every'
p29
I84
sS'jack'
p30
I95
sS'low-key'
p31
I96
sS'smog'
p32
I96
sS'married'
p33
I96
sS'tickets'
p34
I96
sS'school'
p35
I56
sS'suhhhhhh'
p36
I96
sS'wednesday'
p37
I96
sS'ups'
p38
I96
sS'clothes'
p39
I90
sS'enjoy'
p40
I95
sS'esos'
p41
I96
sS'tired'
p42
I86
sS'awake'
p43
I96
sS'real\xe2\x80\xbc\xef\xb8\x8f'
p44
I96
sS'bacon'
p45
I95
sS'shut'
p46
I92
sS'nail'
p47
I96
sS'surrounding'
p48
I96
sS'second'
p49
I95
sS'street'
p50
I96
sS'7th'
p51
I96
sS'cactus'
p52
I96
sS'panda'
p53
I96
sS'shining'
p54
I96
sS'even'
p55
I63
sS'mentally/emotionally'
p56
I96
sS'hide'
p57
I94
sS'christ'
p58
I95
sS'wreck'
p59
I96
sS'ruthless'
p60
I96
sS"should'vei"
p61
I96
sS'cooking'
p62
I95
sS'03:20:59.0,34.210682,-118.383615,1219,my'
p63
I96
sS'bipolar'
p64
I96
sS'above'
p65
I96
sS'nev'
p66
I96
sS'new'
p67
I74
sS'ever'
p68
I85
sS'told'
p69
I89
sS'injections'
p70
I96
sS'saticoy'
p71
I96
sS'pancakes'
p72
I96
sS'never'
p73
I63
sS'suga'
p74
I95
sS'equals'
p75
I96
sS'here'
p76
I87
sS'liddo'
p77
I96
sS'\xe2\x9d\xa4\xef\xb8\x8f'
p78
I92
sS'to.but'
p79
I96
sS"aren't"
p80
I95
sS'106'
p81
I96
sS'patches'
p82
I96
sS'dry'
p83
I96
sS'kids'
p84
I93
sS'underatand'
p85
I96
sS'jams'
p86
I96
sS'study'
p87
I94
sS'changed'
p88
I95
sS'yet,91605\n476882484202708992,_arieltp8,2014-06-12'
p89
I96
sS'ignoring'
p90
I95
sS'itunes'
p91
I96
sS"i'd"
p92
I94
sS'kidd'
p93
I96
sS'dayssss'
p94
I96
sS'stressed'
p95
I94
sS'que'
p96
I95
sS'aka'
p97
I94
sS"someone's"
p98
I96
sS'eyebrows'
p99
I91
sS'resurrected'
p100
I96
sS'magically'
p101
I96
sS'straw'
p102
I96
sS'*orange'
p103
I96
sS'schooling'
p104
I96
sS'eiffel'
p105
I96
sS'feelings'
p106
I96
sS'bro'
p107
I93
sS'qui'
p108
I96
sS'insta'
p109
I96
sS'total'
p110
I95
sS'cresit'
p111
I96
sS'<3'
p112
I91
sS'swings'
p113
I96
sS':\xe2\x80\xa2)'
p114
I96
sS'would'
p115
I79
sS'sweater'
p116
I96
sS'mexico'
p117
I93
sS'arms'
p118
I94
sS'princess'
p119
I96
sS'cali'
p120
I96
sS'call'
p121
I90
sS'calm'
p122
I95
sS'tryin'
p123
I96
sS'type'
p124
I92
sS'tell'
p125
I95
sS'nyquil'
p126
I90
sS'posting'
p127
I96
sS'lungs'
p128
I95
sS'relax'
p129
I96
sS'successful'
p130
I96
sS'oscar'
p131
I96
sS'haha'
p132
I82
sS'hurt'
p133
I90
sS'mathew'
p134
I96
sS'phone'
p135
I87
sS"5'9"
p136
I96
sS'aux'
p137
I96
sS'hole'
p138
I96
sS'hold'
p139
I92
sS'blocking'
p140
I96
sS'must'
p141
I91
sS'shoot'
p142
I96
sS'word'
p143
I95
sS'room'
p144
I81
sS'player'
p145
I96
sS'work'
p146
I51
sS'09:04:57.0,34.2106724,-118.3835085,1219,i'
p147
I96
sS'movies'
p148
I88
sS'cuddle'
p149
I96
sS'llevarte'
p150
I96
sS'guise'
p151
I95
sS'my'
p152
I3
sS'casita'
p153
I96
sS'squirting'
p154
I96
sS'give'
p155
I92
sS'organized'
p156
I96
sS'want'
p157
I21
sS'gordo'
p158
I95
sS'keep'
p159
I85
sS'preferably'
p160
I96
sS'cielo'
p161
I96
sS'end'
p162
I88
sS'turn'
p163
I87
sS'complaining'
p164
I95
sS'travel'
p165
I96
sS'how'
p166
I50
sS'hot'
p167
I79
sS'ig'
p168
I91
sS'aching'
p169
I96
sS'interview'
p170
I94
sS'shakie'
p171
I96
sS'beach'
p172
I94
sS'ronnie'
p173
I96
sS'pizza'
p174
I85
sS'cuticles'
p175
I95
sS'oceans'
p176
I96
sS'aches'
p177
I96
sS'bday'
p178
I93
sS'02:58:06.0,34.2107658,-118.3836707,1219,my'
p179
I96
sS'after'
p180
I79
sS'"disobeying"'
p181
I96
sS'complicated'
p182
I96
sS'wrong'
p183
I92
sS'lay'
p184
I96
sS'biting'
p185
I95
sS'ayyii,91605\n472940846547861504,_arieltp8,2014-06-01'
p186
I96
sS'arco'
p187
I95
sS'lesbian'
p188
I96
sS"they're"
p189
I88
sS'horchata'
p190
I96
sS'?!lmao'
p191
I96
sS'attempt'
p192
I96
sS'choking'
p193
I96
sS'third'
p194
I95
sS'wins'
p195
I96
sS'appreciate'
p196
I93
sS'\xe2\x99\xa1,91605\n475889945966428160,_arieltp8,2014-06-09'
p197
I96
sS'green'
p198
I95
sS'jungle'
p199
I96
sS'goodbye'
p200
I96
sS'keeps'
p201
I95
sS'worst'
p202
I96
sS'first'
p203
I84
sS'wing'
p204
I95
sS'wine'
p205
I96
sS',91605\n428786561635721216,_arieltp8,2014-01-30'
p206
I96
sS'bestie'
p207
I96
sS'deck'
p208
I95
sS'over'
p209
I77
sS'satisfied'
p210
I95
sS'oven'
p211
I96
sS'?!,91605\n471173895286837248,_arieltp8,2014-05-27'
p212
I96
sS'before'
p213
I85
sS'ima'
p214
I93
sS'"only'
p215
I96
sS'fit'
p216
I95
sS'personal'
p217
I96
sS'avocado'
p218
I96
sS'writing'
p219
I96
sS'better'
p220
I86
sS'd\xc3\xadas'
p221
I96
sS'weeks'
p222
I92
sS'belly'
p223
I96
sS'then'
p224
I80
sS'them'
p225
I79
sS'affected'
p226
I96
sS'woken'
p227
I95
sS'combination'
p228
I96
sS'weakness'
p229
I96
sS'workout'
p230
I93
sS"we'll"
p231
I96
sS'break'
p232
I95
sS'twits'
p233
I96
sS'\xe2\x98\xba\xef\xb8\x8f'
p234
I95
sS'internally'
p235
I96
sS'one'
p236
I58
sS'weenie'
p237
I96
sS'bank'
p238
I96
sS"grey's"
p239
I96
sS'grammas'
p240
I96
sS'fails'
p241
I96
sS'zana'
p242
I96
sS'l'
p243
I96
sS'explode'
p244
I94
sS'each'
p245
I93
sS'went'
p246
I82
sS'side'
p247
I92
sS'mean'
p248
I88
sS'signing'
p249
I96
sS'shribz'
p250
I96
sS'used'
p251
I96
sS'forgot'
p252
I90
sS'temporary'
p253
I96
sS'noww'
p254
I96
sS'saturday'
p255
I96
sS'whip'
p256
I96
sS'jell'
p257
I96
sS'rt'
p258
I95
sS'velvet'
p259
I96
sS'driving'
p260
I91
sS'02:01:03.0,34.210679,-118.3834986,1219,lets'
p261
I96
sS'god'
p262
I83
sS'miooo'
p263
I96
sS'\xe2\x99\xa1\xe2\x99\xa1\xe2\x99\xa1'
p264
I96
sS'hooked'
p265
I95
sS'mason'
p266
I96
sS're'
p267
I94
sS'smh'
p268
I89
sS'got'
p269
I54
sS'rn'
p270
I77
sS'disagreements'
p271
I96
sS'foundation'
p272
I96
sS'mcdees'
p273
I96
sS'turning'
p274
I95
sS"doesn't"
p275
I87
sS'fave'
p276
I96
sS'revenge'
p277
I96
sS'free'
p278
I94
sS'"hey'
p279
I96
sS'struggle'
p280
I93
sS'07:06:38.0,34.2107271,-118.3836838,1219,i'
p281
I96
sS'loveeeeeeee'
p282
I96
sS'attention.i'
p283
I96
sS'wanted'
p284
I94
sS'certified'
p285
I96
sS'ate'
p286
I92
sS'starts'
p287
I95
sS'softballs'
p288
I96
sS'days'
p289
I89
sS'00:23:53.0,34.2106793,-118.3835684,1219,my'
p290
I96
sS'soda'
p291
I96
sS'feds'
p292
I96
sS'9pm'
p293
I96
sS'onto'
p294
I96
sS'fuckin'
p295
I93
sS':(,91605\n474437530507415552,_arieltp8,2014-06-05'
p296
I96
sS'already'
p297
I81
sS'dunce'
p298
I96
sS'longgggggg'
p299
I96
sS'hearing'
p300
I94
sS'wash'
p301
I96
sS'another'
p302
I91
sS'thick'
p303
I96
sS'hood'
p304
I96
sS'basketball'
p305
I96
sS'service'
p306
I95
sS'spinach'
p307
I95
sS'top'
p308
I92
sS'engagement'
p309
I96
sS'girls'
p310
I84
sS'mobbin'
p311
I96
sS'needed'
p312
I96
sS'jamba'
p313
I96
sS'master'
p314
I96
sS'too'
p315
I53
sS'tom'
p316
I96
sS'year:what'
p317
I95
sS'hollywood'
p318
I95
sS'john'
p319
I93
sS'dogs'
p320
I94
sS'listen'
p321
I93
sS'gym'
p322
I96
sS'took'
p323
I92
sS'rejected'
p324
I96
sS'21:20:00.0,34.2107198,-118.383526,1219,because'
p325
I96
sS'cereal'
p326
I96
sS'nahh'
p327
I96
sS'wardrobe'
p328
I96
sS'unsaid'
p329
I96
sS',91605\n471104220620279808,_arieltp8,2014-05-27'
p330
I96
sS'"bae'
p331
I96
sS'orgasm'
p332
I96
sS'hike'
p333
I96
sS'deathhhh'
p334
I96
sS'shower'
p335
I91
sS'matter'
p336
I94
sS'\xe2\x99\xa1\xe2\x99\xa1\xe2\x99\xa1\xe2\x99\xa1\xe2\x99\xa1'
p337
I96
sS'speaking'
p338
I96
sS'feeling'
p339
I82
sS'mini'
p340
I94
sS'lbs'
p341
I96
sS'lulz'
p342
I96
sS'sees'
p343
I96
sS'that?"'
p344
I96
sS'ran'
p345
I94
sS'mind'
p346
I90
sS'mine'
p347
I93
sS'talking'
p348
I90
sS'pessimist'
p349
I96
sS'seed'
p350
I96
sS'rar'
p351
I96
sS'rap'
p352
I96
sS'seen'
p353
I94
sS'tells'
p354
I96
sS'emptiness'
p355
I96
sS'smack'
p356
I96
sS'awhile"'
p357
I96
sS'-'
p358
I93
sS'okie'
p359
I96
sS'neverland'
p360
I96
sS'chest'
p361
I93
sS'laughed'
p362
I94
sS'siracha'
p363
I96
sS',91605\n478183506242060288,_arieltp8,2014-06-15'
p364
I96
sS'hatley'
p365
I96
sS'blue'
p366
I96
sS'nobody'
p367
I95
sS'though'
p368
I87
sS'distracts'
p369
I96
sS'doin'
p370
I95
sS'wells'
p371
I95
sS'victoria'
p372
I95
sS'audition'
p373
I96
sS'regular'
p374
I96
sS'mouth'
p375
I96
sS'\xd8\xa8\xd8\xa7\xd9\x84\xd9\x84\xd9\x87\xd8\xac\xd8\xa9'
p376
I96
sS'05:01:50.0,34.2107344,-118.3836602,1219,i'
p377
I96
sS'flamin'
p378
I96
sS'massages'
p379
I96
sS'episode'
p380
I90
sS'treats'
p381
I96
sS'assylum'
p382
I95
sS'clock'
p383
I95
sS'dog'
p384
I76
sS'doe'
p385
I96
sS'freeway'
p386
I95
sS'definitely'
p387
I94
sS'aunt'
p388
I94
sS'anyybodayy'
p389
I96
sS'+'
p390
I96
sS'came'
p391
I93
sS'07:20:05.0,34.210697,-118.3836637,1219,all'
p392
I96
sS'saying'
p393
I95
sS'bomb'
p394
I91
sS'queen'
p395
I95
sS'\xd9\x88\xd8\xa7\xd9\x84\xd8\xa8\xd9\x86\xd8\xa7\xd8\xaa'
p396
I96
sS'sweating'
p397
I96
sS'*tries'
p398
I96
sS'radio'
p399
I95
sS'earth'
p400
I95
sS'speech'
p401
I96
sS'05:00:09.0,34.2107517,-118.3836575,1219,i'
p402
I96
sS'enjoyed'
p403
I96
sS'toast'
p404
I95
sS'tuxedolmaoooo'
p405
I96
sS'busy'
p406
I96
sS'proposed'
p407
I96
sS'movies.,91605\n477618380560539649,_arieltp8,2014-06-14'
p408
I96
sS'cousins'
p409
I96
sS'explain'
p410
I96
sS'acne'
p411
I95
sS"baby's"
p412
I95
sS'theme'
p413
I96
sS'touched'
p414
I96
sS'rich'
p415
I95
sS'chipotle'
p416
I95
sS'rice'
p417
I95
sS'\xd9\x84\xd9\x8a\xd8\xb4'
p418
I96
sS'oct'
p419
I96
sS'wearing'
p420
I90
sS'do'
p421
I36
sS'cappuccino'
p422
I96
sS'sunglasses'
p423
I96
sS'dk'
p424
I96
sS'10'
p425
I96
sS'air'
p426
I96
sS'de'
p427
I94
sS'watch'
p428
I84
sS"mcconaughey's"
p429
I96
sS'legs'
p430
I96
sS'da'
p431
I94
sS'pocket'
p432
I95
sS'shutting'
p433
I96
sS'haunted'
p434
I96
sS'him.priceless'
p435
I96
sS'nasty'
p436
I96
sS'dr'
p437
I96
sS'14'
p438
I96
sS'bar'
p439
I95
sS'pressed'
p440
I96
sS'optimistic'
p441
I96
sS'officially'
p442
I95
sS'skirts'
p443
I96
sS"stallone's"
p444
I96
sS'bay'
p445
I96
sS'twice'
p446
I96
sS'bad'
p447
I67
sS'bae'
p448
I96
sS'shots'
p449
I96
sS'boring'
p450
I96
sS'release'
p451
I96
sS'steak'
p452
I96
sS'yasss'
p453
I96
sS'ears'
p454
I96
sS'headed'
p455
I95
sS"bf's"
p456
I96
sS'.,91605\n472269804284301312,_arieltp8,2014-05-30'
p457
I96
sS'fair'
p458
I93
sS'liquor'
p459
I96
sS'resist'
p460
I96
sS'goodnight'
p461
I96
sS'decided'
p462
I95
sS'fail'
p463
I95
sS'best'
p464
I69
sS'said'
p465
I81
sS'tomorrow!4'
p466
I96
sS'pedicure'
p467
I96
sS'lots'
p468
I96
sS'away'
p469
I86
sS'21:27:13.0,34.2107243,-118.3836293,1219,too'
p470
I96
sS'rings'
p471
I96
sS'mug'
p472
I96
sS"there's"
p473
I95
sS'hopefully'
p474
I95
sS'3:17-19'
p475
I96
sS'lazy'
p476
I93
sS'omg'
p477
I55
sS'poehler'
p478
I96
sS'oragne'
p479
I96
sS'rolled'
p480
I96
sS'weak'
p481
I94
sS'however'
p482
I96
sS'boss'
p483
I95
sS'toothbrush'
p484
I96
sS'wu'
p485
I96
sS'05:58:28.0,34.2107373,-118.3836705,1219,i'
p486
I96
sS'wear'
p487
I84
sS'wtf'
p488
I81
sS'wth'
p489
I94
sS'cousin'
p490
I86
sS'ham'
p491
I96
sS'planner'
p492
I96
sS'met'
p493
I94
sS'ittttt'
p494
I96
sS'ill'
p495
I90
sS'\xd8\xa7\xd9\x84\xd9\x84\xd9\x87\xd9\x85'
p496
I96
sS'games'
p497
I96
sS'asked'
p498
I96
sS'ily'
p499
I93
sS'numbnut'
p500
I96
sS'appeared'
p501
I95
sS'had'
p502
I69
sS'vain'
p503
I96
sS'-american'
p504
I96
sS'2nd'
p505
I96
sS'snores'
p506
I96
sS'springs'
p507
I96
sS'blonde'
p508
I91
sS'trust'
p509
I95
sS'tasted'
p510
I95
sS'bathroom'
p511
I96
sS'tan*'
p512
I96
sS'puts'
p513
I96
sS'"you'
p514
I96
sS'three'
p515
I95
sS'been'
p516
I72
sS'confident'
p517
I96
sS'beer'
p518
I96
sS'much'
p519
I44
sS'chucked'
p520
I95
sS',91605\n477698543746945026,_arieltp8,2014-06-14'
p521
I96
sS'expected'
p522
I96
sS'lovely'
p523
I96
sS'"one'
p524
I96
sS'threw'
p525
I93
sS'website'
p526
I96
sS'obese'
p527
I96
sS'life'
p528
I65
sS'\xe2\x9a\xab\xef\xb8\x8f'
p529
I96
sS'ooooo'
p530
I96
sS'relaxing'
p531
I94
sS'drugs'
p532
I96
sS'sooooo'
p533
I96
sS'irvine'
p534
I95
sS'craft'
p535
I96
sS'chile'
p536
I93
sS'catch'
p537
I96
sS'worked'
p538
I95
sS'haters'
p539
I96
sS'yaaaasss'
p540
I96
sS'chill'
p541
I92
sS'volcom'
p542
I96
sS'goooooodnight'
p543
I96
sS'has'
p544
I75
sS'tank'
p545
I96
sS'cracker'
p546
I96
sS'tastes'
p547
I95
sS'n'
p548
I72
sS'ugly'
p549
I92
sS'near'
p550
I95
sS'suppose'
p551
I95
sS'freezing.,91605\n429373625343295488,_arieltp8,2014-01-31'
p552
I96
sS'cracked'
p553
I96
sS'voice'
p554
I92
sS'k'
p555
I92
sS'chilling'
p556
I96
sS'mistake'
p557
I96
sS'played'
p558
I95
sS'is'
p559
I9
sS'sushi'
p560
I93
sS'krusty'
p561
I96
sS'it'
p562
I14
sS'fakes'
p563
I95
sS'throat'
p564
I95
sS'cant'
p565
I60
sS'dizzy'
p566
I95
sS'im'
p567
I19
sS'creepy'
p568
I96
sS'in'
p569
I8
sS'ia'
p570
I96
sS'march'
p571
I96
sS"girls'"
p572
I96
sS'culiver'
p573
I96
sS'id'
p574
I91
sS'disappear'
p575
I94
sS'if'
p576
I69
sS'pinning'
p577
I96
sS'23:29:34.0,34.2136281,-118.3795955,1219,and'
p578
I96
sS'quand'
p579
I96
sS'things'
p580
I85
sS'make'
p581
I69
sS'forehead'
p582
I95
sS'bottled'
p583
I96
sS'split'
p584
I96
sS'babies'
p585
I96
sS'success'
p586
I96
sS'somebodayy'
p587
I96
sS'couple'
p588
I94
sS'yung'
p589
I96
sS'sacramento'
p590
I95
sS'permit'
p591
I96
sS'hang'
p592
I93
sS'evil'
p593
I95
sS'hand'
p594
I95
sS'graduations'
p595
I96
sS'lol\xe2\x80\x9d'
p596
I96
sS'jealous'
p597
I95
sS"i'm"
p598
I39
sS'thoughts'
p599
I95
sS'kid'
p600
I94
sS'kept'
p601
I96
sS'dishes'
p602
I96
sS'charlie'
p603
I95
sS'tho'
p604
I91
sS'hispanic'
p605
I96
sS'pandora'
p606
I95
sS'mother'
p607
I92
sS'the'
p608
I5
sS'left'
p609
I90
sS"she'll"
p610
I96
sS'mingle'
p611
I96
sS'just'
p612
I15
sS'photo'
p613
I95
sS'nuvo'
p614
I96
sS'sleepy'
p615
I93
sS'unfair'
p616
I96
sS'hillbilly'
p617
I96
sS'thanks'
p618
I94
sS'human'
p619
I96
sS'yes'
p620
I91
sS'provokes'
p621
I96
sS'yet'
p622
I94
sS'hah'
p623
I96
sS'enters'
p624
I96
sS'hills'
p625
I95
sS'practice'
p626
I96
sS'-__-'
p627
I89
sS'12:30'
p628
I96
sS'belongs'
p629
I96
sS'innocent'
p630
I96
sS'save'
p631
I93
sS'hav'
p632
I95
sS'gave'
p633
I95
sS'outf\xc3\xadt'
p634
I96
sS'casually'
p635
I96
sS'possibly'
p636
I96
sS'judge'
p637
I96
sS'chorro'
p638
I96
sS'burns'
p639
I96
sS'korean'
p640
I96
sS"degrassi's"
p641
I96
sS'apart'
p642
I96
sS'shoulder'
p643
I95
sS'brought'
p644
I95
sS'gift'
p645
I96
sS'-_-'
p646
I88
sS'texts'
p647
I94
sS'cooler'
p648
I96
sS'bobby'
p649
I95
sS'alice'
p650
I95
sS'indoors'
p651
I96
sS'steps'
p652
I95
sS'night'
p653
I68
sS'hung'
p654
I96
sS'5evr'
p655
I96
sS'"bae"'
p656
I96
sS'right'
p657
I62
sS'old'
p658
I90
sS'deal'
p659
I93
sS'people'
p660
I70
sS'sends'
p661
I96
sS'creed'
p662
I96
sS'easy'
p663
I96
sS'dead'
p664
I88
sS'50'
p665
I96
sS'born'
p666
I95
sS'tooken'
p667
I96
sS'kbbq'
p668
I95
sS'escape'
p669
I95
sS'dear'
p670
I95
sS'straightening'
p671
I96
sS'finna'
p672
I95
sS'library'
p673
I96
sS'umami'
p674
I96
sS'for'
p675
I28
sS'purple'
p676
I94
sS'/'
p677
I95
sS'creative'
p678
I96
sS'everything'
p679
I75
sS'asking'
p680
I95
sS'\xe2\x99\xa5,91605\n476192288339550208,_arieltp8,2014-06-10'
p681
I96
sS'"wrecking'
p682
I96
sS'umm'
p683
I91
sS'foo'
p684
I94
sS'vinoya'
p685
I96
sS'christmas'
p686
I93
sS'cord'
p687
I96
sS'sherman'
p688
I96
sS'peel'
p689
I96
sS'burn'
p690
I94
sS'plz'
p691
I94
sS'losing'
p692
I96
sS'post'
p693
I92
sS'deletes'
p694
I96
sS'selfie\xe2\x80\x9d'
p695
I96
sS'beta'
p696
I96
sS'o'
p697
I91
sS'dinner'
p698
I94
sS'stoked'
p699
I96
sS'mom.it'
p700
I96
sS'automatically'
p701
I96
sS'whats'
p702
I95
sS'presence'
p703
I95
sS'out!\xe2\x99\xa1'
p704
I96
sS'ahh'
p705
I95
sS'bound'
p706
I94
sS'two'
p707
I90
sS'down'
p708
I86
sS'lies'
p709
I94
sS'extraaa'
p710
I96
sS'uno'
p711
I96
sS'annoyance'
p712
I96
sS'yawn'
p713
I96
sS'spongebob'
p714
I94
sS'saturdayay'
p715
I96
sS'support'
p716
I96
sS'constantly'
p717
I96
sS'fight'
p718
I95
sS'stuck'
p719
I93
sS'way'
p720
I80
sS'wax'
p721
I94
sS'music'
p722
I94
sS'was'
p723
I35
sS'war'
p724
I95
sS'happy'
p725
I79
sS'fork'
p726
I96
sS'starve'
p727
I96
sS'head'
p728
I82
sS'medium'
p729
I96
sS'converse'
p730
I95
sS'cuban'
p731
I96
sS'mhmmm'
p732
I96
sS'failure'
p733
I96
sS'heat'
p734
I96
sS'uncle'
p735
I95
sS'fgts'
p736
I96
sS'true'
p737
I92
sS'kohls'
p738
I95
sS'inside'
p739
I96
sS'attached'
p740
I95
sS'r.i.p'
p741
I96
sS'decorate'
p742
I96
sS'usher'
p743
I96
sS'daddy'
p744
I96
sS'delete'
p745
I96
sS'breathe'
p746
I96
sS'later'
p747
I96
sS'hotter'
p748
I96
sS'pimples'
p749
I95
sS'(miskine)'
p750
I96
sS'stronger'
p751
I96
sS'poolside'
p752
I96
sS'21:58:33.0,34.2106608,-118.3833916,1219,i'
p753
I96
sS'drive'
p754
I93
sS'guessed'
p755
I96
sS'prayes'
p756
I96
sS'annoying'
p757
I80
sS'check'
p758
I94
sS'shit'
p759
I62
sS'physical'
p760
I95
sS'laughing...lmao'
p761
I96
sS'holy'
p762
I95
sS'dying'
p763
I89
sS'floor'
p764
I94
sS'na'
p765
I96
sS'commercials'
p766
I96
sS'when'
p767
I41
sS'reality'
p768
I94
sS'ny'
p769
I96
sS'tio'
p770
I96
sS'role'
p771
I96
sS'holding'
p772
I95
sS'test'
p773
I96
sS'smell'
p774
I96
sS'waxed'
p775
I96
sS'picture'
p776
I92
sS"'s"
p777
I96
sS'brothers'
p778
I96
sS'shiiiiit'
p779
I96
sS'felt'
p780
I96
sS'coronas'
p781
I96
sS'outreach'
p782
I96
sS"let's"
p783
I95
sS'fell'
p784
I92
sS'smelling'
p785
I96
sS'pierced'
p786
I96
sS'weekend'
p787
I90
sS'died'
p788
I96
sS'babysitting'
p789
I96
sS'nxt'
p790
I96
sS'younger'
p791
I96
sS'faster'
p792
I96
sS'potato'
p793
I96
sS'mindso'
p794
I96
sS'together'
p795
I91
sS'loyal'
p796
I96
sS'teeth'
p797
I95
sS'nances'
p798
I96
sS'serious'
p799
I96
sS'crazyyy'
p800
I96
sS'decision'
p801
I96
sS':)('
p802
I92
sS'songs'
p803
I92
sS'neighbors'
p804
I96
sS':/'
p805
I87
sS':('
p806
I53
sS':)'
p807
I49
sS'ron'
p808
I96
sS'whoever'
p809
I95
sS'dance'
p810
I96
sS'14:33:26.0,34.2107508,-118.3836595,1219,i'
p811
I96
sS'manager'
p812
I96
sS'ice'
p813
I94
sS'grateful'
p814
I96
sS'skin'
p815
I95
sS'battle'
p816
I96
sS'anticipation'
p817
I96
sS'weezing'
p818
I96
sS'system'
p819
I96
sS'looost'
p820
I95
sS'flash'
p821
I96
sS'father'
p822
I96
sS'disgusting'
p823
I96
sS'thighs'
p824
I96
sS'yathese'
p825
I96
sS'finally'
p826
I88
sS'negativity'
p827
I96
sS'ohala'
p828
I96
sS'lmaoo'
p829
I95
sS'fa\xc3\xa7on'
p830
I96
sS'suffered'
p831
I96
sS'tomorrow!,91605\n475517641272991744,_arieltp8,2014-06-08'
p832
I96
sS'me'
p833
I11
sS':o'
p834
I95
sS'degrassi'
p835
I96
sS':d'
p836
I91
sS'espa\xc3\xb1ol'
p837
I96
sS"tyler's"
p838
I96
sS'choice'
p839
I96
sS':|'
p840
I96
sS'gloomy'
p841
I96
sS'stays'
p842
I95
sS'cook'
p843
I96
sS'ma'
p844
I91
sS'blast'
p845
I96
sS'exact'
p846
I95
sS'minute'
p847
I94
sS'cool'
p848
I91
sS'did'
p849
I77
sS'die'
p850
I92
sS'fragile'
p851
I95
sS'posts'
p852
I96
sS'brother'
p853
I92
sS'gum'
p854
I96
sS'leave'
p855
I88
sS'p'
p856
I95
sS'soooo'
p857
I95
sS'subway'
p858
I96
sS'team'
p859
I94
sS'quick'
p860
I95
sS'guy'
p861
I94
sS'dip'
p862
I92
sS'yall'
p863
I96
sS'dis'
p864
I93
sS'shave'
p865
I94
sS'bleed'
p866
I96
sS'brave'
p867
I96
sS'says'
p868
I92
sS'regret'
p869
I95
sS'liquor)'
p870
I96
sS'sign'
p871
I96
sS'shirts'
p872
I95
sS'prom'
p873
I96
sS'\xee\x90\x95'
p874
I96
sS'run'
p875
I95
sS'pedo'
p876
I96
sS'fear'
p877
I96
sS'drinks'
p878
I96
sS'stressful'
p879
I94
sS'appear'
p880
I96
sS'hazel'
p881
I96
sS'uniform'
p882
I96
sS'goes'
p883
I93
sS'reply'
p884
I96
sS'falling'
p885
I96
sS'sweaters'
p886
I96
sS'satisfy'
p887
I95
sS'angelina'
p888
I96
sS'transportation'
p889
I96
sS'oldies'
p890
I96
sS'hairs'
p891
I96
sS'v'
p892
I96
sS'ovoxo'
p893
I96
sS'french'
p894
I95
sS'understanding'
p895
I95
sS'water'
p896
I93
sS'snack'
p897
I96
sS'baseball'
p898
I96
sS'alone'
p899
I89
sS'along'
p900
I95
sS'earthquake'
p901
I96
sS'change'
p902
I89
sS'wait'
p903
I81
sS'box'
p904
I94
sS'boy'
p905
I96
sS'dusty'
p906
I96
sS'shift'
p907
I95
sS'jay'
p908
I96
sS'guilty'
p909
I95
sS'lakers'
p910
I96
sS'bow'
p911
I96
sS'bangs'
p912
I92
sS'cinnamon'
p913
I95
sS'boo'
p914
I96
sS'usually'
p915
I96
sS'weird'
p916
I83
sS'twitpic'
p917
I96
sS'bruised'
p918
I96
sS'massage'
p919
I95
sS'teenage'
p920
I96
sS'love'
p921
I40
sS'hiking'
p922
I95
sS'06:38:26.0,34.2107128,-118.3836343,1219,im'
p923
I96
sS'giva'
p924
I96
sS'suicides'
p925
I96
sS'whycantisleep'
p926
I96
sS'stingy'
p927
I96
sS'transplant'
p928
I96
sS'everybody'
p929
I94
sS'perf'
p930
I96
sS'working'
p931
I93
sS'prove'
p932
I96
sS'aye'
p933
I96
sS'angry'
p934
I96
sS'pooped'
p935
I96
sS'dude'
p936
I89
sS'anymore,91605\n473002353570770944,_arieltp8,2014-06-01'
p937
I96
sS'live'
p938
I89
sS'everything..im'
p939
I96
sS'msk'
p940
I96
sS'ahhh'
p941
I96
sS'thru'
p942
I95
sS'today'
p943
I55
sS'suckas'
p944
I96
sS'ummm'
p945
I96
sS'06:24:21.0,34.2107334,-118.3836987,1219,my'
p946
I96
sS'chocolate'
p947
I93
sS'everywhere'
p948
I96
sS'ya!,91605\n475874833780056064,_arieltp8,2014-06-09'
p949
I96
sS'fly'
p950
I93
sS'anything'
p951
I82
sS'niggas'
p952
I96
sS'car'
p953
I91
sS'cap'
p954
I95
sS'soul'
p955
I95
sS'inflamed'
p956
I96
sS'believes'
p957
I96
sS'purge'
p958
I94
sS'soup'
p959
I95
sS'can'
p960
I47
sS'slowness'
p961
I96
sS'pussyshit'
p962
I96
sS'20:41:22.0,34.210711,-118.383602,1219,just'
p963
I96
sS'making'
p964
I90
sS"denny's"
p965
I95
sS'heart'
p966
I90
sS'crazy'
p967
I93
sS'07:10:29.0,34.2107271,-118.3836838,1219,i'
p968
I96
sS'grouchy'
p969
I96
sS'-_-,91605\n428089650888966144,_arieltp8,2014-01-28'
p970
I96
sS'december'
p971
I95
sS'awesome'
p972
I95
sS"didn't"
p973
I87
sS'fuck'
p974
I71
sS'\xee\x80\x9d\xee\x81\x8c\xee\x8c\xae\xee\x8c\xafi'
p975
I96
sS'heard'
p976
I94
sS'burbank'
p977
I93
sS'feom'
p978
I96
sS'cardio'
p979
I96
sS'greeeat'
p980
I96
sS'pink'
p981
I96
sS'drama'
p982
I96
sS'productive'
p983
I96
sS'\xd9\x87\xd9\x87\xd9\x87\xd9\x87'
p984
I96
sS'gayaf'
p985
I96
sS'watching'
p986
I67
sS'poking'
p987
I96
sS'1'
p988
I89
sS'till'
p989
I88
sS'sunday'
p990
I93
sS'pins'
p991
I94
sS'speaks'
p992
I96
sS'photography'
p993
I96
sS'urth'
p994
I96
sS'staying'
p995
I93
sS'laundry'
p996
I96
sS'huge'
p997
I96
sS'may'
p998
I93
sS'8-12'
p999
I96
sS'sacrifice'
p1000
I96
sS'spot'
p1001
I95
sS'lucky'
p1002
I96
sS'membership'
p1003
I96
sS'birthday'
p1004
I90
sS'mad'
p1005
I83
sS'such'
p1006
I81
sS'suck'
p1007
I95
sS'guys'
p1008
I84
sS'grow'
p1009
I94
sS'man'
p1010
I85
sS'stress'
p1011
I96
sS'stuuupid'
p1012
I96
sS'crepe'
p1013
I96
sS'neck'
p1014
I91
sS'maybe'
p1015
I90
sS'trumpets'
p1016
I96
sS'rollin'
p1017
I96
sS'provide'
p1018
I96
sS'cannot'
p1019
I96
sS'so'
p1020
I7
sS'silence'
p1021
I96
sS'sm'
p1022
I96
sS'swollen'
p1023
I96
sS'tall'
p1024
I96
sS'talk'
p1025
I90
sS'cute'
p1026
I88
sS'acts'
p1027
I96
sS'126'
p1028
I96
sS'pointed'
p1029
I96
sS'haircut'
p1030
I96
sS'wishing'
p1031
I96
sS'years'
p1032
I91
sS'brain'
p1033
I94
sS'shake'
p1034
I95
sS'cold'
p1035
I87
sS'still'
p1036
I69
sS'worship'
p1037
I94
sS"walter's"
p1038
I96
sS'group'
p1039
I96
sS'thank'
p1040
I88
sS"he's"
p1041
I90
sS'smoothie'
p1042
I96
sS'interesting'
p1043
I93
sS'birthdays'
p1044
I96
sS'amazing'
p1045
I90
sS"he'd"
p1046
I96
sS'suffocate'
p1047
I96
sS'mail'
p1048
I96
sS'main'
p1049
I96
sS'prisoners'
p1050
I96
sS'texas'
p1051
I96
sS'happened'
p1052
I94
sS'nom'
p1053
I95
sS'non'
p1054
I96
sS'episode"'
p1055
I96
sS'matches'
p1056
I95
sS'pushover'
p1057
I96
sS'nation'
p1058
I96
sS'lunch'
p1059
I96
sS'drilling'
p1060
I96
sS'half'
p1061
I95
sS'not'
p1062
I33
sS'dormir'
p1063
I96
sS'now'
p1064
I37
sS',91605\n472933162549403649,_arieltp8,2014-06-01'
p1065
I96
sS'bullshit'
p1066
I93
sS'wont'
p1067
I94
sS'term'
p1068
I96
sS'shouted'
p1069
I96
sS'name'
p1070
I92
sS'debating'
p1071
I95
sS'careless'
p1072
I96
sS'rock'
p1073
I93
sS'hoy'
p1074
I96
sS'em'
p1075
I94
sS'en'
p1076
I96
sS'lowkey'
p1077
I94
sS'23:47:08.0,34.2107217,-118.3836147,1219,practiced'
p1078
I96
sS'yeah'
p1079
I93
sS'ex'
p1080
I96
sS'year'
p1081
I85
sS'gtfo'
p1082
I95
sS'girl'
p1083
I85
sS'worried'
p1084
I95
sS'ep'
p1085
I96
sS'es'
p1086
I96
sS'tried'
p1087
I96
sS'living'
p1088
I93
sS'3rd'
p1089
I96
sS'space'
p1090
I95
sS'irony'
p1091
I96
sS'sunburnt'
p1092
I96
sS'squared'
p1093
I96
sS'looking'
p1094
I88
sS'seriously'
p1095
I84
sS'opener'
p1096
I96
sS"shouldn't"
p1097
I92
sS'internet'
p1098
I96
sS'shows'
p1099
I96
sS'up,91605\n477966712273256449,_arieltp8,2014-06-15'
p1100
I96
sS'goth'
p1101
I96
sS'earlier'
p1102
I94
sS'monster'
p1103
I95
sS'million'
p1104
I95
sS'country/city'
p1105
I96
sS'dokie'
p1106
I96
sS'cart'
p1107
I96
sS'reshuffle'
p1108
I96
sS'california'
p1109
I94
sS'brownand'
p1110
I96
sS'gots'
p1111
I95
sS'cough'
p1112
I95
sS'card'
p1113
I95
sS'care'
p1114
I87
sS'training'
p1115
I96
sS'yup'
p1116
I96
sS'honest'
p1117
I96
sS'thing'
p1118
I91
sS'place'
p1119
I93
sS'massive'
p1120
I96
sS'mhmmmmmm'
p1121
I96
sS'preach'
p1122
I96
sS'think'
p1123
I71
sS'1000'
p1124
I95
sS"dr's"
p1125
I96
sS'mexicanos'
p1126
I96
sS'anymore"'
p1127
I96
sS'softball'
p1128
I96
sS'yourself'
p1129
I93
sS'long'
p1130
I88
sS'spanish'
p1131
I96
sS'carry'
p1132
I96
sS'impossible'
p1133
I96
sS'sounds'
p1134
I94
sS'open'
p1135
I93
sS'tomorrow'
p1136
I75
sS'size'
p1137
I96
sS'city'
p1138
I94
sS'little'
p1139
I81
sS'law'
p1140
I96
sS'checked'
p1141
I96
sS"valentine's"
p1142
I95
sS'bite'
p1143
I96
sS'slept'
p1144
I94
sS'anyone'
p1145
I91
sS'hummm'
p1146
I96
sS'fml'
p1147
I95
sS'2'
p1148
I89
sS'begotten'
p1149
I96
sS'las'
p1150
I96
sS'national'
p1151
I96
sS'friend'
p1152
I86
sS'gives'
p1153
I93
sS'meme'
p1154
I96
sS'eyes'
p1155
I95
sS'hug'
p1156
I95
sS'that'
p1157
I25
sS',91605\n429375029038444544,_arieltp8,2014-01-31'
p1158
I96
sS'season'
p1159
I96
sS'bruh'
p1160
I96
sS'boba'
p1161
I91
sS'hut'
p1162
I95
sS'dudes'
p1163
I96
sS'ridiculous'
p1164
I92
sS'butt'
p1165
I95
sS'thai'
p1166
I94
sS'flowers'
p1167
I95
sS'than'
p1168
I83
sS'shitim'
p1169
I96
sS'boyfriend'
p1170
I96
sS'11'
p1171
I96
sS'$15'
p1172
I95
sS'ratchets'
p1173
I96
sS'12'
p1174
I95
sS'$10'
p1175
I96
sS'lmao'
p1176
I84
sS'18'
p1177
I96
sS'gotta'
p1178
I89
sS'optimism'
p1179
I96
sS'r'
p1180
I88
sS'were'
p1181
I92
sS'cards'
p1182
I96
sS'1924'
p1183
I96
sS'janitor'
p1184
I96
sS'and'
p1185
I10
sS'san'
p1186
I94
sS'angel'
p1187
I96
sS'birria'
p1188
I96
sS'argument'
p1189
I96
sS'notebook'
p1190
I96
sS'sad'
p1191
I85
sS'meyer'
p1192
I96
sS'nathaniel'
p1193
I96
sS'say'
p1194
I83
sS'anger'
p1195
I95
sS'breakfast'
p1196
I91
sS'saw'
p1197
I94
sS'any'
p1198
I89
sS'babysis'
p1199
I96
sS'speakers'
p1200
I96
sS'bailed'
p1201
I96
sS'annoyment'
p1202
I96
sS'sleep.forever'
p1203
I96
sS'ideas'
p1204
I95
sS'hookah'
p1205
I96
sS'take'
p1206
I74
sS'online'
p1207
I96
sS'wanting'
p1208
I92
sS'strengths'
p1209
I96
sS'blunt'
p1210
I96
sS'channel'
p1211
I96
sS'yipee'
p1212
I96
sS'bitching'
p1213
I96
sS'sure'
p1214
I94
sS'pain'
p1215
I84
sS'normal'
p1216
I96
sS'arguing'
p1217
I96
sS'cheesecake'
p1218
I96
sS'knew'
p1219
I95
sS'03:37:13.0,34.2106532,-118.3834792,1219,finally'
p1220
I96
sS'paid'
p1221
I94
sS'boiling'
p1222
I96
sS'donation'
p1223
I96
sS'fck'
p1224
I89
sS'afternoon"'
p1225
I96
sS'pages'
p1226
I96
sS'07:07:37.0,34.2106878,-118.383521,1219,i'
p1227
I96
sS'queens'
p1228
I96
sS'forever'
p1229
I87
sS'07:44:02.0,34.2107368,-118.3835509,1219,strawberries'
p1230
I96
sS'especially'
p1231
I93
sS'cloth'
p1232
I96
sS'egg'
p1233
I96
sS'proud'
p1234
I96
sS'hungry'
p1235
I88
sS'order'
p1236
I96
sS'crooked'
p1237
I96
sS'oily'
p1238
I96
sS'carpooling'
p1239
I96
sS'hear'
p1240
I90
sS'senior'
p1241
I96
sS'salt'
p1242
I95
sS'shop'
p1243
I96
sS'walking'
p1244
I95
sS'shot'
p1245
I93
sS'show'
p1246
I90
sS'cornea'
p1247
I96
sS'single,91352\n495683004698611712,chuloooo_,2014-08-02'
p1248
I96
sS'volunteer'
p1249
I96
sS'shoe'
p1250
I96
sS'right"\xe2\x80\x9d'
p1251
I96
sS'nujabes'
p1252
I95
sS'takin'
p1253
I96
sS'aint'
p1254
I93
sS'\xe2\x9c\x8c'
p1255
I92
sS'slow'
p1256
I95
sS'ilyyyy'
p1257
I96
sS'\xe2\x9c\x8b'
p1258
I96
sS'daily'
p1259
I96
sS'3'
p1260
I88
sS'either'
p1261
I93
sS'only'
p1262
I79
sS'going'
p1263
I53
sS'black'
p1264
I88
sS'ouchh'
p1265
I96
sS'.for'
p1266
I96
sS'\xe2\x9c\x94'
p1267
I95
sS'posted'
p1268
I96
sS's.u.b'
p1269
I96
sS'tock'
p1270
I95
sS'get'
p1271
I31
sS'freezing'
p1272
I95
sS'truly'
p1273
I96
sS'draggggg'
p1274
I96
sS'guuuuuuuud'
p1275
I96
sS'lighter'
p1276
I96
sS'dye'
p1277
I89
sS'celebrate'
p1278
I96
sS'freaking'
p1279
I96
sS'held'
p1280
I96
sS'morning'
p1281
I84
sS":')"
p1282
I96
sS'stupid'
p1283
I88
sS"could've"
p1284
I96
sS'scott'
p1285
I95
sS'pants'
p1286
I96
sS'where'
p1287
I78
sS'worrying'
p1288
I96
sS'yourself\xe2\x80\x9d'
p1289
I96
sS'medicated'
p1290
I96
sS'picnic'
p1291
I96
sS'concert'
p1292
I94
sS'physically'
p1293
I94
sS"hasn't"
p1294
I96
sS'asleep'
p1295
I92
sS'taste'
p1296
I96
sS'hoes'
p1297
I95
sS'explosive'
p1298
I96
sS'calendar'
p1299
I95
sS'mcdonalds'
p1300
I96
sS'wonder'
p1301
I95
sS'clips'
p1302
I96
sS'dexter'
p1303
I95
sS'\xd9\x8a\xd9\x82\xd9\x84\xd8\xa8\xd9\x88\xd8\xa7'
p1304
I96
sS'camping'
p1305
I96
sS'24/7'
p1306
I96
sS'outside'
p1307
I93
sS'ink'
p1308
I96
sS'sugadig'
p1309
I96
sS'affecting'
p1310
I96
sS'reading'
p1311
I94
sS'chip/m&ms'
p1312
I96
sS'jobs'
p1313
I96
sS'mexicans'
p1314
I96
sS'bump'
p1315
I96
sS'blame'
p1316
I94
sS'concentrate'
p1317
I96
sS'whisperer'
p1318
I96
sS'hurts'
p1319
I83
sS'coma'
p1320
I96
sS'come'
p1321
I85
sS'soreness'
p1322
I96
sS'surtout'
p1323
I96
sS'guitar'
p1324
I96
sS'cramp'
p1325
I96
sS'faggit'
p1326
I96
sS'many'
p1327
I89
sS'stupidest'
p1328
I96
sS'me.so'
p1329
I96
sS'1:30'
p1330
I96
sS'quiet'
p1331
I96
sS'lashes'
p1332
I96
sS'cole'
p1333
I96
sS'tour'
p1334
I95
sS'omyfuck'
p1335
I96
sS'a.m.,91605\n429158115670368256,_arieltp8,2014-01-31'
p1336
I96
sS'mang'
p1337
I96
sS'awkward'
p1338
I96
sS"can't"
p1339
I76
sS'nah."'
p1340
I96
sS'madness'
p1341
I96
sS'cancer'
p1342
I96
sS'passenger'
p1343
I96
sS'color'
p1344
I93
sS'jk'
p1345
I96
sS'jeans'
p1346
I95
sS'period'
p1347
I96
sS'nooooo'
p1348
I96
sS'twin'
p1349
I96
sS"couldn't"
p1350
I94
sS'cancel'
p1351
I96
sS'ordered'
p1352
I96
sS'06:31:02.0,34.2107225,-118.3836275,1219,why'
p1353
I96
sS'cramps'
p1354
I96
sS'arts'
p1355
I95
sS'stuburn'
p1356
I96
sS'vacation'
p1357
I96
sS'wants'
p1358
I92
sS'22:00:24.0,34.2106781,-118.3834905,1219,im'
p1359
I96
sS'shopping'
p1360
I93
sS'robbed'
p1361
I96
sS'coughing'
p1362
I96
sS'blessing'
p1363
I96
sS'chillll'
p1364
I96
sS'photos'
p1365
I96
sS'wake'
p1366
I86
sS'careful'
p1367
I96
sS'04:47:43.0,34.2106804,-118.3836398,1219,when'
p1368
I96
sS'3:16'
p1369
I96
sS'those'
p1370
I94
sS'sound'
p1371
I93
sS'myself'
p1372
I77
sS'soccer'
p1373
I94
sS'faglicia'
p1374
I96
sS'these'
p1375
I82
sS'sauce'
p1376
I95
sS'straighten'
p1377
I96
sS'ratchet'
p1378
I96
sS'coco'
p1379
I94
sS'slippers'
p1380
I96
sS'ive'
p1381
I92
sS'showered'
p1382
I96
sS'darko'
p1383
I96
sS'04:09:54.0,34.2107444,-118.3836455,1219,idk'
p1384
I96
sS'rubbing'
p1385
I96
sS'purse'
p1386
I95
sS'coffee'
p1387
I93
sS'sleeping'
p1388
I87
sS'pinky'
p1389
I95
sS'blah'
p1390
I94
sS'someone'
p1391
I75
sS'embrace'
p1392
I96
sS'contract'
p1393
I96
sS'melolengo'
p1394
I96
sS'everyday'
p1395
I90
sS'worry'
p1396
I96
sS'different'
p1397
I94
sS'williams'
p1398
I96
sS'thrones'
p1399
I96
sS'pay'
p1400
I95
sS'bowl'
p1401
I95
sS's'
p1402
I95
sS'same'
p1403
I90
sS'trip'
p1404
I91
sS'gentlemen'
p1405
I96
sS'ya'
p1406
I93
sS'followers'
p1407
I96
sS'catfish'
p1408
I92
sS'struggling'
p1409
I96
sS'thee'
p1410
I96
sS'week'
p1411
I86
sS'you..."'
p1412
I96
sS'barefoot'
p1413
I96
sS'duckies'
p1414
I96
sS'drives'
p1415
I96
sS'runny'
p1416
I96
sS'cheers'
p1417
I96
sS'running'
p1418
I96
sS'deff'
p1419
I96
sS'extern'
p1420
I96
sS'lemon'
p1421
I96
sS'tapatio'
p1422
I95
sS'totally'
p1423
I96
sS'clogged'
p1424
I96
sS'mentally'
p1425
I94
sS'\xe2\x9c\x8c\xef\xb8\x8f'
p1426
I96
sS'drain'
p1427
I96
sS'burrito'
p1428
I94
sS'charger'
p1429
I96
sS'no'
p1430
I45
sS'nothin'
p1431
I96
sS'without'
p1432
I83
sS'comes'
p1433
I93
sS'bottle'
p1434
I95
sS'enpanisado'
p1435
I96
sS'bodies'
p1436
I96
sS"you've"
p1437
I93
sS'summer'
p1438
I90
sS'they'
p1439
I63
sS'scarred'
p1440
I96
sS'being'
p1441
I70
sS'money'
p1442
I89
sS'rest'
p1443
I95
sS'pissing'
p1444
I96
sS'kill'
p1445
I93
sS'cornered'
p1446
I96
sS'flavor'
p1447
I96
sS"dm's"
p1448
I96
sS'\xd9\x82\xd8\xa7\xd8\xb9\xd8\xaf'
p1449
I96
sS'blow'
p1450
I96
sS'blonder'
p1451
I96
sS'death'
p1452
I95
sS'grounded'
p1453
I95
sS'thinking'
p1454
I89
sS"everyone's"
p1455
I96
sS'seems'
p1456
I93
sS'sleeeeeeep'
p1457
I96
sS'bledards'
p1458
I96
sS'lets'
p1459
I93
sS'04:16:43.0,34.2106653,-118.3834942,1219,i'
p1460
I96
sS'ahhhh'
p1461
I95
sS'4'
p1462
I90
sS'ew.,91605\n428743551472525312,_arieltp8,2014-01-30'
p1463
I96
sS"tiffany's"
p1464
I96
sS'tuesday'
p1465
I96
sS'real'
p1466
I89
sS'starving'
p1467
I95
sS'around'
p1468
I94
sS'ayyiii'
p1469
I96
sS'cuando'
p1470
I96
sS'3.67'
p1471
I96
sS'gonna'
p1472
I81
sS'dark'
p1473
I93
sS'mom'
p1474
I71
sS'world'
p1475
I88
sS'blankets'
p1476
I95
sS'lol,91605\n472483045400793088,_arieltp8,2014-05-30'
p1477
I96
sS'rocky'
p1478
I96
sS'monday.,91605\n471178939562754048,_arieltp8,2014-05-27'
p1479
I96
sS'unpatient'
p1480
I96
sS'pounds'
p1481
I96
sS'pregnant'
p1482
I96
sS'bracelet'
p1483
I96
sS't'
p1484
I94
sS'view'
p1485
I96
sS'served'
p1486
I96
sS'tower'
p1487
I96
sS'clap'
p1488
I96
sS'depend'
p1489
I96
sS'learning'
p1490
I96
sS'doll'
p1491
I96
sS'ewww'
p1492
I96
sS'erase'
p1493
I96
sS":'),91605\n473656233526706177,_arieltp8,2014-06-03"
p1494
I96
sS';d'
p1495
I95
sS'snoring'
p1496
I96
sS'thinks'
p1497
I95
sS'outs'
p1498
I95
sS'mood'
p1499
I88
sS'06:54:11.0,34.2107645,-118.3836595,1219,i'
p1500
I96
sS'tube'
p1501
I96
sS'hepatitis'
p1502
I96
sS'moon'
p1503
I95
sS'06:18:37.0,34.2106813,-118.3836111,1219,craving'
p1504
I96
sS'day!,91605\n428455268418977793,_arieltp8,2014-01-29'
p1505
I96
sS'doggy'
p1506
I96
sS'saftey'
p1507
I96
sS'welcome'
p1508
I96
sS'business'
p1509
I94
sS'asap'
p1510
I90
sS'seconds'
p1511
I96
sS'nails'
p1512
I92
sS'cringing'
p1513
I95
sS'unusual'
p1514
I96
sS'broken'
p1515
I96
sS';)'
p1516
I93
sS'exciting'
p1517
I95
sS'throw'
p1518
I91
sS'on'
p1519
I17
sS'stone'
p1520
I96
sS'ok'
p1521
I89
sS'oh'
p1522
I86
sS'of'
p1523
I13
sS'plans.,91605\n476224166631178242,_arieltp8,2014-06-10'
p1524
I96
sS'favorite'
p1525
I90
sS'minnnnddddd'
p1526
I96
sS'shrimp'
p1527
I96
sS'act'
p1528
I95
sS'02:50:27.0,34.210715,-118.3836254,1219,going'
p1529
I96
sS'jeremypassion'
p1530
I96
sS'or'
p1531
I69
sS'road'
p1532
I96
sS'ladies'
p1533
I96
sS'licensed'
p1534
I96
sS'blessed'
p1535
I96
sS'snapchat'
p1536
I93
sS'2\xe2\x83\xa3day'
p1537
I96
sS'yas'
p1538
I96
sS'homeless'
p1539
I96
sS'dreaming'
p1540
I96
sS'annoys'
p1541
I95
sS'freaken'
p1542
I95
sS'your'
p1543
I57
sS'mental'
p1544
I96
sS'performing'
p1545
I96
sS'mums'
p1546
I96
sS'her'
p1547
I73
sS'hes'
p1548
I96
sS'removing'
p1549
I96
sS'there'
p1550
I82
sS'hey'
p1551
I96
sS'lol'
p1552
I43
sS'start'
p1553
I89
sS'pasadena'
p1554
I96
sS'low'
p1555
I92
sS'lot'
p1556
I87
sS'valley'
p1557
I96
sS'(innout)'
p1558
I96
sS'22:05:10.0,34.2107091,-118.3836497,1219,day'
p1559
I96
sS'mornings'
p1560
I95
sS'enough'
p1561
I88
sS'desicion'
p1562
I96
sS'eyeliner'
p1563
I94
sS'jus'
p1564
I93
sS'4lyf'
p1565
I96
sS'gorj'
p1566
I96
sS'trying'
p1567
I88
sS'with'
p1568
I27
sS'khloe'
p1569
I96
sS'longer'
p1570
I96
sS'pull'
p1571
I94
sS'parnets'
p1572
I96
sS'october'
p1573
I96
sS"wasn't"
p1574
I94
sS'strawberry'
p1575
I96
sS'miguel'
p1576
I96
sS'bbq'
p1577
I96
sS'chapped'
p1578
I96
sS'agree'
p1579
I95
sS'gone'
p1580
I89
sS'ab'
p1581
I96
sS'ohh'
p1582
I96
sS'videos'
p1583
I93
sS'af'
p1584
I89
sS'exhausted'
p1585
I93
sS'certain'
p1586
I96
sS'am'
p1587
I52
sS'al'
p1588
I95
sS'deep'
p1589
I95
sS'an'
p1590
I69
sS'as'
p1591
I76
sS'shldve'
p1592
I96
sS'at'
p1593
I32
sS'girlfriend'
p1594
I95
sS'watched'
p1595
I93
sS'hospitals'
p1596
I96
sS'akinator'
p1597
I96
sS'cream'
p1598
I95
sS'again'
p1599
I80
sS'yoga'
p1600
I96
sS'goddam'
p1601
I96
sS'deserve'
p1602
I95
sS"helen's"
p1603
I96
sS'graduate'
p1604
I94
sS'tight'
p1605
I96
sS'5'
p1606
I95
sS'you'
p1607
I12
sS'poor'
p1608
I95
sS'obsessed'
p1609
I95
sS'separate'
p1610
I96
sS'time'
p1611
I49
sS'gifts'
p1612
I95
sS'walker'
p1613
I96
sS'important'
p1614
I96
sS'06:26:22.0,34.2107276,-118.3837077,1219,i'
p1615
I96
sS'fresh'
p1616
I96
sS'chris'
p1617
I96
sS'diabla'
p1618
I96
sS'sneeze'
p1619
I96
sS'pool'
p1620
I96
sS'alcohol'
p1621
I96
sS'assassins'
p1622
I96
sS'this.,91605\n474812959877652480,_arieltp8,2014-06-06'
p1623
I96
sS'calls'
p1624
I96
sS'antwon'
p1625
I96
sS'invest'
p1626
I96
sS'wets'
p1627
I95
sS'>:|,91605\n473222091072749568,_arieltp8,2014-06-01'
p1628
I96
sS'vines'
p1629
I95
sS'having'
p1630
I86
sS'u'
p1631
I67
sS'alright'
p1632
I95
sS'cpr'
p1633
I95
sS'ensenada'
p1634
I96
sS'starting'
p1635
I95
sS'03:46:13.0,34.2107108,-118.3836528,1219,sometimes'
p1636
I96
sS'lamplighter'
p1637
I96
sS'all'
p1638
I34
sS'forget'
p1639
I95
sS'chinese'
p1640
I96
sS'jsnxkpanzanxkaoakzbsjsggww'
p1641
I96
sS'messi'
p1642
I96
sS'diesel'
p1643
I96
sS'dollar'
p1644
I95
sS'month'
p1645
I93
sS'sentimiento'
p1646
I96
sS'today.,91605\n428452407228387328,_arieltp8,2014-01-29'
p1647
I96
sS'decisions'
p1648
I96
sS'children'
p1649
I96
sS'emily'
p1650
I96
sS'asada'
p1651
I96
sS'apartment'
p1652
I96
sS'-_________-'
p1653
I96
sS'tv'
p1654
I91
sS'dicho'
p1655
I96
sS'tu'
p1656
I96
sS'thursday'
p1657
I96
sS'to'
p1658
I2
sS'tf'
p1659
I93
sS'smile'
p1660
I94
sS'enjoying'
p1661
I95
sS'presentation'
p1662
I96
sS'shots"'
p1663
I96
sS'02:43:40.0,34.2107173,-118.3836241,1219,first'
p1664
I96
sS'case'
p1665
I96
sS'woman'
p1666
I95
sS'worse'
p1667
I94
sS'song'
p1668
I88
sS'very'
p1669
I94
sS'horror'
p1670
I92
sS'fav'
p1671
I96
sS'fat'
p1672
I91
sS'aware'
p1673
I96
sS'fan'
p1674
I95
sS'decide'
p1675
I96
sS'fall'
p1676
I96
sS'ticket'
p1677
I94
sS'!,91605\n477631773430407168,_arieltp8,2014-06-14'
p1678
I96
sS'fuckkkk'
p1679
I96
sS'trippin'
p1680
I96
sS'washing'
p1681
I95
sS'cable'
p1682
I96
sS'mccarron'
p1683
I96
sS'laying'
p1684
I93
sS'everrrrr'
p1685
I96
sS'vibes'
p1686
I96
sS'gos'
p1687
I96
sS'small'
p1688
I96
sS'tear'
p1689
I96
sS'vanilla'
p1690
I96
sS"i'll"
p1691
I92
sS'cookies'
p1692
I95
sS'instagram'
p1693
I94
sS'lecturing'
p1694
I96
sS'teo'
p1695
I96
sS'tea'
p1696
I95
sS'penalties'
p1697
I96
sS'again,91605\n477616916639408130,_arieltp8,2014-06-14'
p1698
I96
sS'.,91605\n428453703775817728,_arieltp8,2014-01-29'
p1699
I96
sS'past'
p1700
I93
sS'burger'
p1701
I94
sS'goosebumps'
p1702
I96
sS'pass'
p1703
I94
sS":''''')"
p1704
I96
sS'silvester'
p1705
I96
sS'gm'
p1706
I96
sS'smhh'
p1707
I96
sS'what'
p1708
I49
sS'stood'
p1709
I96
sS'pinterest'
p1710
I93
sS'sun'
p1711
I96
sS'crust'
p1712
I96
sS'caffeine'
p1713
I96
sS'emotions'
p1714
I96
sS'abt'
p1715
I96
sS'learned'
p1716
I95
sS'everlasting'
p1717
I96
sS'06:00:15.0,34.2107201,-118.3836482,1219,today'
p1718
I96
sS'outgoing'
p1719
I96
sS'full'
p1720
I91
sS'blueantonio3'
p1721
I96
sS'timberlands'
p1722
I96
sS'forgive'
p1723
I96
sS'hours'
p1724
I93
sS'dorks'
p1725
I96
sS'yummy'
p1726
I96
sS'strong'
p1727
I96
sS'table'
p1728
I96
sS'legend'
p1729
I95
sS'taintops.im'
p1730
I96
sS'creeps'
p1731
I96
sS'lesbian..."'
p1732
I96
sS'experience'
p1733
I95
sS'pics'
p1734
I96
sS'drawers'
p1735
I96
sS'amount'
p1736
I96
sS'crybaby'
p1737
I96
sS'pick'
p1738
I94
sS"would've"
p1739
I96
sS':(,91605\n474085766809665536,_arieltp8,2014-06-04'
p1740
I96
sS'family'
p1741
I88
sS'put'
p1742
I83
sS'you\xe2\x80\x99re'
p1743
I96
sS'pulls'
p1744
I96
sS'bad.,91605\n477349186665324544,_arieltp8,2014-06-13'
p1745
I96
sS'eye'
p1746
I95
sS'takes'
p1747
I96
sS'donuts'
p1748
I96
sS'texting'
p1749
I95
sS'charge'
p1750
I95
sS'irritate'
p1751
I96
sS'disent'
p1752
I96
sS'pearl'
p1753
I95
sS'tacks'
p1754
I96
sS'6'
p1755
I95
sS'shits'
p1756
I95
sS'more'
p1757
I68
sS'horses'
p1758
I96
sS'tryna'
p1759
I93
sS'knows'
p1760
I92
sS'company'
p1761
I96
sS'chucks'
p1762
I96
sS'landed'
p1763
I96
sS"ain't"
p1764
I95
sS'basically'
p1765
I96
sS'broke'
p1766
I92
sS'dios'
p1767
I96
sS'glad'
p1768
I93
sS'luv'
p1769
I95
sS'town'
p1770
I94
sS'couples'
p1771
I96
sS'keeping'
p1772
I96
sS'hour'
p1773
I90
sS'middle'
p1774
I96
sS'nono'
p1775
I96
sS'der'
p1776
I96
sS'des'
p1777
I96
sS'sucks'
p1778
I89
sS'mall'
p1779
I95
sS'learn'
p1780
I95
sS'haggy'
p1781
I96
sS'marble'
p1782
I96
sS'history'
p1783
I95
sS'beautiful'
p1784
I91
sS'potatoe'
p1785
I96
sS'shark'
p1786
I96
sS'away.i'
p1787
I96
sS'brown'
p1788
I95
sS'lives'
p1789
I96
sS'fiving'
p1790
I96
sS'states'
p1791
I96
sS'lolol'
p1792
I95
sS'downloading'
p1793
I96
sS'soups?"'
p1794
I96
sS'nba'
p1795
I96
sS'sense'
p1796
I95
sS'sharp'
p1797
I96
sS'"this'
p1798
I96
sS'dress'
p1799
I94
sS'ughhhh'
p1800
I96
sS'condemn'
p1801
I96
sS'influenced'
p1802
I96
sS'needs'
p1803
I90
sS'answer'
p1804
I96
sS'goodnight\xe2\x98\xbb\xe2\x98\xb9'
p1805
I96
sS'jerk'
p1806
I96
sS'drained'
p1807
I96
sS'reallyyy'
p1808
I96
sS'rather'
p1809
I91
sS'breaking'
p1810
I96
sS'american'
p1811
I93
sS'stayed'
p1812
I96
sS'sandwich'
p1813
I93
sS'okay'
p1814
I90
sS'plans'
p1815
I96
sS'rude'
p1816
I96
sS'never"'
p1817
I96
sS'fb'
p1818
I96
sS'pas'
p1819
I96
sS'blood'
p1820
I93
sS'coming'
p1821
I94
sS'tacos'
p1822
I96
sS'fo'
p1823
I96
sS'a'
p1824
I6
sS'mewhat'
p1825
I96
sS'short'
p1826
I95
sS"that'd"
p1827
I96
sS'tweeting'
p1828
I95
sS'shady'
p1829
I96
sS'anytime'
p1830
I96
sS'dizfoo'
p1831
I96
sS'shore'
p1832
I96
sS'vegas'
p1833
I96
sS'ego'
p1834
I96
sS'grill...."on'
p1835
I96
sS'shade'
p1836
I96
sS'crafts'
p1837
I95
sS'shadi'
p1838
I96
sS'dream'
p1839
I90
sS'playing'
p1840
I92
sS"that's"
p1841
I82
sS'feeds'
p1842
I96
sS'help'
p1843
I87
sS"don't"
p1844
I64
sS'sooo'
p1845
I96
sS'soon'
p1846
I91
sS'bcuz'
p1847
I92
sS'abduction'
p1848
I96
sS'paper'
p1849
I95
sS'through'
p1850
I92
sS'shit\xe2\x80\x9d'
p1851
I96
sS'01:58:45.0,34.2106859,-118.3836153,1219,everyone'
p1852
I96
sS'hell'
p1853
I94
sS'"it'
p1854
I96
sS'suffer'
p1855
I93
sS'its'
p1856
I48
sS'roots'
p1857
I94
sS'royce'
p1858
I96
sS'messed'
p1859
I96
sS'style'
p1860
I96
sS'pt'
p1861
I96
sS'20'
p1862
I95
sS'21'
p1863
I95
sS'ihateeveryone'
p1864
I96
sS'pray'
p1865
I96
sS':p'
p1866
I96
sS'actually'
p1867
I90
sS'late'
p1868
I89
sS'pcc'
p1869
I96
sS'bout'
p1870
I90
sS'cutie'
p1871
I95
sS'might'
p1872
I93
sS'hoop'
p1873
I96
sS"haven't"
p1874
I85
sS'curfews'
p1875
I96
sS'hurting'
p1876
I88
sS'good'
p1877
I42
sS'return'
p1878
I96
sS'food'
p1879
I86
sS'doughnuts'
p1880
I96
sS'peeing'
p1881
I96
sS'pirate'
p1882
I96
sS'starbucks'
p1883
I92
sS'foot'
p1884
I96
sS'yr'
p1885
I96
sS'complain'
p1886
I93
sS'bigger'
p1887
I94
sS'easily'
p1888
I95
sS'rnnnnn'
p1889
I96
sS'everytime'
p1890
I96
sS'sundays'
p1891
I96
sS'always'
p1892
I77
sS'stiff'
p1893
I96
sS'drake'
p1894
I96
sS'bless'
p1895
I95
sS'fulla'
p1896
I96
sS'stopped'
p1897
I96
sS'found'
p1898
I94
sS'repeating'
p1899
I96
sS'hammering'
p1900
I96
sS'friendship'
p1901
I96
sS"isn't"
p1902
I91
sS'mercy'
p1903
I96
sS'06:54:30.0,34.2107553,-118.38363,1219,excited'
p1904
I96
sS'breakdown'
p1905
I96
sS'everyone'
p1906
I80
sS'delicious'
p1907
I96
sS'weight'
p1908
I93
sS'house'
p1909
I87
sS'energy'
p1910
I93
sS'hard'
p1911
I86
sS'\xc2\xb7big'
p1912
I96
sS'idea'
p1913
I93
sS'neva'
p1914
I96
sS'katrina'
p1915
I96
sS'expect'
p1916
I96
sS'goodnite'
p1917
I96
sS'murders'
p1918
I96
sS'event'
p1919
I96
sS'really'
p1920
I38
sS'perry'
p1921
I96
sS'missed'
p1922
I94
sS'glitter'
p1923
I96
sS'childish'
p1924
I96
sS'since'
p1925
I89
sS'acting'
p1926
I94
sS'krispy'
p1927
I96
sS'7'
p1928
I92
sS'lolz'
p1929
I96
sS'bale'
p1930
I96
sS'blackk'
p1931
I96
sS'ass'
p1932
I81
sS'drink'
p1933
I93
sS'polling'
p1934
I96
sS'friday'
p1935
I94
sS'guess'
p1936
I83
sS'straightener'
p1937
I96
sS'reason'
p1938
I94
sS'base'
p1939
I96
sS'disneyland'
p1940
I84
sS'fatass'
p1941
I96
sS'imagine'
p1942
I96
sS'ask'
p1943
I93
sS'teach'
p1944
I95
sS'sauna'
p1945
I96
sS'beginning'
p1946
I96
sS'sidewalk'
p1947
I96
sS'themselves.i'
p1948
I96
sS'thrown'
p1949
I96
sS'pairs'
p1950
I96
sS'wayyyyy'
p1951
I96
sS'terrible'
p1952
I95
sS'retainer'
p1953
I94
sS'w'
p1954
I90
sS'heartbeat'
p1955
I96
sS'exercising'
p1956
I96
sS'-m&s'
p1957
I96
sS'knots'
p1958
I96
sS'dont'
p1959
I53
sS'feel'
p1960
I46
sS'knocking'
p1961
I95
sS'feet'
p1962
I95
sS'fucked'
p1963
I96
sS'\xee\x90\x8e'
p1964
I96
sS'done'
p1965
I80
sS'cups'
p1966
I96
sS'miss'
p1967
I68
sS'spree'
p1968
I96
sS'story'
p1969
I91
sS'"'
p1970
I93
sS'heads'
p1971
I95
sS'jet'
p1972
I96
sS'a$ap'
p1973
I96
sS'least'
p1974
I90
sS'broccoli'
p1975
I96
sS'yaaaaassssss'
p1976
I96
sS'paint'
p1977
I96
sS'saint'
p1978
I96
sS'mama'
p1979
I96
sS'us:((('
p1980
I96
sS'hundred'
p1981
I96
sS'banana'
p1982
I96
sS'store'
p1983
I95
sS'headache'
p1984
I94
sS'selling'
p1985
I96
sS'today\xe2\x98\x94\xef\xb8\x8f'
p1986
I96
sS'relationship'
p1987
I94
sS'behind'
p1988
I94
sS'mhmm'
p1989
I96
sS'park'
p1990
I96
sS'luckily'
p1991
I96
sS'part'
p1992
I92
sS'hair.,91605\n472851820591595520,_arieltp8,2014-05-31'
p1993
I96
sS'rain'
p1994
I96
sS'believe'
p1995
I94
sS'convinced'
p1996
I96
sS'king'
p1997
I96
sS'kind'
p1998
I94
sS'b'
p1999
I91
sS'jokes'
p2000
I96
sS'getaway.,91605\n475518109017976832,_arieltp8,2014-06-08'
p2001
I96
sS'fcked'
p2002
I95
sS'gotten'
p2003
I91
sS'kreme'
p2004
I96
sS'fcken'
p2005
I72
sS'getaway'
p2006
I96
sS'immense'
p2007
I96
sS'stall'
p2008
I96
sS'stalk'
p2009
I95
sS'dang'
p2010
I96
sS'toe'
p2011
I96
sS'02:41:03.0,34.2106566,-118.3836202,1219,costco'
p2012
I96
sS'\xe2\x9c\x8c,91605\n471167771829485568,_arieltp8,2014-05-27'
p2013
I96
sS'mickey'
p2014
I96
sS'motivation'
p2015
I96
sS'outta'
p2016
I96
sS'covenim'
p2017
I96
sS'reunion'
p2018
I96
sS'juice'
p2019
I90
sS'88%'
p2020
I96
sS'cleaned'
p2021
I95
sS'remodel'
p2022
I96
sS'vulnerable'
p2023
I96
sS'option'
p2024
I96
sS'lie'
p2025
I95
sS'nights'
p2026
I96
sS'built'
p2027
I96
sS'hot,91605\n474084796902014977,_arieltp8,2014-06-04'
p2028
I96
sS'depending'
p2029
I96
sS'lil'
p2030
I94
sS'self'
p2031
I95
sS'couch'
p2032
I95
sS'also'
p2033
I96
sS'conocerte'
p2034
I96
sS'lip'
p2035
I95
sS'build'
p2036
I96
sS'yeahh'
p2037
I96
sS'4:13'
p2038
I96
sS'relief'
p2039
I96
sS'darte'
p2040
I96
sS'play'
p2041
I95
sS'towards'
p2042
I95
sS'\xe2\x9b\xb3'
p2043
I96
sS'quote'
p2044
I96
sS'eggs'
p2045
I96
sS'reunited'
p2046
I95
sS'am,91605\n473659107249889280,_arieltp8,2014-06-03'
p2047
I96
sS'react'
p2048
I96
sS'most'
p2049
I90
sS'charm'
p2050
I96
sS'plan'
p2051
I96
sS'eaten'
p2052
I96
sS'nothing'
p2053
I80
sS'extremely'
p2054
I96
sS'model'
p2055
I96
sS'girlss'
p2056
I96
sS'grams'
p2057
I96
sS'gaby'
p2058
I96
sS'clear'
p2059
I94
sS'sometimes'
p2060
I87
sS'cover'
p2061
I96
sS'aloneee'
p2062
I96
sS'prettier'
p2063
I96
sS'clean'
p2064
I93
sS'grama'
p2065
I96
sS'sushiiiii'
p2066
I96
sS'hahah'
p2067
I96
sS'stalked'
p2068
I96
sS'ugh'
p2069
I75
sS'golf'
p2070
I93
sS',91605\n478053908397711360,_arieltp8,2014-06-15'
p2071
I96
sS'dicaprio'
p2072
I96
sS'sososo'
p2073
I96
sS'focusing'
p2074
I96
sS'stfu'
p2075
I93
sS'3x3'
p2076
I96
sS'hyped'
p2077
I96
sS'se'
p2078
I96
sS'thissssss'
p2079
I96
sS'font'
p2080
I95
sS'fine'
p2081
I96
sS'find'
p2082
I91
sS'bff'
p2083
I95
sS'zumba'
p2084
I96
sS'paranoid'
p2085
I95
sS'nervous'
p2086
I95
sS'ruin'
p2087
I94
sS'bfs'
p2088
I96
sS'idiots'
p2089
I96
sS'college'
p2090
I96
sS'pretty'
p2091
I90
sS'8'
p2092
I95
sS"charlie's"
p2093
I96
sS'his'
p2094
I81
sS'hit'
p2095
I90
sS'distance'
p2096
I96
sS'luke'
p2097
I96
sS'alicia'
p2098
I89
sS'\xd8\xb7\xd8\xa8\xd8\xb9\xd8\xa7.\xd8\xa7\xd9\x84\xd9\x85\xd8\xb4\xd9\x83\xd9\x84\xd8\xa9'
p2099
I96
sS'feels'
p2100
I84
sS'hid'
p2101
I96
sS'actress'
p2102
I96
sS'pretending'
p2103
I96
sS'workouts'
p2104
I96
sS'him'
p2105
I76
sS'00:23:38.0,34.2106793,-118.3835684,1219,i'
p2106
I96
sS'devoured'
p2107
I96
sS'cry'
p2108
I87
sS'thots'
p2109
I96
sS'caramel'
p2110
I96
sS'common'
p2111
I96
sS'joker."'
p2112
I96
sS'double'
p2113
I96
sS'you?\xe2\x80\x9d'
p2114
I96
sS'helllllla'
p2115
I96
sS'insane'
p2116
I95
sS'bars'
p2117
I95
sS'set'
p2118
I95
sS'vine'
p2119
I96
sS'see'
p2120
I80
sS'dumb'
p2121
I89
sS'are'
p2122
I46
sS'\xee\x89\x92'
p2123
I96
sS'close'
p2124
I94
sS'tiffanys'
p2125
I96
sS'arm'
p2126
I93
sS'2.5'
p2127
I96
sS'mario'
p2128
I96
sS'patties'
p2129
I96
sS'anatomy.,91605\n429363457020817408,_arieltp8,2014-01-31'
p2130
I96
sS'pictures'
p2131
I93
sS'wow'
p2132
I89
sS'currently'
p2133
I95
sS'nutella'
p2134
I94
sS'classes'
p2135
I96
sS'probably'
p2136
I91
sS'donate'
p2137
I96
sS'nope'
p2138
I95
sS'monsters'
p2139
I96
sS'kneel'
p2140
I96
sS'solo'
p2141
I96
sS'korea'
p2142
I96
sS'it!,91605\n475035695338094592,_arieltp8,2014-06-06'
p2143
I96
sS'fgt'
p2144
I95
sS'pisses'
p2145
I96
sS"tilly's"
p2146
I96
sS'outfit'
p2147
I94
sS'succeed'
p2148
I94
sS'(sun'
p2149
I96
sS'pissed'
p2150
I96
sS'sweater\xe2\x9c\x8c'
p2151
I96
sS'both'
p2152
I95
sS'c'
p2153
I94
sS'school.,91605\n474799230268088322,_arieltp8,2014-06-06'
p2154
I96
sS'last'
p2155
I81
sS'baybee'
p2156
I96
sS"wouldn't"
p2157
I95
sS'blacknoooo'
p2158
I96
sS'sensitive'
p2159
I95
sS'06:39:39.0,34.2107356,-118.3836573,1219,2'
p2160
I96
sS'ohhmy'
p2161
I96
sS'whole'
p2162
I91
sS'finds'
p2163
I96
sS'patty'
p2164
I96
sS'liked'
p2165
I94
sS'danced'
p2166
I96
sS'drunk'
p2167
I93
sS'battery'
p2168
I96
sS'sweet'
p2169
I94
sS'whatever'
p2170
I95
sS'except'
p2171
I96
sS'times.god'
p2172
I96
sS'likes'
p2173
I96
sS'church'
p2174
I91
sS'mattress'
p2175
I96
sS'mission'
p2176
I96
sS'expensive'
p2177
I96
sS'ass.,91605\n474436544023912448,_arieltp8,2014-06-05'
p2178
I96
sS'naps'
p2179
I95
sS'hillsong'
p2180
I94
sS'due'
p2181
I95
sS'wasnt'
p2182
I96
sS'secret'
p2183
I95
sS'damn'
p2184
I92
sS'make-up'
p2185
I96
sS'understand.,91605\n473221151598997504,_arieltp8,2014-06-01'
p2186
I96
sS'brick'
p2187
I96
sS'woke'
p2188
I87
sS'pm'
p2189
I95
sS'gay'
p2190
I94
sS'fire'
p2191
I95
sS"what's"
p2192
I95
sS'gas'
p2193
I96
sS'else'
p2194
I90
sS'understand'
p2195
I95
sS'liver'
p2196
I96
sS'leave,91605\n477646130734321664,_arieltp8,2014-06-14'
p2197
I96
sS'toga'
p2198
I96
sS'pierce'
p2199
I95
sS'look'
p2200
I84
sS'tillman.\xe2\x80\x9d'
p2201
I96
sS'solid'
p2202
I94
sS'straight'
p2203
I96
sS'tip'
p2204
I96
sS'tolerate'
p2205
I96
sS'pill'
p2206
I96
sS'forgetting'
p2207
I96
sS'while'
p2208
I81
sS'homework'
p2209
I87
sS'fun'
p2210
I83
sS'robin'
p2211
I95
sS'vroom'
p2212
I95
sS'pound'
p2213
I96
sS'hoping'
p2214
I96
sS'portugal'
p2215
I96
sS'<<'
p2216
I96
sS'psh'
p2217
I96
sS'rip'
p2218
I96
sS'ducks'
p2219
I94
sS'disappointing'
p2220
I96
sS'03:25:45.0,34.22651099,-118.38604582,1219,half'
p2221
I96
sS'owes'
p2222
I96
sS'ready'
p2223
I89
sS'rid'
p2224
I95
sS'vanish'
p2225
I96
sS'kings'
p2226
I96
sS'funny'
p2227
I93
sS'shirt'
p2228
I93
sS'anymore'
p2229
I81
sS'rules'
p2230
I96
sS'madly'
p2231
I96
sS'\xd8\xa7\xd9\x86\xd8\xa7'
p2232
I96
sS'classmates'
p2233
I94
sS'utah'
p2234
I96
sS'yesterday'
p2235
I91
sS'stashed'
p2236
I96
sS'moment'
p2237
I94
sS'strength'
p2238
I96
sS'uses'
p2239
I96
sS'cleaning'
p2240
I93
sS'stack'
p2241
I96
sS'recent'
p2242
I96
sS'kno'
p2243
I95
sS'conjuring"'
p2244
I96
sS'ampm'
p2245
I95
sS'stephanie'
p2246
I96
sS'meeeeeean'
p2247
I96
sS'spent'
p2248
I95
sS'obviously'
p2249
I95
sS'craves'
p2250
I96
sS'person'
p2251
I89
sS'edge'
p2252
I96
sS'flags'
p2253
I95
sS'y'
p2254
I91
sS'spend'
p2255
I92
sS'hotdog'
p2256
I96
sS'one-year'
p2257
I96
sS'>.<'
p2258
I95
sS'listening'
p2259
I89
sS'gunna'
p2260
I96
sS'boutta'
p2261
I96
sS'backflip'
p2262
I96
sS'hercules'
p2263
I96
sS'cocky'
p2264
I96
sS'mob'
p2265
I96
sS'regardless'
p2266
I96
sS'moorpark'
p2267
I96
sS'procrastinating'
p2268
I96
sS'letting'
p2269
I96
sS'cut'
p2270
I92
sS'cup'
p2271
I95
sS'hated'
p2272
I96
sS'workers'
p2273
I96
sS'extra'
p2274
I96
sS'argentina'
p2275
I96
sS'cuz'
p2276
I72
sS'parents'
p2277
I89
sS'crying'
p2278
I93
sS'06:28:16.0,34.2107163,-118.3836595,1219,i'
p2279
I96
sS'easter'
p2280
I96
sS'excited'
p2281
I89
sS'hates'
p2282
I95
sS'hater'
p2283
I96
sS'bio'
p2284
I96
sS'customers'
p2285
I95
sS'me...like'
p2286
I96
sS'emergency'
p2287
I96
sS'big'
p2288
I87
sS'showing'
p2289
I95
sS',91605\n471108213828767744,_arieltp8,2014-05-27'
p2290
I96
sS'tiring'
p2291
I96
sS'shitty'
p2292
I94
sS'game'
p2293
I85
sS'in-n-out'
p2294
I96
sS'bit'
p2295
I95
sS'wings'
p2296
I93
sS'adams'
p2297
I96
sS'glittery'
p2298
I96
sS'knock'
p2299
I95
sS'd'
p2300
I94
sS'semi'
p2301
I96
sS'wackasssfoo'
p2302
I96
sS'follows'
p2303
I96
sS'nightsky'
p2304
I96
sS'ignore'
p2305
I96
sS'provoking'
p2306
I95
sS'eff'
p2307
I96
sS'moccasins'
p2308
I96
sS'translated'
p2309
I96
sS'\xd8\xa8\xd8\xa7\xd9\x84\xd9\x85\xd8\xb1\xd8\xb5\xd8\xa7\xd8\xaf'
p2310
I96
sS'fault'
p2311
I96
sS'healthy'
p2312
I96
sS'fackk'
p2313
I96
sS'google'
p2314
I96
sS'<333'
p2315
I96
sS'fucking'
p2316
I79
sS'spring'
p2317
I96
sS'fathers'
p2318
I96
sS'fake'
p2319
I96
sS'some'
p2320
I64
sS'back'
p2321
I63
sS'urgent'
p2322
I95
sS'lips'
p2323
I95
sS'palm'
p2324
I96
sS'"we'
p2325
I96
sS'wonderland'
p2326
I95
sS'camarones'
p2327
I96
sS'pale'
p2328
I96
sS'delivered'
p2329
I96
sS'reruns'
p2330
I95
sS'thotful'
p2331
I96
sS'depuis'
p2332
I96
sS'shall'
p2333
I94
sS'bruce'
p2334
I96
sS'pounding'
p2335
I95
sS'epic'
p2336
I96
sS'nose'
p2337
I92
sS'be'
p2338
I26
sS'bf'
p2339
I64
sS'patient'
p2340
I95
sS'bb'
p2341
I96
sS'bc'
p2342
I93
sS'confidence'
p2343
I96
sS'05:24:53.0,34.2107225,-118.3836443,1219,my'
p2344
I96
sS'06:02:06.0,34.2106896,-118.3836178,1219,i'
p2345
I96
sS'step'
p2346
I96
sS'nowhere'
p2347
I96
sS'lasts'
p2348
I96
sS'become'
p2349
I93
sS'by'
p2350
I87
sS'sumgay'
p2351
I96
sS'faith'
p2352
I96
sS'volunteering'
p2353
I94
sS'netflix'
p2354
I91
sS'iced'
p2355
I94
sS'graduation'
p2356
I95
sS'chico'
p2357
I96
sS'lankershim'
p2358
I95
sS'deserves'
p2359
I96
sS'range'
p2360
I95
sS'involving'
p2361
I96
sS'beans'
p2362
I96
sS'idk'
p2363
I86
sS'wanna'
p2364
I57
sS'idc'
p2365
I95
sS'block'
p2366
I95
sS'ppl'
p2367
I85
sS'seeing'
p2368
I89
sS'david'
p2369
I96
sS'ayyi'
p2370
I96
sS'visit'
p2371
I96
sS'into'
p2372
I89
sS'fooood'
p2373
I96
sS'nonsense'
p2374
I96
sS'because'
p2375
I73
sS'clack'
p2376
I96
sS'oaks'
p2377
I96
sS'lesson'
p2378
I96
sS'tweeters'
p2379
I96
sS'rolls'
p2380
I95
sS'smells'
p2381
I94
sS'calming'
p2382
I96
sS'\xe2\x80\x9ci'
p2383
I96
sS'spending'
p2384
I92
sS'11:16'
p2385
I96
sS'extra\xc3\xb1as'
p2386
I96
sS'question'
p2387
I92
sS'ca)'
p2388
I95
sS'fast'
p2389
I95
sS"we're"
p2390
I94
sS'suit'
p2391
I95
sS'forward'
p2392
I95
sS'bored'
p2393
I91
sS'twitter'
p2394
I92
sS'invite'
p2395
I96
sS'talked'
p2396
I96
sS'boys'
p2397
I96
sS'repeatedly'
p2398
I96
sS'\xe2\x99\xa5'
p2399
I86
sS'ugh,91605\n474437478544191488,_arieltp8,2014-06-05'
p2400
I96
sS'dull'
p2401
I96
sS'\xe2\x99\xa1'
p2402
I61
sS'lifeguard'
p2403
I96
sS'hair'
p2404
I66
sS'\xd8\xa7\xd9\x84\xd8\xa3\xd8\xb1\xd8\xaf\xd9\x86\xd9\x8a\xd9\x8a\xd9\x86'
p2405
I96
sS'knitted'
p2406
I96
sS'fries'
p2407
I96
sS'up'
p2408
I31
sS'us'
p2409
I86
sS'ur'
p2410
I96
sS'um'
p2411
I96
sS'05:03:00.0,34.2107517,-118.3836575,1219,wtf'
p2412
I96
sS'un'
p2413
I95
sS'uh'
p2414
I96
sS'02:55:05.0,34.2107127,-118.3837264,1219,you'
p2415
I96
sS'called'
p2416
I91
sS'05:39:36.0,34.2106679,-118.3836399,1219,aww'
p2417
I96
sS'bell'
p2418
I94
sS'freak'
p2419
I96
sS'leon'
p2420
I96
sS'fegs'
p2421
I96
sS'single'
p2422
I96
sS'necks'
p2423
I96
sS'meech'
p2424
I96
sS'08:16:45.0,34.2106919,-118.3835003,1219,i'
p2425
I96
sS'brush'
p2426
I96
sS'taro'
p2427
I95
sS'loser'
p2428
I96
sS'amounts'
p2429
I96
sS'nah'
p2430
I96
sS'llorro'
p2431
I95
sS'zully'
p2432
I96
sS'matching'
p2433
I96
sS'application'
p2434
I96
sS'nap'
p2435
I86
sS'statement'
p2436
I96
sS'orrr'
p2437
I96
sS'nat'
p2438
I96
sS'ensalada'
p2439
I96
sS'nice'
p2440
I84
sS'draw'
p2441
I96
sS'scrub'
p2442
I95
sS'missin'
p2443
I96
sS'problems'
p2444
I95
sS'pretended'
p2445
I96
sS'prepared'
p2446
I95
sS'helping'
p2447
I94
sS'drag'
p2448
I96
sS'00:11:59.0,34.2107108,-118.3836582,1219,same'
p2449
I96
sS'fishes'
p2450
I95
sS'bs\xe2\x80\x9d'
p2451
I96
sS'ago'
p2452
I94
sS'\xe2\x9c\x82\xef\xb8\x8f'
p2453
I96
sS'miles'
p2454
I96
sS'e'
p2455
I96
sS'caillou'
p2456
I95
sS'practically'
p2457
I96
sS'age'
p2458
I96
sS'youtube'
p2459
I94
sS'rushed'
p2460
I96
sS'annoyed'
p2461
I94
sS'carrying'
p2462
I96
sS'torquoise'
p2463
I96
sS'dot'
p2464
I96
sS'far'
p2465
I93
sS"she's"
p2466
I87
sS'hello'
p2467
I95
sS'once'
p2468
I93
sS'cheetos'
p2469
I91
sS'edc'
p2470
I96
sS'squats'
p2471
I95
sS':),91605\n476571075107512320,_arieltp8,2014-06-11'
p2472
I96
sS'gf'
p2473
I94
sS'go'
p2474
I24
sS'gn'
p2475
I95
sS'psycho'
p2476
I96
sS'tweeted'
p2477
I96
sS'ughew'
p2478
I96
sS'issues'
p2479
I96
sS'peanut'
p2480
I95
sS'lasers'
p2481
I96
sS'young'
p2482
I96
sS'education'
p2483
I96
sS'dislike'
p2484
I96
sS'"truck"'
p2485
I96
sS'silverstone'
p2486
I96
sS'random'
p2487
I96
sS'lessons'
p2488
I96
sS'*sigh'
p2489
I95
sS'711'
p2490
I96
sS'spoon'
p2491
I96
sS'facebook'
p2492
I95
sS'accuse'
p2493
I96
sS'telling'
p2494
I95
sS'drinking'
p2495
I95
sS'baad'
p2496
I96
sS'much.and'
p2497
I96
sS'ugz'
p2498
I96
sS'eva'
p2499
I96
sS'button'
p2500
I96
sS'midterm'
p2501
I96
sS'booze'
p2502
I96
sS'try'
p2503
I86
sS'race'
p2504
I96
sS'reals'
p2505
I96
sS'nowdays'
p2506
I96
sS':)\xe2\x80\x9d'
p2507
I96
sS'havent'
p2508
I92
sS'leonardo'
p2509
I96
sS'ride'
p2510
I93
sS'40oz'
p2511
I96
sS'someday'
p2512
I96
sS'pretend'
p2513
I95
sS"you'd"
p2514
I96
sS'1-9:30'
p2515
I96
sS'ze'
p2516
I96
sS'\xe2\x9d\xa4'
p2517
I96
sS'waking'
p2518
I94
sS'seeeeee'
p2519
I96
sS'video'
p2520
I96
sS'nephew'
p2521
I96
sS'yayyy'
p2522
I96
sS'comprehend'
p2523
I96
sS'people--'
p2524
I96
sS'click'
p2525
I96
sS'depression'
p2526
I96
sS'heavens'
p2527
I96
sS'power'
p2528
I96
sS'chicago'
p2529
I95
sS'giving'
p2530
I96
sS'schedule'
p2531
I96
sS'espresso'
p2532
I96
sS'availability'
p2533
I96
sS'cell'
p2534
I96
sS'lmfao'
p2535
I96
sS'waiting'
p2536
I94
sS'anywhere'
p2537
I96
sS'eating'
p2538
I91
sS'bird'
p2539
I96
sS'body'
p2540
I89
sS'sharks'
p2541
I96
sS'degree'
p2542
I96
sS'leg'
p2543
I96
sS'punch'
p2544
I93
sS'growing'
p2545
I96
sS'les'
p2546
I96
sS'let'
p2547
I86
sS'sink'
p2548
I96
sS'others'
p2549
I93
sS'sing'
p2550
I96
sS'irritating'
p2551
I96
sS'vacay'
p2552
I96
sS'great'
p2553
I87
sS'stalks'
p2554
I96
sS'receive'
p2555
I96
sS'30'
p2556
I96
sS'gens'
p2557
I96
sS'leaving'
p2558
I94
sS"weren't"
p2559
I96
sS'defeat'
p2560
I96
sS'natasha'
p2561
I96
sS'makes'
p2562
I81
sS'maker'
p2563
I96
sS'thats'
p2564
I86
sS'vallarta'
p2565
I96
sS'apple'
p2566
I96
sS'claim'
p2567
I96
sS'win'
p2568
I95
sS'app'
p2569
I96
sS'\xd8\xa8\xd8\xb3'
p2570
I96
sS'baskets'
p2571
I96
sS'apu'
p2572
I96
sS'\xe2\x9c\x94,91605\n473334416513576960,_arieltp8,2014-06-02'
p2573
I96
sS'duck'
p2574
I94
sS'singing'
p2575
I96
sS'lime'
p2576
I96
sS'use'
p2577
I91
sS'francis'
p2578
I96
sS'from'
p2579
I58
sS'&'
p2580
I18
sS'chi'
p2581
I96
sS'cool?yeslike'
p2582
I96
sS'next'
p2583
I89
sS'few'
p2584
I95
sS'ball"'
p2585
I96
sS'doubt'
p2586
I96
sS'coldplay'
p2587
I96
sS'crab'
p2588
I96
sS'shit,91605\n477956039845744640,_arieltp8,2014-06-14'
p2589
I96
sS'themselves'
p2590
I96
sS'alright.-mr'
p2591
I96
sS'deepest'
p2592
I96
sS'$20'
p2593
I96
sS'babe'
p2594
I96
sS'1/2'
p2595
I96
sS'porch'
p2596
I96
sS'started'
p2597
I96
sS'about'
p2598
I59
sS'confused'
p2599
I95
sS'sore'
p2600
I94
sS'train'
p2601
I96
sS'ashamed'
p2602
I96
sS'baby'
p2603
I84
sS'central'
p2604
I96
sS'women'
p2605
I96
sS'customer'
p2606
I96
sS'luuuuv'
p2607
I96
sS'account'
p2608
I95
sS'animals'
p2609
I95
sS'salad'
p2610
I96
sS'f'
p2611
I93
sS'this'
p2612
I16
sS'challenge'
p2613
I94
sS'niceeeee'
p2614
I96
sS'neck/hanging'
p2615
I96
sS'donut'
p2616
I96
sS'unreal'
p2617
I96
sS'thin'
p2618
I96
sS'meet'
p2619
I96
sS'closing'
p2620
I95
sS'didnt'
p2621
I90
sS'dropped'
p2622
I96
sS'beyon\xc3\xa9'
p2623
I96
sS'loca'
p2624
I96
sS"cruise's"
p2625
I96
sS'oc'
p2626
I96
sS':(,91605\n429176988092231680,_arieltp8,2014-01-31'
p2627
I96
sS'pad'
p2628
I96
sS'pieces'
p2629
I96
sS'high'
p2630
I91
sS'blvd'
p2631
I96
sS'something'
p2632
I86
sS'yaand'
p2633
I96
sS'tan'
p2634
I94
sS'boored'
p2635
I96
sS'onions'
p2636
I96
sS'skirr'
p2637
I95
sS'sir'
p2638
I96
sS'united'
p2639
I93
sS'sit'
p2640
I92
sS'vibe'
p2641
I96
sS'boxing'
p2642
I96
sS'chill.nigguh'
p2643
I96
sS'blessings'
p2644
I96
sS'soooooooooooooo'
p2645
I96
sS'instead'
p2646
I96
sS'05:03:32.0,34.2107107,-118.3836185,1219,new'
p2647
I96
sS'narc'
p2648
I96
sS'watery'
p2649
I96
sS'looww'
p2650
I96
sS'attend'
p2651
I96
sS'stop'
p2652
I78
sS'wallpaper'
p2653
I96
sS'comidas'
p2654
I96
sS'pigs'
p2655
I96
sS'taco'
p2656
I94
sS'fits'
p2657
I94
sS'ties'
p2658
I96
sS'tongue'
p2659
I96
sS'realized'
p2660
I95
sS'22nd'
p2661
I96
sS'light'
p2662
I96
sS"af'"
p2663
I94
sS'amazon'
p2664
I96
sS'scoop'
p2665
I96
sS'honestly'
p2666
I95
sS'scrubs'
p2667
I95
sS'kenia'
p2668
I96
sS'bathing'
p2669
I95
sS'six'
p2670
I96
sS'a/c'
p2671
I96
sS'there...""but'
p2672
I96
sS'move'
p2673
I91
sS'bombaf'
p2674
I96
sS'looks'
p2675
I90
sS'perfect'
p2676
I95
sS'lolgey'
p2677
I96
sS'blake'
p2678
I96
sS'le'
p2679
I94
sS'la'
p2680
I94
sS'nostalgic'
p2681
I96
sS'restart'
p2682
I96
sS'orange'
p2683
I90
sS'puerto'
p2684
I96
sS'bye'
p2685
I91
sS'<'
p2686
I90
sS'06:10:09.0,34.2108047,-118.3836158,1219,being'
p2687
I96
sS'dad'
p2688
I88
sS'dab'
p2689
I96
sS'07:18:09.0,34.2107401,-118.3836583,1219,maya'
p2690
I96
sS'dam'
p2691
I96
sS'spell'
p2692
I96
sS'dat'
p2693
I95
sS'cutting'
p2694
I96
sS'cago'
p2695
I96
sS'hands'
p2696
I94
sS'front'
p2697
I95
sS'flee'
p2698
I96
sS'day'
p2699
I56
sS'gassed'
p2700
I96
sS'february'
p2701
I96
sS'4:45'
p2702
I96
sS'toes'
p2703
I96
sS'feast'
p2704
I96
sS'hepititus'
p2705
I96
sS'sniffing'
p2706
I96
sS'slide'
p2707
I96
sS'weather'
p2708
I96
sS'gurl'
p2709
I96
sS'viewing'
p2710
I96
sS'\xee\x8c\xae'
p2711
I95
sS'sunburn'
p2712
I96
sS'*sigh*'
p2713
I96
sS'doing'
p2714
I72
sS'adventure'
p2715
I95
sS'mijo'
p2716
I96
sS'unbelievable'
p2717
I96
sS'related'
p2718
I96
sS'06:19:45.0,34.2107014,-118.383609,1219,first'
p2719
I96
sS'our'
p2720
I89
sS'meth'
p2721
I96
sS'youu'
p2722
I96
sS'special'
p2723
I92
sS'out'
p2724
I29
sS"tryin'"
p2725
I96
sS'(at'
p2726
I96
sS'bag'
p2727
I96
sS'rev'
p2728
I95
sS'barley'
p2729
I95
sS'hilarious'
p2730
I95
sS'waay'
p2731
I96
sS'cause'
p2732
I95
sS'red'
p2733
I90
sS"one's"
p2734
I96
sS'shitload'
p2735
I96
sS'perish'
p2736
I96
sS'frank'
p2737
I96
sS'temps'
p2738
I96
sS'completely'
p2739
I95
sS'please'
p2740
I92
sS'surely'
p2741
I96
sS'early'
p2742
I86
sS'01:02:01.0,34.2106953,-118.3836257,1219,i'
p2743
I96
sS'craving'
p2744
I94
sS'bigass'
p2745
I96
sS'scary'
p2746
I91
sS'chilll'
p2747
I96
sS'spill'
p2748
I96
sS'snapchats'
p2749
I96
sS'could'
p2750
I77
sS'scars'
p2751
I95
sS'kiss'
p2752
I96
sS'times'
p2753
I94
sS'conversation'
p2754
I96
sS'4th'
p2755
I94
sS'pudding'
p2756
I96
sS'hollister'
p2757
I95
sS'chills'
p2758
I96
sS'south'
p2759
I96
sS'shoppingim'
p2760
I96
sS'frap'
p2761
I96
sS'scene'
p2762
I96
sS'...,91605\n428441572988825600,_arieltp8,2014-01-29'
p2763
I96
sS'jesus'
p2764
I95
sS'hahahaha'
p2765
I95
sS'bitch'
p2766
I94
sS'lagging'
p2767
I96
sS'twas'
p2768
I96
sS'owner'
p2769
I96
sS'quality'
p2770
I96
sS'beso'
p2771
I96
sS"you're"
p2772
I72
sS'smaller'
p2773
I96
sS'fuckery'
p2774
I96
sS'nerves'
p2775
I95
sS'hunt'
p2776
I96
sS'hilary'
p2777
I95
sS'their'
p2778
I88
sS'cats'
p2779
I96
sS'wrapped'
p2780
I96
sS'2-2'
p2781
I96
sS'adorable'
p2782
I96
sS'stomach'
p2783
I95
sS'stars'
p2784
I95
sS'event.ughhhhhhh,91605\n473690577465143296,_arieltp8,2014-06-03'
p2785
I96
sS'shorts'
p2786
I95
sS'greta'
p2787
I95
sS'exactly'
p2788
I93
sS'depressing'
p2789
I93
sS'blazers'
p2790
I96
sS'verse'
p2791
I96
sS'decorating'
p2792
I96
sS'craming'
p2793
I96
sS'21:01:50.0,34.2106851,-118.3836169,1219,any'
p2794
I96
sS'bffffff'
p2795
I96
sS'july'
p2796
I96
sS'therethe'
p2797
I96
sS'remember'
p2798
I95
sS'loved'
p2799
I93
sS'isolation'
p2800
I96
sS'bother'
p2801
I94
sS'lion'
p2802
I96
sS'bed'
p2803
I82
sS'anaheim'
p2804
I96
sS'firework'
p2805
I96
sS'"got'
p2806
I96
sS'loves'
p2807
I92
sS'gays'
p2808
I96
sS'country'
p2809
I96
sS'whyyy'
p2810
I96
sS'trusting'
p2811
I96
sS'teenagers'
p2812
I96
sS'comfortable'
p2813
I95
sS'tonight'
p2814
I84
sS'frm'
p2815
I96
sS'faut'
p2816
I96
sS'reeeallly'
p2817
I96
sS'have'
p2818
I22
sS'need'
p2819
I30
sS'apparently'
p2820
I96
sS'clearly'
p2821
I96
sS'she'
p2822
I74
sS'quiz\xc2\xb7ma'
p2823
I96
sS'mermaid'
p2824
I96
sS'soak'
p2825
I96
sS'studying'
p2826
I92
sS'06:39:47.0,34.2107122,-118.3836605,1219,why'
p2827
I96
sS'able'
p2828
I94
sS'(no'
p2829
I96
sS'waffles'
p2830
I93
sS'sinatra'
p2831
I96
sS'relatives'
p2832
I96
sS'which'
p2833
I95
sS'truck'
p2834
I96
sS'asshole'
p2835
I94
sS'='
p2836
I95
sS'unless'
p2837
I96
sS'agenda'
p2838
I96
sS"where'd"
p2839
I96
sS'aww'
p2840
I95
sS'rigoo'
p2841
I96
sS'who'
p2842
I76
sS'awk'
p2843
I96
sS'lectured'
p2844
I96
sS'highschool'
p2845
I96
sS'future'
p2846
I96
sS'expired'
p2847
I96
sS'why'
p2848
I44
sS'plumber'
p2849
I96
sS'temptation'
p2850
I96
sS'upset'
p2851
I95
sS'face'
p2852
I84
sS"you'll"
p2853
I95
sS'strawberries'
p2854
I96
sS'yum'
p2855
I96
sS'movie'
p2856
I86
sS'overalls'
p2857
I96
sS'fact'
p2858
I96
sS'$$$'
p2859
I95
sS'son'
p2860
I96
sS'text'
p2861
I92
sS'agreed'
p2862
I96
sS'charles'
p2863
I96
sS'bring'
p2864
I95
sS'chicken'
p2865
I96
sS'shoes'
p2866
I96
sS'ear'
p2867
I96
sS'comfort'
p2868
I96
sS'earned'
p2869
I96
sS'('
p2870
I95
sS'skirts.now'
p2871
I96
sS'should'
p2872
I76
sS'22:05:58.0,34.21067,-118.3834974,1219,is'
p2873
I96
sS',91605\n477967501863563264,_arieltp8,2014-06-15'
p2874
I96
sS'hope'
p2875
I88
sS'meant'
p2876
I96
sS'arieltp8'
p2877
I96
sS'handle'
p2878
I96
sS'means'
p2879
I93
sS'beat'
p2880
I96
sS'dope'
p2881
I95
sS'stripes'
p2882
I95
sS'muchim'
p2883
I96
sS'120'
p2884
I96
sS'tbh'
p2885
I95
sS'awww'
p2886
I95
sS'ones'
p2887
I93
sS'words'
p2888
I95
sS'chips'
p2889
I95
sS'kardashians'
p2890
I96
sS'endless'
p2891
I96
sS'06:28:04.0,34.2107163,-118.3836595,1219,i'
p2892
I96
sS'ended'
p2893
I96
sS'h'
p2894
I95
sS'kr\xc3\xa9me'
p2895
I96
sS'calling'
p2896
I92
sS'comics'
p2897
I96
sS'stuff'
p2898
I92
sS'mascara'
p2899
I93
sS'21:54:49.0,34.2106608,-118.3833916,1219,i'
p2900
I96
sS'hollywood)'
p2901
I96
sS'fixed'
p2902
I95
sS'costume'
p2903
I96
sS'j'
p2904
I96
sS'whorebag'
p2905
I96
sS'frame'
p2906
I96
sS':(,91605\n477677267791781888,_arieltp8,2014-06-14'
p2907
I96
sS'we'
p2908
I68
sS'module'
p2909
I96
sS'computer'
p2910
I92
sS'desperate'
p2911
I96
sS'terms'
p2912
I96
sS'ok!!!!!\xe2\x80\x9d'
p2913
I96
sS'braid'
p2914
I96
sS'closet'
p2915
I95
sS"brother's"
p2916
I96
sS'thumb'
p2917
I96
sS'tend'
p2918
I96
sS'genius'
p2919
I96
sS'state'
p2920
I94
sS'proof'
p2921
I96
sS'routine'
p2922
I95
sS'blocked'
p2923
I96
sS'frustrated'
p2924
I93
sS'bought'
p2925
I91
sS'glen'
p2926
I95
sS'ends'
p2927
I94
sS'attention'
p2928
I96
sS'george'
p2929
I96
sS'trynna'
p2930
I96
sS'a.m'
p2931
I96
sS'job'
p2932
I85
sS'shittiest'
p2933
I96
sS'potluck'
p2934
I96
sS'merry'
p2935
I96
sS'legit'
p2936
I96
sS'staring'
p2937
I95
sS'2gthr'
p2938
I96
sS'figured'
p2939
I96
sS'joke'
p2940
I94
sS'taking'
p2941
I89
sS'drug'
p2942
I96
sS'etc'
p2943
I96
sS'06:25:32.0,34.2107145,-118.3836592,1219,school'
p2944
I96
sS'passing'
p2945
I96
sS'jersey'
p2946
I96
sS'co'
p2947
I96
sS'important\xc3\xa9'
p2948
I96
sS'righhht'
p2949
I96
sS'wall'
p2950
I95
sS'denim'
p2951
I95
sS'walk'
p2952
I95
sS'cmon'
p2953
I96
sS'rehearsed'
p2954
I96
sS'laugh'
p2955
I96
sS'news'
p2956
I96
sS'respect'
p2957
I96
sS'quit'
p2958
I94
sS'protective'
p2959
I96
sS'yay'
p2960
I91
sS'creat'
p2961
I96
sS'tbch'
p2962
I96
sS"it's"
p2963
I74
sS'amiga'
p2964
I96
sS'quiz'
p2965
I96
sS':(,91605\n428733613413109760,_arieltp8,2014-01-30'
p2966
I96
sS'ai'
p2967
I96
sS'drank'
p2968
I96
sS'slowly'
p2969
I94
sS'treat'
p2970
I94
sS'bby'
p2971
I95
sS'waste'
p2972
I96
sS'killed'
p2973
I96
sS'>'
p2974
I94
sS'mike'
p2975
I96
sS'king)'
p2976
I96
sS'league'
p2977
I96
sS'moved'
p2978
I96
sS'airplanes'
p2979
I96
sS'2015'
p2980
I96
sS'finished'
p2981
I94
sS'tfti'
p2982
I96
sS'sausages'
p2983
I96
sS'-.-'
p2984
I96
sS'bull'
p2985
I96
sS'self-esteem'
p2986
I95
sS'eyelashes'
p2987
I96
sS'09:11:10.0,34.2106785,-118.383502,1219,that'
p2988
I96
sS'imadumbass'
p2989
I96
sS'xoxoxo'
p2990
I96
sS'rpms'
p2991
I96
sS'harder'
p2992
I93
sS'will'
p2993
I77
sS'?when'
p2994
I96
sS'hahaha'
p2995
I88
sS'\xe2\x9c\x8c\xef\xb8\x8fnd'
p2996
I96
sS"hilary's"
p2997
I96
sS'guessss*'
p2998
I96
sS'almost'
p2999
I94
sS'everrrything'
p3000
I96
sS'encouragement'
p3001
I96
sS'goooallassso'
p3002
I96
sS'avi'
p3003
I96
sS'00:15:07.0,34.2107514,-118.383619,1219,my'
p3004
I96
sS'hearted'
p3005
I96
sS'bicken'
p3006
I96
sS'days."'
p3007
I96
sS'whore'
p3008
I96
sS'tattoo'
p3009
I96
sS'denial'
p3010
I96
sS',91352\n460258471036719105,kelzsmilez,2014-04-27'
p3011
I96
sS'cross'
p3012
I96
sS'moms'
p3013
I92
sS'digging'
p3014
I96
sS'party'
p3015
I95
sS'gets'
p3016
I91
sS'difficult'
p3017
I95
sS'ball'
p3018
I96
sS'emotionally'
p3019
I96
sS'08:59:48.0,34.2106762,-118.383524,1219,k'
p3020
I96
sS'habakkuk'
p3021
I96
sS'samantha'
p3022
I96
sS'06:17:22.0,34.22620978,-118.3755495,1219,i'
p3023
I96
sS'bald'
p3024
I94
sS'upon'
p3025
I96
sS'romeo'
p3026
I96
sS'takers'
p3027
I96
sS'sisters'
p3028
I95
sS'whale'
p3029
I94
sS'awwww'
p3030
I96
sS'warming'
p3031
I96
sS'08:59:02.0,34.210677,-118.3834571,1219,my'
p3032
I96
sS'off'
p3033
I70
sS'i'
p3034
I1
sS'well'
p3035
I87
sS'fighting'
p3036
I92
sS'thought'
p3037
I94
sS'oops'
p3038
I96
sS'con'
p3039
I96
sS'drawing'
p3040
I96
sS'havimg'
p3041
I96
sS'barking'
p3042
I96
sS'cried'
p3043
I95
sS'less'
p3044
I96
sS'moments'
p3045
I96
sS"should've"
p3046
I93
sS'dose'
p3047
I96
sS'laaaaadiiess'
p3048
I96
sS'yummmmmmmy'
p3049
I96
sS'mistakes'
p3050
I96
sS'happiness'
p3051
I96
sS'spells'
p3052
I96
sS'quiero'
p3053
I96
sS'omgaaaa'
p3054
I96
sS'twilight'
p3055
I96
sS'gma'
p3056
I96
sS'point'
p3057
I87
sS'realize'
p3058
I94
sS'drew'
p3059
I96
sS'arrest'
p3060
I96
sS'add'
p3061
I96
sS'other'
p3062
I86
sS'crack'
p3063
I94
sS'vids'
p3064
I96
sS'ohhh'
p3065
I96
sS'earthquakes'
p3066
I96
sS'kick'
p3067
I95
sS'\xc2\xb7interview'
p3068
I96
sS'depends'
p3069
I96
sS'checking'
p3070
I96
sS'came"'
p3071
I96
sS"who's"
p3072
I94
sS'howto'
p3073
I96
sS'five'
p3074
I96
sS'know'
p3075
I61
sS'nvm'
p3076
I96
sS'tick'
p3077
I95
sS'tecates'
p3078
I96
sS'tragus'
p3079
I95
sS'cardigain'
p3080
I96
sS'like'
p3081
I20
sS'lost'
p3082
I92
sS'01:07:50.0,34.2106848,-118.3836153,1219,i'
p3083
I96
sS'ring'
p3084
I96
sS'\xe2\x99\xa1\xe2\x99\xa1\xe2\x99\xa1\xe2\x99\xa1'
p3085
I95
sS'candy'
p3086
I95
sS'lose'
p3087
I92
sS'leaves'
p3088
I93
sS'works'
p3089
I96
sS'soft'
p3090
I96
sS'page'
p3091
I96
sS'nigga'
p3092
I94
sS'waaaa'
p3093
I96
sS'scared'
p3094
I87
sS'alive'
p3095
I96
sS'tumblr'
p3096
I93
sS'(8004'
p3097
I96
sS'homo'
p3098
I96
sS'shes'
p3099
I93
sS'home'
p3100
I76
sS'liking'
p3101
I96
sS'$400'
p3102
I96
sS'08:58:20.0,34.2106633,-118.3834405,1219,when'
p3103
I96
sS'stap'
p3104
I96
sS'jalapeno'
p3105
I96
sS'patridge'
p3106
I96
sS'literally'
p3107
I87
sS'lol,91605\n473691295899078656,_arieltp8,2014-06-03'
p3108
I96
sS'everyone,91605\n471176734008541184,_arieltp8,2014-05-27'
p3109
I96
sS'does'
p3110
I83
sS'passion'
p3111
I96
sS'range)'
p3112
I96
sS'blurry'
p3113
I96
sS'trap'
p3114
I96
sS'truth'
p3115
I96
sS'accident'
p3116
I96
sS'goatee'
p3117
I96
sS'\xd9\x84\xd8\xa8\xd9\x86\xd8\xa7\xd9\x86\xd9\x8a\xd9\x8a\xd9\x86'
p3118
I96
sS'boyfriens'
p3119
I96
sS'07:25:23.0,34.2107367,-118.383606,1219,according'
p3120
I96
sS'cooking??\xe2\x80\x9d\xe2\x80\x9d'
p3121
I96
sS'amy'
p3122
I96
sS'mikes'
p3123
I96
sS'paste'
p3124
I96
sS'television'
p3125
I96
sS'stage'
p3126
I96
sS'gained'
p3127
I96
sS'sister'
p3128
I95
sS':-)'
p3129
I96
sS'actual'
p3130
I96
sS':-/'
p3131
I95
sS'getting'
p3132
I76
sS'sinister'
p3133
I96
sS'kourtney'
p3134
I95
sS'mofo'
p3135
I96
sS'perks'
p3136
I96
sS'swear'
p3137
I91
sS'saddens'
p3138
I96
sS'self-eateem'
p3139
I96
sS'clooney'
p3140
I96
sS'noho'
p3141
I94
sS'swimming'
p3142
I96
sS'troublebut'
p3143
I96
sS'turtle'
p3144
I95
sS'own'
p3145
I94
sS'krabby'
p3146
I96
sS'pussy'
p3147
I95
sS'lazyass'
p3148
I96
sS'functional'
p3149
I96
sS'socks'
p3150
I96
sS'damnnn'
p3151
I96
sS'doesnt'
p3152
I91
sS'promise'
p3153
I96
sS'tiny'
p3154
I96
sS'female'
p3155
I96
sS'roads'
p3156
I96
sS'ketchup'
p3157
I96
sS'me,91605\n477664200689348608,_arieltp8,2014-06-14'
p3158
I96
sS'crave'
p3159
I96
sS'\xd9\x8a\xd8\xaa\xd9\x85\xd8\xaf\xd9\x86\xd9\x88\xd8\xa7'
p3160
I96
sS'itches'
p3161
I96
sS'lagged'
p3162
I96
sS'daniels'
p3163
I95
sS'groomed'
p3164
I96
sS'noticed'
p3165
I96
sS'beanie'
p3166
I96
sS'selfies.dont'
p3167
I96
sS'omgggggg'
p3168
I96
sS'frustration'
p3169
I96
sS'..\xd8\xa7\xd9\x84\xd8\xb4\xd8\xa8\xd8\xa7\xd8\xa8'
p3170
I96
sS'biggest'
p3171
I95
sS'puta'
p3172
I96
sS'cldnt'
p3173
I96
sS'peppers'
p3174
I96
sS'function'
p3175
I96
sS'buy'
p3176
I82
sS'north'
p3177
I95
sS"i've"
p3178
I81
sS'hs'
p3179
I96
sS'coke'
p3180
I95
sS'bitches'
p3181
I94
sS'hw'
p3182
I91
sS'but'
p3183
I23
sS'delivery'
p3184
I96
sS'reminds'
p3185
I95
sS'natalie'
p3186
I96
sS'ughhh'
p3187
I96
sS'larger'
p3188
I96
sS'phillipians'
p3189
I96
sS'ha'
p3190
I94
sS'eat'
p3191
I82
sS'he'
p3192
I64
sS'count'
p3193
I96
sS'unfollow'
p3194
I96
sS'made'
p3195
I84
sS'nigga\xe2\x80\x9d'
p3196
I96
sS'glory'
p3197
I96
sS'whether'
p3198
I95
sS'wish'
p3199
I68
sS"er's"
p3200
I96
sS'woopie'
p3201
I96
sS'excitement'
p3202
I96
sS'record'
p3203
I96
sS'levis'
p3204
I96
sS'empty'
p3205
I96
sS'pumped'
p3206
I96
sS'cake'
p3207
I96
sS'problem'
p3208
I95
sS'minutes'
p3209
I95
sS'chip'
p3210
I96
sS'dots'
p3211
I96
sS'wifi'
p3212
I96
sS'replying'
p3213
I96
sS'pie'
p3214
I96
sS'ungrateful'
p3215
I96
sS'"so'
p3216
I96
sS'now.,91605\n472840282409414656,_arieltp8,2014-05-31'
p3217
I96
sS'goodness'
p3218
I96
sS'audrina'
p3219
I96
sS'shooting'
p3220
I96
sS'pit'
p3221
I96
sS'ew'
p3222
I94
sS'diego'
p3223
I94
sS'compared'
p3224
I96
sS'loud'
p3225
I96
sS'bulky'
p3226
I96
sS'boot'
p3227
I96
sS'40'
p3228
I96
sS'lately'
p3229
I94
sS'surreal'
p3230
I96
sS'book'
p3231
I95
sS'boom'
p3232
I96
sS'sick'
p3233
I91
sS'coffees'
p3234
I96
sS'junk'
p3235
I96
sS'repeat'
p3236
I95
sS'reallyas'
p3237
I96
sS'monday'
p3238
I92
sS'yours&'
p3239
I96
sS'class'
p3240
I90
sS'outlets'
p3241
I96
sS'stay'
p3242
I93
sS'\xe2\x80\xa0'
p3243
I96
sS'chance'
p3244
I96
sS'log'
p3245
I96
sS'kinda'
p3246
I94
sS'slooooot'
p3247
I96
sS'gap'
p3248
I96
sS'friends'
p3249
I92
sS'christians'
p3250
I96
sS'goin'
p3251
I96
sS'ghost'
p3252
I94
sS'05:55:25.0,34.2107318,-118.383653,1219,neighbors'
p3253
I96
sS'samsung'
p3254
I96
sS'kardashian'
p3255
I96
sS'resolution'
p3256
I96
sS'baker'
p3257
I96
sS'20:47:01.0,34.2106672,-118.3835049,1219,my'
p3258
I96
sS'lasted'
p3259
I96
sS'amanda'
p3260
I96
sS'lol,91605\n490379853695176704,roryfrazier03,2014-07-19'
p3261
I96
sS'diiiiis'
p3262
I96
sS'determination'
p3263
I96
sS'"the'
p3264
I96
sS'yummmmm'
p3265
I96
sS'8th'
p3266
I95
s.