(dp0
S''
p1
I4
sS'ever-'
p2
I94
sS'calums'
p3
I94
sS'todays'
p4
I94
sS'fleury'
p5
I94
sS'hymns'
p6
I94
sS'sad...\xe2\x80\x9d'
p7
I94
sS'foul'
p8
I94
sS'(masss'
p9
I94
sS'yikes'
p10
I94
sS'that..most'
p11
I94
sS'protest'
p12
I94
sS'island'
p13
I94
sS'sleep'
p14
I82
sS'asian'
p15
I93
sS'on..then'
p16
I94
sS'hating'
p17
I94
sS'mansion'
p18
I91
sS'dere'
p19
I94
sS'captain'
p20
I93
sS'hate'
p21
I82
sS'consider'
p22
I94
sS'drinkin'
p23
I93
sS'whose'
p24
I86
sS'swag'
p25
I93
sS'beef..maybe'
p26
I94
sS'spew'
p27
I94
sS'tweet'
p28
I83
sS'sweetest'
p29
I94
sS'stahpppp'
p30
I94
sS'abundance'
p31
I94
sS'bike'
p32
I92
sS'under'
p33
I92
sS'lord'
p34
I88
sS'sorry'
p35
I91
sS'pride'
p36
I93
sS'worth'
p37
I89
sS'sandwhich...ok'
p38
I94
sS'no?\xe2\x80\x9d\xe2\x80\x9d'
p39
I94
sS'17:01:02.0,34.2176991,-118.4171456,1220,stuck'
p40
I94
sS'rescue'
p41
I91
sS'deli'
p42
I94
sS'45.2'
p43
I94
sS'scenes.no'
p44
I94
sS'"knock'
p45
I94
sS'lololol'
p46
I94
sS'crenshaw'
p47
I94
sS'every'
p48
I83
sS'jack'
p49
I91
sS'calentar'
p50
I94
sS'anti-violence'
p51
I94
sS'bringing'
p52
I90
sS'trailer'
p53
I94
sS'chapel'
p54
I93
sS'tickets'
p55
I94
sS'school'
p56
I89
sS'receiving'
p57
I94
sS'bestfriend'
p58
I92
sS'holiness'
p59
I94
sS'bugging'
p60
I94
sS'clientele'
p61
I94
sS'venue'
p62
I94
sS'wednesday'
p63
I94
sS'frozen'
p64
I94
sS'"a"'
p65
I94
sS'life...lies'
p66
I94
sS'grace\xe2\x80\xa6'
p67
I93
sS'harriet'
p68
I94
sS'shows'
p69
I94
sS'president..oh'
p70
I94
sS'clothes'
p71
I90
sS'enjoy'
p72
I93
sS'chew'
p73
I93
sS'force'
p74
I94
sS'controversial'
p75
I94
sS'tired'
p76
I87
sS'\xe0\xb9\x80\xe0\xb8\x82\xe0\xb9\x89\xe0\xb8\xb2\xe0\xb8\xa7\xe0\xb8\xb1\xe0\xb8\x94\xe0\xb8\x9a\xe0\xb9\x89\xe0\xb8\xb2\xe0\xb8\x87\xe0\xb8\x81\xe0\xb9\x89\xe0\xb8\x94\xe0\xb8\xb5\xe0\xb8\x99\xe0\xb8\xb0'
p77
I94
sS'phones'
p78
I91
sS'hahahame'
p79
I94
sS'bacon'
p80
I93
sS'direct'
p81
I94
sS'pulse'
p82
I94
sS'preaches'
p83
I94
sS'likely'
p84
I92
sS'street'
p85
I92
sS'word...beiber'
p86
I94
sS'air'
p87
I94
sS'nigs'
p88
I94
sS'even'
p89
I67
sS'christ'
p90
I90
sS'roddy'
p91
I91
sS'thunder'
p92
I94
sS'+'
p93
I93
sS'hahahahahahahahaha'
p94
I94
sS'fingers'
p95
I89
sS'dodgy'
p96
I94
sS'god..and'
p97
I93
sS'haze'
p98
I94
sS'ummmmmm....who'
p99
I94
sS'hard...and'
p100
I94
sS'(in'
p101
I94
sS'above'
p102
I94
sS'tape"'
p103
I94
sS'new'
p104
I61
sS'tips'
p105
I93
sS'ever'
p106
I72
sS'disney'
p107
I94
sS'told'
p108
I89
sS'er...yeah'
p109
I94
sS'pats'
p110
I94
sS'kicked'
p111
I93
sS'hero'
p112
I94
sS'zack'
p113
I93
sS'throwin'
p114
I94
sS'pancakes'
p115
I94
sS'join'
p116
I93
sS'never'
p117
I66
sS'here'
p118
I64
sS'\xe2\x9d\xa4\xef\xb8\x8f'
p119
I87
sS'nawt'
p120
I94
sS'studio'
p121
I88
sS'humility'
p122
I94
sS'path'
p123
I93
sS'100'
p124
I93
sS"aren't"
p125
I89
sS'nayely'
p126
I94
sS'dry'
p127
I93
sS'ridiculo'
p128
I94
sS'luther'
p129
I93
sS'kids'
p130
I88
sS'jams'
p131
I94
sS'k'
p132
I93
sS'changed'
p133
I93
sS'"why'
p134
I94
sS'oxymoron'
p135
I94
sS'product/stuff'
p136
I94
sS'credit'
p137
I94
sS'hannibal'
p138
I94
sS"i'd"
p139
I91
sS'mentor'
p140
I93
sS'smoke'
p141
I92
sS'trooper'
p142
I94
sS'vigo'
p143
I94
sS"i'm"
p144
I14
sS'aikido'
p145
I94
sS'changes'
p146
I94
sS'bodies.\xe2\x80\x9d'
p147
I94
sS'fell'
p148
I94
sS'bloomer'
p149
I94
sS'golden'
p150
I93
sS'fantastic'
p151
I94
sS'resurrected'
p152
I94
sS'campaign'
p153
I94
sS'touchdowns'
p154
I94
sS'implode'
p155
I94
sS'hamar'
p156
I94
sS'bro'
p157
I92
sS'there.\xe2\x80\x9d'
p158
I94
sS'thursday'
p159
I94
sS'drowned'
p160
I94
sS'stern'
p161
I93
sS'actions'
p162
I94
sS'unit'
p163
I94
sS'sarah'
p164
I94
sS'plot'
p165
I93
sS'plow'
p166
I94
sS'charge'
p167
I94
sS'would'
p168
I70
sS'geisha'
p169
I94
sS'hospital'
p170
I94
sS'played'
p171
I92
sS'romney'
p172
I94
sS'7260'
p173
I88
sS'bronze'
p174
I94
sS'salame'
p175
I94
sS'cali'
p176
I93
sS'music'
p177
I78
sS'therefore'
p178
I94
sS'chewing'
p179
I94
sS'tryin'
p180
I93
sS'type'
p181
I93
sS'tell'
p182
I84
sS'9/1'
p183
I94
sS'separated'
p184
I94
sS'beyond'
p185
I94
sS'<='
p186
I94
sS'females'
p187
I93
sS'posting'
p188
I93
sS'holy'
p189
I94
sS'relax'
p190
I94
sS'successful'
p191
I93
sS'brings'
p192
I93
sS"lavc's"
p193
I94
sS'haha'
p194
I63
sS'wars'
p195
I94
sS'award'
p196
I93
sS'hurt'
p197
I93
sS'lunge'
p198
I94
sS'phone'
p199
I87
sS'arms'
p200
I94
sS'separates'
p201
I94
sS'ward'
p202
I94
sS'hold'
p203
I91
sS'dindin'
p204
I94
sS'94'
p205
I94
sS"must've"
p206
I94
sS'must'
p207
I87
sS'shoot'
p208
I89
sS'ma'
p209
I93
sS'room'
p210
I92
sS'mc'
p211
I94
sS'swiped'
p212
I94
sS'setup'
p213
I94
sS'work'
p214
I64
sS'gasoline'
p215
I94
sS'tnx'
p216
I94
sS'significantly'
p217
I94
sS'mj'
p218
I94
sS'movies'
p219
I92
sS'friends,91605\n526267215503314946,xcaretete,2014-10-26'
p220
I94
sS'it...evangelism'
p221
I94
sS'sweeter'
p222
I94
sS'henry'
p223
I93
sS'akin'
p224
I94
sS'my'
p225
I8
sS'mcgassy'
p226
I94
sS'vodka'
p227
I94
sS'la)'
p228
I94
sS'thirsty'
p229
I94
sS'give'
p230
I77
sS'indie'
p231
I94
sS'hebrew'
p232
I94
sS'india'
p233
I94
sS'house"'
p234
I94
sS'homie'
p235
I91
sS'caused'
p236
I94
sS'want'
p237
I48
sS'today...actually'
p238
I94
sS'organizer'
p239
I94
sS'times'
p240
I83
sS'"usa"'
p241
I94
sS'\xe0\xb8\xaa\xe0\xb8\xb2\xe0\xb8\x97\xe0\xb8\xb8'
p242
I92
sS'video?\xe2\x80\x9d'
p243
I94
sS'end'
p244
I90
sS'recovery'
p245
I94
sS'thing'
p246
I80
sS'complaining'
p247
I94
sS'hoo'
p248
I94
sS'travel'
p249
I93
sS'sitting'
p250
I92
sS'nuts'
p251
I92
sS'(on'
p252
I94
sS'far'
p253
I89
sS'amazing'
p254
I86
sS'writers'
p255
I94
sS'hop'
p256
I91
sS'rewind'
p257
I94
sS'answer'
p258
I90
sS'yum'
p259
I93
sS'faulty'
p260
I94
sS'beach'
p261
I88
sS'pizza'
p262
I93
sS'badly'
p263
I94
sS'elizabeth'
p264
I94
sS'beauty'
p265
I94
sS'bday'
p266
I93
sS'cavs'
p267
I94
sS'after'
p268
I82
sS'lump'
p269
I94
sS'complicated'
p270
I94
sS'wrong'
p271
I83
sS'orleans)'
p272
I94
sS'mph'
p273
I94
sS'"working"'
p274
I94
sS'orleans"'
p275
I94
sS'president'
p276
I92
sS'lav'
p277
I94
sS'types'
p278
I94
sS'shaw'
p279
I94
sS'simpsons'
p280
I93
sS'horchata'
p281
I94
sS'danny'
p282
I94
sS"angela's"
p283
I94
sS'wins'
p284
I94
sS"colts'"
p285
I94
sS'encounter.\xe2\x80\x9d'
p286
I94
sS'appreciate'
p287
I92
sS'girl/woman'
p288
I94
sS'greek'
p289
I94
sS'green'
p290
I91
sS'ultimate'
p291
I94
sS'goodbye'
p292
I94
sS'ambulance'
p293
I94
sS'worst'
p294
I87
sS'first'
p295
I80
sS"buck'"
p296
I94
sS'wind'
p297
I94
sS'wine'
p298
I94
sS'tonight..life'
p299
I94
sS'beaters'
p300
I94
sS'office'
p301
I91
sS'imyt'
p302
I94
sS'muffin'
p303
I94
sS'over'
p304
I79
sS'fam'
p305
I91
sS'year...damn'
p306
I94
sS'expects'
p307
I94
sS'loss...ha'
p308
I94
sS'tehan'
p309
I94
sS'onesies'
p310
I94
sS'fellas'
p311
I94
sS'hip-hop'
p312
I94
sS'before'
p313
I86
sS'ima'
p314
I93
sS'past...from'
p315
I94
sS'fit'
p316
I92
sS'sliders'
p317
I94
sS'personal'
p318
I93
sS'screaming'
p319
I93
sS'fix'
p320
I91
sS'irani'
p321
I94
sS'imo'
p322
I93
sS'crew'
p323
I94
sS'better'
p324
I68
sS'405'
p325
I94
sS'production'
p326
I94
sS'fade'
p327
I94
sS'imy'
p328
I94
sS'corinthians'
p329
I94
sS'weeks'
p330
I94
sS'easier'
p331
I94
sS'confidently'
p332
I94
sS'then'
p333
I86
sS'them'
p334
I68
sS'"new'
p335
I93
sS'3:44'
p336
I94
sS'thrones'
p337
I94
sS'sneezing'
p338
I94
sS'workout'
p339
I92
sS'safe'
p340
I92
sS"we'll"
p341
I91
sS'welcome"'
p342
I94
sS'cuties'
p343
I94
sS'break'
p344
I88
sS'band'
p345
I92
sS'bang'
p346
I91
sS'paulina'
p347
I94
sS'they'
p348
I69
sS'interrupt'
p349
I94
sS'one'
p350
I36
sS'weenie'
p351
I94
sS'bank'
p352
I93
sS'heyyyy'
p353
I94
sS'innings'
p354
I94
sS'$5+'
p355
I94
sS'grammar'
p356
I94
sS'it..have'
p357
I94
sS'potatoes'
p358
I94
sS'arrested'
p359
I94
sS'"fix"'
p360
I94
sS'same...if'
p361
I94
sS'oh...well'
p362
I94
sS'filling'
p363
I94
sS'holdin'
p364
I94
sS'victory'
p365
I94
sS'each'
p366
I89
sS'addicted'
p367
I93
sS'went'
p368
I80
sS'bong'
p369
I94
sS'side'
p370
I88
sS'carlos'
p371
I94
sS'mean'
p372
I80
sS'cumn'
p373
I94
sS'wsj'
p374
I94
sS'financial'
p375
I94
sS'fans.\xe2\x80\x9d'
p376
I94
sS'is..people'
p377
I94
sS'gunna'
p378
I92
sS'series'
p379
I92
sS'diane'
p380
I94
sS'allan'
p381
I93
sS'group'
p382
I94
sS'40zn'
p383
I94
sS'celebrating'
p384
I92
sS'man...its'
p385
I94
sS'forgot'
p386
I91
sS'8:30...starting'
p387
I94
sS'flock'
p388
I94
sS'to)'
p389
I94
sS"peace..it's"
p390
I94
sS'saturday'
p391
I90
sS'rt'
p392
I91
sS'by'
p393
I56
sS'gon'
p394
I94
sS'driving'
p395
I92
sS'sang'
p396
I94
sS'god'
p397
I70
sS'hooked'
p398
I94
sS'la\xe2\x80\x9d'
p399
I94
sS'lurks'
p400
I94
sS'tomorrow'
p401
I82
sS'collaborated'
p402
I94
sS'watch.\xe2\x80\x9d'
p403
I94
sS'laid'
p404
I94
sS'loathe'
p405
I94
sS'gutierrez'
p406
I94
sS'smh'
p407
I84
sS'heavenly'
p408
I94
sS'got'
p409
I57
sS'rn'
p410
I77
sS'vagina'
p411
I94
sS'forth'
p412
I94
sS'myself..lol'
p413
I94
sS'foundation'
p414
I94
sS'arizona'
p415
I94
sS'turning'
p416
I94
sS"inspirers..here's"
p417
I94
sS'cutest'
p418
I91
sS"doesn't"
p419
I77
sS'"ain\'t'
p420
I94
sS'given'
p421
I92
sS'free'
p422
I91
sS'standard'
p423
I94
sS"log'"
p424
I94
sS'struggle'
p425
I94
sS'hoodie'
p426
I94
sS'returning'
p427
I94
sS'wanted'
p428
I88
sS'soundcloud'
p429
I94
sS'jubilant'
p430
I93
sS'whattt'
p431
I94
sS'atd'
p432
I94
sS'ate'
p433
I94
sS'atb'
p434
I93
sS'"5'
p435
I94
sS'them..they'
p436
I94
sS'starts'
p437
I92
sS'atl'
p438
I94
sS'messages'
p439
I94
sS'days'
p440
I87
sS'"this'
p441
I94
sS'filter'
p442
I94
sS'ish'
p443
I94
sS'"no'
p444
I94
sS"today's"
p445
I92
sS'soda'
p446
I93
sS'doers'
p447
I94
sS'shootin'
p448
I93
sS'(at'
p449
I94
sS'fuckin'
p450
I91
sS'tijuana'
p451
I93
sS'matters.\xe2\x80\x9d'
p452
I94
sS'already'
p453
I80
sS'champs'
p454
I94
sS'accent'
p455
I94
sS'scvle'
p456
I94
sS'pleaseeeeee'
p457
I94
sS'hook'
p458
I94
sS'her\xe2\x80\xa6'
p459
I94
sS'another'
p460
I81
sS'comin'
p461
I94
sS'rendel'
p462
I94
sS'scissors'
p463
I94
sS'thick'
p464
I94
sS'riot..does'
p465
I94
sS'ballin'
p466
I93
sS'hood'
p467
I93
sS'plate'
p468
I94
sS'basketball'
p469
I93
sS'danchrism'
p470
I94
sS'service'
p471
I93
sS'top'
p472
I93
sS'esor'
p473
I94
sS'girls'
p474
I86
sS'twisted'
p475
I94
sS'elevator'
p476
I94
sS"he'll"
p477
I94
sS'needed'
p478
I93
sS'community...\xe2\x80\x9d'
p479
I94
sS'swag.\xe2\x80\x9d'
p480
I94
sS'ton'
p481
I94
sS'too'
p482
I67
sS'scene)'
p483
I89
sS'rockin'
p484
I94
sS'hollywood'
p485
I74
sS'john'
p486
I90
sS'dogs'
p487
I91
sS'listen'
p488
I90
sS'protesting'
p489
I94
sS'paso'
p490
I94
sS'gr8'
p491
I94
sS'gym'
p492
I93
sS'serve'
p493
I94
sS'took'
p494
I89
sS'trippy'
p495
I94
sS'sneaky'
p496
I94
sS'grinding<3'
p497
I94
sS'runs\xe2\x80\xa6.combined.\xe2\x80\x9d'
p498
I94
sS'stuff..it'
p499
I94
sS'thankksss\xe2\x80\x9d'
p500
I94
sS'wardrobe'
p501
I94
sS'fil'
p502
I94
sS'bebe'
p503
I94
sS'"make'
p504
I94
sS'trek'
p505
I94
sS'anxiety'
p506
I94
sS'target'
p507
I93
sS'showed'
p508
I92
sS'burger'
p509
I94
sS'tree'
p510
I92
sS'second'
p511
I92
sS'attn'
p512
I94
sS'merch'
p513
I93
sS'matter'
p514
I93
sS'idle'
p515
I94
sS'fabulous'
p516
I94
sS'silly'
p517
I94
sS'speaking'
p518
I90
sS'hottie'
p519
I94
sS'9:30am'
p520
I94
sS'seminary'
p521
I93
sS'feeling'
p522
I89
sS'este'
p523
I93
sS'fashion'
p524
I94
sS'esta'
p525
I94
sS'2-3'
p526
I94
sS'ran'
p527
I94
sS'mina'
p528
I93
sS'mind'
p529
I88
sS'mine'
p530
I86
sS'td\xe2\x80\x9d'
p531
I94
sS'anybody'
p532
I92
sS'talking'
p533
I85
sS'bimmer'
p534
I94
sS'shell'
p535
I93
sS'07:36:05.0,34.2177535,-118.417156,1220,im'
p536
I94
sS'lunchtime'
p537
I94
sS'seen'
p538
I88
sS'besiktas'
p539
I94
sS'mins'
p540
I93
sS'seek'
p541
I94
sS'\xe0\xb9\x80\xe0\xb8\xa2\xe0\xb8\x99\xe0\xb8\xaa\xe0\xb8\x9a\xe0\xb8\xb2\xe0\xb8\xa2'
p542
I94
sS'ray'
p543
I92
sS'maaaaaad'
p544
I94
sS'strength'
p545
I93
sS'do"'
p546
I94
sS'-'
p547
I85
sS'eagerly'
p548
I94
sS'crews'
p549
I94
sS'doors'
p550
I94
sS'laughed'
p551
I94
sS'paintballing'
p552
I94
sS'triceratops.\xe2\x80\x9d'
p553
I94
sS"soup'"
p554
I94
sS'relevant'
p555
I94
sS"girl's"
p556
I94
sS'exactly'
p557
I94
sS'though'
p558
I87
sS'thrilled'
p559
I94
sS'doin'
p560
I94
sS'tomorrowwith'
p561
I94
sS"aunt's"
p562
I94
sS'rumble'
p563
I94
sS'regular'
p564
I94
sS'germany'
p565
I93
sS'romo'
p566
I94
sS'hollywood/vine'
p567
I93
sS'worst\xe2\x80\x9d'
p568
I94
sS'germans'
p569
I94
sS'don'
p570
I93
sS'citywalk'
p571
I94
sS'championships..what'
p572
I94
sS'doc'
p573
I94
sS'"read"'
p574
I94
sS'flow'
p575
I91
sS'dog'
p576
I94
sS'lebummmmmmmmmmmmmm'
p577
I94
sS'pooping'
p578
I94
sS'freeway'
p579
I94
sS'points'
p580
I93
sS'newsfeed'
p581
I94
sS'scotch'
p582
I94
sS'scream'
p583
I94
sS'came'
p584
I89
sS'saying'
p585
I88
sS'bomb'
p586
I94
sS'lyrics'
p587
I94
sS'903-7397'
p588
I94
sS'queen'
p589
I93
sS'ending'
p590
I93
sS'pops'
p591
I94
sS'religions'
p592
I94
sS'radio'
p593
I89
sS'earth'
p594
I93
sS"chili's"
p595
I94
sS'enjoyed'
p596
I94
sS'kennels'
p597
I94
sS'orleans'
p598
I89
sS'busy'
p599
I94
sS'exciting\xe2\x80\x9d'
p600
I94
sS'lights'
p601
I94
sS'cousins'
p602
I94
sS'explain'
p603
I91
sS'twixtor'
p604
I94
sS'lmaoooo\xe2\x80\x9d\xe2\x80\x9d'
p605
I94
sS'bust'
p606
I94
sS'appreciated'
p607
I94
sS'hand...i'
p608
I94
sS'dumbfuck'
p609
I94
sS'unlucky'
p610
I94
sS'touched'
p611
I94
sS'rich'
p612
I93
sS'superman\xe2\x80\x9d'
p613
I94
sS'scriptura'
p614
I94
sS'announce'
p615
I94
sS'chipotle'
p616
I94
sS'scripture'
p617
I94
sS'unfollow'
p618
I94
sS'wearing'
p619
I89
sS'monica'
p620
I92
sS'dm'
p621
I93
sS'asians'
p622
I93
sS'10'
p623
I91
sS'de'
p624
I92
sS'watch'
p625
I78
sS'retweet)\xe2\x80\x9d'
p626
I94
sS'stor'
p627
I94
sS'da'
p628
I89
sS'frowning'
p629
I94
sS'wedding'
p630
I92
sS'report'
p631
I94
sS'nasty'
p632
I94
sS'dr'
p633
I94
sS'chanel'
p634
I94
sS'disses'
p635
I94
sS'bar'
p636
I92
sS'officially'
p637
I93
sS'emo'
p638
I93
sS'fails...restart'
p639
I94
sS'bay'
p640
I92
sS'bag'
p641
I94
sS'bad'
p642
I72
sS'bae'
p643
I87
sS'brand..so'
p644
I94
sS'gears'
p645
I94
sS'shots'
p646
I94
sS'brentford'
p647
I94
sS'grilled'
p648
I94
sS'mobilized...this'
p649
I94
sS'ruins'
p650
I94
sS'thumbs'
p651
I94
sS'respond'
p652
I93
sS'sofserve'
p653
I94
sS'decides'
p654
I94
sS'beso'
p655
I94
sS'fair'
p656
I93
sS'w/'
p657
I85
sS'flosstradamus'
p658
I94
sS'nut'
p659
I94
sS'deb"'
p660
I94
sS"kanye's"
p661
I94
sS'goodnight'
p662
I91
sS'x\xe2\x80\x9d'
p663
I94
sS'for\xe2\x80\xa6'
p664
I93
sS'todayyyyyy'
p665
I94
sS'steal'
p666
I94
sS',91605\n526479051200790529,xcaretete,2014-10-26'
p667
I94
sS'nocturnal'
p668
I93
sS'jerseys'
p669
I94
sS'"fuck'
p670
I94
sS'best'
p671
I76
sS'(aka'
p672
I94
sS'02'
p673
I94
sS'mission\xe2\x80\xa6'
p674
I94
sS'said'
p675
I82
sS'draws'
p676
I92
sS'onto'
p677
I94
sS'inappropriate'
p678
I93
sS'lots'
p679
I92
sS'away'
p680
I93
sS'gentleman'
p681
I94
sS'mud'
p682
I94
sS'mug'
p683
I94
sS"there's"
p684
I90
sS'mua'
p685
I94
sS'hopefully'
p686
I93
sS'mum'
p687
I94
sS'drawn'
p688
I94
sS'hungover'
p689
I94
sS'really...thanks'
p690
I94
sS'out...and'
p691
I94
sS'lazy'
p692
I92
sS'men'
p693
I91
sS'omg'
p694
I70
sS'wears'
p695
I94
sS'him..but'
p696
I94
sS'sera'
p697
I94
sS'weak'
p698
I93
sS'everyday..and'
p699
I94
sS'shock...once'
p700
I94
sS'loading'
p701
I94
sS'bosh'
p702
I92
sS'wear'
p703
I91
sS'wtf'
p704
I87
sS'visited'
p705
I94
sS'wth'
p706
I93
sS'news'
p707
I93
sS'picking'
p708
I93
sS'debt'
p709
I94
sS'kitchen'
p710
I92
sS'faced'
p711
I94
sS'cop'
p712
I94
sS'aching'
p713
I94
sS'nerdy...if'
p714
I94
sS'cow'
p715
I94
sS'met'
p716
I93
sS'bachelorette'
p717
I94
sS'country'
p718
I83
sS'ill'
p719
I88
sS'ncaa'
p720
I94
sS'adventures'
p721
I94
sS'against'
p722
I89
sS'players'
p723
I94
sS'negative'
p724
I94
sS'games'
p725
I93
sS'spurs'
p726
I92
sS'lookin'
p727
I94
sS'logic'
p728
I94
sS'china'
p729
I94
sS'brah'
p730
I94
sS'pinas'
p731
I94
sS'asked'
p732
I92
sS'coo'
p733
I94
sS'ily'
p734
I93
sS'loll\xe2\x80\x9d'
p735
I94
sS'tough'
p736
I94
sS'relatable'
p737
I94
sS'listening'
p738
I94
sS'legs'
p739
I94
sS'betting'
p740
I93
sS'thierry'
p741
I94
sS'2nd'
p742
I93
sS'aftermath'
p743
I94
sS'tony'
p744
I90
sS'blonde'
p745
I94
sS'trust'
p746
I89
sS'november'
p747
I94
sS'hitler'
p748
I94
sS'tasted'
p749
I94
sS'conference'
p750
I91
sS'lighthouse'
p751
I93
sS'<---'
p752
I93
sS't.co/vstjuli'
p753
I94
sS'sam'
p754
I94
sS'beef'
p755
I94
sS'"you'
p756
I94
sS'ruin'
p757
I94
sS'lol...it'
p758
I94
sS'been'
p759
I70
sS'cyrus'
p760
I93
sS'oooooo'
p761
I94
sS'confident'
p762
I94
sS'beer'
p763
I94
sS'much'
p764
I64
sS'basic'
p765
I94
sS'fry'
p766
I94
sS'lovely'
p767
I94
sS'piccolo'
p768
I94
sS'life'
p769
I55
sS'loft'
p770
I94
sS'man"'
p771
I94
sS'drugs'
p772
I94
sS'connotation'
p773
I94
sS'3.2/1'
p774
I94
sS'sunshine'
p775
I94
sS'sooooo'
p776
I91
sS'ariana'
p777
I94
sS'afternoons'
p778
I94
sS'giants.\xe2\x80\x9d'
p779
I94
sS'fest'
p780
I93
sS'bible'
p781
I94
sS'slap'
p782
I94
sS'child'
p783
I93
sS'kurrrikkss'
p784
I94
sS'chill'
p785
I89
sS'robert_m_anderson'
p786
I94
sS'has'
p787
I65
sS'tank'
p788
I94
sS'dasi'
p789
I94
sS'launches'
p790
I94
sS'annnnnnd'
p791
I94
sS"earth's"
p792
I94
sS'n'
p793
I83
sS'aim'
p794
I93
sS'ugly'
p795
I91
sS'near'
p796
I92
sS'cross-referencing'
p797
I94
sS'chick-fil-a'
p798
I94
sS'tvisperas'
p799
I94
sS'voice'
p800
I91
sS'supppp'
p801
I94
sS'launched'
p802
I94
sS'mistake'
p803
I94
sS'seven'
p804
I94
sS'ginobli'
p805
I94
sS'mexico'
p806
I93
sS'worldcup'
p807
I94
sS'loml'
p808
I94
sS'is'
p809
I10
sS'sushi'
p810
I93
sS'untucc'
p811
I94
sS'it'
p812
I15
sS'babies.\xe2\x80\x9d'
p813
I94
sS'cant'
p814
I94
sS'mascara'
p815
I94
sS'im'
p816
I73
sS'cone'
p817
I94
sS'hairspray'
p818
I94
sS'in'
p819
I9
sS'dallas'
p820
I94
sS'ignoring'
p821
I94
sS"things..we've"
p822
I94
sS'beefy'
p823
I94
sS'if'
p824
I38
sS'beautlful'
p825
I94
sS'soldier'
p826
I94
sS'austin'
p827
I94
sS'things'
p828
I73
sS'make'
p829
I71
sS'mayb'
p830
I94
sS'wound'
p831
I94
sS'linked'
p832
I94
sS'10yrs'
p833
I94
sS'vanessa'
p834
I94
sS'300'
p835
I94
sS'"people"'
p836
I94
sS'250000'
p837
I94
sS'babies'
p838
I94
sS'adfjjsjjahababahaba'
p839
I94
sS'80s'
p840
I94
sS'convictions'
p841
I94
sS'bunny'
p842
I94
sS'yung'
p843
I94
sS'independent'
p844
I93
sS'ily2'
p845
I94
sS'saids'
p846
I94
sS'twiddling'
p847
I94
sS'ephesians'
p848
I94
sS'dildo'
p849
I94
sS'scarface'
p850
I94
sS'social'
p851
I94
sS'hang'
p852
I94
sS'evil'
p853
I92
sS'dillinger'
p854
I93
sS'marched'
p855
I94
sS'twinks'
p856
I94
sS'lol\xe2\x80\x9d'
p857
I94
sS'jealous'
p858
I93
sS'tuna'
p859
I94
sS'opportunity'
p860
I92
sS'aka'
p861
I91
sS'tune'
p862
I93
sS'kid'
p863
I91
sS'butter'
p864
I94
sS'wtffffff'
p865
I94
sS'kept'
p866
I93
sS'lmaooooooooo'
p867
I94
sS'thx'
p868
I94
sS'tht'
p869
I93
sS'mentors'
p870
I94
sS'yas'
p871
I94
sS'tho'
p872
I83
sS'hispanic'
p873
I94
sS'greatest'
p874
I87
sS'qualities'
p875
I94
sS'\xe0\xb8\x87\xe0\xb8\xb2\xe0\xb8\x99\xe0\xb8\x9a\xe0\xb8\xa7\xe0\xb8\x8a'
p876
I94
sS'anchorman'
p877
I94
sS'claims'
p878
I94
sS'the'
p879
I1
sS'blood..pray'
p880
I94
sS'yours'
p881
I91
sS'left'
p882
I89
sS'snowman'
p883
I94
sS'slutty'
p884
I94
sS"she'll"
p885
I93
sS'cam'
p886
I94
sS'kale'
p887
I94
sS'just'
p888
I22
sS'turnthefuckup'
p889
I94
sS'yea'
p890
I90
sS'photo'
p891
I80
sS'||'
p892
I94
sS'sleepy'
p893
I93
sS'hahahha'
p894
I94
sS'assigned'
p895
I94
sS'everton'
p896
I94
sS'lmaoooooo\xe2\x80\x9d'
p897
I94
sS'thanks'
p898
I68
sS'human'
p899
I91
sS'v\xe2\x80\x9d'
p900
I94
sS'yes'
p901
I78
sS'wuvs'
p902
I94
sS'yet'
p903
I90
sS'note'
p904
I94
sS'antes'
p905
I94
sS'vid'
p906
I93
sS'kagawa'
p907
I94
sS'omfg'
p908
I94
sS'photographer'
p909
I94
sS'ela'
p910
I94
sS'had'
p911
I65
sS'seem'
p912
I94
sS'tbh\xe2\x80\x9d'
p913
I94
sS"hip-hop's"
p914
I94
sS'shout'
p915
I94
sS'have!\xe2\x80\x9d'
p916
I94
sS'rumor'
p917
I94
sS'fans...s/o'
p918
I94
sS'east'
p919
I93
sS'hat'
p920
I94
sS'tolerable'
p921
I94
sS'gave'
p922
I91
sS'bandz'
p923
I94
sS'faith..to'
p924
I94
sS'preseason'
p925
I94
sS'osman'
p926
I94
sS'tmro'
p927
I94
sS'breaks'
p928
I93
sS'possible'
p929
I93
sS'hhahaha'
p930
I94
sS'arab'
p931
I94
sS'possibly'
p932
I93
sS'boxes'
p933
I91
sS'life.\xe2\x80\x9d'
p934
I93
sS'orthodontic'
p935
I94
sS'destroy'
p936
I94
sS'judge'
p937
I93
sS'poser'
p938
I94
sS'burns'
p939
I94
sS'wetshirt'
p940
I94
sS'dreams'
p941
I92
sS'apart'
p942
I94
sS'artists'
p943
I94
sS'brought'
p944
I92
sS'killed\xe2\x80\xa6'
p945
I94
sS'bovada'
p946
I93
sS'gift'
p947
I94
sS'texts'
p948
I94
sS'sometimes...leave'
p949
I94
sS'bobby'
p950
I94
sS'50'
p951
I92
sS'52'
p952
I94
sS'\xe2\x99\x89\xef\xb8\x8f\xe2\x99\x89\xef\xb8\x8f\xe2\x99\x89\xef\xb8\x8f\xe2\x99\x89\xef\xb8\x8f\xe2\x99\x89\xef\xb8\x8f\xe2\x99\x89\xef\xb8\x8f\xe2\x99\x89\xef\xb8\x8f\xe2\x99\x89\xef\xb8\x8f\xe2\x99\x89\xef\xb8\x8f\xe2\x99\x89\xef\xb8\x8f\xe2\x99\x89\xef\xb8\x8f\xe2\x99\x89\xef\xb8\x8f\xe2\x99\x89\xef\xb8\x8f'
p953
I94
sS'purchase'
p954
I94
sS'overrated'
p955
I94
sS'night'
p956
I63
sS'matchup'
p957
I94
sS'sometime'
p958
I94
sS'999)'
p959
I94
sS'right'
p960
I51
sS'old'
p961
I91
sS'estar\xc3\xa1'
p962
I94
sS'deal'
p963
I93
sS'people'
p964
I40
sS'crown'
p965
I94
sS'begin'
p966
I93
sS'?\xe2\x80\x9d'
p967
I93
sS'wwe'
p968
I94
sS'scrimmage'
p969
I94
sS'clubs'
p970
I94
sS'*watches'
p971
I94
sS'chka'
p972
I94
sS'helpin'
p973
I94
sS'dear'
p974
I94
sS'babebebabebebebabbebebabebebebebebebebabbbeb'
p975
I94
sS'2hours'
p976
I94
sS'service..communities'
p977
I94
sS'finna'
p978
I94
sS'lying'
p979
I94
sS'saved'
p980
I94
sS'cnt'
p981
I92
sS"daddy's"
p982
I94
sS'humor'
p983
I94
sS'for'
p984
I11
sS'bottom'
p985
I93
sS'stronger'
p986
I94
sS'maannn'
p987
I94
sS'price'
p988
I94
sS'opposite'
p989
I94
sS'fox'
p990
I93
sS'trxye'
p991
I94
sS'/'
p992
I93
sS'creative'
p993
I93
sS'everything'
p994
I82
sS'asking'
p995
I92
sS'arrest'
p996
I94
sS'cheesecake'
p997
I94
sS'beating'
p998
I94
sS'christmas'
p999
I91
sS'officer'
p1000
I94
sS'glowin'
p1001
I94
sS'holiday'
p1002
I94
sS'scared.\xe2\x80\x9d'
p1003
I94
sS'pls'
p1004
I92
sS'-luke'
p1005
I94
sS'ww3'
p1006
I94
sS'posi'
p1007
I94
sS'tho\xe2\x80\x9d'
p1008
I94
sS'payment'
p1009
I94
sS'burn'
p1010
I94
sS'peed'
p1011
I93
sS'cork'
p1012
I94
sS'aside...what'
p1013
I94
sS'ivan'
p1014
I94
sS'cheating'
p1015
I94
sS'occurred'
p1016
I94
sS'cancer-related'
p1017
I94
sS'peep'
p1018
I93
sS'pll'
p1019
I94
sS'super'
p1020
I94
sS'yelling'
p1021
I94
sS'hudgens'
p1022
I94
sS'*in'
p1023
I94
sS'dollars'
p1024
I93
sS'months'
p1025
I91
sS'turnttt'
p1026
I94
sS'o'
p1027
I93
sS'dinner'
p1028
I93
sS'plus'
p1029
I93
sS'afternoon'
p1030
I93
sS'donuts'
p1031
I94
sS'excellent'
p1032
I94
sS'palestinians'
p1033
I94
sS'badabing'
p1034
I94
sS'sweater'
p1035
I94
sS'tonights'
p1036
I94
sS'functions'
p1037
I94
sS'raised'
p1038
I94
sS'whats'
p1039
I94
sS'subs'
p1040
I94
sS'civic'
p1041
I94
sS'washed'
p1042
I94
sS'pays'
p1043
I92
sS'selfie'
p1044
I94
sS'obliterary'
p1045
I94
sS'son'
p1046
I92
sS'down'
p1047
I66
sS'thankful'
p1048
I92
sS'bats'
p1049
I94
sS'ppv'
p1050
I94
sS'facetims'
p1051
I94
sS'then?\xe2\x80\x9d'
p1052
I94
sS'wrap'
p1053
I94
sS'sox'
p1054
I94
sS'parade'
p1055
I94
sS'-beckie'
p1056
I94
sS'wan'
p1057
I94
sS'rely'
p1058
I93
sS'lolololololol'
p1059
I94
sS'you!\xe2\x80\x9d'
p1060
I94
sS'support'
p1061
I91
sS'constantly'
p1062
I94
sS'available'
p1063
I94
sS'sovereign'
p1064
I94
sS'fight'
p1065
I91
sS'gig'
p1066
I94
sS'absolutely'
p1067
I93
sS'way'
p1068
I83
sS'systems)'
p1069
I92
sS'rapes'
p1070
I94
sS'call'
p1071
I88
sS'tomorrowme'
p1072
I94
sS'wat'
p1073
I93
sS'was'
p1074
I39
sS'happy'
p1075
I66
sS'starve'
p1076
I94
sS'head'
p1077
I91
sS'yolo'
p1078
I94
sS'northridge'
p1079
I94
sS'form'
p1080
I93
sS'offer'
p1081
I93
sS'becoming'
p1082
I93
sS'gorgeous'
p1083
I93
sS'(90.3fm)'
p1084
I94
sS'ford'
p1085
I94
sS'heat'
p1086
I88
sS'hear'
p1087
I93
sS'dead'
p1088
I89
sS're-birth'
p1089
I94
sS'yknoe'
p1090
I94
sS'true'
p1091
I90
sS'viva'
p1092
I94
sS'injury'
p1093
I94
sS'retire'
p1094
I94
sS'whyy'
p1095
I94
sS'tinychat'
p1096
I94
sS'sermons'
p1097
I94
sS'inside'
p1098
I93
sS'mtv'
p1099
I94
sS'strongest'
p1100
I94
sS'iqs'
p1101
I94
sS'until'
p1102
I88
sS"<---doesn't"
p1103
I94
sS'break-up'
p1104
I94
sS'adore'
p1105
I94
sS'meters'
p1106
I94
sS'daddy'
p1107
I93
sS'nerds'
p1108
I93
sS'delete'
p1109
I91
sS'reevaluate'
p1110
I94
sS'phil'
p1111
I94
sS'mariela'
p1112
I94
sS'sticks'
p1113
I94
sS'classic'
p1114
I92
sS'rns'
p1115
I94
sS'request'
p1116
I94
sS'drive'
p1117
I91
sS'you..stop'
p1118
I94
sS'guessed'
p1119
I94
sS'exist'
p1120
I94
sS'prayer'
p1121
I92
sS'muffins'
p1122
I94
sS'about."'
p1123
I94
sS'heater'
p1124
I94
sS'check'
p1125
I90
sS'shit'
p1126
I73
sS'headshots'
p1127
I94
sS'ni'
p1128
I94
sS'audition'
p1129
I94
sS'saber'
p1130
I94
sS'dying'
p1131
I92
sS'no'
p1132
I41
sS'when'
p1133
I30
sS'reality'
p1134
I94
sS'til'
p1135
I93
sS'tim'
p1136
I94
sS'pasadena'
p1137
I93
sS'republic'
p1138
I94
sS'whew'
p1139
I94
sS'"us"'
p1140
I93
sS'joni'
p1141
I94
sS'smell'
p1142
I94
sS'roll'
p1143
I93
sS'realize'
p1144
I94
sS'nw'
p1145
I94
sS'picture'
p1146
I91
sS'yin'
p1147
I94
sS"'s"
p1148
I94
sS'brothers'
p1149
I94
sS'watchout'
p1150
I94
sS'models'
p1151
I94
sS'surprise'
p1152
I91
sS'cheat'
p1153
I94
sS'welcome'
p1154
I89
sS'weirdest'
p1155
I94
sS'hahahah'
p1156
I94
sS"let's"
p1157
I76
sS'journey'
p1158
I93
sS'fuggin'
p1159
I94
sS"tireddon't"
p1160
I94
sS'acted'
p1161
I94
sS'weekend'
p1162
I92
sS'pau'
p1163
I94
sS'jones'
p1164
I94
sS'whhhy'
p1165
I94
sS'point'
p1166
I94
sS'longer'
p1167
I92
sS'glass'
p1168
I93
sS'mobilizer'
p1169
I94
sS'together'
p1170
I93
sS'luckier'
p1171
I94
sS'floyd'
p1172
I94
sS'time'
p1173
I56
sS'supergroup'
p1174
I94
sS'banners'
p1175
I94
sS'songs'
p1176
I92
sS'bfast'
p1177
I94
sS':/'
p1178
I91
sS':('
p1179
I85
sS':)'
p1180
I72
sS'kenneth'
p1181
I94
sS'whoever'
p1182
I94
sS'dance'
p1183
I89
sS'skip'
p1184
I94
sS'rob'
p1185
I94
sS'global'
p1186
I94
sS'focus'
p1187
I91
sS'leads'
p1188
I94
sS'manager'
p1189
I93
sS'unbelievable.\xe2\x80\x9d'
p1190
I94
sS'emotional'
p1191
I94
sS'skin'
p1192
I93
sS'mill'
p1193
I94
sS'commentaries'
p1194
I94
sS'milk'
p1195
I93
sS'tubman'
p1196
I94
sS':3'
p1197
I94
sS'21st'
p1198
I94
sS'draaaaank'
p1199
I94
sS'ves'
p1200
I94
sS'zone'
p1201
I93
sS'bobas'
p1202
I94
sS'xcaret'
p1203
I94
sS'0'
p1204
I94
sS'finally'
p1205
I87
sS'ucsb'
p1206
I94
sS'accomplish'
p1207
I94
sS'2pac'
p1208
I94
sS'tusk'
p1209
I94
sS'choir'
p1210
I94
sS'analogous'
p1211
I94
sS'me'
p1212
I13
sS'woodley'
p1213
I94
sS"do..i'm"
p1214
I94
sS':d'
p1215
I94
sS'it?\xe2\x80\x9d'
p1216
I94
sS'that\xe2\x80\xa6'
p1217
I94
sS'choice'
p1218
I94
sS'generation..actions'
p1219
I94
sS'blloodddeeeddddd'
p1220
I94
sS'vegas'
p1221
I94
sS'jery'
p1222
I94
sS'artwork'
p1223
I94
sS'cook'
p1224
I94
sS'word'
p1225
I88
sS'trouble'
p1226
I93
sS'blast'
p1227
I94
sS':p'
p1228
I91
sS'beiber'
p1229
I94
sS'minute'
p1230
I94
sS'cool'
p1231
I86
sS'aggressively'
p1232
I94
sS"boooo's"
p1233
I94
sS'staples'
p1234
I94
sS'\\(-_-)/'
p1235
I94
sS'level'
p1236
I94
sS'did'
p1237
I73
sS'die'
p1238
I93
sS'rumble.\xe2\x80\x9d'
p1239
I94
sS'brother'
p1240
I89
sS'gum'
p1241
I92
sS'invade'
p1242
I94
sS'leave'
p1243
I88
sS'):('
p1244
I94
sS'soooo'
p1245
I94
sS'coincidences'
p1246
I94
sS'team'
p1247
I87
sS'quick'
p1248
I92
sS'guy'
p1249
I86
sS'convince'
p1250
I94
sS'round'
p1251
I93
sS"<--that's"
p1252
I94
sS'shave'
p1253
I94
sS'spiritual'
p1254
I94
sS'unexpected'
p1255
I94
sS'says'
p1256
I93
sS'regret'
p1257
I93
sS'porn'
p1258
I93
sS'attic'
p1259
I94
sS'dealing'
p1260
I94
sS'sign'
p1261
I87
sS'fairytales'
p1262
I94
sS'pienso'
p1263
I94
sS'sheeran'
p1264
I94
sS'run'
p1265
I93
sS"tamagotchi's"
p1266
I94
sS'football..i'
p1267
I94
sS'drinks'
p1268
I93
sS'cargo'
p1269
I94
sS'appear'
p1270
I94
sS'buncha'
p1271
I94
sS'celebrated'
p1272
I94
sS'bdubs'
p1273
I94
sS'current'
p1274
I94
sS'greatness'
p1275
I94
sS'ajarski'
p1276
I94
sS'goes'
p1277
I89
sS'goooood'
p1278
I94
sS'god.\xe2\x80\x9d'
p1279
I94
sS'falling'
p1280
I94
sS'force\xe2\x80\x9d'
p1281
I94
sS'beckyyy'
p1282
I94
sS'bravery..not'
p1283
I94
sS'gawd'
p1284
I94
sS'weezy'
p1285
I94
sS'cheetos'
p1286
I94
sS'funeral'
p1287
I94
sS'learn'
p1288
I91
sS'french'
p1289
I94
sS'rn,91605\n526276059587559425,xcaretete,2014-10-26'
p1290
I94
sS'slow'
p1291
I94
sS'baseball'
p1292
I93
sS'yards'
p1293
I94
sS'address'
p1294
I94
sS'alone'
p1295
I92
sS'mugs'
p1296
I94
sS'along'
p1297
I93
sS'nope.accepted'
p1298
I94
sS'earthquake'
p1299
I93
sS'change'
p1300
I86
sS'wait'
p1301
I82
sS'box'
p1302
I90
sS'boy'
p1303
I87
sS'yessss'
p1304
I93
sS'redemption'
p1305
I94
sS'healthy'
p1306
I94
sS'shift'
p1307
I93
sS'bruises'
p1308
I94
sS'lagged'
p1309
I94
sS'guilty'
p1310
I93
sS'lakers'
p1311
I90
sS'bow'
p1312
I93
sS'asks'
p1313
I94
sS'honda'
p1314
I94
sS'bangs'
p1315
I93
sS'christ...i'
p1316
I94
sS'boo'
p1317
I94
sS'hbu'
p1318
I94
sS'here"'
p1319
I94
sS'weird'
p1320
I92
sS'pillow'
p1321
I94
sS'massage'
p1322
I94
sS"grind's"
p1323
I94
sS'dippin'
p1324
I94
sS'nexto'
p1325
I94
sS'love'
p1326
I34
sS'pre-sunset'
p1327
I94
sS'bs'
p1328
I94
sS'prefer'
p1329
I94
sS'bloody'
p1330
I94
sS'faith.\xe2\x80\x9d'
p1331
I94
sS'losing'
p1332
I94
sS'fake'
p1333
I93
sS'not..to'
p1334
I94
sS'smassshhhh'
p1335
I94
sS'firearm'
p1336
I94
sS'goood'
p1337
I94
sS'everybody'
p1338
I89
sS'bayern'
p1339
I94
sS'wealth'
p1340
I94
sS'working'
p1341
I83
sS'prove'
p1342
I94
sS'aye'
p1343
I93
sS'positive'
p1344
I93
sS'angry'
p1345
I93
sS'sensu'
p1346
I94
sS'visit'
p1347
I93
sS'sports'
p1348
I93
sS'live'
p1349
I83
sS'ayy'
p1350
I94
sS'marry'
p1351
I94
sS'wondering'
p1352
I93
sS'teeth'
p1353
I94
sS'gabbana'
p1354
I94
sS'thru'
p1355
I91
sS'prep'
p1356
I90
sS'today'
p1357
I60
sS'loving'
p1358
I92
sS'shine'
p1359
I94
sS'scriptwriting'
p1360
I94
sS'riot'
p1361
I94
sS'leg...in'
p1362
I94
sS'club'
p1363
I81
sS'treasury'
p1364
I94
sS'answered'
p1365
I94
sS'02:22:53.0,34.2177864,-118.4171655,1220,let'
p1366
I94
sS'chocolate'
p1367
I94
sS'earlobe'
p1368
I94
sS'everywhere'
p1369
I94
sS'virtue'
p1370
I94
sS'luvs'
p1371
I94
sS'prophecy'
p1372
I94
sS'fly'
p1373
I94
sS'states'
p1374
I94
sS'judo'
p1375
I94
sS'anything'
p1376
I87
sS'niggas'
p1377
I92
sS'coooold'
p1378
I94
sS'car'
p1379
I83
sS'beaver'
p1380
I94
sS'soul'
p1381
I92
sS'cat'
p1382
I94
sS'reviews'
p1383
I94
sS'conceal'
p1384
I94
sS'flannels'
p1385
I93
sS'bake'
p1386
I94
sS'can'
p1387
I44
sS'co-workers'
p1388
I94
sS'kendrick'
p1389
I93
sS'growing'
p1390
I94
sS'making'
p1391
I87
sS'unconditional'
p1392
I94
sS"denny's"
p1393
I94
sS'heart'
p1394
I82
sS'crazy'
p1395
I90
sS'nada'
p1396
I94
sS'trump'
p1397
I94
sS'figure'
p1398
I93
sS'pauses'
p1399
I94
sS'awesome'
p1400
I88
sS'nemo'
p1401
I94
sS"didn't"
p1402
I88
sS'fuck'
p1403
I62
sS'soup'
p1404
I94
sS'concierge'
p1405
I94
sS'heard'
p1406
I90
sS'evita'
p1407
I94
sS'outraged'
p1408
I94
sS'dropped'
p1409
I93
sS'allowed'
p1410
I94
sS'lebron\xe2\x80\x9d'
p1411
I94
sS'offense'
p1412
I94
sS'counting'
p1413
I94
sS'clothing'
p1414
I94
sS'\xd1\x8d\xd1\x82\xd0\xbe\xd1\x82'
p1415
I94
sS'\xe0\xb9\x80\xe0\xb8\x9e\xe0\xb8\xb5\xe0\xb9\x89\xe0\xb8\xa2\xe0\xb8\x87\xe0\xb8\x87'
p1416
I94
sS'delivers'
p1417
I94
sS'knocks...their'
p1418
I94
sS'robinson'
p1419
I94
sS'bless'
p1420
I94
sS'watching'
p1421
I88
sS'calfornia'
p1422
I94
sS'gasol'
p1423
I94
sS'1'
p1424
I82
sS'till'
p1425
I90
sS'sunday'
p1426
I91
sS'emotionless'
p1427
I94
sS'rallies'
p1428
I94
sS'wowwwww..federal'
p1429
I94
sS'nyc'
p1430
I94
sS'speaks'
p1431
I91
sS'bois'
p1432
I94
sS'urth'
p1433
I93
sS'map'
p1434
I94
sS'staying'
p1435
I94
sS'"should'
p1436
I94
sS'mat'
p1437
I94
sS'to..but'
p1438
I94
sS'may'
p1439
I87
sS'zimmerman'
p1440
I94
sS'sacrifice'
p1441
I93
sS'southern'
p1442
I94
sS'jacqi'
p1443
I93
sS'dats'
p1444
I93
sS'fireplace'
p1445
I94
sS'nikka'
p1446
I94
sS'mac'
p1447
I94
sS'birthday'
p1448
I83
sS'mae'
p1449
I93
sS'mad'
p1450
I85
sS'?('
p1451
I94
sS'date'
p1452
I87
sS'such'
p1453
I88
sS'suck'
p1454
I90
sS'guys'
p1455
I75
sS'grow'
p1456
I94
sS'man'
p1457
I77
sS'classroom'
p1458
I94
sS'prob'
p1459
I94
sS'released'
p1460
I94
sS'remember'
p1461
I83
sS'johnson'
p1462
I93
sS'ghs'
p1463
I94
sS'whenever'
p1464
I94
sS'maybe'
p1465
I86
sS'hehehehehe'
p1466
I94
sS'anger..while'
p1467
I94
sS'bean'
p1468
I93
sS'nosey'
p1469
I94
sS'q'
p1470
I94
sS'i\xe2\x9d\xa4\xef\xb8\x8fbeyonc'
p1471
I94
sS'criminal'
p1472
I94
sS'so'
p1473
I17
sS'silence'
p1474
I94
sS'sm'
p1475
I92
sS'sc'
p1476
I94
sS'wolves'
p1477
I94
sS'pulled'
p1478
I94
sS'talk'
p1479
I78
sS'typical'
p1480
I94
sS'cute'
p1481
I79
sS'whoopin'
p1482
I94
sS'shoes'
p1483
I92
sS'pointed'
p1484
I94
sS'sexually'
p1485
I94
sS'flips'
p1486
I93
sS'...,91605\n526421571716399104,xcaretete,2014-10-26'
p1487
I94
sS'years'
p1488
I88
sS'ended'
p1489
I93
sS'kimmel'
p1490
I94
sS'shake'
p1491
I93
sS'kanye'
p1492
I92
sS'cold'
p1493
I93
sS'still'
p1494
I65
sS'blooded'
p1495
I94
sS'worship'
p1496
I93
sS'cola'
p1497
I94
sS'gta'
p1498
I94
sS'86'
p1499
I94
sS'felicia'
p1500
I93
sS'thank'
p1501
I59
sS'"flair'
p1502
I94
sS'how'
p1503
I43
sS'simpin'
p1504
I94
sS'mantle'
p1505
I94
sS'music...it'
p1506
I94
sS'hot'
p1507
I81
sS'recording...make'
p1508
I94
sS'window'
p1509
I94
sS'offers'
p1510
I94
sS'conoce'
p1511
I94
sS'nsa'
p1512
I94
sS'tweets'
p1513
I91
sS'suspension'
p1514
I94
sS'mommy'
p1515
I94
sS'petition'
p1516
I94
sS'happened'
p1517
I89
sS'judgemental'
p1518
I94
sS'lonely'
p1519
I93
sS'marzo'
p1520
I94
sS'kilmer'
p1521
I94
sS'views'
p1522
I93
sS'insomnia'
p1523
I94
sS"tonight's"
p1524
I94
sS'nation'
p1525
I93
sS'underneath'
p1526
I94
sS'lunch'
p1527
I94
sS'touching'
p1528
I94
sS'nope.loved'
p1529
I94
sS'back..only'
p1530
I94
sS'half'
p1531
I90
sS'not'
p1532
I28
sS'hahahahahahahahah'
p1533
I94
sS'now'
p1534
I42
sS'bullshit'
p1535
I93
sS'nor'
p1536
I94
sS'josh'
p1537
I94
sS'wont'
p1538
I94
sS'wagon'
p1539
I94
sS'execute'
p1540
I94
sS'complitment'
p1541
I94
sS'equality'
p1542
I94
sS'name'
p1543
I84
sS'lies'
p1544
I94
sS'james'
p1545
I94
sS'drop'
p1546
I93
sS'horses'
p1547
I94
sS'babbbbahhhy'
p1548
I94
sS'jmac'
p1549
I94
sS'careless'
p1550
I93
sS'rangers'
p1551
I94
sS'h'
p1552
I94
sS'lmao.\xe2\x80\x9d'
p1553
I94
sS'07:37:56.0,34.2177534,-118.4171619,1220,debating'
p1554
I94
sS'replying'
p1555
I94
sS'quarter'
p1556
I93
sS'85'
p1557
I94
sS'same...goodnight'
p1558
I94
sS'bornnnn'
p1559
I94
sS'today.!!!\xe2\x9a\xbd\xe2\x9a\xbd\xe2\x9a\xbd'
p1560
I94
sS'em'
p1561
I90
sS'el'
p1562
I92
sS'square'
p1563
I94
sS'firee'
p1564
I94
sS'fired'
p1565
I93
sS'ed'
p1566
I93
sS'torch'
p1567
I94
sS"'fix"
p1568
I94
sS'yeah'
p1569
I74
sS'nshit'
p1570
I94
sS'curveball'
p1571
I94
sS'ex'
p1572
I94
sS'preaching'
p1573
I90
sS'year'
p1574
I84
sS'et'
p1575
I94
sS'girl'
p1576
I80
sS'calling'
p1577
I93
sS'obsession'
p1578
I94
sS'pills'
p1579
I94
sS'es'
p1580
I93
sS'tried'
p1581
I94
sS'album'
p1582
I94
sS'living'
p1583
I90
sS"america's"
p1584
I94
sS'back..r'
p1585
I94
sS'3rd'
p1586
I93
sS'space'
p1587
I93
sS'profit'
p1588
I94
sS'twtr'
p1589
I94
sS'squared'
p1590
I94
sS'looking'
p1591
I85
sS'attracted'
p1592
I94
sS'seriously'
p1593
I69
sS"in'n'out"
p1594
I94
sS'smells'
p1595
I94
sS'internet'
p1596
I92
sS'shepards'
p1597
I94
sS'losers'
p1598
I94
sS'dominate'
p1599
I94
sS'nudes'
p1600
I94
sS'managed'
p1601
I94
sS'kingdom"'
p1602
I94
sS'bynes'
p1603
I94
sS'lag'
p1604
I93
sS'kiddo'
p1605
I94
sS'(burbank'
p1606
I88
sS'satanic'
p1607
I94
sS'million'
p1608
I93
sS"shepherd's"
p1609
I94
sS'possibility'
p1610
I94
sS'quite'
p1611
I94
sS'romans'
p1612
I94
sS'disbelief'
p1613
I94
sS'california'
p1614
I94
sS'rebel'
p1615
I94
sS'besides'
p1616
I94
sS'least..keeping'
p1617
I94
sS'headband'
p1618
I93
sS'\xe0\xb8\x95\xe0\xb8\xb1\xe0\xb8\xa7\xe0\xb9\x80\xe0\xb8\xa5\xe0\xb8\x81\xe0\xb8\x99\xe0\xb8\xb4\xe0\xb8\x94\xe0\xb9\x80\xe0\xb8\x94\xe0\xb8\xb5\xe0\xb8\xa2\xe0\xb8\xa7'
p1619
I94
sS'card'
p1620
I93
sS'care'
p1621
I88
sS'15-year'
p1622
I94
sS"'bang"
p1623
I94
sS'language'
p1624
I94
sS'yup'
p1625
I93
sS'100%'
p1626
I93
sS'yur'
p1627
I94
sS'honest'
p1628
I94
sS'demographic'
p1629
I94
sS'turn'
p1630
I90
sS'funky'
p1631
I93
sS'punt'
p1632
I94
sS'place'
p1633
I90
sS"friends'"
p1634
I94
sS'view'
p1635
I94
sS'think'
p1636
I59
sS'frequent'
p1637
I94
sS'1000'
p1638
I93
sS'wenesday'
p1639
I94
sS'cheese'
p1640
I93
sS'xi'
p1641
I92
sS'trying.\xe2\x80\x9d'
p1642
I94
sS'spoken'
p1643
I94
sS'waves'
p1644
I94
sS'yourself'
p1645
I86
sS'danziger'
p1646
I94
sS'lector?"...gourmands'
p1647
I94
sS'spanish'
p1648
I93
sS'carry'
p1649
I94
sS'impossible'
p1650
I94
sS'sounds'
p1651
I91
sS'sir-ee'
p1652
I94
sS'open'
p1653
I92
sS'george'
p1654
I91
sS"'em"
p1655
I94
sS'sheep'
p1656
I94
sS'city'
p1657
I91
sS'little'
p1658
I81
sS'day\xe2\x80\x9d'
p1659
I94
sS'officials'
p1660
I94
sS"valentine's"
p1661
I94
sS'caught'
p1662
I94
sS'slept'
p1663
I94
sS'europe'
p1664
I94
sS'plastic'
p1665
I92
sS'anyone'
p1666
I74
sS'teacher'
p1667
I94
sS'2'
p1668
I74
sS'chem'
p1669
I94
sS'typing'
p1670
I94
sS"fans...he's"
p1671
I94
sS'white'
p1672
I89
sS'friend'
p1673
I86
sS'gives'
p1674
I92
sS'grindin'
p1675
I94
sS'there...visit'
p1676
I94
sS'eyes'
p1677
I93
sS'evevevevvwvevver'
p1678
I94
sS'trayvon'
p1679
I94
sS'that'
p1680
I16
sS'shawn'
p1681
I93
sS'season'
p1682
I90
sS'suit'
p1683
I94
sS'development..pre-produced'
p1684
I94
sS'boba'
p1685
I93
sS'viewing'
p1686
I94
sS'cops'
p1687
I94
sS'sandoval'
p1688
I94
sS'quan'
p1689
I94
sS'pierogi'
p1690
I94
sS'thai'
p1691
I90
sS'flowers'
p1692
I94
sS'than'
p1693
I68
sS"here's"
p1694
I90
sS'boyfriend'
p1695
I90
sS'11'
p1696
I90
sS'wide'
p1697
I90
sS'12'
p1698
I93
sS'15'
p1699
I93
sS'lmao'
p1700
I80
sS'17'
p1701
I93
sS'19'
p1702
I94
sS'18'
p1703
I92
sS'gotta'
p1704
I89
sS'discernment'
p1705
I94
sS'r'
p1706
I87
sS'apples'
p1707
I94
sS'were'
p1708
I81
sS'cards'
p1709
I92
sS'werk'
p1710
I94
sS'fallacious'
p1711
I94
sS'russia'
p1712
I94
sS'sean'
p1713
I94
sS'and'
p1714
I7
sS'kings..never'
p1715
I94
sS'san'
p1716
I87
sS'angel'
p1717
I94
sS'mindfulness'
p1718
I94
sS'pro'
p1719
I93
sS'bennie'
p1720
I94
sS'measure'
p1721
I94
sS'underestimated'
p1722
I94
sS'prostitution'
p1723
I94
sS'sad'
p1724
I88
sS'woah'
p1725
I93
sS'say'
p1726
I70
sS'medium'
p1727
I94
sS'comedian'
p1728
I94
sS'anytime'
p1729
I94
sS'anger'
p1730
I93
sS'breakfast'
p1731
I93
sS'recover'
p1732
I94
sS'saw'
p1733
I90
sS'any'
p1734
I84
sS'marathon'
p1735
I93
sS'invite'
p1736
I94
sS'kush'
p1737
I94
sS'offering'
p1738
I94
sS'wcw'
p1739
I94
sS'lawd.\xe2\x80\x9d'
p1740
I94
sS'sending'
p1741
I94
sS'ideas'
p1742
I94
sS'kkee'
p1743
I93
sS'equipment'
p1744
I94
sS'squad'
p1745
I94
sS'hookah'
p1746
I94
sS'take'
p1747
I76
sS'online'
p1748
I92
sS'wanting'
p1749
I92
sS'arleth'
p1750
I94
sS'concern'
p1751
I94
sS'grammys'
p1752
I94
sS'bitching'
p1753
I94
sS'gleason'
p1754
I93
sS'sure'
p1755
I78
sS'pain'
p1756
I94
sS'change..you'
p1757
I94
sS'normal'
p1758
I93
sS'track'
p1759
I92
sS'two-run'
p1760
I94
sS'debauchary'
p1761
I94
sS'(june)'
p1762
I94
sS'paid'
p1763
I93
sS'falls'
p1764
I94
sS'rehearsal'
p1765
I92
sS"tannin'"
p1766
I94
sS'voice*'
p1767
I94
sS'america'
p1768
I92
sS'pages'
p1769
I94
sS'woooo'
p1770
I94
sS'queens'
p1771
I92
sS'michelle'
p1772
I94
sS'forever'
p1773
I91
sS'especially'
p1774
I93
sS'surprising'
p1775
I94
sS'linn'
p1776
I94
sS'considered'
p1777
I94
sS'egg'
p1778
I93
sS'later'
p1779
I92
sS'hungry'
p1780
I86
sS'way\xe2\x80\x9d'
p1781
I94
sS'over..lets'
p1782
I94
sS'<3\xe2\x80\x9d'
p1783
I94
sS'something.\xe2\x80\x9d'
p1784
I94
sS'beaner'
p1785
I94
sS'walking'
p1786
I93
sS'chaminade'
p1787
I94
sS'shot'
p1788
I93
sS'entendre'
p1789
I94
sS'show'
p1790
I75
sS'german'
p1791
I94
sS'babycakes'
p1792
I94
sS'ex-bmx'
p1793
I94
sS'maaaan'
p1794
I94
sS"mary's"
p1795
I94
sS'shoe'
p1796
I93
sS'corner'
p1797
I94
sS'dundee'
p1798
I94
sS'pu\xc2\xa7y'
p1799
I94
sS'ground'
p1800
I93
sS'aint'
p1801
I94
sS'yolks,91605\n526266345214595072,xcaretete,2014-10-26'
p1802
I94
sS'snack'
p1803
I94
sS'flapjack'
p1804
I94
sS'\xe2\x9c\x8b'
p1805
I92
sS'title'
p1806
I94
sS'dick'
p1807
I93
sS'saints'
p1808
I87
sS'3'
p1809
I84
sS'dull'
p1810
I94
sS'gulp'
p1811
I93
sS'bledsoe'
p1812
I94
sS'only'
p1813
I59
sS'going'
p1814
I50
sS'black'
p1815
I83
sS'dreamed'
p1816
I94
sS'outrage'
p1817
I94
sS'wttttfffff'
p1818
I94
sS'blinds'
p1819
I94
sS'atticus'
p1820
I94
sS'5.59mi'
p1821
I94
sS'home."'
p1822
I94
sS'sannndddwichhhhhhhh'
p1823
I94
sS'get'
p1824
I38
sS'cannon'
p1825
I94
sS'diamonds'
p1826
I93
sS'work...just'
p1827
I94
sS'truly'
p1828
I93
sS'spraying'
p1829
I94
sS'leon'
p1830
I94
sS'cannot'
p1831
I92
sS"p's"
p1832
I94
sS'nobu'
p1833
I93
sS'good/mental'
p1834
I94
sS'trade'
p1835
I94
sS'laguna'
p1836
I92
sS'celebrate'
p1837
I93
sS'morninh'
p1838
I94
sS'saves...you'
p1839
I94
sS'utd'
p1840
I94
sS'artist'
p1841
I90
sS'cruda'
p1842
I94
sS'broseph'
p1843
I94
sS'answering'
p1844
I94
sS'morning'
p1845
I80
sS'naked'
p1846
I93
sS'tiki'
p1847
I93
sS'tosh.0'
p1848
I94
sS'stupid'
p1849
I90
sS'clowns'
p1850
I94
sS'source'
p1851
I94
sS'season..we'
p1852
I94
sS"team.can't"
p1853
I94
sS'miley'
p1854
I92
sS'where'
p1855
I71
sS"everything's"
p1856
I94
sS'vision'
p1857
I93
sS"y'all"
p1858
I81
sS'declared'
p1859
I94
sS'mess'
p1860
I94
sS'concert'
p1861
I90
sS'nibbbbbblllin'
p1862
I94
sS"church's"
p1863
I94
sS'yeah.\xe2\x80\x9d'
p1864
I94
sS'cypher'
p1865
I94
sS'grandpas'
p1866
I94
sS"hasn't"
p1867
I93
sS'all-american'
p1868
I94
sS'j-'
p1869
I94
sS'actively'
p1870
I94
sS'asleep'
p1871
I88
sS'anyways'
p1872
I93
sS'people..those'
p1873
I94
sS'parking'
p1874
I94
sS'tape'
p1875
I94
sS'surgery'
p1876
I93
sS'ruined'
p1877
I94
sS'afghan'
p1878
I94
sS'wonder'
p1879
I88
sS'dexter'
p1880
I94
sS'today.\xe2\x80\x9d'
p1881
I94
sS'crystal'
p1882
I94
sS'24/7'
p1883
I93
sS'munching'
p1884
I94
sS'circulating'
p1885
I94
sS'label'
p1886
I94
sS"father's"
p1887
I94
sS'enough'
p1888
I92
sS'contained'
p1889
I94
sS'between'
p1890
I92
sS'house...but'
p1891
I94
sS'chews'
p1892
I94
sS'reading'
p1893
I93
sS'across'
p1894
I93
sS'r-mean'
p1895
I94
sS'whispered'
p1896
I94
sS'scoring'
p1897
I94
sS'notice'
p1898
I92
sS'august'
p1899
I94
sS'marvin'
p1900
I93
sS'spartan'
p1901
I94
sS'timmy'
p1902
I93
sS'jr'
p1903
I94
sS'agencies'
p1904
I94
sS'blame'
p1905
I93
sS'clayton'
p1906
I93
sS'awards'
p1907
I94
sS'tum'
p1908
I94
sS'hurts'
p1909
I93
sS'jd'
p1910
I94
sS'relaxin'
p1911
I94
sS'come'
p1912
I71
sS'reaction'
p1913
I94
sS'dates'
p1914
I94
sS'mans'
p1915
I94
sS'talented'
p1916
I94
sS'tuck'
p1917
I94
sS'many'
p1918
I80
sS'cars'
p1919
I94
sS'work"'
p1920
I94
sS'quiet'
p1921
I94
sS'somewhere'
p1922
I94
sS's'
p1923
I93
sS'mang'
p1924
I94
sS'prettiest'
p1925
I94
sS'chapman_leonard'
p1926
I94
sS'comes'
p1927
I92
sS'among'
p1928
I93
sS'stretcher'
p1929
I94
sS'6:30'
p1930
I94
sS'pow'
p1931
I92
sS'pop'
p1932
I88
sS'mccain'
p1933
I94
sS'on!\xe2\x80\x9d'
p1934
I94
sS'grants'
p1935
I94
sS'3000'
p1936
I94
sS"couldn't"
p1937
I91
sS'article'
p1938
I94
sS'shard'
p1939
I94
sS'writing'
p1940
I94
sS'precious'
p1941
I94
sS'yooooo'
p1942
I94
sS'cramps'
p1943
I94
sS'save'
p1944
I94
sS'arts'
p1945
I94
sS'oliver'
p1946
I94
sS'bums'
p1947
I94
sS'cares'
p1948
I93
sS'west'
p1949
I88
sS'rebuild'
p1950
I94
sS'heart...its'
p1951
I94
sS'mark'
p1952
I91
sS'people...the'
p1953
I94
sS'ya..do'
p1954
I94
sS'lapdance'
p1955
I94
sS'for...nothing'
p1956
I94
sS'sesh'
p1957
I92
sS'imaginaries'
p1958
I94
sS'500'
p1959
I94
sS'schoolboy'
p1960
I94
sS'wants'
p1961
I88
sS'direction'
p1962
I92
sS'shopping'
p1963
I93
sS'blessing'
p1964
I94
sS'andrew'
p1965
I94
sS'photos'
p1966
I92
sS'wake'
p1967
I90
sS'\xe2\x9b\x85\xef\xb8\x8f\xe2\x9d\x84\xef\xb8\x8f\xe2\x9b\x84\xef\xb8\x8f\xe2\x98\x80\xef\xb8\x8f'
p1968
I94
sS'hashtag'
p1969
I94
sS'toons'
p1970
I94
sS"alive....we're"
p1971
I94
sS'careful'
p1972
I94
sS'homegirls'
p1973
I94
sS'spirit'
p1974
I91
sS'those'
p1975
I81
sS'(please'
p1976
I94
sS'sound'
p1977
I93
sS'myself'
p1978
I86
sS'casa'
p1979
I93
sS'disconnected'
p1980
I93
sS'isabelle'
p1981
I94
sS'these'
p1982
I77
sS'9inch'
p1983
I94
sS'worried'
p1984
I94
sS'cash'
p1985
I94
sS'trick'
p1986
I92
sS'pacers'
p1987
I94
sS'china/russia'
p1988
I94
sS'ratchet'
p1989
I94
sS'goodmorning'
p1990
I94
sS'coca'
p1991
I94
sS'hmmmm'
p1992
I92
sS'cock'
p1993
I94
sS'taking'
p1994
I88
sS'coolest'
p1995
I94
sS'eether'
p1996
I94
sS'bathrooms'
p1997
I94
sS'much...the'
p1998
I94
sS'rammed'
p1999
I94
sS'coffee'
p2000
I94
sS'bros'
p2001
I94
sS'sleeping'
p2002
I92
sS'middle'
p2003
I90
sS'someone'
p2004
I72
sS"(i'm"
p2005
I94
sS'somebody'
p2006
I93
sS'17:4\xe2\x80\x9d'
p2007
I94
sS'fame'
p2008
I93
sS'worry'
p2009
I92
sS'bags'
p2010
I93
sS'different'
p2011
I92
sS'cafe'
p2012
I94
sS'harsh'
p2013
I94
sS'media'
p2014
I87
sS'granted'
p2015
I94
sS'it..call'
p2016
I94
sS'bowl'
p2017
I92
sS'sketchy'
p2018
I94
sS'same'
p2019
I78
sS'trip'
p2020
I92
sS'newhall--faith'
p2021
I94
sS'food'
p2022
I90
sS'bows'
p2023
I94
sS'followers'
p2024
I93
sS'momma\xc2\xa7'
p2025
I94
sS'ovation!!!!\xe2\x80\x9d'
p2026
I94
sS'reminder'
p2027
I94
sS'retweeting'
p2028
I94
sS'thee'
p2029
I94
sS'justice.\xe2\x80\x9d'
p2030
I94
sS'week'
p2031
I87
sS'trolls'
p2032
I94
sS'finish'
p2033
I92
sS'h&s'
p2034
I94
sS'screenshot'
p2035
I94
sS'sickness'
p2036
I94
sS'downloads'
p2037
I94
sS'real..\xe2\x9c\xa8'
p2038
I94
sS'driver'
p2039
I94
sS'drives'
p2040
I93
sS'weed'
p2041
I90
sS'driven'
p2042
I94
sS'911'
p2043
I94
sS'running'
p2044
I92
sS'favorites'
p2045
I94
sS'changing'
p2046
I94
sS'1pm'
p2047
I94
sS'totally'
p2048
I93
sS'you\xe2\x80\xa6'
p2049
I94
sS'\xe2\x9c\x8c\xef\xb8\x8f'
p2050
I93
sS'mohawk'
p2051
I94
sS'tracking'
p2052
I85
sS'burrito'
p2053
I93
sS'roulade'
p2054
I94
sS'^.^'
p2055
I94
sS'charger'
p2056
I92
sS'floor'
p2057
I94
sS'magical'
p2058
I92
sS'nothin'
p2059
I94
sS'breezy'
p2060
I94
sS"everyday's"
p2061
I94
sS'accountable'
p2062
I94
sS'without'
p2063
I89
sS"can't"
p2064
I54
sS'model'
p2065
I94
sS'bumping'
p2066
I94
sS"you've"
p2067
I93
sS'summer'
p2068
I91
sS'realest'
p2069
I94
sS'\xe2\x98\xba\xef\xb8\x8f'
p2070
I92
sS'want2'
p2071
I94
sS'being'
p2072
I70
sS'money'
p2073
I87
sS'dancers'
p2074
I94
sS"goatee'"
p2075
I94
sS'rest'
p2076
I92
sS'risk'
p2077
I94
sS'violent'
p2078
I91
sS'(i'
p2079
I94
sS'kill'
p2080
I89
sS"shepherds'"
p2081
I94
sS"listenin'"
p2082
I94
sS'touch'
p2083
I93
sS'flavor'
p2084
I94
sS'smith'
p2085
I94
sS'weekly'
p2086
I94
sS'gather'
p2087
I94
sS'ofcourse'
p2088
I94
sS'clueless'
p2089
I94
sS'winner'
p2090
I94
sS'tooooo'
p2091
I94
sS'thinking'
p2092
I88
sS'rose'
p2093
I92
sS"everyone's"
p2094
I93
sS'jasonxrose'
p2095
I93
sS'someone\xe2\x80\xa6'
p2096
I94
sS'all-around'
p2097
I94
sS'yaaaa'
p2098
I94
sS'lets'
p2099
I86
sS'interested'
p2100
I94
sS'4'
p2101
I76
sS'thoughts'
p2102
I94
sS"'take"
p2103
I94
sS'bread'
p2104
I94
sS'malcolm'
p2105
I94
sS'ross'
p2106
I94
sS'real'
p2107
I76
sS'\xe2\x9a\xa1\xef\xb8\x8f\xe2\x98\x80\xef\xb8\x8f'
p2108
I94
sS'aspects'
p2109
I94
sS'around'
p2110
I80
sS'kills'
p2111
I93
sS'easily'
p2112
I94
sS'mos'
p2113
I93
sS'psg'
p2114
I94
sS'gonna'
p2115
I85
sS'dark'
p2116
I90
sS'np'
p2117
I94
sS'traffic'
p2118
I93
sS'seahawks'
p2119
I94
sS'mom'
p2120
I86
sS'(-'
p2121
I94
sS'gnna'
p2122
I94
sS'world'
p2123
I81
sS'lady'
p2124
I93
sS'irreplaceable'
p2125
I94
sS'grin'
p2126
I94
sS'macarthur'
p2127
I93
sS'intel'
p2128
I94
sS'stranger'
p2129
I94
sS"thinkin'"
p2130
I94
sS'nosy'
p2131
I94
sS'collective'
p2132
I94
sS'pregnant'
p2133
I94
sS'bracelet'
p2134
I94
sS'greeting'
p2135
I94
sS'homegirl'
p2136
I94
sS'benefit'
p2137
I94
sS'ahahahahahahahahaha'
p2138
I94
sS'either'
p2139
I92
sS'woman"'
p2140
I94
sS'fully'
p2141
I93
sS'is..there'
p2142
I94
sS'inter'
p2143
I94
sS"19:39:49.0,34.2210471,-118.42205917,1220,i'm"
p2144
I94
sS'twelve'
p2145
I94
sS'saythatthen'
p2146
I94
sS'learning'
p2147
I94
sS'joking'
p2148
I94
sS'madrid'
p2149
I94
sS'spots..started'
p2150
I94
sS'ct'
p2151
I94
sS'eddie'
p2152
I94
sS'anti-blackness.\xe2\x80\x9d'
p2153
I94
sS'cowboys'
p2154
I94
sS'images'
p2155
I94
sS'tvd'
p2156
I93
sS'divine'
p2157
I94
sS'thinks'
p2158
I92
sS'yesss'
p2159
I93
sS'buried'
p2160
I94
sS'gross'
p2161
I92
sS'mood'
p2162
I88
sS'in\xe2\x80\xa6'
p2163
I94
sS'confirm'
p2164
I94
sS'memories'
p2165
I93
sS'legal'
p2166
I94
sS'moon'
p2167
I93
sS'kitty'
p2168
I94
sS'celta'
p2169
I94
sS'reverberating'
p2170
I94
sS'hipster'
p2171
I94
sS'picks'
p2172
I94
sS'naaaaah'
p2173
I94
sS'hustla'
p2174
I94
sS'redic'
p2175
I94
sS'decent'
p2176
I94
sS'hustle'
p2177
I94
sS'turkey'
p2178
I94
sS'ispit'
p2179
I94
sS'felt'
p2180
I94
sS'assembly'
p2181
I94
sS'power'
p2182
I92
sS'asap'
p2183
I92
sS'seconds'
p2184
I92
sS'\xe2\x98\xba\xef\xb8\x8f\xe2\x98\xba\xef\xb8\x8f'
p2185
I94
sS'track**'
p2186
I94
sS'booooo'
p2187
I94
sS'talon'
p2188
I94
sS'update'
p2189
I94
sS'^_^'
p2190
I93
sS'pastors'
p2191
I94
sS'(\xe0\xb8\xa1\xe0\xb8\xb2\xe0\xb8\x8a\xe0\xb9\x89\xe0\xb8\xb2\xe0\xb8\x94\xe0\xb8\xb5\xe0\xb8\x81\xe0\xb8\xa7\xe0\xb9\x88\xe0\xb8\xb2\xe0\xb9\x84\xe0\xb8\xa1\xe0\xb9\x88\xe0\xb8\xa1\xe0\xb8\xb2!!)'
p2192
I94
sS'throwback'
p2193
I94
sS';)'
p2194
I89
sS'broked'
p2195
I93
sS'throw'
p2196
I93
sS'_'
p2197
I93
sS'acc'
p2198
I94
sS'on'
p2199
I18
sS'google+'
p2200
I94
sS'ok'
p2201
I85
sS'oh'
p2202
I81
sS'og'
p2203
I94
sS'of'
p2204
I12
sS'>>squeeky'
p2205
I94
sS'violence'
p2206
I92
sS'favorite'
p2207
I82
sS'meal'
p2208
I94
sS'srs'
p2209
I94
sS'out"'
p2210
I94
sS'\xe2\x80\x9cwhispered'
p2211
I94
sS'stand'
p2212
I91
sS'acu'
p2213
I94
sS'act'
p2214
I92
sS'choy'
p2215
I94
sS'alec'
p2216
I94
sS'or'
p2217
I62
sS'road'
p2218
I94
sS'06:57:55.0,34.217688,-118.4172152,1220,lmao,91605\n526266429394259969,xcaretete,2014-10-26'
p2219
I94
sS'partied'
p2220
I94
sS'howard'
p2221
I94
sS'ladies'
p2222
I90
sS'tweetin'
p2223
I94
sS'maccs'
p2224
I94
sS'reactions'
p2225
I94
sS'honks'
p2226
I94
sS'image'
p2227
I94
sS'blessed'
p2228
I93
sS'snapchat'
p2229
I87
sS'brunette'
p2230
I94
sS'inbox'
p2231
I94
sS'parties'
p2232
I94
sS'annoys'
p2233
I94
sS'your'
p2234
I24
sS'corsica'
p2235
I94
sS'burbank'
p2236
I94
sS'log'
p2237
I94
sS'her'
p2238
I75
sS'area'
p2239
I94
sS'there'
p2240
I68
sS'housewives'
p2241
I94
sS'hey'
p2242
I85
sS'lol'
p2243
I45
sS'geaux'
p2244
I94
sS'start'
p2245
I86
sS"how'd"
p2246
I94
sS'cats'
p2247
I94
sS'racist'
p2248
I94
sS'low'
p2249
I94
sS'lot'
p2250
I85
sS'politeness'
p2251
I94
sS'farted'
p2252
I94
sS'exceptional'
p2253
I94
sS'valley'
p2254
I93
sS'tiffany'
p2255
I93
sS'foam'
p2256
I94
sS'allergic'
p2257
I94
sS'project'
p2258
I94
sS'mornings'
p2259
I94
sS'complete'
p2260
I94
sS'jafar'
p2261
I94
sS'rnnnnnn'
p2262
I94
sS'gaza'
p2263
I94
sS'eyeliner'
p2264
I93
sS'amongst'
p2265
I94
sS'jus'
p2266
I94
sS'atheist'
p2267
I94
sS'jut'
p2268
I94
sS'zimmermans'
p2269
I94
sS'19:43:37.0,34.22104679,-118.42205692,1220,the'
p2270
I94
sS'trying'
p2271
I83
sS'with'
p2272
I20
sS'buying'
p2273
I94
sS'happening'
p2274
I90
sS'football'
p2275
I94
sS"they're"
p2276
I90
sS'5/1'
p2277
I93
sS'october'
p2278
I94
sS'are"'
p2279
I94
sS'pharrell'
p2280
I94
sS"wasn't"
p2281
I92
sS'cambio'
p2282
I94
sS'\xe2\x99\xa5'
p2283
I94
sS'lipsticks'
p2284
I94
sS'carnivor'
p2285
I94
sS'jamaican'
p2286
I94
sS'qu\xc3\xa9'
p2287
I94
sS'organize'
p2288
I94
sS"2000's"
p2289
I94
sS'suck.\xe2\x80\x9d'
p2290
I94
sS'agree'
p2291
I94
sS'affection'
p2292
I94
sS'expect'
p2293
I92
sS'castles'
p2294
I94
sS'gone'
p2295
I87
sS'taylor'
p2296
I94
sS'ohh'
p2297
I91
sS'videos'
p2298
I94
sS'af'
p2299
I90
sS'migrate'
p2300
I94
sS'ah'
p2301
I94
sS'arabs'
p2302
I94
sS'ignorant'
p2303
I94
sS'am'
p2304
I71
sS'an'
p2305
I72
sS'slowed&throwed'
p2306
I94
sS'as'
p2307
I56
sS'at'
p2308
I19
sS'aw'
p2309
I87
sS'walks'
p2310
I91
sS'ay'
p2311
I93
sS'lifetime'
p2312
I94
sS'malibu'
p2313
I94
sS'operation'
p2314
I93
sS'you.\xe2\x80\x9d'
p2315
I94
sS'fill'
p2316
I93
sS'again'
p2317
I80
sS'lollllll'
p2318
I94
sS'rebirth...and'
p2319
I94
sS'goooal'
p2320
I94
sS'idiot'
p2321
I94
sS'deserve'
p2322
I90
sS'pedals'
p2323
I94
sS'loyal'
p2324
I94
sS'fix"'
p2325
I94
sS'1111'
p2326
I94
sS'field'
p2327
I94
sS'good...but'
p2328
I94
sS'twerk'
p2329
I92
sS'"independent'
p2330
I94
sS'instantly'
p2331
I94
sS'you'
p2332
I5
sS'puppy'
p2333
I94
sS'mexico\xe2\x80\x9d'
p2334
I93
sS'news...after'
p2335
I94
sS'poor'
p2336
I93
sS'compassion'
p2337
I94
sS'"good"'
p2338
I94
sS'obsessed'
p2339
I94
sS'students'
p2340
I93
sS'ebok'
p2341
I94
sS'hogar'
p2342
I93
sS'release'
p2343
I94
sS'anyone...but'
p2344
I94
sS'brandy'
p2345
I93
sS'important'
p2346
I93
sS'massachusetts'
p2347
I94
sS'def)'
p2348
I94
sS'chris'
p2349
I93
sS'finals'
p2350
I94
sS'alcohol'
p2351
I94
sS'building'
p2352
I90
sS'mourned'
p2353
I94
sS'brotha\xe2\x80\x9d'
p2354
I94
sS'-mark'
p2355
I94
sS'calls'
p2356
I92
sS'wife'
p2357
I91
sS'invest'
p2358
I93
sS"life's"
p2359
I93
sS'curve'
p2360
I93
sS'having'
p2361
I84
sS'moonlight'
p2362
I94
sS'lipstick'
p2363
I94
sS'derrick'
p2364
I94
sS'u'
p2365
I57
sS'procedure'
p2366
I94
sS'lb?\xe2\x80\x9d'
p2367
I94
sS'alright'
p2368
I87
sS'starting'
p2369
I92
sS'strings'
p2370
I94
sS'cruisin'
p2371
I94
sS'jesters'
p2372
I94
sS'x90'
p2373
I94
sS'all'
p2374
I32
sS'diss'
p2375
I93
sS'forget'
p2376
I92
sS'cough'
p2377
I94
sS'edc'
p2378
I94
sS'southland'
p2379
I94
sS'month'
p2380
I93
sS'settle'
p2381
I94
sS'coach'
p2382
I93
sS'07:00:56.0,34.2177072,-118.4171428,1220,waiting'
p2383
I94
sS'talks'
p2384
I94
sS'follow'
p2385
I66
sS'faster'
p2386
I94
sS'wash'
p2387
I94
sS'causes'
p2388
I94
sS'hmmm'
p2389
I94
sS'australia'
p2390
I94
sS'content'
p2391
I94
sS'ice'
p2392
I94
sS'college'
p2393
I94
sS'ty'
p2394
I93
sS'imma'
p2395
I93
sS'valley)'
p2396
I93
sS'lmaoo'
p2397
I94
sS'eastbound'
p2398
I94
sS'opportunities'
p2399
I94
sS'champions'
p2400
I94
sS'riots'
p2401
I94
sS'to'
p2402
I3
sS'tl'
p2403
I93
sS'foster'
p2404
I94
sS'alvarez'
p2405
I94
sS'tk'
p2406
I93
sS'wooooo'
p2407
I94
sS'safety'
p2408
I93
sS'enjoying'
p2409
I93
sS'hideous'
p2410
I94
sS'hee'
p2411
I94
sS'longtime'
p2412
I94
sS'paying'
p2413
I90
sS'woman'
p2414
I90
sS'worse'
p2415
I92
sS'song'
p2416
I82
sS'very'
p2417
I86
sS'horror'
p2418
I93
sS'standards'
p2419
I94
sS'fav'
p2420
I93
sS'fat'
p2421
I93
sS'skit'
p2422
I94
sS'selfies'
p2423
I93
sS'it...but'
p2424
I94
sS'candid'
p2425
I94
sS'fan'
p2426
I91
sS'redbulls'
p2427
I94
sS'decide'
p2428
I94
sS'fall'
p2429
I89
sS'grinding'
p2430
I94
sS'hibbo'
p2431
I94
sS'soften'
p2432
I94
sS'"???????"'
p2433
I94
sS'sentimental'
p2434
I94
sS'w/my'
p2435
I94
sS'cable'
p2436
I93
sS'--'
p2437
I92
sS'30minutes'
p2438
I94
sS'reaction..but'
p2439
I94
sS'list'
p2440
I92
sS'burritos'
p2441
I94
sS'large'
p2442
I94
sS'dinosaur'
p2443
I93
sS't-'
p2444
I94
sS'liars'
p2445
I93
sS'harry'
p2446
I94
sS'small'
p2447
I93
sS'throbbing'
p2448
I94
sS'dodger'
p2449
I94
sS"'48"
p2450
I94
sS'7-1'
p2451
I94
sS'gang'
p2452
I94
sS"i'll"
p2453
I79
sS'dunk'
p2454
I94
sS'cookies'
p2455
I93
sS'instagram'
p2456
I92
sS'tea'
p2457
I93
sS'streets'
p2458
I93
sS"man..y'all"
p2459
I94
sS'past'
p2460
I89
sS'bears..that'
p2461
I94
sS'zero'
p2462
I94
sS'overturns'
p2463
I94
sS'perspective'
p2464
I94
sS'pass'
p2465
I93
sS'terrible'
p2466
I94
sS'nba'
p2467
I93
sS'appreciating'
p2468
I94
sS'returned'
p2469
I94
sS'belief'
p2470
I94
sS'idc'
p2471
I94
sS'what'
p2472
I33
sS'abc'
p2473
I93
sS'stood'
p2474
I93
sS'-proverbs'
p2475
I94
sS'clock'
p2476
I94
sS'sun'
p2477
I94
sS'06:57:28.0,34.2176879,-118.4172149,1220,hahahaha,91605\n526197243519307776,xcaretete,2014-10-26'
p2478
I94
sS'skywalker'
p2479
I94
sS'guna'
p2480
I94
sS'crush'
p2481
I94
sS'version'
p2482
I94
sS'learned'
p2483
I91
sS'guns'
p2484
I94
sS'movement'
p2485
I92
sS'turmoil'
p2486
I94
sS'full'
p2487
I87
sS'christian'
p2488
I94
sS'unprofessional'
p2489
I94
sS'gif'
p2490
I94
sS'answers'
p2491
I93
sS'forgive'
p2492
I94
sS'hours'
p2493
I89
sS'ranger'
p2494
I94
sS'tracks'
p2495
I94
sS'civilians'
p2496
I94
sS'bayless'
p2497
I94
sS'record..the'
p2498
I94
sS'bulls'
p2499
I93
sS'table'
p2500
I94
sS'hoeanna'
p2501
I94
sS'"hi!"'
p2502
I94
sS'search'
p2503
I94
sS'vicky'
p2504
I94
sS'\xd1\x84\xd0\xb8\xd0\xbb\xd1\x8c\xd0\xbc'
p2505
I94
sS'ahead'
p2506
I94
sS'gangbang'
p2507
I94
sS'vegetarian'
p2508
I94
sS'whirlwind'
p2509
I94
sS'allows'
p2510
I94
sS'jackie'
p2511
I94
sS'experience'
p2512
I94
sS'pics'
p2513
I94
sS'host'
p2514
I94
sS'stella'
p2515
I94
sS'\xc2\xa1pura'
p2516
I94
sS'advertising'
p2517
I94
sS'pick'
p2518
I88
sS'ana'
p2519
I94
sS'luck'
p2520
I94
sS'options'
p2521
I94
sS'disneyland'
p2522
I94
sS'intern'
p2523
I94
sS'via'
p2524
I93
sS'followed'
p2525
I92
sS'family'
p2526
I86
sS'munchkin'
p2527
I94
sS'put'
p2528
I90
sS'semester'
p2529
I94
sS'talks"'
p2530
I94
sS'toys'
p2531
I94
sS'suits'
p2532
I94
sS'06:57:48.0,34.217688,-118.4172152,1220,i'
p2533
I94
sS'iglesias'
p2534
I94
sS'silva'
p2535
I94
sS'eye'
p2536
I91
sS'takes'
p2537
I91
sS'lulzzz'
p2538
I94
sS'asta'
p2539
I94
sS'defeat.\xe2\x80\x9d'
p2540
I94
sS'rub'
p2541
I94
sS'two'
p2542
I84
sS'vote'
p2543
I94
sS'nba..big'
p2544
I94
sS'amenities'
p2545
I94
sS'6'
p2546
I90
sS'taken'
p2547
I92
sS'tacky'
p2548
I94
sS'alive\xe2\x80\x9d'
p2549
I94
sS'cirus'
p2550
I94
sS'dwade'
p2551
I94
sS'stand-up'
p2552
I94
sS'more'
p2553
I53
sS'bynki_babe'
p2554
I93
sS'tryna'
p2555
I91
sS'israel'
p2556
I93
sS'diamond'
p2557
I94
sS'door'
p2558
I93
sS'knows'
p2559
I93
sS'"rebel"'
p2560
I94
sS'99%'
p2561
I94
sS'company'
p2562
I94
sS'"where'
p2563
I94
sS'laundry'
p2564
I94
sS'mira'
p2565
I94
sS'leonard'
p2566
I93
sS'mixtape'
p2567
I94
sS'brothas'
p2568
I94
sS'excuse'
p2569
I94
sS'dooe'
p2570
I94
sS"ain't"
p2571
I88
sS'basically'
p2572
I91
sS'broke'
p2573
I92
sS'20000'
p2574
I94
sS'smoker'
p2575
I94
sS'lemme'
p2576
I94
sS'sovereignty'
p2577
I94
sS'glad'
p2578
I91
sS'luv'
p2579
I94
sS'town'
p2580
I93
sS'dey'
p2581
I92
sS'none'
p2582
I93
sS'hour'
p2583
I92
sS'canceled'
p2584
I93
sS'sa'
p2585
I94
sS'created'
p2586
I94
sS'sucks'
p2587
I91
sS'fuck,91605\n526273845976510464,xcaretete,2014-10-26'
p2588
I94
sS'remain'
p2589
I94
sS'sudden'
p2590
I94
sS'v'
p2591
I93
sS'knocked'
p2592
I93
sS'strategies'
p2593
I94
sS'dec'
p2594
I94
sS'def'
p2595
I94
sS'history'
p2596
I94
sS'beautiful'
p2597
I81
sS'car\xe2\x9d\xa4\xef\xb8\x8f\xe2\x9d\xa4\xef\xb8\x8f'
p2598
I94
sS'embarrassing'
p2599
I94
sS'division'
p2600
I94
sS'tenor'
p2601
I94
sS'share'
p2602
I93
sS'lineman'
p2603
I94
sS'party...in'
p2604
I94
sS'sike'
p2605
I94
sS'abner'
p2606
I94
sS'salty'
p2607
I94
sS'calamansi'
p2608
I94
sS'sense'
p2609
I91
sS'talents'
p2610
I94
sS'dress'
p2611
I94
sS'hhn'
p2612
I94
sS"'99"
p2613
I94
sS'amanda'
p2614
I94
sS'huge'
p2615
I92
sS'needs'
p2616
I85
sS'to..will'
p2617
I94
sS'court'
p2618
I94
sS'goal'
p2619
I92
sS'awkward'
p2620
I91
sS'today"\xe2\x80\x9d'
p2621
I94
sS'rather'
p2622
I93
sS'breaking'
p2623
I93
sS'stayed'
p2624
I94
sS'everyday'
p2625
I86
sS'needa'
p2626
I94
sS'hannah'
p2627
I94
sS'chatap'
p2628
I94
sS'pass!!"'
p2629
I94
sS'ayyyyy'
p2630
I94
sS'strong'
p2631
I94
sS'explains'
p2632
I94
sS'waved'
p2633
I94
sS'fr'
p2634
I94
sS'sandwich'
p2635
I94
sS'okay'
p2636
I89
sS'5sos'
p2637
I92
sS'rude'
p2638
I94
sS'obituary'
p2639
I94
sS'fx'
p2640
I94
sS'batons'
p2641
I94
sS'advice'
p2642
I92
sS'juve'
p2643
I94
sS'unshakable'
p2644
I94
sS'helllllpppppp'
p2645
I94
sS'tries'
p2646
I92
sS'co\xe2\x80\xa6'
p2647
I94
sS'coming'
p2648
I80
sS'g8'
p2649
I94
sS'response'
p2650
I94
sS'fo'
p2651
I94
sS'a'
p2652
I6
sS'ulta'
p2653
I94
sS'short'
p2654
I93
sS'funday'
p2655
I94
sS'pussys'
p2656
I94
sS'tweeting'
p2657
I90
sS'shady'
p2658
I94
sS'may..but'
p2659
I94
sS'despicable'
p2660
I94
sS'trevor'
p2661
I94
sS'dragon'
p2662
I94
sS'gloomy'
p2663
I94
sS'responsibility'
p2664
I94
sS'grande'
p2665
I94
sS'shade'
p2666
I92
sS'pay'
p2667
I89
sS'pleasure'
p2668
I94
sS'dream'
p2669
I93
sS'playing'
p2670
I82
sS"that's"
p2671
I63
sS'jordans'
p2672
I93
sS'help'
p2673
I85
sS"don't"
p2674
I29
sS'september'
p2675
I94
sS'pepe'
p2676
I94
sS'stays'
p2677
I94
sS'sooo'
p2678
I93
sS'soon'
p2679
I82
sS'tomorow!!!!!\xe2\x80\x9d'
p2680
I94
sS'installed'
p2681
I94
sS'jeru'
p2682
I94
sS'attitude'
p2683
I94
sS'paper'
p2684
I93
sS'through'
p2685
I88
sS'replies'
p2686
I94
sS'hell'
p2687
I86
sS'whack-em'
p2688
I94
sS'sure..painful'
p2689
I94
sS'its'
p2690
I84
sS'24'
p2691
I94
sS'401k'
p2692
I94
sS'style'
p2693
I94
sS'20'
p2694
I90
sS'21'
p2695
I93
sS'23'
p2696
I94
sS'pray'
p2697
I93
sS'sale'
p2698
I94
sS'beyonce'
p2699
I93
sS'furstenberg'
p2700
I94
sS'actually'
p2701
I88
sS'late'
p2702
I86
sS'>>>'
p2703
I94
sS'heartbreak'
p2704
I94
sS'ilhsm'
p2705
I94
sS'systems'
p2706
I82
sS'sanctification'
p2707
I94
sS'leicester'
p2708
I94
sS'speech'
p2709
I94
sS'bout'
p2710
I89
sS'soccer'
p2711
I90
sS'might'
p2712
I90
sS"haven't"
p2713
I85
sS'catfish'
p2714
I94
sS'fool'
p2715
I94
sS'hurting'
p2716
I94
sS'good'
p2717
I49
sS'motivated'
p2718
I93
sS'calm'
p2719
I94
sS'yo'
p2720
I90
sS'like...hey..i'
p2721
I94
sS'ya'
p2722
I82
sS'agitated'
p2723
I94
sS'it"'
p2724
I94
sS'reigning'
p2725
I94
sS'clippers'
p2726
I90
sS'speechless'
p2727
I94
sS'atcha...i'
p2728
I94
sS'starbucks'
p2729
I93
sS'communities'
p2730
I94
sS'aawwwwwwww'
p2731
I94
sS'yr'
p2732
I94
sS'yu'
p2733
I94
sS'bigger'
p2734
I94
sS'my\xe2\x80\xa6'
p2735
I94
sS'mystery'
p2736
I94
sS'turndown'
p2737
I94
sS'everytime'
p2738
I93
sS'sundays'
p2739
I94
sS'always'
p2740
I68
sS'helming'
p2741
I94
sS'pro-peace'
p2742
I94
sS'drake'
p2743
I92
sS'payed'
p2744
I94
sS'legend'
p2745
I94
sS'stopped'
p2746
I93
sS'pen"'
p2747
I94
sS'leeegggooo'
p2748
I94
sS'1am'
p2749
I94
sS'found'
p2750
I91
sS'repeating'
p2751
I94
sS'difficult'
p2752
I94
sS'alreadyy'
p2753
I94
sS"isn't"
p2754
I88
sS'mercy'
p2755
I94
sS'heavy'
p2756
I94
sS'status'
p2757
I94
sS'everyone'
p2758
I90
sS'lad'
p2759
I94
sS'mums'
p2760
I94
sS'generation'
p2761
I92
sS'house'
p2762
I87
sS'energy'
p2763
I91
sS'hard'
p2764
I76
sS'imagined!\xe2\x80\x9d'
p2765
I94
sS'idea'
p2766
I90
sS'accidentally'
p2767
I94
sS'ball'
p2768
I93
sS'turnt'
p2769
I92
sS'evens'
p2770
I93
sS'murders'
p2771
I94
sS'event'
p2772
I94
sS'really'
p2773
I59
sS':\\'
p2774
I94
sS'prolly'
p2775
I93
sS'missed'
p2776
I94
sS'blacks'
p2777
I93
sS'p'
p2778
I94
sS'glitter'
p2779
I94
sS'robert'
p2780
I94
sS'since'
p2781
I81
sS'dyslexic'
p2782
I94
sS'acting'
p2783
I93
sS'race'
p2784
I92
sS'health'
p2785
I86
sS'yeah.deserving'
p2786
I94
sS'7'
p2787
I93
sS'zorro'
p2788
I94
sS'a++++++'
p2789
I94
sS'world-class'
p2790
I94
sS'issue'
p2791
I92
sS'highway'
p2792
I94
sS'humble'
p2793
I94
sS'ass'
p2794
I83
sS'bald'
p2795
I94
sS'bass'
p2796
I94
sS'pathetic'
p2797
I93
sS"bruh...i'm"
p2798
I94
sS'timeline'
p2799
I94
sS'auditions'
p2800
I94
sS'friday'
p2801
I85
sS'rant.\xe2\x80\x9d'
p2802
I94
sS'story'
p2803
I93
sS'"violent"'
p2804
I94
sS'livestreaming'
p2805
I92
sS'mmm'
p2806
I94
sS'houses'
p2807
I94
sS'reason'
p2808
I88
sS'killin'
p2809
I93
sS'asf'
p2810
I94
sS'one\xe2\x80\xa6'
p2811
I94
sS'imagine'
p2812
I92
sS'ask'
p2813
I84
sS'equipped'
p2814
I94
sS'teach'
p2815
I92
sS'10-20'
p2816
I94
sS'beginning'
p2817
I93
sS'bash'
p2818
I94
sS'thrown'
p2819
I94
sS'misogyny'
p2820
I94
sS'beeeeeen'
p2821
I94
sS'lamar'
p2822
I94
sS'persists'
p2823
I94
sS'success'
p2824
I93
sS'japandroids'
p2825
I94
sS'american'
p2826
I94
sS'apple'
p2827
I94
sS'expecting'
p2828
I94
sS'dir'
p2829
I94
sS'w'
p2830
I86
sS'freiburg'
p2831
I94
sS'heartbeat'
p2832
I94
sS'castle'
p2833
I94
sS'throws'
p2834
I93
sS'feed'
p2835
I94
sS'promoted'
p2836
I94
sS'major'
p2837
I94
sS'dont'
p2838
I89
sS'alley'
p2839
I94
sS'feel'
p2840
I74
sS'number'
p2841
I94
sS'fancy'
p2842
I94
sS'sisters'
p2843
I94
sS'talked'
p2844
I94
sS'done'
p2845
I79
sS'surface-to-air'
p2846
I94
sS'kobe'
p2847
I93
sS'cups'
p2848
I92
sS'miss'
p2849
I75
sS'maple'
p2850
I94
sS'noelley'
p2851
I94
sS'own..but'
p2852
I94
sS'guess'
p2853
I87
sS'"'
p2854
I87
sS'heads'
p2855
I93
sS'guest'
p2856
I94
sS'jet'
p2857
I94
sS'god...what'
p2858
I94
sS'homophobic.\xe2\x80\x9d'
p2859
I94
sS'hamsters'
p2860
I94
sS'least'
p2861
I94
sS'bleeding'
p2862
I94
sS'station'
p2863
I92
sS'smile'
p2864
I94
sS'movie\xe2\x80\xa6'
p2865
I94
sS'scary'
p2866
I94
sS'syrup'
p2867
I94
sS'handwriting'
p2868
I94
sS'store'
p2869
I92
sS'headache'
p2870
I93
sS'fox)'
p2871
I94
sS"paul's"
p2872
I94
sS'para'
p2873
I94
sS'pump'
p2874
I94
sS'you\xe2\x80\x9d'
p2875
I94
sS'tom'
p2876
I94
sS'park'
p2877
I91
sS"i'ma"
p2878
I94
sS'again.\xe2\x80\x9d'
p2879
I94
sS'part'
p2880
I91
sS'jordan'
p2881
I93
sS'harout'
p2882
I92
sS'topic...wait'
p2883
I94
sS'believe'
p2884
I87
sS'stairs'
p2885
I94
sS'grace'
p2886
I79
sS'fred'
p2887
I94
sS'center'
p2888
I94
sS'-vince'
p2889
I94
sS'king'
p2890
I92
sS'kind'
p2891
I92
sS'b'
p2892
I87
sS'double'
p2893
I92
sS'bruh.\xe2\x80\x9d'
p2894
I94
sS'arachin'
p2895
I94
sS'keeper'
p2896
I94
sS'recording'
p2897
I94
sS'tummy'
p2898
I94
sS"crutch...he's"
p2899
I94
sS'marriage'
p2900
I94
sS'supposed'
p2901
I91
sS'diva'
p2902
I94
sS'muffs'
p2903
I94
sS'toe'
p2904
I94
sS'declare'
p2905
I94
sS'attached'
p2906
I94
sS'motivation'
p2907
I93
sS'outta'
p2908
I93
sS'sssss'
p2909
I94
sS'fights'
p2910
I91
sS'ages'
p2911
I94
sS'be...saved'
p2912
I94
sS'c63'
p2913
I94
sS'home...we'
p2914
I94
sS'hangout'
p2915
I94
sS'graffiti'
p2916
I69
sS'tebow....raiders'
p2917
I94
sS'\xe0\xb8\x87\xe0\xb8\xb2\xe0\xb8\x99\xe0\xb8\x9a\xe0\xb8\xb8\xe0\xb8\x8d'
p2918
I94
sS'bhs'
p2919
I94
sS'have.\xe2\x80\x9d'
p2920
I94
sS'support..its'
p2921
I94
sS'mac)'
p2922
I94
sS'oovoo'
p2923
I94
sS'sell'
p2924
I94
sS'lie'
p2925
I93
sS'nights'
p2926
I91
sS'relationship'
p2927
I94
sS"jon's"
p2928
I94
sS'dancing'
p2929
I92
sS'lil'
p2930
I88
sS'off..this'
p2931
I94
sS'trash'
p2932
I94
sS"y'know"
p2933
I94
sS'lik'
p2934
I92
sS'also'
p2935
I88
sS'terrorist.\xe2\x80\x9d'
p2936
I94
sS'hummie'
p2937
I94
sS'charrch'
p2938
I94
sS'build'
p2939
I93
sS'finding'
p2940
I91
sS'command'
p2941
I94
sS'irritated'
p2942
I94
sS'tool'
p2943
I94
sS'liz'
p2944
I94
sS'gutted'
p2945
I94
sS'waitin'
p2946
I92
sS'play'
p2947
I84
sS'experienced'
p2948
I94
sS'godfather'
p2949
I94
sS'lacrae'
p2950
I94
sS'reach'
p2951
I94
sS'whodat'
p2952
I94
sS'reunited'
p2953
I94
sS'albums'
p2954
I94
sS'most'
p2955
I85
sS'75'
p2956
I94
sS'walker'
p2957
I94
sS'nothing'
p2958
I85
sS'3:12-16'
p2959
I94
sS'approved'
p2960
I94
sS'kiddies'
p2961
I94
sS'scorpios.\xe2\x80\x9d'
p2962
I94
sS'dudes"'
p2963
I94
sS'understands'
p2964
I94
sS'muscle'
p2965
I93
sS'5-0'
p2966
I94
sS'bug'
p2967
I94
sS'incase'
p2968
I94
sS'glammed'
p2969
I93
sS'clear'
p2970
I93
sS'sometimes'
p2971
I88
sS'ko'
p2972
I94
sS'shakin'
p2973
I94
sS'lolll'
p2974
I94
sS'podcasts'
p2975
I94
sS'clean'
p2976
I93
sS'co-ed'
p2977
I94
sS'\xe2\x98\x80\xef\xb8\x8f'
p2978
I93
sS'livestream'
p2979
I94
sS'usual'
p2980
I93
sS'shoutout'
p2981
I94
sS'hips'
p2982
I94
sS'stoner'
p2983
I94
sS'paul'
p2984
I94
sS'ugh'
p2985
I92
sS'golf'
p2986
I94
sS'666'
p2987
I94
sS'lay'
p2988
I94
sS'deserves'
p2989
I94
sS'disappointed'
p2990
I94
sS'ciroc'
p2991
I94
sS'_the'
p2992
I94
sS'booze'
p2993
I94
sS'session'
p2994
I91
sS'hyped'
p2995
I94
sS'rts'
p2996
I93
sS'weirded'
p2997
I94
sS'font'
p2998
I94
sS'fine'
p2999
I94
sS'find'
p3000
I85
sS'impact'
p3001
I94
sS'that)'
p3002
I94
sS'8:10'
p3003
I94
sS'sayin'
p3004
I94
sS'imake'
p3005
I94
sS'justice'
p3006
I92
sS'nervous'
p3007
I94
sS'writes'
p3008
I93
sS'ps-'
p3009
I94
sS'poppin'
p3010
I94
sS'payday'
p3011
I94
sS'kryptonite'
p3012
I94
sS'gerrard'
p3013
I94
sS'idiots'
p3014
I94
sS'wayne'
p3015
I94
sS'gaye..i'
p3016
I94
sS'morris'
p3017
I94
sS'pretty'
p3018
I86
sS'8'
p3019
I93
sS'circle'
p3020
I93
sS'time...so'
p3021
I94
sS'accurate'
p3022
I94
sS'juke'
p3023
I91
sS'hip'
p3024
I91
sS"rapper's"
p3025
I94
sS'crib...it'
p3026
I94
sS'his'
p3027
I64
sS'hit'
p3028
I89
sS'ingram'
p3029
I93
sS'distance'
p3030
I94
sS'luke'
p3031
I94
sS'flowing'
p3032
I94
sS'cya!\xe2\x80\x9d<~'
p3033
I94
sS'trees'
p3034
I94
sS'3/1'
p3035
I94
sS'famous'
p3036
I93
sS'feels'
p3037
I92
sS'longest'
p3038
I93
sS'basement'
p3039
I94
sS'during'
p3040
I93
sS'imitating'
p3041
I94
sS'him'
p3042
I80
sS'rehearsal\xe2\x80\xa6'
p3043
I94
sS'typos'
p3044
I94
sS'enemy'
p3045
I91
sS'cries'
p3046
I94
sS'ummmm'
p3047
I94
sS'childhood'
p3048
I94
sS'cry'
p3049
I92
sS'pissing'
p3050
I94
sS"wcw's"
p3051
I94
sS'celebs'
p3052
I94
sS'tomorrow\xe2\x80\x9d'
p3053
I94
sS'caramel'
p3054
I93
sS'gotten'
p3055
I94
sS'91605'
p3056
I87
sS'you?\xe2\x80\x9d'
p3057
I94
sS'graduating"'
p3058
I94
sS'gee'
p3059
I94
sS'wrote'
p3060
I94
sS'approaching'
p3061
I94
sS'lipsticks?"'
p3062
I94
sS"you...you're"
p3063
I94
sS'set'
p3064
I88
sS'art'
p3065
I92
sS'ser'
p3066
I94
sS'throwing'
p3067
I93
sS":'("
p3068
I94
sS'vine'
p3069
I94
sS'butchering'
p3070
I94
sS'sex'
p3071
I94
sS'achieves'
p3072
I94
sS'culture'
p3073
I91
sS'see'
p3074
I58
sS'dumb'
p3075
I92
sS'are'
p3076
I23
sS'gossip'
p3077
I94
sS'"fans"'
p3078
I94
sS'close'
p3079
I91
sS'jogum'
p3080
I94
sS'ebay'
p3081
I94
sS'retweet'
p3082
I94
sS'visalus'
p3083
I94
sS'guys\xe2\x80\x9d'
p3084
I94
sS'knees'
p3085
I93
sS'hibbert'
p3086
I93
sS'visiting'
p3087
I92
sS'....ok'
p3088
I94
sS'movie'
p3089
I92
sS'wow'
p3090
I81
sS'please'
p3091
I85
sS'demons'
p3092
I94
sS'case'
p3093
I94
sS'fans'
p3094
I89
sS'won'
p3095
I92
sS'3mil+'
p3096
I94
sS'probably'
p3097
I88
sS'burned'
p3098
I94
sS'halfway'
p3099
I94
sS'nope'
p3100
I89
sS'nopd'
p3101
I94
sS'compliment'
p3102
I94
sS'knowing'
p3103
I94
sS'sexual'
p3104
I94
sS'makeup'
p3105
I89
sS'creating'
p3106
I93
sS'missing'
p3107
I92
sS'uuu'
p3108
I94
sS'sold'
p3109
I94
sS'attention'
p3110
I89
sS'\xe0\xb8\x87'
p3111
I94
sS'restaurants'
p3112
I94
sS'greinke'
p3113
I94
sS'outfit'
p3114
I94
sS'hill'
p3115
I94
sS'hachette'
p3116
I94
sS'mentoring'
p3117
I94
sS'"not'
p3118
I94
sS'(sun'
p3119
I94
sS'pull'
p3120
I94
sS'(especially'
p3121
I94
sS'marilyn'
p3122
I94
sS'pissed'
p3123
I93
sS'glorification'
p3124
I94
sS'both'
p3125
I89
sS'orphanage'
p3126
I93
sS'8:30'
p3127
I94
sS'last'
p3128
I71
sS'widdit'
p3129
I94
sS'license'
p3130
I94
sS'difference!\xe2\x80\x9d'
p3131
I94
sS'expiring'
p3132
I94
sS"wouldn't"
p3133
I94
sS'barely'
p3134
I93
sS'fustrated'
p3135
I94
sS'thor'
p3136
I93
sS'sensitive'
p3137
I94
sS'connection'
p3138
I94
sS'smh\xe2\x80\x9d'
p3139
I94
sS"we've"
p3140
I94
sS'collection'
p3141
I94
sS'focused'
p3142
I94
sS'\xe2\x9c\x8b\xe2\x9c\x8b\xe2\x9c\x8b\xe2\x9c\x8b\xe2\x9c\x8b\xe2\x9c\x8b\xe2\x9c\x8b'
p3143
I94
sS'whole'
p3144
I84
sS'deeee'
p3145
I94
sS'life..the'
p3146
I94
sS'patty'
p3147
I94
sS'upgraded'
p3148
I94
sS'liked'
p3149
I94
sS'\xe2\x98\xba'
p3150
I93
sS'drunk'
p3151
I91
sS'reasons'
p3152
I93
sS'sweet'
p3153
I91
sS'thought...if'
p3154
I94
sS'rumbleee'
p3155
I94
sS'dudes'
p3156
I92
sS'except'
p3157
I94
sS'lapd'
p3158
I94
sS"hadn't"
p3159
I94
sS'eggs'
p3160
I94
sS'dancer'
p3161
I94
sS'simply'
p3162
I94
sS'likes'
p3163
I93
sS'church'
p3164
I76
sS'sammy'
p3165
I94
sS'825000'
p3166
I94
sS'mission'
p3167
I92
sS'kinky\xe2\x80\x9d'
p3168
I94
sS'you..but'
p3169
I94
sS'headaches'
p3170
I94
sS'platinum'
p3171
I94
sS'x'
p3172
I94
sS'brics'
p3173
I94
sS'devil'
p3174
I92
sS'cream'
p3175
I94
sS'raise'
p3176
I93
sS'b.l.t'
p3177
I94
sS'17:14:17.0,34.2177444,-118.417165,1220,ran'
p3178
I94
sS'create'
p3179
I93
sS'panera'
p3180
I94
sS'political'
p3181
I93
sS'contesting'
p3182
I94
sS'whos'
p3183
I94
sS'sad?\xe2\x80\x9d'
p3184
I94
sS'secret'
p3185
I93
sS'pa'
p3186
I94
sS'damn'
p3187
I77
sS'amnesia'
p3188
I94
sS'ireland'
p3189
I94
sS'boston'
p3190
I94
sS'being\xe2\x80\x9d'
p3191
I94
sS'threaten'
p3192
I94
sS'pi'
p3193
I94
sS'meeting'
p3194
I93
sS'woke'
p3195
I94
sS'affectionate'
p3196
I94
sS'suspicious'
p3197
I94
sS'flight'
p3198
I94
sS'squirrel'
p3199
I93
sS'gay'
p3200
I91
sS'buck'
p3201
I93
sS'fire'
p3202
I91
sS'lulu'
p3203
I94
sS"what's"
p3204
I79
sS'crack'
p3205
I94
sS'gas'
p3206
I92
sS'else'
p3207
I90
sS'evil..and'
p3208
I94
sS'halftime'
p3209
I94
sS'finds'
p3210
I94
sS'awake'
p3211
I91
sS'whitney'
p3212
I94
sS'demand'
p3213
I93
sS'prices'
p3214
I94
sS'conflict..so'
p3215
I94
sS'mojitos*'
p3216
I94
sS'wingstop'
p3217
I94
sS'handling'
p3218
I94
sS'look'
p3219
I79
sS'raw'
p3220
I94
sS'coventry'
p3221
I93
sS'mlk'
p3222
I94
sS'straight'
p3223
I94
sS"sc's"
p3224
I94
sS'fux'
p3225
I94
sS'forgetting'
p3226
I94
sS'while'
p3227
I87
sS'replaced'
p3228
I94
sS'kick'
p3229
I91
sS'behavior'
p3230
I94
sS'impacted'
p3231
I94
sS'fun'
p3232
I84
sS'fuk'
p3233
I94
sS'vroom'
p3234
I94
sS'pack'
p3235
I94
sS'miles'
p3236
I94
sS'styles'
p3237
I94
sS'<3'
p3238
I91
sS'wherever'
p3239
I94
sS'von'
p3240
I94
sS'dim)'
p3241
I94
sS'"bailando"'
p3242
I94
sS'urs'
p3243
I94
sS'rip'
p3244
I93
sS'haunts'
p3245
I94
sS'yeeeee'
p3246
I94
sS'skype'
p3247
I94
sS'ready'
p3248
I81
sS'pronounced'
p3249
I94
sS'behavior..give'
p3250
I94
sS'awwwwwwdhgasgb'
p3251
I94
sS'kings'
p3252
I94
sS'voy'
p3253
I94
sS'monroe'
p3254
I94
sS'retarded'
p3255
I94
sS'funny'
p3256
I81
sS'communal'
p3257
I94
sS'shirt'
p3258
I92
sS'anymore'
p3259
I93
sS'noooo'
p3260
I94
sS'tells'
p3261
I94
sS'read'
p3262
I88
sS'smh,91605\n526418236095479808,xcaretete,2014-10-26'
p3263
I94
sS'9'
p3264
I94
sS'lizette'
p3265
I93
sS'eww'
p3266
I94
sS'higher'
p3267
I94
sS'used'
p3268
I89
sS'annoyingness'
p3269
I94
sS'dime'
p3270
I94
sS'flooded'
p3271
I94
sS'\xe0\xb9\x80\xe0\xb8\xa3\xe0\xb8\xb2\xe0\xb8\x95\xe0\xb9\x89\xe0\xb8\xad\xe0\xb8\x87\xe0\xb8\xa1\xe0\xb8\xb2'
p3272
I94
sS'tiff'
p3273
I94
sS'yesterday'
p3274
I90
sS'backstreet'
p3275
I94
sS'fatts'
p3276
I94
sS'usually'
p3277
I94
sS'moment'
p3278
I87
sS'u.s'
p3279
I94
sS'arrived'
p3280
I93
sS'cleaning'
p3281
I93
sS'sandals'
p3282
I94
sS'shoot!\xe2\x80\x9di'
p3283
I94
sS'bob'
p3284
I94
sS'sweating'
p3285
I94
sS'"female"'
p3286
I94
sS'early'
p3287
I88
sS'"sitting'
p3288
I94
sS'barry'
p3289
I94
sS'people"'
p3290
I94
sS'older'
p3291
I94
sS'rules'
p3292
I94
sS'salvation'
p3293
I94
sS"l'll"
p3294
I94
sS'nola'
p3295
I94
sS'spent'
p3296
I92
sS'obviously'
p3297
I91
sS'person'
p3298
I86
sS'thinkers...have'
p3299
I94
sS'now...smh'
p3300
I94
sS'flame'
p3301
I94
sS'y'
p3302
I92
sS'arionne'
p3303
I94
sS'of...i'
p3304
I94
sS'"robocop"'
p3305
I94
sS'spend'
p3306
I93
sS'know'
p3307
I48
sS'happinesshappinesshappiness'
p3308
I94
sS'simp'
p3309
I94
sS'\xe2\x9d\xa4'
p3310
I94
sS'winkler'
p3311
I94
sS'12:40'
p3312
I94
sS'gracewalk'
p3313
I94
sS'tanto'
p3314
I94
sS'crazy/funny'
p3315
I94
sS'mom<3'
p3316
I94
sS'openly'
p3317
I94
sS'cocky'
p3318
I94
sS'questions'
p3319
I93
sS'using'
p3320
I94
sS'queme'
p3321
I94
sS'retired'
p3322
I94
sS'praying'
p3323
I90
sS'cocks'
p3324
I94
sS'"insults"'
p3325
I94
sS'letting'
p3326
I94
sS'damm'
p3327
I94
sS'cut'
p3328
I93
sS'cus'
p3329
I94
sS'omgomgomg'
p3330
I94
sS'cup'
p3331
I91
sS'marrying'
p3332
I94
sS'seems'
p3333
I94
sS'calapari'
p3334
I94
sS'cemetery'
p3335
I94
sS'cuz'
p3336
I90
sS'makers'
p3337
I94
sS'havin'
p3338
I94
sS'cue'
p3339
I94
sS'parents'
p3340
I94
sS'defla'
p3341
I94
sS'homies'
p3342
I94
sS'excited'
p3343
I92
sS'surprised'
p3344
I91
sS'bobbie'
p3345
I94
sS'customers'
p3346
I94
sS'ac!d'
p3347
I94
sS'too,91605\n526188323698532352,xcaretete,2014-10-26'
p3348
I94
sS'emergency'
p3349
I94
sS"joanna's"
p3350
I94
sS'big'
p3351
I76
sS'couple'
p3352
I93
sS'sittin'
p3353
I94
sS'results'
p3354
I94
sS'330'
p3355
I94
sS'game'
p3356
I77
sS'shading'
p3357
I94
sS'bit'
p3358
I86
sS'wings'
p3359
I94
sS'adams'
p3360
I94
sS'knock'
p3361
I92
sS'bama'
p3362
I94
sS'd'
p3363
I92
sS'hahha'
p3364
I94
sS'follows'
p3365
I94
sS'message'
p3366
I93
sS'appointed..anointed'
p3367
I94
sS"u're"
p3368
I94
sS'miami'
p3369
I94
sS'(323)'
p3370
I94
sS'enjoy...none'
p3371
I94
sS'kliris'
p3372
I94
sS'popular'
p3373
I93
sS'fault'
p3374
I93
sS'change..and'
p3375
I94
sS'melville'
p3376
I94
sS'sketch'
p3377
I94
sS'perpetual'
p3378
I94
sS'often'
p3379
I90
sS'course'
p3380
I94
sS'fucking'
p3381
I80
sS'spring'
p3382
I93
sS'1st'
p3383
I90
sS'some'
p3384
I60
sS'back'
p3385
I51
sS'handjob'
p3386
I94
sS'b4'
p3387
I93
sS'streaming'
p3388
I94
sS'lips'
p3389
I93
sS'follow...looking'
p3390
I94
sS'clown'
p3391
I94
sS'sight'
p3392
I94
sS'"thirsty'
p3393
I94
sS'chant'
p3394
I94
sS'classes'
p3395
I94
sS'pale'
p3396
I94
sS'ontop'
p3397
I94
sS'fire!!!\xe2\x80\x9d'
p3398
I94
sS'delivered'
p3399
I94
sS'pinapple'
p3400
I94
sS'garage'
p3401
I94
sS'want2drop'
p3402
I94
sS'shall'
p3403
I94
sS'generations'
p3404
I94
sS'providence'
p3405
I94
sS'prom'
p3406
I94
sS'wowowow'
p3407
I94
sS'roommate'
p3408
I94
sS'cloud'
p3409
I94
sS'ticking'
p3410
I94
sS'now...\xe2\x80\x9d'
p3411
I94
sS'pee'
p3412
I94
sS'wat\xe2\x80\xa6'
p3413
I94
sS'dating'
p3414
I94
sS'temple'
p3415
I93
sS'laughing'
p3416
I93
sS'be'
p3417
I21
sS'bf'
p3418
I92
sS'eating'
p3419
I93
sS'bb'
p3420
I94
sS'bc'
p3421
I83
sS'remembered'
p3422
I94
sS'bartender'
p3423
I93
sS'martin'
p3424
I92
sS'laker'
p3425
I94
sS'fed'
p3426
I93
sS's/o'
p3427
I93
sS'step'
p3428
I93
sS'santa'
p3429
I93
sS'chick'
p3430
I94
sS'from'
p3431
I60
sS'carol'
p3432
I94
sS'life..for'
p3433
I94
sS'intense'
p3434
I93
sS'nueva'
p3435
I94
sS'franco'
p3436
I94
sS'jenessa'
p3437
I93
sS'faith'
p3438
I87
sS'goods'
p3439
I94
sS'consumption'
p3440
I94
sS'volunteering'
p3441
I93
sS'yawn'
p3442
I94
sS'gettin'
p3443
I94
sS'god..but'
p3444
I94
sS"mcdonald's"
p3445
I94
sS'truck'
p3446
I94
sS'graduation'
p3447
I94
sS'drama'
p3448
I94
sS'amazeballs'
p3449
I94
sS'idk'
p3450
I93
sS'country...floyd'
p3451
I94
sS'editorialphoto'
p3452
I94
sS'reportedly'
p3453
I94
sS'mouth'
p3454
I94
sS'hatred'
p3455
I94
sS'not..grow'
p3456
I94
sS'wanna'
p3457
I87
sS'dwight'
p3458
I93
sS'block'
p3459
I92
sS'plan'
p3460
I94
sS'ppl'
p3461
I92
sS'seeing'
p3462
I92
sS'legalism'
p3463
I94
sS'bluntz'
p3464
I94
sS'hears'
p3465
I94
sS'dude'
p3466
I87
sS'into'
p3467
I82
sS'within'
p3468
I94
sS'nonsense'
p3469
I94
sS'crash'
p3470
I94
sS'iowa'
p3471
I94
sS'phase'
p3472
I94
sS'momma'
p3473
I94
sS'because'
p3474
I74
sS'tiffs'
p3475
I94
sS'falcons-'
p3476
I94
sS'lesson'
p3477
I92
sS'france'
p3478
I94
sS'lebron'
p3479
I89
sS'clutch'
p3480
I94
sS'schleeep'
p3481
I94
sS'hands..he'
p3482
I94
sS'innate'
p3483
I94
sS'bombest'
p3484
I94
sS'spending'
p3485
I93
sS'ew'
p3486
I94
sS'devlopement'
p3487
I94
sS'question'
p3488
I92
sS'ca)'
p3489
I81
sS'long'
p3490
I85
sS'custom'
p3491
I94
sS'camera'
p3492
I94
sS"we're"
p3493
I91
sS'homemade'
p3494
I94
sS'bruh'
p3495
I90
sS'forward'
p3496
I90
sS'bored'
p3497
I87
sS'draya..as'
p3498
I94
sS'scared'
p3499
I93
sS'blueprint'
p3500
I94
sS'mountains'
p3501
I94
sS'boutta'
p3502
I94
sS'himself'
p3503
I92
sS'pimpin'
p3504
I94
sS'phase\xe2\x80\x9d'
p3505
I94
sS'collapsed'
p3506
I94
sS'motivational'
p3507
I94
sS'boys'
p3508
I84
sS'(cuz'
p3509
I94
sS'larry'
p3510
I94
sS'link'
p3511
I92
sS'familia'
p3512
I94
sS'sinner'
p3513
I94
sS'line'
p3514
I93
sS'(8231'
p3515
I93
sS'showcase'
p3516
I94
sS'posted'
p3517
I84
sS'tumblr'
p3518
I94
sS'whoozy'
p3519
I94
sS'post'
p3520
I94
sS'askin'
p3521
I94
sS'characteristic'
p3522
I94
sS'gooooal'
p3523
I94
sS'fries'
p3524
I93
sS'up'
p3525
I27
sS'us'
p3526
I76
sS'ur'
p3527
I88
sS'um'
p3528
I90
sS"tomorrow's"
p3529
I93
sS'slander'
p3530
I94
sS'growth'
p3531
I94
sS'uh'
p3532
I93
sS'ue'
p3533
I92
sS'piru'
p3534
I94
sS'z'
p3535
I94
sS'called'
p3536
I93
sS'that...\xe2\x80\x9d'
p3537
I94
sS'ordered'
p3538
I94
sS'stick'
p3539
I94
sS"side'"
p3540
I94
sS'ago...bro'
p3541
I94
sS'estilo'
p3542
I94
sS'skeptical'
p3543
I94
sS'single'
p3544
I91
sS'cure'
p3545
I94
sS'evening'
p3546
I94
sS'minigolf'
p3547
I94
sS'modeling'
p3548
I94
sS'doe'
p3549
I94
sS'defines'
p3550
I94
sS'corners'
p3551
I94
sS'truuu'
p3552
I94
sS'creeper'
p3553
I94
sS'nah'
p3554
I90
sS'peace'
p3555
I88
sS'tare'
p3556
I94
sS'nick'
p3557
I94
sS'nap'
p3558
I92
sS'definitely'
p3559
I94
sS'2da'
p3560
I94
sS'income'
p3561
I94
sS'department'
p3562
I94
sS'sykes'
p3563
I93
sS'b/c'
p3564
I94
sS'today\xe2\x80\x9d'
p3565
I94
sS'nice'
p3566
I84
sS'happens'
p3567
I88
sS'repentance'
p3568
I94
sS'mustard'
p3569
I94
sS'lombardi\xe2\x80\x9d'
p3570
I94
sS'favourite'
p3571
I94
sS'does)'
p3572
I94
sS'missin'
p3573
I94
sS'problems'
p3574
I89
sS'prepared'
p3575
I92
sS'lens'
p3576
I94
sS'tho.\xe2\x80\x9d'
p3577
I94
sS'bonding'
p3578
I94
sS'rested'
p3579
I94
sS'cater'
p3580
I94
sS'allowing'
p3581
I94
sS'score'
p3582
I94
sS'sides'
p3583
I94
sS'":)"'
p3584
I94
sS'lotta'
p3585
I94
sS'ago'
p3586
I89
sS'hells'
p3587
I94
sS'lane'
p3588
I94
sS'it\xe2\x80\x9dyou'
p3589
I94
sS'tucca'
p3590
I94
sS'beauty\xe2\x80\xa6'
p3591
I94
sS'on?\xe2\x80\x9d'
p3592
I94
sS'youtube'
p3593
I94
sS'walked'
p3594
I93
sS'annoyed'
p3595
I94
sS'peeps'
p3596
I94
sS'circuit'
p3597
I94
sS'fransisco'
p3598
I94
sS'aiko'
p3599
I94
sS'dot'
p3600
I94
sS'06:58:07.0,34.2177428,-118.4171468,1220,waiting'
p3601
I94
sS'sallie'
p3602
I93
sS"she's"
p3603
I89
sS'nash'
p3604
I89
sS'buffalo'
p3605
I94
sS'hello'
p3606
I93
sS'helll'
p3607
I94
sS'once'
p3608
I89
sS'essay'
p3609
I93
sS'yasiin'
p3610
I93
sS'\xe2\x98\xba\xef\xb8\x8f\xe2\x98\xba\xef\xb8\x8f\xe2\x98\xba\xef\xb8\x8f'
p3611
I94
sS'wonders'
p3612
I94
sS'evidence'
p3613
I94
sS'2005?\xe2\x80\x9d'
p3614
I94
sS'w/mccheyne'
p3615
I94
sS'gz'
p3616
I94
sS'ms.dumbo'
p3617
I94
sS'gg'
p3618
I94
sS'\xe2\x9d\xa4\xef\xb8\x8f\xe2\x9d\xa4\xef\xb8\x8f'
p3619
I94
sS'swedish'
p3620
I94
sS'stops'
p3621
I94
sS'go'
p3622
I43
sS'gn'
p3623
I93
sS'conversation'
p3624
I94
sS'bars'
p3625
I94
sS'make-up'
p3626
I94
sS'peanut'
p3627
I94
sS'young'
p3628
I92
sS'send'
p3629
I91
sS'nose'
p3630
I93
sS'lower'
p3631
I94
sS'breakout'
p3632
I94
sS'84'
p3633
I94
sS'em\xe2\x80\xa6'
p3634
I94
sS'weather'
p3635
I94
sS'suite'
p3636
I94
sS'gb'
p3637
I94
sS'sent'
p3638
I94
sS'dandy'
p3639
I94
sS'nails'
p3640
I94
sS'random'
p3641
I93
sS'wished'
p3642
I94
sS'vi'
p3643
I94
sS'outside'
p3644
I93
sS'713'
p3645
I94
sS'wave'
p3646
I94
sS'fuuu'
p3647
I94
sS'photoshoot'
p3648
I94
sS'putting'
p3649
I92
sS"sweatyi'm"
p3650
I94
sS'douche'
p3651
I94
sS'drinking'
p3652
I92
sS'shitfaced'
p3653
I94
sS'fridayyyyy'
p3654
I94
sS'"peter"'
p3655
I94
sS'meek'
p3656
I94
sS'happened.....no'
p3657
I94
sS'button'
p3658
I93
sS'shock'
p3659
I94
sS'stfu'
p3660
I94
sS'ryan'
p3661
I89
sS'try'
p3662
I94
sS'weho'
p3663
I91
sS'verdict'
p3664
I93
sS'lol,91605\n526420001469640705,xcaretete,2014-10-26'
p3665
I94
sS'havent'
p3666
I94
sS'tru'
p3667
I94
sS'challenge'
p3668
I93
sS'joey'
p3669
I94
sS'booty'
p3670
I94
sS"you'd"
p3671
I94
sS'ploy-hyphenated'
p3672
I94
sS'nope.forgiven'
p3673
I94
sS'78'
p3674
I94
sS'stoned'
p3675
I94
sS'an\xe2\x80\xa6'
p3676
I94
sS'synergy'
p3677
I94
sS'jump'
p3678
I93
sS'blowing'
p3679
I94
sS'video'
p3680
I87
sS'picked'
p3681
I94
sS'guys..you'
p3682
I94
sS'sags'
p3683
I94
sS'sausage'
p3684
I94
sS'empty.\xe2\x80\x9d'
p3685
I94
sS'plays'
p3686
I93
sS'business'
p3687
I93
sS'rate'
p3688
I94
sS'chicago'
p3689
I93
sS'giving'
p3690
I93
sS'falcons'
p3691
I92
sS'23-24'
p3692
I94
sS'valet'
p3693
I94
sS'lmfao'
p3694
I92
sS'waiting'
p3695
I84
sS't'
p3696
I94
sS'kershaw'
p3697
I94
sS'waiiiit'
p3698
I94
sS'bird'
p3699
I94
sS'body'
p3700
I92
sS'locked'
p3701
I94
sS'justification'
p3702
I93
sS'ignorance.\xe2\x80\x9d'
p3703
I94
sS'chose'
p3704
I94
sS'leg'
p3705
I94
sS'are...there...now'
p3706
I94
sS'wonders?\xe2\x80\x9d'
p3707
I94
sS'warrior'
p3708
I94
sS'pushing'
p3709
I94
sS'punch'
p3710
I94
sS'k-ville'
p3711
I94
sS'ramsey'
p3712
I94
sS'let'
p3713
I78
sS'sink'
p3714
I93
sS'others'
p3715
I91
sS'sing'
p3716
I93
sS'incredible'
p3717
I94
sS'"next'
p3718
I94
sS'great'
p3719
I78
sS'yeah.worthy'
p3720
I94
sS'talent'
p3721
I93
sS'metro'
p3722
I94
sS'prosper.\xe2\x80\x9d'
p3723
I94
sS'30'
p3724
I93
sS'shades'
p3725
I93
sS'down....crickets...kanye'
p3726
I94
sS'35'
p3727
I94
sS'leaving'
p3728
I92
sS'eatin'
p3729
I94
sS'fulton'
p3730
I94
sS'deleted'
p3731
I94
sS'bryan'
p3732
I94
sS'popcorn'
p3733
I94
sS'opinion'
p3734
I93
sS'dyad'
p3735
I94
sS'!!!!\xe2\x80\x9d'
p3736
I94
sS'makes'
p3737
I87
sS'honor'
p3738
I89
sS'dices'
p3739
I94
sS'fourfold'
p3740
I94
sS'toss'
p3741
I94
sS'ta-ha'
p3742
I94
sS'danger'
p3743
I94
sS'win'
p3744
I80
sS'iheartradio'
p3745
I94
sS'dedicated'
p3746
I94
sS'apt'
p3747
I94
sS'hardy'
p3748
I94
sS'wit'
p3749
I92
sS'wk'
p3750
I94
sS'names'
p3751
I94
sS'blog'
p3752
I94
sS'lima'
p3753
I94
sS'singing'
p3754
I94
sS'\xd0\xb4\xd0\xbb\xd1\x8f'
p3755
I94
sS'sermon'
p3756
I87
sS'lime'
p3757
I94
sS'standing'
p3758
I94
sS'use'
p3759
I88
sS'hahahahaha'
p3760
I94
sS'crap'
p3761
I93
sS'stream'
p3762
I93
sS'usa'
p3763
I92
sS'&'
p3764
I60
sS'atonement'
p3765
I94
sS"marches..that's"
p3766
I94
sS'cray'
p3767
I92
sS'flat'
p3768
I94
sS'next'
p3769
I76
sS'few'
p3770
I88
sS'pictures'
p3771
I94
sS'doubt'
p3772
I93
sS'coldplay'
p3773
I94
sS'cheeky'
p3774
I94
sS'butler'
p3775
I94
sS'themselves'
p3776
I90
sS'tigers'
p3777
I94
sS'rick'
p3778
I94
sS'putin'
p3779
I94
sS"'the"
p3780
I94
sS'babe'
p3781
I72
sS'4th\xe2\x80\x9d'
p3782
I94
sS'started'
p3783
I87
sS'detail'
p3784
I94
sS'sister'
p3785
I92
sS'confused'
p3786
I93
sS'trail'
p3787
I92
sS'depth'
p3788
I94
sS'israelis'
p3789
I94
sS'$600'
p3790
I94
sS'ashamed'
p3791
I94
sS'baby'
p3792
I80
sS'preoccupied'
p3793
I94
sS'garamond'
p3794
I94
sS'appartments'
p3795
I94
sS'bounces'
p3796
I94
sS'women'
p3797
I93
sS'topic'
p3798
I94
sS'account'
p3799
I90
sS'fooling'
p3800
I94
sS'animals'
p3801
I94
sS'us"'
p3802
I94
sS'salad'
p3803
I92
sS'f'
p3804
I94
sS'this'
p3805
I18
sS'alia'
p3806
I94
sS'ride'
p3807
I90
sS'tease'
p3808
I94
sS'pour'
p3809
I93
sS'tag'
p3810
I94
sS'crossed'
p3811
I91
sS'thin'
p3812
I94
sS'drill'
p3813
I94
sS'freedom'
p3814
I94
sS'happy...so'
p3815
I94
sS'about'
p3816
I47
sS'industry'
p3817
I94
sS'battered'
p3818
I94
sS'control'
p3819
I78
sS'kake'
p3820
I94
sS'inches..oh'
p3821
I94
sS'kenny'
p3822
I94
sS'links'
p3823
I93
sS'do'
p3824
I31
sS'lock'
p3825
I94
sS'"you\'re'
p3826
I94
sS'halloween'
p3827
I92
sS'disruption'
p3828
I94
sS'america..and'
p3829
I94
sS'high'
p3830
I90
sS"macarthur's"
p3831
I94
sS'allnighter'
p3832
I93
sS'now"'
p3833
I94
sS'pulling'
p3834
I94
sS'something'
p3835
I79
sS'said...bye'
p3836
I94
sS'\xe0\xb8\x87\xe0\xb8\x87\xe0\xb8\x87'
p3837
I94
sS'wonderful'
p3838
I93
sS'tan'
p3839
I92
sS'skirt'
p3840
I94
sS'enrique'
p3841
I94
sS'saiyan'
p3842
I94
sS'kian'
p3843
I90
sS'gcc'
p3844
I94
sS'surrounded'
p3845
I94
sS'sit'
p3846
I92
sS'vibe'
p3847
I94
sS'purpose'
p3848
I94
sS'rippin'
p3849
I94
sS'thrift'
p3850
I94
sS'located'
p3851
I94
sS'teala'
p3852
I94
sS'blessings'
p3853
I94
sS'instead'
p3854
I94
sS'<==in'
p3855
I94
sS'comedy'
p3856
I93
sS'nation....we'
p3857
I94
sS'sin'
p3858
I94
sS'thessalonians'
p3859
I94
sS',91605\n524405180826017792,xcaretete,2014-10-21'
p3860
I94
sS'pink'
p3861
I94
sS"g's"
p3862
I94
sS'smut'
p3863
I92
sS'(of)'
p3864
I94
sS'boredem'
p3865
I94
sS'sir'
p3866
I94
sS'forget..god'
p3867
I94
sS'stop'
p3868
I74
sS'antennas'
p3869
I94
sS'spinnin'
p3870
I94
sS'pigs'
p3871
I94
sS'wrist'
p3872
I94
sS'emotions...do'
p3873
I94
sS'taco'
p3874
I92
sS'hahahaha'
p3875
I85
sS'coast'
p3876
I94
sS'jumping'
p3877
I94
sS'ite'
p3878
I94
sS'opinion...not'
p3879
I94
sS'whistle'
p3880
I94
sS'levels'
p3881
I94
sS'light'
p3882
I92
sS'lame'
p3883
I92
sS'chapman'
p3884
I94
sS"now..it's"
p3885
I94
sS'honestly'
p3886
I88
sS'kedran'
p3887
I94
sS'allow'
p3888
I93
sS'birthday..live'
p3889
I94
sS'9ers'
p3890
I94
sS'amazingsfffdsdfgg'
p3891
I94
sS'houston'
p3892
I94
sS'creation'
p3893
I94
sS'emotions\xe2\x80\x9d'
p3894
I94
sS'produces'
p3895
I94
sS'\xd0\xb0\xd0\xb0\xd0\xb0\xd0\xb0'
p3896
I94
sS'despite'
p3897
I94
sS'encouraged'
p3898
I94
sS'outlook'
p3899
I94
sS'outage'
p3900
I94
sS'times!!\xe2\x80\x9d'
p3901
I94
sS'alliance'
p3902
I94
sS"won't"
p3903
I88
sS'looks'
p3904
I89
sS'team..too'
p3905
I94
sS'cruise'
p3906
I94
sS'demon'
p3907
I94
sS'horny'
p3908
I94
sS'bunch'
p3909
I94
sS'sauce'
p3910
I94
sS'write'
p3911
I94
sS'wr'
p3912
I94
sS'creeped'
p3913
I94
sS'la'
p3914
I70
sS'ln'
p3915
I94
sS'lo'
p3916
I94
sS'masses'
p3917
I94
sS'selfish\xe2\x80\x9d'
p3918
I94
sS'perf'
p3919
I94
sS'[pic]'
p3920
I94
sS'willing'
p3921
I94
sS'yeah.perfect'
p3922
I94
sS'so\xe2\x80\xa6'
p3923
I94
sS'"ok"'
p3924
I94
sS'kat!e'
p3925
I94
sS'2015'
p3926
I93
sS'2014'
p3927
I94
sS"twitter's"
p3928
I94
sS'bye'
p3929
I93
sS'2013'
p3930
I94
sS'dad'
p3931
I84
sS'flex'
p3932
I93
sS'gooooooo!\xe2\x80\x9d'
p3933
I94
sS'hynas'
p3934
I94
sS'greater'
p3935
I94
sS'twerkin'
p3936
I94
sS'dan'
p3937
I93
sS'practice'
p3938
I89
sS'versace'
p3939
I94
sS'going...they'
p3940
I94
sS'dat'
p3941
I86
sS'mention'
p3942
I92
sS'"act'
p3943
I94
sS'freaky'
p3944
I94
sS'spruuuung'
p3945
I94
sS'hands'
p3946
I93
sS"owner's"
p3947
I94
sS'announcers'
p3948
I94
sS'hate..now'
p3949
I94
sS'day'
p3950
I52
sS'napkin'
p3951
I94
sS'strive'
p3952
I94
sS'7255'
p3953
I94
sS'bartending'
p3954
I94
sS'thrill'
p3955
I94
sS"night's"
p3956
I94
sS'hat...hopefully'
p3957
I94
sS'nfl'
p3958
I92
sS'it\xe2\x98\xba\xef\xb8\x8f'
p3959
I94
sS'ohhhhhh'
p3960
I94
sS'slide'
p3961
I94
sS'magnitude'
p3962
I94
sS'ways..but'
p3963
I94
sS'truth'
p3964
I90
sS'princesses'
p3965
I94
sS'despell'
p3966
I94
sS'flavored'
p3967
I94
sS'nationals'
p3968
I93
sS'francisco'
p3969
I94
sS'bedtime'
p3970
I94
sS'seniors'
p3971
I93
sS'fare'
p3972
I94
sS'studios'
p3973
I81
sS'calipari'
p3974
I94
sS'tension'
p3975
I94
sS'doing'
p3976
I83
sS'rapcussion'
p3977
I94
sS'strip'
p3978
I94
sS'darth'
p3979
I94
sS'yaalllllaaaah'
p3980
I94
sS'macaroons'
p3981
I94
sS'home"'
p3982
I94
sS'society'
p3983
I94
sS'books'
p3984
I91
sS'bad..but'
p3985
I94
sS'sion'
p3986
I93
sS'82'
p3987
I94
sS'our'
p3988
I74
sS'80'
p3989
I93
sS'81'
p3990
I94
sS'indulged'
p3991
I94
sS'87'
p3992
I94
sS'special'
p3993
I93
sS'out'
p3994
I35
sS'butch'
p3995
I94
sS'matt'
p3996
I90
sS'heyy'
p3997
I94
sS'entertainment'
p3998
I94
sS'kpop'
p3999
I94
sS'desert'
p4000
I94
sS'unlawful'
p4001
I94
sS'hive'
p4002
I93
sS'iblackedout'
p4003
I94
sS'farm'
p4004
I94
sS'9/17/67--debut'
p4005
I94
sS'mate'
p4006
I94
sS'barley'
p4007
I94
sS'fran'
p4008
I94
sS'nesecita'
p4009
I94
sS'energy/swag..like'
p4010
I94
sS'forced'
p4011
I94
sS'cause'
p4012
I90
sS'clone'
p4013
I93
sS'red'
p4014
I89
sS'obsess'
p4015
I94
sS'far\xe2\x80\x9d'
p4016
I94
sS'pickup\xe2\x80\xa6'
p4017
I94
sS'shut'
p4018
I91
sS'(petty)'
p4019
I94
sS'today...all'
p4020
I94
sS'spot'
p4021
I94
sS'ipod'
p4022
I94
sS'watever'
p4023
I94
sS'loyola'
p4024
I94
sS'hype'
p4025
I93
sS'completely'
p4026
I94
sS'que'
p4027
I89
sS'york'
p4028
I94
sS'keys'
p4029
I94
sS'hots'
p4030
I94
sS'-__-'
p4031
I94
sS'craving'
p4032
I93
sS'quo'
p4033
I94
sS"how's"
p4034
I94
sS'kobes'
p4035
I94
sS'drowning'
p4036
I94
sS'steak'
p4037
I94
sS'himmmm'
p4038
I94
sS'g'
p4039
I89
sS'snapchats'
p4040
I93
sS'engraved'
p4041
I94
sS'could'
p4042
I80
sS'studios)'
p4043
I94
sS'keep'
p4044
I81
sS'illicit'
p4045
I94
sS'4th'
p4046
I94
sS'chilling'
p4047
I94
sS'subtweeting'
p4048
I94
sS'annoyin'
p4049
I94
sS'problem..and'
p4050
I94
sS'stuck'
p4051
I94
sS'snapchate'
p4052
I93
sS'strippers'
p4053
I94
sS'glories'
p4054
I94
sS'bleu'
p4055
I94
sS"rocco's"
p4056
I94
sS'urgent'
p4057
I94
sS'scene'
p4058
I84
sS'dolce'
p4059
I94
sS'jesus'
p4060
I90
sS'fits'
p4061
I94
sS'jurassic'
p4062
I94
sS'bitch'
p4063
I83
sS'kidding'
p4064
I94
sS'hoes'
p4065
I94
sS'heroes'
p4066
I93
sS'braces'
p4067
I94
sS"you're"
p4068
I48
sS'management'
p4069
I94
sS'79'
p4070
I94
sS'10x'
p4071
I94
sS'los'
p4072
I93
sS'bears'
p4073
I94
sS'blast!\xe2\x80\xa6'
p4074
I94
sS'desk'
p4075
I94
sS'seat'
p4076
I94
sS'system'
p4077
I93
sS'relations'
p4078
I94
sS'their'
p4079
I82
sS'attack'
p4080
I94
sS'mindless'
p4081
I94
sS'trending'
p4082
I94
sS'palestine'
p4083
I94
sS'mondays'
p4084
I94
sS'mendocino'
p4085
I94
sS"god's"
p4086
I94
sS'amen'
p4087
I94
sS'haves'
p4088
I94
sS'thristy!!!\xe2\x80\x9d'
p4089
I94
sS'gummy'
p4090
I94
sS'headbands'
p4091
I93
sS'stomach'
p4092
I94
sS'stars'
p4093
I94
sS'shorts'
p4094
I93
sS'bulldog'
p4095
I94
sS'academy'
p4096
I94
sS'explanation'
p4097
I94
sS'nobody'
p4098
I92
sS'negro'
p4099
I94
sS'depressing'
p4100
I94
sS'lawlessness"'
p4101
I94
sS'listo'
p4102
I94
sS'day*oh'
p4103
I94
sS'baptized'
p4104
I94
sS'zimmerman..we'
p4105
I94
sS'july'
p4106
I92
sS'herself'
p4107
I94
sS'completes'
p4108
I94
sS'surround'
p4109
I94
sS'loved'
p4110
I91
sS'ben'
p4111
I94
sS'liquid'
p4112
I94
sS"weren't"
p4113
I94
sS'ara'
p4114
I94
sS'boring'
p4115
I92
sS'bother'
p4116
I93
sS'aaron'
p4117
I94
sS'lion'
p4118
I94
sS'bed'
p4119
I91
sS'redbull'
p4120
I94
sS'young&wreckless'
p4121
I94
sS'gay-.-'
p4122
I94
sS'boyish'
p4123
I94
sS'loves'
p4124
I92
sS'lover'
p4125
I94
sS'gays'
p4126
I94
sS'leslie'
p4127
I94
sS'meets'
p4128
I94
sS'bet'
p4129
I86
sS'inlove'
p4130
I93
sS'mrcleaver'
p4131
I94
sS'1.5'
p4132
I94
sS'false'
p4133
I93
sS'hairstylist'
p4134
I94
sS"stayin'"
p4135
I94
sS'comfortable'
p4136
I94
sS'tonight'
p4137
I71
sS'bari'
p4138
I94
sS'have'
p4139
I26
sS'need'
p4140
I52
sS'championship'
p4141
I94
sS'st'
p4142
I94
sS'clearly'
p4143
I92
sS';)\xe2\x80\x9d'
p4144
I94
sS'afraid'
p4145
I94
sS'lila'
p4146
I94
sS'\xd0\xbe\xd1\x80\xd0\xb3\xd0\xb0\xd0\xb7\xd0\xbc'
p4147
I94
sS'dishes'
p4148
I94
sS'min'
p4149
I92
sS'mia'
p4150
I94
sS'mic'
p4151
I94
sS'able'
p4152
I94
sS'switch'
p4153
I94
sS'battles'
p4154
I94
sS"phillips's"
p4155
I94
sS'mix'
p4156
I93
sS'hours...or'
p4157
I94
sS'which'
p4158
I90
sS'hs'
p4159
I94
sS'jail'
p4160
I94
sS'(she'
p4161
I94
sS'exegesis'
p4162
I94
sS'='
p4163
I94
sS'pursues'
p4164
I94
sS'worldwide'
p4165
I94
sS'brazil'
p4166
I94
sS'hq'
p4167
I90
sS'unless'
p4168
I93
sS'agenda'
p4169
I94
sS"where'd"
p4170
I93
sS'aww'
p4171
I94
sS'joy'
p4172
I94
sS'who'
p4173
I55
sS'fullerton'
p4174
I94
sS"where's"
p4175
I93
sS'lust'
p4176
I94
sS'montana'
p4177
I94
sS'awk'
p4178
I91
sS'forreal'
p4179
I93
sS'future'
p4180
I90
sS'why'
p4181
I58
sS'deny'
p4182
I94
sS'mentorship'
p4183
I94
sS'michaelsnoddy'
p4184
I94
sS'05'
p4185
I94
sS'upset'
p4186
I94
sS'thanksgiving'
p4187
I92
sS'face'
p4188
I81
sS'looked'
p4189
I94
sS"you'll"
p4190
I85
sS'se'
p4191
I92
sS'werewolfs'
p4192
I94
sS'pst'
p4193
I94
sS'blvck'
p4194
I94
sS'fact'
p4195
I93
sS'impression'
p4196
I94
sS'one"'
p4197
I92
sS'parker'
p4198
I94
sS'$500'
p4199
I94
sS'exclusive'
p4200
I94
sS'text'
p4201
I89
sS'agreed'
p4202
I94
sS'anyway'
p4203
I94
sS'adverse'
p4204
I94
sS'bring'
p4205
I92
sS'planning'
p4206
I94
sS'fear'
p4207
I93
sS'debate'
p4208
I94
sS'duck'
p4209
I94
sS"er...'sun"
p4210
I94
sS'pause'
p4211
I94
sS'based'
p4212
I94
sS'producer'
p4213
I94
sS'xmasweater'
p4214
I94
sS'sparks'
p4215
I94
sS'('
p4216
I90
sS'jalape\xc3\xb1os'
p4217
I94
sS'woo'
p4218
I94
sS'should'
p4219
I62
sS'expensive'
p4220
I94
sS'bracing'
p4221
I94
sS"anyone's"
p4222
I94
sS'notes'
p4223
I94
sS'yourselves'
p4224
I94
sS'freedom.\xe2\x80\x9d'
p4225
I94
sS'piano'
p4226
I94
sS'handsome'
p4227
I94
sS'hope'
p4228
I83
sS'you,91605\n526188478191517698,xcaretete,2014-10-26'
p4229
I94
sS'meant'
p4230
I93
sS'prosperity'
p4231
I94
sS'treatin'
p4232
I94
sS'move'
p4233
I94
sS'handle'
p4234
I91
sS'verging'
p4235
I94
sS'means'
p4236
I88
sS'beat'
p4237
I91
sS'4.\xe2\x80\x9d'
p4238
I94
sS'photography'
p4239
I94
sS'flirting'
p4240
I94
sS'lucky'
p4241
I92
sS'year.\xe2\x80\x9d'
p4242
I94
sS'tbh'
p4243
I93
sS'awww'
p4244
I93
sS'ones'
p4245
I93
sS'words'
p4246
I91
sS'\xe2\x8f\xb3\xe2\x8c\x9b\xe2\x8c\x9a\xe2\x8c\x9a'
p4247
I94
sS'2gether'
p4248
I94
sS'kong'
p4249
I94
sS'=)'
p4250
I94
sS'kardashians'
p4251
I94
sS'ghetto'
p4252
I94
sS'software'
p4253
I94
sS'gisher'
p4254
I94
sS'donate'
p4255
I94
sS"deserved'"
p4256
I94
sS'places'
p4257
I93
sS'brain'
p4258
I94
sS'takes\xe2\x80\xa6'
p4259
I94
sS'teams'
p4260
I93
sS'dank'
p4261
I94
sS'tonight!\xe2\x80\x9d'
p4262
I94
sS'stuff'
p4263
I86
sS'she'
p4264
I75
sS'dangerous'
p4265
I94
sS'loca)'
p4266
I94
sS'grab'
p4267
I94
sS'superstars'
p4268
I94
sS'preach'
p4269
I91
sS'telemudo'
p4270
I94
sS'btw'
p4271
I94
sS'official'
p4272
I94
sS'prayers'
p4273
I92
sS'national'
p4274
I94
sS'cuts'
p4275
I94
sS'humans'
p4276
I94
sS'we'
p4277
I39
sS'breathe'
p4278
I94
sS"kickin'"
p4279
I94
sS'molly'
p4280
I94
sS'distract'
p4281
I94
sS'wc'
p4282
I94
sS'stack'
p4283
I94
sS'1:45'
p4284
I94
sS'situation'
p4285
I94
sS'closer'
p4286
I94
sS'heaters'
p4287
I94
sS'salsa'
p4288
I94
sS'stats'
p4289
I94
sS'closet'
p4290
I92
sS'record'
p4291
I94
sS"master's"
p4292
I94
sS'eve'
p4293
I94
sS'drown'
p4294
I94
sS'bbal'
p4295
I94
sS'genius'
p4296
I93
sS'state'
p4297
I90
sS'world.....cup'
p4298
I94
sS'mills'
p4299
I94
sS'action'
p4300
I94
sS'ebola'
p4301
I94
sS'assy'
p4302
I94
sS'pistol'
p4303
I94
sS'sabotage'
p4304
I94
sS'email'
p4305
I94
sS'pants'
p4306
I94
sS"cher's"
p4307
I94
sS'perfect'
p4308
I94
sS'ends'
p4309
I94
sS'triple'
p4310
I94
sS'ability'
p4311
I93
sS'trynna'
p4312
I94
sS'opening'
p4313
I92
sS'comebacks'
p4314
I94
sS'blake'
p4315
I94
sS'tmz'
p4316
I94
sS'job'
p4317
I89
sS'compelled'
p4318
I94
sS'joe'
p4319
I94
sS'key'
p4320
I91
sS'2-0.\xe2\x80\x9d'
p4321
I94
sS'kew'
p4322
I94
sS'police'
p4323
I94
sS'janek'
p4324
I93
sS'boss'
p4325
I94
sS'jon'
p4326
I94
sS'david'
p4327
I92
sS'planned'
p4328
I94
sS'legend\xe2\x80\xa6'
p4329
I94
sS'brillz-'
p4330
I94
sS'joke'
p4331
I91
sS'invited'
p4332
I93
sS"he's"
p4333
I79
sS'drug'
p4334
I94
sS'yooo'
p4335
I94
sS'april'
p4336
I94
sS'admit'
p4337
I94
sS'atleast'
p4338
I94
sS'gospel_'
p4339
I94
sS'noord'
p4340
I93
sS'inspired'
p4341
I94
sS'jeezus'
p4342
I94
sS'jersey'
p4343
I94
sS'grounds'
p4344
I94
sS'comment'
p4345
I93
sS'gohard'
p4346
I94
sS'co'
p4347
I94
sS'premise'
p4348
I94
sS'cm'
p4349
I94
sS'toilet'
p4350
I94
sS"pj's"
p4351
I94
sS'ca'
p4352
I87
sS'walk'
p4353
I90
sS'missile'
p4354
I94
sS'distin'
p4355
I94
sS'greg'
p4356
I94
sS'man...it'
p4357
I94
sS'laugh'
p4358
I94
sS'*retweets*'
p4359
I94
sS'respect'
p4360
I92
sS'nostalgic'
p4361
I94
sS'jenny'
p4362
I94
sS'blink'
p4363
I93
sS'quit'
p4364
I93
sS'remix'
p4365
I94
sS'yay'
p4366
I89
sS'rusty'
p4367
I94
sS"it's"
p4368
I37
sS'hunters'
p4369
I94
sS'eggcellent'
p4370
I94
sS'con'
p4371
I94
sS'cent'
p4372
I93
sS'lmaoooo'
p4373
I94
sS'roomate'
p4374
I94
sS'treat'
p4375
I93
sS'bby'
p4376
I92
sS'"i\'m'
p4377
I93
sS'qualify'
p4378
I94
sS'lr'
p4379
I94
sS'hottest'
p4380
I94
sS'waste'
p4381
I93
sS'today...pool'
p4382
I94
sS'>'
p4383
I93
sS'thoeveryone'
p4384
I94
sS'describe'
p4385
I94
sS'general'
p4386
I94
sS'verizon'
p4387
I94
sS'league'
p4388
I94
sS'wasup'
p4389
I94
sS'hmu'
p4390
I94
sS'vibing'
p4391
I94
sS'c'
p4392
I94
sS'timetoo'
p4393
I94
sS'orange'
p4394
I94
sS'finished'
p4395
I94
sS'valley\'"'
p4396
I94
sS'-.-'
p4397
I93
sS'angles'
p4398
I94
sS'bull'
p4399
I94
sS'otp'
p4400
I94
sS'smoking'
p4401
I93
sS'atlanta'
p4402
I94
sS'bey'
p4403
I94
sS'present'
p4404
I94
sS':))))'
p4405
I94
sS'donuts)'
p4406
I94
sS'plain'
p4407
I94
sS'bahama'
p4408
I94
sS'nd'
p4409
I94
sS'harder'
p4410
I92
sS'choices'
p4411
I91
sS'will'
p4412
I46
sS'accumulator'
p4413
I93
sS'gucci'
p4414
I93
sS'hahaha'
p4415
I83
sS'wild'
p4416
I93
sS'balance'
p4417
I94
sS'tommy'
p4418
I94
sS'madmichine'
p4419
I94
sS'frustrating'
p4420
I94
sS'games!\xe2\x80\x9d'
p4421
I94
sS'annual'
p4422
I94
sS'dammit'
p4423
I94
sS'almost'
p4424
I90
sS'(pass'
p4425
I94
sS'site'
p4426
I93
sS'justugly'
p4427
I94
sS'helped'
p4428
I93
sS'girlfriend'
p4429
I94
sS'vs'
p4430
I89
sS'avi'
p4431
I94
sS'watched'
p4432
I94
sS'ave'
p4433
I85
sS'arabic'
p4434
I94
sS'tattoo'
p4435
I94
sS'shooting'
p4436
I94
sS')'
p4437
I94
sS'began'
p4438
I93
sS'funniest'
p4439
I94
sS'campus'
p4440
I93
sS'member'
p4441
I92
sS'matthew'
p4442
I94
sS'strange'
p4443
I94
sS'pickin'
p4444
I94
sS'party'
p4445
I84
sS'freeken'
p4446
I94
sS'gets'
p4447
I87
sS'disciple'
p4448
I92
sS'cod'
p4449
I94
sS'tighten'
p4450
I94
sS'material'
p4451
I92
sS'pho'
p4452
I94
sS'coached'
p4453
I94
sS'krua'
p4454
I94
sS'promoters'
p4455
I94
sS'samantha'
p4456
I94
sS'1-3'
p4457
I94
sS'drink'
p4458
I89
sS'upon'
p4459
I94
sS'effect'
p4460
I94
sS'disconnect'
p4461
I94
sS'frijoles.white*'
p4462
I94
sS'fucken'
p4463
I94
sS'shows..his'
p4464
I94
sS'painful'
p4465
I94
sS'\xe2\x9d\xa4\xef\xb8\x8f\xe2\x9d\xa4\xef\xb8\x8f\xe2\x9d\xa4\xef\xb8\x8f\xe2\x9d\xa4\xef\xb8\x8f\xe2\x9d\xa4\xef\xb8\x8f\xe2\x9d\xa4\xef\xb8\x8f\xe2\x9d\xa4\xef\xb8\x8f'
p4466
I94
sS'fucked'
p4467
I93
sS'ikea'
p4468
I94
sS'feelin'
p4469
I94
sS'judgment'
p4470
I94
sS'mine\xe2\x80\x9d'
p4471
I94
sS'\xe2\x86\xa9\xef\xb8\x8f'
p4472
I94
sS'//'
p4473
I93
sS'gutter'
p4474
I94
sS'off'
p4475
I71
sS'malaga'
p4476
I94
sS'i'
p4477
I2
sS'colour'
p4478
I94
sS'modeled'
p4479
I94
sS'well'
p4480
I77
sS'banging'
p4481
I94
sS'fighting'
p4482
I92
sS'antonio'
p4483
I94
sS'thought'
p4484
I91
sS'wyd'
p4485
I94
sS'wellnot'
p4486
I94
sS'oops'
p4487
I92
sS'english'
p4488
I94
sS'barricades'
p4489
I94
sS'cuteugly'
p4490
I94
sS'audio'
p4491
I93
sS'drawing'
p4492
I94
sS'meet'
p4493
I93
sS'bending'
p4494
I94
sS'cried'
p4495
I94
sS'less'
p4496
I89
sS'moments'
p4497
I94
sS"should've"
p4498
I94
sS'das'
p4499
I93
sS'yall'
p4500
I94
sS'gun'
p4501
I94
sS'ciggs'
p4502
I94
sS'sources'
p4503
I94
sS'wait...stop...you'
p4504
I94
sS'purified'
p4505
I94
sS'lately'
p4506
I94
sS'happiness'
p4507
I92
sS'atoll'
p4508
I87
sS'door....literally'
p4509
I94
sS'claim'
p4510
I94
sS'mijo'
p4511
I94
sS'stephen'
p4512
I94
sS'fellow'
p4513
I94
sS'that..sorry'
p4514
I94
sS'vida'
p4515
I92
sS'now.\xe2\x80\x9d'
p4516
I94
sS'sky'
p4517
I93
sS'lake'
p4518
I94
sS'recommending'
p4519
I94
sS'killed'
p4520
I93
sS'drew'
p4521
I94
sS'simple'
p4522
I94
sS'add'
p4523
I92
sS'other'
p4524
I81
sS'givin'
p4525
I94
sS'attractive'
p4526
I93
sS'knowledge'
p4527
I94
sS'world-tilting'
p4528
I94
sS'5'
p4529
I87
sS'wey'
p4530
I93
sS'foody'
p4531
I94
sS'smart'
p4532
I92
sS'\xe0\xb8\x9b\xe0\xb8\xb9\xe0\xb8\x99\xe0\xb8\xb4\xe0\xb9\x88\xe0\xb8\xa1'
p4533
I94
sS'wait....how'
p4534
I94
sS'livin'
p4535
I94
sS'government'
p4536
I92
sS'go.\xe2\x80\x9d'
p4537
I94
sS"who's"
p4538
I92
sS'munich'
p4539
I94
sS'five'
p4540
I94
sS'community'
p4541
I76
sS'bluhh'
p4542
I94
sS'fatt'
p4543
I94
sS'press'
p4544
I94
sS'dese'
p4545
I92
sS'nvm'
p4546
I94
sS'password'
p4547
I92
sS'25-12.\xe2\x80\x9d'
p4548
I94
sS'loss'
p4549
I94
sS'tail'
p4550
I94
sS'necessary'
p4551
I92
sS'like'
p4552
I25
sS'lost'
p4553
I92
sS'gypsy'
p4554
I94
sS'chairs'
p4555
I94
sS'allniter'
p4556
I94
sS'fernando'
p4557
I91
sS'candy'
p4558
I92
sS'incendiary'
p4559
I94
sS'gangsters'
p4560
I94
sS'37.3k'
p4561
I94
sS'lose'
p4562
I92
sS'become'
p4563
I92
sS'anything\xe2\x80\x9di'
p4564
I94
sS'works'
p4565
I94
sS'page'
p4566
I94
sS'heel'
p4567
I94
sS'caked'
p4568
I94
sS'gilliam'
p4569
I94
sS'nigga'
p4570
I90
sS'perfection...just'
p4571
I94
sS'twitter'
p4572
I76
sS'/or'
p4573
I94
sS'thief'
p4574
I94
sS'alive'
p4575
I94
sS'self'
p4576
I94
sS'hair'
p4577
I92
sS'yaaa'
p4578
I94
sS'sunderland'
p4579
I93
sS"gon'"
p4580
I94
sS'twirling'
p4581
I94
sS'cleveland'
p4582
I94
sS'proper'
p4583
I94
sS'home'
p4584
I76
sS'liking'
p4585
I94
sS'peter'
p4586
I94
sS'neglecting'
p4587
I94
sS'son...will'
p4588
I94
sS'gabbie'
p4589
I92
sS'tmr'
p4590
I94
sS'turn\xe2\xa4\xb4\xef\xb8\x8f'
p4591
I94
sS'lead'
p4592
I94
sS'literally'
p4593
I87
sS'elisabeth'
p4594
I94
sS'lean'
p4595
I94
sS'mines'
p4596
I94
sS'accents'
p4597
I94
sS'twerking'
p4598
I93
sS'shelter'
p4599
I94
sS'stoplight'
p4600
I94
sS'does'
p4601
I83
sS'passion'
p4602
I92
sS'guy\xe2\x80\xa6'
p4603
I94
sS'wendy'
p4604
I94
sS'warfare'
p4605
I94
sS'fisherman'
p4606
I94
sS'morris\xe2\x80\x9d'
p4607
I94
sS'headlights'
p4608
I94
sS'leader'
p4609
I94
sS'esh'
p4610
I93
sS'pepper'
p4611
I94
sS'noise'
p4612
I94
sS'murderer'
p4613
I94
sS'kool-aid'
p4614
I94
sS'schedule'
p4615
I93
sS"shitzu's"
p4616
I94
sS'bathroom'
p4617
I93
sS'workers'
p4618
I94
sS'murdered'
p4619
I93
sS'worthy'
p4620
I94
sS'pasta'
p4621
I94
sS'naps'
p4622
I94
sS"'you"
p4623
I94
sS'includes'
p4624
I94
sS'paste'
p4625
I94
sS'slacker'
p4626
I94
sS'refuge'
p4627
I94
sS'diego'
p4628
I94
sS':-('
p4629
I90
sS':-)'
p4630
I91
sS':-/'
p4631
I94
sS'getting'
p4632
I73
sS'"best'
p4633
I94
sS'certainty'
p4634
I94
sS'basis'
p4635
I94
sS'scott'
p4636
I94
sS'angeles'
p4637
I93
sS'jhene'
p4638
I94
sS'epiphany'
p4639
I94
sS'swear'
p4640
I91
sS'sweat'
p4641
I93
sS'noho'
p4642
I91
sS'swimming'
p4643
I94
sS'h8'
p4644
I94
sS'own'
p4645
I85
sS'letters'
p4646
I94
sS'tourists'
p4647
I94
sS'*sigh*'
p4648
I94
sS'owe'
p4649
I93
sS'tight'
p4650
I94
sS'wbp'
p4651
I94
sS'evryone'
p4652
I94
sS'three'
p4653
I94
sS'fundraiser'
p4654
I94
sS'guard'
p4655
I94
sS'congregate'
p4656
I94
sS'promise'
p4657
I94
sS'tiny'
p4658
I92
sS'fish'
p4659
I94
sS'tf'
p4660
I94
sS'quickly'
p4661
I92
sS'pointless'
p4662
I94
sS'lowkey'
p4663
I94
sS'bothers'
p4664
I94
sS'van'
p4665
I93
sS'exciting'
p4666
I94
sS'righteous'
p4667
I94
sS'transfer'
p4668
I94
sS'yaaaaaas'
p4669
I94
sS'*'
p4670
I91
sS'spiral'
p4671
I94
sS'noticed'
p4672
I91
sS'way....but'
p4673
I94
sS'accountant'
p4674
I94
sS'bees'
p4675
I94
sS'inner'
p4676
I94
sS'biggest'
p4677
I92
sS'brice'
p4678
I94
sS'cliff'
p4679
I94
sS'toothpaste'
p4680
I94
sS'naturally'
p4681
I94
sS'"best"'
p4682
I94
sS'buy'
p4683
I82
sS'north'
p4684
I78
sS'spelled'
p4685
I94
sS'shank'
p4686
I94
sS"i've"
p4687
I76
sS'ready?\xe2\x80\x9doh'
p4688
I94
sS'bus'
p4689
I93
sS'brand'
p4690
I92
sS'bitches'
p4691
I91
sS'lolol)'
p4692
I94
sS'hw'
p4693
I94
sS'but'
p4694
I39
sS'alway'
p4695
I94
sS'hi'
p4696
I90
sS'goals'
p4697
I91
sS'overflow'
p4698
I94
sS'ha'
p4699
I89
sS'eat'
p4700
I84
sS'witness'
p4701
I94
sS'he'
p4702
I54
sS'count'
p4703
I91
sS'selfish'
p4704
I94
sS'fuckboi'
p4705
I94
sS'made'
p4706
I87
sS"sperry's"
p4707
I94
sS'mixtapes'
p4708
I94
sS'glory'
p4709
I93
sS'whether'
p4710
I92
sS'wish'
p4711
I87
sS'j'
p4712
I94
sS'hosting'
p4713
I93
sS'signed'
p4714
I93
sS'placed'
p4715
I93
sS'dms'
p4716
I94
sS'stories'
p4717
I94
sS'gabys'
p4718
I94
sS'hand'
p4719
I91
sS'pumped'
p4720
I94
sS'cake'
p4721
I93
sS'problem'
p4722
I92
sS'piece'
p4723
I94
sS'minutes'
p4724
I93
sS'suzy'
p4725
I94
sS'\xd0\xb3\xd0\xbb\xd0\xb0\xd0\xb7'
p4726
I94
sS'unfolding'
p4727
I94
sS'phony'
p4728
I94
sS'begun'
p4729
I93
sS'deaths'
p4730
I94
sS'pia'
p4731
I94
sS'universal'
p4732
I93
sS'pic'
p4733
I93
sS'kisses'
p4734
I94
sS'exactly...but'
p4735
I94
sS'twist'
p4736
I93
sS'beats'
p4737
I93
sS'"so'
p4738
I94
sS'mirallas'
p4739
I94
sS'goodness'
p4740
I94
sS'83'
p4741
I94
sS'like"'
p4742
I94
sS'narrator'
p4743
I94
sS'guant\xc3\xa1namo'
p4744
I94
sS'happen'
p4745
I89
sS'sprite'
p4746
I94
sS'sinatra'
p4747
I94
sS'spell'
p4748
I94
sS'compared'
p4749
I94
sS'funny,91605\n526266508507230208,xcaretete,2014-10-26'
p4750
I94
sS'ingredients'
p4751
I94
sS'46'
p4752
I94
sS'dressed'
p4753
I93
sS'07:27:17.0,34.2177219,-118.4171453,1220,george'
p4754
I94
sS"'got"
p4755
I94
sS'42'
p4756
I93
sS'tc'
p4757
I94
sS'(north'
p4758
I89
sS'book'
p4759
I91
sS'compares'
p4760
I94
sS'details'
p4761
I93
sS'sick'
p4762
I93
sS'lenslight'
p4763
I94
sS'"murder'
p4764
I94
sS'talkin'
p4765
I94
sS'dresses'
p4766
I93
sS'it,91605\n526266457852620800,xcaretete,2014-10-26'
p4767
I94
sS'junk'
p4768
I94
sS'repeat'
p4769
I94
sS'star'
p4770
I92
sS'respected'
p4771
I94
sS'monday'
p4772
I90
sS'consisted'
p4773
I94
sS'ears'
p4774
I94
sS'class'
p4775
I87
sS'waaa'
p4776
I94
sS'stay'
p4777
I88
sS"tho...he's"
p4778
I94
sS'\xe2\x80\xa2'
p4779
I94
sS'kinda'
p4780
I94
sS'tailgate'
p4781
I94
sS'friends'
p4782
I80
sS'goin'
p4783
I93
sS'anthony'
p4784
I94
sS'yelp'
p4785
I94
sS'nephews'
p4786
I94
sS'bolton'
p4787
I94
sS'kait'
p4788
I94
sS'rule'
p4789
I94
sS'pictured'
p4790
I94
sS'loked'
p4791
I94
sS"dog's"
p4792
I94
sS'compete'
p4793
I94
sS'misspell'
p4794
I94
sS'understand'
p4795
I91
sS'"the'
p4796
I92
sS'smoke\xe2\x80\xa6'
p4797
I94
sS'ohhhh'
p4798
I94
s.