(dp0
S''
p1
I1
sS'yellow'
p2
I96
sS'woods'
p3
I94
sS'spiders'
p4
I96
sS'hanging'
p5
I94
sS'looking'
p6
I84
sS'electricity'
p7
I95
sS',91605\n504434451409948672,bb_asher,2014-08-27'
p8
I96
sS'lord'
p9
I89
sS'animals."'
p10
I96
sS'.....was'
p11
I96
sS'un-toasted'
p12
I96
sS'deli'
p13
I94
sS'....guess'
p14
I96
sS'bringing'
p15
I95
sS'prize'
p16
I95
sS'clientele'
p17
I96
sS'wednesday'
p18
I95
sS'oooo'
p19
I95
sS'cheeto'
p20
I96
sS'fritter'
p21
I96
sS'tired'
p22
I89
sS'bacon'
p23
I95
sS'tires'
p24
I96
sS'second'
p25
I94
sS'unlisted'
p26
I95
sS'inglewood'
p27
I96
sS'cooking'
p28
I93
sS'fingers'
p29
I96
sS'.going'
p30
I96
sS'hero'
p31
I94
sS'reporter'
p32
I96
sS'chp....officer'
p33
I96
sS'suga'
p34
I95
sS'brainwashed'
p35
I93
sS'here'
p36
I72
sS'\xe2\x9d\xa4\xef\xb8\x8f'
p37
I95
sS'(30%'
p38
I96
sS'up*'
p39
I96
sS'kids'
p40
I93
sS"i's"
p41
I96
sS'k'
p42
I92
sS"i'd"
p43
I88
sS"i'm"
p44
I18
sS'.......with'
p45
I96
sS'magically'
p46
I96
sS'cocaine'
p47
I92
sS'trazodone'
p48
I95
sS'music'
p49
I81
sS'passport'
p50
I96
sS'grahams'
p51
I96
sS'sermons'
p52
I96
sS'until'
p53
I88
sS'nyquil'
p54
I96
sS'holy'
p55
I90
sS'successful'
p56
I95
sS'brings'
p57
I95
sS'hurt'
p58
I93
sS'glass'
p59
I96
sS'midst'
p60
I96
sS'hold'
p61
I94
sS'nicki'
p62
I96
sS'pooped'
p63
I95
sS'....alwayz'
p64
I96
sS'want'
p65
I51
sS'complaining'
p66
I96
sS'damage'
p67
I95
sS'how'
p68
I49
sS'hot'
p69
I85
sS'...you'
p70
I95
sS'beauty'
p71
I94
sS'daaaays'
p72
I96
sS'coffeeshop'
p73
I96
sS'00:14:13.0,34.20689703,-118.3960214,1224.10,i'
p74
I96
sS'...on'
p75
I95
sS'wrong'
p76
I92
sS'...ok'
p77
I96
sS'......plus'
p78
I96
sS'...sad'
p79
I96
sS',91605\n506961179646779392,bb_asher,2014-09-03'
p80
I96
sS'...they'
p81
I94
sS'goallll'
p82
I96
sS'wins'
p83
I96
sS'...then'
p84
I96
sS'keeps'
p85
I94
sS'wind'
p86
I96
sS'wine'
p87
I96
sS'mabes'
p88
I96
sS'foreal'
p89
I95
sS'jersey'
p90
I95
sS'fit'
p91
I96
sS'screaming'
p92
I96
sS'fix'
p93
I95
sS'survivors'
p94
I96
sS'easier'
p95
I96
sS'"vete'
p96
I96
sS'yeeah'
p97
I96
sS'thrones'
p98
I96
sS'millionairebullshit'
p99
I96
sS'effects'
p100
I96
sS'schools'
p101
I96
sS'silver'
p102
I96
sS'...business'
p103
I95
sS'series'
p104
I93
sS'*comes'
p105
I96
sS'$20000to'
p106
I96
sS'shame*'
p107
I96
sS'dubstep'
p108
I95
sS'ring'
p109
I96
sS'rt'
p110
I87
sS'oprah'
p111
I96
sS'tomorrow'
p112
I81
sS're'
p113
I96
sS'.....the'
p114
I95
sS'smh'
p115
I94
sS'rm'
p116
I96
sS'rn'
p117
I89
sS'rj'
p118
I93
sS'"hey'
p119
I95
sS'necessarily'
p120
I96
sS'debuting'
p121
I96
sS'ate'
p122
I96
sS'dayum'
p123
I94
sS'face-sitting'
p124
I96
sS'diabetic'
p125
I96
sS'ups'
p126
I96
sS'shipped'
p127
I96
sS'walmart'
p128
I96
sS"today's"
p129
I94
sS'clothes'
p130
I96
sS'........bullshit'
p131
I96
sS'channels'
p132
I96
sS'me-crazy'
p133
I96
sS'olds'
p134
I96
sS'basketball'
p135
I94
sS"there's"
p136
I87
sS'service'
p137
I93
sS'needed'
p138
I94
sS'master'
p139
I95
sS'chugging'
p140
I96
sS'legs'
p141
I96
sS'listen'
p142
I95
sS'zmile'
p143
I96
sS'kno'
p144
I96
sS'"whale'
p145
I96
sS'showed'
p146
I96
sS'rusty'
p147
I96
sS'shower'
p148
I93
sS'feeling'
p149
I93
sS'something/anything'
p150
I96
sS'dancier'
p151
I96
sS'boston'
p152
I96
sS'la....only'
p153
I96
sS'obssesed'
p154
I96
sS'person'
p155
I86
sS'causing'
p156
I96
sS'doors'
p157
I96
sS'hum'
p158
I96
sS'faithful!\xe2\x80\x9d'
p159
I96
sS'doin'
p160
I96
sS'mouth'
p161
I95
sS'singer'
p162
I96
sS'episode'
p163
I94
sS'camp'
p164
I96
sS'tech'
p165
I93
sS'came'
p166
I91
sS'saying'
p167
I93
sS'bomb'
p168
I93
sS'echoing'
p169
I96
sS'sexist'
p170
I96
sS'tempted'
p171
I96
sS'godddd'
p172
I96
sS'________?________'
p173
I96
sS'busy'
p174
I92
sS'ayyyy'
p175
I96
sS"grounds.....don't"
p176
I96
sS'"switch'
p177
I96
sS'bust'
p178
I96
sS'than'
p179
I76
sS'...word'
p180
I96
sS'theme'
p181
I96
sS'rick'
p182
I96
sS'rich'
p183
I86
sS'rice'
p184
I95
sS'pocket'
p185
I95
sS'...with'
p186
I94
sS'"men'
p187
I96
sS'nicely'
p188
I94
sS'patch'
p189
I96
sS'"game'
p190
I96
sS'blew'
p191
I96
sS'fair'
p192
I95
sS'.enjoy'
p193
I96
sS'pads'
p194
I96
sS'best'
p195
I75
sS'moron'
p196
I95
sS'lots'
p197
I91
sS'......looking'
p198
I96
sS'r'
p199
I93
sS'irl'
p200
I96
sS'herb'
p201
I96
sS'chode'
p202
I96
sS'claws'
p203
I96
sS'men'
p204
I95
sS'coffee?\xe2\x80\x9d'
p205
I96
sS'nature'
p206
I96
sS'bitches...big'
p207
I96
sS'wtf'
p208
I89
sS'wth'
p209
I96
sS'debt'
p210
I96
sS'roller'
p211
I96
sS'country'
p212
I92
sS'mornings...studying'
p213
I96
sS'lookin'
p214
I96
sS'asked'
p215
I94
sS'tmnt'
p216
I96
sS'2nd'
p217
I95
sS'diff'
p218
I96
sS'contestants'
p219
I96
sS"aren't"
p220
I94
sS'much'
p221
I63
sS'privilege'
p222
I96
sS'fry'
p223
I96
sS'life'
p224
I69
sS'spit'
p225
I96
sS'...101'
p226
I96
sS'homies'
p227
I92
sS'ariana'
p228
I96
sS'dave'
p229
I96
sS'child'
p230
I93
sS'worked'
p231
I95
sS'cunt'
p232
I96
sS't-t-t-miss'
p233
I96
sS'droppin'
p234
I96
sS'remembering'
p235
I96
sS'played'
p236
I95
sS'crackle*'
p237
I96
sS'upscale'
p238
I96
sS'\xe2\x8c\x9b\xef\xb8\x8f'
p239
I96
sS'thingy'
p240
I95
sS'things'
p241
I81
sS'toaster'
p242
I96
sS'any'
p243
I79
sS'split'
p244
I96
sS'babies'
p245
I96
sS'boiled'
p246
I96
sS'preachd'
p247
I96
sS'joses'
p248
I96
sS'"who'
p249
I95
sS'tune'
p250
I94
sS'burgers'
p251
I90
sS'nachos'
p252
I96
sS'lazer'
p253
I95
sS'sleepy'
p254
I96
sS'lassi'
p255
I96
sS'rushing'
p256
I96
sS'hah'
p257
I93
sS'ham'
p258
I96
sS'had'
p259
I71
sS'innocent'
p260
I96
sS'has'
p261
I69
sS'hat'
p262
I93
sS'...my'
p263
I95
sS'hav'
p264
I96
sS'possible'
p265
I94
sS'possibly'
p266
I96
sS'life.\xe2\x80\x9d'
p267
I95
sS'sleep"'
p268
I96
sS'\xe2\x8c\x9a\xef\xb8\x8f'
p269
I94
sS'unique'
p270
I96
sS'desire'
p271
I92
sS'rewatching'
p272
I96
sS'alice'
p273
I96
sS'remind'
p274
I93
sS'steps'
p275
I96
sS'right'
p276
I54
sS'old'
p277
I84
sS'people'
p278
I69
sS'oli'
p279
I96
sS'ooooo'
p280
I96
sS'crown'
p281
I96
sS'goooooooooooooood'
p282
I93
sS'for'
p283
I13
sS'foe'
p284
I96
sS'umm'
p285
I95
sS'prefunk'
p286
I96
sS'boom!\xe2\x80\x9d'
p287
I96
sS'shakes'
p288
I95
sS'trampoline'
p289
I96
sS'lefty'
p290
I96
sS'losing'
p291
I96
sS'memorable'
p292
I96
sS'dollars'
p293
I95
sS'o'
p294
I96
sS'overtime...for'
p295
I96
sS'..see'
p296
I96
sS'maxwell'
p297
I96
sS'son'
p298
I95
sS'thankful'
p299
I96
sS'runts'
p300
I96
sS'tami'
p301
I96
sS'frazzled'
p302
I96
sS'waits'
p303
I96
sS'support'
p304
I91
sS'constantly'
p305
I96
sS'avail'
p306
I96
sS'newz....tha'
p307
I96
sS'domaking'
p308
I96
sS'happy'
p309
I82
sS'offer'
p310
I93
sS'tigers'
p311
I96
sS'b)'
p312
I96
sS'congratulations'
p313
I96
sS'musik'
p314
I96
sS'inside'
p315
I96
sS'x)\xe2\x80\x9d'
p316
I96
sS'lays'
p317
I96
sS'rerun'
p318
I96
sS'smashed'
p319
I96
sS'\xe2\x9b\xb5\xef\xb8\x8f'
p320
I96
sS'errrrk'
p321
I96
sS'proud'
p322
I92
sS'sprouts'
p323
I95
sS'smelt'
p324
I96
sS'pre-made'
p325
I96
sS'flood'
p326
I95
sS'exit..trust'
p327
I96
sS'smell'
p328
I94
sS'roll'
p329
I95
sS"'s"
p330
I96
sS'models'
p331
I96
sS'devon'
p332
I96
sS"'a"
p333
I96
sS'rolling'
p334
I96
sS'time'
p335
I44
sS':/'
p336
I95
sS':('
p337
I92
sS':)'
p338
I84
sS'theaters'
p339
I96
sS'chair'
p340
I95
sS'..japan'
p341
I96
sS'.go!ng....2'
p342
I96
sS'balled'
p343
I96
sS'carpenters'
p344
I96
sS':o'
p345
I95
sS'paychecks'
p346
I96
sS':d'
p347
I95
sS'stays'
p348
I96
sS'minute'
p349
I96
sS'money...next'
p350
I96
sS'cooks'
p351
I96
sS'fights/objectives'
p352
I96
sS'leave'
p353
I93
sS'settle'
p354
I96
sS'teal'
p355
I96
sS'team'
p356
I89
sS'maino'
p357
I95
sS'sign'
p358
I95
sS'shirts'
p359
I96
sS'"everything'
p360
I96
sS'melt'
p361
I96
sS'remembered'
p362
I93
sS'cheeseburgers'
p363
I96
sS'feet\xe2\x80\x94yes'
p364
I96
sS'falling'
p365
I95
sS'ground'
p366
I94
sS'funeral'
p367
I96
sS'address'
p368
I95
sS'alone'
p369
I88
sS'along'
p370
I93
sS'canoga'
p371
I96
sS',91605\n494048817285562369,bb_asher,2014-07-29'
p372
I96
sS'jammin'
p373
I95
sS'....dad'
p374
I96
sS'love'
p375
I40
sS'fake'
p376
I92
sS'argentinas'
p377
I96
sS'working'
p378
I89
sS'homesick'
p379
I96
sS'angry'
p380
I95
sS"it'll"
p381
I96
sS'...fucken'
p382
I96
sS'opposed'
p383
I96
sS'loving'
p384
I95
sS'introducing'
p385
I96
sS'marbles'
p386
I96
sS'afford'
p387
I93
sS'robbeeeeery,91605\n498741570464518144,bb_asher,2014-08-11'
p388
I96
sS"blood'"
p389
I96
sS'ignorant'
p390
I96
sS'mummy"'
p391
I96
sS'..for'
p392
I96
sS'originally'
p393
I96
sS'pretend'
p394
I95
sS'believes'
p395
I95
sS'printing'
p396
I96
sS'soloing'
p397
I96
sS'following'
p398
I94
sS'time\xe2\x8c\x9a\xef\xb8\x8f'
p399
I96
sS'mirrors'
p400
I96
sS'awesome'
p401
I81
sS'....threw'
p402
I96
sS'soup'
p403
I96
sS'parachute'
p404
I96
sS'stole'
p405
I95
sS'smirnof'
p406
I96
sS'definition)'
p407
I96
sS'immune'
p408
I95
sS'"there\'s'
p409
I96
sS'spot'
p410
I95
sS'167000......or'
p411
I96
sS'date'
p412
I95
sS'such'
p413
I82
sS'suck'
p414
I96
sS'dove'
p415
I95
sS'temperate'
p416
I96
sS"destiknee's"
p417
I96
sS'su'
p418
I96
sS'si'
p419
I96
sS'so'
p420
I16
sS'haute'
p421
I96
sS'years'
p422
I82
sS'course'
p423
I91
sS'episodes'
p424
I96
sS'kanye'
p425
I96
sS'djs'
p426
I95
sS'accordion'
p427
I96
sS'jim'
p428
I96
sS'troubled'
p429
I96
sS'petition'
p430
I95
sS'insomnia'
p431
I95
sS'feelin'
p432
I95
sS'records'
p433
I96
sS"italy's"
p434
I96
sS'square'
p435
I96
sS'lowkey'
p436
I96
sS'2the'
p437
I96
sS'(within'
p438
I96
sS'sammmme'
p439
I96
sS'abide'
p440
I96
sS'seriously'
p441
I93
sS'internet'
p442
I92
sS'...woodland'
p443
I95
sS'eggs*'
p444
I96
sS'million'
p445
I95
sS'itttt'
p446
I95
sS'complicated'
p447
I95
sS'grandma'
p448
I96
sS'you?"'
p449
I96
sS'training'
p450
I96
sS'dunno'
p451
I91
sS'spam'
p452
I96
sS'\xe2\x9b\xb3\xef\xb8\x8f'
p453
I96
sS'emotion'
p454
I96
sS'saving'
p455
I96
sS'tolteca'
p456
I96
sS'one'
p457
I48
sS'guys!\xe2\x80\x9d\xe2\x80\x9d'
p458
I96
sS'...of'
p459
I96
sS'habitation'
p460
I96
sS'vote'
p461
I96
sS'open'
p462
I92
sS'city'
p463
I95
sS"...that's"
p464
I96
sS'bite'
p465
I94
sS'fml'
p466
I95
sS'2'
p467
I52
sS'vanilla-fy'
p468
I96
sS'structures'
p469
I96
sS'ableton'
p470
I94
sS'...start'
p471
I96
sS'fashoo'
p472
I96
sS'..try'
p473
I96
sS'ridiculous'
p474
I96
sS'........jesus'
p475
I96
sS'translate'
p476
I96
sS'folly'
p477
I96
sS'house/witches'
p478
I96
sS'future'
p479
I95
sS'bauer'
p480
I95
sS'scuba'
p481
I96
sS'tasted'
p482
I96
sS'sac'
p483
I95
sS'sad'
p484
I87
sS'tastes'
p485
I96
sS'buried'
p486
I96
sS'saw'
p487
I88
sS'note'
p488
I95
sS'take'
p489
I70
sS'wanting'
p490
I94
sS'opposite'
p491
I96
sS'knew'
p492
I90
sS'buffet'
p493
I96
sS'inside...value'
p494
I96
sS'.....bitch'
p495
I96
sS'sala'
p496
I96
sS'drive'
p497
I86
sS'josesito'
p498
I96
sS'ways'
p499
I92
sS'salt'
p500
I96
sS'...aka'
p501
I96
sS'laws'
p502
I96
sS'walking'
p503
I96
sS'\xe2\x9c\xa8'
p504
I95
sS'bright'
p505
I96
sS'madness\xe2\x80\x9d'
p506
I96
sS'slow'
p507
I95
sS'farting'
p508
I96
sS'tears'
p509
I96
sS'going'
p510
I62
sS'hockey'
p511
I96
sS'school"'
p512
I96
sS'pranks"'
p513
I96
sS'whaaat'
p514
I96
sS'pimp'
p515
I96
sS'artist'
p516
I95
sS'..remain'
p517
I96
sS'worried'
p518
I95
sS"could've"
p519
I96
sS'bombs'
p520
I96
sS'tortilla'
p521
I96
sS'where'
p522
I70
sS'vision'
p523
I95
sS'bomboclat'
p524
I95
sS'disneycon'
p525
I96
sS'anyways'
p526
I95
sS'fart"'
p527
I96
sS'surgery'
p528
I96
sS'\xe2\x98\x8e\xef\xb8\x8f'
p529
I96
sS'bootleg'
p530
I96
sS'sites'
p531
I96
sS'bitches...wooo"'
p532
I96
sS'enjoys'
p533
I96
sS'jobs'
p534
I96
sS'ignore)'
p535
I96
sS'screen'
p536
I96
sS'concentrate'
p537
I96
sS'...bitch'
p538
I96
sS'.....with'
p539
I96
sS'many'
p540
I74
sS'1:30'
p541
I96
sS'millionaire'
p542
I96
sS'mane'
p543
I92
sS'yeeee'
p544
I96
sS"can't"
p545
I58
sS'mano'
p546
I96
sS'stream'
p547
I94
sS'twit'
p548
I96
sS'you....very'
p549
I96
sS'anti'
p550
I96
sS"s'notta"
p551
I96
sS'now\xe2\x80\x9d'
p552
I96
sS'teddy'
p553
I96
sS'stretch'
p554
I96
sS'west'
p555
I95
sS'vacation'
p556
I96
sS"community's"
p557
I96
sS'bsides'
p558
I96
sS'almighty'
p559
I96
sS'wants'
p560
I94
sS'630pm'
p561
I96
sS'photos'
p562
I96
sS'...nice'
p563
I96
sS'hashtag'
p564
I96
sS'runnin'
p565
I96
sS'resturant'
p566
I96
sS'pollo'
p567
I96
sS'bruuu'
p568
I95
sS'mixtape'
p569
I96
sS'bros'
p570
I95
sS'technology'
p571
I96
sS'mercies'
p572
I96
sS'poolboy'
p573
I96
sS'verified'
p574
I95
sS'rooting'
p575
I96
sS'thinkin'
p576
I96
sS'dick\xe2\x80\x9d'
p577
I96
sS'breakdown'
p578
I96
sS'cheers'
p579
I94
sS'harris'
p580
I96
sS'internet)'
p581
I96
sS'vineland'
p582
I93
sS'nothin'
p583
I96
sS'*and'
p584
I96
sS'grumpy'
p585
I96
sS'scholarship'
p586
I96
sS'summer'
p587
I93
sS'.summer'
p588
I96
sS'being'
p589
I74
sS'rest'
p590
I95
sS'(i'
p591
I96
sS'(a'
p592
I96
sS'rover'
p593
I96
sS'deceiving'
p594
I96
sS'lolllll'
p595
I95
sS'heezy'
p596
I96
sS'dicks'
p597
I94
sS'around'
p598
I80
sS'sportsmanship'
p599
I96
sS'fallowing'
p600
I96
sS'sums'
p601
I96
sS'pos'
p602
I96
sS'dark'
p603
I95
sS'traffic'
p604
I96
sS'us..the'
p605
I96
sS'vacuum'
p606
I96
sS'"[...]'
p607
I96
sS'world'
p608
I85
sS'postal'
p609
I96
sS'dare'
p610
I96
sS'clan'
p611
I96
sS'fossils'
p612
I96
sS'=$'
p613
I95
sS'millennials'
p614
I96
sS'tsunami'
p615
I96
sS'kold'
p616
I96
sS'playin'
p617
I95
sS'divine'
p618
I94
sS'thinks'
p619
I95
sS'yesss'
p620
I96
sS'memories'
p621
I96
sS'noon'
p622
I96
sS'exit'
p623
I96
sS'911'
p624
I96
sS'refer'
p625
I96
sS'power'
p626
I92
sS'internship'
p627
I96
sS'dweeb'
p628
I96
sS'ruining'
p629
I96
sS'throwback'
p630
I96
sS';)'
p631
I90
sS'booooy'
p632
I96
sS'panko-crumbs-and-bases-for-sauces'
p633
I96
sS'ace'
p634
I95
sS'package'
p635
I96
sS'favorite'
p636
I94
sS'meal'
p637
I93
sS'neighbor'
p638
I94
sS'act'
p639
I93
sS'mean'
p640
I90
sS'flawed'
p641
I96
sS'image'
p642
I95
sS'01:04:35.0,34.20688364,-118.39610981,1224.10,my'
p643
I96
sS'parties'
p644
I96
sS'bl3nd'
p645
I96
sS'verga"'
p646
I96
sS'...im'
p647
I93
sS'...in'
p648
I92
sS'lollll'
p649
I95
sS'...if'
p650
I96
sS'ass"'
p651
I96
sS'...iz'
p652
I95
sS'viscous'
p653
I96
sS'heh'
p654
I96
sS',91605\n494047096098406402,bb_asher,2014-07-29'
p655
I96
sS'complete'
p656
I96
sS'spider'
p657
I96
sS'........a'
p658
I96
sS'technologies'
p659
I96
sS'with'
p660
I19
sS'buying'
p661
I96
sS'handsome'
p662
I96
sS'abused'
p663
I94
sS"they're"
p664
I86
sS'rush'
p665
I96
sS'monopoly'
p666
I95
sS'art/literary'
p667
I96
sS'offsides'
p668
I96
sS'gertys'
p669
I96
sS'agree'
p670
I94
sS'gone'
p671
I95
sS'(unsurprisingly)'
p672
I96
sS'af'
p673
I96
sS'exhausted'
p674
I95
sS'ah'
p675
I94
sS'accents'
p676
I96
sS'am'
p677
I65
sS'al'
p678
I96
sS'an'
p679
I61
sS'as'
p680
I53
sS'at'
p681
I19
sS'aw'
p682
I94
sS'av'
p683
I96
sS'watched'
p684
I95
sS'tranquil'
p685
I96
sS'az'
p686
I96
sS'cream'
p687
I88
sS'yoga'
p688
I96
sS'drafts'
p689
I96
sS'tight'
p690
I93
sS"gon'"
p691
I96
sS'congress'
p692
I96
sS'lo$\xc2\xa3...against'
p693
I96
sS'snitch'
p694
I96
sS'slang'
p695
I96
sS'scranton'
p696
I96
sS'tricks'
p697
I96
sS'mask'
p698
I95
sS'preppy'
p699
I96
sS'mash'
p700
I96
sS'mass'
p701
I96
sS'adam'
p702
I94
sS'01:09:49.0,34.20692478,-118.396056,1224.10,but'
p703
I96
sS'"geeky"'
p704
I96
sS'original'
p705
I96
sS'consider'
p706
I96
sS'beware'
p707
I96
sS"'lets"
p708
I96
sS'disciples'
p709
I96
sS'predawn'
p710
I96
sS'ty'
p711
I96
sS'tv'
p712
I92
sS'spirit'
p713
I94
sS'to'
p714
I4
sS'tl'
p715
I96
sS'chewing'
p716
I96
sS'smile'
p717
I91
sS'midwest'
p718
I96
sS'case'
p719
I96
sS'..!n'
p720
I96
sS'life...choose'
p721
I96
sS'cable'
p722
I96
sS'laying'
p723
I96
sS'small'
p724
I95
sS'angelou'
p725
I96
sS'quicker'
p726
I96
sS'sync'
p727
I96
sS'healed'
p728
I95
sS'past'
p729
I94
sS'pass'
p730
I95
sS'investment'
p731
I95
sS'\xe2\x99\xbb\xef\xb8\x8f'
p732
I94
sS'clock'
p733
I95
sS'time.\xe2\x80\x9d'
p734
I96
sS'nurse'
p735
I96
sS'full'
p736
I88
sS'escaping'
p737
I96
sS'vomiting'
p738
I96
sS'hours'
p739
I82
sS'buzzing'
p740
I96
sS'b2b'
p741
I94
sS'09:09:41.0,34.20689761,-118.39606778,1224.10,she'
p742
I96
sS'-ari'
p743
I96
sS'experience'
p744
I96
sS'pics'
p745
I89
sS'ohhhhh'
p746
I96
sS'pick'
p747
I96
sS'action'
p748
I96
sS"would've"
p749
I96
sS"vet's"
p750
I96
sS'via'
p751
I95
sS'vid'
p752
I92
sS'foundation-'
p753
I96
sS'traumatized'
p754
I96
sS'viv'
p755
I96
sS'gosh'
p756
I96
sS'iglesias'
p757
I96
sS'ofvictory'
p758
I96
sS'fragrance'
p759
I96
sS'gorgeous'
p760
I94
sS'..and'
p761
I96
sS'ballad'
p762
I96
sS'more'
p763
I53
sS'teen'
p764
I96
sS'nomar'
p765
I96
sS'door'
p766
I95
sS'company'
p767
I96
sS'godayuuuuum'
p768
I96
sS'tees'
p769
I96
sS'keeping'
p770
I94
sS'1:17'
p771
I96
sS'learn'
p772
I95
sS'beautiful'
p773
I84
sS'scam'
p774
I95
sS'rodriguez'
p775
I96
sS'suggestions'
p776
I95
sS'accept'
p777
I94
sS'autumn'
p778
I96
sS'sense'
p779
I93
sS'reverbnation'
p780
I96
sS'sensi'
p781
I96
sS'lucked'
p782
I96
sS'huge'
p783
I94
sS"01:45:15.0,34.20690466,-118.39594902,1224.10,ain't"
p784
I96
sS'...its'
p785
I96
sS'plant'
p786
I96
sS'......calculations'
p787
I96
sS'intended'
p788
I95
sS'bitch...so'
p789
I96
sS'soundtrack'
p790
I96
sS'plane'
p791
I96
sS'rid\xc2\xa3z'
p792
I96
sS'$197000'
p793
I96
sS'resemble'
p794
I96
sS'register'
p795
I96
sS'wrench'
p796
I96
sS'roshe'
p797
I96
sS'mexican'
p798
I93
sS'bowl'
p799
I96
sS'people:)'
p800
I96
sS'ite'
p801
I96
sS'country...legal'
p802
I96
sS'...were'
p803
I96
sS'paper'
p804
I96
sS'signs'
p805
I96
sS'smiling'
p806
I96
sS'its'
p807
I85
sS'bummed'
p808
I96
sS'laced'
p809
I96
sS'....fuck'
p810
I96
sS"dosen't"
p811
I96
sS'symptoms'
p812
I96
sS'laces'
p813
I96
sS'sauce'
p814
I96
sS'declaration.\xe2\x80\x9d'
p815
I96
sS'sucker'
p816
I95
sS'.....should'
p817
I96
sS'misuse'
p818
I96
sS'tim\xc2\xa3'
p819
I96
sS"movie's"
p820
I95
sS'sucked'
p821
I96
sS'alwayz'
p822
I95
sS'iced'
p823
I96
sS'always'
p824
I69
sS'"mercy'
p825
I96
sS'...talk'
p826
I96
sS'1am'
p827
I96
sS'found'
p828
I91
sS'week'
p829
I81
sS'evuuuur'
p830
I96
sS'gettin'
p831
I94
sS'...where'
p832
I96
sS'reallu'
p833
I96
sS'trannies'
p834
I96
sS'..different'
p835
I96
sS'really'
p836
I57
sS'beats"'
p837
I96
sS"'bombaclat'"
p838
I96
sS'ftw'
p839
I96
sS'freakshow'
p840
I96
sS'..what'
p841
I96
sS'right..ok.:)'
p842
I96
sS'09:11:36.0,34.20691889,-118.39602339,1224.10,click'
p843
I96
sS'anyone?"'
p844
I96
sS'highway'
p845
I96
sS'huraches'
p846
I96
sS'imagine'
p847
I93
sS'rises'
p848
I96
sS'misogyny'
p849
I96
sS'teabagging'
p850
I96
sS'w'
p851
I88
sS'65lbs'
p852
I96
sS'"buddah'
p853
I96
sS'major'
p854
I96
sS'this?2'
p855
I96
sS'historian'
p856
I96
sS'lov\xc2\xa3...2'
p857
I96
sS'spiritually'
p858
I96
sS'[verb'
p859
I95
sS'guess'
p860
I88
sS'guest'
p861
I96
sS'am."'
p862
I96
sS'hamptons'
p863
I95
sS'calculations'
p864
I95
sS'relationship'
p865
I96
sS'mmmm'
p866
I96
sS'appreciation'
p867
I96
sS'stairs'
p868
I96
sS'..with'
p869
I96
sS'obama'
p870
I96
sS'kreme'
p871
I96
sS'squid-synth'
p872
I96
sS'determined'
p873
I96
sS'"werk"'
p874
I96
sS'basically'
p875
I92
sS'......take'
p876
I96
sS'sell'
p877
I94
sS'self'
p878
I93
sS'also'
p879
I75
sS'juzusme'
p880
I96
sS'internal'
p881
I95
sS'years\xe2\x80\x9d'
p882
I96
sS'play'
p883
I75
sS'plan'
p884
I96
sS'autowhats'
p885
I96
sS'garrix'
p886
I96
sS'understands'
p887
I96
sS'chezz'
p888
I96
sS'sometimes'
p889
I90
sS'cover'
p890
I96
sS'coven'
p891
I96
sS'lounge'
p892
I96
sS'barrel'
p893
I96
sS'sinner'
p894
I96
sS'pocket......for'
p895
I96
sS'ugh'
p896
I89
sS'gold'
p897
I96
sS".....you're"
p898
I96
sS'session'
p899
I96
sS'freight'
p900
I96
sS'impact'
p901
I96
sS'cr7'
p902
I96
sS'ztop.and'
p903
I96
sS'writer'
p904
I96
sS'failed'
p905
I96
sS'condom'
p906
I96
sS'sooooooooo'
p907
I96
sS'apples")'
p908
I96
sS'remedy'
p909
I96
sS'shambhala'
p910
I95
sS'cry'
p911
I92
sS'river'
p912
I96
sS'sew'
p913
I95
sS'body'
p914
I92
sS'set'
p915
I86
sS'sex'
p916
I94
sS'touch'
p917
I94
sS'see'
p918
I47
sS'sea'
p919
I96
sS'project'
p920
I93
sS'matter'
p921
I96
sS'movie'
p922
I84
sS'rite'
p923
I95
sS'nope'
p924
I95
sS'deal?.....i'
p925
I96
sS'knowing'
p926
I93
sS'....from'
p927
I96
sS'renewed'
p928
I96
sS'a||'
p929
I96
sS'last'
p930
I73
sS'thou'
p931
I95
sS'barely'
p932
I96
sS'lash'
p933
I96
sS'whole'
p934
I85
sS'sink'
p935
I96
sS'drunk'
p936
I90
sS'community'
p937
I96
sS'church'
p938
I91
sS'devil'
p939
I95
sS'hitting'
p940
I94
sS'citations'
p941
I95
sS'fire'
p942
I90
sS"what's"
p943
I86
sS'surfacing'
p944
I96
sS'fund'
p945
I96
sS'awake'
p946
I94
sS'funk'
p947
I93
sS'budget'
p948
I96
sS'mlp'
p949
I96
sS'kissing'
p950
I96
sS'thunder\xe2\x9a\xa1\xef\xb8\x8f'
p951
I96
sS'vol'
p952
I96
sS'calculator'
p953
I96
sS'zit*'
p954
I96
sS'"look'
p955
I95
sS'no...let'
p956
I96
sS'coca-cola'
p957
I96
sS'\xe2\x99\xa5\xe2\x99\xa5\xe2\x99\xa5'
p958
I96
sS'mins'
p959
I93
sS'mint'
p960
I96
sS'read'
p961
I87
sS'mayyyyybe'
p962
I96
sS'levels'
p963
I96
sS'amg'
p964
I95
sS'recent'
p965
I96
sS'redlands'
p966
I96
sS'picky'
p967
I96
sS'tomorro'
p968
I96
sS'dnrhrjucofrenmem'
p969
I96
sS'rebecca'
p970
I96
sS'biggup'
p971
I94
sS'parents'
p972
I96
sS'location'
p973
I95
sS'crying'
p974
I95
sS'surprised'
p975
I96
sS'australia'
p976
I96
sS'victims'
p977
I96
sS'emergency'
p978
I96
sS'queso'
p979
I96
sS'couple'
p980
I94
sS'lycos'
p981
I96
sS'shitty'
p982
I91
sS'suffering'
p983
I96
sS'supeeeer'
p984
I96
sS'd'
p985
I96
sS'-38'
p986
I96
sS'"drama"'
p987
I96
sS'communications'
p988
I96
sS'...ha!!!!ha'
p989
I96
sS'continue'
p990
I95
sS'disorder'
p991
I96
sS'names'
p992
I96
sS'gargle'
p993
I96
sS'spring'
p994
I96
sS'30s...around'
p995
I96
sS'b4'
p996
I96
sS'...james'
p997
I96
sS'mighty'
p998
I96
sS'stoppin'
p999
I96
sS'sheesh'
p1000
I96
sS'and/or'
p1001
I96
sS'mummy'
p1002
I96
sS'dating'
p1003
I96
sS'be'
p1004
I20
sS'bf'
p1005
I94
sS'bb'
p1006
I95
sS'bc'
p1007
I95
sS'crooks'
p1008
I93
sS'santa'
p1009
I95
sS'bs'
p1010
I95
sS'by'
p1011
I52
sS'anything'
p1012
I88
sS'netflix'
p1013
I96
sS'"take'
p1014
I96
sS'sepultura'
p1015
I96
sS'love/miss'
p1016
I96
sS'into'
p1017
I73
sS'appropriate'
p1018
I96
sS'kkla'
p1019
I94
sS'tasting'
p1020
I96
sS'spending'
p1021
I95
sS'custom'
p1022
I96
sS'suit'
p1023
I95
sS'..you'
p1024
I94
sS'link'
p1025
I94
sS'line'
p1026
I94
sS'posted'
p1027
I92
sS'up'
p1028
I30
sS'us'
p1029
I67
sS'ur'
p1030
I81
sS'um'
p1031
I96
sS'maturity'
p1032
I96
sS'...gave'
p1033
I96
sS'un'
p1034
I95
sS'uh'
p1035
I95
sS'uk'
p1036
I96
sS'yelled'
p1037
I96
sS'showtime'
p1038
I96
sS'likewise'
p1039
I93
sS'3/13'
p1040
I96
sS'\xe2\x99\xa5\xe2\x99\xa5\xe2\x99\xa5old'
p1041
I96
sS'chat'
p1042
I96
sS'phantom'
p1043
I96
sS'thugs'
p1044
I96
sS'codes'
p1045
I96
sS'fixing'
p1046
I96
sS'hell"'
p1047
I95
sS'points'
p1048
I96
sS'hustling'
p1049
I96
sS'skit'
p1050
I96
sS'hahaahaha'
p1051
I96
sS'ago'
p1052
I93
sS'lane'
p1053
I96
sS'land'
p1054
I94
sS'mindlessly'
p1055
I96
sS'age'
p1056
I96
sS'walked'
p1057
I96
sS'fresc'
p1058
I96
sS'hella'
p1059
I95
sS'...are'
p1060
I95
sS'enrolled'
p1061
I96
sS'fresh'
p1062
I94
sS'hello'
p1063
I96
sS'cheetos'
p1064
I93
sS'code'
p1065
I96
sS'..spurz'
p1066
I96
sS'chillin'
p1067
I96
sS'seemed'
p1068
I96
sS'dacefloor'
p1069
I96
sS'turkish'
p1070
I96
sS'concerned'
p1071
I93
sS'astronomom'
p1072
I96
sS'young'
p1073
I93
sS'send'
p1074
I75
sS'..those'
p1075
I96
sS'sent'
p1076
I90
sS'...have'
p1077
I96
sS'mixing'
p1078
I96
sS'magic'
p1079
I96
sS'britney'
p1080
I96
sS'transmission'
p1081
I96
sS'eva'
p1082
I96
sS'having'
p1083
I80
sS'try'
p1084
I88
sS'race'
p1085
I96
sS':)\xe2\x80\x9d'
p1086
I95
sS'tru'
p1087
I94
sS'licensed'
p1088
I96
sS'video'
p1089
I89
sS',91605\n506979184900464640,bb_asher,2014-09-03'
p1090
I96
sS"(samir's"
p1091
I96
sS'odd'
p1092
I96
sS'duuuude'
p1093
I96
sS'lolll'
p1094
I96
sS'shivers'
p1095
I96
sS'consistently'
p1096
I96
sS'indian'
p1097
I96
sS'caugggggght'
p1098
I96
sS'equivalent'
p1099
I96
sS'lee'
p1100
I96
sS'leg'
p1101
I96
sS'leo'
p1102
I96
sS'let'
p1103
I85
sS'zince'
p1104
I96
sS'great'
p1105
I81
sS'camadeus'
p1106
I96
sS'\xe2\x9a\xbd\xef\xb8\x8f'
p1107
I95
sS'receive'
p1108
I96
sS'involved'
p1109
I96
sS'popcorn'
p1110
I96
sS'makes'
p1111
I79
sS'maker'
p1112
I96
sS'thats'
p1113
I94
sS'...different'
p1114
I96
sS'333'
p1115
I96
sS'emoh'
p1116
I96
sS'standing'
p1117
I95
sS'zip'
p1118
I96
sS'next'
p1119
I73
sS'doubt'
p1120
I96
sS'babe'
p1121
I95
sS'fools'
p1122
I96
sS'baby'
p1123
I91
sS'gladly'
p1124
I96
sS'z\xc2\xa3xy'
p1125
I96
sS'haircuts'
p1126
I96
sS'customer'
p1127
I96
sS'thiz'
p1128
I93
sS'balls'
p1129
I96
sS'this'
p1130
I15
sS'thin'
p1131
I96
sS'00:55:31.0,34.20695373,-118.39609877,1224.10,,91605\n504039775565647872,bb_asher,2014-08-25'
p1132
I96
sS'streamed'
p1133
I96
sS'bent'
p1134
I96
sS'process'
p1135
I96
sS'billboards'
p1136
I96
sS'high'
p1137
I86
sS'blvd'
p1138
I96
sS'"b"'
p1139
I96
sS'01:37:11.0,34.20674587,-118.39593647,1224.10,lmfao'
p1140
I96
sS'wolf'
p1141
I96
sS'comedy'
p1142
I96
sS'varyan'
p1143
I96
sS'blocks'
p1144
I96
sS'tied'
p1145
I96
sS'vineyards'
p1146
I96
sS'realized'
p1147
I94
sS'lame'
p1148
I96
sS'robot'
p1149
I96
sS'element'
p1150
I96
sS'nancy'
p1151
I95
sS'classy'
p1152
I96
sS',91605\n506949633742880768,bb_asher,2014-09-02'
p1153
I96
sS'producer'
p1154
I96
sS'th!z'
p1155
I96
sS'move'
p1156
I91
sS'obssesion'
p1157
I96
sS'...remember'
p1158
I96
sS'perfect'
p1159
I95
sS',91605\n498767173712478208,bb_asher,2014-08-11'
p1160
I96
sS'cuss'
p1161
I96
sS'cust'
p1162
I96
sS'nap-turned-2-hour-sleep'
p1163
I96
sS'you...yummy...:)'
p1164
I96
sS'realize'
p1165
I96
sS'sneezed'
p1166
I96
sS'truth'
p1167
I93
sS'badman'
p1168
I95
sS'sneezes'
p1169
I95
sS'glasses'
p1170
I96
sS'tents'
p1171
I96
sS'doing'
p1172
I84
sS'society'
p1173
I96
sS'books'
p1174
I96
sS'meth'
p1175
I94
sS'witness'
p1176
I96
sS'fundamentally'
p1177
I96
sS'kickstarter'
p1178
I96
sS'softly'
p1179
I96
sS'shut'
p1180
I95
sS'tempo'
p1181
I95
sS'grilled'
p1182
I96
sS'craving'
p1183
I96
sS'scary'
p1184
I96
sS'could'
p1185
I73
sS'scars'
p1186
I96
sS'david'
p1187
I96
sS'pudding'
p1188
I96
sS"coworker's"
p1189
I96
sS'...but'
p1190
I96
sS'shucks'
p1191
I96
sS'kendall'
p1192
I96
sS'blown'
p1193
I96
sS'........the'
p1194
I96
sS'jesus'
p1195
I87
sS'sugur"'
p1196
I96
sS'owner'
p1197
I96
sS'prank'
p1198
I96
sS'safe...see'
p1199
I96
sS'start'
p1200
I84
sS'ordering'
p1201
I96
sS'system'
p1202
I95
sS'omg\xe2\x80\x9d'
p1203
I96
sS'behaved'
p1204
I96
sS'painful'
p1205
I96
sS'interests'
p1206
I96
sS'enforcement'
p1207
I96
sS'stars'
p1208
I94
sS'grandpa'
p1209
I96
sS'........dangerous'
p1210
I96
sS'..lets'
p1211
I96
sS'*dies*'
p1212
I96
sS'azteca'
p1213
I96
sS'bother'
p1214
I95
sS'appealing'
p1215
I96
sS'psalm'
p1216
I95
sS'..when'
p1217
I96
sS'deodorant'
p1218
I96
sS'....to'
p1219
I96
sS'tonight'
p1220
I76
sS'suki'
p1221
I96
sS'lili'
p1222
I96
sS'waffles'
p1223
I96
sS'!!!!double'
p1224
I96
sS'lily'
p1225
I96
sS'dubbs'
p1226
I96
sS';-)'
p1227
I96
sS'soar'
p1228
I95
sS',91605\n494046613422084096,bb_asher,2014-07-29'
p1229
I96
sS'you"'
p1230
I96
sS'romaine'
p1231
I96
sS'stronger'
p1232
I95
sS'thanksgiving'
p1233
I95
sS'face'
p1234
I85
sS'....they'
p1235
I96
sS'mechanical'
p1236
I96
sS'brew'
p1237
I96
sS'painting'
p1238
I96
sS'fact'
p1239
I92
sS'oreos'
p1240
I96
sS'hoodies'
p1241
I96
sS'hockey........la'
p1242
I96
sS'bring'
p1243
I93
sS'bikes'
p1244
I96
sS'ambitionz'
p1245
I96
sS'=b'
p1246
I96
sS'asylum'
p1247
I95
sS'costco'
p1248
I96
sS'*slaps'
p1249
I96
sS'jax'
p1250
I96
sS'should'
p1251
I77
sS'...miles'
p1252
I96
sS'jam'
p1253
I96
sS'tape'
p1254
I95
sS'jah'
p1255
I94
sS'riding'
p1256
I94
sS'hope'
p1257
I90
sS'meant'
p1258
I92
sS'listened'
p1259
I94
sS'means'
p1260
I90
sS'lucky'
p1261
I94
sS'autos'
p1262
I96
sS'wring'
p1263
I96
sS'=('
p1264
I96
sS'notasshole'
p1265
I96
sS'smash'
p1266
I96
sS'stuff'
p1267
I85
sS'forgivebut'
p1268
I96
sS'store/homemade'
p1269
I96
sS'exerted'
p1270
I96
sS'edition'
p1271
I96
sS'butt"'
p1272
I96
sS'nuclear'
p1273
I95
sS'unravel'
p1274
I96
sS'...so'
p1275
I96
sS'email'
p1276
I95
sS'ends'
p1277
I96
sS'guuuuh'
p1278
I96
sS'courtyard'
p1279
I96
sS"outta'hea"
p1280
I96
sS'......like'
p1281
I96
sS'figured'
p1282
I96
sS'drum'
p1283
I96
sS'drillers'
p1284
I96
sS'whispered'
p1285
I96
sS'drug'
p1286
I95
sS'omw'
p1287
I96
sS'adjusted'
p1288
I96
sS'cc'
p1289
I93
sS'ca'
p1290
I92
sS'goes\xe2\x80\x9d'
p1291
I96
sS'tendons'
p1292
I96
sS'cousin'
p1293
I93
sS'2mch'
p1294
I96
sS'ct'
p1295
I96
sS'powered'
p1296
I96
sS'drank'
p1297
I94
sS'...need'
p1298
I96
sS'waste'
p1299
I95
sS'louisiana'
p1300
I96
sS'equipo'
p1301
I96
sS'>'
p1302
I93
sS'"hood'
p1303
I96
sS'homosexual'
p1304
I96
sS'afterda'
p1305
I96
sS'..like'
p1306
I96
sS'!,91605\n506633745990811649,bb_asher,2014-09-02'
p1307
I96
sS'respeqt'
p1308
I96
sS'pretentious'
p1309
I96
sS'hahaha'
p1310
I88
sS'site'
p1311
I96
sS'kudrow'
p1312
I96
sS'vs'
p1313
I93
sS'tattoo'
p1314
I96
sS"08:05:31.0,34.2068855,-118.39587794,1224.10,it's"
p1315
I96
sS'tupac'
p1316
I96
sS'romance'
p1317
I96
sS'digging'
p1318
I96
sS'android'
p1319
I95
sS'paula'
p1320
I96
sS'planned'
p1321
I96
sS'ball'
p1322
I93
sS'drink'
p1323
I90
sS'dust'
p1324
I95
sS'off'
p1325
I66
sS'shotgun'
p1326
I96
sS'phat'
p1327
I96
sS"....there's"
p1328
I96
sS'(also'
p1329
I96
sS'"looking'
p1330
I96
sS'less'
p1331
I94
sS'moments'
p1332
I96
sS'...became'
p1333
I96
sS'rooms'
p1334
I95
sS'wet'
p1335
I96
sS'government'
p1336
I95
sS'champs????we'
p1337
I96
sS'fairies'
p1338
I96
sS'touch\xc3\xa9'
p1339
I96
sS'five'
p1340
I96
sS'desk'
p1341
I94
sS'belgium'
p1342
I96
sS'09:14:11.0,34.20692658,-118.39602131,1224.10,bone'
p1343
I96
sS'emma'
p1344
I96
sS'onion'
p1345
I96
sS'bulge'
p1346
I96
sS'(or'
p1347
I95
sS'become'
p1348
I96
sS'choosing'
p1349
I96
sS'...the'
p1350
I94
sS'whistle*'
p1351
I96
sS'"what'
p1352
I96
sS'tv/movies/commercials'
p1353
I96
sS'literally'
p1354
I85
sS'09:07:46.0,34.20696252,-118.39595581,1224.10,damn'
p1355
I96
sS'10:41-42)'
p1356
I96
sS'raging'
p1357
I96
sS'does'
p1358
I87
sS'passion'
p1359
I95
sS'forgiven'
p1360
I96
sS'blurry'
p1361
I96
sS'manta'
p1362
I96
sS'schedule'
p1363
I96
sS'pressure'
p1364
I96
sS'lastnight'
p1365
I96
sS'hiding'
p1366
I95
sS'sister'
p1367
I96
sS'::::your'
p1368
I96
sS'...lil'
p1369
I96
sS'angeles'
p1370
I94
sS'draw.....hollywooooooooood:...ztyl\xc2\xa3'
p1371
I96
sS'documentary'
p1372
I96
sS'swimming'
p1373
I96
sS'"nucular"'
p1374
I96
sS'apple/strawberry'
p1375
I96
sS'commitment'
p1376
I96
sS'kthanx'
p1377
I96
sS'merc'
p1378
I96
sS'oooooo'
p1379
I96
sS'bump'
p1380
I95
sS'frustration'
p1381
I95
sS'funnel'
p1382
I96
sS'fasho'
p1383
I96
sS'therelies'
p1384
I96
sS'places'
p1385
I96
sS'bbbb'
p1386
I96
sS'.....hanging'
p1387
I96
sS'..we'
p1388
I96
sS'nominations'
p1389
I96
sS'harrassment'
p1390
I96
sS'sapppp'
p1391
I96
sS'...looks'
p1392
I96
sS'....maybe'
p1393
I96
sS'ink'
p1394
I95
sS'ing'
p1395
I96
sS'inc'
p1396
I96
sS'variety'
p1397
I95
sS'lately'
p1398
I95
sS'..????to'
p1399
I96
sS'details'
p1400
I92
sS'up....in'
p1401
I96
sS'diggg'
p1402
I96
sS'again*'
p1403
I96
sS'repeat'
p1404
I96
sS'monday'
p1405
I95
sS'lauds'
p1406
I96
sS'chance'
p1407
I91
sS'nikes'
p1408
I96
sS'ghost'
p1409
I96
sS'yeaaa'
p1410
I95
sS':"\'('
p1411
I96
sS'petsmart'
p1412
I96
sS'defend'
p1413
I96
sS'saved'
p1414
I95
sS'chili'
p1415
I95
sS'stinky'
p1416
I96
sS"today'll"
p1417
I96
sS'...here'
p1418
I96
sS'worth'
p1419
I93
sS'lack'
p1420
I96
sS'6-9pm'
p1421
I96
sS'lamaze'
p1422
I96
sS'summarized'
p1423
I96
sS'lolololl'
p1424
I96
sS'tickets'
p1425
I94
sS"we'll"
p1426
I95
sS'red'
p1427
I93
sS'?......looking'
p1428
I96
sS'bubbling'
p1429
I96
sS'horn'
p1430
I96
sS'+'
p1431
I94
sS'98000'
p1432
I96
sS'churches'
p1433
I96
sS'told'
p1434
I87
sS'wrapping'
p1435
I96
sS'm/\\k!ng...th\xc2\xa3m'
p1436
I96
sS'celebration'
p1437
I96
sS'daughter'
p1438
I96
sS'itunes'
p1439
I96
sS'smoke'
p1440
I92
sS'aka'
p1441
I95
sS'....bitch'
p1442
I96
sS'vapors'
p1443
I96
sS'bro'
p1444
I91
sS'destruct)'
p1445
I96
sS'insta'
p1446
I94
sS'best\xe2\x80\x9d'
p1447
I96
sS'brb'
p1448
I95
sS'sarah'
p1449
I96
sS'coins'
p1450
I96
sS'internet/phone'
p1451
I96
sS'negative'
p1452
I95
sS'....only'
p1453
I95
sS'nuttahz'
p1454
I96
sS'tryin'
p1455
I92
sS'chilli'
p1456
I96
sS'haha'
p1457
I72
sS'"&"'
p1458
I96
sS'word'
p1459
I84
sS'wore'
p1460
I96
sS'unfailing'
p1461
I96
sS'work'
p1462
I58
sS'tinder'
p1463
I96
sS'mechanic'
p1464
I96
sS'ogaldez'
p1465
I96
sS'16gb'
p1466
I96
sS'indie'
p1467
I96
sS'in'
p1468
I8
sS'india'
p1469
I96
sS'aaaa'
p1470
I96
sS'str8'
p1471
I96
sS'recovery'
p1472
I96
sS'.....i'
p1473
I96
sS'......fucked'
p1474
I96
sS'there."'
p1475
I96
sS'boats'
p1476
I96
sS'beach'
p1477
I96
sS'pizza'
p1478
I92
sS'bday'
p1479
I96
sS'after'
p1480
I82
sS'overdressed'
p1481
I96
sS'bottles'
p1482
I96
sS'law'
p1483
I95
sS'appreciate'
p1484
I94
sS'out\xe2\x80\x9d'
p1485
I96
sS'fan'
p1486
I95
sS'order'
p1487
I93
sS'office'
p1488
I92
sS'zee'
p1489
I96
sS'fab'
p1490
I95
sS'innovative'
p1491
I96
sS'japan'
p1492
I95
sS'somewhere'
p1493
I96
sS'nests"'
p1494
I96
sS'production'
p1495
I96
sS'savory'
p1496
I96
sS'harmony'
p1497
I95
sS'then'
p1498
I71
sS'them'
p1499
I58
sS'skream'
p1500
I96
sS'safe'
p1501
I89
sS'scene'
p1502
I96
sS'break'
p1503
I93
sS'band'
p1504
I89
sS'roommate'
p1505
I93
sS'they'
p1506
I39
sS'soothing'
p1507
I96
sS'bread'
p1508
I96
sS'whoop'
p1509
I95
sS'1.09'
p1510
I96
sS'l'
p1511
I96
sS'rocks'
p1512
I96
sS'flyers'
p1513
I96
sS'nooooooooooo'
p1514
I95
sS'logo'
p1515
I96
sS'slew'
p1516
I96
sS'strangers'
p1517
I95
sS'fellowship'
p1518
I96
sS'bijou'
p1519
I96
sS'...what'
p1520
I93
sS'techno'
p1521
I96
sS'soundcloud'
p1522
I94
sS'dammit'
p1523
I96
sS'koazt....la'
p1524
I96
sS"face's"
p1525
I95
sS'(acts'
p1526
I95
sS'delicious'
p1527
I93
sS'"real'
p1528
I96
sS'comic'
p1529
I96
sS'illustrate'
p1530
I96
sS'!!money'
p1531
I96
sS'haaha'
p1532
I95
sS'sheeeeeit'
p1533
I96
sS'dogg'
p1534
I95
sS'doge'
p1535
I95
sS'cowfaun'
p1536
I96
sS'wilkes-barre'
p1537
I96
sS'john'
p1538
I91
sS'dogs'
p1539
I95
sS'fanatical'
p1540
I96
sS'zagara'
p1541
I96
sS'..people'
p1542
I95
sS'toronto'
p1543
I96
sS'mercy'
p1544
I96
sS'guild'
p1545
I96
sS'target'
p1546
I96
sS'air)'
p1547
I96
sS'mercs'
p1548
I96
sS'scenes'
p1549
I96
sS'iron'
p1550
I94
sS'powers'
p1551
I96
sS'minus'
p1552
I96
sS'...following'
p1553
I96
sS'serato'
p1554
I96
sS'com\xc2\xa3'
p1555
I96
sS'strength'
p1556
I95
sS'knowsi'
p1557
I96
sS'living."'
p1558
I96
sS'germany'
p1559
I94
sS'claims'
p1560
I96
sS'grave'
p1561
I95
sS'vibes".if'
p1562
I96
sS'....why'
p1563
I96
sS'responded'
p1564
I96
sS'lewis'
p1565
I96
sS'womp'
p1566
I95
sS'calf!\xe2\x80\x9d'
p1567
I96
sS'week!\xe2\x80\x9d'
p1568
I96
sS'doper'
p1569
I96
sS'toast'
p1570
I95
sS'hrs'
p1571
I94
sS'screening'
p1572
I94
sS'do'
p1573
I36
sS'dm'
p1574
I93
sS'dj'
p1575
I89
sS'y\xc2\xa3ar'
p1576
I96
sS'de'
p1577
I92
sS'dc'
p1578
I94
sS'da'
p1579
I85
sS'watson'
p1580
I96
sS'haunted'
p1581
I96
sS'nasty'
p1582
I96
sS'dr'
p1583
I94
sS'runs'
p1584
I96
sS'online.\xe2\x80\x9d'
p1585
I96
sS'w/o'
p1586
I96
sS'w/e'
p1587
I95
sS'steal'
p1588
I95
sS'w/'
p1589
I96
sS'lemonade'
p1590
I96
sS'checks'
p1591
I95
sS'depends'
p1592
I95
sS'..police..all...crooked'
p1593
I96
sS'away'
p1594
I88
sS'housewife"'
p1595
I96
sS'we'
p1596
I50
sS'wb'
p1597
I96
sS'....?the'
p1598
I96
sS'wu'
p1599
I96
sS'kitchen'
p1600
I96
sS'cop'
p1601
I96
sS'cow'
p1602
I96
sS'ill'
p1603
I95
sS'....that'
p1604
I95
sS'homesickness'
p1605
I96
sS'brah'
p1606
I94
sS'col'
p1607
I96
sS'con'
p1608
I95
sS'tough'
p1609
I96
sS'royal'
p1610
I96
sS'speak'
p1611
I95
sS'soooonish'
p1612
I96
sS'broadening'
p1613
I96
sS'syndrum"'
p1614
I96
sS'flexible'
p1615
I96
sS'gdamn'
p1616
I96
sS'easy'
p1617
I93
sS'attacked'
p1618
I95
sS'real\xe2\x99\xbb\xef\xb8\x8f'
p1619
I96
sS'fest'
p1620
I95
sS'rollinflyonasaturday'
p1621
I96
sS'publicly'
p1622
I96
sS'air'
p1623
I94
sS'aim'
p1624
I96
sS'aid'
p1625
I95
sS'voice'
p1626
I93
sS'aawwwww'
p1627
I96
sS'*the'
p1628
I96
sS'crowning'
p1629
I96
sS'skipping'
p1630
I96
sS'eeeek'
p1631
I96
sS'gas..and'
p1632
I96
sS'descent'
p1633
I96
sS'jerry'
p1634
I96
sS'puttin'
p1635
I96
sS'swell'
p1636
I96
sS'hang'
p1637
I92
sS'rain'
p1638
I96
sS'hand'
p1639
I96
sS'rair'
p1640
I96
sS'you...-jefferson'
p1641
I96
sS'drunkin'
p1642
I96
sS'thx'
p1643
I95
sS'congrats'
p1644
I95
sS'tho'
p1645
I85
sS'the'
p1646
I2
sS'camps'
p1647
I94
sS'musical'
p1648
I96
sS'tha'
p1649
I95
sS'kala'
p1650
I96
sS"she'll"
p1651
I96
sS'kale'
p1652
I96
sS'quoted'
p1653
I96
sS'photo'
p1654
I96
sS'hahahha'
p1655
I95
sS'thanku'
p1656
I96
sS'thanks'
p1657
I42
sS'hills'
p1658
I92
sS'dead....if'
p1659
I96
sS'josh'
p1660
I96
sS'shout'
p1661
I90
sS'spread'
p1662
I96
sS'zillion'
p1663
I96
sS'maya'
p1664
I96
sS'mayo'
p1665
I96
sS'progressed'
p1666
I96
sS'fusion'
p1667
I96
sS'5515'
p1668
I96
sS'reusable'
p1669
I96
sS'cooler'
p1670
I96
sS'tracklist'
p1671
I96
sS'soap'
p1672
I96
sS'gandhi'
p1673
I96
sS'night'
p1674
I65
sS'lashes'
p1675
I96
sS'ustedes'
p1676
I96
sS'born'
p1677
I96
sS'\xe2\x8f\xab'
p1678
I96
sS'neva'
p1679
I96
sS'humor'
p1680
I96
sS'purple'
p1681
I96
sS'/'
p1682
I91
sS'filming'
p1683
I95
sS'asking'
p1684
I94
sS'posh'
p1685
I96
sS'posi'
p1686
I96
sS'.....partner'
p1687
I96
sS'plz'
p1688
I93
sS'post'
p1689
I88
sS'months'
p1690
I94
sS'shield'
p1691
I96
sS'donuts'
p1692
I95
sS'octopus'
p1693
I95
sS'spectrum/we'
p1694
I96
sS'wasting'
p1695
I96
sS'pays'
p1696
I95
sS'float'
p1697
I95
sS'fun...remember'
p1698
I96
sS'strangely'
p1699
I96
sS'......that'
p1700
I96
sS'shhhh'
p1701
I96
sS'rejoicin'
p1702
I96
sS'fight'
p1703
I93
sS'mutated'
p1704
I96
sS'way'
p1705
I70
sS'wat'
p1706
I96
sS'was'
p1707
I27
sS'war'
p1708
I96
sS'truu'
p1709
I96
sS'true'
p1710
I87
sS'generosity'
p1711
I96
sS'....white'
p1712
I96
sS'emotional'
p1713
I96
sS'promises'
p1714
I96
sS'.......value'
p1715
I96
sS'cleats'
p1716
I96
sS'promised'
p1717
I95
sS'prayer'
p1718
I96
sS'maill'
p1719
I96
sS'dying'
p1720
I94
sS"you'll"
p1721
I89
sS'interested'
p1722
I91
sS'test'
p1723
I96
sS'unwilling'
p1724
I96
sS"jesus'"
p1725
I96
sS'brothers'
p1726
I93
sS'welcome'
p1727
I92
sS'update'
p1728
I95
sS"let's"
p1729
I88
sS'"da"'
p1730
I96
sS'kirby-kirb'
p1731
I96
sS'...let'
p1732
I96
sS'together'
p1733
I93
sS'lineup'
p1734
I96
sS'songs'
p1735
I92
sS'concept'
p1736
I96
sS'dance'
p1737
I96
sS'grateful'
p1738
I92
sS'flash'
p1739
I96
sS'rhythm'
p1740
I96
sS'brown'
p1741
I95
sS'multi-person'
p1742
I96
sS'\xe2\x9a\xbe\xef\xb8\x8f'
p1743
I96
sS'is!"'
p1744
I96
sS'vegas'
p1745
I96
sS'browz'
p1746
I96
sS'trouble'
p1747
I96
sS'blast'
p1748
I96
sS'turns'
p1749
I94
sS'gun'
p1750
I96
sS'turnt'
p1751
I95
sS'p'
p1752
I96
sS'sooon'
p1753
I96
sS'gut'
p1754
I96
sS'guy'
p1755
I91
sS'brave'
p1756
I96
sS'htc'
p1757
I96
sS'regret'
p1758
I96
sS'bedroom'
p1759
I96
sS'discover'
p1760
I82
sS'anvils'
p1761
I96
sS'...for'
p1762
I94
sS'peele'
p1763
I96
sS'shares'
p1764
I96
sS'illustrations'
p1765
I96
sS'oaks'
p1766
I96
sS'supporting'
p1767
I96
sS'goooodddd'
p1768
I96
sS'pause'
p1769
I93
sS'eerie'
p1770
I96
sS"hadn't"
p1771
I96
sS'change'
p1772
I91
sS'sending'
p1773
I94
sS'7eleven'
p1774
I96
sS'...using'
p1775
I96
sS'trial'
p1776
I96
sS'sucks\xe2\x80\x9d'
p1777
I96
sS'usually'
p1778
I93
sS'extra'
p1779
I96
sS'faith.\xe2\x80\x9d'
p1780
I96
sS'rarely'
p1781
I96
sS'jan'
p1782
I96
sS'you."'
p1783
I96
sS'live'
p1784
I74
sS'"easter'
p1785
I96
sS'club'
p1786
I88
sS'...ladies'
p1787
I96
sS'instructional'
p1788
I96
sS'*enough'
p1789
I96
sS'niggas'
p1790
I94
sS'car'
p1791
I92
sS'cap'
p1792
I96
sS'cat'
p1793
I96
sS'hardest'
p1794
I96
sS'can'
p1795
I48
sS'cam'
p1796
I94
sS'big"'
p1797
I96
sS'sleeep'
p1798
I96
sS'heart'
p1799
I90
sS"didn't"
p1800
I80
sS'paused'
p1801
I96
sS'heard'
p1802
I91
sS'clothing'
p1803
I96
sS'productive'
p1804
I96
sS'freezer'
p1805
I96
sS'write'
p1806
I95
sS'walking.....threw'
p1807
I96
sS'product'
p1808
I95
sS'diva'
p1809
I96
sS'produce'
p1810
I95
sS'screening!"'
p1811
I96
sS'heroes'
p1812
I95
sS'remember'
p1813
I89
sS'brussel'
p1814
I94
sS'candles'
p1815
I96
sS'tomorrow;)'
p1816
I96
sS'kurt'
p1817
I96
sS'!!!!!they'
p1818
I96
sS'serving'
p1819
I96
sS'awards......best'
p1820
I96
sS'no"'
p1821
I96
sS'dogfather'
p1822
I96
sS'(ugh)'
p1823
I96
sS'cold'
p1824
I91
sS'still'
p1825
I60
sS'1831'
p1826
I96
sS'curly'
p1827
I96
sS'forms'
p1828
I95
sS'window'
p1829
I95
sS'drillin'
p1830
I96
sS'evoo'
p1831
I96
sS'half'
p1832
I93
sS'not'
p1833
I27
sS'now'
p1834
I38
sS"jeter's"
p1835
I96
sS'frequency"'
p1836
I96
sS'james'
p1837
I83
sS'vitameataweidemann'
p1838
I96
sS'pre-rave'
p1839
I96
sS'em'
p1840
I93
sS'el'
p1841
I93
sS'en'
p1842
I96
sS'eh'
p1843
I94
sS'kani'
p1844
I96
sS'yeah'
p1845
I82
sS'ex'
p1846
I96
sS'ez'
p1847
I96
sS'ew'
p1848
I95
sS'calling'
p1849
I95
sS'....bro'
p1850
I96
sS'ep'
p1851
I86
sS'es'
p1852
I94
sS'album'
p1853
I92
sS'shown'
p1854
I95
sS'accomplish'
p1855
I96
sS'opened'
p1856
I95
sS'sadpants'
p1857
I96
sS'herve'
p1858
I96
sS'thirst'
p1859
I95
sS'...summer'
p1860
I96
sS'....between'
p1861
I96
sS'shows'
p1862
I92
sS'undead'
p1863
I96
sS'cars'
p1864
I95
sS'card'
p1865
I96
sS'care'
p1866
I95
sS'fixed'
p1867
I96
sS'transition'
p1868
I96
sS'honest'
p1869
I96
sS'invitation'
p1870
I96
sS'blind'
p1871
I94
sS'....will'
p1872
I95
sS'straightblack'
p1873
I96
sS'zag'
p1874
I96
sS'yourself'
p1875
I90
sS'nepa'
p1876
I95
sS'directly'
p1877
I96
sS'impossible'
p1878
I95
sS'message'
p1879
I92
sS"crnkn's"
p1880
I96
sS'size'
p1881
I95
sS'checked'
p1882
I96
sS'caught'
p1883
I94
sS'national'
p1884
I96
sS'friend'
p1885
I85
sS'thas'
p1886
I96
sS'mostly'
p1887
I96
sS'that'
p1888
I14
sS'thai'
p1889
I94
sS'peck'
p1890
I96
sS'appreciated'
p1891
I96
sS'pots"'
p1892
I96
sS'..he'
p1893
I96
sS'vocals'
p1894
I96
sS'bizness'
p1895
I96
sS'with....stupid'
p1896
I96
sS'angel'
p1897
I96
sS'slay'
p1898
I96
sS'4ur'
p1899
I94
sS'slap'
p1900
I95
sS'(and'
p1901
I96
sS'invalidates'
p1902
I96
sS'breakfast'
p1903
I96
sS'twinkles'
p1904
I96
sS'wcw'
p1905
I96
sS'roommates'
p1906
I93
sS'begin'
p1907
I96
sS'...when'
p1908
I96
sS'america'
p1909
I92
sS'michelle'
p1910
I96
sS'forever'
p1911
I91
sS'dream'
p1912
I92
sS'sunset'
p1913
I96
sS'funkiest'
p1914
I96
sS'slaves'
p1915
I95
sS'dammmm'
p1916
I96
sS'abraham'
p1917
I96
sS'.looks'
p1918
I96
sS'people...she'
p1919
I96
sS'(radio'
p1920
I94
sS'02:02:05.0,34.20698067,-118.39586136,1224.10,2014'
p1921
I96
sS'hunnam'
p1922
I95
sS'jesus..."'
p1923
I96
sS'maine'
p1924
I94
sS'fifth'
p1925
I96
sS'..are'
p1926
I96
sS'snack'
p1927
I96
sS'title'
p1928
I96
sS'only'
p1929
I46
sS"....doesn't"
p1930
I96
sS'pumpkin'
p1931
I95
sS"'tis"
p1932
I96
sS'truly'
p1933
I95
sS'cannot'
p1934
I94
sS'(meaning'
p1935
I96
sS'....remember'
p1936
I96
sS'amanda'
p1937
I96
sS'"come'
p1938
I96
sS'asleep'
p1939
I96
sS'hoes'
p1940
I95
sS'israeli'
p1941
I96
sS'troubadour'
p1942
I92
sS'3'
p1943
I84
sS'between'
p1944
I96
sS'notice'
p1945
I96
sS'"asians'
p1946
I96
sS'blame'
p1947
I94
sS'01:30:04.0,34.20695744,-118.3960842,1224.10,tomorrow'
p1948
I96
sS'hurts'
p1949
I96
sS'article'
p1950
I95
sS'.....hollywooooooooood'
p1951
I96
sS'comes'
p1952
I88
sS'madness'
p1953
I96
sS'jeans'
p1954
I96
sS"couldn't"
p1955
I92
sS"08:03:51.0,34.20690686,-118.39590871,1224.10,she'll"
p1956
I96
sS'cycling'
p1957
I96
sS'cares'
p1958
I96
sS'2pm'
p1959
I96
sS'informed'
p1960
I96
sS'skippin'
p1961
I95
sS'tropical'
p1962
I96
sS'goooooal'
p1963
I96
sS'5:00pm'
p1964
I96
sS'stems'
p1965
I96
sS'betcha'
p1966
I96
sS'bout'
p1967
I94
sS'these'
p1968
I73
sS'joke'
p1969
I95
sS'coolest'
p1970
I96
sS'gringo'
p1971
I96
sS'...thats'
p1972
I95
sS'motivated'
p1973
I96
sS'worry'
p1974
I92
sS'media'
p1975
I96
sS'coke'
p1976
I90
sS'digicrate'
p1977
I96
sS'gentlemen'
p1978
I96
sS'ya'
p1979
I74
sS'followers'
p1980
I95
sS'(soa))'
p1981
I95
sS'finish'
p1982
I96
sS'closest'
p1983
I96
sS'all..and'
p1984
I96
sS'fruit'
p1985
I94
sS'favorites'
p1986
I96
sS'passing'
p1987
I95
sS'sickie'
p1988
I96
sS'\xe2\x9c\x8c\xef\xb8\x8f'
p1989
I94
sS'walk/jog'
p1990
I96
sS'whose'
p1991
I96
sS'pasta*'
p1992
I96
sS',91605\n494048229441298433,bb_asher,2014-07-29'
p1993
I96
sS'ps/'
p1994
I96
sS'relevant'
p1995
I96
sS'noize'
p1996
I95
sS'valuable."'
p1997
I96
sS'issss'
p1998
I96
sS'death'
p1999
I96
sS'god-colors'
p2000
I96
sS'thinking'
p2001
I90
sS'6:30pm'
p2002
I96
sS'versa'
p2003
I96
sS'real'
p2004
I74
sS'duhh'
p2005
I96
sS'rules'
p2006
I94
sS'specimen'
p2007
I96
sS'*wakes'
p2008
I96
sS'gonna'
p2009
I62
sS'early'
p2010
I95
sS'listening'
p2011
I89
sS'using'
p2012
I94
sS'execution'
p2013
I96
sS'lady'
p2014
I90
sS'pst'
p2015
I96
sS'pounds'
p2016
I96
sS'iphone6'
p2017
I96
sS'collective'
p2018
I96
sS'whatcha'
p2019
I96
sS'endorsed'
p2020
I96
sS'hoping\xe2\x80\x94believin'
p2021
I96
sS'verbal'
p2022
I96
sS'apartments'
p2023
I94
sS'ewww'
p2024
I96
sS'eddie'
p2025
I96
sS'guantanameaux'
p2026
I96
sS'mothafucker'
p2027
I96
sS'recorded'
p2028
I96
sS'1963....sometimes'
p2029
I96
sS'hustle'
p2030
I96
sS'teared'
p2031
I96
sS'assembly'
p2032
I96
sS'business'
p2033
I87
sS'asap'
p2034
I96
sS'lazerdisk'
p2035
I96
sS'^_^'
p2036
I96
sS'$700'
p2037
I96
sS'exciting'
p2038
I95
sS'throw'
p2039
I96
sS'obligated'
p2040
I96
sS'hiatus'
p2041
I96
sS'chop'
p2042
I96
sS'ortberg'
p2043
I95
sS'deathbed'
p2044
I96
sS',91605\n498770120471105537,bb_asher,2014-08-11'
p2045
I96
sS"isn't"
p2046
I95
sS'sry'
p2047
I96
sS'heater'
p2048
I96
sS'snapchat'
p2049
I88
sS'heated'
p2050
I96
sS'your'
p2051
I20
sS'stare'
p2052
I96
sS'doo-doo'
p2053
I96
sS'cate'
p2054
I96
sS'prepare'
p2055
I95
sS'area'
p2056
I96
sS'sprees'
p2057
I96
sS'assumed'
p2058
I96
sS'lol'
p2059
I26
sS'los'
p2060
I93
sS'cats'
p2061
I96
sS'low'
p2062
I95
sS'lot'
p2063
I81
sS'respek'
p2064
I96
sS"you'"
p2065
I96
sS'01:32:24.0,34.20686108,-118.39607685,1224.10,me'
p2066
I96
sS'pole.with'
p2067
I96
sS'gag\xe2\x80\x9d'
p2068
I96
sS'(mom'
p2069
I96
sS'trying'
p2070
I87
sS'are"'
p2071
I96
sS'sadness'
p2072
I96
sS'moved'
p2073
I94
sS"you've"
p2074
I94
sS'downfor'
p2075
I96
sS'moves'
p2076
I96
sS'yoo'
p2077
I93
sS'anarchy'
p2078
I94
sS'you'
p2079
I7
sS'poor'
p2080
I91
sS'polar'
p2081
I96
sS'hospital)'
p2082
I96
sS'peas'
p2083
I96
sS'peak'
p2084
I96
sS'poptart'
p2085
I96
sS'pool'
p2086
I96
sS'building'
p2087
I96
sS'....wh\xc2\xa3n'
p2088
I96
sS'deaaaddddd'
p2089
I96
sS'messi'
p2090
I95
sS'smile...good'
p2091
I96
sS'month'
p2092
I92
sS'.....why'
p2093
I96
sS'mp3'
p2094
I95
sS'messy'
p2095
I96
sS'victoriously'
p2096
I96
sS'asada'
p2097
I96
sS'\xe2\x9c\xa8dm\xe2\x9c\xa8'
p2098
I96
sS'wmc'
p2099
I96
sS'estaba'
p2100
I96
sS'bouncers'
p2101
I96
sS'very'
p2102
I65
sS'germantina'
p2103
I96
sS'bombed'
p2104
I96
sS'selfies'
p2105
I95
sS'tyyyyte'
p2106
I96
sS'--'
p2107
I96
sS'random'
p2108
I95
sS'smoker.....with'
p2109
I96
sS'blackout'
p2110
I96
sS"i'll"
p2111
I77
sS'cookies'
p2112
I96
sS'instagram'
p2113
I95
sS'...catch'
p2114
I96
sS"celebrity'smakes"
p2115
I96
sS'conscience'
p2116
I96
sS'emotions'
p2117
I95
sS'learned'
p2118
I95
sS'him"'
p2119
I95
sS'4th...of'
p2120
I96
sS'answers'
p2121
I96
sS'r\xc2\xa3ady'
p2122
I96
sS'tracks'
p2123
I88
sS'minor'
p2124
I93
sS',91605\n498734323160211457,bb_asher,2014-08-11'
p2125
I96
sS'yummy'
p2126
I96
sS'cookie*'
p2127
I96
sS'ahead'
p2128
I96
sS'soldier'
p2129
I96
sS'amount'
p2130
I95
sS'advertising'
p2131
I96
sS'helps'
p2132
I96
sS'swoon'
p2133
I96
sS'......the'
p2134
I96
sS'family'
p2135
I91
sS'year.....but'
p2136
I96
sS'm8s'
p2137
I96
sS'ask'
p2138
I93
sS'toys'
p2139
I96
sS'honing'
p2140
I96
sS'takes'
p2141
I92
sS'revelation'
p2142
I96
sS'...dont'
p2143
I96
sS'swick'
p2144
I96
sS'hahha'
p2145
I95
sS'taken'
p2146
I96
sS'swat....business'
p2147
I96
sS'instrumental'
p2148
I96
sS'excuse'
p2149
I95
sS'broke'
p2150
I95
sS'2pac'
p2151
I96
sS'grill'
p2152
I96
sS'pre-party'
p2153
I96
sS'smurf'
p2154
I96
sS'vivaldi'
p2155
I96
sS'...she'
p2156
I96
sS'...do'
p2157
I96
sS'\xe2\x98\x95\xef\xb8\x8f'
p2158
I96
sS'cows'
p2159
I96
sS'suckerz!!...trust'
p2160
I96
sS'...gov...illuminate'
p2161
I96
sS'unlucky'
p2162
I96
sS't.d'
p2163
I96
sS'tried'
p2164
I91
sS'sneak'
p2165
I94
sS'fb'
p2166
I92
sS'fd'
p2167
I96
sS'owsla'
p2168
I96
sS'fm'
p2169
I94
sS'a'
p2170
I5
sS'relocating'
p2171
I96
sS'ego'
p2172
I96
sS'banks'
p2173
I96
sS'egg'
p2174
I95
sS'chicks'
p2175
I96
sS'help'
p2176
I83
sS'soon'
p2177
I74
sS'season...and'
p2178
I96
sS'3:16)'
p2179
I96
sS'hell'
p2180
I93
sS'actually'
p2181
I89
sS'..that'
p2182
I95
sS'heros'
p2183
I96
sS'peanuts'
p2184
I95
sS"haven't"
p2185
I79
sS'fool'
p2186
I90
sS'sharknado2'
p2187
I96
sS'evening'
p2188
I95
sS'curtis'
p2189
I96
sS'yo'
p2190
I88
sS'food'
p2191
I80
sS'anticipated'
p2192
I96
sS'vomit'
p2193
I96
sS'starbucks'
p2194
I95
sS'ninja'
p2195
I95
sS'....get'
p2196
I96
sS'system"'
p2197
I96
sS'fully'
p2198
I95
sS'bless'
p2199
I93
sS'stopped'
p2200
I96
sS'hahahah\xe2\x80\x9d'
p2201
I96
sS'trailer'
p2202
I96
sS'referred'
p2203
I96
sS'house"'
p2204
I95
sS'restless'
p2205
I95
sS'blank'
p2206
I96
sS'beyond'
p2207
I94
sS'todo'
p2208
I96
sS'event'
p2209
I96
sS'since'
p2210
I89
sS'7'
p2211
I94
sS'issue'
p2212
I95
sS'ass'
p2213
I76
sS'pun'
p2214
I96
sS'bass'
p2215
I92
sS'timeline'
p2216
I96
sS'toiling'
p2217
I96
sS'reason'
p2218
I93
sS'"'
p2219
I92
sS'asf'
p2220
I96
sS'put'
p2221
I84
sS'ash'
p2222
I96
sS'"support"'
p2223
I96
sS'asl'
p2224
I96
sS'terrible'
p2225
I92
sS'american'
p2226
I93
sS'expecting'
p2227
I96
sS'...\xe2\x98\x85\xe2\x98\x85\xe2\x98\x85much'
p2228
I96
sS'apocalypse'
p2229
I95
sS"knope's"
p2230
I96
sS'miss'
p2231
I76
sS'horse'
p2232
I96
sS'b!z'
p2233
I96
sS'wonderful'
p2234
I96
sS'squeak"'
p2235
I96
sS'selling'
p2236
I96
sS'jordan'
p2237
I95
sS'albums'
p2238
I96
sS'grocery'
p2239
I96
sS'squeaky'
p2240
I96
sS'stu'
p2241
I95
sS'recovered'
p2242
I96
sS'nuthin'
p2243
I96
sS'toward'
p2244
I96
sS'crescent'
p2245
I96
sS'alongside'
p2246
I96
sS'karl'
p2247
I96
sS'lie'
p2248
I93
sS'w/strength'
p2249
I96
sS'lil'
p2250
I83
sS'flaming'
p2251
I96
sS'lit'
p2252
I96
sS'lip'
p2253
I95
sS'sponsored'
p2254
I96
sS'knotty'
p2255
I96
sS'approved'
p2256
I96
sS'wats'
p2257
I96
sS'...tells'
p2258
I96
sS'raving'
p2259
I95
sS'clear'
p2260
I95
sS'clean'
p2261
I95
sS'....well'
p2262
I96
sS'usual'
p2263
I95
sS'blend'
p2264
I96
sS'shoutout'
p2265
I95
sS'booze'
p2266
I96
sS'coaster'
p2267
I96
sS'pretty'
p2268
I85
sS'...will....change'
p2269
I96
sS'trees'
p2270
I96
sS'famous'
p2271
I95
sS'feels'
p2272
I92
sS'during'
p2273
I93
sS'rocco'
p2274
I96
sS'waiiiiit'
p2275
I96
sS'game...?we'
p2276
I96
sS',91605\n504447401956876288,bb_asher,2014-08-27'
p2277
I96
sS'hype'
p2278
I96
sS'x'
p2279
I94
sS'egil'
p2280
I96
sS'throwing'
p2281
I96
sS'close'
p2282
I92
sS'7&10'
p2283
I96
sS'pictures'
p2284
I94
sS'wow'
p2285
I82
sS'01:15:42.0,34.20675446,-118.39574536,1224.10,yare'
p2286
I96
sS'won'
p2287
I96
sS'probably'
p2288
I91
sS'piss'
p2289
I95
sS'sauce/chicken'
p2290
I96
sS'missing'
p2291
I95
sS'mondays!\xe2\x80\x9d'
p2292
I96
sS'genre'
p2293
I96
sS'both'
p2294
I89
sS"wouldn't"
p2295
I91
sS'liked'
p2296
I94
sS'headed'
p2297
I96
sS'battery'
p2298
I96
sS'(cannot'
p2299
I96
sS'whatever'
p2300
I93
sS'header'
p2301
I96
sS'likes'
p2302
I96
sS'....twisted'
p2303
I96
sS"=')"
p2304
I95
sS'.why'
p2305
I96
sS'...true'
p2306
I96
sS'damn'
p2307
I70
sS'pink.....show'
p2308
I96
sS'crack'
p2309
I95
sS'hbo'
p2310
I96
sS'else'
p2311
I91
sS'lives'
p2312
I96
sS'look'
p2313
I66
sS'2need'
p2314
I96
sS'rope'
p2315
I96
sS'00:25:38.0,34.20684674,-118.3961145,1224.10,i'
p2316
I96
sS'pack'
p2317
I95
sS'thpdj'
p2318
I96
sS'skype'
p2319
I96
sS'ready'
p2320
I83
sS'payers'
p2321
I94
sS'anymore'
p2322
I88
sS'belong'
p2323
I96
sS'accomplished'
p2324
I95
sS'checking'
p2325
I95
sS'grand'
p2326
I96
sS'th/\\t'
p2327
I96
sS'used'
p2328
I79
sS'uses'
p2329
I95
sS'cleaning'
p2330
I95
sS'duderz'
p2331
I96
sS'older'
p2332
I95
sS'duders'
p2333
I96
sS'eat...if'
p2334
I96
sS'..i'
p2335
I95
sS'getoutmecah'
p2336
I96
sS'...by'
p2337
I95
sS'minkus'
p2338
I96
sS'praying'
p2339
I96
sS'$'
p2340
I95
sS'cemetery'
p2341
I96
sS'throats'
p2342
I96
sS'havin'
p2343
I95
sS'transformation'
p2344
I96
sS'march'
p2345
I95
sS'showing'
p2346
I93
sS'game'
p2347
I76
sS'dearly'
p2348
I96
sS'success'
p2349
I94
sS'....for'
p2350
I96
sS'spelunking'
p2351
I96
sS"u're"
p2352
I96
sS'......to'
p2353
I96
sS'shaena'
p2354
I96
sS'yolo'
p2355
I96
sS'some'
p2356
I41
sS'lips'
p2357
I96
sS'delivered'
p2358
I96
sS'forgets'
p2359
I96
sS'cgi'
p2360
I96
sS'sweating'
p2361
I96
sS'run'
p2362
I94
sS'fomo'
p2363
I96
sS'rub'
p2364
I95
sS'processing'
p2365
I96
sS'.se'
p2366
I96
sS'01:58:01.0,34.20675761,-118.39577654,1224.10,i'
p2367
I96
sS'step'
p2368
I87
sS'lasts'
p2369
I96
sS'contessa'
p2370
I96
sS'wealth'
p2371
I96
sS'faith'
p2372
I91
sS'handbags'
p2373
I96
sS'awwww'
p2374
I96
sS'idk'
p2375
I95
sS'hat""'
p2376
I96
sS'classics'
p2377
I96
sS'idc'
p2378
I96
sS'block'
p2379
I96
sS'seeing'
p2380
I93
sS'visit'
p2381
I95
sS'within'
p2382
I96
sS'tofu'
p2383
I96
sS'smells'
p2384
I93
sS'...a'
p2385
I96
sS'...i'
p2386
I94
sS'dawwg'
p2387
I96
sS'up.......already'
p2388
I96
sS'himself'
p2389
I93
sS'...girly'
p2390
I96
sS'"nerdy"'
p2391
I96
sS'properly'
p2392
I96
sS'newer'
p2393
I96
sS'._'
p2394
I96
sS'info'
p2395
I94
sS'.i'
p2396
I96
sS'.a'
p2397
I96
sS'...1'
p2398
I95
sS"t\xc2\xa3||\xc2\xa1ng..u..you're"
p2399
I96
sS'raspados'
p2400
I96
sS'ordered'
p2401
I96
sS'fckin'
p2402
I96
sS'uggghh'
p2403
I96
sS'sharing'
p2404
I96
sS'tite'
p2405
I84
sS'...from'
p2406
I93
sS'creeper'
p2407
I96
sS'nah'
p2408
I81
sS'preachers'
p2409
I95
sS'naw'
p2410
I96
sS'tits'
p2411
I95
sS'b/c'
p2412
I94
sS'creeped'
p2413
I96
sS'together...yeah'
p2414
I96
sS'natgeo'
p2415
I96
sS'drag'
p2416
I96
sS'smiled'
p2417
I96
sS'structure'
p2418
I95
sS'manito'
p2419
I96
sS'\xe2\x9c\x82\xef\xb8\x8f'
p2420
I96
sS'e'
p2421
I96
sS'depth'
p2422
I96
sS"she's"
p2423
I89
sS'requires'
p2424
I95
sS'gf'
p2425
I96
sS'go'
p2426
I43
sS'barbecue'
p2427
I96
sS'tweeted'
p2428
I94
sS'!np\xc2\xa3rzon'
p2429
I96
sS"diet...it's"
p2430
I96
sS'suits'
p2431
I96
sS'-carlos'
p2432
I96
sS'facebook'
p2433
I93
sS'telling'
p2434
I96
sS'gender'
p2435
I95
sS'michael'
p2436
I96
sS'booty'
p2437
I89
sS'jump'
p2438
I94
sS'zt'
p2439
I96
sS"weird'"
p2440
I96
sS'click'
p2441
I96
sS'......a'
p2442
I96
sS"...m\xc2\xa3...you're"
p2443
I96
sS'wallet'
p2444
I94
sS'cell'
p2445
I96
sS'...pluz'
p2446
I95
sS'motherfuckerthat'
p2447
I96
sS'commercial'
p2448
I96
sS'ilcian'
p2449
I95
sS'duuuuude'
p2450
I96
sS'vacay'
p2451
I96
sS'......$'
p2452
I95
sS"weren't"
p2453
I95
sS'.....sooner'
p2454
I96
sS'wid'
p2455
I96
sS'lords'
p2456
I95
sS'win'
p2457
I90
sS'collaborating'
p2458
I96
sS'wit'
p2459
I94
sS'...fucking'
p2460
I96
sS'singing'
p2461
I95
sS'kraftwerk'
p2462
I96
sS'snoop'
p2463
I96
sS'cray'
p2464
I96
sS'camera'
p2465
I95
sS'1/5'
p2466
I96
sS'started'
p2467
I90
sS'becomes'
p2468
I95
sS'confused'
p2469
I93
sS'tuffer'
p2470
I96
sS"'turn"
p2471
I96
sS'salad'
p2472
I95
sS'days....."'
p2473
I96
sS'ride'
p2474
I94
sS'donut'
p2475
I95
sS'crossed'
p2476
I95
sS'meet'
p2477
I81
sS'drops'
p2478
I95
sS'control'
p2479
I96
sS'links'
p2480
I94
sS'escapes'
p2481
I96
sS'halloween'
p2482
I96
sS'vibe'
p2483
I96
sS'...named'
p2484
I96
sS'..from'
p2485
I96
sS'poetry'
p2486
I96
sS'zowee'
p2487
I96
sS"duo's"
p2488
I96
sS'noho'
p2489
I95
sS'longest'
p2490
I96
sS'ummmmm'
p2491
I96
sS'....calculations'
p2492
I96
sS'a/c'
p2493
I96
sS"won't"
p2494
I96
sS'(before'
p2495
I96
sS'cruise'
p2496
I96
sS'[pic]'
p2497
I96
sS'"ok"'
p2498
I96
sS'surrounds'
p2499
I96
sS'camino'
p2500
I95
sS':hug'
p2501
I96
sS'hands'
p2502
I94
sS'front'
p2503
I93
sS'......told'
p2504
I96
sS'i-yai-yai'
p2505
I96
sS'slide'
p2506
I95
sS'mode'
p2507
I96
sS'shaking'
p2508
I96
sS'ankles'
p2509
I96
sS'illuminate'
p2510
I95
sS'(the'
p2511
I96
sS'eldredge'
p2512
I96
sS"android's"
p2513
I96
sS'lil..:(....maybe'
p2514
I96
sS'700'
p2515
I96
sS'...give'
p2516
I96
sS'flys'
p2517
I96
sS'1:30am'
p2518
I96
sS'b.ball'
p2519
I96
sS'confess'
p2520
I96
sS'playground'
p2521
I96
sS'cause'
p2522
I71
sS'"building'
p2523
I94
sS'hearts.(isaiah'
p2524
I96
sS'completely'
p2525
I94
sS'subtitles)'
p2526
I96
sS'route'
p2527
I95
sS'diminished'
p2528
I96
sS'times'
p2529
I85
sS'designed'
p2530
I95
sS'automating'
p2531
I96
sS'powerful'
p2532
I96
sS'.auto'
p2533
I96
sS'bitch'
p2534
I82
sS'precisely'
p2535
I96
sS'quality'
p2536
I96
sS"you're"
p2537
I69
sS'playlist'
p2538
I96
sS'management'
p2539
I96
sS'paves'
p2540
I96
sS'revealed'
p2541
I96
sS'..but'
p2542
I96
sS'..they'
p2543
I96
sS'sumatra'
p2544
I96
sS'dieit'
p2545
I96
sS'wrapped'
p2546
I96
sS'99.5'
p2547
I94
sS'final'
p2548
I95
sS'beard'
p2549
I95
sS"phone's/most"
p2550
I96
sS'craziest'
p2551
I95
sS'dtla'
p2552
I95
sS'exactly'
p2553
I95
sS'fuzzy'
p2554
I95
sS'rvbbs'
p2555
I96
sS'herself'
p2556
I96
sS'updating'
p2557
I96
sS'ben'
p2558
I96
sS'there...long'
p2559
I96
sS'anaheim'
p2560
I96
sS'cravings'
p2561
I96
sS'bet'
p2562
I95
sS'n\xc2\xa3w'
p2563
I96
sS'buy'
p2564
I90
sS'need'
p2565
I63
sS'screw'
p2566
I96
sS'microphone'
p2567
I96
sS'able'
p2568
I88
sS'truck'
p2569
I96
sS'brand'
p2570
I95
sS'aww'
p2571
I95
sS'dubs'
p2572
I96
sS'awe'
p2573
I96
sS'expired'
p2574
I96
sS'reminds'
p2575
I95
sS'undeniable'
p2576
I96
sS'....by'
p2577
I96
sS'bun'
p2578
I95
sS'crate'
p2579
I96
sS'anyway'
p2580
I92
sS'terrestrials\xe2\x80\x9d\xe2\x9c\xa8'
p2581
I96
sS'based'
p2582
I95
sS'('
p2583
I93
sS'muzak'
p2584
I96
sS'nitrous'
p2585
I96
sS'riblets'
p2586
I96
sS"....that's"
p2587
I94
sS'early\xe2\x98\x9d\xef\xb8\x8f'
p2588
I96
sS'joint'
p2589
I95
sS'tolle'
p2590
I96
sS'scrolling'
p2591
I96
sS'endless'
p2592
I96
sS'evolution'
p2593
I96
sS'8/1'
p2594
I96
sS'she'
p2595
I71
sS'dangerous'
p2596
I94
sS'yassss'
p2597
I96
sS'...your'
p2598
I96
sS'spotted'
p2599
I95
sS'prayers'
p2600
I96
sS'calloway'
p2601
I95
sS'freeze'
p2602
I96
sS'computer'
p2603
I96
sS'powder'
p2604
I96
sS'desperate'
p2605
I96
sS'...china'
p2606
I96
sS'tend'
p2607
I96
sS'written'
p2608
I96
sS'"find"'
p2609
I96
sS'correctly'
p2610
I96
sS'limit)'
p2611
I96
sS'tent'
p2612
I96
sS'....phony'
p2613
I96
sS'buckets'
p2614
I96
sS'4:30pm'
p2615
I96
sS'key'
p2616
I95
sS'approval'
p2617
I96
sS'problem'
p2618
I96
sS'monitor'
p2619
I96
sS'hits'
p2620
I96
sS'...beware'
p2621
I96
sS'limits'
p2622
I96
sS'admit'
p2623
I96
sS'orando'
p2624
I96
sS'tx'
p2625
I92
sS'journey'
p2626
I96
sS'tuesday'
p2627
I93
sS'bronson'
p2628
I96
sS'kingz'
p2629
I95
sS'willy'
p2630
I96
sS'quit'
p2631
I95
sS'....from...da'
p2632
I96
sS'yay'
p2633
I93
sS'"belief"'
p2634
I96
sS'cent'
p2635
I96
sS'treat'
p2636
I96
sS'head!"'
p2637
I96
sS'league'
p2638
I96
sS'controller'
p2639
I96
sS'kicks'
p2640
I96
sS'smoking'
p2641
I94
sS'motorcycle\xe2\x80\xa6'
p2642
I96
sS'gucci'
p2643
I96
sS'"kick'
p2644
I96
sS'owns'
p2645
I96
sS'will"'
p2646
I96
sS'evelyn'
p2647
I95
sS'swinging'
p2648
I96
sS'hearted'
p2649
I96
sS'bucks'
p2650
I96
sS'chants'
p2651
I96
sS'strange'
p2652
I95
sS'speaker'
p2653
I96
sS'underground'
p2654
I96
sS'party'
p2655
I84
sS'promoters'
p2656
I95
sS'cline......yet'
p2657
I96
sS'smell...so'
p2658
I96
sS'storm\xe2\x80\xa6when'
p2659
I96
sS'destruction'
p2660
I95
sS'//'
p2661
I96
sS'i'
p2662
I3
sS'well'
p2663
I79
sS'restore'
p2664
I96
sS'59-save'
p2665
I96
sS'accurate'
p2666
I96
sS'mistakes'
p2667
I96
sS'soulja'
p2668
I96
sS'patsy'
p2669
I96
sS'too!\xe2\x80\x9d'
p2670
I96
sS'skill'
p2671
I96
sS'\xe2\x9c\x89\xef\xb8\x8f'
p2672
I96
sS'thing-things'
p2673
I96
sS'vids'
p2674
I95
sS'kick'
p2675
I96
sS'crushed'
p2676
I95
sS'5am'
p2677
I95
sS'bottoms'
p2678
I96
sS'immediately'
p2679
I96
sS'lincoln'
p2680
I96
sS'...competition'
p2681
I96
sS'lost'
p2682
I87
sS'clown'
p2683
I96
sS'taping'
p2684
I96
sS'lose'
p2685
I96
sS'(ex32:24)'
p2686
I96
sS'refugees'
p2687
I96
sS'page'
p2688
I95
sS'adversity'
p2689
I96
sS'lends'
p2690
I96
sS'therein'
p2691
I96
sS'twitter'
p2692
I87
sS'petey'
p2693
I96
sS'home'
p2694
I86
sS'liking'
p2695
I96
sS'steaming'
p2696
I96
sS'twerking'
p2697
I95
sS'(main'
p2698
I96
sS'rasberry'
p2699
I96
sS'limitations'
p2700
I96
sS'medieval'
p2701
I96
sS'turds'
p2702
I96
sS'....and'
p2703
I92
sS'diig'
p2704
I96
sS"...ain't"
p2705
I96
sS'nightclub'
p2706
I94
sS'tongue'
p2707
I96
sS'pistols'
p2708
I96
sS'haha\xe2\x80\x9d'
p2709
I96
sS'...no'
p2710
I95
sS'artists'
p2711
I96
sS'winging'
p2712
I96
sS'rejoice'
p2713
I96
sS'noticed'
p2714
I95
sS'+special'
p2715
I96
sS'...there'
p2716
I96
sS'north'
p2717
I91
sS'kandi'
p2718
I96
sS'forreal'
p2719
I96
sS'blaming'
p2720
I96
sS'astro'
p2721
I96
sS'hi'
p2722
I86
sS'goals'
p2723
I96
sS'hm'
p2724
I96
sS'ha'
p2725
I82
sS'eat'
p2726
I84
sS'hd'
p2727
I95
sS'he'
p2728
I43
sS'started."'
p2729
I96
sS'rumba'
p2730
I96
sS'cruel'
p2731
I96
sS'stories'
p2732
I96
sS'compassions'
p2733
I96
sS'dmv'
p2734
I95
sS'pumped'
p2735
I96
sS'braids,91605\n502266350991970304,bb_asher,2014-08-21'
p2736
I96
sS'piece'
p2737
I96
sS'display'
p2738
I96
sS'xabi'
p2739
I96
sS'beginning'
p2740
I96
sS'utensils'
p2741
I96
sS'beats'
p2742
I96
sS'education'
p2743
I96
sS'writing...then'
p2744
I96
sS'balcony'
p2745
I96
sS'functions'
p2746
I96
sS'offensive'
p2747
I96
sS'7/11'
p2748
I96
sS'jamming'
p2749
I96
sS'talkin'
p2750
I96
sS'star'
p2751
I94
sS'.goes'
p2752
I96
sS'stay'
p2753
I88
sS'pleeeeeaaaassseeee'
p2754
I96
sS'"the'
p2755
I94
sS'simpson'
p2756
I94
sS'pardon'
p2757
I96
sS'protest'
p2758
I96
sS'negi'
p2759
I96
sS'asian'
p2760
I96
sS'6pm'
p2761
I96
sS'-king'
p2762
I96
sS'captain'
p2763
I96
sS',91605\n504435581892325376,bb_asher,2014-08-27'
p2764
I96
sS'...all'
p2765
I96
sS'swag'
p2766
I95
sS'\xe2\x9c\x88\xef\xb8\x8fitaly'
p2767
I96
sS'buddy'
p2768
I94
sS'.....you'
p2769
I95
sS"up'"
p2770
I96
sS'presents'
p2771
I96
sS'aus'
p2772
I96
sS'swap'
p2773
I92
sS'sorry'
p2774
I78
sS'carrrruuuugggghhhhhhhhh'
p2775
I96
sS'affect'
p2776
I96
sS'fuck-vine'
p2777
I96
sS'hijole'
p2778
I96
sS'skills'
p2779
I94
sS'companies'
p2780
I96
sS'.and'
p2781
I96
sS'freeway..chp'
p2782
I96
sS'...thousand'
p2783
I96
sS'heading'
p2784
I96
sS'9pm'
p2785
I96
sS'force'
p2786
I96
sS'quilt'
p2787
I96
sS'..not'
p2788
I96
sS'japanese'
p2789
I93
sS'ovahness\xe2\x80\x9d'
p2790
I96
sS'likely'
p2791
I96
sS'moutache'
p2792
I96
sS'even'
p2793
I59
sS'neo'
p2794
I96
sS'while'
p2795
I90
sS'avicii'
p2796
I95
sS'new'
p2797
I52
sS'net'
p2798
I96
sS'ever'
p2799
I83
sS'nes'
p2800
I96
sS'mee'
p2801
I96
sS'med'
p2802
I96
sS'inhaled'
p2803
I96
sS'never'
p2804
I73
sS'met'
p2805
I93
sS'active'
p2806
I95
sS'101'
p2807
I91
sS'jams'
p2808
I96
sS'credit'
p2809
I95
sS'..she'
p2810
I96
sS'fantastic'
p2811
I96
sS'maaaannnnee'
p2812
I96
sS'drowned'
p2813
I96
sS'counts'
p2814
I96
sS'arms'
p2815
I96
sS'call'
p2816
I82
sS'lightsaber'
p2817
I96
sS'typo'
p2818
I95
sS'recommend'
p2819
I96
sS'typa'
p2820
I96
sS'type'
p2821
I94
sS'tell'
p2822
I85
sS'melbs'
p2823
I96
sS'posting'
p2824
I95
sS'berlin'
p2825
I95
sS'warm'
p2826
I95
sS'adult'
p2827
I96
sS'motherfuckers...find'
p2828
I96
sS'pride'
p2829
I96
sS"ike's???\xe2\x80\x9d"
p2830
I96
sS'room'
p2831
I93
sS'"rise"'
p2832
I96
sS'roof'
p2833
I95
sS'movies'
p2834
I93
sS'guise'
p2835
I96
sS'sizzler'
p2836
I96
sS'vodka'
p2837
I96
sS'give'
p2838
I87
sS'occasion/event'
p2839
I96
sS'laughs'
p2840
I96
sS'honey'
p2841
I96
sS'homie'
p2842
I86
sS'front,91605\n504448734826999808,bb_asher,2014-08-27'
p2843
I96
sS'amazing'
p2844
I75
sS'mp3s'
p2845
I96
sS'answer'
p2846
I91
sS'becky'
p2847
I96
sS'.into'
p2848
I96
sS'president'
p2849
I95
sS'ovo'
p2850
I96
sS'trapsy'
p2851
I96
sS'attempt'
p2852
I96
sS'capitalism'
p2853
I96
sS'thangs'
p2854
I96
sS'maintain'
p2855
I96
sS'...already'
p2856
I96
sS"23:39:46.0,34.20685217,-118.39614082,1224.10,can't"
p2857
I96
sS'banger'
p2858
I96
sS'chp...officer'
p2859
I96
sS'=:)'
p2860
I96
sS'down*'
p2861
I95
sS'keyboard'
p2862
I96
sS'fellas'
p2863
I96
sS'before'
p2864
I86
sS'.....can'
p2865
I96
sS'personal'
p2866
I96
sS'nadastrom\xe2\x80\x9d'
p2867
I96
sS'crew'
p2868
I89
sS'better'
p2869
I80
sS'differently'
p2870
I96
sS'creo'
p2871
I96
sS'weeks'
p2872
I94
sS'genre\xe2\x80\x9d'
p2873
I96
sS'downs'
p2874
I96
sS'therapy'
p2875
I96
sS'\xe2\x98\xba\xef\xb8\x8f'
p2876
I96
sS'glazed'
p2877
I96
sS'whaaaaaaat'
p2878
I96
sS'itchy'
p2879
I96
sS'meat'
p2880
I95
sS'lucy'
p2881
I96
sS'went'
p2882
I90
sS'side'
p2883
I89
sS'luck'
p2884
I95
sS'rebooted'
p2885
I96
sS'spanish'
p2886
I94
sS'adobo'
p2887
I96
sS'dawg'
p2888
I87
sS'forgot'
p2889
I91
sS'gradient'
p2890
I96
sS'debit'
p2891
I96
sS'venezuela'
p2892
I96
sS'turning'
p2893
I96
sS'cutest'
p2894
I96
sS'fave'
p2895
I92
sS'saggy'
p2896
I96
sS'starts'
p2897
I95
sS'cosmic'
p2898
I96
sS'loud'
p2899
I92
sS'fuckin'
p2900
I90
sS'user'
p2901
I96
sS'wronged'
p2902
I96
sS'grade'
p2903
I96
sS'.giving'
p2904
I96
sS'featured'
p2905
I96
sS'hood'
p2906
I95
sS'cybotron'
p2907
I96
sS'...excellence'
p2908
I96
sS'girls'
p2909
I95
sS'dwell'
p2910
I95
sS'hollywood'
p2911
I77
sS'shallowness'
p2912
I96
sS'bouncing'
p2913
I96
sS'2am'
p2914
I96
sS'trippy'
p2915
I96
sS'....all'
p2916
I96
sS'anxiety'
p2917
I96
sS'don\xe2\x80\x99t'
p2918
I96
sS'fabulous'
p2919
I96
sS'silly'
p2920
I96
sS'hottie'
p2921
I96
sS'9:30am'
p2922
I96
sS'enables'
p2923
I96
sS'wuki'
p2924
I96
sS'...everyone'
p2925
I96
sS'tello'
p2926
I96
sS'sees'
p2927
I96
sS'modern'
p2928
I96
sS'mind'
p2929
I84
sS'mine'
p2930
I92
sS'anybody'
p2931
I96
sS'rapper)'
p2932
I96
sS'seen'
p2933
I88
sS'seem'
p2934
I95
sS'sounding'
p2935
I92
sS'seek'
p2936
I93
sS'tells'
p2937
I96
sS'it\xe2\x80\x9d'
p2938
I96
sS'afar.\xe2\x80\x9d'
p2939
I96
sS'do"'
p2940
I96
sS'chest'
p2941
I96
sS'....fat'
p2942
I96
sS'blessssup'
p2943
I96
sS'mashed'
p2944
I96
sS"soundin'"
p2945
I96
sS'7am'
p2946
I96
sS'don'
p2947
I96
sS'alarm'
p2948
I96
sS'm'
p2949
I96
sS'dog'
p2950
I91
sS'doe'
p2951
I96
sS'definitely'
p2952
I93
sS'dos'
p2953
I96
sS'boondock'
p2954
I95
sS'-oshit-oshit-oshit'
p2955
I96
sS'annoyed'
p2956
I96
sS'doves'
p2957
I96
sS'lyrics'
p2958
I95
sS'ringtones'
p2959
I96
sS'ending'
p2960
I96
sS'spirit.(acts1)'
p2961
I96
sS'probs'
p2962
I96
sS'..this'
p2963
I96
sS'sugar'
p2964
I95
sS'stoners.......smell'
p2965
I96
sS'folks'
p2966
I96
sS'folder'
p2967
I95
sS'wearing'
p2968
I95
sS'monica'
p2969
I95
sS'stop'
p2970
I82
sS'...just'
p2971
I96
sS'auteaerosteak'
p2972
I96
sS'....need'
p2973
I96
sS".......what's"
p2974
I96
sS'bag'
p2975
I91
sS'bad'
p2976
I78
sS'bae'
p2977
I95
sS'seeks'
p2978
I96
sS'ban'
p2979
I96
sS'froffin'
p2980
I96
sS'-cci'
p2981
I96
sS'decides'
p2982
I96
sS'07:35:03.0,34.20687917,-118.39591392,1224.10,should'
p2983
I96
sS'decided'
p2984
I96
sS'subject'
p2985
I95
sS'brazil'
p2986
I96
sS'said'
p2987
I79
sS'...and'
p2988
I91
sS'lazy'
p2989
I96
sS'omg'
p2990
I76
sS'omj'
p2991
I96
sS'ignorance'
p2992
I95
sS'champions"'
p2993
I96
sS'cashville'
p2994
I96
sS'modeling'
p2995
I96
sS'jimmy-timmy'
p2996
I96
sS'uncertainty'
p2997
I96
sS'against'
p2998
I94
sS'cartilage'
p2999
I96
sS'uni'
p3000
I96
sS'fnl'
p3001
I96
sS'84...zt\xc2\xa3p'
p3002
I96
sS'guaranteed'
p3003
I96
sS'peyote'
p3004
I96
sS'coconut'
p3005
I96
sS'durante'
p3006
I96
sS'thiz...old'
p3007
I96
sS'targeting'
p3008
I96
sS'asks'
p3009
I96
sS'three'
p3010
I96
sS'tiny'
p3011
I96
sS'ting'
p3012
I96
sS'ahhhhhhhh'
p3013
I96
sS'm\xc2\xa3.........$!nc\xc2\xa3'
p3014
I96
sS'basic'
p3015
I96
sS'lovely'
p3016
I96
sS'threw'
p3017
I94
sS'website'
p3018
I96
sS'bethke'
p3019
I96
sS'deeper'
p3020
I96
sS'mce'
p3021
I96
sS'sooooo'
p3022
I96
sS'soooon'
p3023
I96
sS'gracias'
p3024
I96
sS'tang'
p3025
I96
sS'z!||!\xe2\x97\x8bn'
p3026
I96
sS'say'
p3027
I82
sS'ugly'
p3028
I93
sS'near'
p3029
I96
sS'neat'
p3030
I96
sS'....can'
p3031
I96
sS'chilling'
p3032
I96
sS'iz'
p3033
I93
sS'mexico'
p3034
I93
sS'is'
p3035
I6
sS'sushi'
p3036
I95
sS'it'
p3037
I11
sS'shame'
p3038
I95
sS'cant'
p3039
I95
sS'im'
p3040
I80
sS'speedying'
p3041
I96
sS'ia'
p3042
I96
sS'motivating'
p3043
I96
sS'seattle'
p3044
I94
sS'!!!$ucker'
p3045
I96
sS'id'
p3046
I96
sS'if'
p3047
I32
sS'grown'
p3048
I96
sS'lololol,91605\n504437064482304000,bb_asher,2014-08-27'
p3049
I96
sS'make'
p3050
I55
sS'hahah'
p3051
I95
sS'unfortunate'
p3052
I96
sS'80s'
p3053
I96
sS'hahaa'
p3054
I94
sS'meets'
p3055
I96
sS'ephesians'
p3056
I96
sS'garlic'
p3057
I96
sS'kim'
p3058
I95
sS'opportunity'
p3059
I96
sS"he'll"
p3060
I96
sS'thoughts'
p3061
I96
sS'kid'
p3062
I93
sS'butter'
p3063
I95
sS'son...california=$'
p3064
I96
sS'smokes'
p3065
I96
sS'80%'
p3066
I96
sS'vegas....i'
p3067
I96
sS'flops'
p3068
I96
sS'yours'
p3069
I96
sS'left'
p3070
I91
sS'just'
p3071
I19
sS'yea'
p3072
I84
sS'sporting'
p3073
I96
sS'yee'
p3074
I96
sS'human'
p3075
I91
sS'facts'
p3076
I96
sS'yep'
p3077
I96
sS'yes'
p3078
I80
sS'yet'
p3079
I92
sS'character'
p3080
I95
sS'save'
p3081
I94
sS'opt'
p3082
I96
sS'ops'
p3083
I96
sS'vanessa'
p3084
I94
sS'pilonidal'
p3085
I96
sS'background'
p3086
I95
sS'dreams'
p3087
I96
sS'performing'
p3088
I96
sS'unnecessary'
p3089
I96
sS'fat\xe2\x80\x9d'
p3090
I96
sS'notorious'
p3091
I96
sS'"that\'s'
p3092
I96
sS'dead'
p3093
I92
sS'revel'
p3094
I96
sS'dear'
p3095
I96
sS'pain'
p3096
I95
sS'fecken'
p3097
I96
sS'a\xe2\x80\xa6'
p3098
I96
sS'arguing'
p3099
I96
sS'year...we'
p3100
I96
sS'burn'
p3101
I96
sS"a'that"
p3102
I96
sS'promos'
p3103
I94
sS'ee-ee'
p3104
I96
sS'keeper'
p3105
I96
sS'super'
p3106
I84
sS"'next"
p3107
I96
sS'yelling'
p3108
I95
sS'barbarians'
p3109
I96
sS'afternoon'
p3110
I94
sS'nerve'
p3111
I96
sS'whats'
p3112
I94
sS'selfie'
p3113
I96
sS'rom.4nlt'
p3114
I96
sS'down'
p3115
I60
sS'lies'
p3116
I96
sS'narration'
p3117
I96
sS'amazingly'
p3118
I96
sS'flying'
p3119
I96
sS'form'
p3120
I93
sS'7:30pm.\xe2\x80\x9d'
p3121
I96
sS'swisha'
p3122
I96
sS'(compared'
p3123
I96
sS'fort'
p3124
I94
sS'....$500000'
p3125
I96
sS'.....looking'
p3126
I95
sS'thursjuly24'
p3127
I96
sS'daddy'
p3128
I95
sS'delete'
p3129
I94
sS'sticks'
p3130
I96
sS'classic'
p3131
I91
sS'toss'
p3132
I96
sS'sticky'
p3133
I96
sS'madtv'
p3134
I96
sS'red\xe2\x84\xa2'
p3135
I96
sS'fashioned'
p3136
I96
sS'awhile'
p3137
I96
sS'shiv'
p3138
I96
sS'shit'
p3139
I51
sS'holla'
p3140
I96
sS'"101'
p3141
I96
sS'warehouse'
p3142
I94
sS'savage'
p3143
I96
sS'felt'
p3144
I93
sS'diet'
p3145
I96
sS'fell'
p3146
I96
sS'luuuulz'
p3147
I96
sS'miracle!\xe2\x80\x9d'
p3148
I96
sS'weekend'
p3149
I92
sS'died'
p3150
I93
sS'jones'
p3151
I95
sS'happening'
p3152
I96
sS'potato'
p3153
I96
sS'jacket'
p3154
I96
sS'teeth'
p3155
I96
sS'"use'
p3156
I96
sS'veggiemite'
p3157
I96
sS'..being'
p3158
I96
sS'skip'
p3159
I96
sS'souls'
p3160
I95
sS'milf'
p3161
I96
sS'teen......very'
p3162
I96
sS'mile'
p3163
I96
sS'"werking"'
p3164
I96
sS'skin'
p3165
I94
sS'milk'
p3166
I95
sS'anticipation'
p3167
I96
sS'praises'
p3168
I95
sS'show'
p3169
I80
sS'father'
p3170
I88
sS'disgusting'
p3171
I95
sS'0'
p3172
I96
sS'finally'
p3173
I90
sS'innit'
p3174
I96
sS'....saving'
p3175
I96
sS'string'
p3176
I96
sS'tacos'
p3177
I94
sS'uneventful'
p3178
I96
sS'ma'
p3179
I93
sS'did'
p3180
I70
sS'die'
p3181
I93
sS'dig'
p3182
I82
sS'accidentally'
p3183
I96
sS'travels'
p3184
I95
sS'bedside'
p3185
I96
sS'diy'
p3186
I96
sS'dip'
p3187
I96
sS'round'
p3188
I96
sS'dis'
p3189
I95
sS'shave'
p3190
I96
sS'pants'
p3191
I96
sS'talked'
p3192
I96
sS'sour/sweet/tangy'
p3193
I96
sS'durkin'
p3194
I96
sS'eating'
p3195
I89
sS'adds'
p3196
I96
sS'fuuuuuuuck'
p3197
I96
sS'french'
p3198
I96
sS'02:50:33.0,34.20674667,-118.39608441,1224.10,school'
p3199
I96
sS'.....playing'
p3200
I96
sS'earthquake'
p3201
I96
sS'wait'
p3202
I77
sS'box'
p3203
I96
sS'boy'
p3204
I91
sS'bixie'
p3205
I96
sS'bot'
p3206
I96
sS'boi'
p3207
I96
sS'here"'
p3208
I96
sS'divinci'
p3209
I96
sS'teenage'
p3210
I96
sS'useful'
p3211
I95
sS'everybody'
p3212
I96
sS'franco'
p3213
I96
sS'dude'
p3214
I81
sS'"mo\'hotshit"'
p3215
I96
sS'france'
p3216
I96
sS'ahhh'
p3217
I96
sS'thru'
p3218
I94
sS'ahha'
p3219
I96
sS'master...wezt'
p3220
I96
sS'downtown'
p3221
I95
sS'olive'
p3222
I94
sS'fly'
p3223
I93
sS'pageant'
p3224
I96
sS'alex\xe2\x80\x9cstay'
p3225
I96
sS'soul'
p3226
I91
sS'money..same'
p3227
I96
sS'isn\xe2\x80\x99t'
p3228
I96
sS'making'
p3229
I85
sS'nearest'
p3230
I96
sS'crazy'
p3231
I81
sS'kenneth'
p3232
I94
sS'fuck'
p3233
I53
sS'agent'
p3234
I96
sS'sample'
p3235
I96
sS'pink'
p3236
I94
sS'bassline'
p3237
I96
sS'sunday'
p3238
I93
sS'pure'
p3239
I96
sS'hard..for'
p3240
I96
sS'pint'
p3241
I96
sS'map'
p3242
I96
sS'staying'
p3243
I96
sS'may'
p3244
I89
sS'snl'
p3245
I96
sS'mac'
p3246
I95
sS'mad'
p3247
I93
sS'guys'
p3248
I64
sS'grow'
p3249
I95
sS'man'
p3250
I29
sS'neck'
p3251
I96
sS'maybe'
p3252
I81
sS'q'
p3253
I95
sS'switch'
p3254
I96
sS'jail'
p3255
I96
sS'silence'
p3256
I96
sS'basket'
p3257
I96
sS'tall'
p3258
I95
sS'talk'
p3259
I88
sS'cute'
p3260
I90
sS'shoes'
p3261
I93
sS'disclosure'
p3262
I96
sS'shake'
p3263
I96
sS'marshmallows'
p3264
I95
sS'diablo"'
p3265
I96
sS'group'
p3266
I91
sS'thank'
p3267
I84
sS'tweets'
p3268
I95
sS'mail'
p3269
I94
sS'main'
p3270
I92
sS'views'
p3271
I96
sS'bein'
p3272
I96
sS'killer'
p3273
I96
sS'sooner'
p3274
I96
sS'lunch'
p3275
I90
sS'bullshit'
p3276
I93
sS'teller'
p3277
I95
sS'rock'
p3278
I89
sS'zmiling'
p3279
I95
sS'girl'
p3280
I85
sS'canada'
p3281
I96
sS'living'
p3282
I94
sS'jackson'
p3283
I96
sS'....with'
p3284
I96
sS'stupid'
p3285
I93
sS'emerged'
p3286
I96
sS'dutch'
p3287
I93
sS'correct'
p3288
I96
sS'.....complaining'
p3289
I96
sS'goth'
p3290
I96
sS'.....waking'
p3291
I96
sS'spiel'
p3292
I96
sS'california'
p3293
I89
sS'cavalera'
p3294
I96
sS'amigos'
p3295
I95
sS'keith'
p3296
I96
sS'wppi)'
p3297
I95
sS'advance'
p3298
I96
sS'jakes'
p3299
I96
sS'thing'
p3300
I74
sS'think'
p3301
I65
sS'waited'
p3302
I96
sS'first'
p3303
I73
sS'cheese'
p3304
I93
sS'dwelling'
p3305
I96
sS'thatorganization'
p3306
I96
sS'crib'
p3307
I96
sS'americans'
p3308
I95
sS'long'
p3309
I78
sS'salsa'
p3310
I95
sS'carry'
p3311
I96
sS'damage\xe2\x9a\xa1\xef\xb8\x8f'
p3312
I96
sS'sounds'
p3313
I76
sS'little'
p3314
I88
sS'-decimort'
p3315
I96
sS'slept'
p3316
I94
sS'anyone'
p3317
I89
sS'mermaid'
p3318
I96
sS"we're"
p3319
I94
sS'meme'
p3320
I96
sS'eyes'
p3321
I88
sS'butt'
p3322
I91
sS"'team'"
p3323
I96
sS"here's"
p3324
I95
sS'11'
p3325
I94
sS'10'
p3326
I93
sS'13'
p3327
I95
sS'15'
p3328
I96
sS'17'
p3329
I95
sS'mannnn'
p3330
I96
sS'18'
p3331
I96
sS'gotta'
p3332
I90
sS'were'
p3333
I82
sS'20s'
p3334
I96
sS'marijuana'
p3335
I96
sS'voices'
p3336
I96
sS'dash'
p3337
I96
sS'20k'
p3338
I96
sS'kevin'
p3339
I96
sS'speakers'
p3340
I95
sS'isolate'
p3341
I96
sS'funniest'
p3342
I96
sS'channel'
p3343
I96
sS'205'
p3344
I96
sS'normal'
p3345
I96
sS'track'
p3346
I77
sS'paid'
p3347
I94
sS'woooo'
p3348
I95
sS"....you're"
p3349
I96
sS'napkin'
p3350
I96
sS'voodoo'
p3351
I96
sS'damnn'
p3352
I96
sS'shop'
p3353
I96
sS'shot'
p3354
I96
sS'..its'
p3355
I95
sS'09:13:21.0,34.20691807,-118.39602908,1224.10,cold'
p3356
I96
sS'estoy'
p3357
I96
sS'therapist'
p3358
I96
sS'shoe'
p3359
I95
sS'4th......make'
p3360
I96
sS'corner'
p3361
I94
sS'\xe2\x9a\xa1\xef\xb8\x8fheavy'
p3362
I96
sS'data'
p3363
I95
sS"father's"
p3364
I93
sS'dick'
p3365
I92
sS'behind'
p3366
I94
sS'either'
p3367
I95
sS'black'
p3368
I87
sS'enthusiasm'
p3369
I96
sS'get'
p3370
I29
sS'contracts'
p3371
I96
sS'unforgiveness.\xe2\x80\x9djust'
p3372
I96
sS'morning'
p3373
I83
sS'miles'
p3374
I95
sS'miley'
p3375
I96
sS'accounts"'
p3376
I96
sS'tux'
p3377
I96
sS'declared'
p3378
I96
sS'lyft'
p3379
I96
sS'sear'
p3380
I96
sS'seat'
p3381
I96
sS'cologne'
p3382
I95
sS'sean'
p3383
I96
sS'wonder'
p3384
I92
sS'gratifying'
p3385
I96
sS'boundaries'
p3386
I96
sS'enough'
p3387
I92
sS'chewy'
p3388
I96
sS'gaga'
p3389
I95
sS'radiated'
p3390
I96
sS'diamonds'
p3391
I96
sS'reading'
p3392
I96
sS'across'
p3393
I96
sS'psychedelics'
p3394
I96
sS'cocktail"'
p3395
I96
sS'august'
p3396
I96
sS'kool'
p3397
I95
sS'killing'
p3398
I88
sS'jk'
p3399
I96
sS'dates'
p3400
I95
sS'fried'
p3401
I90
sS'according'
p3402
I95
sS'blasts'
p3403
I96
sS'tour'
p3404
I94
sS'...$on'
p3405
I96
sS'guardians'
p3406
I96
sS'whaaaaaat'
p3407
I95
sS'gmail...and'
p3408
I96
sS'considering'
p3409
I96
sS'ucla'
p3410
I96
sS'judging'
p3411
I96
sS'qu\xc3\xa9'
p3412
I95
sS'waka'
p3413
I96
sS'mans'
p3414
I96
sS'wake'
p3415
I91
sS'those'
p3416
I77
sS'sound'
p3417
I87
sS'ratchet'
p3418
I95
sS'x-files'
p3419
I96
sS'cancelled'
p3420
I96
sS'hmmmm'
p3421
I96
sS'awakened'
p3422
I95
sS'ulysses'
p3423
I96
sS'coffee'
p3424
I95
sS'sleeping'
p3425
I96
sS"......you're"
p3426
I96
sS'everyday'
p3427
I96
sS'"summer'
p3428
I96
sS'different'
p3429
I90
sS'pat'
p3430
I96
sS'doctor'
p3431
I95
sS'pay'
p3432
I89
sS'woodland'
p3433
I94
sS'same'
p3434
I74
sS'epmd'
p3435
I95
sS'1900s'
p3436
I96
sS'extended'
p3437
I96
sS'gargoile'
p3438
I96
sS'running'
p3439
I95
sS'totally'
p3440
I90
sS"herr's"
p3441
I96
sS'secretely'
p3442
I96
sS'bang'
p3443
I95
sS'bottle'
p3444
I94
sS'...very'
p3445
I95
sS'amazed'
p3446
I96
sS'gangs'
p3447
I95
sS'money'
p3448
I68
sS'imprint'
p3449
I96
sS"mo'"
p3450
I96
sS'ahhhh'
p3451
I96
sS'4'
p3452
I84
sS'pegs'
p3453
I96
sS'pill'
p3454
I95
sS'\xe2\x98\x9d\xef\xb8\x8ftonight'
p3455
I96
sS'mop'
p3456
I96
sS'simmons'
p3457
I96
sS'mon'
p3458
I96
sS'mom'
p3459
I88
sS'disappointed'
p3460
I96
sS'"2"'
p3461
I96
sS'facing'
p3462
I96
sS'chamber'
p3463
I96
sS'miraculous'
p3464
I96
sS'laughing'
p3465
I95
sS'teaesto'
p3466
I96
sS'ascend'
p3467
I96
sS'glorioso'
p3468
I96
sS'cabs'
p3469
I96
sS'matching'
p3470
I95
sS'gross'
p3471
I91
sS'confirm'
p3472
I96
sS'knife'
p3473
I96
sS'.those'
p3474
I96
sS'plzzz'
p3475
I96
sS'broken'
p3476
I94
sS'\xe2\x9d\x93what'
p3477
I96
sS'crazyyyyy!\xe2\x80\x9dthnx'
p3478
I96
sS'island'
p3479
I96
sS'night!\xe2\x80\x9d'
p3480
I96
sS'mixes'
p3481
I96
sS'out"'
p3482
I95
sS'toothpaste'
p3483
I96
sS'ep/album'
p3484
I96
sS'lands'
p3485
I96
sS'blessed'
p3486
I94
sS'morning"'
p3487
I96
sS'inbox'
p3488
I96
sS'strip'
p3489
I96
sS'skillet'
p3490
I96
sS'1:27'
p3491
I96
sS'distracted'
p3492
I96
sS'redbull'
p3493
I96
sS'aoki'
p3494
I96
sS'mornings'
p3495
I95
sS'strikes'
p3496
I96
sS'cheaper.....$'
p3497
I96
sS'...tax'
p3498
I96
sS'romantic'
p3499
I96
sS"wasn't"
p3500
I91
sS'.......looks'
p3501
I96
sS'vhp'
p3502
I96
sS'suitcase'
p3503
I96
sS'playlists'
p3504
I96
sS'videos'
p3505
I96
sS'citation'
p3506
I96
sS'deep'
p3507
I86
sS'fellow'
p3508
I96
sS'boa)'
p3509
I96
sS'ztreets'
p3510
I96
sS'girlfriend'
p3511
I96
sS'lifetime'
p3512
I96
sS'film'
p3513
I93
sS'fill'
p3514
I96
sS'again'
p3515
I83
sS'allentown'
p3516
I96
sS'floored'
p3517
I96
sS'twerk'
p3518
I96
sS'tailbone'
p3519
I95
sS'xanax'
p3520
I96
sS'students'
p3521
I96
sS"phony's"
p3522
I96
sS'keepit'
p3523
I96
sS'aster'
p3524
I96
sS'important'
p3525
I95
sS'chris'
p3526
I96
sS'video)'
p3527
I95
sS'ojos"'
p3528
I96
sS"deen's"
p3529
I96
sS"life's"
p3530
I96
sS'flyin'
p3531
I96
sS'u'
p3532
I31
sS'alright'
p3533
I95
sS'..the'
p3534
I96
sS'shazam'
p3535
I83
sS'forget'
p3536
I94
sS'dollar'
p3537
I95
sS'sunk'
p3538
I96
sS'begin.nice'
p3539
I96
sS'dollah'
p3540
I95
sS'talks'
p3541
I95
sS'children'
p3542
I95
sS'*cowfawn'
p3543
I96
sS'enjoying'
p3544
I94
sS'.by'
p3545
I96
sS'sitting'
p3546
I96
sS'billie'
p3547
I96
sS'scout'
p3548
I96
sS'....i'
p3549
I92
sS'fall'
p3550
I92
sS'....b'
p3551
I96
sS'trippin'
p3552
I96
sS'washing'
p3553
I96
sS'19'
p3554
I96
sS'clutches'
p3555
I96
sS'further'
p3556
I96
sS'....researching'
p3557
I96
sS'90s'
p3558
I96
sS'stood'
p3559
I96
sS'opted'
p3560
I96
sS'version-explicit)'
p3561
I96
sS'public'
p3562
I94
sS'tattoos'
p3563
I96
sS'wu-tang'
p3564
I96
sS'maincoursemedia'
p3565
I96
sS'story...motherfucker....want'
p3566
I96
sS'search'
p3567
I96
sS'bible'
p3568
I96
sS'airport'
p3569
I96
sS'tiffany'
p3570
I96
sS'mentions'
p3571
I95
sS"sister's"
p3572
I96
sS'eye'
p3573
I95
sS'score'
p3574
I95
sS'levine'
p3575
I94
sS'texting'
p3576
I96
sS'two'
p3577
I95
sS'splash'
p3578
I95
sS'loveys'
p3579
I96
sS'eyy'
p3580
I96
sS',91605\n506954346978758657,bb_asher,2014-09-02'
p3581
I96
sS'landed'
p3582
I96
sS"ain't"
p3583
I86
sS'walk/70%'
p3584
I96
sS'town'
p3585
I95
sS'sucky'
p3586
I96
sS'recall'
p3587
I96
sS'sucks'
p3588
I92
sS'dew'
p3589
I96
sS'remain'
p3590
I96
sS'dem'
p3591
I93
sS'marble'
p3592
I96
sS'def'
p3593
I96
sS'shari'
p3594
I96
sS'compare'
p3595
I96
sS'amazing!,91605\n235139419382898688,ilcian,2012-08-13'
p3596
I96
sS'*dies'
p3597
I96
sS'share'
p3598
I93
sS'lolol'
p3599
I95
sS'sharp'
p3600
I96
sS'ponchikanoc'
p3601
I96
sS'needs'
p3602
I89
sS'obnoxious'
p3603
I96
sS'awkward'
p3604
I96
sS'needa'
p3605
I96
sS'staaaaahhhhhhpppppp'
p3606
I96
sS'stir'
p3607
I96
sS'nlt)'
p3608
I96
sS'charms'
p3609
I95
sS'advice'
p3610
I95
sS'coming'
p3611
I70
sS"that'd"
p3612
I96
sS'tweeting'
p3613
I93
sS'waaayyyyyyy,91605\n506966294348849152,bb_asher,2014-09-03'
p3614
I96
sS'eats'
p3615
I96
sS'....she'
p3616
I96
sS'playing'
p3617
I82
sS"that's"
p3618
I60
sS'call.\xe2\x80\x9d'
p3619
I96
sS'..thats'
p3620
I96
sS'through'
p3621
I89
sS'guuurrrlll'
p3622
I96
sS'filters'
p3623
I95
sS'24'
p3624
I96
sS'25'
p3625
I96
sS'20'
p3626
I93
sS'21'
p3627
I96
sS'thnx'
p3628
I82
sS'handheld'
p3629
I96
sS'late'
p3630
I89
sS'mollyworld'
p3631
I95
sS'when?-'
p3632
I96
sS'someone'
p3633
I82
sS'disrespectful'
p3634
I96
sS'seeking'
p3635
I96
sS'detour'
p3636
I96
sS'ralphs'
p3637
I96
sS'humans'
p3638
I93
sS'compound'
p3639
I96
sS'07:56:05.0,34.20691358,-118.39588863,1224.10,trynna'
p3640
I96
sS'mystery'
p3641
I94
sS'easily'
p3642
I96
sS'drake'
p3643
I95
sS'asher'
p3644
I96
sS'"idiot"'
p3645
I96
sS'sterling'
p3646
I95
sS'everyone'
p3647
I82
sS'mental'
p3648
I94
sS'house'
p3649
I82
sS'energy'
p3650
I96
sS'hard'
p3651
I84
sS'idea'
p3652
I88
sS'oil'
p3653
I94
sS'fist'
p3654
I96
sS'thick'
p3655
I96
sS'mustered'
p3656
I96
sS'"go'
p3657
I95
sS'acting'
p3658
I94
sS'humble'
p3659
I96
sS'circumstance'
p3660
I96
sS'motherfucker'
p3661
I95
sS'mmm'
p3662
I96
sS'giveaway'
p3663
I96
sS'members'
p3664
I95
sS'...telling'
p3665
I96
sS'zune'
p3666
I96
sS'$250'
p3667
I96
sS'dont'
p3668
I95
sS'done'
p3669
I88
sS'killin'
p3670
I96
sS'sates'
p3671
I96
sS'5th'
p3672
I96
sS'revive'
p3673
I96
sS'least'
p3674
I93
sS'pains'
p3675
I96
sS'"wtf'
p3676
I95
sS'mama'
p3677
I95
sS'188'
p3678
I96
sS'boo-yaa'
p3679
I96
sS'bumble'
p3680
I96
sS'para'
p3681
I96
sS'jog)'
p3682
I96
sS'dentist'
p3683
I96
sS'part'
p3684
I88
sS'believe'
p3685
I87
sS'mclaughlin'
p3686
I96
sS'b'
p3687
I87
sS'gotten'
p3688
I94
sS'youth'
p3689
I96
sS'voltron'
p3690
I96
sS'supposed'
p3691
I94
sS'...long'
p3692
I96
sS'zeggie'
p3693
I96
sS'outta'
p3694
I96
sS't.r.i.b.e'
p3695
I96
sS'talkshow'
p3696
I96
sS'ages'
p3697
I96
sS'download'
p3698
I94
sS'orders'
p3699
I96
sS'mountain'
p3700
I95
sS'blanco'
p3701
I96
sS'twitters'
p3702
I96
sS'...wants'
p3703
I96
sS'build'
p3704
I96
sS'folders'
p3705
I96
sS"li'l"
p3706
I96
sS'chart'
p3707
I96
sS'most'
p3708
I81
sS'charm'
p3709
I95
sS'plays'
p3710
I96
sS'-john'
p3711
I94
sS'extremely'
p3712
I96
sS'kk'
p3713
I96
sS'crnkn'
p3714
I96
sS'reflections'
p3715
I96
sS'....plus'
p3716
I96
sS'...loves'
p3717
I96
sS'carne'
p3718
I96
sS'businesses'
p3719
I95
sS'fine'
p3720
I92
sS'find'
p3721
I88
sS'nervous'
p3722
I96
sS'idiots'
p3723
I95
sS'8'
p3724
I92
sS'cysts'
p3725
I96
sS'cheaper'
p3726
I96
sS'courage'
p3727
I96
sS'batter'
p3728
I95
sS'krimpets'
p3729
I96
sS'blogging'
p3730
I96
sS'mustachemondaus\xe2\x80\x9d'
p3731
I96
sS'remove'
p3732
I96
sS'common'
p3733
I96
sS'gospel'
p3734
I96
sS'restaurants'
p3735
I96
sS'kirbing'
p3736
I96
sS'vine'
p3737
I93
sS'$100000'
p3738
I96
sS'lion'
p3739
I95
sS'leslie'
p3740
I96
sS'forthcoming'
p3741
I96
sS'retweet'
p3742
I96
sS'halved'
p3743
I96
sS'marinate'
p3744
I96
sS'internship...read'
p3745
I96
sS'positivity'
p3746
I96
sS'please'
p3747
I86
sS'fans'
p3748
I96
sS'envelopes'
p3749
I95
sS'pushing'
p3750
I96
sS'bombaclat'
p3751
I96
sS'pepsi'
p3752
I95
sS'drawings'
p3753
I96
sS'pissed'
p3754
I94
sS'floats'
p3755
I96
sS'reverse'
p3756
I96
sS'restaurant'
p3757
I95
sS'annual'
p3758
I96
sS'calculationsin'
p3759
I96
sS'*shot'
p3760
I96
sS'danced'
p3761
I96
sS'point'
p3762
I96
sS'aplace'
p3763
I96
sS'ribbit'
p3764
I96
sS'fashion'
p3765
I96
sS'esophagus'
p3766
I96
sS'off...that'
p3767
I96
sS'expensive'
p3768
I96
sS'patiently'
p3769
I96
sS'create'
p3770
I96
sS'tuffy'
p3771
I96
sS'secret'
p3772
I94
sS'dropping'
p3773
I96
sS'...going'
p3774
I96
sS'meeting'
p3775
I92
sS'$50.....$20'
p3776
I96
sS'gay'
p3777
I92
sS'understand'
p3778
I96
sS'solid'
p3779
I94
sS'bill'
p3780
I95
sS'fun'
p3781
I84
sS"...what's"
p3782
I96
sS'2night'
p3783
I95
sS'violently'
p3784
I96
sS'southpole'
p3785
I96
sS'facade'
p3786
I96
sS'italy'
p3787
I96
sS'eww'
p3788
I96
sS'assignment'
p3789
I96
sS'yesterday'
p3790
I94
sS'moment'
p3791
I93
sS'become."'
p3792
I96
sS'purpose'
p3793
I96
sS'willingto'
p3794
I96
sS'....its'
p3795
I95
sS'arular'
p3796
I96
sS'f\xc2\xa3w'
p3797
I96
sS'spent'
p3798
I95
sS'morrow'
p3799
I95
sS'y'
p3800
I96
sS'spend'
p3801
I95
sS'5....rip'
p3802
I96
sS'ceo'
p3803
I96
sS'boutta'
p3804
I96
sS'pleaaaase'
p3805
I96
sS'gona'
p3806
I96
sS'letting'
p3807
I96
sS'cut'
p3808
I89
sS'cup'
p3809
I92
sS'alternate'
p3810
I96
sS'cuz'
p3811
I94
sS',91605\n504434267279998976,bb_asher,2014-08-27'
p3812
I96
sS':)that'
p3813
I96
sS'*faints*'
p3814
I96
sS'snap'
p3815
I94
sS'easter'
p3816
I94
sS'excited'
p3817
I86
sS'hater'
p3818
I95
sS'805....\xe2\x98\x85\xe2\x98\x85\xe2\x98\x85\xe2\x98\x85\xe2\x98\x85.....thinking'
p3819
I96
sS'bim'
p3820
I95
sS'big'
p3821
I62
sS',91605\n504447713534951426,bb_asher,2014-08-27'
p3822
I96
sS'matters'
p3823
I95
sS'bit'
p3824
I91
sS'/puke'
p3825
I96
sS'...to'
p3826
I90
sS'mix.....are'
p3827
I96
sS'often'
p3828
I95
sS'absolutely'
p3829
I94
sS'magnificent'
p3830
I96
sS'back'
p3831
I60
sS'candle'
p3832
I95
sS'pet'
p3833
I95
sS'affects'
p3834
I96
sS'boring.(tbh'
p3835
I96
sS'pee'
p3836
I95
sS'epic'
p3837
I96
sS'pea'
p3838
I96
sS'nose'
p3839
I94
sS'.....just'
p3840
I96
sS'300'
p3841
I96
sS'over...lets'
p3842
I96
sS'delish'
p3843
I96
sS'hahahaa'
p3844
I96
sS'hahahah'
p3845
I94
sS'ayye'
p3846
I95
sS'guetta'
p3847
I96
sS'invading'
p3848
I96
sS'clack'
p3849
I96
sS'ayyy'
p3850
I96
sS'delusional'
p3851
I96
sS'"en'
p3852
I96
sS'....please'
p3853
I96
sS'infected'
p3854
I96
sS'forward'
p3855
I92
sS'bored'
p3856
I96
sS'pimpin'
p3857
I96
sS'immigration'
p3858
I96
sS'boys'
p3859
I84
sS'yesssss'
p3860
I96
sS'siqq'
p3861
I96
sS'boyz'
p3862
I96
sS'\xe2\x99\xa5'
p3863
I96
sS'planet'
p3864
I96
sS'groove'
p3865
I96
sS'constant'
p3866
I96
sS'moleskin'
p3867
I96
sS'flow'
p3868
I95
sS'"sell'
p3869
I96
sS'single'
p3870
I93
sS'diving'
p3871
I96
sS'excuses'
p3872
I95
sS'kirb'
p3873
I96
sS'rarest'
p3874
I96
sS'papi'
p3875
I94
sS'$10000'
p3876
I94
sS'prepared'
p3877
I96
sS'desert'
p3878
I95
sS'uhhhhh'
p3879
I96
sS'today\xe2\x80\x99s'
p3880
I96
sS'2008'
p3881
I96
sS'enrichment'
p3882
I96
sS'groceries'
p3883
I93
sS'..to'
p3884
I94
sS'peanut'
p3885
I96
sS'bruhh'
p3886
I96
sS'blaze'
p3887
I96
sS'labels'
p3888
I96
sS'dessert'
p3889
I96
sS'putting'
p3890
I96
sS'entire'
p3891
I93
sS'..makes'
p3892
I96
sS'min'
p3893
I93
sS'joey'
p3894
I96
sS'uncomfortable'
p3895
I95
sS'confused.\xe2\x80\x9d'
p3896
I96
sS'....location'
p3897
I96
sS'-rebecca'
p3898
I96
sS'chicago'
p3899
I96
sS'giving'
p3900
I94
sS'anthem'
p3901
I93
sS'exercise'
p3902
I96
sS'nacho'
p3903
I96
sS'mix)2'
p3904
I96
sS'packing'
p3905
I95
sS'doo-dads'
p3906
I96
sS'others'
p3907
I90
sS'sing'
p3908
I94
sS'otherz'
p3909
I96
sS'phrase]."'
p3910
I96
sS'talent'
p3911
I95
sS'32'
p3912
I96
sS'30'
p3913
I94
sS'36'
p3914
I96
sS'honor'
p3915
I96
sS'composed'
p3916
I96
sS'named'
p3917
I93
sS'blizzard'
p3918
I95
sS'crashing'
p3919
I96
sS'private'
p3920
I96
sS'selboba'
p3921
I96
sS'festivals'
p3922
I96
sS'cha'
p3923
I92
sS'[adj.]'
p3924
I96
sS'chp'
p3925
I95
sS'oils'
p3926
I96
sS'upcoming'
p3927
I93
sS'guests\xe2\x80\xa2visuals'
p3928
I96
sS'train'
p3929
I95
sS'sinden'
p3930
I96
sS'......drug'
p3931
I96
sS'account'
p3932
I94
sS'oil"'
p3933
I96
sS'f'
p3934
I95
sS'stolty'
p3935
I96
sS'obvious'
p3936
I95
sS'praise'
p3937
I95
sS'crocker'
p3938
I96
sS'6:00p'
p3939
I96
sS'effectively'
p3940
I96
sS'cappuccino'
p3941
I96
sS'fulfillment'
p3942
I96
sS'expandable'
p3943
I96
sS'"bed'
p3944
I96
sS'lamb'
p3945
I96
sS'unbeweavable'
p3946
I96
sS'dinners'
p3947
I96
sS'trazadone'
p3948
I96
sS'rad\xe2\x80\x9d'
p3949
I96
sS'winners'
p3950
I96
sS'cage!\xe2\x80\x9d'
p3951
I96
sS'\xe2\xad\x90\xef\xb8\x8f\xe2\x9c\x94\xef\xb8\x8f'
p3952
I96
sS'nips'
p3953
I96
sS'....so'
p3954
I96
sS'collection'
p3955
I96
sS'exit....on'
p3956
I96
sS'frat'
p3957
I96
sS'hater\xe2\x9c\x8c\xef\xb8\x8f'
p3958
I96
sS'9am'
p3959
I96
sS'addiction'
p3960
I96
sS'"girl"'
p3961
I96
sS'mustache'
p3962
I95
sS'6:00pm'
p3963
I96
sS'...man'
p3964
I96
sS'wedding'
p3965
I96
sS'repentant'
p3966
I96
sS'you...and'
p3967
I96
sS'galaxy'
p3968
I96
sS'bunch'
p3969
I96
sS'la'
p3970
I61
sS'ln'
p3971
I96
sS'lo'
p3972
I95
sS'here!?!"&'
p3973
I96
sS'willing'
p3974
I95
sS"twitter's"
p3975
I96
sS'<'
p3976
I96
sS'ly'
p3977
I96
sS'dad'
p3978
I94
sS'dan'
p3979
I96
sS'dat'
p3980
I94
sS'mention'
p3981
I96
sS'daw'
p3982
I96
sS'day'
p3983
I56
sS'fuck\xe2\x9d\x93'
p3984
I96
sS'day....makes'
p3985
I96
sS'emo'
p3986
I96
sS'warner'
p3987
I96
sS'bisexual-based'
p3988
I96
sS'lentil'
p3989
I96
sS'sexual'
p3990
I96
sS'rep'
p3991
I96
sS'....crime'
p3992
I96
sS'mate'
p3993
I95
sS'stud'
p3994
I96
sS'rem'
p3995
I96
sS'rec'
p3996
I96
sS'autocorrected'
p3997
I96
sS'reg'
p3998
I96
sS'announced'
p3999
I95
sS'funyuns'
p4000
I95
sS'ridah'
p4001
I96
sS'que'
p4002
I95
sS'her'
p4003
I57
sS'horizon\xe2\x80\x9d'
p4004
I96
sS'"young'
p4005
I96
sS'retain'
p4006
I96
sS'retail'
p4007
I96
sS'stuck'
p4008
I96
sS'south'
p4009
I93
sS'rudely'
p4010
I96
sS"jimmy's"
p4011
I92
sS'/swoon'
p4012
I96
sS'hey'
p4013
I90
sS'embarrassed'
p4014
I96
sS'braces'
p4015
I96
sS'excited/scared'
p4016
I96
sS'chased'
p4017
I96
sS'lapd'
p4018
I96
sS'suicide..i'
p4019
I96
sS'loved'
p4020
I95
sS'...is'
p4021
I96
sS'bubble'
p4022
I96
sS'shampoo'
p4023
I96
sS'""crazy'
p4024
I96
sS'loves'
p4025
I95
sS'flashes'
p4026
I96
sS'world,91605\n494047579429023744,bb_asher,2014-07-29'
p4027
I96
sS'comfortable'
p4028
I94
sS'spicy'
p4029
I96
sS'have'
p4030
I25
sS'throat'
p4031
I95
sS'"bend'
p4032
I96
sS'dallas'
p4033
I96
sS'mia'
p4034
I96
sS'mic'
p4035
I96
sS'mid'
p4036
I96
sS'parks'
p4037
I96
sS'mix'
p4038
I86
sS'328'
p4039
I96
sS'savages'
p4040
I96
sS'unless'
p4041
I95
sS'hazel'
p4042
I96
sS'payment'
p4043
I96
sS'time...move'
p4044
I96
sS'beets'
p4045
I96
sS'dawgs'
p4046
I96
sS'tomorrowispaydaytomorrowispaydaytomorrowispayday'
p4047
I96
sS'text'
p4048
I95
sS'charles'
p4049
I96
sS'bathing'
p4050
I96
sS'tearful'
p4051
I96
sS'sweatshirts'
p4052
I96
sS'satan'
p4053
I96
sS'beat'
p4054
I92
sS'coworker'
p4055
I96
sS'bear'
p4056
I96
sS'timing'
p4057
I96
sS'diplo'
p4058
I96
sS'littlest'
p4059
I96
sS'teams'
p4060
I96
sS'mercedes'
p4061
I96
sS'day......for'
p4062
I96
sS'enhances'
p4063
I96
sS'hollywoooooooooooood'
p4064
I95
sS'exists'
p4065
I96
sS'ulmer."'
p4066
I95
sS'..death'
p4067
I96
sS'01:21:46.0,34.20691878,-118.39598507,1224.10,wcw'
p4068
I96
sS'attempting'
p4069
I96
sS'pattern'
p4070
I96
sS'colombian'
p4071
I96
sS'dirty'
p4072
I95
sS'spotify'
p4073
I94
sS'time\xe2\x80\x9d'
p4074
I96
sS'armenia'
p4075
I96
sS'selena'
p4076
I96
sS'legit'
p4077
I95
sS'commenting'
p4078
I95
sS'freely'
p4079
I96
sS'taking'
p4080
I92
sS'trips'
p4081
I96
sS'fulfilled'
p4082
I96
sS'swallow'
p4083
I96
sS'glorious'
p4084
I96
sS'otherwise'
p4085
I95
sS'comment'
p4086
I96
sS'compromising'
p4087
I96
sS'laugh'
p4088
I96
sS"02:44:32.0,34.20673996,-118.39612758,1224.10,she's"
p4089
I96
sS'yuppp'
p4090
I96
sS'dude!!\xe2\x80\x9d'
p4091
I96
sS"it's"
p4092
I23
sS'seasoned'
p4093
I96
sS'gaza'
p4094
I96
sS"lady's"
p4095
I95
sS"it'd"
p4096
I96
sS'bulk'
p4097
I96
sS'finished'
p4098
I94
sS'dicktingles'
p4099
I96
sS'tshirt'
p4100
I96
sS'value'
p4101
I93
sS'prepers'
p4102
I96
sS'planets'
p4103
I96
sS'shld'
p4104
I96
sS'almost'
p4105
I92
sS'squid'
p4106
I96
sS'weighed'
p4107
I96
sS'funny'
p4108
I92
sS')'
p4109
I96
sS'though)'
p4110
I96
sS'gasses'
p4111
I95
sS'another'
p4112
I84
sS'...since'
p4113
I96
sS'oppin'
p4114
I96
sS'tiempo'
p4115
I96
sS'to...thank'
p4116
I96
sS'reporting'
p4117
I96
sS'tambien'
p4118
I96
sS'ion'
p4119
I96
sS'fucken'
p4120
I88
sS'injures'
p4121
I96
sS'fucked'
p4122
I94
sS'center'
p4123
I96
sS'thought'
p4124
I85
sS'oops'
p4125
I94
sS'position'
p4126
I96
sS'ily'
p4127
I96
sS'latest'
p4128
I96
sS'idk,91605\n494214589924405248,bb_asher,2014-07-29'
p4129
I96
sS'barking'
p4130
I96
sS'gmo'
p4131
I96
sS'add'
p4132
I93
sS'fuuuuuu'
p4133
I96
sS'ohhh'
p4134
I96
sS'what.....they'
p4135
I96
sS'guacamolly'
p4136
I96
sS'ought'
p4137
I96
sS'torvald'
p4138
I96
sS'go.\xe2\x80\x9d'
p4139
I96
sS'4hope'
p4140
I96
sS'*naked'
p4141
I96
sS'like'
p4142
I16
sS'workn'
p4143
I96
sS'journalist'
p4144
I96
sS'chick'
p4145
I95
sS'dizzin'
p4146
I96
sS'works'
p4147
I93
sS'soft'
p4148
I94
sS'chico'
p4149
I96
sS'water...back'
p4150
I96
sS'alive'
p4151
I93
sS'hair'
p4152
I82
sS'proper'
p4153
I96
sS'happens'
p4154
I92
sS'rich...1989........$$$$$$$$$$$$$'
p4155
I96
sS'a)'
p4156
I96
sS'assuming'
p4157
I96
sS'panes'
p4158
I96
sS'gratitude'
p4159
I96
sS'pepper'
p4160
I96
sS'noise'
p4161
I94
sS'selfiebyselfwest'
p4162
I96
sS'stuff"'
p4163
I96
sS"'wts'"
p4164
I96
sS'host'
p4165
I96
sS'although'
p4166
I94
sS'about'
p4167
I34
sS'actual'
p4168
I95
sS'6am'
p4169
I96
sS'certainty'
p4170
I96
sS'*sits'
p4171
I95
sS'tomm'
p4172
I96
sS'unreleased'
p4173
I96
sS'faithfulness'
p4174
I95
sS'functional'
p4175
I96
sS'female'
p4176
I96
sS'custard'
p4177
I96
sS'wack'
p4178
I96
sS'legends'
p4179
I94
sS'firefighter'
p4180
I96
sS'blegh'
p4181
I96
sS"'80s"
p4182
I96
sS'biggest'
p4183
I94
sS'maze'
p4184
I96
sS'globe'
p4185
I96
sS'mijo'
p4186
I96
sS'chatting'
p4187
I96
sS'street/skate'
p4188
I96
sS'but'
p4189
I24
sS'insured'
p4190
I96
sS'children"'
p4191
I96
sS'!t'
p4192
I96
sS'!z'
p4193
I96
sS'bug'
p4194
I96
sS'bud'
p4195
I96
sS'genitals'
p4196
I96
sS'wise'
p4197
I96
sS'harmontown'
p4198
I96
sS'wish'
p4199
I77
sS'j'
p4200
I96
sS'wonderbread"'
p4201
I96
sS'minutes'
p4202
I93
sS'supreme'
p4203
I96
sS'c.r.e.a.m'
p4204
I96
sS'pin'
p4205
I96
sS'pic'
p4206
I95
sS'pie'
p4207
I95
sS'of...also'
p4208
I96
sS'...who'
p4209
I96
sS'heeeeyyyy'
p4210
I96
sS'shooting'
p4211
I96
sS'dressed'
p4212
I95
sS'44'
p4213
I96
sS'40'
p4214
I96
sS'unfuckwithable'
p4215
I96
sS'2enjoy'
p4216
I96
sS'montel'
p4217
I93
sS'genre)'
p4218
I96
sS'\xe2\x80\xa2'
p4219
I89
sS"dave's"
p4220
I96
sS'goin'
p4221
I93
sS'mantronix'
p4222
I96
sS'\xe2\x80\x94'
p4223
I96
sS'hiked'
p4224
I96
sS'yell'
p4225
I96
sS'hikey'
p4226
I96
sS'84.much'
p4227
I96
sS'tanking'
p4228
I96
sS'bagpipe'
p4229
I95
sS'hats'
p4230
I96
sS'sleep'
p4231
I81
sS'hate'
p4232
I87
sS"(it's"
p4233
I96
sS'feeding'
p4234
I96
sS'1.10'
p4235
I96
sS'tweet'
p4236
I93
sS'm\xc2\xa3'
p4237
I96
sS'under'
p4238
I89
sS'$40'
p4239
I95
sS'rise'
p4240
I96
sS'every'
p4241
I71
sS'jack'
p4242
I96
sS'school'
p4243
I90
sS'09:16:31.0,34.20667416,-118.39593404,1224.10,label'
p4244
I96
sS'venue'
p4245
I96
sS'enjoy'
p4246
I92
sS'"all'
p4247
I96
sS'leaders'
p4248
I96
sS'direct'
p4249
I96
sS'"fidget'
p4250
I96
sS'street'
p4251
I90
sS'blue'
p4252
I92
sS'hide'
p4253
I94
sS'christ'
p4254
I91
sS'beaten'
p4255
I96
sS'abides'
p4256
I96
sS'disney'
p4257
I96
sS'kicked'
p4258
I96
sS'beautiful..in'
p4259
I96
sS'hundreds'
p4260
I96
sS'studio'
p4261
I95
sS'smokin'
p4262
I96
sS'represented'
p4263
I96
sS'path'
p4264
I95
sS'property'
p4265
I96
sS'hunting'
p4266
I96
sS'stevie'
p4267
I95
sS'leaves'
p4268
I94
sS'changed'
p4269
I96
sS'.....let'
p4270
I95
sS'mentor'
p4271
I96
sS'stink'
p4272
I96
sS'feelings'
p4273
I93
sS'patience'
p4274
I96
sS'y.o'
p4275
I96
sS'would'
p4276
I66
sS'hospital'
p4277
I96
sS'spike'
p4278
I96
sS'...fuck'
p4279
I96
sS'phony'
p4280
I95
sS'grief'
p4281
I96
sS'phone'
p4282
I89
sS'breaths'
p4283
I96
sS'must'
p4284
I92
sS'me'
p4285
I15
sS'join'
p4286
I94
sS'mc'
p4287
I96
sS'mj'
p4288
I96
sS'aaaaiiight'
p4289
I96
sS'20:15:14.0,34.20694034,-118.39606638,1224.10,work'
p4290
I96
sS'.was'
p4291
I96
sS'mr'
p4292
I94
sS'my'
p4293
I10
sS'...bullshit'
p4294
I96
sS'man...on'
p4295
I96
sS'gadgets'
p4296
I96
sS'overheard'
p4297
I96
sS'synching'
p4298
I96
sS'scheduling'
p4299
I96
sS'keep'
p4300
I81
sS'attract'
p4301
I96
sS'end'
p4302
I87
sS'writers'
p4303
I95
sS'mess'
p4304
I93
sS'insecure'
p4305
I96
sS'sparkles'
p4306
I96
sS'zumba...yikes'
p4307
I96
sS'upside'
p4308
I95
sS'interpretation'
p4309
I96
sS',91605\n494048019466055680,bb_asher,2014-07-29'
p4310
I96
sS'over'
p4311
I79
sS'...during'
p4312
I96
sS"...don't"
p4313
I96
sS'oven'
p4314
I96
sS'ima'
p4315
I95
sS'framesare'
p4316
I96
sS'...please'
p4317
I95
sS'imo'
p4318
I94
sS'cantt'
p4319
I96
sS'\xc2\xa3v\xc2\xa3n'
p4320
I96
sS'manicure'
p4321
I96
sS'gluttony'
p4322
I96
sS'edit)'
p4323
I94
sS'potatoes'
p4324
I96
sS'affiliate'
p4325
I96
sS'each'
p4326
I93
sS'...her'
p4327
I96
sS'signing'
p4328
I96
sS'saturday'
p4329
I94
sS'gon'
p4330
I96
sS'move-me'
p4331
I96
sS'driving'
p4332
I95
sS"memory's"
p4333
I96
sS'god'
p4334
I58
sS'got'
p4335
I45
sS'day"'
p4336
I96
sS'independence'
p4337
I96
sS'arizona'
p4338
I96
sS'.they'
p4339
I96
sS'eternal'
p4340
I96
sS'free'
p4341
I89
sS'icky'
p4342
I93
sS'wanted'
p4343
I91
sS'alarmingly'
p4344
I96
sS'fret'
p4345
I96
sS'dayz'
p4346
I96
sS'days'
p4347
I87
sS'"this'
p4348
I96
sS'soundclick'
p4349
I96
sS'heck'
p4350
I96
sS'soda'
p4351
I96
sS"'gay"
p4352
I96
sS'wowee'
p4353
I96
sS'already'
p4354
I88
sS"...you're"
p4355
I95
sS'idontevenknow'
p4356
I96
sS'puck'
p4357
I96
sS'hearing'
p4358
I95
sS'mercury'
p4359
I96
sS'(luke'
p4360
I96
sS'heights'
p4361
I96
sS'mothersday'
p4362
I96
sS'too'
p4363
I49
sS'rockin'
p4364
I96
sS'especially'
p4365
I96
sS'tof'
p4366
I96
sS'urban'
p4367
I96
sS'took'
p4368
I90
sS'us...your'
p4369
I96
sS'.banks..army'
p4370
I96
sS'ankle'
p4371
I96
sS'toot'
p4372
I96
sS'kept'
p4373
I94
sS'lather'
p4374
I96
sS'bloated'
p4375
I96
sS'$350000'
p4376
I96
sS'us...and'
p4377
I96
sS'classes'
p4378
I96
sS'bridge'
p4379
I96
sS'rad'
p4380
I96
sS'oohhh'
p4381
I96
sS'ran'
p4382
I95
sS'talking'
p4383
I89
sS'guapo'
p4384
I96
sS'rap'
p4385
I96
sS'ulmer'
p4386
I96
sS'pranked'
p4387
I96
sS'-'
p4388
I76
sS'pemba'
p4389
I96
sS'mix)'
p4390
I96
sS'though'
p4391
I89
sS'plenty'
p4392
I96
sS'hatnin'
p4393
I96
sS'glow'
p4394
I96
sS'soundclouud'
p4395
I96
sS'soups'
p4396
I96
sS'metal'
p4397
I91
sS"ballin'"
p4398
I96
sS'freeway'
p4399
I94
sS'...until'
p4400
I96
sS'inspire'
p4401
I96
sS'22:23:00.0,34.20758322,-118.38878646,1224.10,what'
p4402
I96
sS'queen'
p4403
I93
sS'radio'
p4404
I93
sS'earth'
p4405
I94
sS'clear!"'
p4406
I96
sS'situations'
p4407
I96
sS'problems?"'
p4408
I96
sS'gods'
p4409
I93
sS'announce'
p4410
I96
sS'chipotle'
p4411
I96
sS'..my'
p4412
I95
sS'geez'
p4413
I94
sS'uhhh'
p4414
I96
sS'watch'
p4415
I85
sS'guatemala'
p4416
I96
sS'despite'
p4417
I96
sS'report'
p4418
I96
sS'frying'
p4419
I96
sS'hahaha\xe2\x9c\x85'
p4420
I96
sS'countries'
p4421
I96
sS'peroxide'
p4422
I96
sS'shots'
p4423
I96
sS'...because'
p4424
I96
sS'others...for'
p4425
I96
sS'!!!\xe2\x80\x9d'
p4426
I96
sS'bed'
p4427
I93
sS'nuh'
p4428
I96
sS'heaven...i'
p4429
I96
sS'timelove'
p4430
I96
sS'"oh'
p4431
I96
sS'finger'
p4432
I96
sS'$!r....stop'
p4433
I96
sS'hopefully'
p4434
I94
sS'mum'
p4435
I96
sS'others...are'
p4436
I96
sS'goshhhhh'
p4437
I96
sS'weak'
p4438
I94
sS'boss'
p4439
I94
sS'mazda'
p4440
I96
sS'wear'
p4441
I95
sS'.....smart'
p4442
I96
sS'dedication'
p4443
I96
sS'news'
p4444
I93
sS'...one'
p4445
I96
sS'"bring'
p4446
I96
sS'fault'
p4447
I94
sS'jelly'
p4448
I96
sS'players'
p4449
I92
sS'games'
p4450
I95
sS'dopest'
p4451
I95
sS'vexed'
p4452
I96
sS'...support'
p4453
I96
sS'karen'
p4454
I96
sS'towels'
p4455
I96
sS'trust'
p4456
I92
sS'beef'
p4457
I96
sS'"you'
p4458
I96
sS'binge'
p4459
I95
sS'been'
p4460
I57
sS'legend'
p4461
I93
sS'confident'
p4462
I95
sS'beer'
p4463
I92
sS'bees'
p4464
I96
sS'expected'
p4465
I96
sS'drugs'
p4466
I96
sS'catch'
p4467
I93
sS'gdayum'
p4468
I96
sS'n'
p4469
I95
sS'broth'
p4470
I96
sS'"i'
p4471
I89
sS'4real'
p4472
I96
sS'.....if'
p4473
I96
sS'.....in'
p4474
I96
sS'inventory'
p4475
I96
sS'shawty'
p4476
I96
sS'yung'
p4477
I93
sS'social'
p4478
I94
sS'coachella'
p4479
I96
sS'greeted'
p4480
I96
sS"nbc's"
p4481
I96
sS'\xe2\x9c\xb3\xef\xb8\x8f'
p4482
I96
sS'....sorry'
p4483
I96
sS'charlie'
p4484
I95
sS'forceful'
p4485
I96
sS'dada'
p4486
I96
sS'rmx/edit'
p4487
I96
sS'greatest'
p4488
I95
sS'mother'
p4489
I95
sS'hearts'
p4490
I96
sS'zipline'
p4491
I96
sS'boastful'
p4492
I96
sS'laptop'
p4493
I96
sS'...this'
p4494
I96
sS'grades'
p4495
I96
sS'bugged'
p4496
I96
sS"stick..that's"
p4497
I96
sS'cherry'
p4498
I96
sS'eleva\xe2\x80\x9d'
p4499
I96
sS'5s'
p4500
I96
sS'humanity'
p4501
I96
sS'gave'
p4502
I91
sS'casting'
p4503
I96
sS'...playing'
p4504
I96
sS'addicts'
p4505
I96
sS'judge'
p4506
I96
sS'burns'
p4507
I96
sS'ditto'
p4508
I96
sS'gift'
p4509
I94
sS'el"'
p4510
I96
sS'50'
p4511
I95
sS'specific'
p4512
I96
sS'55'
p4513
I96
sS'godis'
p4514
I96
sS'avatar'
p4515
I96
sS'...good'
p4516
I94
sS'"keef'
p4517
I96
sS'clubs'
p4518
I96
sS'escape'
p4519
I96
sS'finna'
p4520
I96
sS'totaly'
p4521
I96
sS'spazzed'
p4522
I94
sS'dawgie'
p4523
I95
sS'n\xc2\xa3xt'
p4524
I96
sS'ice'
p4525
I88
sS'everything'
p4526
I88
sS'christmas'
p4527
I93
sS'espionage'
p4528
I96
sS'?how'
p4529
I96
sS"club'"
p4530
I96
sS'chest*'
p4531
I96
sS'cory'
p4532
I96
sS'attacks'
p4533
I96
sS'dinner'
p4534
I90
sS'plus'
p4535
I91
sS'plur'
p4536
I96
sS'twitch'
p4537
I96
sS'curry'
p4538
I96
sS'duke'
p4539
I96
sS'ahh'
p4540
I94
sS'bath'
p4541
I96
sS'accomplishments'
p4542
I96
sS'everything.\xe2\x80\x9d'
p4543
I96
sS'transform'
p4544
I96
sS'class'
p4545
I94
sS'gig'
p4546
I95
sS'gif'
p4547
I96
sS'gin'
p4548
I96
sS'groupies'
p4549
I96
sS"huzt|\xc2\xa3....don't"
p4550
I96
sS'....it'
p4551
I96
sS'head'
p4552
I88
sS'....is'
p4553
I94
sS'visitation'
p4554
I96
sS'6'
p4555
I93
sS'removes'
p4556
I96
sS'....iz'
p4557
I95
sS'26th'
p4558
I96
sS'heat'
p4559
I83
sS'hear'
p4560
I92
sS'snake....from'
p4561
I96
sS'....im'
p4562
I94
sS'removed'
p4563
I95
sS'versions'
p4564
I96
sS'donald'
p4565
I96
sS"roommate's"
p4566
I96
sS'sometime'
p4567
I96
sS'perez'
p4568
I96
sS'check'
p4569
I88
sS'tix'
p4570
I92
sS'faithful'
p4571
I96
sS'no'
p4572
I37
sS'na'
p4573
I93
sS'commercials'
p4574
I95
sS'tip'
p4575
I95
sS'ne'
p4576
I96
sS'til'
p4577
I92
sS'ny'
p4578
I96
sS'setting'
p4579
I96
sS'papers'
p4580
I96
sS'np'
p4581
I95
sS'picture'
p4582
I94
sS'....just'
p4583
I96
sS"dark'"
p4584
I96
sS'longer'
p4585
I96
sS'1800'
p4586
I96
sS'serious'
p4587
I90
sS'neighbors'
p4588
I96
sS'ron'
p4589
I96
sS"time....i'll"
p4590
I96
sS'ouch'
p4591
I96
sS'outchyea'
p4592
I96
sS'comments'
p4593
I96
sS'row'
p4594
I96
sS'downloading'
p4595
I96
sS'environment'
p4596
I96
sS'charge'
p4597
I95
sS'unapproachable'
p4598
I96
sS'discovering'
p4599
I96
sS'(official'
p4600
I96
sS'advantage'
p4601
I96
sS'"grace"'
p4602
I96
sS'congregation'
p4603
I96
sS'cook'
p4604
I94
sS'cool'
p4605
I75
sS'tortillas'
p4606
I96
sS'sighed'
p4607
I96
sS'hour'
p4608
I93
sS'level'
p4609
I95
sS'free-will'
p4610
I96
sS'posts'
p4611
I94
sS'brother'
p4612
I92
sS'quick'
p4613
I93
sS'drier'
p4614
I96
sS'says'
p4615
I88
sS'tougher'
p4616
I96
sS'work.ughhhhhhhh'
p4617
I96
sS'fear'
p4618
I94
sS'..on'
p4619
I94
sS'debate'
p4620
I95
sS'goes'
p4621
I92
sS'reply'
p4622
I96
sS'....but'
p4623
I96
sS'water'
p4624
I85
sS'baseball'
p4625
I96
sS'groups'
p4626
I96
sS'6-9'
p4627
I96
sS'...thank'
p4628
I95
sS'healthy'
p4629
I94
sS'guilty'
p4630
I94
sS'sucka'
p4631
I95
sS'hospitality'
p4632
I96
sS'weird'
p4633
I89
sS'motherfucking'
p4634
I96
sS'winner'
p4635
I94
sS'lose...next'
p4636
I96
sS'candice'
p4637
I96
sS'1st'
p4638
I96
sS'hamburger'
p4639
I96
sS'smidgens'
p4640
I96
sS'sports'
p4641
I96
sS'snarknado'
p4642
I96
sS'iphone'
p4643
I94
sS'memory'
p4644
I96
sS'today'
p4645
I66
sS'cashier'
p4646
I96
sS'chocolate'
p4647
I95
sS'teaser'
p4648
I96
sS'beers'
p4649
I96
sS'judy'
p4650
I96
sS'figure'
p4651
I95
sS'expectant'
p4652
I96
sS'hydrogen'
p4653
I96
sS'swedish'
p4654
I96
sS'1'
p4655
I84
sS'now!\xe2\x80\x9d'
p4656
I96
sS'unbelievable'
p4657
I96
sS'information'
p4658
I96
sS'comin'
p4659
I96
sS'birthday'
p4660
I89
sS'frick'
p4661
I96
sS'tbh'
p4662
I93
sS'drumsticks'
p4663
I96
sS'manand'
p4664
I96
sS'refund'
p4665
I96
sS'midnight'
p4666
I95
sS'straighthate'
p4667
I96
sS'worship'
p4668
I96
sS'blocked'
p4669
I96
sS"he's"
p4670
I85
sS'whatcheer1'
p4671
I96
sS'vavaldi'
p4672
I96
sS'happened'
p4673
I95
sS'lonely'
p4674
I95
sS'commentswhy'
p4675
I96
sS'feature'
p4676
I96
sS'ppl'
p4677
I68
sS'equality'
p4678
I96
sS'name'
p4679
I80
sS'sophomore'
p4680
I96
sS'clutch'
p4681
I96
sS'debating'
p4682
I96
sS'possibilities'
p4683
I96
sS'muchas'
p4684
I96
sS'..big'
p4685
I96
sS'begun'
p4686
I96
sS'viene'
p4687
I96
sS'profit'
p4688
I96
sS'motherfucker"'
p4689
I96
sS'trustin'
p4690
I95
sS'"spring"'
p4691
I96
sS'eywa'
p4692
I96
sS'theory'
p4693
I96
sS'oktoberfest'
p4694
I96
sS'yup'
p4695
I96
sS'calories'
p4696
I96
sS'motion'
p4697
I96
sS'turn'
p4698
I86
sS'place'
p4699
I85
sS'swing'
p4700
I96
sS'motherfuckers'
p4701
I91
sS'george'
p4702
I96
sS'day\xe2\x80\x9d'
p4703
I96
sS'virgin'
p4704
I96
sS'terrifying'
p4705
I96
sS'convention'
p4706
I95
sS'white'
p4707
I79
sS'giver'
p4708
I96
sS'gives'
p4709
I95
sS'hug'
p4710
I95
sS'season'
p4711
I96
sS'huh'
p4712
I96
sS'cops'
p4713
I94
sS'population'
p4714
I96
sS'lmao'
p4715
I85
sS'oooooohhhh'
p4716
I96
sS'yasss'
p4717
I92
sS'descxision'
p4718
I96
sS'cards'
p4719
I96
sS'and'
p4720
I9
sS'rent'
p4721
I96
sS'...woman'
p4722
I96
sS'sells'
p4723
I96
sS'...about'
p4724
I95
sS'ideas'
p4725
I96
sS'blunt'
p4726
I95
sS'urge'
p4727
I96
sS'sure'
p4728
I83
sS'multiple'
p4729
I95
sS'sherman'
p4730
I96
sS'boiling'
p4731
I96
sS'pleasure'
p4732
I95
sS'fck'
p4733
I96
sS'later'
p4734
I89
sS'hungry'
p4735
I91
sS'farkle'
p4736
I96
sS"80's"
p4737
I96
sS'cheat'
p4738
I96
sS'gay..and'
p4739
I96
sS'....in'
p4740
I95
sS'woop'
p4741
I94
sS'state'
p4742
I94
sS'same.we'
p4743
I96
sS'wooo'
p4744
I95
sS'dreaded'
p4745
I96
sS'sneakdizzin'
p4746
I96
sS"pop's"
p4747
I95
sS'jazz'
p4748
I94
sS'freaking'
p4749
I94
sS'reveal'
p4750
I96
sS'attitude'
p4751
I95
sS'naked'
p4752
I93
sS'jokes'
p4753
I96
sS'clowns'
p4754
I96
sS'jokey'
p4755
I96
sS"y'all"
p4756
I87
sS'reveals'
p4757
I95
sS'lie..you'
p4758
I96
sS'replies'
p4759
I96
sS'college'
p4760
I91
sS'apologies'
p4761
I96
sS'heavy'
p4762
I96
sS'fails'
p4763
I96
sS'crooked'
p4764
I93
sS'review'
p4765
I96
sS'opening'
p4766
I96
sS'weapons'
p4767
I96
sS'outside'
p4768
I90
sS'barging'
p4769
I96
sS'untrustworthy'
p4770
I95
sS'......thank'
p4771
I96
sS'01:29:17.0,34.20673489,-118.3959881,1224.10,no'
p4772
I96
sS'messed'
p4773
I96
sS'comp'
p4774
I96
sS'shapes)'
p4775
I96
sS'coma'
p4776
I96
sS'come'
p4777
I79
sS'superstar'
p4778
I96
sS'successes'
p4779
I96
sS'.america'
p4780
I96
sS'color'
p4781
I95
sS'pot'
p4782
I96
sS'por'
p4783
I96
sS'period'
p4784
I96
sS'pop'
p4785
I95
sS'poo'
p4786
I96
sS'pole'
p4787
I96
sS'"can\'t'
p4788
I96
sS'turkey'
p4789
I96
sS'..in'
p4790
I96
sS'..im'
p4791
I96
sS'peaceful'
p4792
I96
sS'billionaires'
p4793
I96
sS'hardly'
p4794
I96
sS'500'
p4795
I96
sS'..it'
p4796
I96
sS'..because'
p4797
I95
sS'direction'
p4798
I96
sS'blessing'
p4799
I96
sS'...better'
p4800
I96
sS'careful'
p4801
I94
sS'champions'
p4802
I95
sS'paying'
p4803
I95
sS'myself'
p4804
I82
sS'...plus'
p4805
I96
sS'mount'
p4806
I96
sS'againhad'
p4807
I96
sS'cash'
p4808
I95
sS'hunty'
p4809
I96
sS'life*'
p4810
I96
sS'\xe2\x9c\x96\xef\xb8\x8f\xe2\x9c\x96\xef\xb8\x8f\xe2\x9c\x96\xef\xb8\x8f\xe2\x9c\x96\xef\xb8\x8f\xe2\x9c\x96\xef\xb8\x8f\xe2\x9c\x96\xef\xb8\x8f\xe2\x9c\x96\xef\xb8\x8f\xe2\x9c\x96\xef\xb8\x8f\xe2\x9c\x96\xef\xb8\x8f,91605\n494026203460685825,bb_asher,2014-07-29'
p4811
I96
sS'...another'
p4812
I96
sS'good'
p4813
I35
sS'reminded'
p4814
I96
sS'trip'
p4815
I96
sS'reminder'
p4816
I96
sS'status'
p4817
I94
sS'barefoot'
p4818
I96
sS'it"'
p4819
I96
sS'nest'
p4820
I96
sS'weed'
p4821
I93
sS'producers'
p4822
I96
sS'changing'
p4823
I96
sS'$hort'
p4824
I96
sS'pennsylvania'
p4825
I96
sS'bodied'
p4826
I96
sS'ranch'
p4827
I96
sS'without'
p4828
I90
sS'relief'
p4829
I96
sS'justify'
p4830
I96
sS'sickuh'
p4831
I96
sS'when'
p4832
I45
sS'actions'
p4833
I96
sS'kill'
p4834
I92
sS'halfway'
p4835
I96
sS'rose'
p4836
I96
sS'seems'
p4837
I95
sS'except'
p4838
I95
sS'blog'
p4839
I96
sS'....$$$$$$$$$'
p4840
I96
sS'lets'
p4841
I87
sS'ross'
p4842
I96
sS'styles'
p4843
I92
sS'kills'
p4844
I96
sS'kirby'
p4845
I96
sS'ghetoe'
p4846
I96
sS'correcting'
p4847
I96
sS'.....open'
p4848
I96
sS'muthafuckas'
p4849
I96
sS'donations'
p4850
I96
sS':/\xe2\x80\x9d\xe2\x80\x9d'
p4851
I96
sS'joking'
p4852
I96
sS'madrid'
p4853
I96
sS'competition'
p4854
I96
sS'....much'
p4855
I96
sS'slice'
p4856
I95
sS'legal'
p4857
I95
sS'moon'
p4858
I94
sS'.....my'
p4859
I96
sS'buddha'
p4860
I96
sS'are...and'
p4861
I96
sS'saludo'
p4862
I96
sS'pastora'
p4863
I96
sS'lmfao'
p4864
I90
sS'royals'
p4865
I96
sS'weirdest'
p4866
I95
sS'57:15'
p4867
I96
sS'terrified'
p4868
I96
sS'on'
p4869
I17
sS'ok'
p4870
I86
sS'oh'
p4871
I66
sS'of'
p4872
I12
sS'shrimp'
p4873
I96
sS'stand'
p4874
I92
sS'or'
p4875
I43
sS'ladies'
p4876
I95
sS'curses'
p4877
I96
sS'communication'
p4878
I96
sS'accounts'
p4879
I96
sS'1lb'
p4880
I96
sS'buds'
p4881
I96
sS'stylezin'
p4882
I96
sS'there'
p4883
I46
sS'gopro'
p4884
I96
sS'racist'
p4885
I93
sS'valley'
p4886
I95
sS'fish'
p4887
I95
sS'..alert..chp'
p4888
I96
sS'"i\'m'
p4889
I96
sS'lmaooo'
p4890
I96
sS'jus'
p4891
I96
sS'ended'
p4892
I96
sS'fuckiing'
p4893
I96
sS'remix)'
p4894
I96
sS'promote'
p4895
I96
sS'history,91605\n508024586558918656,bb_asher,2014-09-05'
p4896
I96
sS'.investmentz'
p4897
I96
sS'grass'
p4898
I96
sS'djing'
p4899
I91
sS'taylor'
p4900
I96
sS'taste'
p4901
I92
sS'rubbed'
p4902
I96
sS'1year'
p4903
I96
sS'idiot'
p4904
I96
sS'swords'
p4905
I96
sS'insurance'
p4906
I96
sS'5'
p4907
I87
sS"gerrity's"
p4908
I96
sS'finals'
p4909
I96
sS'missed'
p4910
I94
sS'calls'
p4911
I94
sS'wifi'
p4912
I96
sS'derrick'
p4913
I96
sS'09:57:18.0,34.20686839,-118.39608746,1224.10,lil'
p4914
I96
sS'platter'
p4915
I96
sS'luke18'
p4916
I96
sS'all'
p4917
I28
sS'ale'
p4918
I96
sS'follow'
p4919
I85
sS'alt'
p4920
I94
sS'apartment'
p4921
I96
sS'chattin'
p4922
I96
sS'lining'
p4923
I95
sS'thursday'
p4924
I93
sS'siblings'
p4925
I96
sS'....89'
p4926
I96
sS'....my'
p4927
I96
sS'yr'
p4928
I96
sS'woman'
p4929
I92
sS'worse'
p4930
I96
sS'song'
p4931
I89
sS'far'
p4932
I90
sS'..laws'
p4933
I96
sS'grindr'
p4934
I96
sS'fav'
p4935
I95
sS'fat'
p4936
I94
sS'simpsons'
p4937
I96
sS'sons'
p4938
I94
sS'worst'
p4939
I92
sS'fam'
p4940
I93
sS'awful'
p4941
I95
sS'ticket'
p4942
I94
sS'dizzas'
p4943
I96
sS'vibed'
p4944
I96
sS'list'
p4945
I96
sS'blankly'
p4946
I96
sS'lisa'
p4947
I96
sS'misery,91605\n506635261812277248,bb_asher,2014-09-02'
p4948
I96
sS'tea'
p4949
I96
sS'tee'
p4950
I95
sS'synergy'
p4951
I95
sS'haah'
p4952
I96
sS'design'
p4953
I96
sS'bopper'
p4954
I96
sS'tep'
p4955
I96
sS'nba'
p4956
I91
sS'functioning'
p4957
I96
sS'what'
p4958
I33
sS'sun'
p4959
I96
sS'sum'
p4960
I95
sS'anniversary'
p4961
I96
sS'....do'
p4962
I96
sS'crush'
p4963
I96
sS'version'
p4964
I94
sS'sus'
p4965
I95
sS'sup'
p4966
I96
sS'racing'
p4967
I96
sS'guns'
p4968
I96
sS'christian'
p4969
I95
sS'hungover'
p4970
I96
sS'shoulda'
p4971
I96
sS'dutchy'
p4972
I96
sS'crybaby'
p4973
I96
sS'options'
p4974
I96
sS'reappropriated'
p4975
I96
sS'suddenly'
p4976
I96
sS'world."'
p4977
I96
sS'texts'
p4978
I95
sS'florence'
p4979
I96
sS'emoji'
p4980
I94
sS'jerkin'
p4981
I96
sS'hermes'
p4982
I96
sS'faint'
p4983
I96
sS'scrivens'
p4984
I96
sS'demo'
p4985
I94
sS'shits'
p4986
I96
sS'trabajo'
p4987
I96
sS'tryna'
p4988
I95
sS'knows'
p4989
I93
sS'floyd'
p4990
I96
sS'stick'
p4991
I94
sS'flac'
p4992
I96
sS'mellow'
p4993
I96
sS'away....quickly'
p4994
I96
sS'glad'
p4995
I72
sS'salvador'
p4996
I96
sS'v'
p4997
I94
sS',91605\n498906694282260480,bb_asher,2014-08-11'
p4998
I96
sS'joints'
p4999
I96
sS'arise'
p5000
I96
sS'goal'
p5001
I96
sS'rather'
p5002
I94
sS'"king'
p5003
I96
sS'speeding'
p5004
I94
sS'explains'
p5005
I96
sS'goat'
p5006
I96
sS'sandwich'
p5007
I92
sS'okay'
p5008
I95
sS'613'
p5009
I96
sS'cake.\xe2\x80\x9d'
p5010
I96
sS'short'
p5011
I88
sS'beatification'
p5012
I96
sS'laaaady'
p5013
I96
sS'shade'
p5014
I94
sS"08:51:18.0,34.20686797,-118.39598304,1224.10,you're"
p5015
I96
sS'"in'
p5016
I94
sS"don't"
p5017
I37
sS'"if'
p5018
I96
sS'brotha'
p5019
I96
sS'mission'
p5020
I96
sS'disabled'
p5021
I96
sS'scientist'
p5022
I96
sS'"is'
p5023
I96
sS'inquiries'
p5024
I96
sS'style'
p5025
I95
sS'pray'
p5026
I96
sS'sale'
p5027
I96
sS'beyonce'
p5028
I95
sS'mattress'
p5029
I96
sS'resort'
p5030
I96
sS'argentina'
p5031
I96
sS'soccer'
p5032
I95
sS'might'
p5033
I85
sS'09:45:35.0,34.2069111,-118.39582617,1224.10,hahahah'
p5034
I96
sS'return'
p5035
I96
sS':-)\xe2\x80\x9d'
p5036
I96
sS'hunter'
p5037
I96
sS'bigger'
p5038
I96
sS'b\xc2\xa3$t'
p5039
I96
sS'mastercard'
p5040
I96
sS'rise!"'
p5041
I96
sS'weighs'
p5042
I96
sS'weight'
p5043
I96
sS'generation'
p5044
I96
sS'peeps'
p5045
I96
sS'prolly'
p5046
I95
sS'alcohol'
p5047
I96
sS'loll'
p5048
I95
sS'lols'
p5049
I96
sS'krispy'
p5050
I96
sS'paradise'
p5051
I96
sS'niiice'
p5052
I96
sS"'flying'"
p5053
I96
sS'soulless'
p5054
I96
sS'exodus'
p5055
I96
sS'friday'
p5056
I89
sS'forgive'
p5057
I95
sS'teach'
p5058
I94
sS'jew'
p5059
I96
sS'cremated'
p5060
I95
sS"children's-ish"
p5061
I96
sS'fallen'
p5062
I96
sS'feed'
p5063
I96
sS'feel'
p5064
I74
sS'fancy'
p5065
I96
sS'feet'
p5066
I96
sS'colombia'
p5067
I96
sS'pablo'
p5068
I96
sS'bland'
p5069
I96
sS'story'
p5070
I88
sS'gostronafreek'
p5071
I96
sS'gourmet'
p5072
I96
sS'leading'
p5073
I96
sS'interviews'
p5074
I96
sS'comfy'
p5075
I96
sS'doomsday'
p5076
I96
sS'storm'
p5077
I96
sS'oooooweeee'
p5078
I95
sS'syrup'
p5079
I95
sS'store'
p5080
I96
sS'option'
p5081
I96
sS'relieved'
p5082
I96
sS'hotel'
p5083
I96
sS"i'ma"
p5084
I96
sS'$7'
p5085
I95
sS'convinced'
p5086
I96
sS'king'
p5087
I95
sS'kind'
p5088
I93
sS'youth!\xe2\x80\x9d/'
p5089
I96
sS'cost'
p5090
I96
sS'stalk'
p5091
I96
sS'dang'
p5092
I93
sS'*eats'
p5093
I96
sS'nights'
p5094
I92
sS'sandwiches'
p5095
I96
sS'window"'
p5096
I96
sS'eff'
p5097
I96
sS'buff'
p5098
I96
sS'jsf'
p5099
I96
sS',91605\n498739616283754497,bb_asher,2014-08-11'
p5100
I96
sS'reunited'
p5101
I96
sS'man....you'
p5102
I96
sS'react'
p5103
I96
sS'75'
p5104
I96
sS'nothing'
p5105
I86
sS'seasons'
p5106
I96
sS'dealers'
p5107
I96
sS'tattoo\xe2\x9c\x92\xef\xb8\x8f'
p5108
I96
sS'trouble.\xe2\x80\x9d'
p5109
I96
sS'stfu'
p5110
I96
sS'cds'
p5111
I96
sS'melody'
p5112
I95
sS'...like'
p5113
I96
sS'rebooting'
p5114
I96
sS'grace'
p5115
I96
sS"mom's"
p5116
I96
sS'gawwwwwd'
p5117
I96
sS'his'
p5118
I58
sS'hit'
p5119
I93
sS'fastest'
p5120
I96
sS'22:51:14.0,34.20642074,-118.39185549,1224.10,at'
p5121
I96
sS'him'
p5122
I76
sS'typos'
p5123
I96
sS'you!"'
p5124
I96
sS'*vinyl'
p5125
I96
sS'bars'
p5126
I96
sS'art'
p5127
I96
sS'gawd'
p5128
I96
sS'intelligence'
p5129
I96
sS'kylie'
p5130
I96
sS'defense'
p5131
I96
sS'dumb'
p5132
I95
sS'are'
p5133
I22
sS'recording'
p5134
I96
sS'....cops'
p5135
I96
sS'nailed'
p5136
I96
sS'bruuuuu'
p5137
I96
sS'....oh'
p5138
I96
sS'....on'
p5139
I96
sS'slapped'
p5140
I96
sS'....or'
p5141
I96
sS'solo'
p5142
I96
sS'recently'
p5143
I95
sS'sold'
p5144
I95
sS'attention'
p5145
I94
sS'outfit'
p5146
I96
sS'condo'
p5147
I96
sS'c'
p5148
I94
sS'pa-rum-pum-pum-pum'
p5149
I96
sS'roman'
p5150
I95
sS'8am'
p5151
I96
sS'annie'
p5152
I96
sS'witch'
p5153
I96
sS'finds'
p5154
I96
sS'reasons'
p5155
I96
sS'sweet'
p5156
I93
sS'dudes'
p5157
I96
sS'crispy'
p5158
I96
sS'"v\xc3\xa1yanse'
p5159
I96
sS'pr'
p5160
I96
sS'ps'
p5161
I95
sS'ztill'
p5162
I96
sS'due'
p5163
I94
sS'pb'
p5164
I95
sS'pa'
p5165
I96
sS'make-up'
p5166
I96
sS'whoa'
p5167
I94
sS'woke'
p5168
I93
sS'flight'
p5169
I95
sS'cinco'
p5170
I96
sS'reason)'
p5171
I96
sS'behavior'
p5172
I95
sS'.....that'
p5173
I96
sS'napped'
p5174
I96
sS'rip'
p5175
I96
sS'demos'
p5176
I95
sS"movin'"
p5177
I96
sS'lakers'
p5178
I96
sS'st."'
p5179
I96
sS'camp...very'
p5180
I96
sS'shirt'
p5181
I93
sS'noooo'
p5182
I96
sS'peoples'
p5183
I96
sS'9'
p5184
I95
sS'bangs'
p5185
I96
sS'advise'
p5186
I96
sS'old...and'
p5187
I96
sS'ohsomuch'
p5188
I96
sS'....$30'
p5189
I96
sS'flows'
p5190
I96
sS'moving'
p5191
I92
sS'wheres'
p5192
I96
sS'breakfast\xe2\x80\x9d'
p5193
I96
sS"di'int"
p5194
I96
sS'dancing'
p5195
I94
sS'kraken'
p5196
I96
sS'bouncer'
p5197
I96
sS'06:24:38.0,34.2075763,-118.38883729,1224.10,i'
p5198
I96
sS'exgirlfriend'
p5199
I96
sS'all-star'
p5200
I95
sS'questions'
p5201
I96
sS'prince'
p5202
I96
sS'tables'
p5203
I96
sS'oaaaaaaaaks'
p5204
I96
sS'exclusively'
p5205
I95
sS'sittin'
p5206
I96
sS'moods'
p5207
I96
sS'shaped'
p5208
I96
sS'collect'
p5209
I96
sS'hittaz'
p5210
I94
sS'essential'
p5211
I96
sS'...enjoy'
p5212
I96
sS'fucking'
p5213
I87
sS'candy'
p5214
I95
sS'chumps'
p5215
I96
sS".....can't"
p5216
I96
sS'*hides'
p5217
I96
sS'meds'
p5218
I95
sS'tends'
p5219
I96
sS'yoooo'
p5220
I96
sS'zombie'
p5221
I95
sS'palmed'
p5222
I96
sS'00:45:58.0,34.20692893,-118.39588633,1224.10,you'
p5223
I96
sS'range'
p5224
I96
sS'wanna'
p5225
I78
sS'go-to'
p5226
I96
sS'clubhouse'
p5227
I95
sS'auntie'
p5228
I96
sS'darts'
p5229
I96
sS'ee-ee-ee'
p5230
I96
sS'nigga'
p5231
I96
sS'loove'
p5232
I96
sS'***at'
p5233
I96
sS'certified'
p5234
I95
sS'impressed'
p5235
I96
sS'bruv'
p5236
I96
sS'question'
p5237
I93
sS'ca)'
p5238
I89
sS'fast'
p5239
I92
sS'prettier'
p5240
I96
sS'bruh'
p5241
I94
sS'files'
p5242
I96
sS'mountains'
p5243
I96
sS'her...and'
p5244
I96
sS'115'
p5245
I96
sS'asain'
p5246
I96
sS'fries'
p5247
I95
sS"hasn't"
p5248
I96
sS'stalking'
p5249
I96
sS'yurrrr'
p5250
I96
sS'reorder'
p5251
I96
sS'highlight'
p5252
I96
sS'oooooww'
p5253
I96
sS'z'
p5254
I96
sS'called'
p5255
I89
sS'freak'
p5256
I96
sS'dile'
p5257
I96
sS'2:22)'
p5258
I96
sS',91605\n504431985675083776,bb_asher,2014-08-27'
p5259
I96
sS'grr'
p5260
I96
sS'camcorders'
p5261
I96
sS'peach'
p5262
I96
sS'peace'
p5263
I95
sS'2do'
p5264
I96
sS'nice'
p5265
I78
sS'problems'
p5266
I96
sS'posters'
p5267
I96
sS'remix'
p5268
I74
sS'happier'
p5269
I96
sS'lead'
p5270
I94
sS'vice'
p5271
I96
sS'keefmas'
p5272
I96
sS'dehydrated'
p5273
I96
sS'back"'
p5274
I96
sS'once'
p5275
I91
sS'edm'
p5276
I94
sS'steve'
p5277
I96
sS'gang'
p5278
I96
sS'issues'
p5279
I96
sS'giveaway!winner'
p5280
I96
sS'it!\xe2\x80\x9d'
p5281
I96
sS'(carbonated'
p5282
I96
sS'gina'
p5283
I95
sS'spoon'
p5284
I96
sS'wishes'
p5285
I96
sS"..can't"
p5286
I96
sS'drinking'
p5287
I95
sS"'mutant"
p5288
I96
sS'13014'
p5289
I96
sS'someday'
p5290
I96
sS'smaller'
p5291
I96
sS'..man'
p5292
I96
sS'muthafffffff'
p5293
I96
sS'kris'
p5294
I96
sS'waiting'
p5295
I92
sS'"most'
p5296
I96
sS'love....you!!!!\xe2\x80\x9d'
p5297
I96
sS'degree'
p5298
I96
sS'...ca'
p5299
I96
sS'...see'
p5300
I96
sS'sexy'
p5301
I94
sS'bench"'
p5302
I96
sS'...that'
p5303
I95
sS'calvin'
p5304
I96
sS'leaving'
p5305
I94
sS'reds'
p5306
I96
sS'app'
p5307
I95
sS'confession'
p5308
I96
sS'duck'
p5309
I96
sS'apply'
p5310
I96
sS'redo'
p5311
I96
sS'use'
p5312
I90
sS'from'
p5313
I48
sS'hippie'
p5314
I96
sS'&'
p5315
I21
sS'few'
p5316
I81
sS'nightbass'
p5317
I96
sS'eagles'
p5318
I95
sS'sort'
p5319
I96
sS'musician'
p5320
I96
sS'impress'
p5321
I96
sS'women'
p5322
I96
sS'midterm'
p5323
I96
sS'inlife...keep'
p5324
I96
sS'\xe2\x8c\x9a\xef\xb8\x8fits'
p5325
I96
sS'siick'
p5326
I96
sS'aight'
p5327
I96
sS'proof'
p5328
I96
sS'tat'
p5329
I96
sS'tax'
p5330
I94
sS'tag'
p5331
I96
sS'hilton'
p5332
I96
sS'something'
p5333
I75
sS'onions'
p5334
I96
sS'sir'
p5335
I94
sS'united'
p5336
I96
sS'syndrome'
p5337
I95
sS'decaying'
p5338
I96
sS'guru'
p5339
I96
sS'six'
p5340
I96
sS'sic'
p5341
I96
sS'brian'
p5342
I96
sS'sia'
p5343
I96
sS'sid'
p5344
I96
sS'instead'
p5345
I87
sS'panic'
p5346
I96
sS'mentirosa'
p5347
I96
sS'hazard'
p5348
I96
sS'abuse'
p5349
I96
sS'taco'
p5350
I94
sS'reupholstered'
p5351
I96
sS'light'
p5352
I91
sS'honestly'
p5353
I95
sS'"huh?"'
p5354
I96
sS'looks'
p5355
I78
sS'135'
p5356
I96
sS'underwater'
p5357
I96
sS'ships'
p5358
I96
sS'permanent'
p5359
I96
sS'choose'
p5360
I93
sS'orange'
p5361
I96
sS'bye'
p5362
I95
sS'rsvp'
p5363
I96
sS',91605\n502264264288006145,bb_asher,2014-08-21'
p5364
I96
sS'citrus'
p5365
I96
sS'wolfgang'
p5366
I96
sS'headache\xe2\x80\x9d'
p5367
I96
sS'mushrooms'
p5368
I95
sS'sleeve'
p5369
I96
sS'edit'
p5370
I94
sS'billy'
p5371
I96
sS'trap'
p5372
I94
sS'.people...our'
p5373
I96
sS'champ'
p5374
I96
sS'trax'
p5375
I91
sS'.....its'
p5376
I95
sS'studios'
p5377
I95
sS'bentley'
p5378
I96
sS'hollwoooooooood'
p5379
I96
sS'our'
p5380
I72
sS'80'
p5381
I96
sS'out'
p5382
I25
sS'buy....for'
p5383
I96
sS'honorable'
p5384
I96
sS'outkast'
p5385
I96
sS'phrase]'
p5386
I96
sS'conflicts'
p5387
I96
sS'570-er'
p5388
I96
sS'tenant'
p5389
I96
sS'g'
p5390
I96
sS'\xe2\x9a\xbe\xef\xb8\x8f\xe2\x9a\xaa\xef\xb8\x8f'
p5391
I96
sS'"hell'
p5392
I96
sS'angeles.ca'
p5393
I96
sS'4th'
p5394
I96
sS'shutout'
p5395
I96
sS'insane'
p5396
I96
sS"doesn't"
p5397
I91
sS'bmore'
p5398
I96
sS'theis'
p5399
I96
sS'their'
p5400
I86
sS"god's"
p5401
I94
sS'wppi'
p5402
I96
sS'shell'
p5403
I96
sS'bombest'
p5404
I96
sS'(gun'
p5405
I96
sS'july'
p5406
I94
sS'boring'
p5407
I93
sS'patients'
p5408
I96
sS'colab'
p5409
I92
sS'yodel'
p5410
I96
sS'1.5'
p5411
I96
sS'faux'
p5412
I96
sS'afraid'
p5413
I96
sS'allergies'
p5414
I95
sS'hechos'
p5415
I96
sS'which'
p5416
I92
sS'='
p5417
I93
sS'jyeah'
p5418
I96
sS'knees'
p5419
I95
sS'collaboration'
p5420
I96
sS'who'
p5421
I58
sS'why'
p5422
I65
sS'mcdonalds........i'
p5423
I96
sS'ho'
p5424
I93
sS'91.on'
p5425
I96
sS'planning'
p5426
I96
sS'chicken'
p5427
I90
sS'feat'
p5428
I93
sS'pleased'
p5429
I95
sS'blizzcon'
p5430
I95
sS'craziness'
p5431
I96
sS'"jumpin'
p5432
I96
sS'lemme'
p5433
I96
sS'love/hate'
p5434
I96
sS'combo'
p5435
I96
sS'studded'
p5436
I96
sS'thousands'
p5437
I96
sS'2ba'
p5438
I96
sS'cube'
p5439
I96
sS'workin'
p5440
I96
sS'watching'
p5441
I83
sS'mainly'
p5442
I96
sS'dope'
p5443
I88
sS'awww'
p5444
I96
sS'ones'
p5445
I94
sS'words'
p5446
I92
sS'chips'
p5447
I93
sS'ghetto'
p5448
I94
sS'brain'
p5449
I94
sS'exit.going'
p5450
I96
sS'married'
p5451
I95
sS'jaime'
p5452
I95
sS'\xe2\x99\xbb\xef\xb8\x8fthe'
p5453
I96
sS'view'
p5454
I96
sS'available'
p5455
I95
sS'....summer'
p5456
I96
sS'expel'
p5457
I96
sS'....her'
p5458
I96
sS',91605\n506958304304566272,bb_asher,2014-09-03'
p5459
I96
sS'bears'
p5460
I96
sS'gahh'
p5461
I96
sS'gmail'
p5462
I96
sS'cole'
p5463
I95
sS'closet'
p5464
I96
sS'favor'
p5465
I96
sS'mexicans'
p5466
I93
sS'welled'
p5467
I96
sS'*slurps'
p5468
I96
sS'bought'
p5469
I96
sS'ability'
p5470
I95
sS'trynna'
p5471
I96
sS'amen'
p5472
I88
sS'joy'
p5473
I93
sS'job'
p5474
I88
sS'jog'
p5475
I96
sS'april'
p5476
I96
sS'atleast'
p5477
I96
sS'grail'
p5478
I96
sS'retrograde'
p5479
I96
sS'bronx'
p5480
I96
sS'...more'
p5481
I96
sS'makin'
p5482
I96
sS'growin'
p5483
I96
sS'walk'
p5484
I92
sS'respect'
p5485
I94
sS'lyin'
p5486
I96
sS'....looking'
p5487
I96
sS'decent'
p5488
I95
sS'literal'
p5489
I94
sS'....you'
p5490
I94
sS'reservations'
p5491
I95
sS'mike'
p5492
I95
sS'crappy'
p5493
I96
sS'hmm'
p5494
I96
sS"'after"
p5495
I96
sS'improved'
p5496
I96
sS'present'
p5497
I96
sS'vanilla'
p5498
I96
sS'choices'
p5499
I96
sS'will'
p5500
I51
sS'influential'
p5501
I96
sS'wild'
p5502
I94
sS'~'
p5503
I96
sS'mutant'
p5504
I95
sS'synchole'
p5505
I96
sS'refs'
p5506
I96
sS'cross'
p5507
I95
sS'eric'
p5508
I96
sS'yourbusiness'
p5509
I96
sS'merciful'
p5510
I96
sS'inch'
p5511
I96
sS'samson'
p5512
I96
sS'gets'
p5513
I92
sS'difficult'
p5514
I96
sS'"they'
p5515
I95
sS'yooo'
p5516
I95
sS'slave'
p5517
I96
sS'promo'
p5518
I96
sS'student'
p5519
I95
sS'..donald'
p5520
I96
sS'banging'
p5521
I96
sS'fighting'
p5522
I96
sS'......hiz'
p5523
I96
sS'english'
p5524
I96
sS'percent'
p5525
I96
sS"should've"
p5526
I94
sS'wealthy'
p5527
I95
sS'mix\xe2\x80\x9d'
p5528
I96
sS'recap'
p5529
I96
sS'(north'
p5530
I91
sS'happiness'
p5531
I95
sS'consume'
p5532
I96
sS'supply'
p5533
I96
sS'book'
p5534
I93
sS'13th.....plus'
p5535
I96
sS'"bum'
p5536
I96
sS'myth'
p5537
I96
sS"who's"
p5538
I92
sS'frighteningly'
p5539
I96
sS'know'
p5540
I56
sS'facial'
p5541
I96
sS'press'
p5542
I96
sS'loogey'
p5543
I96
sS'tragus'
p5544
I96
sS'miami'
p5545
I92
sS'bandulator'
p5546
I96
sS'loser'
p5547
I96
sS'vortex'
p5548
I96
sS'because'
p5549
I74
sS'scared'
p5550
I94
sS'tumblr'
p5551
I96
sS'growth'
p5552
I96
sS'holler'
p5553
I91
sS'110'
p5554
I96
sS'112'
p5555
I96
sS'hoooooot'
p5556
I96
sS'breakthroughs'
p5557
I96
sS'11-12:15'
p5558
I96
sS'bosses'
p5559
I96
sS'leader'
p5560
I95
sS'300000'
p5561
I96
sS'enuf'
p5562
I96
sS'ripper'
p5563
I96
sS'iggor'
p5564
I96
sS'pasta'
p5565
I91
sS'tempered'
p5566
I96
sS'throne'
p5567
I96
sS'rare'
p5568
I95
sS'getting'
p5569
I72
sS'column'
p5570
I96
sS'universe'
p5571
I96
sS'swear'
p5572
I95
sS'own'
p5573
I88
sS'owe'
p5574
I96
sS'..as'
p5575
I96
sS'weather'
p5576
I95
sS'promise'
p5577
I94
sS'..at'
p5578
I96
sS'adore,91605\n498741992197996546,bb_asher,2014-08-11'
p5579
I96
sS'....l\xe2\x97\x8f\xe2\x97\x8fk!ng'
p5580
I96
sS'yankee'
p5581
I96
sS'val'
p5582
I96
sS'artifacts'
p5583
I95
sS'friends'
p5584
I91
sS'*'
p5585
I96
sS'apps'
p5586
I96
sS'kidding'
p5587
I95
sS'pouts'
p5588
I96
sS"i've"
p5589
I70
sS'bitches'
p5590
I96
sS'mailed'
p5591
I96
sS'made'
p5592
I76
sS'recory'
p5593
I96
sS'distract'
p5594
I96
sS'record'
p5595
I96
sS'below'
p5596
I96
sS'cake'
p5597
I94
sS'lvl'
p5598
I96
sS'myy'
p5599
I96
sS'jenny'
p5600
I96
sS'year'
p5601
I81
sS'se\xc3\xb1or'
p5602
I96
sS'goodness'
p5603
I96
sS'adorbs'
p5604
I96
sS'happen'
p5605
I92
sS'boot'
p5606
I95
sS'pills'
p5607
I96
sS'other'
p5608
I79
sS'f\xc2\xa3w....could'
p5609
I96
sS'sick'
p5610
I66
sS'incredibly'
p5611
I96
sS'chavez'
p5612
I96
sS'toasty'
p5613
I96
sS'nah-maybe'
p5614
I96
sS'kinda'
p5615
I81
sS'validation'
p5616
I96
sS'curful'
p5617
I96
sS'bwoi'
p5618
I96
sS'ha"\xe2\x80\x9d'
p5619
I96
sS'sash'
p5620
I96
s.