(dp0
S''
p1
I1
sS'all'
p2
I11
sS':('
p3
I18
sS':)'
p4
I17
sS'stalked'
p5
I18
sS'sleep'
p6
I16
sS'go'
p7
I13
sS'follow'
p8
I18
sS'luvkaykisses\xe2\x80\xa6'
p9
I18
sS'herbalife'
p10
I18
sS'thursday'
p11
I18
sS'to'
p12
I3
sS'alani'
p13
I18
sS'text'
p14
I17
sS'te'
p15
I18
sS'tb'
p16
I18
sS'esther'
p17
I18
sS'far'
p18
I17
sS'spasumem'
p19
I18
sS'hardwork'
p20
I18
sS'vegas'
p21
I18
sS'fall'
p22
I18
sS'word'
p23
I18
sS'difference'
p24
I18
sS':p'
p25
I18
sS'cool'
p26
I18
sS'dinner/get'
p27
I18
sS'bestfriend'
p28
I18
sS'did'
p29
I17
sS'clothes'
p30
I18
sS"i'll"
p31
I18
sS'talked'
p32
I18
sS'penalties'
p33
I17
sS'japanese'
p34
I18
sS'winds'
p35
I18
sS'layover'
p36
I18
sS'even'
p37
I17
sS'what'
p38
I15
sS'crush'
p39
I18
sS'uhmm'
p40
I18
sS'blur'
p41
I18
sS'new'
p42
I18
sS'gawd'
p43
I17
sS'full'
p44
I18
sS"c'mon"
p45
I18
sS'pancakes'
p46
I18
sS'jamerov'
p47
I18
sS'never'
p48
I16
sS'french'
p49
I18
sS'gladys'
p50
I18
sS'\xe2\x9d\xa4\xef\xb8\x8f'
p51
I15
sS'baseball'
p52
I18
sS'pancake'
p53
I18
sS'sing'
p54
I18
sS'great'
p55
I17
sS'\xe2\x9a\xbd\xef\xb8\x8f'
p56
I18
sS'my'
p57
I6
sS'action'
p58
I18
sS"i'm"
p59
I15
sS'makes'
p60
I18
sS'eyebrows'
p61
I18
sS'love'
p62
I12
sS'guacamole'
p63
I18
sS'family'
p64
I15
sS'extra'
p65
I18
sS'win'
p66
I18
sS'crazy'
p67
I18
sS'you\xe2\x80\x99re'
p68
I18
sS'yeeeeeh'
p69
I18
sS'gosh'
p70
I18
sS'use'
p71
I17
sS'cheating'
p72
I18
sS'from'
p73
I15
sS'would'
p74
I17
sS'&'
p75
I12
sS'two'
p76
I17
sS'france'
p77
I18
sS'themselves'
p78
I18
sS'today'
p79
I18
sS'more'
p80
I17
sS'babe'
p81
I17
sS'holy'
p82
I18
sS'it'
p83
I9
sS'flag'
p84
I18
sS"ain't"
p85
I18
sS'basically'
p86
I18
sS'me'
p87
I11
sS'join'
p88
I18
sS'err'
p89
I18
sS'niggas'
p90
I18
sS'this'
p91
I12
sS'work'
p92
I18
sS'mi'
p93
I18
sS'sad\xe2\x80\x9d'
p94
I18
sS'can'
p95
I17
sS'den'
p96
I18
sS'following'
p97
I18
sS'camry'
p98
I18
sS'bites'
p99
I18
sS'history'
p100
I17
sS'novia'
p101
I18
sS'estate'
p102
I14
sS'give'
p103
I18
sS'awesome'
p104
I17
sS"didn't"
p105
I18
sS'fuck'
p106
I14
sS'high'
p107
I18
sS'homie'
p108
I18
sS'want'
p109
I16
sS'dj'
p110
I18
sS'outfits'
p111
I18
sS'hoe'
p112
I18
sS'end'
p113
I18
sS'turn'
p114
I18
sS'till'
p115
I18
sS'amazing'
p116
I17
sS'fans/coaches/players'
p117
I18
sS'beach'
p118
I18
sS'staying'
p119
I18
sS'beauty'
p120
I18
sS'!:)'
p121
I16
sS'giggs'
p122
I18
sS'lag'
p123
I18
sS'yasss'
p124
I18
sS'birthday'
p125
I18
sS'poked'
p126
I18
sS'coming'
p127
I18
sS'fits'
p128
I18
sS'such'
p129
I18
sS'guys'
p130
I18
sS'man'
p131
I18
sS'a'
p132
I4
sS'cursing'
p133
I18
sS'short'
p134
I18
sS'remember'
p135
I17
sS'burn\xe2\x80\xa6'
p136
I18
sS'shady'
p137
I18
sS'appreciate'
p138
I18
sS'rollin'
p139
I18
sS'q'
p140
I18
sS'switch'
p141
I18
sS'lightsaturday'
p142
I18
sS'talk'
p143
I18
sS"that's"
p144
I17
sS'cute'
p145
I17
sS"don't"
p146
I13
sS'course'
p147
I18
sS'through'
p148
I18
sS'smiling'
p149
I17
sS'still'
p150
I18
sS'before'
p151
I18
sS'messed'
p152
I18
sS'forma'
p153
I18
sS'group'
p154
I18
sS'thank'
p155
I17
sS'la'
p156
I17
sS'interesting'
p157
I17
sS'actually'
p158
I18
sS'late'
p159
I18
sS'30mins'
p160
I18
sS'argentina'
p161
I18
sS'happened'
p162
I18
sS'dad'
p163
I18
sS'then'
p164
I12
sS'them'
p165
I18
sS'someone'
p166
I18
sS'yo'
p167
I18
sS'dike'
p168
I18
sS'mention'
p169
I18
sS'kiss'
p170
I18
sS'not'
p171
I16
sS'now'
p172
I17
sS'day'
p173
I18
sS'always'
p174
I16
sS'drake'
p175
I18
sS'rocks'
p176
I18
sS'went'
p177
I18
sS"isn't"
p178
I18
sS'heavy'
p179
I18
sS'en'
p180
I16
sS'doing'
p181
I18
sS'house'
p182
I16
sS'yeah'
p183
I18
sS'bowls'
p184
I18
sS'\xe2\x9a\xbe\xef\xb8\x8f\xe2\x9c\x8a'
p185
I18
sS'surrendersunday'
p186
I18
sS'year'
p187
I17
sS'our'
p188
I17
sS'beyond'
p189
I18
sS'out'
p190
I16
sS'rt'
p191
I18
sS'rude'
p192
I18
sS'open'
p193
I17
sS'since'
p194
I18
sS'mason'
p195
I18
sS'got'
p196
I17
sS'cause'
p197
I18
sS'managed'
p198
I18
sS'common'
p199
I18
sS'guess'
p200
I18
sS'you.\xe2\x80\x9d'
p201
I18
sS'cookie'
p202
I18
sS'disneyland'
p203
I18
sS'put'
p204
I18
sS'ash'
p205
I18
sS'prepare'
p206
I18
sS'could'
p207
I16
sS'days'
p208
I17
sS'keep'
p209
I18
sS'thing'
p210
I17
sS'think'
p211
I17
sS'first'
p212
I16
sS'enjoy'
p213
I18
sS'already'
p214
I18
sS'dont'
p215
I17
sS'one'
p216
I14
sS'colombia'
p217
I18
sS'xs'
p218
I18
sS'message'
p219
I17
sS'miss'
p220
I18
sS'tomorrow'
p221
I18
sS'story'
p222
I18
sS'hott'
p223
I18
sS'silent'
p224
I18
sS'girls'
p225
I18
sS'their'
p226
I18
sS'too'
p227
I16
sS'rockin'
p228
I18
sS'john'
p229
I18
sS'nutrition'
p230
I18
sS'relationship'
p231
I17
sS'that'
p232
I12
sS'sores'
p233
I18
sS'huh'
p234
I18
sS'loved'
p235
I18
sS'"patches"'
p236
I18
sS'i\xe2\x80\x99ll'
p237
I18
sS'gotta'
p238
I17
sS'players'
p239
I18
sS'daaaaaaaaaaaaamn'
p240
I18
sS'spoiled'
p241
I18
sS'pre'
p242
I18
sS'san'
p243
I18
sS'tonight'
p244
I18
sS'have'
p245
I12
sS'need'
p246
I17
sS'saw'
p247
I17
sS'any'
p248
I18
sS'dallas'
p249
I18
sS'-'
p250
I18
sS'amame'
p251
I18
sS'zoo'
p252
I18
sS'take'
p253
I18
sS"you'er"
p254
I18
sS'so'
p255
I12
sS'mis'
p256
I18
sS'youuuu'
p257
I18
sS'blue'
p258
I18
sS'sure'
p259
I18
sS'godfather'
p260
I18
sS'though'
p261
I17
sS'who'
p262
I17
sS'germany'
p263
I18
sS'why'
p264
I17
sS'especially'
p265
I18
sS'stranded'
p266
I18
sS'metal'
p267
I18
sS'clean'
p268
I18
sS'abraham'
p269
I18
sS'elachas'
p270
I18
sS'saying'
p271
I18
sS'skating'
p272
I18
sS'lmaoo'
p273
I17
sS'taofriday'
p274
I18
sS'watch'
p275
I18
sS'shoe'
p276
I18
sS'corner'
p277
I18
sS'find'
p278
I18
sS'principal'
p279
I18
sS'finally'
p280
I18
sS'life\xe2\x80\x9d'
p281
I18
sS'penalty'
p282
I18
sS'only'
p283
I18
sS'going'
p284
I16
sS'black'
p285
I18
sS'pretty'
p286
I18
sS'hope'
p287
I18
sS'do'
p288
I13
sS'hit'
p289
I17
sS'get'
p290
I16
sS'beat'
p291
I18
sS'michigan'
p292
I17
sS'de'
p293
I18
sS'stop'
p294
I15
sS'pave'
p295
I18
sS'darbear'
p296
I16
sS'joint'
p297
I18
sS'b'
p298
I18
sS'narek'
p299
I18
sS'him'
p300
I17
sS'avett'
p301
I18
sS'cry'
p302
I18
sS'garcia'
p303
I14
sS'bad'
p304
I17
sS'she'
p305
I18
sS'uhmmmm'
p306
I18
sS'set'
p307
I18
sS'decides'
p308
I18
sS'fair'
p309
I18
sS'see'
p310
I18
sS'vinewood'
p311
I18
sS'dumb'
p312
I18
sS'are'
p313
I14
sS'sea'
p314
I18
sS'!!\xe2\x80\x9d'
p315
I17
sS'best'
p316
I18
sS'concern'
p317
I18
sS'brazil'
p318
I17
sS'visiting'
p319
I17
sS'wow'
p320
I18
sS'please'
p321
I18
sS'lose'
p322
I18
sS'hopefully'
p323
I18
sS'we'
p324
I11
sS'tus'
p325
I18
sS'omg'
p326
I17
sS'were'
p327
I17
sS'kez'
p328
I18
sS'jk'
p329
I18
sS'cousin'
p330
I18
sS'come'
p331
I18
sS'\xe2\x9d\xa4\xef\xb8\x8f\xe2\x9d\xa4\xef\xb8\x8f\xe2\x9d\xa4\xef\xb8\x8f\xe2\x9d\xa4\xef\xb8\x8f'
p332
I18
sS'c'
p333
I18
sS'last'
p334
I18
sS'talented'
p335
I18
sS'brat'
p336
I18
sS'thou'
p337
I17
sS'barely'
p338
I18
sS'foreign'
p339
I18
sS'april'
p340
I18
sS'connection'
p341
I18
sS'\xe2\x9d\xa4\xef\xb8\x8f\xe2\x9d\xa4\xef\xb8\x8f\xe2\x9d\xa4\xef\xb8\x8f\xe2\x9d\xa4\xef\xb8\x8f\xe2\x9d\xa4\xef\xb8\x8f\xe2\x9d\xa4\xef\xb8\x8f\xe2\x9d\xa4\xef\xb8\x8f'
p342
I18
sS'whole'
p343
I18
sS"can't"
p344
I17
sS'and'
p345
I6
sS'drunk'
p346
I17
sS'wall'
p347
I18
sS'tuesday'
p348
I17
sS'whatever'
p349
I18
sS'source'
p350
I18
sS"it's"
p351
I16
sS'sara'
p352
I18
sS'been'
p353
I18
sS'sleepover'
p354
I18
sS'much'
p355
I16
sS'damn'
p356
I18
sS'yah'
p357
I18
sS'damm'
p358
I18
sS'life'
p359
I16
sS'lived'
p360
I18
sS'flight'
p361
I18
sS'gay'
p362
I18
sS'lives'
p363
I18
sS'kicks'
p364
I18
sS'those'
p365
I18
sS'chuy'
p366
I18
sS'pierce'
p367
I18
sS'aaron'
p368
I18
sS'unify'
p369
I18
sS'look'
p370
I18
sS'straight'
p371
I18
sS'stink'
p372
I18
sS'cane'
p373
I16
sS'mexico'
p374
I17
sS'is'
p375
I5
sS'coffee'
p376
I18
sS'cant'
p377
I18
sS'triple'
p378
I18
sS'in'
p379
I8
sS'ready'
p380
I18
sS'if'
p381
I14
sS'funny'
p382
I18
sS'intense'
p383
I18
sS'anymore'
p384
I18
sS'james'
p385
I18
sS'things'
p386
I18
sS'make'
p387
I18
sS'belong'
p388
I18
sS'ayeeeeee'
p389
I18
sS'corridos'
p390
I17
sS'!:0'
p391
I18
sS'party'
p392
I18
sS'gets'
p393
I17
sS'slanging'
p394
I18
sS'week'
p395
I18
sS'diego'
p396
I18
sS'hang'
p397
I18
sS'\xe2\x9c\x94\xef\xb8\x8f'
p398
I18
sS'sunburn'
p399
I18
sS'i'
p400
I2
sS'congrats'
p401
I18
sS'well'
p402
I17
sS'iffy'
p403
I18
sS'thought'
p404
I18
sS'cheer'
p405
I18
sS'wyd'
p406
I18
sS'very'
p407
I18
sS'the'
p408
I3
sS'my\xe2\x80\xa6'
p409
I18
sS'summer'
p410
I18
sS'stores'
p411
I18
sS'they'
p412
I18
sS'just'
p413
I10
sS'being'
p414
I18
sS'unfair'
p415
I18
sS'thanks'
p416
I18
sS'yes'
p417
I16
sS'kindness'
p418
I18
sS'magically'
p419
I18
sS'grounded'
p420
I18
sS'point'
p421
I18
sS'had'
p422
I18
sS'cuz'
p423
I18
sS'killed'
p424
I18
sS'tessanne'
p425
I18
sS'lets'
p426
I18
sS'spread'
p427
I18
sS'4'
p428
I18
sS'glyphs'
p429
I18
sS'real'
p430
I18
sS'amo'
p431
I18
sS'couple'
p432
I18
sS"who's"
p433
I18
sS'gonna'
p434
I17
sS'know'
p435
I14
sS'mom'
p436
I18
sS'performance'
p437
I18
sS'world'
p438
I17
sS'asshole'
p439
I18
sS'color'
p440
I18
sS'dignity'
p441
I18
sS'like'
p442
I15
sS'honestly'
p443
I18
sS'ignore'
p444
I18
sS'night'
p445
I14
sS'right'
p446
I16
sS'deal'
p447
I18
sS'people'
p448
I17
sS'twitter'
p449
I18
sS'some'
p450
I18
sS'back'
p451
I18
sS'kbbq'
p452
I18
sS"med's"
p453
I18
sS'home'
p454
I18
sS'total'
p455
I18
sS'for'
p456
I13
sS'nooo'
p457
I18
sS'ice'
p458
I18
sS'everything'
p459
I18
sS'be'
p460
I11
sS'moccasins'
p461
I18
sS'"candid"'
p462
I18
sS'how'
p463
I18
sS'step'
p464
I18
sS'lover'
p465
I18
sS'super'
p466
I18
sS'by'
p467
I17
sS'darerov'
p468
I18
sS'on'
p469
I11
sS'sister'
p470
I18
sS'ok'
p471
I17
sS'twd'
p472
I18
sS'oh'
p473
I18
sS'og'
p474
I18
sS'of'
p475
I10
sS'favorite'
p476
I17
sS'burbank'
p477
I18
sS'plus'
p478
I18
sS'idk'
p479
I18
sS'misma'
p480
I18
sS'seeing'
p481
I17
sS'spreading'
p482
I18
sS'soo'
p483
I18
sS'ppl'
p484
I18
sS'down'
p485
I18
sS'because'
p486
I18
sS'parties'
p487
I18
sS'mustaches'
p488
I18
sS'your'
p489
I14
sS'sue\xc3\xb1os'
p490
I17
sS'wack'
p491
I18
sS'her'
p492
I16
sS'hes'
p493
I18
sS'there'
p494
I16
sS'won!!!\xe2\x9a\xbd\xef\xb8\x8f'
p495
I18
sS'lol'
p496
I7
sS'kidding'
p497
I18
sS'way'
p498
I16
sS'was'
p499
I13
sS'happy'
p500
I17
sS'ascend'
p501
I18
sS'bitches'
p502
I18
sS'but'
p503
I17
sS'boys'
p504
I18
sS'!!:)'
p505
I18
sS'goals'
p506
I17
sS'with'
p507
I14
sS'bug'
p508
I18
sS'he'
p509
I14
sS'bahhhhhhhhhhhhh'
p510
I18
sS'made'
p511
I18
sS'wish'
p512
I17
sS'inside'
p513
I17
sS'up'
p514
I16
sS'us'
p515
I18
sS'stalking'
p516
I18
sS'um'
p517
I18
sS'sadness'
p518
I18
sS'\xe2\x9c\x8b\xe2\x9c\x8a'
p519
I18
sS'bell'
p520
I18
sS"argentina's"
p521
I18
sS'camp'
p522
I18
sS'ohh'
p523
I18
sS'am'
p524
I17
sS'an'
p525
I14
sS'at'
p526
I14
sS'goodness'
p527
I18
sS'again'
p528
I18
sS'no'
p529
I18
sS'when'
p530
I17
sS'5'
p531
I18
sS'boom'
p532
I18
sS'you'
p533
I3
sS'really'
p534
I17
sS'tia'
p535
I18
sS'nice'
p536
I18
sS'repeat'
p537
I18
sS'brothers'
p538
I18
sS'monday'
p539
I18
sS'class'
p540
I18
sS'kinda'
p541
I18
sS'weekend'
p542
I15
sS'holes'
p543
I18
sS'together'
p544
I16
sS'miguel\xe2\x80\x9d'
p545
I18
sS'2001'
p546
I18
sS'time'
p547
I15
sS'serious'
p548
I18
sS'having'
p549
I18
sS'stick'
p550
I18
s.