(dp0
S''
p1
I1
sS'essay'
p2
I26
sS'all'
p3
I23
sS':('
p4
I26
sS':)'
p5
I27
sS'chain'
p6
I27
sS'pit//carried'
p7
I27
sS'dollar'
p8
I27
sS'ouch'
p9
I27
sS'baby'
p10
I27
sS'sleep'
p11
I24
sS'aly'
p12
I27
sS'go'
p13
I23
sS'follow'
p14
I26
sS'hate'
p15
I25
sS'whose'
p16
I27
sS'killings'
p17
I27
sS'tweet'
p18
I27
sS'young'
p19
I27
sS'to'
p20
I4
sS'finally'
p21
I24
sS'mate'
p22
I27
sS'those'
p23
I27
sS'tf'
p24
I27
sS'smile'
p25
I25
sS'now:)'
p26
I27
sS'worth'
p27
I26
sS'woman'
p28
I27
sS'worse'
p29
I27
sS'very'
p30
I26
sS'fav'
p31
I27
sS'wave'
p32
I25
sS'vegas'
p33
I26
sS'every'
p34
I25
sS'jack'
p35
I27
sS'fam'
p36
I27
sS'ticket'
p37
I27
sS'screaming'
p38
I27
sS'tickets'
p39
I27
sS'entire'
p40
I27
sS'refollow'
p41
I27
sS'staples'
p42
I26
sS'did'
p43
I23
sS'valley'
p44
I27
sS'posts'
p45
I27
sS'brother'
p46
I27
sS'anxious'
p47
I27
sS'hatuchay)'
p48
I26
sS'team'
p49
I27
sS'quick'
p50
I26
sS'guy'
p51
I25
sS'dodger'
p52
I27
sS"i'll"
p53
I23
sS'upper'
p54
I27
sS'cookies'
p55
I27
sS'sleeeeeep'
p56
I27
sS'instagram'
p57
I27
sS'tired'
p58
I26
sS'tea'
p59
I26
sS'tee'
p60
I27
sS'funknroll'
p61
I27
sS'burger'
p62
I27
sS'trash'
p63
I27
sS'creatures'
p64
I27
sS'even'
p65
I26
sS'what'
p66
I25
sS'corazon'
p67
I27
sS'chicago'
p68
I26
sS'sun'
p69
I27
sS'lights'
p70
I27
sS'payday'
p71
I27
sS'diaz'
p72
I24
sS'melo'
p73
I27
sS'new'
p74
I25
sS'ever'
p75
I26
sS'nails'
p76
I27
sS'disney'
p77
I27
sS'up..but'
p78
I27
sS'oldies'
p79
I27
sS'ticketmaster'
p80
I27
sS'never'
p81
I26
sS'meh'
p82
I27
sS'here'
p83
I26
sS'tires)'
p84
I25
sS'\xe2\x9d\xa4\xef\xb8\x8f'
p85
I25
sS'negros"'
p86
I27
sS'let'
p87
I24
sS'say"'
p88
I27
sS'alone'
p89
I27
sS'sexy'
p90
I27
sS'along'
p91
I26
sS'strong'
p92
I27
sS'change'
p93
I27
sS'wait'
p94
I27
sS'box'
p95
I27
sS'ring\xe2\x80\x9d'
p96
I27
sS'talent'
p97
I27
sS'downpipe'
p98
I27
sS'riviera'
p99
I27
sS'lakers'
p100
I27
sS'640'
p101
I27
sS"i'd"
p102
I27
sS"i'm"
p103
I9
sS'love'
p104
I18
sS'yessss'
p105
I27
sS'family'
p106
I27
sS'suddenly'
p107
I27
sS'uggghhhh'
p108
I27
sS'put'
p109
I27
sS'chunky'
p110
I27
sS'singing'
p111
I27
sS'yourself'
p112
I27
sS'eye'
p113
I26
sS'would'
p114
I24
sS'&'
p115
I19
sS'catchy'
p116
I27
sS'brnir'
p117
I27
sS'mexico'
p118
I27
sS'dude'
p119
I26
sS'next'
p120
I24
sS'jam'
p121
I27
sS'music'
p122
I26
sS'tell'
p123
I27
sS'today'
p124
I25
sS'more'
p125
I24
sS'flat'
p126
I27
sS'israel'
p127
I27
sS'babe'
p128
I27
sS'pretty'
p129
I27
sS'company'
p130
I27
sS'haha'
p131
I25
sS'sister'
p132
I26
sS'stressing'
p133
I27
sS'99'
p134
I27
sS'phone'
p135
I27
sS'trillness'
p136
I27
sS"ain't"
p137
I26
sS'lord'
p138
I27
sS'\xe2\x9d\xa4\xef\xb8\x8f\xe2\x9d\xa4\xef\xb8\x8f'
p139
I27
sS'flan'
p140
I27
sS'me'
p141
I11
sS'keeping'
p142
I27
sS'balls'
p143
I27
sS'room'
p144
I26
sS'mc'
p145
I27
sS'this'
p146
I20
sS'car'
p147
I27
sS'work'
p148
I22
sS'mi'
p149
I27
sS'soul'
p150
I26
sS'can'
p151
I21
sS'mr'
p152
I27
sS'knocked'
p153
I27
sS'making'
p154
I27
sS'my'
p155
I5
sS'something'
p156
I27
sS'beautiful'
p157
I27
sS'heart'
p158
I25
sS'crazy'
p159
I26
sS'slip'
p160
I27
sS'give'
p161
I27
sS'awesome'
p162
I27
sS"didn't"
p163
I27
sS'fuck'
p164
I24
sS'high'
p165
I27
sS'heard'
p166
I27
sS'\xe2\x98\x95\xef\xb8\x8f'
p167
I27
sS'dropped'
p168
I27
sS'want'
p169
I24
sS'allowed'
p170
I27
sS'wonderful'
p171
I27
sS'drive'
p172
I27
sS'times'
p173
I27
sS'americas'
p174
I27
sS'blueberries'
p175
I27
sS'hoe'
p176
I27
sS'end'
p177
I27
sS'awkward'
p178
I27
sS'yaaaas'
p179
I27
sS'watching'
p180
I27
sS'till'
p181
I27
sS'sunday'
p182
I26
sS'ish'
p183
I27
sS'hop'
p184
I27
sS'"some'
p185
I27
sS'ayyyyy'
p186
I27
sS'\xe2\x9d\xa4\xef\xb8\x8f\xe2\x9d\xa4\xef\xb8\x8f\xe2\x9d\xa4\xef\xb8\x8f'
p187
I27
sS'poker'
p188
I27
sS'sandwich'
p189
I27
sS'intended'
p190
I27
sS'mess'
p191
I27
sS'watch'
p192
I27
sS'after'
p193
I26
sS'aaaah'
p194
I27
sS'wrong'
p195
I27
sS'jumping'
p196
I27
sS'mad'
p197
I27
sS'taco'
p198
I24
sS'such'
p199
I27
sS'suck'
p200
I27
sS'tacos'
p201
I26
sS'guys'
p202
I26
sS'las'
p203
I27
sS'a'
p204
I7
sS'realized'
p205
I27
sS'wanna'
p206
I25
sS'idc'
p207
I27
sS'backwoods'
p208
I27
sS'so'
p209
I18
sS'swollen'
p210
I27
sS'banks'
p211
I26
sS'fan'
p212
I27
sS'playing'
p213
I27
sS"that's"
p214
I26
sS'cute'
p215
I27
sS'mexican'
p216
I27
sS'help'
p217
I27
sS'office'
p218
I27
sS"don't"
p219
I23
sS'over'
p220
I27
sS'fall'
p221
I27
sS'sooo'
p222
I27
sS'years'
p223
I27
sS'bcuz'
p224
I27
sS'paper'
p225
I27
sS'through'
p226
I27
sS'cruise'
p227
I27
sS'kanye'
p228
I27
sS'still'
p229
I22
sS'mayor'
p230
I27
sS'before'
p231
I27
sS'perfect'
p232
I27
sS'style'
p233
I27
sS'cuppppp'
p234
I27
sS'group'
p235
I27
sS'thank'
p236
I27
sS'la'
p237
I25
sS'pray'
p238
I27
sS'recreational'
p239
I26
sS'hot'
p240
I25
sS'[pic]'
p241
I26
sS'late'
p242
I27
sS'lx'
p243
I27
sS'bye'
p244
I26
sS'might'
p245
I26
sS"haven't"
p246
I27
sS'2012'
p247
I27
sS'burping'
p248
I27
sS'then'
p249
I26
sS'them'
p250
I26
sS'someone'
p251
I25
sS'sisters'
p252
I27
sS'yo'
p253
I26
sS'food'
p254
I25
sS'galleria'
p255
I27
sS'thalia'
p256
I27
sS'lunch'
p257
I27
sS'hurting'
p258
I27
sS"you've"
p259
I27
sS'not'
p260
I20
sS'now'
p261
I18
sS'discuss'
p262
I27
sS'cex'
p263
I27
sS'term'
p264
I27
sS'everytime'
p265
I27
sS'always'
p266
I25
sS"she's"
p267
I27
sS'quenas'
p268
I27
sS'rock'
p269
I27
sS'found'
p270
I27
sS'side'
p271
I27
sS"isn't"
p272
I27
sS'mean'
p273
I27
sS'em'
p274
I27
sS'el'
p275
I20
sS'everyone'
p276
I27
sS'gunna'
p277
I27
sS'yeah'
p278
I27
sS'wednesday'
p279
I27
sS'our'
p280
I26
sS'girl'
p281
I21
sS'bay'
p282
I27
sS'todo'
p283
I27
sS'es'
p284
I27
sS'out'
p285
I16
sS'album'
p286
I27
sS'leave'
p287
I27
sS'trending'
p288
I27
sS'missed'
p289
I27
sS'twice'
p290
I27
sS'god'
p291
I26
sS'tried'
p292
I27
sS'since'
p293
I27
sS'\xe2\x98\x95\xe2\x98\x95'
p294
I27
sS'blackbird'
p295
I27
sS'seriously'
p296
I26
sS'stupid'
p297
I26
sS'kent'
p298
I27
sS'smh'
p299
I26
sS'got'
p300
I19
sS'rn'
p301
I25
sS'cause'
p302
I27
sS'red'
p303
I27
sS'common'
p304
I27
sS'ass'
p305
I25
sS'shut'
p306
I26
sS'dodgers'
p307
I27
sS'monster'
p308
I27
sS'city'
p309
I27
sS'cars'
p310
I27
sS'million'
p311
I27
sS'free'
p312
I27
sS'gyot'
p313
I27
sS'reason'
p314
I27
sS'que'
p315
I27
sS'rebel'
p316
I27
sS'members'
p317
I27
sS'x'
p318
I27
sS"bffl's"
p319
I27
sS'enlightened'
p320
I27
sS'care'
p321
I27
sS'drinking'
p322
I27
sS'where'
p323
I27
sS'drizzling'
p324
I27
sS'hollywood'
p325
I27
sS'days'
p326
I27
sS'timer'
p327
I27
sS'keep'
p328
I27
sS'thing'
p329
I25
sS'palmers'
p330
I27
sS"today's"
p331
I27
sS'scouts'
p332
I27
sS'think'
p333
I22
sS'fuckin'
p334
I27
sS'first'
p335
I27
sS'already'
p336
I27
sS'feel'
p337
I22
sS'coming'
p338
I27
sS'number'
p339
I27
sS'one'
p340
I24
sS'jealous'
p341
I27
sS'done'
p342
I27
sS'long'
p343
I27
sS'another'
p344
I27
sS'booty'
p345
I27
sS'ring'
p346
I27
sS'miss'
p347
I27
sS'tomorrow'
p348
I27
sS'hood'
p349
I27
sS"you're"
p350
I25
sS'guess'
p351
I26
sS'their'
p352
I27
sS'top'
p353
I26
sS'girls'
p354
I25
sS'anyone'
p355
I27
sS'needed'
p356
I27
sS'2'
p357
I25
sS'too'
p358
I26
sS'texas'
p359
I27
sS'man'
p360
I27
sS'store'
p361
I26
sS'hella'
p362
I27
sS'anus'
p363
I27
sS'eyes'
p364
I26
sS'stars'
p365
I27
sS'that'
p366
I14
sS'season'
p367
I27
sS'interviewed'
p368
I27
sS'rejected'
p369
I27
sS'tomarow'
p370
I27
sS'dentist'
p371
I27
sS'part'
p372
I27
sS"that'll"
p373
I27
sS'thai'
p374
I27
sS'believe'
p375
I27
sS'ecotourism'
p376
I27
sS'than'
p377
I25
sS'boyfriend'
p378
I27
sS'"make'
p379
I27
sS'b'
p380
I27
sS'lmao'
p381
I26
sS'ew'
p382
I27
sS'bed'
p383
I27
sS'knives'
p384
I27
sS'maybe'
p385
I25
sS'college'
p386
I27
sS'feeling'
p387
I27
sS'solely'
p388
I27
sS'and'
p389
I10
sS'with.\xe2\x80\x9d'
p390
I27
sS'angel'
p391
I27
sS'ran'
p392
I27
sS'mine'
p393
I27
sS'sad'
p394
I27
sS'tonight'
p395
I24
sS'say'
p396
I27
sS'buy'
p397
I27
sS'suspense'
p398
I27
sS'rent'
p399
I27
sS'have'
p400
I23
sS'need'
p401
I27
sS'seen'
p402
I27
sS'seem'
p403
I27
sS'worst'
p404
I27
sS'craziest'
p405
I27
sS'thought'
p406
I27
sS'congrats'
p407
I27
sS'check'
p408
I27
sS'-'
p409
I26
sS'walk'
p410
I27
sS'omfg'
p411
I26
sS'take'
p412
I27
sS'babes'
p413
I27
sS'honestly'
p414
I27
sS'many'
p415
I27
sS'='
p416
I27
sS'zucchini'
p417
I27
sS'blue'
p418
I26
sS'begin'
p419
I27
sS'sure'
p420
I27
sS'opposite'
p421
I27
sS'sherman'
p422
I26
sS'maddy'
p423
I27
sS'hw'
p424
I27
sS'audition'
p425
I27
sS'rightbut'
p426
I27
sS'mouth'
p427
I27
sS'hearts'
p428
I27
sS'remarks'
p429
I27
sS'why'
p430
I25
sS'co-chino'
p431
I27
sS'kk'
p432
I27
sS'consumed'
p433
I27
sS'sale'
p434
I27
sS'face'
p435
I27
sS'definitely'
p436
I26
sS'facetimed'
p437
I27
sS'greaser'
p438
I27
sS'booked'
p439
I27
sS'ugh'
p440
I27
sS'whys'
p441
I27
sS'stove'
p442
I27
sS'queen'
p443
I27
sS'assholes'
p444
I27
sS'bring'
p445
I27
sS'nephew'
p446
I27
sS'chicken'
p447
I27
sS'find'
p448
I27
sS'upgrade'
p449
I27
sS'knowledge'
p450
I27
sS'('
p451
I25
sS'dick'
p452
I27
sS'state'
p453
I27
sS'should'
p454
I25
sS'rihanna'
p455
I27
sS'only'
p456
I25
sS'going'
p457
I24
sS'rich'
p458
I27
sS'money'
p459
I27
sS'charbroiled'
p460
I27
sS'riding'
p461
I27
sS'he'
p462
I27
sS'pointed'
p463
I27
sS'loved'
p464
I27
sS'wearing'
p465
I27
sS'do'
p466
I26
sS'his'
p467
I27
sS'handle'
p468
I27
sS'get'
p469
I15
sS'beat'
p470
I26
sS'prometh'
p471
I27
sS'honda'
p472
I27
sS'stop'
p473
I26
sS'trees'
p474
I27
sS'tbh'
p475
I27
sS'happiest'
p476
I27
sS'knowledgable'
p477
I27
sS'him'
p478
I24
sS'freaking'
p479
I27
sS'runs'
p480
I27
sS'bar'
p481
I27
sS'glory'
p482
I27
sS'chumash'
p483
I27
sS'fooling'
p484
I27
sS'morning'
p485
I27
sS'crazy"'
p486
I27
sS'bad'
p487
I26
sS'bae'
p488
I26
sS'she'
p489
I25
sS'mawnin'
p490
I27
sS'glendale'
p491
I27
sS"won't"
p492
I27
sS'hollywood)'
p493
I26
sS'\xe2\x9c\x8c\xef\xb8\x8f\xe2\x9c\x8c\xef\xb8\x8f\xe2\x9c\x8c\xef\xb8\x8f'
p494
I27
sS'decides'
p495
I27
sS'hour'
p496
I27
sS'w/'
p497
I26
sS'opposing'
p498
I27
sS'sex'
p499
I25
sS'see'
p500
I23
sS"joseph's"
p501
I27
sS'dumb'
p502
I26
sS'are'
p503
I20
sS'hell'
p504
I27
sS'tender'
p505
I27
sS'stanley'
p506
I27
sS'surgery'
p507
I27
sS'arm'
p508
I27
sS'best'
p509
I27
sS'movie'
p510
I27
sS'away'
p511
I26
sS'siam'
p512
I27
sS'please'
p513
I27
sS'tend'
p514
I27
sS'3'
p515
I27
sS"there's"
p516
I26
sS'hopefully'
p517
I27
sS'probably'
p518
I27
sS'rite'
p519
I27
sS'across'
p520
I27
sS'wide'
p521
I27
sS'ima'
p522
I27
sS'we'
p523
I22
sS'sole'
p524
I27
sS'omg'
p525
I26
sS'spoiled'
p526
I27
sS'killing'
p527
I26
sS'provecho'
p528
I27
sS'cut'
p529
I27
sS'coffee'
p530
I27
sS'armenian'
p531
I27
sS'hurts'
p532
I26
sS'butts'
p533
I27
sS'come'
p534
I26
sS'lollapalooza'
p535
I27
sS'staring'
p536
I27
sS'\xe2\x9d\xa4\xef\xb8\x8f\xe2\x9d\xa4\xef\xb8\x8f\xe2\x9d\xa4\xef\xb8\x8f\xe2\x9d\xa4\xef\xb8\x8f'
p537
I27
sS'last'
p538
I26
sS'reported'
p539
I27
sS'fault'
p540
I27
sS'tires'
p541
I27
sS'job'
p542
I27
sS'against'
p543
I27
sS'amazing'
p544
I27
sS'players'
p545
I27
sS'tour'
p546
I27
sS'became'
p547
I27
sS'omw'
p548
I27
sS'wheels'
p549
I24
sS'whole'
p550
I26
sS"can't"
p551
I24
sS'uuuugh'
p552
I27
sS'liked'
p553
I27
sS'point'
p554
I27
sS'sweet'
p555
I27
sS'tuesday'
p556
I27
sS'jk'
p557
I27
sS'nooooo'
p558
I27
sS'header'
p559
I27
sS'canyon'
p560
I26
sS'okaaaaaaaaaaaaaay'
p561
I27
sS'asleep'
p562
I27
sS'quit'
p563
I27
sS'light'
p564
I27
sS'deffinetly'
p565
I27
sS"it's"
p566
I22
sS'charts'
p567
I27
sS'been'
p568
I27
sS'home"'
p569
I27
sS'exhausted'
p570
I27
sS'much'
p571
I25
sS'puta'
p572
I27
sS'tina'
p573
I27
sS'bbq'
p574
I27
sS'life'
p575
I27
sS'pic'
p576
I27
sS'both'
p577
I27
sS'moved'
p578
I27
sS'gas'
p579
I26
sS'requires'
p580
I27
sS'else'
p581
I27
sS'moment'
p582
I27
sS'tequila'
p583
I27
sS'understand'
p584
I27
sS'tire....n'
p585
I27
sS'gah'
p586
I27
sS'"los'
p587
I27
sS'sleeeeeeepy'
p588
I27
sS'comfortable'
p589
I27
sS'coldwater'
p590
I26
sS'case'
p591
I27
sS'yuuuup'
p592
I27
sS'myself'
p593
I26
sS'duuuuuuu'
p594
I27
sS'look'
p595
I27
sS'these'
p596
I27
sS'2011'
p597
I27
sS'also'
p598
I27
sS'twigs'
p599
I27
sS'arnold'
p600
I27
sS'will'
p601
I26
sS'depp'
p602
I27
sS'remo'
p603
I25
sS'fun'
p604
I27
sS'situation'
p605
I27
sS"wouldn't"
p606
I27
sS'buen'
p607
I27
sS'eateries'
p608
I27
sS'lunchtime'
p609
I27
sS'staples)'
p610
I27
sS'is'
p611
I14
sS'sushi'
p612
I26
sS'it'
p613
I13
sS'know...unless'
p614
I27
sS'hatuchay'
p615
I27
sS'blah'
p616
I26
sS'cant'
p617
I27
sS'good'
p618
I25
sS'im'
p619
I27
sS'in'
p620
I10
sS'ave'
p621
I26
sS'protein'
p622
I27
sS'shift'
p623
I27
sS'goodfellas'
p624
I27
sS'if'
p625
I22
sS'cuisine'
p626
I27
sS'shooting'
p627
I27
sS'shirt'
p628
I27
sS'open'
p629
I27
sS'draking'
p630
I27
sS'things'
p631
I26
sS'make'
p632
I22
sS'same'
p633
I26
sS'any'
p634
I27
sS'followers'
p635
I27
sS'texting'
p636
I27
sS'inch'
p637
I27
sS'pan'
p638
I27
sS'yung'
p639
I27
sS'week'
p640
I27
sS'fka'
p641
I27
sS'oil'
p642
I27
sS'keys'
p643
I27
sS'zorro'
p644
I25
sS'fucked'
p645
I27
sS'hand'
p646
I27
sS'fucken'
p647
I27
sS'cucumber'
p648
I27
sS'kim'
p649
I27
sS'wheelchairs'
p650
I27
sS'nip'
p651
I27
sS'weird'
p652
I27
sS'recent'
p653
I27
sS'\xe2\x9c\x8c\xef\xb8\x8f'
p654
I26
sS'off'
p655
I26
sS'center'
p656
I25
sS'glitter'
p657
I27
sS'1978'
p658
I27
sS'i'
p659
I2
sS'restricted'
p660
I27
sS'well'
p661
I25
sS'tho'
p662
I27
sS'person'
p663
I27
sS'contact'
p664
I27
sS'flags'
p665
I27
sS'pitbull'
p666
I27
sS'y'
p667
I27
sS'secession'
p668
I27
sS'the'
p669
I3
sS'bumping'
p670
I26
sS'left'
p671
I24
sS'just'
p672
I8
sS'able'
p673
I27
sS'unfollow'
p674
I27
sS'sleepy'
p675
I25
sS'birthday'
p676
I27
sS'"surprise"'
p677
I27
sS'kill'
p678
I27
sS'thanks'
p679
I26
sS'behind'
p680
I27
sS'yes'
p681
I27
sS'yet'
p682
I27
sS'blow'
p683
I27
sS'76'
p684
I27
sS'sixteen'
p685
I27
sS'cus'
p686
I27
sS'ham'
p687
I27
sS'mix'
p688
I27
sS'thinking'
p689
I27
sS'cherry'
p690
I27
sS"everyone's"
p691
I27
sS'had'
p692
I26
sS'day'
p693
I27
sS'other'
p694
I27
sS'4'
p695
I26
sS'easy'
p696
I27
sS'homies'
p697
I27
sS'has'
p698
I27
sS'deadly'
p699
I27
sS'real'
p700
I27
sS'photo'
p701
I27
sS'read'
p702
I27
sS'big'
p703
I25
sS'gonna'
p704
I25
sS'early'
p705
I27
sS'game'
p706
I26
sS'were'
p707
I27
sS'traffic'
p708
I27
sS'know'
p709
I27
sS'mom'
p710
I27
sS'\xe0\xb8\xab\xe0\xb8\x99\xe0\xb9\x89\xe0\xb8\xb2\xe0\xb9\x80\xe0\xb8\x99\xe0\xb8\xb5\xe0\xb8\xa2\xe0\xb8\x99\xe0\xb8\x94\xe0\xb9\x89\xe0\xb8\xa7\xe0\xb8\xa2\xe0\xb8\xa3\xe0\xb8\xad\xe0\xb8\x87\xe0\xb8\x9e\xe0\xb8\xb7\xe0\xb9\x89\xe0\xb8\x99...\xe0\xb9\x81\xe0\xb8\xa3\xe0\xb9\x88\xe0\xb8\x94\xe0\xb8\xa1\xe0\xb8\xb0'
p711
I27
sS'world'
p712
I27
sS'crushes'
p713
I27
sS'cd'
p714
I27
sS'burnt'
p715
I27
sS'wings'
p716
I27
sS'ahem'
p717
I27
sS'in-n-out'
p718
I27
sS'like'
p719
I21
sS'refurbishing'
p720
I27
sS'steph'
p721
I27
sS't'
p722
I27
sS'kliris'
p723
I26
sS'night'
p724
I24
sS'roscoes'
p725
I27
sS'nice'
p726
I26
sS'nigga'
p727
I26
sS'old'
p728
I27
sS'who'
p729
I27
sS'people'
p730
I24
sS'fucking'
p731
I21
sS'scared'
p732
I27
sS'yolo'
p733
I27
sS'some'
p734
I26
sS'back'
p735
I27
sS'pusha'
p736
I27
sS'towards'
p737
I27
sS'dear'
p738
I27
sS'home'
p739
I25
sS'ewwwwwwwwwwwww'
p740
I27
sS'thinks'
p741
I27
sS'yesss'
p742
I27
sS'"what'
p743
I27
sS'recently'
p744
I27
sS'mood'
p745
I27
sS'for'
p746
I17
sS'nooo'
p747
I27
sS'fox'
p748
I27
sS'microwave'
p749
I27
sS'does'
p750
I26
sS'passion'
p751
I27
sS'station)'
p752
I27
sS'be'
p753
I16
sS'bf'
p754
I26
sS'grrr'
p755
I27
sS'bc'
p756
I27
sS'lmfao'
p757
I27
sS'journal'
p758
I27
sS'plz'
p759
I27
sS'how'
p760
I27
sS'darkskin'
p761
I27
sS'from'
p762
I24
sS'super'
p763
I25
sS'by'
p764
I26
sS'hearing'
p765
I27
sS'on'
p766
I14
sS'about'
p767
I22
sS'boondocks'
p768
I27
sS'ok'
p769
I24
sS'nothings'
p770
I27
sS'anything'
p771
I27
sS'oh'
p772
I26
sS'of'
p773
I12
sS'sri'
p774
I27
sS'favorite'
p775
I27
sS'40z'
p776
I27
sS'angeles'
p777
I27
sS'dinner'
p778
I26
sS'west'
p779
I27
sS'sry'
p780
I27
sS'sept'
p781
I27
sS'or'
p782
I25
sS'stakes'
p783
I27
sS'seeing'
p784
I27
sS'civic'
p785
I27
sS'wassgood'
p786
I27
sS'into'
p787
I26
sS'fooood'
p788
I27
sS'snapchat'
p789
I25
sS'martinez'
p790
I27
sS'nothing'
p791
I27
sS'daww'
p792
I27
sS'cent'
p793
I27
sS'sister.probably'
p794
I27
sS'your'
p795
I24
sS'smells'
p796
I26
sS'oooooo'
p797
I27
sS'mandalay'
p798
I27
sS'her'
p799
I25
sS'question'
p800
I27
sS'lol'
p801
I19
sS'class'
p802
I27
sS'lmfaooo'
p803
I27
sS'los'
p804
I27
sS'way'
p805
I25
sS'damn'
p806
I27
sS'bored'
p807
I27
sS'was'
p808
I22
sS'happy'
p809
I27
sS'dispensaries'
p810
I27
sS'medium'
p811
I27
sS'north'
p812
I25
sS"i've"
p813
I26
sS'jewish'
p814
I27
sS'coke'
p815
I27
sS'baaaaaaaaaaaarf'
p816
I27
sS'but'
p817
I18
sS'boys'
p818
I27
sS'with'
p819
I11
sS'usa'
p820
I27
sS"('"
p821
I27
sS'posted'
p822
I26
sS"they're"
p823
I26
sS'made'
p824
I27
sS'romantic'
p825
I27
sS'happen'
p826
I27
sS'cunt'
p827
I27
sS'wish'
p828
I27
sS'official'
p829
I27
sS'fries'
p830
I27
sS'up'
p831
I21
sS'mistake..more'
p832
I27
sS'stories'
p833
I27
sS'woke'
p834
I27
sS'emotional'
p835
I27
sS'clear'
p836
I27
sS'cmon'
p837
I27
sS'ordered'
p838
I27
sS'play'
p839
I27
sS'johnny'
p840
I27
sS'af'
p841
I26
sS'peruvian'
p842
I26
sS'certain'
p843
I27
sS'describe'
p844
I27
sS'am'
p845
I25
sS'date!maybe'
p846
I27
sS'an'
p847
I24
sS'as'
p848
I24
sS'work.thanks'
p849
I27
sS'right'
p850
I27
sS'at'
p851
I8
sS'aw'
p852
I27
sS'lifetime'
p853
I27
sS'cafe'
p854
I26
sS'(12807'
p855
I26
sS'shit'
p856
I25
sS'again'
p857
I27
sS'drum'
p858
I27
sS'no'
p859
I21
sS'fixing'
p860
I26
sS'when'
p861
I20
sS'green'
p862
I27
sS'handed'
p863
I27
sS'reality'
p864
I27
sS'rubber'
p865
I27
sS'deserved'
p866
I27
sS'book'
p867
I27
sS'witness'
p868
I27
sS'sick'
p869
I27
sS'better'
p870
I27
sS'476'
p871
I27
sS'you'
p872
I6
sS'really'
p873
I26
sS'10'
p874
I26
sS'picture'
p875
I27
sS'trip'
p876
I27
sS'brothers'
p877
I23
sS'monday'
p878
I27
sS'welcome'
p879
I27
sS'stay'
p880
I27
sS"let's"
p881
I26
sS'backstage'
p882
I27
sS'serious'
p883
I27
sS'disfruta"'
p884
I27
sS'dulce'
p885
I27
sS'amazayn\xe2\x80\x9d'
p886
I27
sS'oral'
p887
I27
sS'night..\xe2\x80\x9d'
p888
I27
sS'mask'
p889
I27
sS'walked'
p890
I27
sS'train'
p891
I27
sS'u'
p892
I13
sS'time'
p893
I22
sS'wake'
p894
I27
sS'starting'
p895
I26
sS'having'
p896
I25
sS'songs'
p897
I27
s.