(dp0
S''
p1
I1
sS'raining'
p2
I45
sS'sleep'
p3
I41
sS'appetite'
p4
I45
sS'hate'
p5
I40
sS'(which'
p6
I45
sS'whose'
p7
I43
sS'buddy'
p8
I45
sS'tweet'
p9
I45
sS'presents'
p10
I45
sS'aux'
p11
I45
sS'sorry'
p12
I44
sS'manis'
p13
I45
sS'rise'
p14
I45
sS'every'
p15
I42
sS'jack'
p16
I44
sS'bringing'
p17
I45
sS'tagging'
p18
I45
sS'school'
p19
I40
sS'wednesday'
p20
I45
sS'oooo'
p21
I45
sS'honor'
p22
I45
sS'babygirl'
p23
I45
sS'it.ur'
p24
I45
sS'force'
p25
I45
sS'specially'
p26
I45
sS'tired'
p27
I45
sS'phones'
p28
I45
sS'nail'
p29
I41
sS'street'
p30
I45
sS'swaxy'
p31
I45
sS'n'
p32
I44
sS'others)'
p33
I45
sS'even'
p34
I40
sS'cooking'
p35
I45
sS'(burbank'
p36
I40
sS'new'
p37
I36
sS'officially'
p38
I43
sS'disney'
p39
I45
sS'told'
p40
I45
sS'(aka'
p41
I45
sS'zach'
p42
I45
sS'pancakes'
p43
I45
sS'never'
p44
I42
sS'meh'
p45
I45
sS'here'
p46
I38
sS'\xe2\x9d\xa4\xef\xb8\x8f'
p47
I43
sS'protection'
p48
I45
sS'china'
p49
I45
sS'hers'
p50
I45
sS'kids'
p51
I45
sS'\xe2\x9c\x8a\xe2\x80\x9d'
p52
I45
sS'employees'
p53
I45
sS'changed'
p54
I45
sS'adopt'
p55
I45
sS"i'd"
p56
I45
sS'ako'
p57
I45
sS"i'm"
p58
I9
sS"someone's"
p59
I45
sS'wyoming'
p60
I45
sS'feelings'
p61
I45
sS'bro'
p62
I43
sS'patience'
p63
I45
sS'meats'
p64
I45
sS'would'
p65
I34
sS'negative'
p66
I45
sS'm5'
p67
I45
sS'call'
p68
I42
sS'sanomluang'
p69
I45
sS'type'
p70
I44
sS'tell'
p71
I45
sS'breathe'
p72
I45
sS'posting'
p73
I45
sS'holy'
p74
I44
sS'haha'
p75
I39
sS'hurt'
p76
I44
sS'phone'
p77
I44
sS'arms'
p78
I45
sS'lord'
p79
I45
sS'hold'
p80
I45
sS'must'
p81
I45
sS'me'
p82
I11
sS'join'
p83
I45
sS'work'
p84
I36
sS'mi'
p85
I45
sS'mj'
p86
I45
sS'movies'
p87
I44
sS'ms'
p88
I45
sS'mr'
p89
I45
sS'my'
p90
I5
sS'gloria'
p91
I45
sS'give'
p92
I42
sS'homie'
p93
I44
sS'want'
p94
I34
sS'totaled'
p95
I45
sS'hoe'
p96
I45
sS'end'
p97
I45
sS'thing'
p98
I43
sS'soror'
p99
I45
sS'sitting'
p100
I44
sS'how'
p101
I35
sS'hot'
p102
I43
sS'accusations'
p103
I45
sS'answer'
p104
I45
sS'if'
p105
I33
sS'beach'
p106
I45
sS'scion'
p107
I45
sS'bday'
p108
I45
sS'after'
p109
I41
sS'jumping'
p110
I45
sS'president'
p111
I43
sS'shirt'
p112
I42
sS'nidajoy'
p113
I45
sS'goodbye'
p114
I45
sS'keeps'
p115
I45
sS'order'
p116
I43
sS'salon'
p117
I45
sS'consent'
p118
I45
sS'over'
p119
I38
sS'strangle'
p120
I45
sS'before'
p121
I42
sS'ima'
p122
I44
sS'fit'
p123
I45
sS'sanams'
p124
I45
sS'destroyed'
p125
I45
sS'weeks'
p126
I44
sS'then'
p127
I44
sS'them'
p128
I42
sS'bans'
p129
I45
sS'workout'
p130
I44
sS'they'
p131
I38
sS'schools'
p132
I45
sS'one'
p133
I34
sS'03:07:27.0,34.20097069,-118.41590982,1234.20,thai'
p134
I45
sS'potatoes'
p135
I45
sS'arrow'
p136
I44
sS'addicted'
p137
I45
sS'went'
p138
I45
sS'crocs'
p139
I45
sS'mean'
p140
I42
sS'gunna'
p141
I44
sS'luang'
p142
I44
sS'crimes'
p143
I45
sS'taught'
p144
I45
sS'efron'
p145
I45
sS'whip'
p146
I45
sS'driving'
p147
I45
sS'haired'
p148
I45
sS'motel'
p149
I45
sS'george'
p150
I45
sS'got'
p151
I37
sS'rn'
p152
I43
sS'cutest'
p153
I45
sS"doesn't"
p154
I43
sS'leftovers'
p155
I45
sS'free'
p156
I45
sS'rigo'
p157
I45
sS'ate'
p158
I45
sS'bates'
p159
I45
sS'love"'
p160
I45
sS'"mean'
p161
I45
sS'days'
p162
I44
sS'priorities'
p163
I45
sS'ati'
p164
I45
sS"today's"
p165
I45
sS'soda'
p166
I45
sS'loud'
p167
I45
sS'fuckin'
p168
I44
sS'already'
p169
I44
sS'features'
p170
I45
sS'jjs'
p171
I45
sS'another'
p172
I44
sS'comin'
p173
I45
sS'\xe2\x9d\x84\xef\xb8\x8f\xe2\x9d\x84\xef\xb8\x8f\xe2\x9b\x84\xef\xb8\x8f\xe2\x9b\x84\xef\xb8\x8f\xe2\x9b\x84\xef\xb8\x8f\xe2\x9b\x84\xef\xb8\x8f'
p174
I45
sS'top'
p175
I45
sS'girls'
p176
I42
sS'needed'
p177
I45
sS'too'
p178
I29
sS'hollywood'
p179
I37
sS'legs'
p180
I45
sS',91606\n454838954739503104,powergor,2014-04-12'
p181
I45
sS'listen'
p182
I45
sS'murder'
p183
I45
sS'laqu\xc3\xa9'
p184
I44
sS'gym'
p185
I32
sS'wassap'
p186
I45
sS'lmao,91606\n373886880518905856,powergor,2013-08-31'
p187
I45
sS'distance'
p188
I45
sS'fitness)'
p189
I45
sS'fabulous'
p190
I45
sS'friend'
p191
I44
sS'feeling'
p192
I45
sS'mini'
p193
I45
sS'lbs'
p194
I45
sS'mind'
p195
I43
sS'ginger'
p196
I45
sS'talking'
p197
I43
sS'lula'
p198
I45
sS'seen'
p199
I45
sS'grind'
p200
I45
sS'ray'
p201
I45
sS'sensitive.\xe2\x80\x9d'
p202
I45
sS'praising'
p203
I45
sS'-'
p204
I43
sS'niece'
p205
I45
sS'nobody'
p206
I45
sS'pandora'
p207
I45
sS'though'
p208
I43
sS'phase'
p209
I45
sS'marie'
p210
I44
sS'tonight?,91605\n464240131265036288,call_me_kenye,2014-05-08'
p211
I45
sS'camp'
p212
I45
sS'metal'
p213
I45
sS'dog'
p214
I45
sS'freeway'
p215
I44
sS'definitely'
p216
I45
sS'annoyed'
p217
I45
sS'came'
p218
I45
sS'saying'
p219
I44
sS'random'
p220
I44
sS'ending'
p221
I44
sS'ever'
p222
I42
sS'just'
p223
I20
sS'cousins'
p224
I45
sS'riceee'
p225
I45
sS'hrs'
p226
I45
sS'tries'
p227
I45
sS'bailando'
p228
I45
sS'photo'
p229
I45
sS'rice'
p230
I45
sS'wearing'
p231
I45
sS'do'
p232
I31
sS'asstronaut'
p233
I45
sS'sunglasses'
p234
I45
sS'10'
p235
I43
sS'honda'
p236
I45
sS'watch'
p237
I41
sS'wedding'
p238
I45
sS'bar'
p239
I44
sS'caf\xc3\xa9)'
p240
I42
sS'disco'
p241
I45
sS'book'
p242
I44
sS'bad'
p243
I44
sS'bae'
p244
I41
sS'03:40:44.0,34.18787951,-118.41684647,1234.20,seeing'
p245
I45
sS'reference'
p246
I45
sS'w/'
p247
I39
sS'decided'
p248
I45
sS'miserable'
p249
I45
sS'noodles'
p250
I44
sS'yes'
p251
I36
sS'best'
p252
I40
sS'said'
p253
I42
sS'yours.\xe2\x80\x9d'
p254
I45
sS'away'
p255
I43
sS'catalogue'
p256
I45
sS"there's"
p257
I41
sS'-______-'
p258
I45
sS'we'
p259
I34
sS'men'
p260
I45
sS'omg'
p261
I41
sS'wtf'
p262
I43
sS'wth'
p263
I45
sS'cousin'
p264
I44
sS'picking'
p265
I45
sS'kitchen'
p266
I45
sS'met'
p267
I45
sS'tea?"me'
p268
I45
sS'country'
p269
I45
sS'jelly'
p270
I45
sS'shauntane'
p271
I45
sS'com'
p272
I45
sS'asked'
p273
I45
sS'pre'
p274
I45
sS'had'
p275
I42
sS'tony'
p276
I45
sS'trust'
p277
I44
sS'bathroom'
p278
I45
sS'beef'
p279
I44
sS'fri'
p280
I45
sS'three'
p281
I45
sS'been'
p282
I36
sS'much'
p283
I37
sS'life'
p284
I38
sS'caf\xc3\xa9'
p285
I29
sS'pista'
p286
I45
sS'church"'
p287
I45
sS'chill'
p288
I44
sS'tank'
p289
I45
sS'air'
p290
I44
sS'ugly'
p291
I44
sS'symbolically'
p292
I45
sS'ugliest'
p293
I45
sS'depp'
p294
I45
sS'mexico'
p295
I45
sS'is'
p296
I13
sS'sushi'
p297
I45
sS'it'
p298
I16
sS'skipping'
p299
I45
sS'cant'
p300
I43
sS'im'
p301
I36
sS'creepy'
p302
I45
sS'in'
p303
I12
sS'girls"'
p304
I45
sS'dad)'
p305
I45
sS'things'
p306
I44
sS'make'
p307
I38
sS'airport'
p308
I45
sS'hahah'
p309
I43
sS'wheel'
p310
I45
sS'pampering'
p311
I45
sS'unlimited'
p312
I45
sS'rain'
p313
I45
sS'saida'
p314
I45
sS'characters'
p315
I45
sS'redneck'
p316
I45
sS'jealous'
p317
I45
sS'blamed'
p318
I45
sS'kid'
p319
I44
sS'19:08:18.0,34.18940304,-118.41774283,1234.20,just'
p320
I45
sS'bell)'
p321
I44
sS'tho'
p322
I45
sS'greatest'
p323
I45
sS'francisco"'
p324
I45
sS'mother'
p325
I45
sS'the'
p326
I4
sS'spencer'
p327
I45
sS'consciousness'
p328
I45
sS'yea'
p329
I45
sS'gods'
p330
I45
sS'thanks'
p331
I41
sS'"fuck'
p332
I45
sS'yet'
p333
I45
sS'omfg'
p334
I45
sS'royal'
p335
I45
sS'ideal'
p336
I45
sS'salamat'
p337
I45
sS'ely'
p338
I45
sS'has'
p339
I43
sS'casting'
p340
I44
sS'bands'
p341
I45
sS'burnt'
p342
I45
sS'dreams'
p343
I45
sS'-_-'
p344
I45
sS'laque'
p345
I33
sS'535'
p346
I45
sS',91605\n464249768739622912,call_me_kenye,2014-05-08'
p347
I45
sS'night'
p348
I38
sS'right'
p349
I39
sS'old'
p350
I44
sS'deal'
p351
I45
sS'people'
p352
I36
sS'sends'
p353
I45
sS'toyota'
p354
I45
sS'today!\xe2\x80\xa6'
p355
I45
sS'dead'
p356
I45
sS'escape'
p357
I45
sS'outgrew'
p358
I45
sS"daddy's"
p359
I45
sS'for'
p360
I14
sS'purple'
p361
I45
sS'/'
p362
I45
sS'everything'
p363
I42
sS'cnn'
p364
I45
sS'foo'
p365
I45
sS'christmas'
p366
I45
sS'cord'
p367
I45
sS'dolce'
p368
I45
sS'burn'
p369
I45
sS'graduated'
p370
I45
sS'post'
p371
I45
sS'super'
p372
I44
sS'trophy'
p373
I45
sS'months'
p374
I45
sS'shanwhores'
p375
I45
sS'dinner'
p376
I38
sS"wtf\xe2\x80\x9dyou're"
p377
I45
sS'afternoon'
p378
I45
sS'stoked'
p379
I45
sS'slightly'
p380
I45
sS'idkkkk'
p381
I45
sS'facetime'
p382
I44
sS'nerve'
p383
I45
sS'aha'
p384
I45
sS'idkayyy'
p385
I45
sS'civic'
p386
I45
sS'son'
p387
I45
sS'down'
p388
I41
sS'thankful'
p389
I45
sS'rounds'
p390
I44
sS'support'
p391
I41
sS'crimester'
p392
I45
sS'way'
p393
I40
sS'jane'
p394
I45
sS'music'
p395
I45
sS'was'
p396
I18
sS'happy'
p397
I39
sS'head'
p398
I44
sS"ledger's"
p399
I45
sS'lawn'
p400
I45
sS'notifications'
p401
I45
sS'heat'
p402
I45
sS'uncle'
p403
I43
sS'true'
p404
I43
sS'braver'
p405
I45
sS'inside'
p406
I45
sS'daddy'
p407
I45
sS'medication'
p408
I45
sS'liberal'
p409
I45
sS'peruvian'
p410
I45
sS'drive'
p411
I38
sS'prayer'
p412
I45
sS'annoying'
p413
I45
sS'shit'
p414
I38
sS'03:45:44.0,34.2010013,-118.41585777,1234.20,anybody'
p415
I45
sS'no'
p416
I31
sS'na'
p417
I45
sS'commercials'
p418
I44
sS'tip'
p419
I45
sS'handed'
p420
I45
sS'til'
p421
I45
sS'role'
p422
I45
sS'schemin'
p423
I44
sS'roll'
p424
I45
sS'picture'
p425
I43
sS'brothers'
p426
I45
sS'welcome'
p427
I45
sS'rancheros'
p428
I45
sS'journey'
p429
I45
sS'weekend'
p430
I41
sS'died'
p431
I45
sS'dulce'
p432
I45
sS'happening'
p433
I45
sS'ati!\xe2\x80\x9d'
p434
I45
sS'nmin'
p435
I45
sS'time'
p436
I27
sS'serious'
p437
I44
sS'songs'
p438
I45
sS'neighbors'
p439
I45
sS':/'
p440
I45
sS':('
p441
I45
sS':)'
p442
I38
sS'regulars'
p443
I45
sS'dance'
p444
I44
sS'acrylics'
p445
I45
sS'walking'
p446
I43
sS'\xe2\x9c\xa8'
p447
I44
sS'[by'
p448
I45
sS'yummy'
p449
I44
sS'flash'
p450
I45
sS'father'
p451
I45
sS'disgusting'
p452
I45
sS'answered'
p453
I45
sS'finally'
p454
I42
sS'brown'
p455
I45
sS':d'
p456
I45
sS'vegas'
p457
I45
sS'masturbate'
p458
I45
sS'ma'
p459
I45
sS'minute'
p460
I43
sS'cool'
p461
I43
sS'market)'
p462
I44
sS'did'
p463
I45
sS'brother'
p464
I44
sS'soooo'
p465
I45
sS'diy'
p466
I45
sS'guy'
p467
I44
sS'talaga'
p468
I44
sS'cyber'
p469
I45
sS'sayo'
p470
I45
sS'onik'
p471
I45
sS'drinks'
p472
I45
sS'barbie'
p473
I45
sS'lmaooo,91606\n373530639393624065,powergor,2013-08-30'
p474
I45
sS'goes'
p475
I45
sS'falling'
p476
I44
sS'makeup'
p477
I45
sS'water'
p478
I43
sS'wait'
p479
I42
sS'boy'
p480
I43
sS'healthy'
p481
I45
sS'shift'
p482
I45
sS'bob'
p483
I45
sS'dippin'
p484
I44
sS'love'
p485
I24
sS'extra'
p486
I45
sS'nman'
p487
I45
sS'fake'
p488
I45
sS'everybody'
p489
I45
sS'perf'
p490
I45
sS'working'
p491
I44
sS'aye'
p492
I45
sS'dude'
p493
I39
sS'live'
p494
I41
sS'gabbana'
p495
I45
sS'thru'
p496
I44
sS'today'
p497
I38
sS'loving'
p498
I45
sS'sharing'
p499
I45
sS'club'
p500
I40
sS'chocolate'
p501
I45
sS'effort'
p502
I45
sS'car'
p503
I40
sS'purge'
p504
I45
sS'soup'
p505
I43
sS'can'
p506
I39
sS'making'
p507
I45
sS'crazy'
p508
I43
sS'valentines'
p509
I45
sS'figure'
p510
I45
sS'chip'
p511
I45
sS'dawwww'
p512
I45
sS"didn't"
p513
I41
sS'fuck'
p514
I37
sS'agent'
p515
I45
sS'vallarta'
p516
I44
sS'spa'
p517
I44
sS'cardio'
p518
I45
sS'pink'
p519
I45
sS'sidney'
p520
I45
sS'1'
p521
I43
sS'till'
p522
I44
sS'sunday'
p523
I44
sS'fourth'
p524
I45
sS'snaps'
p525
I45
sS'triathlon'
p526
I45
sS'mac'
p527
I45
sS'birthday'
p528
I40
sS'mad'
p529
I45
sS'date'
p530
I42
sS'such'
p531
I44
sS'guys'
p532
I44
sS'grow'
p533
I45
sS'man'
p534
I45
sS'natural'
p535
I44
sS'remember'
p536
I42
sS'maybe'
p537
I44
sS'st'
p538
I45
sS'q'
p539
I45
sS'mango'
p540
I45
sS'so'
p541
I23
sS'talk'
p542
I44
sS'typical'
p543
I45
sS'cute'
p544
I44
sS'-\xe2\x99\xa5'
p545
I45
sS'shoes'
p546
I44
sS'seeing'
p547
I45
sS'freckles'
p548
I45
sS'haircut'
p549
I43
sS'years'
p550
I42
sS'course'
p551
I43
sS'still'
p552
I43
sS'thank'
p553
I34
sS"he's"
p554
I44
sS'selves'
p555
I45
sS'amazing'
p556
I45
sS'offers'
p557
I45
sS'tweets'
p558
I45
sS'mail'
p559
I45
sS'into'
p560
I40
sS'happened'
p561
I43
sS'halp'
p562
I45
sS'moms'
p563
I45
sS'feelin'
p564
I45
sS'lunch'
p565
I45
sS'not'
p566
I29
sS'in-laws'
p567
I45
sS'now'
p568
I34
sS'killed'
p569
I45
sS'name'
p570
I42
sS'james'
p571
I45
sS't-rex'
p572
I45
sS'peasant'
p573
I45
sS'eh'
p574
I45
sS'yeah'
p575
I45
sS'zebra'
p576
I45
sS'year'
p577
I44
sS'girl'
p578
I41
sS'album'
p579
I45
sS'space'
p580
I45
sS'aftie'
p581
I45
sS'factory'
p582
I45
sS'looking'
p583
I44
sS'seriously'
p584
I45
sS"shouldn't"
p585
I45
sS'you...\xe2\x80\x9d'
p586
I45
sS'receiving'
p587
I45
sS'correct'
p588
I45
sS'cars'
p589
I45
sS'besides'
p590
I45
sS"lunchin'"
p591
I45
sS'card'
p592
I45
sS'care'
p593
I43
sS'gusta'
p594
I45
sS'yup'
p595
I44
sS'calories'
p596
I45
sS'gusto'
p597
I45
sS'turn'
p598
I44
sS'ova'
p599
I45
sS'place'
p600
I43
sS'gordon'
p601
I45
sS'yun'
p602
I44
sS'think'
p603
I38
sS'first'
p604
I42
sS'blind'
p605
I45
sS'cheese'
p606
I45
sS'laquenailbar'
p607
I32
sS'nutritional'
p608
I45
sS'zac'
p609
I45
sS'xd'
p610
I45
sS'yourself'
p611
I43
sS'fast'
p612
I45
sS'suspended'
p613
I45
sS'spanish'
p614
I45
sS'vote'
p615
I45
sS'open'
p616
I45
sS'tomorrow'
p617
I38
sS'little'
p618
I43
sS'\xe2\x99\xa1thank'
p619
I45
sS'anyone'
p620
I44
sS'returns'
p621
I45
sS'2'
p622
I41
sS'speaking'
p623
I45
sS'gives'
p624
I45
sS'eyes'
p625
I45
sS'that'
p626
I18
sS'huh'
p627
I45
sS'boba'
p628
I44
sS'ridiculous'
p629
I45
sS'thai'
p630
I43
sS'kabob'
p631
I42
sS'than'
p632
I38
sS'11'
p633
I45
sS'$15'
p634
I44
sS'13'
p635
I45
sS'lmao'
p636
I43
sS'gotta'
p637
I43
sS'future'
p638
I45
sS'were'
p639
I43
sS'and'
p640
I8
sS'ang'
p641
I43
sS'san'
p642
I45
sS'sac'
p643
I45
sS'ann'
p644
I45
sS'ano'
p645
I45
sS'sad'
p646
I43
sS'say'
p647
I43
sS'breakfast'
p648
I43
sS'saw'
p649
I43
sS'sat'
p650
I45
sS'dopee!\xe2\x80\x9d'
p651
I45
sS'recreated'
p652
I45
sS'dining'
p653
I45
sS'gotham'
p654
I45
sS'hookah'
p655
I45
sS'take'
p656
I39
sS'siesta'
p657
I45
sS'performance'
p658
I45
sS'buddy/trainer/nutritionist'
p659
I45
sS'sure'
p660
I43
sS'arguing'
p661
I45
sS'sherman'
p662
I45
sS'paid'
p663
I45
sS'forever'
p664
I44
sS'especially'
p665
I44
sS'later'
p666
I45
sS'hungry'
p667
I44
sS'madison'
p668
I45
sS'eamon'
p669
I45
sS'show'
p670
I45
sS'swaxiness'
p671
I45
sS'elac'
p672
I45
sS'aint'
p673
I45
sS'rogersilao'
p674
I45
sS'\xe4\xbb\x8a\xe4\xbd\x95\xe3\x81\x8c\xe8\xa1\x8c\xe3\x82\x8f\xe3\x82\x8c\xe3\x81\xa6\xe3\x82\x8b\xe3\x81\xae\xef\xbc\x9f\xef\xbc\x9f'
p675
I45
sS'treasure'
p676
I45
sS'gulo'
p677
I45
sS'only'
p678
I43
sS'going'
p679
I35
sS'black'
p680
I45
sS'posted'
p681
I45
sS'koya'
p682
I45
sS'get'
p683
I26
sS'hostage'
p684
I45
sS'outlet'
p685
I45
sS'dye'
p686
I45
sS'morning'
p687
I42
sS'joker'
p688
I45
sS'stupid'
p689
I42
sS'through'
p690
I44
sS'where'
p691
I42
sS'husband'
p692
I45
sS"y'all"
p693
I44
sS'medicated'
p694
I45
sS'wonder'
p695
I45
sS'camping'
p696
I45
sS'jumped'
p697
I45
sS'next\xe2\x9e\xa1\xef\xb8\x8f\xe2\x9e\xa1\xef\xb8\x8f\xe2\x9e\xa1\xef\xb8\x8f\xe2\x9e\xa1\xef\xb8\x8f'
p698
I45
sS'3'
p699
I43
sS'xeris'
p700
I45
sS'screen'
p701
I45
sS'supermarket'
p702
I44
sS'js'
p703
I45
sS'jo'
p704
I45
sS'come'
p705
I37
sS'according'
p706
I45
sS'patootie'
p707
I45
sS'mani'
p708
I45
sS"can't"
p709
I35
sS'deported'
p710
I45
sS'color'
p711
I45
sS'pot'
p712
I45
sS'tropez'
p713
I45
sS'69'
p714
I45
sS'better'
p715
I39
sS'impromptu'
p716
I45
sS'undershirt'
p717
I45
sS'almighty'
p718
I45
sS'punished'
p719
I45
sS'judging'
p720
I45
sS'naruto'
p721
I45
sS'jerky'
p722
I44
sS'mary'
p723
I45
sS'shopping'
p724
I43
sS'tiger'
p725
I45
sS'wake'
p726
I44
sS'irrelevant'
p727
I45
sS'those'
p728
I43
sS'myself'
p729
I44
sS'these'
p730
I39
sS'slumber'
p731
I45
sS'polls'
p732
I45
sS'trick'
p733
I45
sS'ratchet'
p734
I44
sS'purse'
p735
I45
sS'middle'
p736
I43
sS'someone'
p737
I41
sS'everyday'
p738
I42
sS'life,91606\n373522584509222913,powergor,2013-08-30'
p739
I45
sS'different'
p740
I45
sS'sippin'
p741
I45
sS'pay'
p742
I44
sS'same'
p743
I45
sS'food'
p744
I40
sS'heartbreak'
p745
I45
sS'pad'
p746
I45
sS'"i'
p747
I45
sS"12's"
p748
I45
sS'pal'
p749
I45
sS'week'
p750
I45
sS'centuries'
p751
I45
sS'nest'
p752
I45
sS'director'
p753
I45
sS'running'
p754
I45
sS'two'
p755
I45
sS'totally'
p756
I44
sS'weave'
p757
I45
sS'recital'
p758
I45
sS'without'
p759
I44
sS'comes'
p760
I45
sS'hubby'
p761
I45
sS'schoolers'
p762
I45
sS'being'
p763
I42
sS'when'
p764
I28
sS'pissing'
p765
I45
sS'tonys'
p766
I43
sS'death'
p767
I45
sS'lets'
p768
I45
sS'treatment'
p769
I45
sS'real'
p770
I41
sS'around'
p771
I44
sS'kills'
p772
I45
sS'read'
p773
I43
sS'amg'
p774
I45
sS'dark'
p775
I45
sS'listening'
p776
I45
sS'world'
p777
I43
sS'd-land'
p778
I45
sS'fortune'
p779
I45
sS'stranger'
p780
I45
sS'pounds'
p781
I45
sS'homegirl'
p782
I45
sS'chamber'
p783
I45
sS't'
p784
I45
sS'joking'
p785
I45
sS'doll'
p786
I44
sS'pickles'
p787
I44
sS"'r"
p788
I45
sS'ganun'
p789
I45
sS'mood'
p790
I45
sS'conservative'
p791
I45
sS'throat'
p792
I45
sS'abercrombie'
p793
I45
sS'felt'
p794
I45
sS'power'
p795
I45
sS'seconds'
p796
I45
sS'convincing'
p797
I45
sS'nails'
p798
I33
sS'credits'
p799
I45
sS'leadership'
p800
I45
sS';)'
p801
I43
sS'francis'
p802
I45
sS'ahold'
p803
I45
sS'on'
p804
I19
sS'ok'
p805
I42
sS'oh'
p806
I38
sS'of'
p807
I15
sS'favorite'
p808
I43
sS'side'
p809
I45
sS'stand'
p810
I45
sS'act'
p811
I45
sS'luck'
p812
I44
sS'cudi'
p813
I45
sS'road'
p814
I45
sS'phox>>>'
p815
I45
sS'informed'
p816
I45
sS'(12980'
p817
I45
sS'teana086'
p818
I41
sS'snapchat'
p819
I45
sS'dreaming'
p820
I45
sS'annoys'
p821
I45
sS'your'
p822
I24
sS'her'
p823
I36
sS'there'
p824
I40
sS'hey'
p825
I44
sS'lol'
p826
I32
sS'start'
p827
I43
sS'racist'
p828
I45
sS'flac???wtf'
p829
I45
sS'valley'
p830
I44
sS'chats'
p831
I45
sS'burry'
p832
I45
sS'03:17:11.0,34.201075,-118.4156644,1234.20,,91605\n471133879143641088,milaawhite,2014-05-27'
p833
I45
sS'twitter>instagram'
p834
I45
sS'with'
p835
I17
sS'spice'
p836
I44
sS"they're"
p837
I45
sS'hire'
p838
I45
sS'october'
p839
I45
sS"wasn't"
p840
I45
sS'tyga'
p841
I45
sS'\xe2\x9c\x8b\xe2\x9c\x8b\xe2\x9c\x8b\xe2\x9c\x8b'
p842
I45
sS'agree'
p843
I45
sS'gone'
p844
I45
sS'johnny'
p845
I45
sS'af'
p846
I43
sS'taste'
p847
I45
sS'forgot'
p848
I45
sS'moved'
p849
I45
sS'general'
p850
I44
sS'ap'
p851
I45
sS'as'
p852
I39
sS'at'
p853
I10
sS'watched'
p854
I44
sS'moves'
p855
I44
sS'beauty\xe2\x80\xa6'
p856
I45
sS'again'
p857
I44
sS'graduatin'
p858
I45
sS'idiot'
p859
I45
sS'drivers'
p860
I45
sS'5'
p861
I41
sS'bangluck'
p862
I42
sS'you'
p863
I7
sS'puppy'
p864
I45
sS'pedis'
p865
I45
sS'poor'
p866
I44
sS'obsessed'
p867
I44
sS'fresh'
p868
I45
sS'building'
p869
I44
sS'calls'
p870
I44
sS'wife'
p871
I43
sS'odds'
p872
I45
sS'having'
p873
I42
sS'u'
p874
I41
sS'god'
p875
I43
sS'alright'
p876
I45
sS':))'
p877
I44
sS'starting'
p878
I45
sS'all'
p879
I26
sS'alk'
p880
I45
sS'rascals'
p881
I45
sS'month'
p882
I44
sS'tv'
p883
I45
sS'wassup'
p884
I45
sS'to'
p885
I3
sS'program'
p886
I45
sS'tf'
p887
I45
sS'smile'
p888
I45
sS'enjoying'
p889
I45
sS'woman'
p890
I43
sS'worse'
p891
I45
sS'song'
p892
I43
sS'very'
p893
I45
sS'horror'
p894
I45
sS'fav'
p895
I44
sS'fat'
p896
I44
sS'candid'
p897
I45
sS'worst'
p898
I44
sS'brother\xe2\x80\x9dwhats'
p899
I45
sS'fam'
p900
I44
sS'ticket'
p901
I45
sS'treating'
p902
I44
sS'list'
p903
I44
sS'dinosaur'
p904
I45
sS'anal'
p905
I45
sS"i'll"
p906
I41
sS'instagram'
p907
I45
sS'reina'
p908
I45
sS'what'
p909
I23
sS'sun'
p910
I45
sS'abs'
p911
I45
sS'public'
p912
I45
sS'full'
p913
I45
sS'hours'
p914
I43
sS'saman'
p915
I45
sS'experience'
p916
I44
sS'amount'
p917
I44
sS'21:09:04.0,34.18876017,-118.41796908,1234.20,love'
p918
I45
sS'barker'
p919
I45
sS'put'
p920
I44
sS'trained'
p921
I45
sS'iglesias'
p922
I45
sS'takes'
p923
I45
sS'charge'
p924
I45
sS'shits'
p925
I45
sS'more'
p926
I39
sS'company'
p927
I44
sS"ain't"
p928
I45
sS'stick'
p929
I45
sS'broke'
p930
I44
sS'glad'
p931
I45
sS'town'
p932
I45
sS'hour'
p933
I44
sS'sucks'
p934
I44
sS'mall'
p935
I45
sS'learn'
p936
I45
sS'dee'
p937
I45
sS'history'
p938
I44
sS'beautiful'
p939
I42
sS'mehh'
p940
I45
sS'lolol'
p941
I45
sS'celine'
p942
I45
sS'sense'
p943
I45
sS'"this'
p944
I45
sS'dress'
p945
I45
sS'needs'
p946
I44
sS'rather'
p947
I45
sS'freshly'
p948
I45
sS'speeding'
p949
I45
sS'juvy'
p950
I45
sS'plottin'
p951
I45
sS'tried'
p952
I44
sS'advice'
p953
I45
sS'reflect'
p954
I45
sS'fb'
p955
I45
sS'coming'
p956
I45
sS'a'
p957
I6
sS'criticize'
p958
I45
sS'tweeting'
p959
I45
sS'eats'
p960
I45
sS'slacking'
p961
I45
sS'media'
p962
I40
sS'dream'
p963
I45
sS'playing'
p964
I44
sS"that's"
p965
I37
sS"don't"
p966
I33
sS'driving"'
p967
I45
sS'soon'
p968
I43
sS'attitude'
p969
I45
sS'flaunt'
p970
I45
sS'hell'
p971
I45
sS'mcdonalds'
p972
I45
sS'fairs-wheel'
p973
I45
sS'its'
p974
I44
sS'dont'
p975
I42
sS'20'
p976
I44
sS'21'
p977
I45
sS'blonde/lt'
p978
I45
sS'mattress'
p979
I45
sS'late'
p980
I42
sS'might'
p981
I45
sS"haven't"
p982
I43
sS'fool'
p983
I45
sS'hurting'
p984
I45
sS'good'
p985
I39
sS'yo'
p986
I45
sS'ya'
p987
I42
sS'hahahahahaha'
p988
I45
sS'starbucks'
p989
I45
sS'foot'
p990
I45
sS'everytime'
p991
I45
sS'always'
p992
I41
sS'habits'
p993
I45
sS'found'
p994
I44
sS"isn't"
p995
I45
sS',91605\n401944538157051904,angelomartinee,2013-11-17'
p996
I45
sS'everyone'
p997
I43
sS'house'
p998
I44
sS'hard'
p999
I44
sS'idea'
p1000
I45
sS'randolph'
p1001
I45
sS'really'
p1002
I44
sS'missed'
p1003
I44
sS'since'
p1004
I44
sS'health'
p1005
I40
sS'7'
p1006
I45
sS'ass'
p1007
I40
sS'pathetic'
p1008
I45
sS'guess'
p1009
I45
sS'conditioning'
p1010
I45
sS'ask'
p1011
I41
sS'beginning'
p1012
I45
sS"slenderman's"
p1013
I45
sS'american'
p1014
I45
sS'w'
p1015
I43
sS'bumper'
p1016
I45
sS'feed'
p1017
I45
sS'unhealthy'
p1018
I45
sS'feel'
p1019
I38
sS'yaself'
p1020
I45
sS'fancy'
p1021
I45
sS'feet'
p1022
I45
sS'fucked'
p1023
I45
sS'done'
p1024
I42
sS'miss'
p1025
I41
sS'story'
p1026
I44
sS'05:27:00.0,34.20101279,-118.4159286,1234.20,james'
p1027
I45
sS'mamu'
p1028
I45
sS'wonderful'
p1029
I44
sS'saint'
p1030
I45
sS'store'
p1031
I45
sS'jamin'
p1032
I45
sS'relationship'
p1033
I45
sS'driving."'
p1034
I45
sS'dentist'
p1035
I43
sS'part'
p1036
I45
sS'etsy'
p1037
I45
sS'obama'
p1038
I45
sS'king'
p1039
I44
sS'kind'
p1040
I44
sS'observatory'
p1041
I45
sS'zachary'
p1042
I45
sS'teana086laquenailbar'
p1043
I45
sS'stalk'
p1044
I45
sS'supposed'
p1045
I45
sS'insulted'
p1046
I45
sS'dang'
p1047
I44
sS'terrell'
p1048
I45
sS'motivation'
p1049
I45
sS'outta'
p1050
I45
sS'1:00'
p1051
I45
sS'cleaned'
p1052
I45
sS'gali'
p1053
I45
sS'mountain'
p1054
I45
sS'lil'
p1055
I45
sS'couch'
p1056
I45
sS'liz'
p1057
I45
sS'play'
p1058
I44
sS'tom-kha-kai'
p1059
I45
sS'most'
p1060
I45
sS'hired'
p1061
I45
sS'nothing'
p1062
I42
sS'sometimes'
p1063
I45
sS'cover'
p1064
I45
sS'maruchan'
p1065
I45
sS'college-student'
p1066
I45
sS'ugh'
p1067
I42
sS'summer'
p1068
I45
sS'fine'
p1069
I45
sS'find'
p1070
I42
sS'hipper'
p1071
I45
sS'nervous'
p1072
I43
sS'writes'
p1073
I45
sS'flights'
p1074
I45
sS'pretty'
p1075
I42
sS'8'
p1076
I45
sS'his'
p1077
I41
sS'hit'
p1078
I43
sS'ungrateful'
p1079
I45
sS'grocery'
p1080
I45
sS'feels'
p1081
I43
sS'during'
p1082
I45
sS'him'
p1083
I40
sS'typos'
p1084
I45
sS'enemy'
p1085
I45
sS'sleeve'
p1086
I45
sS'wonderful.b'
p1087
I45
sS'cry'
p1088
I45
sS'sanam'
p1089
I45
sS'hubby\xe2\x80\xa6'
p1090
I45
sS"((elisabeth's"
p1091
I45
sS'set'
p1092
I45
sS'sex'
p1093
I45
sS'see'
p1094
I43
sS'dumb'
p1095
I45
sS'are'
p1096
I22
sS'close'
p1097
I44
sS'angie'
p1098
I45
sS'movie'
p1099
I42
sS'wow'
p1100
I42
sS'currently'
p1101
I44
sS'please'
p1102
I42
sS'burned'
p1103
I45
sS'rlly'
p1104
I45
sS'watchin'
p1105
I45
sS'available'
p1106
I45
sS'yiking'
p1107
I45
sS'c'
p1108
I45
sS'last'
p1109
I43
sS'restaurant'
p1110
I45
sS'barely'
p1111
I45
sS'october...\xe2\x80\x9d'
p1112
I45
sS'whole'
p1113
I45
sS'babygirrrll\xe2\x9d\xa4\xef\xb8\x8f\xe2\x9d\xa4\xef\xb8\x8f\xe2\x9d\xa4\xef\xb8\x8f'
p1114
I45
sS'point'
p1115
I44
sS'buhay'
p1116
I45
sS'rad'
p1117
I45
sS'leon'
p1118
I45
sS'likes'
p1119
I45
sS'crispy'
p1120
I45
sS'headaches'
p1121
I45
sS'devil'
p1122
I45
sS'daquan'
p1123
I45
sS'monthly'
p1124
I45
sS'create'
p1125
I45
sS'whos'
p1126
I45
sS'secret'
p1127
I45
sS'pa'
p1128
I43
sS'now,91606\n494573940249853952,chrispiliguian,2014-07-30'
p1129
I45
sS'fav-cutie'
p1130
I45
sS'po'
p1131
I45
sS'empty'
p1132
I45
sS'4'
p1133
I45
sS'flight'
p1134
I44
sS"what's"
p1135
I44
sS'gas'
p1136
I45
sS'oitnb'
p1137
I45
sS'look'
p1138
I42
sS'frozen'
p1139
I45
sS'straight'
p1140
I45
sS'while'
p1141
I43
sS'fun'
p1142
I43
sS'robin'
p1143
I45
sS'pack'
p1144
I45
sS'<3'
p1145
I45
sS'rin'
p1146
I44
sS'vow'
p1147
I45
sS'ready'
p1148
I41
sS'funny'
p1149
I42
sS'fedora'
p1150
I45
sS'shorter'
p1151
I45
sS'kayo'
p1152
I45
sS'used'
p1153
I44
sS'wizzle'
p1154
I45
sS'cigar'
p1155
I45
sS'yesterday'
p1156
I45
sS'moment'
p1157
I44
sS'arrived'
p1158
I45
sS'gonna'
p1159
I41
sS'weird'
p1160
I44
sS'wheres'
p1161
I45
sS'early'
p1162
I43
sS'spent'
p1163
I45
sS'obviously'
p1164
I44
sS'person'
p1165
I44
sS'eles'
p1166
I45
sS'mom'
p1167
I43
sS'12:45'
p1168
I45
sS'his\xe2\x80\xa6'
p1169
I45
sS'questions'
p1170
I45
sS'letting'
p1171
I45
sS'cup'
p1172
I45
sS'cuz'
p1173
I45
sS'source'
p1174
I45
sS'parents'
p1175
I44
sS'exhibition'
p1176
I45
sS'presidents'
p1177
I45
sS'snap'
p1178
I45
sS'excited'
p1179
I45
sS'hates'
p1180
I45
sS'couple'
p1181
I44
sS'bib'
p1182
I45
sS'shitty'
p1183
I45
sS'game'
p1184
I45
sS'grandparents))'
p1185
I45
sS'hate)'
p1186
I45
sS'wingstop'
p1187
I45
sS'shabs'
p1188
I45
sS'shabu'
p1189
I45
sS'chaa)'
p1190
I45
sS'fucking'
p1191
I40
sS'some'
p1192
I41
sS'back'
p1193
I36
sS'wonderland'
p1194
I45
sS'"sismo"'
p1195
I45
sS'be'
p1196
I22
sS'bf'
p1197
I44
sS'run'
p1198
I45
sS'bb'
p1199
I44
sS'lamm_lamm'
p1200
I45
sS'bi'
p1201
I45
sS'nuevo'
p1202
I45
sS'nowhere'
p1203
I45
sS'by'
p1204
I39
sS'wealth'
p1205
I45
sS'faith'
p1206
I45
sS'anything'
p1207
I44
sS'netflix'
p1208
I42
sS'"take'
p1209
I45
sS'plaza'
p1210
I44
sS'idk'
p1211
I44
sS'nuys'
p1212
I45
sS'wanna'
p1213
I40
sS'block'
p1214
I44
sS'kailangan'
p1215
I45
sS'every1'
p1216
I45
sS'garbage'
p1217
I45
sS'terrorists'
p1218
I45
sS'mommy'
p1219
I45
sS'11:12'
p1220
I45
sS'because'
p1221
I42
sS'ayyy'
p1222
I45
sS'lesson'
p1223
I45
sS'katie'
p1224
I45
sS'renewal'
p1225
I45
sS'ca)'
p1226
I34
sS'long'
p1227
I42
sS'01:44:41.0,34.18888617,-118.41831565,1234.20,of'
p1228
I45
sS'suit'
p1229
I45
sS'bored'
p1230
I43
sS'himself'
p1231
I45
sS'poster'
p1232
I45
sS'boys'
p1233
I44
sS'episode'
p1234
I45
sS'\xe2\x99\xa5'
p1235
I45
sS'(la'
p1236
I45
sS'\xe2\x99\xa1'
p1237
I44
sS'up'
p1238
I29
sS'us'
p1239
I45
sS'stalking'
p1240
I45
sS'um'
p1241
I45
sS"tomorrow's"
p1242
I45
sS'un'
p1243
I44
sS'bell'
p1244
I44
sS'ko'
p1245
I43
sS'single'
p1246
I44
sS'curb'
p1247
I45
sS'box)'
p1248
I45
sS'cafe'
p1249
I43
sS'nak'
p1250
I45
sS'21years'
p1251
I45
sS'nap'
p1252
I45
sS'sizzurp'
p1253
I45
sS'nice'
p1254
I44
sS'$10000'
p1255
I45
sS'papa'
p1256
I45
sS'slenderbro'
p1257
I45
sS'prepared'
p1258
I45
sS'william'
p1259
I45
sS'meaning'
p1260
I45
sS'desert'
p1261
I45
sS'land'
p1262
I45
sS'practically'
p1263
I45
sS'heath'
p1264
I45
sS'waxing'
p1265
I45
sS'far'
p1266
I45
sS"she's"
p1267
I43
sS'hello'
p1268
I44
sS'once'
p1269
I45
sS'alien'
p1270
I45
sS'groceries'
p1271
I45
sS'go'
p1272
I31
sS'barbecue'
p1273
I45
sS'tweeted'
p1274
I45
sS'young'
p1275
I45
sS'send'
p1276
I45
sS'sent'
p1277
I45
sS'queen'
p1278
I45
sS'wished'
p1279
I45
sS'torture'
p1280
I45
sS'wishes'
p1281
I45
sS'try'
p1282
I44
sS'havent'
p1283
I45
sS'leonardo'
p1284
I45
sS'booty'
p1285
I45
sS'ngayon'
p1286
I45
sS'tempur-pedic'
p1287
I45
sS'video'
p1288
I45
sS'ummm'
p1289
I45
sS'spaghetti'
p1290
I45
sS'business'
p1291
I45
sS'schedule'
p1292
I45
sS'lmfao'
p1293
I45
sS'waiting'
p1294
I45
sS'twins'
p1295
I45
sS'ramsey'
p1296
I45
sS'let'
p1297
I43
sS'others'
p1298
I44
sS'sexy'
p1299
I44
sS'love\xe2\x9d\xa4\xef\xb8\x8f'
p1300
I45
sS'great'
p1301
I43
sS'30'
p1302
I45
sS'leaving'
p1303
I45
sS'makes'
p1304
I44
sS'ruin'
p1305
I45
sS'apple'
p1306
I45
sS'win'
p1307
I45
sS'apply'
p1308
I45
sS'singing'
p1309
I45
sS'cha'
p1310
I45
sS'use'
p1311
I45
sS'from'
p1312
I32
sS'&'
p1313
I41
sS'next'
p1314
I44
sS'few'
p1315
I44
sS'20:03:10.0,34.19218133,-118.41447108,1234.20,everybody'
p1316
I45
sS'babe'
p1317
I44
sS'porch'
p1318
I45
sS'about'
p1319
I41
sS'confused'
p1320
I45
sS'sore'
p1321
I45
sS'baby'
p1322
I43
sS'annoy'
p1323
I45
sS'\xe3\x81\xaa\xe3\x81\xab\xe3\x81\xaa\xe3\x81\xab\xef\xbc\x9f'
p1324
I45
sS'this'
p1325
I17
sS'ride'
p1326
I45
sS'clients'
p1327
I45
sS'anywhere'
p1328
I45
sS'meet'
p1329
I45
sS'didnt'
p1330
I45
sS'control'
p1331
I44
sS'thirsty'
p1332
I45
sS'halloween'
p1333
I45
sS'something'
p1334
I42
sS'bones'
p1335
I45
sS'dj'
p1336
I45
sS'enrique'
p1337
I45
sS'onions'
p1338
I45
sS'lenore'
p1339
I45
sS'stop'
p1340
I41
sS'bitxhes'
p1341
I44
sS'taco'
p1342
I41
sS'...\xe2\x80\xa6'
p1343
I45
sS'light'
p1344
I45
sS'or'
p1345
I35
sS'scoop'
p1346
I45
sS'honestly'
p1347
I44
sS'houston'
p1348
I45
sS'133'
p1349
I45
sS"won't"
p1350
I44
sS'looks'
p1351
I43
sS'perfect'
p1352
I42
sS'la'
p1353
I42
sS'[pic]'
p1354
I45
sS'madre'
p1355
I45
sS'choose'
p1356
I45
sS'bye'
p1357
I44
sS'dad'
p1358
I42
sS'fanly'
p1359
I45
sS'fiesta'
p1360
I45
sS'mention'
p1361
I45
sS'front'
p1362
I45
sS'day'
p1363
I35
sS'slide'
p1364
I45
sS'mode'
p1365
I45
sS'seniors'
p1366
I45
sS'studios'
p1367
I40
sS'doing'
p1368
I45
sS'parties'
p1369
I45
sS'our'
p1370
I42
sS'meth'
p1371
I45
sS'shannon'
p1372
I45
sS'out'
p1373
I33
sS'"san'
p1374
I45
sS'cause'
p1375
I45
sS'red'
p1376
I45
sS'shut'
p1377
I45
sS'frank'
p1378
I45
sS'craving'
p1379
I44
sS'manicures'
p1380
I45
sS'g'
p1381
I45
sS'could'
p1382
I39
sS'keep'
p1383
I45
sS'conversation'
p1384
I44
sS'4th'
p1385
I45
sS'chills'
p1386
I45
sS'ltl'
p1387
I45
sS'powerful'
p1388
I45
sS'scene'
p1389
I45
sS'bitch'
p1390
I43
sS'quality'
p1391
I45
sS"you're"
p1392
I36
sS'fair'
p1393
I45
sS'ferris'
p1394
I45
sS'their'
p1395
I41
sS'stomach'
p1396
I44
sS'gear'
p1397
I45
sS'exactly'
p1398
I44
sS'july'
p1399
I45
sS'dasha_er]'
p1400
I45
sS'beb'
p1401
I45
sS'boring'
p1402
I45
sS'bother'
p1403
I44
sS'bed'
p1404
I44
sS'cravings'
p1405
I45
sS'visited'
p1406
I45
sS'gym...,91606\n353621644318736384,powergor,2013-07-06'
p1407
I45
sS'hizzle'
p1408
I45
sS'tonight'
p1409
I42
sS'nails_by_kayyy'
p1410
I45
sS'have'
p1411
I25
sS'need'
p1412
I30
sS'19:40:18.0,34.18886577,-118.41806827,1234.20,good'
p1413
I45
sS'mermaid'
p1414
I45
sS'min'
p1415
I45
sS'able'
p1416
I45
sS'sinatra'
p1417
I45
sS'321'
p1418
I45
sS'which'
p1419
I45
sS'truck'
p1420
I45
sS'='
p1421
I44
sS'unless'
p1422
I45
sS'aww'
p1423
I45
sS'firecrackers'
p1424
I45
sS'who'
p1425
I37
sS'awh'
p1426
I44
sS'awe'
p1427
I45
sS'rthr'
p1428
I45
sS'why'
p1429
I39
sS',91605\n495407938219937792,gaby_1d4life,2014-08-02'
p1430
I45
sS'face'
p1431
I45
sS"you'll"
p1432
I43
sS'pictures'
p1433
I45
sS'fact'
p1434
I45
sS'text'
p1435
I45
sS'bring'
p1436
I44
sS'amaxlea'
p1437
I45
sS'chicken'
p1438
I44
sS'('
p1439
I45
sS'should'
p1440
I43
sS'anythings'
p1441
I45
sS'lemme'
p1442
I45
sS'18:34:16.0,34.19410366,-118.41418404,1234.20,nothing'
p1443
I45
sS'hope'
p1444
I44
sS'meant'
p1445
I45
sS'watching'
p1446
I43
sS'999'
p1447
I45
sS'lucky'
p1448
I43
sS'tbh'
p1449
I42
sS'timing'
p1450
I45
sS'=)'
p1451
I45
sS'ghetto'
p1452
I45
sS'crabs'
p1453
I45
sS'grrrr'
p1454
I45
sS'taxes'
p1455
I45
sS'bar\xe2\x80\xa6'
p1456
I45
sS'she'
p1457
I38
sS'hollywood)'
p1458
I45
sS'prayers'
p1459
I45
sS'frame'
p1460
I45
sS'gahh'
p1461
I45
sS'oomf'
p1462
I45
sS'snapchatting'
p1463
I45
sS'packed'
p1464
I44
sS'gmail'
p1465
I45
sS'supernatural'
p1466
I45
sS'email'
p1467
I45
sS'ends'
p1468
I45
sS'douchbae'
p1469
I45
sS'job'
p1470
I44
sS'btq\xe2\x99\xa1'
p1471
I45
sS'precious'
p1472
I45
sS'cruze'
p1473
I45
sS'figured'
p1474
I45
sS'career'
p1475
I45
sS'taking'
p1476
I42
sS'u,91606\n380145320660725760,powergor,2013-09-18'
p1477
I45
sS'beliefs'
p1478
I45
sS'glorious'
p1479
I45
sS'ca'
p1480
I45
sS'walk'
p1481
I42
sS'repostapp'
p1482
I45
sS'news'
p1483
I45
sS'orig'
p1484
I45
sS'quit'
p1485
I45
sS"it's"
p1486
I22
sS'treat'
p1487
I45
sS'waste'
p1488
I45
sS'bbq'
p1489
I45
sS'>'
p1490
I45
sS'am'
p1491
I41
sS'sufficient'
p1492
I45
sS'finished'
p1493
I45
sS'an'
p1494
I38
sS'choices'
p1495
I45
sS'will'
p1496
I38
sS'hahaha'
p1497
I45
sS'supply'
p1498
I45
sS'nom'
p1499
I42
sS'almost'
p1500
I45
sS'wish-granting'
p1501
I45
sS'avi'
p1502
I45
sS'nogga'
p1503
I45
sS'romance'
p1504
I45
sS'haigs'
p1505
I44
sS'shuttle'
p1506
I45
sS'party'
p1507
I44
sS'kstate'
p1508
I45
sS'ball'
p1509
I45
sS'pho'
p1510
I45
sS'sanamluang'
p1511
I21
sS'drink'
p1512
I45
sS'upon'
p1513
I45
sS'sauna'
p1514
I45
sS'bullying'
p1515
I45
sS'sisters'
p1516
I45
sS'croissants'
p1517
I45
sS'spree'
p1518
I45
sS'warming'
p1519
I45
sS'pull'
p1520
I45
sS'off'
p1521
I39
sS'i'
p1522
I2
sS'well'
p1523
I44
sS'thought'
p1524
I43
sS'less'
p1525
I45
sS'rocked'
p1526
I45
sS'paul'
p1527
I45
sS'griffith'
p1528
I45
sS'extendo'
p1529
I45
sS'seriously,91606\n373523247973011456,powergor,2013-08-30'
p1530
I45
sS'drunk'
p1531
I42
sS'sky'
p1532
I45
sS'wen'
p1533
I45
sS'other'
p1534
I44
sS'decapprio'
p1535
I45
sS'kick'
p1536
I44
sS"who's"
p1537
I45
sS'know'
p1538
I35
sS'hehehehe'
p1539
I44
sS'loss'
p1540
I45
sS'like'
p1541
I19
sS'loser'
p1542
I45
sS'lose'
p1543
I44
sS'page'
p1544
I45
sS'nigga'
p1545
I44
sS'twitter'
p1546
I44
sS'alive'
p1547
I45
sS'hair'
p1548
I43
sS'escalade'
p1549
I45
sS'home'
p1550
I40
sS'12.12.13'
p1551
I45
sS'literally'
p1552
I44
sS'twerking'
p1553
I45
sS'does'
p1554
I40
sS'limitations'
p1555
I45
sS'nida'
p1556
I45
sS'reaching'
p1557
I45
sS'buttoned'
p1558
I45
sS'amy'
p1559
I45
sS'r'
p1560
I45
sS'stage'
p1561
I45
sS'sister'
p1562
I44
sS'asks'
p1563
I45
sS'getting'
p1564
I41
sS'becauae'
p1565
I45
sS'swear'
p1566
I44
sS'noho'
p1567
I45
sS'h8'
p1568
I45
sS'own'
p1569
I44
sS'letters'
p1570
I45
sS"j'adore"
p1571
I45
sS'playoff'
p1572
I45
sS'artists'
p1573
I45
sS'van'
p1574
I45
sS'cleanse'
p1575
I45
sS'*'
p1576
I45
sS'kidding'
p1577
I44
sS'biggest'
p1578
I45
sS'hanggang'
p1579
I45
sS'buy'
p1580
I42
sS'north'
p1581
I36
sS"i've"
p1582
I37
sS'bus'
p1583
I44
sS'bitches'
p1584
I43
sS'but'
p1585
I28
sS'hi'
p1586
I44
sS'goals'
p1587
I45
sS'eat'
p1588
I44
sS'he'
p1589
I39
sS'made'
p1590
I40
sS'wise'
p1591
I45
sS'wish'
p1592
I41
sS'j'
p1593
I45
sS'flip'
p1594
I45
sS'dms'
p1595
I45
sS'piece'
p1596
I45
sS'goodness'
p1597
I45
sS'happen'
p1598
I45
sS'diego'
p1599
I45
sS'compared'
p1600
I45
sS'rumors'
p1601
I45
sS'yayyyyyy'
p1602
I45
sS'chua'
p1603
I45
sS'(north'
p1604
I40
sS'present:)'
p1605
I45
sS'compares'
p1606
I45
sS'sick'
p1607
I45
sS'7/11'
p1608
I45
sS'mass'
p1609
I45
sS'hippopotamus'
p1610
I45
sS'star'
p1611
I45
sS'kinda'
p1612
I44
sS'\xe2\x80\xa6'
p1613
I44
sS'friends'
p1614
I41
sS'actor,91606\n469546802367434752,chrispiliguian,2014-05-22'
p1615
I45
s.