(dp0
S''
p1
I1
sS'all'
p2
I21
sS':('
p3
I27
sS':)'
p4
I24
sS'dance'
p5
I13
sS'movies/'
p6
I28
sS'month'
p7
I28
sS'four'
p8
I28
sS"1..2's"
p9
I28
sS'mile'
p10
I28
sS'sleep'
p11
I25
sS'freakin'
p12
I28
sS'go'
p13
I23
sS"spirit's"
p14
I28
sS'decisions'
p15
I27
sS'swag'
p16
I28
sS'zone'
p17
I28
sS'afterparty'
p18
I28
sS'show'
p19
I28
sS'send'
p20
I27
sS'to'
p21
I2
sS'finally'
p22
I27
sS'fracky'
p23
I28
sS'me'
p24
I9
sS'cruising'
p25
I28
sS'sitting'
p26
I28
sS'far'
p27
I28
sS"leonor's"
p28
I26
sS'kitty'
p29
I28
sS'shoot'
p30
I28
sS"dacia's"
p31
I28
sS'every'
p32
I27
sS'fam'
p33
I28
sS'telling'
p34
I28
sS'rn'
p35
I28
sS'school'
p36
I28
sS'heaven'
p37
I28
sS'magic'
p38
I28
sS'andre'
p39
I28
sS'did'
p40
I28
sS'die'
p41
I28
sS'down!!\xe2\x80\xa6'
p42
I28
sS'try'
p43
I28
sS'race'
p44
I28
sS"fuentes'"
p45
I28
sS"cap'n"
p46
I28
sS'ml'
p47
I28
sS'day..i'
p48
I28
sS'islandgroove85'
p49
I28
sS'yall'
p50
I28
sS'parked'
p51
I28
sS"i'll"
p52
I26
sS'talked'
p53
I27
sS'says'
p54
I28
sS'tea'
p55
I28
sS'streets'
p56
I28
sS'elegant'
p57
I28
sS'video'
p58
I28
sS'air'
p59
I28
sS'rough'
p60
I28
sS'even'
p61
I26
sS'what'
p62
I23
sS'yeezus'
p63
I28
sS'showcase'
p64
I26
sS'giving'
p65
I27
sS'sun'
p66
I28
sS'spendin'
p67
I28
sS'while'
p68
I27
sS'goes'
p69
I27
sS'new'
p70
I28
sS'learned'
p71
I28
sS'ever'
p72
I28
sS'jayson'
p73
I28
sS'vamos'
p74
I28
sS'crunch'
p75
I28
sS'kicked'
p76
I28
sS'shocked'
p77
I28
sS'men'
p78
I28
sS'here'
p79
I28
sS'hundreds'
p80
I28
sS'hours'
p81
I27
sS'coco'
p82
I28
sS'studio'
p83
I14
sS'compressed'
p84
I28
sS'directions'
p85
I28
sS'sexy'
p86
I28
sS"aren't"
p87
I28
sS'preocupaci\xc3\xb3n'
p88
I28
sS'legend'
p89
I28
sS'kids'
p90
I27
sS'swing'
p91
I28
sS'vegetarian'
p92
I26
sS'airport'
p93
I28
sS'smoke'
p94
I28
sS'loco)'
p95
I26
sS'action'
p96
I28
sS"i'm"
p97
I16
sS'dre'
p98
I28
sS'thats'
p99
I28
sS'julio'
p100
I28
sS'golden'
p101
I28
sS'love'
p102
I21
sS'family'
p103
I28
sS'win'
p104
I28
sS'day...oh'
p105
I28
sS'reagan'
p106
I28
sS'bro'
p107
I28
sS'till'
p108
I28
sS'wit'
p109
I28
sS'use'
p110
I28
sS'from'
p111
I24
sS'would'
p112
I28
sS'&'
p113
I23
sS'dude'
p114
I28
sS'two'
p115
I28
sS'next'
p116
I27
sS'few'
p117
I27
sS'live'
p118
I28
sS'jam'
p119
I28
sS'music'
p120
I26
sS'debbie'
p121
I11
sS'6'
p122
I28
sS'roshes'
p123
I28
sS'thru'
p124
I28
sS'los'
p125
I28
sS'today'
p126
I27
sS'more'
p127
I23
sS'tryna'
p128
I28
sS'clever'
p129
I28
sS'babe'
p130
I27
sS'holy'
p131
I27
sS'started'
p132
I28
sS'haha'
p133
I28
sS'sister'
p134
I28
sS'fuck'
p135
I28
sS"ain't"
p136
I27
sS'basically'
p137
I28
sS'baby'
p138
I27
sS'heffer'
p139
I28
sS'producing'
p140
I28
sS'glad'
p141
I28
sS'must'
p142
I28
sS'9-1'
p143
I28
sS'bridesmaid'
p144
I28
sS'keeping'
p145
I28
sS'balls'
p146
I28
sS'slogan'
p147
I28
sS'zyrtec'
p148
I28
sS'this'
p149
I18
sS'car'
p150
I28
sS'oh'
p151
I25
sS'sucks'
p152
I28
sS'del'
p153
I28
sS'can'
p154
I23
sS'while...)'
p155
I28
sS'believed'
p156
I28
sS'making'
p157
I28
sS'my'
p158
I8
sS'could'
p159
I28
sS'beautiful'
p160
I27
sS'nearest'
p161
I28
sS'crazy'
p162
I28
sS'caffeine-aholic'
p163
I28
sS'monica'
p164
I28
sS'loco'
p165
I25
sS'high'
p166
I28
sS'pushed'
p167
I28
sS'way'
p168
I28
sS'veggies'
p169
I28
sS'want'
p170
I26
sS'counting'
p171
I28
sS'reynolds'
p172
I10
sS'needs'
p173
I28
sS'hoe'
p174
I28
sS'"honey"'
p175
I28
sS'awkward'
p176
I28
sS'flawless'
p177
I28
sS'permission'
p178
I28
sS'1'
p179
I27
sS'very'
p180
I26
sS'amazing'
p181
I25
sS'whore'
p182
I28
sS'hop'
p183
I28
sS'instead'
p184
I28
sS'beach'
p185
I28
sS'idk'
p186
I28
sS'express'
p187
I28
sS'ft'
p188
I28
sS'beauty'
p189
I27
sS'stop'
p190
I28
sS'blasting'
p191
I28
sS'after'
p192
I23
sS'vicious'
p193
I28
sS'mac'
p194
I28
sS'plane'
p195
I28
sS'fatigue'
p196
I28
sS'coming'
p197
I26
sS'leonorsvegmex'
p198
I28
sS'guys'
p199
I28
sS'parallel'
p200
I28
sS'las'
p201
I28
sS'a'
p202
I3
sS'somethin'
p203
I28
sS'horchata'
p204
I28
sS'introduced'
p205
I28
sS'funday'
p206
I28
sS'chillen'
p207
I28
sS'maybe'
p208
I28
sS'guru'
p209
I28
sS'racetrack'
p210
I28
sS'think'
p211
I28
sS'tickling/molesting'
p212
I28
sS'so'
p213
I22
sS'keeps'
p214
I28
sS'worst'
p215
I28
sS'talk'
p216
I25
sS"that's"
p217
I27
sS'mexican'
p218
I26
sS'shoes'
p219
I28
sS"don't"
p220
I26
sS'john'
p221
I28
sS'over'
p222
I27
sS'soon'
p223
I28
sS'years'
p224
I28
sS'clickers/indicators'
p225
I28
sS'through'
p226
I27
sS'cruise'
p227
I28
sS'carnal'
p228
I28
sS'still'
p229
I26
sS'mayor'
p230
I25
sS'before'
p231
I28
sS'24'
p232
I28
sS'write'
p233
I28
sS"he's"
p234
I27
sS'lo'
p235
I28
sS'beyonce'
p236
I28
sS'condado'
p237
I28
sS'writing'
p238
I28
sS'late'
p239
I28
sS'messes'
p240
I28
sS'self-aware'
p241
I28
sS'weeks'
p242
I28
sS'team'
p243
I28
sS"haven't"
p244
I27
sS'happened'
p245
I28
sS'dad'
p246
I28
sS'nom'
p247
I20
sS'them'
p248
I28
sS'good'
p249
I26
sS'remedy'
p250
I28
sS'food'
p251
I27
sS'safe'
p252
I27
sS'fiesta'
p253
I28
sS"we'll"
p254
I28
sS'flew'
p255
I28
sS'break'
p256
I28
sS'lunch'
p257
I28
sS'd.r.u.g.s'
p258
I28
sS'hahahahahaha'
p259
I28
sS'starbucks'
p260
I28
sS'they'
p261
I27
sS'not'
p262
I20
sS'now'
p263
I19
sS'bullshit'
p264
I27
sS'faire'
p265
I27
sS'pregnant'
p266
I28
sS'nugget'
p267
I28
sS'always'
p268
I24
sS'laziness-anna'
p269
I28
sS'anastasia'
p270
I28
sS'victory'
p271
I27
sS'truth'
p272
I27
sS'rock'
p273
I28
sS'found'
p274
I28
sS'went'
p275
I28
sS'gazing'
p276
I28
sS'cornbread'
p277
I28
sS'em'
p278
I28
sS'el'
p279
I19
sS'everyone'
p280
I27
sS'kennis'
p281
I28
sS'house'
p282
I28
sS'yeah'
p283
I27
sS'catching'
p284
I28
sS'forgot'
p285
I28
sS'okay'
p286
I28
sS'girl'
p287
I27
sS'sdcc'
p288
I28
sS'out'
p289
I21
sS'62-3'
p290
I28
sS'leave'
p291
I28
sS'marcie'
p292
I28
sS'driving'
p293
I28
sS'quality'
p294
I28
sS'surrounded'
p295
I28
sS'sobre'
p296
I28
sS'*sigh*'
p297
I28
sS'strangers'
p298
I28
sS'misses'
p299
I28
sS'stud'
p300
I28
sS'hilarious'
p301
I28
sS'smg'
p302
I28
sS'got'
p303
I26
sS"leonor's\xe2\x80\xa6"
p304
I27
sS'rahab'
p305
I28
sS'ass'
p306
I26
sS"doesn't"
p307
I28
sS'cut....fuck'
p308
I28
sS'friday'
p309
I26
sS'story'
p310
I28
sS'bumps'
p311
I28
sS'please'
p312
I28
sS'cookie'
p313
I28
sS'asf'
p314
I28
sS'clique'
p315
I28
sS'put'
p316
I28
sS'wanted'
p317
I28
sS'venus'
p318
I27
sS'card'
p319
I28
sS'care'
p320
I28
sS'g'
p321
I28
sS'yup'
p322
I28
sS'deprivation'
p323
I28
sS'headphones'
p324
I28
sS'somebody..\xe2\x80\x9d'
p325
I28
sS'keep'
p326
I28
sS'turn'
p327
I26
sS'elle_swell'
p328
I28
sS'place'
p329
I28
sS'sodc'
p330
I28
sS'daisy'
p331
I28
sS'hence'
p332
I28
sS'scare'
p333
I28
sS'anita'
p334
I28
sS'first'
p335
I28
sS'cubans'
p336
I27
sS'cheese'
p337
I28
sS'already'
p338
I28
sS'dont'
p339
I28
sS'feel'
p340
I27
sS'mnugent25'
p341
I28
sS'one'
p342
I25
sS'another'
p343
I27
sS'message'
p344
I28
sS'miss'
p345
I26
sS'tomorrow'
p346
I28
sS"you're"
p347
I27
sS'little'
p348
I25
sS'monkey'
p349
I28
sS'girly'
p350
I28
sS'noms'
p351
I28
sS'slept'
p352
I28
sS'reppin'
p353
I28
sS'their'
p354
I27
sS'2'
p355
I27
sS'too'
p356
I27
sS'passed'
p357
I28
sS'hollywood'
p358
I26
sS'man'
p359
I28
sS'store'
p360
I28
sS'listen'
p361
I28
sS'oooohhhh...so'
p362
I28
sS'angustia'
p363
I28
sS'feels'
p364
I28
sS'summertime'
p365
I28
sS'para'
p366
I28
sS'that'
p367
I18
sS'nobody'
p368
I27
sS'took'
p369
I28
sS'burlesque'
p370
I27
sS'dentist'
p371
I28
sS'bro\xe2\x80\xa6'
p372
I28
sS'butt'
p373
I28
sS'boyfriend'
p374
I28
sS'10'
p375
I28
sS'grocery'
p376
I27
sS'valley'
p377
I28
sS'lmao'
p378
I27
sS'debbie\xe2\x80\xa6'
p379
I28
sS'aims'
p380
I28
sS'classes'
p381
I28
sS'loves'
p382
I28
sS'were'
p383
I26
sS'cards'
p384
I28
sS'feeling'
p385
I25
sS'ousted'
p386
I25
sS'uuuffff'
p387
I28
sS'and'
p388
I6
sS'mini'
p389
I28
sS'\xc3\xbaltimo'
p390
I28
sS'mine'
p391
I28
sS'tonight'
p392
I25
sS'juice'
p393
I28
sS'say'
p394
I27
sS'have'
p395
I24
sS'need'
p396
I25
sS'amateur'
p397
I28
sS'saw'
p398
I28
sS'q'
p399
I28
sS'relationship'
p400
I28
sS'dancing'
p401
I27
sS'lil'
p402
I28
sS'fucking'
p403
I28
sS"i've"
p404
I28
sS'synchs'
p405
I28
sS'hangover'
p406
I28
sS'also'
p407
I28
sS'take'
p408
I21
sS'online'
p409
I28
sS'channel'
p410
I28
sS'play'
p411
I27
sS'sure'
p412
I28
sS'track'
p413
I28
sS'who'
p414
I28
sS'twitter...lol'
p415
I28
sS'paid'
p416
I28
sS'rehearsal'
p417
I28
sS'audition'
p418
I26
sS'75'
p419
I28
sS'why'
p420
I25
sS'cuban'
p421
I28
sS'reminds'
p422
I28
sS'windows'
p423
I28
sS'sometimes'
p424
I28
sS'thanksgiving'
p425
I27
sS'face'
p426
I27
sS"you'll"
p427
I27
sS'xo'
p428
I28
sS'8:00pm'
p429
I28
sS'pointy'
p430
I28
sS'wine'
p431
I28
sS'quantity'
p432
I28
sS'shop'
p433
I28
sS'ugh'
p434
I28
sS'n00dz'
p435
I28
sS'dissss'
p436
I28
sS'text'
p437
I27
sS'soda'
p438
I28
sS'radio'
p439
I28
sS'[yawn]'
p440
I28
sS'battle'
p441
I28
sS'earth'
p442
I28
sS'chicken'
p443
I28
sS'imagined'
p444
I28
sS'find'
p445
I26
sS'aint'
p446
I28
sS'woot'
p447
I27
sS'with'
p448
I15
sS'3'
p449
I27
sS'should'
p450
I28
sS'status'
p451
I28
sS'jazz'
p452
I28
sS'going'
p453
I25
sS'black'
p454
I28
sS'he'
p455
I26
sS'hope'
p456
I26
sS'meant'
p457
I28
sS'do'
p458
I25
sS'dm'
p459
I27
sS'hit'
p460
I26
sS'playa'
p461
I28
sS'get'
p462
I22
sS'familias'
p463
I28
sS'dope'
p464
I28
sS'de'
p465
I26
sS'watch'
p466
I27
sS'da'
p467
I28
sS'tbh'
p468
I28
sS'bean'
p469
I28
sS'b'
p470
I28
sS'perfection'
p471
I28
sS'during'
p472
I28
sS'beards'
p473
I28
sS'dr'
p474
I28
sS'him'
p475
I28
sS'freaking'
p476
I26
sS'freaky'
p477
I28
sS'married'
p478
I28
sS'bad'
p479
I25
sS'bae'
p480
I28
sS'she'
p481
I27
sS'boring'
p482
I28
sS"won't"
p483
I27
sS'where'
p484
I26
sS'wrote'
p485
I28
sS"y'all"
p486
I28
sS'opposed'
p487
I28
sS'w/'
p488
I27
sS'lazy'
p489
I28
sS'see'
p490
I24
sS'allure'
p491
I28
sS'college'
p492
I28
sS'are'
p493
I21
sS'parking'
p494
I28
sS'close'
p495
I27
sS'packed'
p496
I28
sS'wonder'
p497
I28
sS'ways'
p498
I28
sS'movie'
p499
I28
sS'sail'
p500
I28
sS',91606\n495842261825888257,garciavalerie63,2014-08-03'
p501
I28
sS'turnt\xe2\x9d\x97\xef\xb8\x8f'
p502
I28
sS'its'
p503
I26
sS'outside'
p504
I28
sS'won'
p505
I28
sS'hopefully'
p506
I27
sS':d'
p507
I28
sS'bought'
p508
I28
sS'knowing'
p509
I28
sS'we'
p510
I22
sS'tiburon)'
p511
I27
sS'bed'
p512
I28
sS'opening'
p513
I28
sS'he/she'
p514
I28
sS'samba'
p515
I28
sS'coffee'
p516
I28
sS'key'
p517
I28
sS'coma'
p518
I28
sS'news'
p519
I28
sS'motto'
p520
I28
sS'come'
p521
I27
sS'adagio'
p522
I28
sS'8:30'
p523
I28
sS'restaurant'
p524
I27
sS'many'
p525
I27
sS'taking'
p526
I27
sS'la'
p527
I28
sS'roman'
p528
I28
sS'games'
p529
I28
sS'bet'
p530
I28
sS'carwash'
p531
I28
sS'awards'
p532
I28
sS'guy'
p533
I28
sS"can't"
p534
I27
sS'smokin'
p535
I28
sS'6:30'
p536
I28
sS'drunk'
p537
I28
sS'reasons'
p538
I28
sS'sweet'
p539
I28
sS'tuesday'
p540
I28
sS'walk'
p541
I28
sS'simply'
p542
I28
sS'respect'
p543
I28
sS'sunday'
p544
I28
sS'cramps'
p545
I28
sS'dui'
p546
I28
sS'light'
p547
I28
sS'yay'
p548
I28
sS'puts'
p549
I28
sS"it's"
p550
I24
sS"hugo's"
p551
I28
sS'been'
p552
I27
sS'cry'
p553
I28
sS'helicopter'
p554
I28
sS'bbq'
p555
I27
sS'threw'
p556
I28
sS'wtf'
p557
I28
sS'wifi-no'
p558
I28
sS'shopping'
p559
I27
sS'gay'
p560
I28
sS'kisses'
p561
I28
sS'ariana'
p562
I28
sS'else'
p563
I28
sS'musicality'
p564
I28
sS'accident'
p565
I28
sS'catch'
p566
I28
sS'thing'
p567
I28
sS'bout'
p568
I28
sS'13th'
p569
I28
sS'myself'
p570
I28
sS'these'
p571
I26
sS'single'
p572
I28
sS'n'
p573
I27
sS'will'
p574
I26
sS'ugly'
p575
I27
sS'near'
p576
I28
sS'pollo'
p577
I22
sS'fun'
p578
I26
sS'voice'
p579
I28
sS':^/'
p580
I28
sS'ill'
p581
I28
sS'antisocial'
p582
I28
sS'awww'
p583
I28
sS'08*07*14'
p584
I28
sS'then'
p585
I26
sS'almost'
p586
I28
sS'is'
p587
I12
sS'it'
p588
I16
sS'conditioning'
p589
I28
sS'someone'
p590
I27
sS'im'
p591
I27
sS'in'
p592
I11
sS'ready'
p593
I26
sS'technology'
p594
I28
sS'id'
p595
I28
sS'worry'
p596
I28
sS'if'
p597
I23
sS'annoying'
p598
I28
sS'things'
p599
I28
sS'make'
p600
I28
sS'same'
p601
I28
sS'ya'
p602
I27
sS'motherfuckin'
p603
I28
sS'party'
p604
I27
sS'gets'
p605
I27
sS'higher'
p606
I28
sS'week'
p607
I26
sS'bearded'
p608
I28
sS'the.same'
p609
I28
sS'catholic'
p610
I28
sS'driver'
p611
I28
sS'weed'
p612
I28
sS'favvvvv'
p613
I28
sS'moment'
p614
I26
sS'totally'
p615
I28
sS'bob'
p616
I28
sS'pleasantly'
p617
I28
sS'\xe2\x9c\x8c\xef\xb8\x8f'
p618
I28
sS'off'
p619
I27
sS'i'
p620
I4
sS'makes'
p621
I28
sS'well'
p622
I26
sS'anybody'
p623
I28
sS'fighting'
p624
I28
sS'tho'
p625
I27
sS'bottle'
p626
I27
sS'y'
p627
I26
sS'the'
p628
I5
sS'bumping'
p629
I27
sS'left'
p630
I28
sS'eyebrows'
p631
I28
sS'just'
p632
I13
sS'being'
p633
I25
sS'photo'
p634
I25
sS'dancers'
p635
I28
sS'rule'
p636
I28
sS'thanks'
p637
I27
sS'world'
p638
I28
sS'yes'
p639
I28
sS'afro'
p640
I28
sS'cigarette'
p641
I28
sS'death'
p642
I28
sS'thinking'
p643
I28
sS'ease'
p644
I28
sS'point'
p645
I28
sS'had'
p646
I28
sS'attractive'
p647
I28
sS'riverside'
p648
I28
sS'has'
p649
I28
sS'excited'
p650
I25
sS'hate'
p651
I28
sS'real'
p652
I28
sS'around'
p653
I28
sS'casually'
p654
I28
sS'"homey"'
p655
I28
sS"who's"
p656
I28
sS'gonna'
p657
I27
sS'game'
p658
I27
sS'know'
p659
I22
sS'mom'
p660
I27
sS'using'
p661
I28
sS'benadryl'
p662
I28
sS'crisp'
p663
I28
sS'like'
p664
I20
sS'night'
p665
I25
sS'nerves'
p666
I28
sS'passionate'
p667
I28
sS"debbie's"
p668
I28
sS'right'
p669
I22
sS'people'
p670
I28
sS'absolutely'
p671
I28
sS'spring'
p672
I28
sS'scared'
p673
I27
sS'some'
p674
I26
sS'back'
p675
I27
sS'billboard'
p676
I28
sS'home'
p677
I27
sS'guess'
p678
I28
sS'\xe2\x9d\xa4\xef\xb8\x8fthe'
p679
I28
sS'uppppppppp'
p680
I28
sS'happens'
p681
I28
sS'outs'
p682
I28
sS'leaf'
p683
I28
sS'for'
p684
I18
sS'avoid'
p685
I28
sS'nwts'
p686
I28
sS'mode'
p687
I28
sS'be'
p688
I24
sS'lmfao'
p689
I28
sS'....now'
p690
I28
sS'how'
p691
I26
sS'santa'
p692
I27
sS';)'
p693
I27
sS'exciting'
p694
I28
sS'super'
p695
I28
sS'by'
p696
I25
sS'on'
p697
I14
sS'about'
p698
I22
sS'ol'
p699
I28
sS'getting'
p700
I25
sS'of'
p701
I16
sS'ribs'
p702
I28
sS'months'
p703
I28
sS"mcdonald's"
p704
I28
sS'hiphop'
p705
I28
sS'hot'
p706
I28
sS'drama'
p707
I28
sS'creepers'
p708
I28
sS'dinner'
p709
I28
sS'beans'
p710
I28
sS'stand'
p711
I28
sS'mixed'
p712
I28
sS'sry'
p713
I28
sS'wanna'
p714
I28
sS'or'
p715
I26
sS'op'
p716
I28
sS'mind&body'
p717
I28
sS'presence'
p718
I28
sS'into'
p719
I28
sS'suzanne'
p720
I28
sS'down'
p721
I26
sS'momma'
p722
I28
sS'because'
p723
I27
sS'estudiantes'
p724
I28
sS'tendremos'
p725
I28
sS'apologize'
p726
I28
sS'couldnt'
p727
I28
sS'your'
p728
I25
sS'technically'
p729
I28
sS'behind'
p730
I28
sS'her'
p731
I27
sS'hip'
p732
I28
sS'weekend'
p733
I28
sS'there'
p734
I28
sS'ca)'
p735
I28
sS'lol'
p736
I26
sS'class'
p737
I17
sS'start'
p738
I28
sS'threated'
p739
I28
sS'low'
p740
I28
sS'lot'
p741
I27
sS'...u'
p742
I28
sS'call'
p743
I28
sS'bored'
p744
I27
sS'was'
p745
I23
sS'twitter'
p746
I28
sS'happy'
p747
I26
sS'head'
p748
I27
sS'buy'
p749
I28
sS'north'
p750
I28
sS'man...got'
p751
I28
sS'enough'
p752
I28
sS'hr'
p753
I28
sS'heal'
p754
I28
sS'bitches'
p755
I28
sS'fricken'
p756
I28
sS'but'
p757
I21
sS'jus'
p758
I28
sS'yesssss'
p759
I28
sS'upright'
p760
I28
sS'line'
p761
I28
sS'true'
p762
I27
sS'eat'
p763
I27
sS'posted'
p764
I26
sS'info'
p765
I28
sS"they're"
p766
I28
sS'up'
p767
I19
sS'us'
p768
I27
sS'tell'
p769
I28
sS'sadness'
p770
I28
sS'stories'
p771
I28
sS'woke'
p772
I28
sS'manlier'
p773
I28
sS'minutes'
p774
I28
sS'uber'
p775
I28
sS'recognize'
p776
I28
sS'pic'
p777
I28
sS'am'
p778
I27
sS'life'
p779
I28
sS'an'
p780
I27
sS'as'
p781
I20
sS'at'
p782
I17
sS'potholes'
p783
I28
sS'our'
p784
I28
sS'work'
p785
I23
sS'trip'
p786
I28
sS'shit'
p787
I24
sS'again'
p788
I27
sS'beyond'
p789
I28
sS'no'
p790
I25
sS'when'
p791
I20
sS'(north'
p792
I28
sS'00-01'
p793
I28
sS'sick'
p794
I28
sS'better'
p795
I28
sS'you'
p796
I7
sS'really'
p797
I26
sS'nice'
p798
I28
sS'picture'
p799
I28
sS'star'
p800
I28
sS'hey'
p801
I28
sS'booger'
p802
I28
sS'surprise'
p803
I28
sS'welcome'
p804
I28
sS'stay'
p805
I28
sS"let's"
p806
I25
sS'town'
p807
I28
sS'rey'
p808
I28
sS'bae-stfriend'
p809
I28
sS'sides'
p810
I28
sS'ago'
p811
I28
sS'fuzion'
p812
I28
sS'lana'
p813
I28
sS'nephews'
p814
I28
sS'afro-fuzion'
p815
I28
sS'together'
p816
I25
sS'3-0'
p817
I28
sS'u'
p818
I25
sS'(you'
p819
I28
sS'time'
p820
I21
sS"she's"
p821
I28
sS'baked'
p822
I28
sS'having'
p823
I27
s.