(dp0
S''
p1
I1
sS'all'
p2
I19
sS'epitomizes'
p3
I31
sS':('
p4
I28
sS'kita'
p5
I31
sS'hooked'
p6
I31
sS'celebs'
p7
I31
sS'100percent'
p8
I31
sS'w/new'
p9
I31
sS'outsiders'
p10
I31
sS':/'
p11
I31
sS'sleep'
p12
I31
sS'private\xe2\x80\x9d'
p13
I31
sS'insiders'
p14
I31
sS'go'
p15
I28
sS'follow'
p16
I29
sS'chair'
p17
I31
sS'hate'
p18
I30
sS'rocking'
p19
I31
sS'uneven'
p20
I31
sS'lyrics'
p21
I31
sS'religion'
p22
I31
sS'honoring'
p23
I31
sS'tweet'
p24
I29
sS'white'
p25
I31
sS'up"'
p26
I31
sS'send'
p27
I31
sS'jell-o'
p28
I31
sS'to'
p29
I5
sS'finally'
p30
I28
sS'asking'
p31
I31
sS'hola'
p32
I31
sS'(not'
p33
I31
sS'smile'
p34
I31
sS'sorry'
p35
I31
sS'must'
p36
I31
sS'instincts'
p37
I31
sS':o'
p38
I31
sS'sitting'
p39
I31
sS'very'
p40
I29
sS'martinez'
p41
I31
sS'fat'
p42
I31
sS'focus'
p43
I31
sS'unbeaten'
p44
I31
sS'eso'
p45
I31
sS'facebook'
p46
I30
sS'spooooorrrrrtssss'
p47
I31
sS'telling'
p48
I31
sS'word'
p49
I31
sS'ticket'
p50
I31
sS'blast'
p51
I31
sS'fag'
p52
I31
sS'cool'
p53
I31
sS'bebeto'
p54
I31
sS'school'
p55
I31
sS'baking'
p56
I31
sS'couches'
p57
I31
sS'cable'
p58
I31
sS'level'
p59
I31
sS'did'
p60
I29
sS'die'
p61
I31
sS'joel'
p62
I31
sS'dig'
p63
I31
sS'laying'
p64
I31
sS'why..just'
p65
I31
sS'turnt'
p66
I31
sS'gop'
p67
I31
sS'facemask'
p68
I31
sS'guy'
p69
I31
sS'enjoy'
p70
I31
sS'chet'
p71
I31
sS'magazine'
p72
I31
sS'booty'
p73
I31
sS'streets'
p74
I31
sS'4:51am'
p75
I31
sS'copy'
p76
I31
sS'dish'
p77
I31
sS'fabulous'
p78
I31
sS"porto's"
p79
I31
sS'uncomfortable'
p80
I31
sS'perfect'
p81
I31
sS'dolce'
p82
I31
sS'drinks'
p83
I31
sS'even'
p84
I23
sS'what'
p85
I25
sS'tweeple'
p86
I30
sS'duuuude'
p87
I31
sS'spitta'
p88
I31
sS'giving'
p89
I31
sS'chillin'
p90
I31
sS'lead'
p91
I31
sS'fingers'
p92
I30
sS'liberty'
p93
I31
sS'waiting'
p94
I31
sS'version'
p95
I31
sS'abt'
p96
I31
sS'goes'
p97
I31
sS'endorse'
p98
I31
sS'new'
p99
I31
sS'1400'
p100
I31
sS'ever'
p101
I26
sS'except'
p102
I31
sS'told'
p103
I31
sS'body'
p104
I31
sS'aint'
p105
I31
sS'full'
p106
I30
sS'christian'
p107
I20
sS"c'mon"
p108
I31
sS'felicia'
p109
I31
sS'never'
p110
I29
sS'here'
p111
I26
sS'\xe2\x9d\xa4\xef\xb8\x8f'
p112
I30
sS'shot\xe2\x80\xa6'
p113
I31
sS'let'
p114
I30
sS'&&'
p115
I29
sS"jay's"
p116
I31
sS'alone'
p117
I31
sS'path'
p118
I31
sS'sorry..misunderstood'
p119
I31
sS'coddle'
p120
I31
sS'mex'
p121
I31
sS'every'
p122
I31
sS'buck'
p123
I29
sS'great'
p124
I26
sS'rting'
p125
I31
sS'"baby"'
p126
I31
sS'33'
p127
I31
sS'my'
p128
I4
sS'lakers'
p129
I30
sS'leaving'
p130
I31
sS'itunes'
p131
I31
sS'credit'
p132
I30
sS"i'd"
p133
I31
sS'boo'
p134
I31
sS"i'm"
p135
I9
sS'changes'
p136
I30
sS'hump'
p137
I31
sS'homecoming'
p138
I31
sS'fantastic'
p139
I31
sS'love'
p140
I19
sS'family'
p141
I31
sS'stubborn'
p142
I31
sS'win'
p143
I30
sS'prefer'
p144
I31
sS'root'
p145
I31
sS'bro'
p146
I28
sS'marvelous'
p147
I31
sS'follower'
p148
I31
sS'insta'
p149
I30
sS'thursday'
p150
I31
sS'tweaking'
p151
I31
sS'"my'
p152
I31
sS'post'
p153
I31
sS'from'
p154
I26
sS'figure'
p155
I31
sS'would'
p156
I30
sS'&'
p157
I17
sS'positive'
p158
I31
sS'dude'
p159
I31
sS'negative'
p160
I31
sS'immune'
p161
I31
sS'next'
p162
I29
sS'cali'
p163
I31
sS'ca)'
p164
I23
sS'doubt'
p165
I29
sS'call'
p166
I30
sS'calm'
p167
I30
sS'wondering'
p168
I31
sS'6'
p169
I31
sS'msg'
p170
I31
sS'bliss'
p171
I31
sS'means'
p172
I31
sS'until'
p173
I30
sS'today'
p174
I24
sS'wicked'
p175
I31
sS'sort'
p176
I31
sS'tryna'
p177
I31
sS'--->'
p178
I31
sS'posting'
p179
I30
sS'scary'
p180
I31
sS'under'
p181
I31
sS'haha'
p182
I25
sS'obl'
p183
I30
sS'loco'
p184
I31
sS'excuse'
p185
I31
sS'kraaazyyy'
p186
I31
sS'home...i'
p187
I31
sS'stick'
p188
I31
sS'lord'
p189
I31
sS'baby'
p190
I31
sS'forza'
p191
I31
sS'off*'
p192
I31
sS'riders'
p193
I31
sS'glad'
p194
I31
sS'women'
p195
I31
sS'me'
p196
I15
sS'none'
p197
I30
sS'join'
p198
I31
sS'disingenuous'
p199
I31
sS'hour'
p200
I31
sS'niggas'
p201
I31
sS'this'
p202
I17
sS'car'
p203
I30
sS'ride'
p204
I31
sS'cap'
p205
I31
sS'ass\xe2\x80\x9d'
p206
I31
sS'mommas'
p207
I31
sS'mt'
p208
I30
sS'eliminated."'
p209
I31
sS'crossed'
p210
I31
sS'can'
p211
I23
sS'ms'
p212
I31
sS'freedom'
p213
I31
sS'following'
p214
I31
sS'making'
p215
I30
sS'potus'
p216
I28
sS'dropped'
p217
I31
sS'heart'
p218
I29
sS'crazy'
p219
I31
sS'trump'
p220
I31
sS'thirsty'
p221
I31
sS'lives'
p222
I31
sS'lordy'
p223
I31
sS'fuck'
p224
I29
sS'high'
p225
I30
sS'heard'
p226
I31
sS'his'
p227
I30
sS'something'
p228
I30
sS'want'
p229
I29
sS'sense'
p230
I31
sS'blvd'
p231
I29
sS'honest'
p232
I31
sS'hhn'
p233
I31
sS'lmaoaoaoaooo'
p234
I31
sS'sis'
p235
I31
sS'drunkhomie'
p236
I31
sS'goal'
p237
I30
sS'revo'
p238
I31
sS'terribly'
p239
I31
sS'watching'
p240
I30
sS'mike'
p241
I31
sS'carries'
p242
I31
sS'1'
p243
I30
sS'how'
p244
I28
sS'sunday'
p245
I29
sS'calvary'
p246
I31
sS'def-'
p247
I31
sS'place'
p248
I31
sS'fr'
p249
I29
sS'okay'
p250
I30
sS'plans'
p251
I31
sS'may'
p252
I31
sS'watch'
p253
I30
sS'advice'
p254
I31
sS'after'
p255
I28
sS'southern'
p256
I31
sS'needs'
p257
I31
sS'potus"osama'
p258
I31
sS'fb'
p259
I31
sS'birthday'
p260
I31
sS'mad'
p261
I30
sS'coming'
p262
I31
sS'such'
p263
I31
sS'tacos'
p264
I31
sS'guys'
p265
I31
sS'man'
p266
I27
sS'a'
p267
I6
sS'refuse'
p268
I31
sS'short'
p269
I31
sS"mothafuckin'"
p270
I31
sS'remember'
p271
I30
sS'third'
p272
I31
sS'light'
p273
I31
sS'appreciate'
p274
I31
sS'so'
p275
I13
sS'things'
p276
I25
sS'weight)."'
p277
I31
sS'are)'
p278
I31
sS'pulled'
p279
I31
sS'playing'
p280
I28
sS'talk'
p281
I30
sS"that's"
p282
I28
sS'cute'
p283
I29
sS'help'
p284
I30
sS"don't"
p285
I24
sS'over'
p286
I27
sS'top'
p287
I31
sS'sooo'
p288
I31
sS'soon'
p289
I30
sS"mcdonald's)"
p290
I31
sS'course'
p291
I31
sS'through'
p292
I29
sS'looks'
p293
I31
sS'foreal'
p294
I31
sS'mcdonalds'
p295
I31
sS'zeeee'
p296
I31
sS'birds'
p297
I31
sS'refs'
p298
I31
sS'before'
p299
I31
sS'24'
p300
I31
sS'27'
p301
I31
sS'20'
p302
I30
sS'thank'
p303
I27
sS'dmsr'
p304
I31
sS'la'
p305
I25
sS'pray'
p306
I29
sS'interesting'
p307
I31
sS'trying'
p308
I31
sS'beyonce'
p309
I31
sS'amazing'
p310
I31
sS'abbey'
p311
I31
sS'[pic]'
p312
I31
sS'better'
p313
I29
sS'napping'
p314
I31
sS'window'
p315
I31
sS'choose'
p316
I30
sS'lmaoooooooooooooooooooo'
p317
I31
sS'tweets'
p318
I28
sS'thnk'
p319
I31
sS'msnbc'
p320
I30
sS'soccer'
p321
I31
sS'lies'
p322
I31
sS'selfie'
p323
I31
sS"haven't"
p324
I29
sS'then'
p325
I26
sS'them'
p326
I29
sS'good'
p327
I23
sS'dem'
p328
I31
sS'ya'
p329
I31
sS'auto'
p330
I30
sS'"might'
p331
I31
sS'band'
p332
I31
sS'they'
p333
I29
sS'sorvetsnesgor'
p334
I31
sS'not'
p335
I16
sS'now'
p336
I21
sS'day'
p337
I27
sS'bigger'
p338
I31
sS'osama'
p339
I31
sS'name'
p340
I31
sS'\xe2\x9c\x8f\xef\xb8\x8ffollow'
p341
I31
sS'always'
p342
I31
sS'drop'
p343
I31
sS'subscribers'
p344
I31
sS'cuzz'
p345
I31
sS'2b'
p346
I30
sS'rock'
p347
I31
sS'rejoicing'
p348
I31
sS'arroz'
p349
I31
sS'side'
p350
I30
sS"isn't"
p351
I31
sS'mean'
p352
I31
sS'everyone'
p353
I30
sS'(the'
p354
I31
sS'whosoever'
p355
I31
sS'doing'
p356
I30
sS'house'
p357
I27
sS'hard'
p358
I31
sS'yeah'
p359
I30
sS'$130'
p360
I31
sS'forgot'
p361
I31
sS'our'
p362
I30
sS'qaida'
p363
I31
sS'salads'
p364
I31
sS'saturday'
p365
I31
sS'es'
p366
I31
sS'out'
p367
I27
sS'rt'
p368
I30
sS'living'
p369
I31
sS'given'
p370
I31
sS'trending'
p371
I31
sS'won'
p372
I31
sS'driving'
p373
I29
sS'oprah'
p374
I31
sS'god'
p375
I29
sS'rep'
p376
I31
sS'since'
p377
I29
sS'..what'
p378
I31
sS'agofuck'
p379
I31
sS'camiseta'
p380
I31
sS'looking'
p381
I30
sS'acting'
p382
I31
sS'stupid'
p383
I31
sS'smh'
p384
I31
sS'got'
p385
I28
sS'gow'
p386
I31
sS'bitchass'
p387
I31
sS'sensor'
p388
I31
sS'correct'
p389
I30
sS'gears'
p390
I30
sS'ass'
p391
I29
sS'shut'
p392
I31
sS'hurts\xe2\x80\x9d'
p393
I31
sS"doesn't"
p394
I31
sS'cars'
p395
I31
sS'ipod'
p396
I31
sS'team'
p397
I31
sS'forgive'
p398
I30
sS'free'
p399
I31
sS'bulls'
p400
I30
sS'basketball'
p401
I31
sS'unwanted'
p402
I31
sS"people's"
p403
I31
sS'put'
p404
I30
sS'princess'
p405
I31
sS'advance'
p406
I31
sS'starts'
p407
I31
sS'calories'
p408
I31
sS'days'
p409
I27
sS'keep'
p410
I29
sS'turn'
p411
I30
sS'heck'
p412
I31
sS'yum'
p413
I30
sS'w'
p414
I31
sS'unknown'
p415
I31
sS'heckle'
p416
I31
sS'...but'
p417
I31
sS'ughmy'
p418
I31
sS'think'
p419
I29
sS'anita'
p420
I30
sS'first'
p421
I29
sS'blind'
p422
I31
sS'already'
p423
I26
sS'dont'
p424
I29
sS'mish'
p425
I31
sS'feel'
p426
I28
sS'taco'
p427
I31
sS'jesus'
p428
I27
sS'feet'
p429
I31
sS'sisters'
p430
I31
sS'done'
p431
I28
sS'bitch'
p432
I30
sS'another'
p433
I29
sS'owner'
p434
I31
sS'kobe'
p435
I31
sS'sounds'
p436
I31
sS'kidding'
p437
I31
sS'miss'
p438
I28
sS'tomorrow'
p439
I30
sS"'bout"
p440
I31
sS"you're"
p441
I28
sS'story'
p442
I30
sS'long'
p443
I30
sS'dump'
p444
I31
sS'service'
p445
I31
sS'start'
p446
I30
sS'3:59'
p447
I31
sS'caught'
p448
I30
sS'girls'
p449
I31
sS'system'
p450
I31
sS'anyone'
p451
I30
sS'their'
p452
I27
sS'2'
p453
I18
sS'too'
p454
I28
sS'stuffed'
p455
I31
sS'hollywood'
p456
I21
sS'turnovers'
p457
I31
sS'pesa'
p458
I31
sS'friend'
p459
I30
sS'gives'
p460
I31
sS'post-mortem'
p461
I31
sS'gear'
p462
I31
sS'that'
p463
I20
sS'nvite'
p464
I31
sS'megan'
p465
I31
sS'cops'
p466
I30
sS'ridiculous'
p467
I31
sS'gruesome'
p468
I31
sS'believe'
p469
I30
sS'bruh\xe2\x80\x9d'
p470
I31
sS'than'
p471
I31
sS'positively'
p472
I31
sS'obama'
p473
I31
sS'body)'
p474
I31
sS'mercy'
p475
I31
sS'kind'
p476
I31
sS'mahal'
p477
I31
sS'lmao'
p478
I28
sS'taken'
p479
I31
sS'gotta'
p480
I29
sS'pads'
p481
I31
sS'bed'
p482
I31
sS'matter'
p483
I31
sS'r'
p484
I29
sS'chirping...but'
p485
I31
sS'loves'
p486
I31
sS'were'
p487
I31
sS'dumb'
p488
I31
sS'happy'
p489
I29
sS"'75"
p490
I31
sS'and'
p491
I14
sS'raincheck'
p492
I31
sS'tasted'
p493
I31
sS'mind'
p494
I31
sS'rah'
p495
I31
sS'sad'
p496
I28
sS'tonight'
p497
I30
sS'talking'
p498
I31
sS'say'
p499
I31
sS'22min'
p500
I31
sS'have'
p501
I22
sS'need'
p502
I29
sS'bad"'
p503
I31
sS'seem'
p504
I31
sS'mins'
p505
I31
sS'apparently'
p506
I31
sS'kevin'
p507
I31
sS'craziest'
p508
I31
sS'lie'
p509
I30
sS'laden'
p510
I31
sS'allergies'
p511
I31
sS'editing'
p512
I31
sS'-'
p513
I30
sS'1961'
p514
I31
sS'hangover'
p515
I31
sS'arm'
p516
I31
sS'also'
p517
I31
sS'henny'
p518
I31
sS'build'
p519
I30
sS'season'
p520
I31
sS'daves'
p521
I31
sS'many'
p522
I31
sS'channel'
p523
I31
sS'200'
p524
I31
sS'santiago'
p525
I31
sS'compa'
p526
I30
sS'though'
p527
I31
sS'aww'
p528
I31
sS'quote'
p529
I31
sS'knew'
p530
I30
sS'seemz'
p531
I31
sS'most'
p532
I29
sS'aaaaahhhhhhahahaa'
p533
I31
sS'plan'
p534
I30
sS'exes'
p535
I31
sS'nothing'
p536
I31
sS'knee'
p537
I31
sS'why'
p538
I24
sS'appear'
p539
I31
sS'picture'
p540
I31
sS'cause'
p541
I31
sS'luv'
p542
I31
sS'rogers'
p543
I31
sS'dream'
p544
I31
sS'clear'
p545
I30
sS'proud'
p546
I30
sS'drive'
p547
I31
sS'yours'
p548
I31
sS'digo'
p549
I31
sS'undeniably'
p550
I31
sS"maybe..it's"
p551
I31
sS'wc)'
p552
I31
sS'uncle'
p553
I31
sS'came'
p554
I30
sS'son'
p555
I31
sS'saying'
p556
I30
sS'answered'
p557
I31
sS'shuffle'
p558
I31
sS'rapture'
p559
I31
sS'lay'
p560
I31
sS'assholes'
p561
I31
sS'hugging'
p562
I31
sS'bring'
p563
I31
sS'fear'
p564
I31
sS'fine'
p565
I30
sS'realizing'
p566
I31
sS'one'
p567
I26
sS'near'
p568
I31
sS'woot'
p569
I30
sS'noho/burbank'
p570
I31
sS'doyer'
p571
I31
sS'('
p572
I31
sS'fans'
p573
I31
sS'bust'
p574
I31
sS'should'
p575
I29
sS'only'
p576
I27
sS'going'
p577
I30
sS'black'
p578
I30
sS'pretty'
p579
I31
sS'money'
p580
I30
sS'8'
p581
I30
sS'girlie'
p582
I31
sS'titans'
p583
I31
sS'hope'
p584
I31
sS'pumpkin'
p585
I31
sS'wearing'
p586
I31
sS'do'
p587
I25
sS'dm'
p588
I30
sS'hit'
p589
I31
sS'get'
p590
I20
sS'chicago'
p591
I31
sS'haaaaaaaaaaaaaa'
p592
I31
sS'blur'
p593
I31
sS'stop'
p594
I29
sS'dc'
p595
I31
sS'famous'
p596
I31
sS'amazon'
p597
I31
sS'ones'
p598
I31
sS'weeks/'
p599
I31
sS"'til"
p600
I31
sS'wedding'
p601
I30
sS'rite'
p602
I31
sS'celebrate'
p603
I30
sS'cold'
p604
I31
sS'pollo'
p605
I31
sS"andre's"
p606
I31
sS'artist'
p607
I30
sS'racing'
p608
I31
sS'funny\xe2\x80\x9d'
p609
I31
sS'bay'
p610
I30
sS'bae'
p611
I30
sS'croatia'
p612
I31
sS'she'
p613
I29
sS'shots'
p614
I29
sS'release'
p615
I28
sS'including'
p616
I31
sS'hollywood)'
p617
I31
sS'caressssssss'
p618
I31
sS'where'
p619
I24
sS'bother'
p620
I31
sS"y'all"
p621
I31
sS'shack"'
p622
I31
sS'chojukhneroon'
p623
I31
sS'w/'
p624
I29
sS'sensitivity'
p625
I31
sS'humans'
p626
I31
sS"hasn't"
p627
I31
sS'gangster'
p628
I31
sS'see'
p629
I29
sS'defense'
p630
I31
sS'unashamedly'
p631
I31
sS'are'
p632
I20
sS'close'
p633
I31
sS'emulating'
p634
I31
sS'vita'
p635
I31
sS'best'
p636
I27
sS'brazil'
p637
I29
sS'closes'
p638
I31
sS'fails'
p639
I31
sS'said'
p640
I29
sS'taqueria'
p641
I27
sS'mitch'
p642
I31
sS'morn'
p643
I31
sS'away'
p644
I31
sS'3'
p645
I27
sS"there's"
p646
I31
sS'gotchuuuu'
p647
I31
sS'reading'
p648
I31
sS'pfft'
p649
I31
sS'across'
p650
I31
sS'much\xe2\x9d\xa4\xef\xb8\x8f'
p651
I31
sS'bought'
p652
I31
sS'knowing'
p653
I31
sS'ima'
p654
I31
sS'we'
p655
I23
sS'invite'
p656
I31
sS'amen'
p657
I30
sS'attention'
p658
I31
sS'weak'
p659
I31
sS'ignorance'
p660
I31
sS'boss'
p661
I31
sS'guitar'
p662
I31
sS'job'
p663
I31
sS'recovr'
p664
I31
sS'joe'
p665
I31
sS'wtf'
p666
I31
sS'jk'
p667
I31
sS'news'
p668
I27
sS'picking'
p669
I31
sS'lap'
p670
I31
sS'sushi'
p671
I31
sS'recall'
p672
I31
sS'c'
p673
I30
sS'tfti'
p674
I29
sS'last'
p675
I30
sS'met'
p676
I31
sS'admin'
p677
I31
sS'joke'
p678
I31
sS"he's"
p679
I29
sS'condition"'
p680
I31
sS'drug'
p681
I31
sS'personal'
p682
I31
sS'know...absolutely'
p683
I31
sS'games'
p684
I31
sS'dated'
p685
I31
sS'faces'
p686
I30
sS'laughter'
p687
I31
sS'baseball'
p688
I31
sS'com'
p689
I31
sS"can't"
p690
I27
sS'con'
p691
I31
sS'comment'
p692
I30
sS'co'
p693
I31
sS'drunk'
p694
I31
sS'within'
p695
I31
sS'royal'
p696
I31
sS'others'
p697
I31
sS'cd'
p698
I27
sS'moswantedmondays'
p699
I31
sS'medication'
p700
I31
sS'leche'
p701
I31
sS'cousin'
p702
I31
sS'table'
p703
I31
sS'trust'
p704
I31
sS'tornado'
p705
I31
sS'late'
p706
I31
sS'yay'
p707
I31
sS'beef'
p708
I31
sS'"you'
p709
I31
sS"it's"
p710
I23
sS'lets'
p711
I31
sS'been'
p712
I26
sS'much'
p713
I26
sS'damn'
p714
I29
sS'west'
p715
I31
sS'cosgrove'
p716
I31
sS'pe'
p717
I31
sS'expected'
p718
I31
sS'proposal'
p719
I31
sS'attire'
p720
I31
sS'woke'
p721
I31
sS'mer'
p722
I31
sS'engine'
p723
I31
sS'life'
p724
I30
sS'lived'
p725
I31
sS'gay'
p726
I19
sS'boy'
p727
I31
sS'kisses'
p728
I31
sS"what's"
p729
I31
sS'arcadia'
p730
I31
sS'moment'
p731
I31
sS'www.peycebyron.com'
p732
I28
sS'understand'
p733
I31
sS'demand'
p734
I31
sS'smoking'
p735
I31
sS'worked'
p736
I31
sS'careful'
p737
I31
sS'vapeeee'
p738
I31
sS'paying'
p739
I31
sS'myself'
p740
I30
sS'bye'
p741
I31
sS'casa'
p742
I31
sS'look'
p743
I28
sS'these'
p744
I31
sS'straight'
p745
I31
sS'n'
p746
I26
sS'will'
p747
I28
sS'ugly'
p748
I29
sS'while'
p749
I30
sS'ratchet'
p750
I31
sS'behavior'
p751
I31
sS'hahaha'
p752
I31
sS'wild'
p753
I26
sS'chispita'
p754
I29
sS'bin'
p755
I31
sS'<3'
p756
I31
sS'played'
p757
I31
sS'is'
p758
I10
sS'everywhere'
p759
I31
sS'it'
p760
I11
sS'faker'
p761
I31
sS'someone'
p762
I30
sS'im'
p763
I28
sS'in'
p764
I8
sS'ready'
p765
I30
sS'victims'
p766
I31
sS'wks'
p767
I31
sS'34'
p768
I31
sS'worry'
p769
I31
sS'if'
p770
I23
sS'funny'
p771
I31
sS'different'
p772
I31
sS'open'
p773
I31
sS'pay'
p774
I30
sS'make'
p775
I30
sS's'
p776
I31
sS'same'
p777
I30
sS'strange'
p778
I31
sS'inch'
p779
I31
sS'gets'
p780
I31
sS'couple'
p781
I31
sS'week'
p782
I31
sS'independent'
p783
I31
sS'used'
p784
I31
sS'moved'
p785
I31
sS'innings'
p786
I31
sS'chalino'
p787
I31
sS'drink'
p788
I29
sS'hang'
p789
I31
sS'adelina'
p790
I31
sS'weed'
p791
I31
sS'ion'
p792
I31
sS'running'
p793
I30
sS'guh'
p794
I31
sS'lol\xe2\x80\x9d'
p795
I31
sS'fucked'
p796
I31
sS'vargas'
p797
I31
sS'kno'
p798
I31
sS'off'
p799
I30
sS'center'
p800
I31
sS'i'
p801
I2
sS'charger'
p802
I30
sS'well'
p803
I27
sS'kept'
p804
I31
sS'thought'
p805
I31
sS'person'
p806
I31
sS'jersey'
p807
I31
sS'y'
p808
I29
sS'deli'
p809
I31
sS'the'
p810
I3
sS'spend'
p811
I30
sS'left'
p812
I29
sS'salvi'
p813
I31
sS'underdog'
p814
I31
sS'kiss'
p815
I30
sS'just'
p816
I21
sS'$1'
p817
I31
sS'being'
p818
I31
sS'photo'
p819
I29
sS'sleepy'
p820
I30
sS'competitive'
p821
I31
sS'schools'
p822
I31
sS'kill'
p823
I31
sS'thanks'
p824
I27
sS'facts'
p825
I31
sS'yep'
p826
I28
sS'yes'
p827
I30
sS'october'
p828
I31
sS'yet'
p829
I29
sS'vape'
p830
I31
sS"could've"
p831
I31
sS'til'
p832
I31
sS'cilantro'
p833
I31
sS'orrr'
p834
I31
sS'cus'
p835
I31
sS'clark'
p836
I31
sS'thinking'
p837
I29
sS'had'
p838
I27
sS'wen'
p839
I31
sS'bench'
p840
I31
sS'dusse'
p841
I31
sS'hahahhaa'
p842
I31
sS'other'
p843
I31
sS'4'
p844
I27
sS'easy'
p845
I31
sS'sweet'
p846
I31
sS'ohhh'
p847
I31
sS'has'
p848
I30
sS'excited'
p849
I31
sS'take'
p850
I28
sS'real'
p851
I30
sS'sonic'
p852
I31
sS'maya'
p853
I31
sS'around'
p854
I31
sS'mos'
p855
I31
sS'replaced'
p856
I31
sS'showing'
p857
I31
sS'disagreement'
p858
I31
sS'gonna'
p859
I28
sS'nature"...still'
p860
I31
sS'shitty'
p861
I31
sS'game'
p862
I22
sS'know'
p863
I26
sS'recipient'
p864
I31
sS'dreams'
p865
I31
sS'intel'
p866
I31
sS"taco's"
p867
I31
sS'like'
p868
I17
sS'stranger'
p869
I31
sS'ayy'
p870
I31
sS'57'
p871
I31
sS'true'
p872
I31
sS'rachael'
p873
I31
sS'either'
p874
I29
sS'eek'
p875
I31
sS'night'
p876
I29
sS'...may'
p877
I31
sS'soft'
p878
I31
sS'healthy'
p879
I31
sS'italian'
p880
I31
sS'right'
p881
I27
sS'old'
p882
I31
sS'laugh'
p883
I31
sS'people'
p884
I29
sS'absolutely'
p885
I27
sS'twitter'
p886
I28
sS'some'
p887
I24
sS'back'
p888
I29
sS'dead'
p889
I30
sS'hair'
p890
I29
sS'lips'
p891
I31
sS'sure'
p892
I30
sS'respect'
p893
I31
sS'dear'
p894
I30
sS'home'
p895
I29
sS'little'
p896
I31
sS'thinks'
p897
I31
sS'provided'
p898
I31
sS'for'
p899
I16
sS'w/2'
p900
I31
sS'decision'
p901
I31
sS'normal'
p902
I31
sS'fox'
p903
I29
sS'tots'
p904
I31
sS'everything'
p905
I30
sS'loved'
p906
I31
sS'chispita)'
p907
I30
sS'connecting'
p908
I31
sS'cnn'
p909
I30
sS'be'
p910
I20
sS'who'
p911
I25
sS'pls'
p912
I30
sS'bc'
p913
I30
sS'lmfao'
p914
I30
sS'continuing'
p915
I31
sS'slut'
p916
I31
sS'gucci'
p917
I31
sS'discount'
p918
I30
sS'\xe2\x98\xba\xef\xb8\x8f'
p919
I31
sS'lover'
p920
I31
sS'bs'
p921
I31
sS"itit's"
p922
I31
sS'article'
p923
I31
sS'exciting'
p924
I31
sS'super'
p925
I31
sS'by'
p926
I25
sS'takes'
p927
I31
sS'trophy'
p928
I31
sS'on'
p929
I12
sS'about'
p930
I23
sS'ok'
p931
I29
sS':-/'
p932
I31
sS'anything'
p933
I29
sS'oh'
p934
I27
sS'of'
p935
I12
sS'firing'
p936
I31
sS'truck'
p937
I31
sS'hot'
p938
I31
sS'lankershim'
p939
I29
sS'dinner'
p940
I31
sS'horizon'
p941
I31
sS'act'
p942
I31
sS'wanna'
p943
I29
sS'or'
p944
I23
sS'seeing'
p945
I31
sS'"whosoever"'
p946
I31
sS'football...yes'
p947
I31
sS'presence'
p948
I31
sS'texting'
p949
I31
sS'into'
p950
I31
sS'miranda'
p951
I31
sS'usa'
p952
I31
sS'ppl'
p953
I29
sS'down'
p954
I29
sS'thankful'
p955
I31
sS'g8tful'
p956
I31
sS'nigga'
p957
I28
sS'bedtime'
p958
I30
sS"bradley's"
p959
I31
sS'your'
p960
I29
sS'smells'
p961
I31
sS'saturdays'
p962
I31
sS'her'
p963
I27
sS'weekend'
p964
I31
sS'support'
p965
I30
sS'there'
p966
I27
sS'hey'
p967
I31
sS'lol'
p968
I19
sS'fight'
p969
I30
sS'fucking'
p970
I28
sS'anderson'
p971
I31
sS'low'
p972
I31
sS'way'
p973
I28
sS'gio'
p974
I31
sS'music'
p975
I31
sS"'tromped'..don't"
p976
I31
sS'was'
p977
I20
sS'war'
p978
I30
sS'iphone'
p979
I30
sS'buy'
p980
I31
sS'north'
p981
I29
sS'peru'
p982
I31
sS"i've"
p983
I27
sS'brand'
p984
I31
sS'bitches'
p985
I31
sS'but'
p986
I21
sS'reps'
p987
I31
sS'boys'
p988
I30
sS'heat'
p989
I30
sS'christ'
p990
I31
sS'hear'
p991
I27
sS'ho'
p992
I30
sS'ahhh'
p993
I31
sS'line'
p994
I31
sS'ha'
p995
I30
sS'with'
p996
I23
sS'dull'
p997
I31
sS'he'
p998
I31
sS"they're"
p999
I29
sS'throw'
p1000
I31
sS'made'
p1001
I30
sS'calls'
p1002
I31
sS'monopoly'
p1003
I31
sS'payback'
p1004
I31
sS'inside'
p1005
I31
sS'morning'
p1006
I31
sS'noz'
p1007
I31
sS'up'
p1008
I22
sS'us'
p1009
I29
sS'ur'
p1010
I29
sS'below'
p1011
I31
sS'message'
p1012
I31
sS'stories'
p1013
I31
sS'"la'
p1014
I31
sS'agree'
p1015
I29
sS'strongly'
p1016
I31
sS'gone'
p1017
I29
sS'pawlento'
p1018
I31
sS'cmon'
p1019
I30
sS'af'
p1020
I30
sS'minutes'
p1021
I31
sS'am'
p1022
I29
sS'al'
p1023
I30
sS'an'
p1024
I27
sS'thks'
p1025
I31
sS'as'
p1026
I20
sS'at'
p1027
I14
sS'curious'
p1028
I30
sS'watched'
p1029
I31
sS'shit'
p1030
I31
sS'again'
p1031
I30
sS'rumors'
p1032
I31
sS'relaxing'
p1033
I31
sS'no'
p1034
I24
sS'boos'
p1035
I31
sS'when'
p1036
I27
sS'green'
p1037
I31
sS'(north'
p1038
I23
sS'westminster'
p1039
I31
sS'ny'
p1040
I31
sS'interested'
p1041
I30
sS'5'
p1042
I31
sS'sick'
p1043
I30
sS'you'
p1044
I7
sS'pills'
p1045
I31
sS'album'
p1046
I31
sS'draw'
p1047
I31
sS'getting'
p1048
I31
sS'coils'
p1049
I31
sS'june'
p1050
I31
sS"let's"
p1051
I28
sS'kinda'
p1052
I31
sS'bcos'
p1053
I30
sS'shift'
p1054
I31
sS'friends'
p1055
I30
sS'needed'
p1056
I31
sS'died'
p1057
I31
sS'mimis'
p1058
I31
sS'"human'
p1059
I31
sS'studio'
p1060
I31
sS'longer'
p1061
I30
sS'madness'
p1062
I31
sS'phone'
p1063
I31
sS'baker'
p1064
I31
sS'4u'
p1065
I31
sS'hello'
p1066
I31
sS'u'
p1067
I20
sS'ortiz'
p1068
I31
sS'time'
p1069
I29
sS'far'
p1070
I31
sS"she's"
p1071
I31
sS'"the'
p1072
I31
sS'sometimes'
p1073
I31
sS'having'
p1074
I30
s.