(dp0
S''
p1
I1
sS'all'
p2
I18
sS':('
p3
I33
sS'dance'
p4
I33
sS'dollar'
p5
I33
sS'walking'
p6
I33
sS'sleep'
p7
I31
sS'go'
p8
I24
sS'follow'
p9
I28
sS'liam'
p10
I33
sS'hate'
p11
I33
sS'21st'
p12
I33
sS'feeding'
p13
I33
sS'smileyou'
p14
I33
sS'suicido'
p15
I33
sS'stinky'
p16
I33
sS'flash'
p17
I33
sS'up"'
p18
I33
sS'disgusting'
p19
I33
sS'contemplating'
p20
I33
sS'to'
p21
I6
sS'finally'
p22
I33
sS'does'
p23
I33
sS'artpop'
p24
I32
sS'sorry'
p25
I33
sS'fml'
p26
I33
sS'bestv'
p27
I33
sS'me'
p28
I13
sS'song'
p29
I31
sS'far'
p30
I32
sS'hot\xe2\x80\xa6'
p31
I33
sS'faggy'
p32
I33
sS'myself'
p33
I33
sS'shoot'
p34
I33
sS'vegas'
p35
I33
sS'tatted'
p36
I33
sS'fam'
p37
I33
sS'w/all'
p38
I33
sS'blast'
p39
I33
sS'wore'
p40
I33
sS'school'
p41
I31
sS'bestfriend'
p42
I33
sS'hour'
p43
I33
sS'thotty'
p44
I33
sS'did'
p45
I30
sS'12th'
p46
I33
sS'gettin'
p47
I32
sS'laying'
p48
I33
sS'make'
p49
I33
sS'v.i.p'
p50
I33
sS'try'
p51
I33
sS'frozen'
p52
I33
sS'drakes'
p53
I33
sS'crotch'
p54
I33
sS'harry'
p55
I29
sS'quick'
p56
I33
sS'fashion'
p57
I33
sS'shave'
p58
I33
sS'the'
p59
I3
sS'says'
p60
I30
sS'tired'
p61
I32
sS'27+'
p62
I33
sS'crop'
p63
I33
sS'waking'
p64
I33
sS'ganbarimaaasu\xe2\x9c\x8a\xe2\x9c\x8a\xe2\x9c\x8a'
p65
I33
sS'second'
p66
I33
sS'traveling'
p67
I33
sS'nadeen'
p68
I33
sS'eating'
p69
I33
sS'spaghetti'
p70
I33
sS'shawtey'
p71
I33
sS'drinks'
p72
I32
sS'even'
p73
I31
sS'what'
p74
I28
sS'sign'
p75
I33
sS'ugly'
p76
I31
sS'giving'
p77
I33
sS'sun'
p78
I33
sS'sum'
p79
I33
sS'access'
p80
I33
sS'bipolar'
p81
I33
sS'version'
p82
I33
sS'twins'
p83
I33
sS'lizzie'
p84
I33
sS'new'
p85
I29
sS'oaks'
p86
I31
sS'boost'
p87
I33
sS'told'
p88
I32
sS'ratchet'
p89
I33
sS'meg'
p90
I33
sS'lee'
p91
I33
sS'onion'
p92
I33
sS'never'
p93
I32
sS'loling'
p94
I33
sS'here'
p95
I28
sS'hours'
p96
I33
sS'met'
p97
I32
sS'busy'
p98
I33
sS'let'
p99
I33
sS'free'
p100
I33
sS'crippled'
p101
I33
sS'sexy'
p102
I33
sS'(sherman'
p103
I31
sS'imperfections'
p104
I33
sS'change'
p105
I32
sS'wait'
p106
I31
sS'boy'
p107
I32
sS'great'
p108
I31
sS'kids'
p109
I32
sS'k'
p110
I33
sS'changed'
p111
I33
sS'pics'
p112
I32
sS'mac'
p113
I33
sS'"feeling"'
p114
I33
sS'arent'
p115
I33
sS'musically'
p116
I33
sS'browsing'
p117
I33
sS"i'm"
p118
I14
sS'makes'
p119
I32
sS'tt'
p120
I33
sS'thats'
p121
I33
sS'joshua'
p122
I33
sS'control'
p123
I33
sS'love'
p124
I20
sS'family'
p125
I33
sS'prefer'
p126
I33
sS'crazy'
p127
I33
sS'replace'
p128
I33
sS'put'
p129
I33
sS'vip'
p130
I33
sS'fraud'
p131
I33
sS'guests'
p132
I33
sS'slutty'
p133
I33
sS'1st'
p134
I33
sS'use'
p135
I33
sS'from'
p136
I23
sS'0'
p137
I33
sS'runyon'
p138
I33
sS'today\xe2\x9c\xa8from'
p139
I33
sS'visit'
p140
I33
sS'maddie'
p141
I33
sS'next'
p142
I33
sS'few'
p143
I33
sS'live'
p144
I32
sS'randy'
p145
I33
sS'music'
p146
I33
sS'gorgeous'
p147
I33
sS'taken'
p148
I33
sS'right-'
p149
I33
sS'tell'
p150
I31
sS'today'
p151
I28
sS'more'
p152
I33
sS'"can'
p153
I33
sS'playboy'
p154
I33
sS'knows'
p155
I33
sS'relax'
p156
I33
sS'club'
p157
I33
sS'hoooolller'
p158
I33
sS'haha'
p159
I32
sS'"i'
p160
I33
sS'phone'
p161
I31
sS'landed'
p162
I33
sS"ain't"
p163
I33
sS'broke'
p164
I33
sS'baby'
p165
I31
sS'midst'
p166
I33
sS'hold'
p167
I33
sS'earth'
p168
I33
sS'must'
p169
I31
sS'customer'
p170
I30
sS'grill'
p171
I32
sS'room'
p172
I33
sS'vladimir'
p173
I32
sS'niggas'
p174
I32
sS'this'
p175
I20
sS'car'
p176
I30
sS'work'
p177
I28
sS'vs'
p178
I33
sS'del'
p179
I33
sS'can'
p180
I22
sS'wrestler'
p181
I33
sS'wrestles'
p182
I33
sS'growing'
p183
I33
sS'meet'
p184
I28
sS'poug'
p185
I33
sS'my'
p186
I7
sS'biscuit'
p187
I33
sS'meeeeeeeee'
p188
I33
sS'heart'
p189
I32
sS'vodka'
p190
I32
sS'calumet\xe2\x80\xa6'
p191
I33
sS'grace'
p192
I33
sS'give'
p193
I33
sS'feeeeeelssss'
p194
I33
sS'finallyyyyyyy'
p195
I33
sS"didn't"
p196
I30
sS'fuck'
p197
I32
sS'bus'
p198
I33
sS'terrible'
p199
I33
sS'honey'
p200
I33
sS'heard'
p201
I32
sS'"rocket"'
p202
I33
sS'something'
p203
I33
sS'want'
p204
I26
sS'gallon'
p205
I33
sS'times'
p206
I33
sS'taj'
p207
I33
sS'ceremony'
p208
I33
sS'compatible'
p209
I33
sS'dazzle'
p210
I33
sS'end'
p211
I33
sS'thing'
p212
I33
sS'*read'
p213
I33
sS'breast'
p214
I33
sS'how'
p215
I23
sS'hot'
p216
I32
sS'winners'
p217
I33
sS'forest'
p218
I33
sS'gurl'
p219
I31
sS'stock'
p220
I33
sS'waved'
p221
I33
sS'badly'
p222
I33
sS'bday'
p223
I32
sS'after'
p224
I31
sS'3.49'
p225
I33
sS'wrong'
p226
I31
sS'stars'
p227
I33
sS'mad'
p228
I33
sS'men'
p229
I33
sS'ethnic'
p230
I33
sS'such'
p231
I33
sS'coast'
p232
I33
sS'guys'
p233
I31
sS'loyal'
p234
I33
sS'man'
p235
I31
sS'a'
p236
I4
sS'buzzz'
p237
I33
sS"that'd"
p238
I33
sS'maybe'
p239
I33
sS'si'
p240
I33
sS'so'
p241
I19
sS'keeps'
p242
I33
sS'offend'
p243
I33
sS'facebook'
p244
I33
sS'playing'
p245
I31
sS'se'
p246
I33
sS"that's"
p247
I31
sS'drunken'
p248
I33
sS'cute'
p249
I33
sS'digested'
p250
I33
sS'help'
p251
I33
sS"don't"
p252
I26
sS'over'
p253
I30
sS'move'
p254
I33
sS'5:30am'
p255
I33
sS'mission'
p256
I30
sS'installed'
p257
I33
sS'morningggg'
p258
I33
sS'finest'
p259
I33
sS'ticket'
p260
I33
sS'looks'
p261
I32
sS'left'
p262
I33
sS'japan'
p263
I31
sS'smiling'
p264
I33
sS'still'
p265
I30
sS'its'
p266
I32
sS'bunch'
p267
I33
sS'perfect'
p268
I33
sS'spotify'
p269
I33
sS'20'
p270
I33
sS'thank'
p271
I32
sS'la'
p272
I31
sS'ln'
p273
I33
sS'trying'
p274
I29
sS'team"'
p275
I33
sS'amazing'
p276
I31
sS'glutessssss'
p277
I33
sS'actually'
p278
I32
sS'better'
p279
I32
sS'405'
p280
I33
sS'choose'
p281
I33
sS'tweets'
p282
I33
sS'covered'
p283
I33
sS'hidden'
p284
I33
sS'bye'
p285
I33
sS'might'
p286
I33
sS"haven't"
p287
I33
sS'belly'
p288
I33
sS'dad'
p289
I33
sS'nom'
p290
I32
sS'them'
p291
I29
sS'good'
p292
I24
sS'pleaseeeeee'
p293
I33
sS'applause'
p294
I33
sS'spirits)'
p295
I33
sS'food'
p296
I32
sS'auto'
p297
I31
sS'workout'
p298
I32
sS'safe'
p299
I33
sS"we'll"
p300
I33
sS'break'
p301
I33
sS'lunch'
p302
I32
sS'snowball'
p303
I33
sS'therapy'
p304
I33
sS'they'
p305
I25
sS'ambition'
p306
I33
sS'front'
p307
I32
sS'now'
p308
I30
sS'day'
p309
I31
sS'bigger'
p310
I32
sS'drawering'
p311
I33
sS'name'
p312
I31
sS'sophomore'
p313
I33
sS'always'
p314
I26
sS'hancock'
p315
I33
sS'nfl'
p316
I33
sS'ewwww'
p317
I33
sS'alexis'
p318
I33
sS'shanal'
p319
I33
sS'accomplishments'
p320
I33
sS'enchulagun'
p321
I33
sS'bearings'
p322
I33
sS'dabs'
p323
I33
sS'found'
p324
I32
sS'went'
p325
I33
sS'mean'
p326
I33
sS'wheel'
p327
I33
sS'everyone'
p328
I31
sS'aaaaaaawesomeeeee'
p329
I33
sS'knockout'
p330
I33
sS'house'
p331
I33
sS'freaking'
p332
I33
sS'hard'
p333
I33
sS'"...oh'
p334
I33
sS'oil'
p335
I32
sS'expect'
p336
I33
sS'haaaaan'
p337
I33
sS'year'
p338
I32
sS'scratching'
p339
I33
sS'our'
p340
I30
sS'girl'
p341
I32
sS'flys'
p342
I33
sS'out'
p343
I28
sS'album'
p344
I32
sS'and\xe2\x80\xa6'
p345
I33
sS'jackson'
p346
I32
sS'try-out'
p347
I33
sS'driving'
p348
I33
sS'god'
p349
I29
sS'since'
p350
I33
sS'looking'
p351
I32
sS'seriously'
p352
I31
sS'daniel'
p353
I33
sS'freshman'
p354
I33
sS'hilarious'
p355
I33
sS'got'
p356
I28
sS'rn'
p357
I33
sS'sensor'
p358
I33
sS'red'
p359
I33
sS'subway'
p360
I33
sS'ass'
p361
I31
sS'shut'
p362
I33
sS'lag'
p363
I33
sS'cutest'
p364
I32
sS"you're"
p365
I27
sS'frank'
p366
I32
sS'team'
p367
I33
sS'boobs'
p368
I32
sS'guess'
p369
I33
sS'pub'
p370
I25
sS'disrespect'
p371
I33
sS'ahahahaha'
p372
I33
sS'basketball'
p373
I33
sS'lab'
p374
I33
sS'porgy'
p375
I33
sS'yet\xe2\x80\x9dsame'
p376
I33
sS'ask'
p377
I33
sS'region'
p378
I33
sS'keith'
p379
I33
sS'craving'
p380
I33
sS'care'
p381
I33
sS'sickkkkkk'
p382
I33
sS'bumped'
p383
I33
sS'g'
p384
I33
sS'selections'
p385
I33
sS'starts'
p386
I33
sS'could'
p387
I32
sS'punk'
p388
I33
sS'days'
p389
I32
sS'british'
p390
I24
sS'ist'
p391
I33
sS'creates'
p392
I33
sS'turn'
p393
I32
sS'act'
p394
I33
sS'birthday'
p395
I33
sS'place'
p396
I32
sS'swine'
p397
I33
sS'5sos'
p398
I33
sS'mein'
p399
I33
sS'pilots'
p400
I33
sS'think'
p401
I30
sS'first'
p402
I31
sS'feed'
p403
I33
sS"i'll"
p404
I33
sS'*'
p405
I31
sS'xo'
p406
I30
sS'feel'
p407
I33
sS'one'
p408
I29
sS'done'
p409
I33
sS'bitch'
p410
I30
sS'another'
p411
I32
sS'art'
p412
I33
sS'miss'
p413
I29
sS'tomorrow'
p414
I32
sS'hood'
p415
I23
sS"doesn't"
p416
I30
sS'little'
p417
I30
sS'long'
p418
I33
sS'jet'
p419
I33
sS'points)'
p420
I33
sS'twenty'
p421
I33
sS'caught'
p422
I33
sS'$6000'
p423
I33
sS'girls'
p424
I33
sS'system'
p425
I33
sS'anyone'
p426
I33
sS'their'
p427
I33
sS'attack'
p428
I33
sS'2'
p429
I32
sS'too'
p430
I31
sS'hollywood'
p431
I10
sS'circa'
p432
I33
sS'now.guess'
p433
I33
sS'final'
p434
I33
sS'friend'
p435
I33
sS'listen'
p436
I33
sS'malibu'
p437
I33
sS'shell'
p438
I33
sS'kanye'
p439
I33
sS'way'
p440
I32
sS'that'
p441
I21
sS'gym'
p442
I33
sS"men's"
p443
I33
sS'appreciation'
p444
I32
sS'luckily'
p445
I33
sS'part'
p446
I32
sS'grandpa'
p447
I33
sS'july'
p448
I33
sS'believe'
p449
I32
sS'than'
p450
I32
sS'distance'
p451
I33
sS'translate'
p452
I33
sS'lmao'
p453
I30
sS'gotten'
p454
I33
sS'goodnight'
p455
I33
sS'bed'
p456
I33
sS'banana'
p457
I33
sS'project'
p458
I33
sS'autumn'
p459
I33
sS'store'
p460
I33
sS'loves'
p461
I33
sS'were'
p462
I30
sS'to"'
p463
I33
sS'dumb'
p464
I33
sS'allergic'
p465
I33
sS'ousted'
p466
I33
sS'and'
p467
I8
sS'service)'
p468
I31
sS'lulz'
p469
I33
sS'sees'
p470
I33
sS'calumet'
p471
I9
sS'pro'
p472
I33
sS'jewels'
p473
I33
sS'sad'
p474
I32
sS'tonight'
p475
I32
sS'already'
p476
I33
sS'rat'
p477
I33
sS'substantial'
p478
I33
sS'graffiti'
p479
I33
sS'mongolian'
p480
I31
sS'have'
p481
I24
sS'glen'
p482
I33
sS'need'
p483
I30
sS'breakfast'
p484
I32
sS'.20'
p485
I33
sS'saw'
p486
I30
sS'meatballs'
p487
I33
sS'necessities'
p488
I33
sS'together!!"'
p489
I33
sS'abroad'
p490
I33
sS'nights'
p491
I33
sS'clutch'
p492
I33
sS'kristy'
p493
I33
sS'pain'
p494
I33
sS'storage'
p495
I33
sS'-'
p496
I33
sS'aside'
p497
I33
sS'walk'
p498
I33
sS'sinatra'
p499
I32
sS'high'
p500
I33
sS'morninggg'
p501
I33
sS'take'
p502
I31
sS'poster'
p503
I33
sS'finding'
p504
I33
sS'honestly'
p505
I33
sS'trivia'
p506
I33
sS'='
p507
I33
sS'channel'
p508
I33
sS'greatest'
p509
I33
sS'play'
p510
I33
sS'murphy'
p511
I33
sS'yesterday.i'
p512
I33
sS'though'
p513
I33
sS'bruce'
p514
I33
sS'who'
p515
I28
sS'most'
p516
I32
sS'brooklyn'
p517
I33
sS'host?"'
p518
I33
sS'mouth'
p519
I33
sS'amongst'
p520
I33
sS'kat'
p521
I33
sS'nothing'
p522
I32
sS'america'
p523
I33
sS'why'
p524
I22
sS'check'
p525
I33
sS'picture'
p526
I33
sS'cause'
p527
I33
sS'mobbed'
p528
I33
sS'cops'
p529
I33
sS'lawd'
p530
I33
sS'shooter'
p531
I33
sS'flow'
p532
I32
sS'roommates'
p533
I33
sS'$3.65'
p534
I33
sS'ways'
p535
I33
sS'definitely'
p536
I33
sS'talk'
p537
I33
sS'flawless'
p538
I33
sS"rigo's"
p539
I33
sS'skinny'
p540
I33
sS'wine'
p541
I30
sS'deng'
p542
I33
sS'came'
p543
I32
sS'analed'
p544
I33
sS'shop'
p545
I33
sS'atmosphere'
p546
I33
sS'ugh'
p547
I33
sS'mooooooooorninhhhhhhggg'
p548
I33
sS'show'
p549
I30
sS'text'
p550
I33
sS'lay'
p551
I33
sS'okcupid'
p552
I33
sS'timetake'
p553
I33
sS'bring'
p554
I33
sS'ever'
p555
I33
sS'radio'
p556
I33
sS'jared'
p557
I33
sS'chicken'
p558
I33
sS'tuesdays'
p559
I33
sS'rachelperryman'
p560
I33
sS'crush'
p561
I33
sS'ear'
p562
I32
sS'ratio'
p563
I33
sS'\xe2\x9c\x8b'
p564
I33
sS'original'
p565
I33
sS"baby's"
p566
I33
sS'3'
p567
I32
sS'ball'
p568
I33
sS'should'
p569
I32
sS'gurrrl'
p570
I33
sS'moments'
p571
I33
sS'only'
p572
I30
sS'going'
p573
I31
sS'pretty'
p574
I32
sS'money'
p575
I32
sS'watching'
p576
I33
sS'handsome'
p577
I33
sS'hope'
p578
I30
sS'wearing'
p579
I32
sS'do'
p580
I27
sS'his'
p581
I32
sS'you.because'
p582
I33
sS'get'
p583
I21
sS'beat'
p584
I32
sS'sooo'
p585
I33
sS'sunny'
p586
I33
sS'lucky'
p587
I32
sS'truly'
p588
I33
sS'cannot'
p589
I31
sS'longest'
p590
I33
sS'words'
p591
I31
sS'supplies'
p592
I33
sS'during'
p593
I33
sS'he'
p594
I33
sS'brit'
p595
I33
sS'him'
p596
I30
sS'is'
p597
I11
sS'holland'
p598
I33
sS'prime'
p599
I33
sS'portion'
p600
I33
sS'earn'
p601
I33
sS'bar'
p602
I33
sS'concerned'
p603
I33
sS"harry's"
p604
I33
sS'racing'
p605
I33
sS'cry'
p606
I32
sS'borrow'
p607
I33
sS'morning'
p608
I31
sS"wasn't"
p609
I33
sS'bad'
p610
I33
sS'stupid'
p611
I32
sS'she'
p612
I22
sS'release'
p613
I32
sS'lyric'
p614
I33
sS'where'
p615
I30
sS'ears'
p616
I33
sS'bars'
p617
I33
sS'lyft'
p618
I33
sS'besties'
p619
I33
sS'concert'
p620
I33
sS'gomora'
p621
I31
sS'station'
p622
I33
sS'sex'
p623
I32
sS'(ralph'
p624
I33
sS'(this'
p625
I33
sS'see'
p626
I29
sS'niners'
p627
I33
sS'college'
p628
I30
sS'are'
p629
I21
sS'hoes'
p630
I32
sS'bess'
p631
I33
sS'toilet.but'
p632
I33
sS'best'
p633
I32
sS'mascara'
p634
I33
sS'bae'
p635
I33
sS'practice'
p636
I33
sS'said'
p637
I33
sS'$2000'
p638
I33
sS'spirits'
p639
I32
sS'luv'
p640
I33
sS'lots'
p641
I33
sS'wow'
p642
I31
sS'please'
p643
I32
sS'quality'
p644
I33
sS"g37's"
p645
I33
sS'mayor'
p646
I33
sS'"oh'
p647
I33
sS'favor'
p648
I33
sS'enough'
p649
I31
sS'closed'
p650
I33
sS'hopefully'
p651
I33
sS'yogurt'
p652
I33
sS'probably'
p653
I31
sS'monsters'
p654
I33
sS'rady'
p655
I33
sS'knowing'
p656
I33
sS'ima'
p657
I33
sS'we'
p658
I24
sS'korea'
p659
I32
sS'omg'
p660
I29
sS'opening'
p661
I33
sS'trippen'
p662
I33
sS'youbut'
p663
I33
sS'white'
p664
I33
sS'"bubblegumbitch"'
p665
I33
sS'"not'
p666
I33
sS'wtf'
p667
I31
sS'hurts'
p668
I32
sS'wth'
p669
I33
sS'cousin'
p670
I33
sS'come'
p671
I32
sS'legit'
p672
I33
sS'both'
p673
I33
sS'tmap'
p674
I33
sS'last'
p675
I31
sS'brown'
p676
I33
sS'\xe2\x9d\xa4\xef\xb8\x8f'
p677
I31
sS'joke'
p678
I32
sS'ill'
p679
I33
sS'sparkling'
p680
I33
sS'job'
p681
I33
sS'flipped'
p682
I33
sS'film'
p683
I33
sS"she's"
p684
I33
sS'aura'
p685
I33
sS'himbut'
p686
I33
sS'drugs'
p687
I33
sS'asked'
p688
I32
sS"can't"
p689
I27
sS'ily'
p690
I33
sS'6'
p691
I33
sS'madness'
p692
I33
sS'awake.help'
p693
I33
sS'drunk'
p694
I33
sS'simple'
p695
I33
sS'sweet'
p696
I33
sS'address'
p697
I33
sS'insist'
p698
I33
sS'$580'
p699
I33
sS'gypsy'
p700
I33
sS'twin'
p701
I33
sS'sunshineyou'
p702
I33
sS'bitch"'
p703
I33
sS'asleep'
p704
I33
sS'sing'
p705
I33
sS'blarg'
p706
I33
sS"wouldn't"
p707
I33
sS'twitterand'
p708
I33
sS'"work'
p709
I33
sS'tbtues'
p710
I33
sS'smith'
p711
I33
sS'late'
p712
I33
sS'cheapest'
p713
I33
sS'weaving'
p714
I33
sS'whut'
p715
I33
sS'west'
p716
I32
sS'three'
p717
I33
sS'been'
p718
I31
sS'strategy'
p719
I33
sS'much'
p720
I31
sS'damn'
p721
I32
sS'treat'
p722
I32
sS'interest'
p723
I32
sS'basic'
p724
I33
sS'los'
p725
I33
sS'sesh'
p726
I33
sS'slightly'
p727
I33
sS'meeting'
p728
I32
sS'mary'
p729
I33
sS'bbq'
p730
I31
sS'morning.are'
p731
I33
sS'jaden'
p732
I33
sS'life'
p733
I27
sS'againa'
p734
I33
sS'trueeee'
p735
I33
sS'gay'
p736
I33
sS'too!\xe2\x98\xba\xef\xb8\x8f'
p737
I33
sS'robbed'
p738
I32
sS'gunpoint'
p739
I33
sS'face'
p740
I33
sS'blessing'
p741
I33
sS'gas'
p742
I33
sS'photos'
p743
I33
sS'gal'
p744
I33
sS'awake'
p745
I33
sS'2014'
p746
I33
sS'niece'
p747
I33
sS'driver'
p748
I33
sS'those'
p749
I33
sS'chill'
p750
I33
sS'pierce'
p751
I33
sS'you\xe2\x9c\xa8'
p752
I33
sS'look'
p753
I29
sS'talking'
p754
I33
sS'these'
p755
I33
sS'slept'
p756
I33
sS'tane'
p757
I33
sS'appearance'
p758
I33
sS'single'
p759
I33
sS'n'
p760
I32
sS'will'
p761
I32
sS'apparitions'
p762
I32
sS'while'
p763
I33
sS'ugliest'
p764
I33
sS'$3.45'
p765
I33
sS'fun'
p766
I31
sS'exist'
p767
I33
sS'cracked'
p768
I33
sS'robin'
p769
I24
sS'rings'
p770
I33
sS'fool'
p771
I33
sS'group'
p772
I33
sS'then'
p773
I31
sS'cents'
p774
I33
sS'pub)'
p775
I31
sS'losing'
p776
I33
sS'it'
p777
I14
sS'rip'
p778
I33
sS'fags'
p779
I33
sS'middle'
p780
I33
sS'cant'
p781
I33
sS'someone'
p782
I32
sS'im'
p783
I33
sS'dafuq'
p784
I33
sS'in'
p785
I9
sS'restroom'
p786
I33
sS'everyday'
p787
I33
sS'if'
p788
I30
sS'funny'
p789
I31
sS'denial'
p790
I33
sS'anymore'
p791
I33
sS'nobody'
p792
I33
sS'bowl'
p793
I33
sS'bella'
p794
I33
sS'layla'
p795
I33
sS'tweets\xe2\x9c\xa8'
p796
I33
sS'nomination'
p797
I33
sS'the\xe2\x80\xa6'
p798
I33
sS'speech'
p799
I33
sS'northwest'
p800
I33
sS'sucker'
p801
I33
sS'party'
p802
I32
sS'leg/ass'
p803
I33
sS'week'
p804
I33
sS'used'
p805
I31
sS'cindy'
p806
I33
sS'tops'
p807
I33
sS'effect'
p808
I33
sS'rain'
p809
I33
sS'hand'
p810
I33
sS'kik'
p811
I33
sS'fucken'
p812
I33
sS'lol\xe2\x80\x9d'
p813
I33
sS'fucked'
p814
I33
sS'changing'
p815
I32
sS'bob'
p816
I33
sS'kid'
p817
I33
sS'\xe2\x9c\x8c\xef\xb8\x8f'
p818
I33
sS'tracking'
p819
I33
sS'off'
p820
I31
sS'i'
p821
I2
sS'acknowledge'
p822
I33
sS'well'
p823
I33
sS'thought'
p824
I33
sS'person'
p825
I31
sS'genio'
p826
I33
sS'comes'
p827
I32
sS'mother'
p828
I33
sS'model'
p829
I31
sS'usual'
p830
I33
sS'summer'
p831
I33
sS'manicure'
p832
I33
sS'just'
p833
I21
sS'less'
p834
I32
sS'being'
p835
I30
sS'photo'
p836
I10
sS'enjoy'
p837
I33
sS'hands'
p838
I33
sS'rest'
p839
I33
sS'not'
p840
I26
sS'mistakes'
p841
I33
sS'thanks'
p842
I28
sS'behind'
p843
I33
sS'years'
p844
I33
sS'tough'
p845
I33
sS'yes'
p846
I32
sS'lauren'
p847
I33
sS'yet'
p848
I33
sS'hah'
p849
I33
sS'cigarette'
p850
I33
sS'titty'
p851
I33
sS'drivin'
p852
I33
sS'hiking'
p853
I33
sS'makennaidk'
p854
I33
sS'rose'
p855
I33
sS'had'
p856
I29
sS'cuz'
p857
I33
sS'leto'
p858
I33
sS'complain'
p859
I32
sS'cuzzi'
p860
I33
sS'parents'
p861
I32
sS'4'
p862
I32
sS'lives'
p863
I33
sS'homies'
p864
I33
sS'has'
p865
I28
sS'gave'
p866
I33
sS'real'
p867
I30
sS'customers'
p868
I33
sS'3.69'
p869
I33
sS'around'
p870
I32
sS'showing'
p871
I33
sS'gonna'
p872
I31
sS'thruu'
p873
I33
sS'game'
p874
I33
sS'know'
p875
I30
sS'mom'
p876
I30
sS'world'
p877
I33
sS'bit'
p878
I32
sS'looong'
p879
I33
sS'lady'
p880
I33
sS'donuts'
p881
I33
sS'dreams'
p882
I32
sS'hydrated'
p883
I33
sS'spit'
p884
I33
sS'like'
p885
I18
sS'-_-'
p886
I33
sS'stahppp'
p887
I33
sS'da'
p888
I33
sS'everytime'
p889
I33
sS'bracelet'
p890
I33
sS'canyon'
p891
I33
sS'favoriting'
p892
I33
sS'remind'
p893
I33
sS'fake'
p894
I33
sS'heyyy'
p895
I33
sS'laughing'
p896
I33
sS'night'
p897
I29
sS'become'
p898
I33
sS'awesome'
p899
I33
sS'making'
p900
I33
sS'soccer'
p901
I33
sS'nigga'
p902
I30
sS'old'
p903
I32
sS"couldn't"
p904
I33
sS'openly'
p905
I33
sS'people'
p906
I29
sS'fucking'
p907
I33
sS'herbie'
p908
I33
sS'hrs'
p909
I33
sS'some'
p910
I30
sS'back'
p911
I32
sS'oh'
p912
I32
sS'hair'
p913
I32
sS'drake'
p914
I33
sS'sight'
p915
I33
sS'proper'
p916
I32
sS'home'
p917
I30
sS'liking'
p918
I33
sS'ehhh'
p919
I33
sS'sociopaths'
p920
I33
sS'confusing'
p921
I33
sS'leaf'
p922
I33
sS'for'
p923
I15
sS'bottom'
p924
I33
sS'moning\xe2\x98\x80\xef\xb8\x8f\xe2\x9c\xa8'
p925
I33
sS'absolutely'
p926
I33
sS'per'
p927
I33
sS'moon'
p928
I33
sS'tho'
p929
I33
sS'honked'
p930
I33
sS'worship'
p931
I33
sS'temple'
p932
I33
sS'nwts'
p933
I33
sS'be'
p934
I18
sS'run'
p935
I33
sS'proud'
p936
I33
sS'fun\xe2\x80\xa6'
p937
I33
sS'withdrawals'
p938
I33
sS'feelings'
p939
I33
sS"niall's"
p940
I33
sS'bs'
p941
I33
sS'stoge\xe2\x80\x9d'
p942
I33
sS'rt'
p943
I33
sS'super'
p944
I33
sS'by'
p945
I27
sS'plug'
p946
I33
sS'on'
p947
I21
sS'about'
p948
I28
sS'amnesia'
p949
I33
sS'anything'
p950
I32
sS'getting'
p951
I31
sS'of'
p952
I12
sS'dollars'
p953
I33
sS'&'
p954
I25
sS'favorite'
p955
I30
sS'burbank'
p956
I33
sS'angeles'
p957
I33
sS'stand'
p958
I33
sS'stoked'
p959
I33
sS"it's"
p960
I23
sS'luck'
p961
I33
sS'wanna'
p962
I27
sS'or'
p963
I31
sS'ppl'
p964
I33
sS'seeing'
p965
I32
sS'portrait'
p966
I33
sS'hometown'
p967
I33
sS'into'
p968
I32
sS'hellbounds'
p969
I33
sS'bound'
p970
I33
sS'two'
p971
I33
sS'down'
p972
I30
sS'photo\xe2\x80\xa6'
p973
I31
sS'struggle'
p974
I33
sS'because'
p975
I31
sS'paper'
p976
I33
sS'female'
p977
I33
sS'partying'
p978
I33
sS'happening'
p979
I33
sS'soon'
p980
I33
sS'your'
p981
I24
sS'saturdays'
p982
I33
sS'stare'
p983
I33
sS'omfg'
p984
I33
sS'playlist'
p985
I33
sS'her'
p986
I25
sS'there'
p987
I31
sS'ca)'
p988
I31
sS'lol'
p989
I27
sS'noticed'
p990
I33
sS'doing'
p991
I32
sS"we're"
p992
I33
sS'lot'
p993
I31
sS'jane'
p994
I33
sS'arte'
p995
I33
sS'wings'
p996
I33
sS'valley'
p997
I29
sS'was'
p998
I19
sS'happy'
p999
I33
sS'building'
p1000
I33
sS'north'
p1001
I33
sS'maintenance'
p1002
I33
sS"i've"
p1003
I31
sS'saige'
p1004
I33
sS'becoming'
p1005
I33
sS'bitches'
p1006
I32
sS'trouble'
p1007
I33
sS'but'
p1008
I25
sS'delivery'
p1009
I33
sS'boys'
p1010
I32
sS'ughhh'
p1011
I33
sS'ha'
p1012
I32
sS'with'
p1013
I17
sS'eat'
p1014
I32
sS'posted'
p1015
I29
sS'count'
p1016
I33
sS'congratulations'
p1017
I33
sS'made'
p1018
I33
sS'campus'
p1019
I33
sS'up'
p1020
I24
sS'us'
p1021
I32
sS'ur'
p1022
I32
sS'tacos)'
p1023
I33
sS'un'
p1024
I33
sS'adore'
p1025
I33
sS'uk'
p1026
I33
sS'problem'
p1027
I33
sS'called'
p1028
I33
sS'tastes'
p1029
I33
sS'shes'
p1030
I33
sS'later'
p1031
I33
sS'angel\xe2\x80\x9d'
p1032
I33
sS'fans'
p1033
I33
sS'cover'
p1034
I33
sS'forgot'
p1035
I31
sS'am'
p1036
I31
sS'together'
p1037
I33
sS'scary'
p1038
I33
sS'an'
p1039
I33
sS'as'
p1040
I30
sS'right'
p1041
I32
sS'at'
p1042
I16
sS'mistaken'
p1043
I33
sS'annoying'
p1044
I31
sS'ew'
p1045
I32
sS'shit'
p1046
I31
sS'again'
p1047
I29
sS'chanel'
p1048
I33
sS'jesus'
p1049
I33
sS'no'
p1050
I27
sS'eastern'
p1051
I33
sS'when'
p1052
I25
sS'hitchcock'
p1053
I33
sS'application'
p1054
I33
sS'other'
p1055
I32
sS'5'
p1056
I33
sS'boom'
p1057
I33
sS'sick'
p1058
I33
sS'hmu'
p1059
I33
sS'bummed'
p1060
I33
sS'compete'
p1061
I33
sS'you'
p1062
I5
sS'really'
p1063
I29
sS'nice'
p1064
I32
sS'studied'
p1065
I33
sS'gonzalez'
p1066
I33
sS'woodman'
p1067
I33
sS'michael'
p1068
I33
sS'obsessed'
p1069
I33
sS'fuuuuuckedd'
p1070
I33
sS'describe'
p1071
I33
sS'stay'
p1072
I33
sS"let's"
p1073
I32
sS'fell'
p1074
I33
sS'recent'
p1075
I33
sS'code)'
p1076
I33
sS'chris'
p1077
I32
sS'posters'
p1078
I33
sS'hurt'
p1079
I33
sS'friends'
p1080
I32
sS'ago'
p1081
I32
sS'yarin'
p1082
I33
sS'gabe'
p1083
I33
sS'faster'
p1084
I33
sS"he's"
p1085
I33
sS'earthquake'
p1086
I33
sS'walked'
p1087
I32
sS'forever\xe2\x9b\x84\xef\xb8\x8fthis'
p1088
I33
sS'sharkys'
p1089
I33
sS'are\xe2\x9c\xa8a'
p1090
I33
sS'u'
p1091
I28
sS'time'
p1092
I31
sS'babyyy'
p1093
I33
sS'fresh'
p1094
I32
sS'having'
p1095
I30
sS'once'
p1096
I33
s.