(dp0
S''
p1
I4
sS'raining'
p2
I32
sS'all'
p3
I21
sS':('
p4
I32
sS':)'
p5
I29
sS'chinese'
p6
I32
sS'hint'
p7
I32
sS'month'
p8
I32
sS'although'
p9
I32
sS'andre'
p10
I32
sS'bdays'
p11
I32
sS'ugh'
p12
I32
sS'sleep'
p13
I29
sS'go'
p14
I23
sS'follow'
p15
I32
sS'expressions'
p16
I32
sS'tweeted'
p17
I32
sS'hate'
p18
I32
sS'sore'
p19
I32
sS'relationships'
p20
I32
sS'grape'
p21
I32
sS'bredryn'
p22
I31
sS'myla'
p23
I31
sS'tv'
p24
I32
sS'tu'
p25
I32
sS'\xe2\x98\xba\xef\xb8\x8f'
p26
I32
sS'young'
p27
I32
sS'dumpling'
p28
I32
sS'to'
p29
I9
sS'patched'
p30
I31
sS'ucsb'
p31
I31
sS'late'
p32
I31
sS'tf'
p33
I32
sS'lord'
p34
I32
sS'set'
p35
I32
sS'enjoying'
p36
I32
sS'started'
p37
I32
sS'shoot'
p38
I32
sS'(official'
p39
I32
sS'appointment'
p40
I32
sS'rescue'
p41
I32
sS'honest'
p42
I32
sS'sitting'
p43
I32
sS':d'
p44
I32
sS'finkosel'
p45
I32
sS'pussys'
p46
I32
sS'mania'
p47
I32
sS'every'
p48
I31
sS'jack'
p49
I32
sS'telling'
p50
I32
sS'little'
p51
I32
sS'exact'
p52
I32
sS'entire'
p53
I32
sS'din'
p54
I32
sS'hour'
p55
I32
sS'level'
p56
I32
sS'did'
p57
I32
sS"drumcell's"
p58
I32
sS'red'
p59
I32
sS'car'
p60
I28
sS'small'
p61
I31
sS'grave,91406\n496826982630707201,emily__hazel,2014-08-06'
p62
I32
sS'latching'
p63
I32
sS"i'll"
p64
I31
sS'work'
p65
I27
sS'trails'
p66
I32
sS'bacon'
p67
I32
sS'shut'
p68
I32
sS'nail'
p69
I32
sS'winds'
p70
I32
sS'video'
p71
I32
sS'upped'
p72
I32
sS'stressing'
p73
I32
sS'cravn'
p74
I32
sS'cesar'
p75
I32
sS'team.july'
p76
I32
sS'drinks'
p77
I32
sS'what'
p78
I29
sS'showcase'
p79
I32
sS'youuu'
p80
I32
sS'mom'
p81
I32
sS'waiting'
p82
I31
sS'new'
p83
I29
sS'sarkar'
p84
I32
sS'ever'
p85
I31
sS'told'
p86
I32
sS'drafted'
p87
I32
sS'full'
p88
I31
sS'tagarium'
p89
I32
sS'ily,91406\n480955508333887489,jaylynnrose__,2014-06-23'
p90
I32
sS'fieldhouse'
p91
I32
sS'never'
p92
I30
sS'commercial'
p93
I32
sS'here'
p94
I30
sS'water'
p95
I32
sS'studio'
p96
I29
sS'alone'
p97
I31
sS'sexy'
p98
I32
sS'strong'
p99
I32
sS'shit...we'
p100
I32
sS'change'
p101
I32
sS'wait'
p102
I30
sS'boy'
p103
I32
sS'great'
p104
I30
sS'kids'
p105
I31
sS'allows'
p106
I32
sS'jackie'
p107
I32
sS'leaving'
p108
I32
sS'credit'
p109
I31
sS'crack'
p110
I32
sS'def'
p111
I32
sS"i'm"
p112
I2
sS'cad'
p113
I32
sS"dad's"
p114
I32
sS'york'
p115
I32
sS'yoshinoya'
p116
I31
sS'whatnot'
p117
I32
sS'love'
p118
I25
sS'santa'
p119
I32
sS'really\xe2\x98\xba\xef\xb8\x8f)'
p120
I32
sS'duct'
p121
I32
sS'win'
p122
I31
sS'feelings'
p123
I31
sS'brought'
p124
I32
sS'hahahahah'
p125
I32
sS'by\xe2\x80\xa6'
p126
I31
sS'send'
p127
I32
sS'"i\'ve'
p128
I32
sS'tables\xe2\x80\x9d'
p129
I32
sS'singing'
p130
I32
sS'flavors'
p131
I32
sS'fee'
p132
I32
sS'from'
p133
I31
sS'would'
p134
I31
sS'&'
p135
I20
sS'hungry'
p136
I32
sS'dude'
p137
I32
sS'two'
p138
I30
sS'nuggets,91406\n239857150011252736,jackbogdan,2012-08-26'
p139
I32
sS'few'
p140
I32
sS'ca)'
p141
I19
sS'music'
p142
I31
sS'deffff'
p143
I32
sS'today'
p144
I26
sS'more'
p145
I32
sS'breathe'
p146
I32
sS'babe'
p147
I32
sS'knows'
p148
I32
sS'holy'
p149
I32
sS'woman!\xe2\x80\x9d'
p150
I32
sS'freestyle'
p151
I32
sS'brings'
p152
I32
sS'ti'
p153
I32
sS'haha'
p154
I32
sS',91406\n485492940299448320,deonnanichole,2014-07-05'
p155
I32
sS'confused'
p156
I32
sS'grandmahawaiian'
p157
I32
sS'slinky'
p158
I32
sS'interaction'
p159
I32
sS'talks'
p160
I32
sS'makeup/hair'
p161
I32
sS'penis'
p162
I32
sS'93'
p163
I32
sS'hold'
p164
I32
sS'glad'
p165
I32
sS'must'
p166
I32
sS'me'
p167
I12
sS'none'
p168
I32
sS'ma'
p169
I32
sS'room'
p170
I30
sS"workin'"
p171
I30
sS'this'
p172
I13
sS'roscoe'
p173
I30
sS'ride'
p174
I31
sS'getting'
p175
I28
sS'reads'
p176
I32
sS'cat'
p177
I32
sS'mw'
p178
I32
sS'can'
p179
I27
sS'entertainer'
p180
I32
sS'making'
p181
I32
sS'my'
p182
I8
sS'roundtable'
p183
I32
sS"denny's"
p184
I27
sS'beautiful'
p185
I31
sS'heart'
p186
I30
sS'crazy'
p187
I31
sS'i-405'
p188
I32
sS'shepherd'
p189
I32
sS'awesome'
p190
I32
sS"didn't"
p191
I32
sS'fuck'
p192
I28
sS'chit'
p193
I32
sS'high'
p194
I32
sS'heard'
p195
I32
sS'orion'
p196
I31
sS'want'
p197
I31
sS'past'
p198
I32
sS'muay'
p199
I26
sS'david'
p200
I32
sS',91406\n476744906350678017,kevito_bonito,2014-06-11'
p201
I32
sS'drama'
p202
I32
sS'06:07:52.0,34.22102702,-118.47176772,1275.20,://'
p203
I32
sS'end'
p204
I30
sS'awkward'
p205
I32
sS'thing'
p206
I32
sS'bunk'
p207
I32
sS'means'
p208
I32
sS'nazgol'
p209
I32
sS'1'
p210
I30
sS'how'
p211
I29
sS'amazing'
p212
I30
sS'18:38:31.0,34.22114866,-118.47188544,1275.20,life'
p213
I32
sS'csu'
p214
I32
sS"02:39:38.0,34.21873342,-118.47172701,1275.20,tonight's"
p215
I32
sS'beach'
p216
I32
sS'map'
p217
I32
sS'designer'
p218
I32
sS'tried'
p219
I32
sS'monica'
p220
I32
sS'bday'
p221
I30
sS'auto\xe2\x80\xa6'
p222
I32
sS'after'
p223
I30
sS"funit's"
p224
I32
sS'birthday'
p225
I32
sS'nigga'
p226
I32
sS'blood'
p227
I32
sS'waves'
p228
I32
sS'salsa'
p229
I32
sS'wave'
p230
I32
sS'guys'
p231
I32
sS'grow'
p232
I32
sS'man'
p233
I29
sS'a'
p234
I6
sS'stress'
p235
I32
sS'owns'
p236
I32
sS',91406\n496828108570644481,emily__hazel,2014-08-06'
p237
I32
sS'onto'
p238
I32
sS'so'
p239
I17
sS'lagoon'
p240
I32
sS'dream'
p241
I32
sS'talk'
p242
I32
sS'up\xe2\x80\x9d'
p243
I32
sS'shoes'
p244
I32
sS"don't"
p245
I29
sS'indeed'
p246
I32
sS'over'
p247
I32
sS'soon'
p248
I31
sS'fab'
p249
I32
sS'episodes'
p250
I32
sS'paper'
p251
I32
sS'lyric'
p252
I32
sS'looks'
p253
I31
sS'left'
p254
I32
sS'still'
p255
I31
sS'mayor'
p256
I28
sS'galaxy'
p257
I32
sS'before'
p258
I32
sS'perfect'
p259
I32
sS'unlucky'
p260
I32
sS'pouting'
p261
I32
sS'thank'
p262
I28
sS'till'
p263
I31
sS'interesting'
p264
I32
sS'expectations'
p265
I32
sS'actually'
p266
I31
sS'destroyed'
p267
I32
sS'feel'
p268
I30
sS'production'
p269
I32
sS'2018'
p270
I32
sS'weeks'
p271
I32
sS'holiday'
p272
I29
sS'selfie'
p273
I32
sS"haven't"
p274
I31
sS'happened'
p275
I32
sS'dad'
p276
I32
sS'them'
p277
I31
sS'good'
p278
I27
sS'yo'
p279
I32
sS'ya'
p280
I32
sS'auto'
p281
I30
sS'workout'
p282
I32
sS'school'
p283
I32
sS'nation'
p284
I31
sS'band'
p285
I32
sS'starbucks'
p286
I29
sS'they'
p287
I27
sS'half'
p288
I30
sS'not'
p289
I27
sS'now'
p290
I28
sS'day'
p291
I26
sS'gets'
p292
I32
sS'name'
p293
I32
sS'thankful'
p294
I32
sS'north'
p295
I32
sS'always'
p296
I29
sS'debut'
p297
I32
sS'lmaowhen'
p298
I32
sS'fatburger)'
p299
I32
sS'trap'
p300
I32
sS'each'
p301
I32
sS'found'
p302
I32
sS'15:16:57.0,34.21878378,-118.46959801,1275.20,waking'
p303
I32
sS'meal'
p304
I32
sS'mean'
p305
I32
sS'seniors'
p306
I32
sS'kazoozles'
p307
I32
sS'studios'
p308
I24
sS'everyone'
p309
I31
sS'another'
p310
I32
sS'doing'
p311
I32
sS'house'
p312
I29
sS'freaking'
p313
I32
sS'hard'
p314
I32
sS'yeah'
p315
I31
sS'line'
p316
I32
sS'nuys)'
p317
I30
sS'finish'
p318
I32
sS'ey'
p319
I32
sS'kuba'
p320
I32
sS'year'
p321
I31
sS'our'
p322
I29
sS'girl'
p323
I31
sS'marley'
p324
I32
sS'saturday'
p325
I30
sS'whip'
p326
I32
sS'out'
p327
I24
sS'living'
p328
I31
sS'lola'
p329
I31
sS'lakes\xe2\x80\xa6'
p330
I32
sS'alcohol'
p331
I32
sS'3rd'
p332
I32
sS'space'
p333
I32
sS'blt'
p334
I32
sS'childish'
p335
I32
sS'since'
p336
I32
sS'thirst'
p337
I32
sS'seriously'
p338
I32
sS'7'
p339
I32
sS'smh'
p340
I31
sS'got'
p341
I28
sS'rn'
p342
I31
sS'ro'
p343
I32
sS'time"'
p344
I32
sS'ass'
p345
I32
sS'abuelo'
p346
I32
sS'grease'
p347
I32
sS"doesn't"
p348
I32
sS'21:16:04.0,34.22129544,-118.47223945,1275.20,my'
p349
I32
sS'team'
p350
I32
sS'molly'
p351
I32
sS'story'
p352
I32
sS'free'
p353
I31
sS'jeanelle'
p354
I32
sS'disneyland'
p355
I32
sS'grandma'
p356
I31
sS'put'
p357
I32
sS'01:15:57.0,34.2168567,-118.4725401,1275.20,visiting'
p358
I32
sS'princess'
p359
I32
sS'ate'
p360
I31
sS'brasil'
p361
I32
sS'waiter'
p362
I32
sS'could'
p363
I32
sS'days'
p364
I32
sS'times'
p365
I32
sS'turn'
p366
I31
sS'musicians'
p367
I32
sS'w'
p368
I32
sS'soda'
p369
I32
sS'moving'
p370
I32
sS'strapping'
p371
I32
sS'(at'
p372
I32
sS'think'
p373
I24
sS'fuckin'
p374
I32
sS'first'
p375
I30
sS'enjoy'
p376
I32
sS'already'
p377
I32
sS'>>'
p378
I32
sS'dino'
p379
I31
sS'coming'
p380
I32
sS'number'
p381
I32
sS'xd'
p382
I32
sS'one'
p383
I28
sS'feet'
p384
I32
sS'infinite'
p385
I32
sS'spinning'
p386
I32
sS'congo'
p387
I32
sS'done'
p388
I32
sS'bitch'
p389
I30
sS'colombia'
p390
I32
sS'such'
p391
I32
sS'carry'
p392
I31
sS'message'
p393
I32
sS'fight'
p394
I32
sS'miss'
p395
I31
sS'tomorrow'
p396
I31
sS'size'
p397
I32
sS'city'
p398
I21
sS'given'
p399
I32
sS'heads'
p400
I32
sS"there's"
p401
I32
sS'start'
p402
I32
sS'caught'
p403
I31
sS'least'
p404
I31
sS'their'
p405
I31
sS'2'
p406
I30
sS'too'
p407
I30
sS'carousel'
p408
I32
sS'ankle'
p409
I32
sS'white'
p410
I30
sS'john'
p411
I32
sS'final'
p412
I31
sS'friend'
p413
I32
sS'eyes'
p414
I32
sS'passed'
p415
I32
sS'that'
p416
I21
sS'gym'
p417
I28
sS'hotel'
p418
I31
sS'took'
p419
I32
sS'part'
p420
I31
sS'grandpa'
p421
I32
sS'western'
p422
I32
sS'wasted'
p423
I31
sS'thai'
p424
I26
sS'believe'
p425
I29
sS'than'
p426
I30
sS'king'
p427
I31
sS'13'
p428
I32
sS'lmao'
p429
I31
sS'burger'
p430
I32
sS'19'
p431
I32
sS'18'
p432
I32
sS'gotta'
p433
I32
sS'goodnight'
p434
I32
sS'vocal'
p435
I32
sS'hyperventilating'
p436
I32
sS'matter'
p437
I32
sS'r'
p438
I30
sS'mermaid'
p439
I32
sS'iron'
p440
I32
sS'were'
p441
I30
sS'feeling'
p442
I31
sS'ousted'
p443
I28
sS'and'
p444
I16
sS'showbiz'
p445
I30
sS'sam'
p446
I32
sS',91406\n485674393612218368,franken5te1n,2014-07-06'
p447
I32
sS'fights'
p448
I32
sS'ginger'
p449
I32
sS'sad'
p450
I32
sS'tonight'
p451
I32
sS'conspiracy'
p452
I32
sS'have'
p453
I25
sS'need'
p454
I31
sS'seen'
p455
I31
sS'breakfast'
p456
I30
sS'saw'
p457
I31
sS'any'
p458
I32
sS'abroad'
p459
I32
sS"let's"
p460
I28
sS'chatting'
p461
I32
sS'shelby'
p462
I32
sS'lil'
p463
I31
sS'studying'
p464
I32
sS'-'
p465
I27
sS'qubeey'
p466
I5
sS'bloodbath'
p467
I32
sS"wasn't"
p468
I32
sS'take'
p469
I27
sS'ego'
p470
I32
sS'rides'
p471
I32
sS'youuuu'
p472
I32
sS'unless'
p473
I32
sS'though'
p474
I32
sS'knew'
p475
I30
sS'megan'
p476
I32
sS'w00000w'
p477
I32
sS"2's"
p478
I32
sS'enduring'
p479
I32
sS'06:39:33.0,34.21886873,-118.471881,1275.20,highlight'
p480
I32
sS'nothing'
p481
I32
sS'oil'
p482
I32
sS'\xe2\x80\x94'
p483
I32
sS'why'
p484
I32
sS'grave'
p485
I32
sS'don'
p486
I32
sS'windows'
p487
I32
sS'sometimes'
p488
I31
sS'm'
p489
I32
sS'drive'
p490
I31
sS'face'
p491
I31
sS'mammoth'
p492
I31
sS'blvd)'
p493
I32
sS'predictable'
p494
I32
sS'thot'
p495
I32
sS'wow'
p496
I32
sS"they're"
p497
I32
sS'shop'
p498
I32
sS'saying'
p499
I32
sS'walking'
p500
I32
sS'chariot'
p501
I32
sS'bomb'
p502
I32
sS'german'
p503
I32
sS'text'
p504
I32
sS'tequila'
p505
I32
sS'fianl'
p506
I32
sS'finn'
p507
I32
sS'corner'
p508
I32
sS'next'
p509
I32
sS'july'
p510
I32
sS'\xe2\x9c\x8c'
p511
I32
sS'finally'
p512
I32
sS'tire'
p513
I31
sS'jay'
p514
I32
sS'menu'
p515
I32
sS'storms'
p516
I32
sS'roommates'
p517
I32
sS'brimstone'
p518
I32
sS'rico'
p519
I32
sS'tears'
p520
I32
sS'going'
p521
I28
sS'tape'
p522
I32
sS'makeshift'
p523
I32
sS'zynga'
p524
I32
sS'money'
p525
I32
sS'california)'
p526
I26
sS"06:05:28.0,34.22102702,-118.47176772,1275.20,i'm"
p527
I32
sS'posted'
p528
I31
sS'hope'
p529
I31
sS'wearing'
p530
I32
sS'do'
p531
I29
sS'his'
p532
I31
sS'hit'
p533
I29
sS"22:29:00.0,34.21894157,-118.47113879,1275.20,i'm"
p534
I32
sS'get'
p535
I27
sS'luke'
p536
I32
sS'dope'
p537
I32
sS'express'
p538
I29
sS'sunny'
p539
I32
sS'tbt'
p540
I32
sS'webley'
p541
I32
sS'truly'
p542
I32
sS'famous'
p543
I31
sS"bob's"
p544
I32
sS'uta'
p545
I32
sS'fetish'
p546
I32
sS'stoe'
p547
I32
sS'midterms'
p548
I32
sS'chips'
p549
I32
sS'him'
p550
I31
sS'celebrate'
p551
I32
sS'holland'
p552
I32
sS'scene'
p553
I32
sS'cry'
p554
I31
sS'morning'
p555
I32
sS'twice'
p556
I32
sS'bad'
p557
I32
sS'she'
p558
I32
sS'tunes'
p559
I32
sS"won't"
p560
I32
sS'hahahahahahahahahahahahahahaha'
p561
I32
sS'where'
p562
I32
sS"y'all"
p563
I31
sS'>\xe2\x80\xa6<'
p564
I32
sS'qtr'
p565
I32
sS'siblings'
p566
I32
sS'w/'
p567
I32
sS'northridge'
p568
I32
sS'vine'
p569
I30
sS'volvo)'
p570
I32
sS'see'
p571
I31
sS'galpin'
p572
I19
sS'asleep'
p573
I32
sS'are'
p574
I24
sS'parking'
p575
I32
sS'sport'
p576
I32
sS'best'
p577
I28
sS'said'
p578
I31
sS'give'
p579
I32
sS'away'
p580
I32
sS'sadness'
p581
I32
sS'6\xe2\x83\xa3'
p582
I32
sS'its'
p583
I31
sS'lte'
p584
I32
sS'enough'
p585
I32
sS'score'
p586
I31
sS'between'
p587
I32
sS'unanimous'
p588
I32
sS'out.awesome'
p589
I32
sS'thrive'
p590
I32
sS'endure'
p591
I32
sS'we'
p592
I27
sS'omg'
p593
I30
sS'exam'
p594
I32
sS'god'
p595
I32
sS'outfit'
p596
I30
sS'mazda'
p597
I29
sS'wt'
p598
I32
sS'16:50:26.0,34.22075669,-118.47057576,1275.20,who'
p599
I32
sS'unfold'
p600
I32
sS'cedric'
p601
I32
sS'cousin'
p602
I32
sS'picking'
p603
I32
sS'4piece'
p604
I32
sS'come'
p605
I32
sS'legit'
p606
I30
sS'pull'
p607
I32
sS'guitar'
p608
I32
sS'cos'
p609
I31
sS'shoedazzle'
p610
I32
sS'last'
p611
I32
sS'many'
p612
I29
sS'ill'
p613
I32
sS"he's"
p614
I32
sS'adventures'
p615
I32
sS'shindig'
p616
I32
sS'connection'
p617
I32
sS'eta'
p618
I32
sS'games'
p619
I32
sS'those"'
p620
I32
sS'lookin'
p621
I32
sS'cherry'
p622
I32
sS'\xe2\x98\x9d\xef\xb8\x8f\xe2\x9c\xa8'
p623
I32
sS'let'
p624
I32
sS'asked'
p625
I31
sS"can't"
p626
I27
sS'knockers'
p627
I32
sS'color'
p628
I31
sS'sweet'
p629
I32
sS'ca'
p630
I31
sS'period'
p631
I32
sS'dispatch'
p632
I32
sS'liiffeeee'
p633
I32
sS'(15500'
p634
I31
sS'ur'
p635
I32
sS"couldn't"
p636
I31
sS'rave'
p637
I32
sS'diff'
p638
I32
sS'[pic]'
p639
I32
sS'sunday'
p640
I32
sS'better'
p641
I28
sS'asks'
p642
I32
sS"it's"
p643
I25
sS'been'
p644
I29
sS'legend'
p645
I32
sS'much'
p646
I28
sS'damn'
p647
I31
sS'yah'
p648
I32
sS'feather'
p649
I32
sS'waste'
p650
I32
sS'meeting'
p651
I32
sS'lipsticks'
p652
I32
sS"chillin'"
p653
I32
sS'wants'
p654
I31
sS'life'
p655
I31
sS'90th'
p656
I31
sS'shopping'
p657
I32
sS'sprite'
p658
I32
sS'gay'
p659
I32
sS"what's"
p660
I29
sS'starbucks)'
p661
I31
sS'gas'
p662
I32
sS'photos'
p663
I32
sS'tfti'
p664
I32
sS'wake'
p665
I32
sS'child'
p666
I31
sS'pig'
p667
I32
sS'dorm'
p668
I32
sS'realities'
p669
I32
sS'those'
p670
I32
sS'chill'
p671
I31
sS'sound'
p672
I22
sS'wins'
p673
I32
sS'casa'
p674
I32
sS'look'
p675
I32
sS'these'
p676
I31
sS'as'
p677
I23
sS'n'
p678
I27
sS'will'
p679
I30
sS'ugly'
p680
I32
sS'stunning'
p681
I32
sS'hahaha'
p682
I32
sS'fun'
p683
I31
sS'pack'
p684
I32
sS'ive'
p685
I32
sS'robert'
p686
I32
sS'cry,91406\n496827860678881282,emily__hazel,2014-08-06'
p687
I32
sS'is'
p688
I12
sS'it'
p689
I23
sS'sleeping'
p690
I32
sS'couples'
p691
I32
sS'cant'
p692
I31
sS'someone'
p693
I29
sS'im'
p694
I31
sS'in'
p695
I10
sS'ready'
p696
I32
sS'rid'
p697
I32
sS'seem'
p698
I32
sS"eric's"
p699
I32
sS'pay'
p700
I30
sS'make'
p701
I29
sS'0'
p702
I32
sS'same'
p703
I32
sS'://,91406\n480955378302066688,jaylynnrose__,2014-06-23'
p704
I32
sS'04:06:34.0,34.2203042,-118.4716887,1275.20,oh'
p705
I32
sS'hahah'
p706
I32
sS'venom'
p707
I32
sS'party'
p708
I29
sS'cream'
p709
I32
sS'downs'
p710
I32
sS"weren't"
p711
I32
sS'week'
p712
I31
sS'meets'
p713
I32
sS'outside'
p714
I32
sS"who's"
p715
I31
sS'again'
p716
I32
sS'drink'
p717
I32
sS'upon'
p718
I32
sS'lumpy'
p719
I32
sS'weed'
p720
I32
sS'director'
p721
I30
sS'aston'
p722
I32
sS'lincoln)'
p723
I32
sS'guardians'
p724
I32
sS'fucked'
p725
I31
sS'kia'
p726
I32
sS'bob'
p727
I32
sS'single'
p728
I32
sS'kid'
p729
I32
sS'\xe2\x9c\x8c\xef\xb8\x8f'
p730
I32
sS'costa'
p731
I32
sS'lowes'
p732
I32
sS'off'
p733
I32
sS'scenario'
p734
I32
sS'thx'
p735
I32
sS'i'
p736
I3
sS'floor'
p737
I31
sS'well'
p738
I29
sS'fusion'
p739
I32
sS'thought'
p740
I31
sS'burgers'
p741
I32
sS'cheer'
p742
I32
sS'comes'
p743
I32
sS'inc)'
p744
I31
sS'the'
p745
I4
sS'yours'
p746
I32
sS'tha'
p747
I32
sS'vid\xe2\x80\xa6'
p748
I32
sS'summer'
p749
I30
sS'>.<'
p750
I32
sS'bwade'
p751
I32
sS'just'
p752
I18
sS'being'
p753
I30
sS'photo'
p754
I30
sS'kill'
p755
I31
sS'thanks'
p756
I30
sS'human'
p757
I32
sS'anders'
p758
I32
sS'yet'
p759
I30
sS'hills'
p760
I32
sS'(40\xc2\xb0)'
p761
I32
sS'hated'
p762
I32
sS'had'
p763
I32
sS'killed'
p764
I32
sS'battery'
p765
I32
sS'parents'
p766
I32
sS'4'
p767
I31
sS'gym)'
p768
I32
sS'prison'
p769
I31
sS'inside...i'
p770
I32
sS"20:16:01.0,34.21807114,-118.46997937,1275.20,i'm"
p771
I32
sS'has'
p772
I26
sS'hat'
p773
I32
sS'hav'
p774
I32
sS'real'
p775
I31
sS'casting'
p776
I30
sS'around'
p777
I32
sS'testy'
p778
I32
sS'big'
p779
I32
sS'showing'
p780
I31
sS'(van'
p781
I16
sS'er...i'
p782
I32
sS'fridge'
p783
I32
sS'gonna'
p784
I28
sS'makin'
p785
I32
sS'traffic'
p786
I32
sS'game'
p787
I29
sS'ios'
p788
I32
sS'know'
p789
I29
sS'\xe2\x9d\xa4'
p790
I32
sS'person..,91406\n462805458864963585,sonyalizethh_,2014-05-04'
p791
I32
sS'world'
p792
I32
sS'bit'
p793
I32
sS'disappointed'
p794
I32
sS'>>>>>>>>>'
p795
I32
sS'21:53:13.0,34.21676227,-118.46651475,1275.20,car'
p796
I32
sS'lincoln'
p797
I32
sS'like'
p798
I26
sS'lost'
p799
I32
sS'party!\xe2\x80\x9d'
p800
I32
sS'honestly'
p801
I32
sS'tinted'
p802
I32
sS'facing'
p803
I32
sS'fatburger'
p804
I32
sS'benefit'
p805
I32
sS'individuals'
p806
I32
sS'(or'
p807
I32
sS';-)'
p808
I32
sS'night'
p809
I27
sS'works'
p810
I32
sS'sprinklers'
p811
I32
sS'01:20:26.0,34.2168567,-118.4725401,1275.20,i'
p812
I32
sS'because'
p813
I28
sS'old'
p814
I31
sS'joking'
p815
I32
sS'people'
p816
I29
sS'understand'
p817
I32
sS'easy'
p818
I32
sS'some'
p819
I30
sS'back'
p820
I28
sS'manziel'
p821
I32
sS"rpi's"
p822
I32
sS'chavez'
p823
I32
sS'mmmmm'
p824
I32
sS'proper'
p825
I32
sS'home'
p826
I31
sS'blade'
p827
I32
sS'ups'
p828
I32
sS'finna'
p829
I32
sS'orchid'
p830
I32
sS'happens'
p831
I32
sS'focused'
p832
I32
sS'for'
p833
I14
sS'literally'
p834
I32
sS'decision'
p835
I32
sS'ice'
p836
I32
sS'moon'
p837
I32
sS'foe'
p838
I32
sS'prom'
p839
I31
sS'does'
p840
I31
sS'hovercraft'
p841
I32
sS'foo'
p842
I32
sS'nuggets'
p843
I32
sS'harvey"idol"'
p844
I32
sS'be'
p845
I18
sS'who'
p846
I30
sS'run'
p847
I31
sS'lmfao'
p848
I32
sS'writing'
p849
I32
sS'303'
p850
I31
sS'drums'
p851
I32
sS'2.5hrs'
p852
I32
sS'homies.,91406\n485614017667297282,franken5te1n,2014-07-06'
p853
I32
sS'raider'
p854
I31
sS'by'
p855
I31
sS'hiding'
p856
I32
sS'on'
p857
I15
sS'about'
p858
I30
sS'coast'
p859
I32
sS'working'
p860
I32
sS'anything'
p861
I31
sS'oh'
p862
I31
sS'jenna'
p863
I32
sS'of'
p864
I11
sS'yeahhhhhh'
p865
I32
sS'favorite'
p866
I31
sS'brittany'
p867
I32
sS'hot'
p868
I32
sS'angeles'
p869
I31
sS'dinner'
p870
I32
sS'mysel'
p871
I32
sS'west'
p872
I32
sS'nuys'
p873
I11
sS'wanna'
p874
I30
sS'or'
p875
I30
sS'swimming'
p876
I32
sS"21:17:44.0,34.22129544,-118.47223945,1275.20,it's"
p877
I32
sS'bed'
p878
I32
sS'own'
p879
I32
sS'smiled'
p880
I32
sS'do,91406\n513226711794610176,anaberrry,2014-09-20'
p881
I32
sS'mommy'
p882
I30
sS'recreate'
p883
I32
sS'arms'
p884
I31
sS'down'
p885
I32
sS'immune'
p886
I32
sS'right'
p887
I32
sS'accounts'
p888
I32
sS'there"'
p889
I32
sS'strip'
p890
I32
sS'luck'
p891
I32
sS'amsterdam'
p892
I32
sS'sports'
p893
I30
sS'hang'
p894
I32
sS'your'
p895
I26
sS'bought'
p896
I32
sS'van'
p897
I25
sS"how's"
p898
I32
sS'her'
p899
I32
sS'yufeel'
p900
I32
sS'support'
p901
I32
sS'there'
p902
I30
sS"1's"
p903
I32
sS'pose.\xe2\x80\xa6'
p904
I32
sS'lol'
p905
I28
sS'kidding'
p906
I31
sS'los'
p907
I31
sS'22:49:35.0,34.22129544,-118.47223945,1275.20,one'
p908
I32
sS"we're"
p909
I32
sS'way'
p910
I29
sS'call'
p911
I32
sS'wat'
p912
I32
sS'was'
p913
I27
sS'happy'
p914
I29
sS'himself'
p915
I32
sS',91406\n445316884359946240,krystlenicolexx,2014-03-16'
p916
I32
sS'hawaiian'
p917
I32
sS"i've"
p918
I31
sS'batman'
p919
I32
sS'simulator'
p920
I32
sS'but'
p921
I27
sS'ford'
p922
I32
sS'heat'
p923
I32
sS'properly'
p924
I32
sS'uncle'
p925
I31
sS'01:19:27.0,34.2168567,-118.4725401,1275.20,you'
p926
I32
sS'trying'
p927
I31
sS'with'
p928
I11
sS'eat'
p929
I32
sS'he'
p930
I31
sS'directed'
p931
I32
sS'also'
p932
I32
sS'made'
p933
I32
sS'happen'
p934
I32
sS'rage'
p935
I32
sS'campus'
p936
I32
sS'javy'
p937
I32
sS'up'
p938
I20
sS'us'
p939
I31
sS'volvo'
p940
I29
sS'record'
p941
I32
sS'r.i.p'
p942
I32
sS'auditioning'
p943
I31
sS'faggot'
p944
I32
sS'daddy'
p945
I31
sS'minutes'
p946
I32
sS'on\xe2\x80\xa6'
p947
I32
sS'wifi'
p948
I32
sS'videos'
p949
I32
sS'lived'
p950
I32
sS'am'
p951
I31
sS'deep'
p952
I32
sS'an'
p953
I30
sS'inn'
p954
I29
sS'daveshuten'
p955
I32
sS'tasty'
p956
I32
sS'at'
p957
I1
sS"kelly's"
p958
I32
sS'doe'
p959
I32
sS'dealer'
p960
I32
sS'shit'
p961
I32
sS'inc'
p962
I7
sS'diego'
p963
I32
sS'nilsen'
p964
I32
sS'xterrs'
p965
I32
sS'dying'
p966
I32
sS'no'
p967
I30
sS'deserve'
p968
I32
sS'fridvy'
p969
I32
sS'when'
p970
I26
sS'event'
p971
I32
sS'club'
p972
I32
sS'tin'
p973
I32
sS'other'
p974
I32
sS'brianne'
p975
I32
sS'kickboxing'
p976
I26
sS'sick'
p977
I32
sS'survive,91406\n513226736897503232,anaberrry,2014-09-20'
p978
I32
sS'test'
p979
I31
sS'you'
p980
I11
sS'really'
p981
I27
sS"you're"
p982
I32
sS'10'
p983
I32
sS'trip'
p984
I32
sS'elsa'
p985
I30
sS'la'
p986
I32
sS'class'
p987
I32
sS'shown'
p988
I32
sS'stay'
p989
I32
sS'(panorama'
p990
I31
sS'fell'
p991
I32
sS'kinda'
p992
I32
sS"she's"
p993
I32
sS'song'
p994
I32
sS'hurt'
p995
I32
sS'weekend'
p996
I31
sS'pool'
p997
I32
sS'ago'
p998
I32
sS'faster'
p999
I32
sS'phone'
p1000
I32
sS'kardashian'
p1001
I32
sS'martin'
p1002
I32
sS'shoutout'
p1003
I32
sS'u'
p1004
I27
sS'time'
p1005
I26
sS'(gas)'
p1006
I30
sS'crc'
p1007
I32
sS'having'
p1008
I30
sS'once'
p1009
I32
s.