(dp0
S''
p1
I1
sS'pass\xc3\xa9'
p2
I32
sS'all'
p3
I26
sS':/'
p4
I32
sS':('
p5
I31
sS':)'
p6
I31
sS':*'
p7
I31
sS'rentrer'
p8
I32
sS'dance'
p9
I31
sS'issued'
p10
I32
sS'tweeter'
p11
I32
sS'collage.design'
p12
I32
sS'stop\xe2\x80\x9d'
p13
I32
sS'columbian'
p14
I32
sS'sleep'
p15
I32
sS'hanging'
p16
I32
sS'go'
p17
I22
sS'playoffs'
p18
I32
sS'chair'
p19
I32
sS'hooka'
p20
I32
sS'hate'
p21
I31
sS'worked'
p22
I32
sS'forget'
p23
I32
sS'asada'
p24
I32
sS'ver'
p25
I32
sS'chain'
p26
I32
sS'uo'
p27
I32
sS'tweet'
p28
I31
sS'tu'
p29
I32
sS'young'
p30
I32
sS'to'
p31
I4
sS'finally'
p32
I29
sS'lap'
p33
I32
sS'aris'
p34
I32
sS'sorry'
p35
I32
sS'enjoying'
p36
I32
sS'pay'
p37
I32
sS'callin'
p38
I32
sS'victoire'
p39
I32
sS'song'
p40
I31
sS'very'
p41
I32
sS'shabbot"'
p42
I32
sS'kitty'
p43
I31
sS'vegan'
p44
I30
sS'hahahahahahaha'
p45
I32
sS'selfies'
p46
I32
sS'tuzee'
p47
I32
sS'fan'
p48
I32
sS'quince'
p49
I32
sS'yourselves'
p50
I32
sS'drinking'
p51
I31
sS'butttttt'
p52
I32
sS'screaming'
p53
I32
sS'vois'
p54
I32
sS'minute'
p55
I32
sS'cool'
p56
I30
sS'tickets'
p57
I32
sS'grubb'
p58
I32
sS'school'
p59
I31
sS'dating'
p60
I32
sS'exits'
p61
I32
sS'did'
p62
I28
sS'day"'
p63
I32
sS'who'
p64
I32
sS'brother'
p65
I28
sS'ryan'
p66
I32
sS'try'
p67
I31
sS'this'
p68
I17
sS'independence'
p69
I32
sS'alexas'
p70
I32
sS'harry'
p71
I32
sS'small'
p72
I32
sS'lisa'
p73
I32
sS'tru'
p74
I32
sS'dis'
p75
I32
sS"i'll"
p76
I31
sS'des'
p77
I32
sS'angeles)'
p78
I32
sS"you'd"
p79
I32
sS'esos'
p80
I32
sS'ptain'
p81
I32
sS'chez'
p82
I32
sS'diced'
p83
I32
sS'past'
p84
I30
sS'burger'
p85
I31
sS'second'
p86
I32
sS'niggaz'
p87
I32
sS'chingon'
p88
I32
sS'nba'
p89
I32
sS'chem'
p90
I30
sS'others)'
p91
I32
sS'oscar'
p92
I32
sS'even'
p93
I28
sS'90s'
p94
I32
sS'what'
p95
I22
sS'trop'
p96
I32
sS'plays'
p97
I32
sS'giving'
p98
I32
sS"tonight's"
p99
I32
sS'dunkin'
p100
I32
sS'waiting'
p101
I32
sS'version'
p102
I32
sS'en'
p103
I31
sS'sur'
p104
I32
sS'goes'
p105
I32
sS'attire'
p106
I32
sS'reply'
p107
I32
sS'officially'
p108
I32
sS'told'
p109
I32
sS'full'
p110
I32
sS'\xc3\x87a'
p111
I32
sS'never'
p112
I27
sS'loling'
p113
I32
sS'here'
p114
I27
sS'water'
p115
I31
sS'\xe2\x9d\xa4\xef\xb8\x8f'
p116
I32
sS'les'
p117
I30
sS'let'
p118
I30
sS'smokin'
p119
I32
sS'tannaz'
p120
I32
sS'others'
p121
I32
sS'hers'
p122
I32
sS'sexy'
p123
I32
sS'strong'
p124
I32
sS'auba'
p125
I32
sS'change'
p126
I32
sS'wait'
p127
I30
sS'handle'
p128
I32
sS'buck'
p129
I32
sS'great'
p130
I30
sS'lol'
p131
I26
sS'parents'
p132
I32
sS'saludos'
p133
I32
sS'bites'
p134
I32
sS'k'
p135
I32
sS'changed'
p136
I31
sS'beaucoup'
p137
I32
sS'hrny'
p138
I30
sS'lakers'
p139
I32
sS'plaiz'
p140
I32
sS'lied'
p141
I32
sS'spottt'
p142
I32
sS'('
p143
I32
sS"i'm"
p144
I12
sS"someone's"
p145
I32
sS'makes'
p146
I32
sS'inspires'
p147
I32
sS'eyebrows'
p148
I32
sS'word\xe2\x9c\x8a'
p149
I32
sS'love'
p150
I23
sS'b.o.b'
p151
I32
sS'suddenly'
p152
I32
sS'win'
p153
I32
sS'app'
p154
I32
sS'fromers'
p155
I32
sS'beer)'
p156
I31
sS'bro'
p157
I31
sS'till'
p158
I32
sS'wit'
p159
I31
sS'"shadow'
p160
I32
sS'fake'
p161
I32
sS'limb'
p162
I32
sS'ao\xc3\xbbt'
p163
I32
sS'"a'
p164
I32
sS'sweating'
p165
I32
sS'twc'
p166
I32
sS'wanted'
p167
I32
sS'from'
p168
I32
sS'would'
p169
I29
sS'&'
p170
I23
sS'aye'
p171
I32
sS'hospital'
p172
I32
sS'dude'
p173
I32
sS'theme'
p174
I32
sS'next'
p175
I30
sS'e-cig'
p176
I32
sS'few'
p177
I31
sS'ca)'
p178
I29
sS'music'
p179
I32
sS'6'
p180
I32
sS'eagles'
p181
I32
sS'means'
p182
I32
sS'until'
p183
I31
sS'today'
p184
I29
sS'more'
p185
I32
sS'mvp'
p186
I32
sS'almost'
p187
I32
sS'babe'
p188
I31
sS'holy'
p189
I32
sS'relax'
p190
I32
sS'brings'
p191
I32
sS'mad'
p192
I32
sS'econ'
p193
I32
sS':-('
p194
I32
sS'cant'
p195
I32
sS'confused'
p196
I32
sS'phone'
p197
I32
sS"jamie's"
p198
I32
sS"ain't"
p199
I31
sS'veo'
p200
I32
sS'baby'
p201
I30
sS'moin'
p202
I32
sS"5'1"
p203
I32
sS'hold'
p204
I32
sS'glad'
p205
I32
sS'must'
p206
I32
sS'me'
p207
I10
sS'sike'
p208
I32
sS'ma'
p209
I30
sS'wore'
p210
I32
sS'hour'
p211
I32
sS'niggas'
p212
I32
sS'\xc3\xa7a'
p213
I30
sS'roscoe'
p214
I32
sS'ride'
p215
I32
sS'work'
p216
I29
sS'mi'
p217
I32
sS'soul'
p218
I32
sS'pour'
p219
I32
sS'cat'
p220
I29
sS'movies'
p221
I31
sS'dej'
p222
I32
sS'homie'
p223
I32
sS'can'
p224
I28
sS'westbrook'
p225
I32
sS'making'
p226
I30
sS'pools\xe2\x80\xa6'
p227
I32
sS'drops'
p228
I32
sS'my'
p229
I6
sS'could'
p230
I32
sS'sherlock'
p231
I32
sS'beautiful'
p232
I31
sS'crazy'
p233
I32
sS'hamburger'
p234
I32
sS'thirsty'
p235
I32
sS'plate'
p236
I32
sS'kiddos'
p237
I32
sS'skype'
p238
I32
sS"didn't"
p239
I31
sS'fuck'
p240
I24
sS'states'
p241
I32
sS'his'
p242
I30
sS'something'
p243
I32
sS'want'
p244
I29
sS'recklessly'
p245
I32
sS'\xc2\xa1mucha'
p246
I32
sS'paws'
p247
I32
sS'skirt'
p248
I32
sS'working'
p249
I32
sS'sis'
p250
I32
sS'awwww'
p251
I32
sS'needs'
p252
I32
sS'hickey'
p253
I32
sS'end'
p254
I32
sS'awkward'
p255
I31
sS'sit'
p256
I32
sS'needy'
p257
I32
sS'dress'
p258
I32
sS'discussion'
p259
I32
sS'watching'
p260
I29
sS'everyday'
p261
I32
sS'1'
p262
I32
sS'how'
p263
I23
sS'hot'
p264
I31
sS'instead'
p265
I32
sS'quoi'
p266
I32
sS'beach'
p267
I32
sS'truc"'
p268
I32
sS'senpai'
p269
I32
sS'pizza'
p270
I32
sS'okay'
p271
I32
sS'tried'
p272
I32
sS'rude'
p273
I32
sS'huge'
p274
I32
sS'may'
p275
I32
sS'watch'
p276
I31
sS'after'
p277
I29
sS'spot'
p278
I31
sS'mac'
p279
I32
sS'birthday'
p280
I31
sS'purring'
p281
I32
sS'fat'
p282
I31
sS'coming'
p283
I31
sS'date'
p284
I31
sS'gros'
p285
I31
sS'suck'
p286
I32
sS'lanza'
p287
I32
sS'guys'
p288
I28
sS'man'
p289
I31
sS'a'
p290
I5
sS'horchata'
p291
I30
sS'remember'
p292
I31
sS'80'
p293
I32
sS'tbh'
p294
I32
sS'tweeting'
p295
I32
sS'awww'
p296
I32
sS'su'
p297
I32
sS'st'
p298
I29
sS'claire'
p299
I32
sS'cumplea\xc3\xb1oseres'
p300
I32
sS'so'
p301
I15
sS'volver\xc3\xa9'
p302
I32
sS'suerte'
p303
I32
sS'healthcare'
p304
I32
sS'sont'
p305
I32
sS'began'
p306
I32
sS"that's"
p307
I29
sS'replied'
p308
I32
sS'chicks'
p309
I32
sS'boxing'
p310
I32
sS'pinkeye'
p311
I32
sS"don't"
p312
I23
sS'over'
p313
I31
sS'sooo'
p314
I31
sS'mission'
p315
I32
sS'years'
p316
I32
sS'comme'
p317
I32
sS"rt'ing"
p318
I32
sS"'sweet"
p319
I32
sS"won't"
p320
I31
sS'looks'
p321
I31
sS'kanye'
p322
I32
sS'cold'
p323
I31
sS'still'
p324
I30
sS'pointer'
p325
I32
sS'horny'
p326
I32
sS'vite'
p327
I32
sS'before'
p328
I32
sS'subliminal'
p329
I32
sS'le'
p330
I29
sS'police'
p331
I32
sS'thank'
p332
I30
sS'mais'
p333
I31
sS'la'
p334
I27
sS'pedlow'
p335
I32
sS'lo'
p336
I32
sS'sunday'
p337
I32
sS'[pic]'
p338
I32
sS'better'
p339
I31
sS'grade'
p340
I31
sS'l\xc3\xa9gale'
p341
I32
sS'tweets'
p342
I32
sS'bout'
p343
I32
sS'might'
p344
I31
sS'bendiciones'
p345
I32
sS"haven't"
p346
I31
sS'happened'
p347
I32
sS'dad'
p348
I31
sS'then'
p349
I31
sS'them'
p350
I27
sS'good'
p351
I25
sS'bouffe'
p352
I32
sS'ya'
p353
I31
sS'*opens'
p354
I32
sS'versace'
p355
I32
sS"vegas...i'm"
p356
I32
sS'clippers'
p357
I32
sS'jalape\xc3\xb1o'
p358
I32
sS'hala'
p359
I32
sS'lunch'
p360
I30
sS'cutting'
p361
I32
sS'ces'
p362
I32
sS'drilling'
p363
I32
sS'they'
p364
I26
sS'\xe2\x9d\xa4\xef\xb8\x8f\xe2\x9d\xa4\xef\xb8\x8f\xe2\x9d\xa4\xef\xb8\x8f'
p365
I32
sS'not'
p366
I26
sS'combo'
p367
I32
sS'now'
p368
I22
sS'ahaha'
p369
I31
sS'day'
p370
I19
sS'name'
p371
I31
sS'faire'
p372
I32
sS'always'
p373
I28
sS'times'
p374
I32
sS'drop'
p375
I32
sS'tuer'
p376
I32
sS'l'
p377
I32
sS'choir'
p378
I32
sS'someone'
p379
I32
sS'peasant'
p380
I32
sS'cute'
p381
I32
sS'trap'
p382
I30
sS'muchas'
p383
I32
sS"ya'll"
p384
I32
sS'side'
p385
I32
sS"isn't"
p386
I30
sS'em'
p387
I32
sS'everyone'
p388
I29
sS'gunna'
p389
I32
sS'house'
p390
I26
sS'hard'
p391
I30
sS'minion!\xe2\x80\x9d'
p392
I32
sS'yeah'
p393
I29
sS'nuys)'
p394
I30
sS'used'
p395
I32
sS'ey'
p396
I32
sS'gum'
p397
I32
sS'year'
p398
I32
sS'suite'
p399
I32
sS'girl'
p400
I30
sS'86'
p401
I32
sS'saturday'
p402
I32
sS'es'
p403
I32
sS'out'
p404
I21
sS'rt'
p405
I32
sS'cressey'
p406
I32
sS'missed'
p407
I32
sS'driving'
p408
I31
sS'fasse'
p409
I32
sS'habitait'
p410
I32
sS'god'
p411
I32
sS'george'
p412
I32
sS'looking'
p413
I31
sS'stupid'
p414
I32
sS'lord'
p415
I32
sS'time*'
p416
I32
sS'smh'
p417
I32
sS'got'
p418
I29
sS'bugging'
p419
I32
sS"j'ose"
p420
I32
sS'red'
p421
I31
sS'piggy'
p422
I32
sS'ass'
p423
I30
sS'innocentes'
p424
I32
sS'burps'
p425
I32
sS"doesn't"
p426
I32
sS'rail'
p427
I32
sS'friday'
p428
I32
sS'guess'
p429
I32
sS'free'
p430
I32
sS'20'
p431
I32
sS'temps'
p432
I32
sS'tropppp'
p433
I32
sS'basketball'
p434
I32
sS'que'
p435
I28
sS'mutha'
p436
I32
sS'8th'
p437
I32
sS'grandma'
p438
I32
sS'ask'
p439
I31
sS'chavo'
p440
I32
sS'scarred'
p441
I32
sS'sandwhich'
p442
I32
sS'princess'
p443
I32
sS'"can'
p444
I32
sS'laaawll'
p445
I32
sS'taylortheshark'
p446
I31
sS'kiffent'
p447
I32
sS'luego'
p448
I32
sS'g'
p449
I31
sS'snapchats'
p450
I32
sS'100%'
p451
I31
sS'put'
p452
I32
sS'days'
p453
I31
sS'keep'
p454
I30
sS'motion'
p455
I32
sS'thing'
p456
I32
sS'oklm'
p457
I32
sS'place'
p458
I32
sS'w'
p459
I32
sS'avec'
p460
I32
sS'loud'
p461
I32
sS'think'
p462
I28
sS'fuckin'
p463
I32
sS'first'
p464
I30
sS'cheese'
p465
I31
sS'vanowen'
p466
I29
sS'thinks'
p467
I32
sS'dont'
p468
I31
sS'blown'
p469
I32
sS'feel'
p470
I29
sS'third'
p471
I32
sS'hoop'
p472
I32
sS'rachel'
p473
I32
sS'number'
p474
I30
sS'crib'
p475
I32
sS'one'
p476
I27
sS'effort\xe2\x80\x9d'
p477
I32
sS'done'
p478
I31
sS'bitch'
p479
I31
sS'salsa'
p480
I7
sS'sulfur'
p481
I32
sS'miss'
p482
I30
sS'tomorrow'
p483
I32
sS'fin'
p484
I32
sS"you're"
p485
I29
sS'story'
p486
I32
sS'"'
p487
I31
sS'alberca'
p488
I32
sS'unknown'
p489
I32
sS'top'
p490
I32
sS'\xc3\xa0'
p491
I30
sS'girls'
p492
I27
sS'returns'
p493
I32
sS'least'
p494
I30
sS'jony'
p495
I32
sS'mami'
p496
I32
sS'their'
p497
I32
sS'fml'
p498
I32
sS'2'
p499
I31
sS'dudeeee'
p500
I32
sS'too'
p501
I27
sS'mama'
p502
I32
sS'dumbass'
p503
I32
sS'white'
p504
I28
sS'scary'
p505
I32
sS'friend'
p506
I29
sS'1d'
p507
I32
sS'flume'
p508
I32
sS'2-3'
p509
I32
sS'way'
p510
I32
sS'para'
p511
I32
sS'that'
p512
I13
sS'ssupprimer'
p513
I32
sS'cup"'
p514
I32
sS'huh'
p515
I31
sS'took'
p516
I31
sS'grandpa'
p517
I32
sS'bieber'
p518
I32
sS'muchos'
p519
I32
sS'kept'
p520
I32
sS'july'
p521
I31
sS'believe'
p522
I32
sS'pote'
p523
I32
sS'stocking'
p524
I32
sS'titans'
p525
I32
sS'wahhh'
p526
I32
sS'b'
p527
I31
sS'bananas'
p528
I32
sS'lmao'
p529
I31
sS'17'
p530
I32
sS'gotten'
p531
I32
sS'gotta'
p532
I32
sS'orrrrrr'
p533
I32
sS'tree'
p534
I32
sS'chem"i'
p535
I32
sS'bed'
p536
I32
sS'matter'
p537
I32
sS'because'
p538
I32
sS'r'
p539
I32
sS'esting'
p540
I32
sS'loves'
p541
I32
sS'were'
p542
I27
sS'10-0'
p543
I32
sS'dumb'
p544
I32
sS'caitlyn'
p545
I32
sS'kubrick'
p546
I32
sS'bet'
p547
I32
sS'anyways'
p548
I32
sS'and'
p549
I3
sS'charlotte'
p550
I32
sS'sb'
p551
I32
sS'false'
p552
I32
sS'anal_intruder69'
p553
I32
sS'modern'
p554
I32
sS'aussi'
p555
I32
sS'mine'
p556
I32
sS'anybody'
p557
I32
sS'tonight'
p558
I30
sS'talking'
p559
I32
sS'say'
p560
I28
sS'faut'
p561
I32
sS'alike'
p562
I32
sS'have'
p563
I21
sS'need'
p564
I29
sS'seen'
p565
I29
sS'seem'
p566
I32
sS'turn'
p567
I32
sS'saw'
p568
I29
sS'tells'
p569
I32
sS'car'
p570
I32
sS'tho'
p571
I32
sS'min'
p572
I32
sS'lil'
p573
I31
sS'figured'
p574
I32
sS'parks'
p575
I32
sS'ungh'
p576
I32
sS'take'
p577
I30
sS'which'
p578
I32
sS'honestly'
p579
I32
sS'"careless'
p580
I32
sS'alala'
p581
I32
sS'ok'
p582
I32
sS'taftco'
p583
I32
sS'shade'
p584
I32
sS'though'
p585
I31
sS'park'
p586
I32
sS'eater'
p587
I32
sS'classy'
p588
I32
sS'victoria'
p589
I32
sS"where's"
p590
I32
sS'most'
p591
I31
sS'tmtc'
p592
I32
sS'eight'
p593
I32
sS'maintenant'
p594
I30
sS'odorless'
p595
I32
sS'realized'
p596
I32
sS'too\xe2\x80\x9d'
p597
I32
sS'why'
p598
I26
sS'icon'
p599
I32
sS'michelle'
p600
I32
sS'potluck'
p601
I32
sS'cause'
p602
I32
sS'episode'
p603
I32
sS'special'
p604
I32
sS'dom'
p605
I32
sS'alarm'
p606
I32
sS'sometimes'
p607
I32
sS'dog'
p608
I32
sS'order'
p609
I32
sS'doy'
p610
I32
sS'aunt'
p611
I32
sS'vida...aaah'
p612
I32
sS'fiasco'
p613
I32
sS'braham'
p614
I32
sS'wow'
p615
I32
sS'fact'
p616
I30
sS'ho'
p617
I32
sS'uninterested'
p618
I32
sS'saying'
p619
I30
sS'parker'
p620
I32
sS'bomb'
p621
I31
sS'hunnay'
p622
I32
sS'show'
p623
I32
sS'text'
p624
I30
sS'random'
p625
I32
sS'ridiculously'
p626
I32
sS'toujours'
p627
I32
sS'pops'
p628
I32
sS'recovering'
p629
I32
sS'bright'
p630
I32
sS'*tries'
p631
I32
sS'crew'
p632
I32
sS'eurythmics'
p633
I32
sS'chicken'
p634
I32
sS'font'
p635
I32
sS'find'
p636
I32
sS'hockey'
p637
I32
sS'perle'
p638
I32
sS'r\xc3\xa9veiller'
p639
I32
sS'jay'
p640
I32
sS'notice'
p641
I32
sS'cousins'
p642
I32
sS'writes'
p643
I32
sS'dick'
p644
I32
sS"baby's"
p645
I32
sS'3'
p646
I32
sS'should'
p647
I31
sS'spirituality'
p648
I31
sS'only'
p649
I31
sS'going'
p650
I27
sS'black'
p651
I31
sS'faith'
p652
I32
sS'pretty'
p653
I32
sS'photo'
p654
I32
sS"dre's"
p655
I32
sS'sus'
p656
I32
sS'\xe2\x99\xa1'
p657
I32
sS'local'
p658
I32
sS'salopes'
p659
I32
sS'meant'
p660
I32
sS'do'
p661
I17
sS'phucka'
p662
I32
sS'putain'
p663
I30
sS'hit'
p664
I32
sS'stay'
p665
I32
sS'get'
p666
I23
sS'frick'
p667
I32
sS'de'
p668
I25
sS'stop'
p669
I31
sS'da'
p670
I32
sS"they'd"
p671
I32
sS'feels'
p672
I32
sS'this"'
p673
I32
sS'nearly'
p674
I32
sS'google'
p675
I32
sS'dr'
p676
I32
sS'him'
p677
I29
sS'evolution'
p678
I32
sS'"non-stop"'
p679
I32
sS'bas'
p680
I32
sS'artist'
p681
I32
sS'hope'
p682
I32
sS'wellness'
p683
I32
sS'nikent'
p684
I32
sS'voces'
p685
I32
sS'morning'
p686
I32
sS":')"
p687
I31
sS'bad'
p688
I30
sS'bae'
p689
I31
sS'leur'
p690
I32
sS'she'
p691
I28
sS'shots'
p692
I31
sS'boring'
p693
I32
sS'grilled'
p694
I32
sS'birmingham'
p695
I32
sS'bam'
p696
I31
sS'where'
p697
I28
sS'bah'
p698
I32
sS'momentos'
p699
I32
sS'art'
p700
I32
sS'fais'
p701
I32
sS'w/'
p702
I30
sS'dans'
p703
I32
sS'vine'
p704
I32
sS'lazy'
p705
I32
sS'grosse'
p706
I32
sS'see'
p707
I26
sS'college'
p708
I31
sS'are'
p709
I22
sS'stanley'
p710
I32
sS'luminous'
p711
I32
sS'ur'
p712
I31
sS'acts'
p713
I32
sS'best'
p714
I31
sS'mario'
p715
I32
sS'said'
p716
I32
sS'luv'
p717
I32
sS'movie'
p718
I32
sS'showed'
p719
I32
sS'vont'
p720
I32
sS'please'
p721
I31
sS'coffee'
p722
I32
sS'its'
p723
I32
sS'bien'
p724
I31
sS"there's"
p725
I32
sS'sais'
p726
I31
sS'closed'
p727
I32
sS'probably'
p728
I32
sS'yesterday'
p729
I32
sS'm\xc3\xaame'
p730
I31
sS'bought'
p731
I32
sS'tux'
p732
I32
sS'we'
p733
I26
sS'dumber'
p734
I32
sS'omg'
p735
I32
sS'netflix'
p736
I32
sS'gens'
p737
I32
sS'lupe'
p738
I32
sS'...i'
p739
I32
sS'attention'
p740
I31
sS'jr'
p741
I32
sS'butts'
p742
I32
sS'voir'
p743
I32
sS'dieting'
p744
I32
sS'(los'
p745
I31
sS'merry'
p746
I32
sS'coma'
p747
I32
sS'je'
p748
I24
sS'picking'
p749
I32
sS'boss'
p750
I32
sS'come'
p751
I30
sS'orelsan'
p752
I32
sS'surtout'
p753
I32
sS'league'
p754
I32
sS'feeling'
p755
I32
sS'last'
p756
I31
sS'widdit'
p757
I32
sS'mega'
p758
I31
sS'mona'
p759
I32
sS'today..feeling'
p760
I32
sS'jcrois'
p761
I32
sS'amazing'
p762
I32
sS'tout'
p763
I31
sS'ils'
p764
I30
sS'lookin'
p765
I32
sS'whole'
p766
I31
sS"can't"
p767
I28
sS"p'tit"
p768
I31
sS'torres\xe2\x80\xa6'
p769
I32
sS"kindergarden's"
p770
I32
sS'haunting'
p771
I32
sS'wanma'
p772
I32
sS'afternoon'
p773
I32
sS'mois'
p774
I32
sS'smith'
p775
I32
sS'pot'
p776
I32
sS'alla'
p777
I32
sS'jeans'
p778
I32
sS'ce'
p779
I31
sS'likes'
p780
I31
sS'vais'
p781
I32
sS'69'
p782
I31
sS'bizarre'
p783
I32
sS'labor'
p784
I32
sS'veux'
p785
I32
sS'2h'
p786
I32
sS'abbie'
p787
I32
sS'leads'
p788
I32
sS'maid'
p789
I32
sS"it's"
p790
I27
sS'wills'
p791
I32
sS'lurkin'
p792
I32
sS'hoe'
p793
I32
sS'been'
p794
I31
sS'chercher'
p795
I32
sS'beer'
p796
I8
sS'much'
p797
I27
sS'damn'
p798
I32
sS'judging'
p799
I32
sS'ahhhh'
p800
I32
sS'puto'
p801
I32
sS'donatella'
p802
I32
sS'ob\xc3\xa8se'
p803
I32
sS'bbq'
p804
I32
sS'bedav'
p805
I32
sS'life'
p806
I31
sS'story\xe2\x80\x9d'
p807
I32
sS'flight'
p808
I32
sS'cop'
p809
I32
sS'drugs'
p810
I32
sS"c'est"
p811
I31
sS'hennessy'
p812
I32
sS'guap\xc3\xadsimo'
p813
I32
sS'lift'
p814
I32
sS'understand'
p815
I31
sS'hateful'
p816
I32
sS'"who'
p817
I32
sS'bmx'
p818
I32
sS'haters'
p819
I32
sS'weeks'
p820
I32
sS'those'
p821
I32
sS'chill'
p822
I32
sS'linkin'
p823
I32
sS'laser'
p824
I32
sS'look'
p825
I30
sS'being'
p826
I32
sS'woah'
p827
I32
sS'these'
p828
I32
sS'scr\xc3\xbc'
p829
I32
sS'as'
p830
I24
sS'n'
p831
I23
sS'will'
p832
I32
sS'taste'
p833
I32
sS'hates'
p834
I32
sS'taxi'
p835
I32
sS'hahaha'
p836
I32
sS'fun'
p837
I28
sS'pourquoi'
p838
I32
sS'surveille'
p839
I32
sS'mettre'
p840
I32
sS"person's"
p841
I32
sS'coolest'
p842
I32
sS'va'
p843
I31
sS'"f'
p844
I32
sS'barely'
p845
I32
sS'<3'
p846
I32
sS'\xc3\xa9ste'
p847
I32
sS"15's"
p848
I32
sS'ahora'
p849
I32
sS'is'
p850
I11
sS'sushi'
p851
I32
sS'candace'
p852
I32
sS'it'
p853
I13
sS'sleeping'
p854
I32
sS'shame'
p855
I32
sS'ik'
p856
I32
sS'unwritten'
p857
I32
sS'im'
p858
I28
sS'il'
p859
I30
sS'in'
p860
I15
sS'ready'
p861
I30
sS'ave'
p862
I29
sS'seattle'
p863
I32
sS'id'
p864
I31
sS'hoodies'
p865
I32
sS'if'
p866
I25
sS'funny'
p867
I31
sS'trouve'
p868
I32
sS'pas'
p869
I29
sS'quand'
p870
I31
sS'things'
p871
I32
sS'make'
p872
I27
sS'nerve'
p873
I32
sS'same'
p874
I29
sS'any'
p875
I32
sS'meetup'
p876
I32
sS'food'
p877
I31
sS'"some"'
p878
I32
sS'fuckmepls'
p879
I32
sS'moon'
p880
I32
sS'hahah'
p881
I32
sS'bruit'
p882
I32
sS'twice'
p883
I32
sS'gets'
p884
I32
sS'todos'
p885
I32
sS'week'
p886
I31
sS'favorited'
p887
I32
sS'yooo'
p888
I32
sS'(van'
p889
I31
sS'mhath'
p890
I32
sS'comprend'
p891
I32
sS'drink'
p892
I32
sS'driver'
p893
I32
sS'diploma'
p894
I32
sS'elle'
p895
I29
sS'hand'
p896
I32
sS'kik'
p897
I32
sS'moment'
p898
I32
sS'007'
p899
I32
sS'flew'
p900
I32
sS'lol\xe2\x80\x9d'
p901
I31
sS'fucked'
p902
I30
sS'killer'
p903
I32
sS'slowwwwwwwest'
p904
I32
sS'pull'
p905
I32
sS'lower'
p906
I32
sS'off'
p907
I30
sS'blood'
p908
I32
sS'i'
p909
I2
sS'adapted'
p910
I32
sS'floor'
p911
I32
sS'well'
p912
I31
sS'moi'
p913
I32
sS'dissing'
p914
I32
sS'pillow'
p915
I32
sS'thought'
p916
I30
sS'person'
p917
I32
sS'without'
p918
I31
sS'mamma'
p919
I32
sS'comes'
p920
I32
sS'mclemore'
p921
I32
sS'breh'
p922
I32
sS'y'
p923
I30
sS'the'
p924
I5
sS'uno'
p925
I32
sS'seum'
p926
I32
sS'amazed'
p927
I32
sS'pleins'
p928
I32
sS'whisper"'
p929
I32
sS'summer'
p930
I31
sS'sec'
p931
I32
sS'listening'
p932
I32
sS'just'
p933
I20
sS'yea'
p934
I29
sS'when'
p935
I23
sS'guided'
p936
I32
sS'hands'
p937
I32
sS'forsaken'
p938
I32
sS'4th'
p939
I32
sS'kill'
p940
I31
sS'thanks'
p941
I30
sS'co'
p942
I32
sS'paul'
p943
I32
sS'yet'
p944
I31
sS'transformer'
p945
I32
sS'drivin'
p946
I32
sS'huckleberry'
p947
I32
sS'd\xc3\xa9sol\xc3\xa9'
p948
I32
sS'thinking'
p949
I32
sS'workers'
p950
I32
sS'percent'
p951
I32
sS'had'
p952
I30
sS'burrito'
p953
I32
sS'lets'
p954
I31
sS'manquer'
p955
I32
sS'4'
p956
I30
sS'has'
p957
I31
sS'ca'
p958
I32
sS'kick'
p959
I32
sS'real'
p960
I31
sS'combien'
p961
I32
sS'ight'
p962
I32
sS'deux'
p963
I32
sS'skebd'
p964
I32
sS'knock'
p965
I32
sS"who's"
p966
I30
sS'cr\xc3\xbc'
p967
I32
sS'early'
p968
I32
sS'shitty'
p969
I32
sS'game'
p970
I30
sS'bruuuh'
p971
I32
sS'know'
p972
I23
sS'mom'
p973
I28
sS'bails'
p974
I32
sS'd'
p975
I31
sS'valentine'
p976
I32
sS'brought'
p977
I31
sS'like'
p978
I18
sS'lost'
p979
I32
sS'texts'
p980
I32
sS"c'\xc3\xa9tait"
p981
I32
sS'ticket'
p982
I32
sS'shaped'
p983
I32
sS'productive'
p984
I32
sS'candy'
p985
I32
sS'theyre'
p986
I32
sS'true'
p987
I32
sS't\xc3\xaate'
p988
I32
sS'january'
p989
I32
sS'me\xe2\x80\x9d'
p990
I32
sS'two'
p991
I32
sS'draw'
p992
I32
sS'right'
p993
I25
sS'old'
p994
I32
sS'noo'
p995
I32
sS'grub'
p996
I32
sS'people'
p997
I29
sS'fucking'
p998
I30
sS'madrid'
p999
I32
sS'twitter'
p1000
I31
sS'some'
p1001
I28
sS'back'
p1002
I28
sS'dead'
p1003
I31
sS'romaaaaaaa'
p1004
I32
sS'10th'
p1005
I32
sS'born'
p1006
I32
sS'meditation'
p1007
I32
sS"nothing's"
p1008
I32
sS'act'
p1009
I32
sS'paragraphs'
p1010
I32
sS'proper'
p1011
I32
sS'home'
p1012
I26
sS'little'
p1013
I32
sS'revines'
p1014
I32
sS'users'
p1015
I32
sS'est'
p1016
I32
sS'mood'
p1017
I32
sS'for'
p1018
I14
sS'pet'
p1019
I32
sS'literally'
p1020
I32
sS'absolutely'
p1021
I32
sS'aux'
p1022
I32
sS'otherwise'
p1023
I32
sS'everything'
p1024
I31
sS'n*gga'
p1025
I32
sS'asking'
p1026
I32
sS'quote'
p1027
I32
sS'balboa'
p1028
I32
sS'adorable'
p1029
I32
sS'christmas'
p1030
I32
sS'portes'
p1031
I32
sS'be'
p1032
I21
sS'plu'
p1033
I32
sS'bg'
p1034
I32
sS'eating'
p1035
I31
sS'e30'
p1036
I32
sS'bc'
p1037
I31
sS'300'
p1038
I32
sS'pickle"'
p1039
I32
sS'plz'
p1040
I32
sS"s'happy"
p1041
I32
sS'step'
p1042
I32
sS'putting'
p1043
I32
sS'post'
p1044
I32
sS'majoring'
p1045
I32
sS'by'
p1046
I28
sS'shine'
p1047
I32
sS'on'
p1048
I13
sS'about'
p1049
I30
sS'rare'
p1050
I32
sS'indented'
p1051
I32
sS'oh'
p1052
I31
sS'meow'
p1053
I32
sS'of'
p1054
I10
sS'favorite'
p1055
I31
sS'graduation'
p1056
I32
sS'angeles'
p1057
I31
sS"dreams'"
p1058
I32
sS'dinner'
p1059
I31
sS'hier'
p1060
I32
sS'idk'
p1061
I32
sS'enfoir\xc3\xa9'
p1062
I32
sS'importantly'
p1063
I32
sS'nuys'
p1064
I29
sS'wanna'
p1065
I31
sS'or'
p1066
I29
sS'road'
p1067
I32
sS'plan'
p1068
I32
sS'vi'
p1069
I32
sS'seeing'
p1070
I32
sS'own'
p1071
I32
sS'followed'
p1072
I32
sS'ouvrir'
p1073
I32
sS'pussy'
p1074
I32
sS'selfie'
p1075
I32
sS'errands'
p1076
I32
sS'usa'
p1077
I32
sS'son'
p1078
I32
sS'down'
p1079
I29
sS'nigga'
p1080
I30
sS'knee'
p1081
I32
sS'your'
p1082
I19
sS'"this'
p1083
I32
sS'fast'
p1084
I32
sS'van'
p1085
I28
sS'deal'
p1086
I32
sS'her'
p1087
I31
sS'(6740'
p1088
I29
sS'there'
p1089
I29
sS'>>>>'
p1090
I32
sS'live'
p1091
I32
sS'long'
p1092
I31
sS'avais'
p1093
I32
sS'los'
p1094
I31
sS'a$$'
p1095
I32
sS'cats'
p1096
I32
sS'low'
p1097
I32
sS'lot'
p1098
I32
sS'ayy'
p1099
I32
sS'valley'
p1100
I32
sS'was'
p1101
I18
sS'jinx'
p1102
I32
sS'happy'
p1103
I29
sS'mijo'
p1104
I32
sS"i've"
p1105
I31
sS'bitches'
p1106
I32
sS'you"'
p1107
I31
sS'but'
p1108
I22
sS'first?\xe2\x80\x9dabsolutely'
p1109
I32
sS'm\xc3\xa8me'
p1110
I32
sS'hear'
p1111
I31
sS'library'
p1112
I32
sS'e'
p1113
I32
sS'truc'
p1114
I32
sS'trying'
p1115
I32
sS'with'
p1116
I16
sS'eat'
p1117
I30
sS'buying'
p1118
I32
sS'he'
p1119
I29
sS'thndr'
p1120
I32
sS'throw'
p1121
I31
sS'made'
p1122
I31
sS'consist'
p1123
I32
sS'girl\xe2\x9c\x8a'
p1124
I31
sS'wish'
p1125
I31
sS'j'
p1126
I28
sS'up'
p1127
I25
sS'tell'
p1128
I29
sS'lemme'
p1129
I32
sS'brunette'
p1130
I32
sS'un'
p1131
I31
sS'mtn'
p1132
I32
sS"it'd"
p1133
I32
sS'faggot'
p1134
I32
sS'z'
p1135
I32
sS'minutes'
p1136
I32
sS'bath'
p1137
I32
sS'wifi'
p1138
I32
sS'af'
p1139
I31
sS'ai'
p1140
I30
sS'feliz'
p1141
I32
sS'cane'
p1142
I32
sS'al'
p1143
I31
sS"you've"
p1144
I32
sS'an'
p1145
I27
sS'single'
p1146
I31
sS'au'
p1147
I31
sS'at'
p1148
I9
sS'sl\xc3\xa0inte'
p1149
I32
sS'dykes'
p1150
I32
sS'watched'
p1151
I32
sS'annoying'
p1152
I32
sS'chucks'
p1153
I32
sS'happen'
p1154
I31
sS'shit'
p1155
I25
sS'once'
p1156
I32
sS'again'
p1157
I28
sS'together'
p1158
I32
sS'no'
p1159
I24
sS'idiot'
p1160
I32
sS'zonedddd'
p1161
I32
sS'45'
p1162
I32
sS'oak'
p1163
I29
sS'cuenta'
p1164
I32
sS'finna'
p1165
I32
sS'tight'
p1166
I31
sS'hella'
p1167
I32
sS'5'
p1168
I32
sS'cheum'
p1169
I32
sS'visit'
p1170
I32
sS'hmu'
p1171
I32
sS'test'
p1172
I32
sS'you'
p1173
I4
sS'really'
p1174
I30
sS'portate'
p1175
I32
sS'poor'
p1176
I32
sS'picture'
p1177
I32
sS'poop'
p1178
I32
sS"taylor's"
p1179
I26
sS'extern'
p1180
I32
sS'hey'
p1181
I32
sS'getting'
p1182
I32
sS'vahn'
p1183
I32
sS'class'
p1184
I32
sS'diet'
p1185
I32
sS'leaving'
p1186
I32
sS'important'
p1187
I32
sS'midget'
p1188
I30
sS'hurt'
p1189
I32
sS'friends'
p1190
I29
sS'"str"'
p1191
I32
sS'night'
p1192
I32
sS'doesn\xe2\x80\x99t'
p1193
I32
sS'texted'
p1194
I32
sS'one*\xe2\x80\x9d'
p1195
I32
sS'excuse'
p1196
I32
sS"he's"
p1197
I32
sS'martin'
p1198
I32
sS'mask'
p1199
I32
sS'rule'
p1200
I32
sS'jacqu\xc3\xa9'
p1201
I32
sS'u'
p1202
I20
sS'volumes'
p1203
I32
sS'time'
p1204
I29
sS"she's"
p1205
I32
sS'songs'
p1206
I32
sS'dust'
p1207
I32
sS':))'
p1208
I32
s.