(dp0
S''
p1
I2
sS'foul'
p2
I120
sS'four'
p3
I122
sS'woods'
p4
I124
sS'hanging'
p5
I121
sS'gabrielle'
p6
I123
sS'electricity'
p7
I124
sS'hahhahaha'
p8
I124
sS'lord'
p9
I121
sS'immature'
p10
I124
sS'shaving'
p11
I124
sS'hormone'
p12
I124
sS'yellow'
p13
I123
sS'hamels.\xe2\x80\x9d'
p14
I124
sS'stabbed'
p15
I124
sS'bringing'
p16
I120
sS'fuq'
p17
I121
sS'oooo'
p18
I124
sS'stereotypical'
p19
I124
sS'"do'
p20
I124
sS'tired'
p21
I112
sS'bacon'
p22
I123
sS'tires'
p23
I123
sS'second'
p24
I118
sS't-minus'
p25
I124
sS'thunder'
p26
I124
sS'cooking'
p27
I124
sS'flops'
p28
I124
sS'hahahahhahahahahhaha'
p29
I124
sS'designing'
p30
I124
sS"lawlor's"
p31
I124
sS'colletti'
p32
I124
sS"pedro's"
p33
I124
sS"how've"
p34
I124
sS'ahha\xe2\x80\x9dnothing'
p35
I124
sS'here'
p36
I95
sS'\xe2\x9d\xa4\xef\xb8\x8f'
p37
I104
sS'chino'
p38
I124
sS'dork'
p39
I124
sS'natured'
p40
I124
sS'kids'
p41
I115
sS'k'
p42
I113
sS'"why'
p43
I124
sS"i'd"
p44
I115
sS'\xe2\x9c\x94\xef\xb8\x8f'
p45
I123
sS"i'm"
p46
I21
sS'champagne\xe2\x80\x9d'
p47
I124
sS"18:18:25.0,34.18803005,-118.60591128,1351.11,today's"
p48
I124
sS'sweetest'
p49
I124
sS'brought'
p50
I124
sS'hahahahah'
p51
I124
sS'hoping'
p52
I119
sS'cheating'
p53
I123
sS'spoke'
p54
I124
sS'musiq'
p55
I124
sS'catchy'
p56
I123
sS'music'
p57
I114
sS'passport'
p58
I123
sS'roshes'
p59
I124
sS'until'
p60
I111
sS'females'
p61
I123
sS'holy'
p62
I116
sS'relax'
p63
I120
sS'successful'
p64
I124
sS'table.\xe2\x80\x9dyou'
p65
I124
sS'subtweet'
p66
I124
sS'hurt'
p67
I120
sS'...oops'
p68
I124
sS'pic\xe2\x80\x9d'
p69
I124
sS'hole'
p70
I123
sS'hold'
p71
I119
sS'hurd'
p72
I124
sS'locked'
p73
I124
sS'sleep...but'
p74
I124
sS'example'
p75
I124
sS'"hmm?...yeah'
p76
I124
sS'maximillion'
p77
I124
sS'household'
p78
I124
sS'currency'
p79
I124
sS'want'
p80
I69
sS'absolute'
p81
I124
sS'hoe'
p82
I118
sS'complaining'
p83
I123
sS'travel'
p84
I124
sS'drying'
p85
I124
sS'mind...thursday'
p86
I124
sS'machine'
p87
I124
sS'how'
p88
I47
sS'hot'
p89
I100
sS'ian\xe2\x80\x9dyassss'
p90
I124
sS'hop'
p91
I123
sS'win"'
p92
I123
sS'place'
p93
I114
sS'chase'
p94
I117
sS'ronnie'
p95
I124
sS'mueller'
p96
I123
sS'skidmore'
p97
I124
sS'grandal'
p98
I124
sS'wrong'
p99
I110
sS'destined'
p100
I124
sS'chill\xe2\x80\x9d'
p101
I124
sS'wins'
p102
I123
sS'fictional'
p103
I124
sS'cigarettes'
p104
I124
sS'buggin'
p105
I124
sS'18th'
p106
I123
sS'keeps'
p107
I123
sS'do..than'
p108
I124
sS'wind'
p109
I123
sS'wine'
p110
I119
sS'1290\xe2\x80\x9d'
p111
I124
sS'feedback'
p112
I124
sS'assing'
p113
I124
sS'tehan'
p114
I124
sS'murals'
p115
I124
sS'fit'
p116
I123
sS'fix'
p117
I123
sS'charmers'
p118
I124
sS'diffrent'
p119
I124
sS'matured'
p120
I124
sS'fig'
p121
I124
sS'urias'
p122
I124
sS'fin'
p123
I124
sS'easier'
p124
I123
sS'foolie'
p125
I124
sS'dude\xe2\x80\x9d'
p126
I124
sS'jay-z'
p127
I124
sS'knockout'
p128
I124
sS'series'
p129
I122
sS'allan'
p130
I122
sS'abuse'
p131
I124
sS'blinded'
p132
I124
sS'whip'
p133
I124
sS'rt'
p134
I101
sS'ha'
p135
I119
sS'waive'
p136
I124
sS're'
p137
I124
sS'smh'
p138
I118
sS'rn'
p139
I93
sS'"hey'
p140
I124
sS'disaster\xe2\x80\x9dit'
p141
I124
sS'enhance'
p142
I124
sS'estimate'
p143
I124
sS'9-11'
p144
I124
sS'chlorine'
p145
I124
sS'ate'
p146
I122
sS'exposing'
p147
I124
sS'r8'
p148
I124
sS'moment'
p149
I116
sS'commented'
p150
I124
sS'atv'
p151
I124
sS'att'
p152
I124
sS'levels'
p153
I122
sS"today's"
p154
I122
sS'9pm'
p155
I124
sS'shopped'
p156
I124
sS'wash'
p157
I120
sS'spinning'
p158
I124
sS'basketball'
p159
I121
sS"there's"
p160
I108
sS'service'
p161
I124
sS'her\xe2\x80\x9d'
p162
I124
sS'needed'
p163
I120
sS'legs'
p164
I118
sS'bitter'
p165
I124
sS'rummaged'
p166
I124
sS'listen'
p167
I119
sS'danish'
p168
I124
sS'"consistency"'
p169
I124
sS'fufu'
p170
I124
sS'baoli'
p171
I124
sS'tree'
p172
I122
sS'272'
p173
I123
sS'shower'
p174
I114
sS'sheen'
p175
I124
sS'"flop"'
p176
I124
sS'feeling'
p177
I108
sS'este'
p178
I124
sS'shyla'
p179
I124
sS'corny'
p180
I124
sS"guys'"
p181
I124
sS'kaya'
p182
I123
sS'klose'
p183
I124
sS'zebras'
p184
I124
sS'doin'
p185
I124
sS'object'
p186
I124
sS'mouth'
p187
I121
sS'icloud'
p188
I123
sS'drought'
p189
I124
sS'episode'
p190
I112
sS'released'
p191
I124
sS'4more'
p192
I121
sS'doesn\xe2\x80\x99t'
p193
I124
sS'ned'
p194
I124
sS'came'
p195
I117
sS'saying'
p196
I111
sS'bomb'
p197
I120
sS'tequila'
p198
I124
sS'bomh'
p199
I124
sS'forsure'
p200
I124
sS'eliminated'
p201
I123
sS'lessons'
p202
I123
sS'capes'
p203
I124
sS'busy'
p204
I122
sS'shuffling'
p205
I124
sS'menu'
p206
I124
sS'bust'
p207
I124
sS'than'
p208
I86
sS'ayyye'
p209
I124
sS'touched'
p210
I124
sS'filipino..."5'
p211
I124
sS'tight"'
p212
I124
sS'rice'
p213
I124
sS'rica'
p214
I121
sS'plate'
p215
I121
sS'godzilla'
p216
I124
sS'pocket'
p217
I123
sS'vicariously'
p218
I124
sS'autistic'
p219
I124
sS'textbooks'
p220
I124
sS'pretzel'
p221
I124
sS'lol.\xe2\x80\x9d'
p222
I124
sS'respond'
p223
I124
sS'alsina'
p224
I124
sS'fair'
p225
I124
sS'meg'
p226
I124
sS'goodnight'
p227
I110
sS'fail'
p228
I123
sS'jabari'
p229
I124
sS'best'
p230
I76
sS'brithday'
p231
I124
sS'pressured'
p232
I124
sS'ambitions'
p233
I124
sS'lots'
p234
I122
sS'score'
p235
I112
sS'kennidad'
p236
I124
sS'lamar'
p237
I124
sS'men'
p238
I120
sS'nature'
p239
I123
sS'jasmine'
p240
I124
sS'herrera'
p241
I123
sS"kemp's"
p242
I124
sS'wtf'
p243
I115
sS'wth'
p244
I124
sS'country'
p245
I122
sS'lookin'
p246
I124
sS'logic'
p247
I121
sS'riveye'
p248
I124
sS'asked'
p249
I115
sS'and'
p250
I8
sS'miscommunication'
p251
I124
sS'2nd'
p252
I124
sS'canyon'
p253
I100
sS'real\xe2\x80\x9d'
p254
I124
sS'blonde'
p255
I124
sS'101'
p256
I124
sS'adverb'
p257
I124
sS'union'
p258
I124
sS'park\xe2\x80\xa6'
p259
I124
sS'fro'
p260
I124
sS'bothers'
p261
I124
sS'much'
p262
I85
sS'stadium'
p263
I123
sS'5\xe2\x80\x9d'
p264
I124
sS'decsions'
p265
I124
sS'life'
p266
I88
sS'footgolf'
p267
I124
sS'rock\xe2\x80\x9d'
p268
I124
sS'sarahrillon'
p269
I124
sS'worker'
p270
I124
sS'child'
p271
I122
sS'chili'
p272
I124
sS'haters'
p273
I122
sS'spin'
p274
I123
sS'cunt'
p275
I121
sS'chill'
p276
I115
sS'ghetto\xe2\x80\x9d'
p277
I124
sS'03:20:39.0,34.19525622,-118.60622287,1351.11,like'
p278
I124
sS'lost\xe2\x80\x9d'
p279
I124
sS'remembering'
p280
I124
sS'played'
p281
I119
sS'majin'
p282
I124
sS'alive..that'
p283
I124
sS'player'
p284
I114
sS'piercings'
p285
I124
sS'credit'
p286
I123
sS'things'
p287
I105
sS'omarion'
p288
I123
sS'toaster'
p289
I124
sS'honk'
p290
I124
sS'hahaahahahahahaha'
p291
I124
sS'babies'
p292
I121
sS'big'
p293
I109
sS'european'
p294
I124
sS'cindy'
p295
I123
sS'buscando'
p296
I124
sS'tops'
p297
I124
sS'yeaaaaaaaaa\xe2\x80\x9d'
p298
I124
sS'"who'
p299
I124
sS'lucas'
p300
I124
sS'homerun'
p301
I124
sS'burgers'
p302
I124
sS"6'0>>"
p303
I124
sS'wahh'
p304
I124
sS'opinions'
p305
I124
sS'booyah'
p306
I124
sS'sleeps'
p307
I123
sS'sleepy'
p308
I122
sS'previous'
p309
I121
sS'hah'
p310
I124
sS'icejjfish'
p311
I124
sS'had'
p312
I78
sS'easy'
p313
I119
sS'prison'
p314
I124
sS'has'
p315
I67
sS'hat'
p316
I124
sS'online'
p317
I124
sS'possible'
p318
I119
sS'season\xe2\x80\x9d'
p319
I124
sS'birth'
p320
I124
sS'poses'
p321
I124
sS'6:00'
p322
I124
sS'desire'
p323
I124
sS'steps'
p324
I124
sS'right'
p325
I70
sS'old'
p326
I106
sS'creek'
p327
I123
sS'people'
p328
I60
sS'santiago'
p329
I124
sS'crows'
p330
I124
sS'oly'
p331
I122
sS'fuuuuck'
p332
I124
sS'vato'
p333
I124
sS'creep'
p334
I124
sS'for'
p335
I15
sS'witty'
p336
I124
sS'flopping'
p337
I120
sS'treadmill'
p338
I124
sS'umm'
p339
I124
sS'foh'
p340
I124
sS'shakes'
p341
I124
sS'hahhahahahahahha'
p342
I124
sS'tho\xe2\x80\x9d'
p343
I124
sS'stefan'
p344
I123
sS'considerin'
p345
I124
sS'defensive'
p346
I124
sS'losing'
p347
I122
sS'derailed'
p348
I124
sS'blamenot'
p349
I124
sS'dollars'
p350
I121
sS'colleti'
p351
I124
sS'o'
p352
I116
sS'empire\xe2\x80\x9d'
p353
I124
sS'soo'
p354
I112
sS'son'
p355
I122
sS'thankful'
p356
I124
sS'wrap'
p357
I124
sS'sox'
p358
I122
sS'support'
p359
I123
sS'constantly'
p360
I124
sS'raped'
p361
I123
sS'joseph'
p362
I123
sS'greatness'
p363
I123
sS'jane'
p364
I124
sS'young\xe2\x80\x9dhey'
p365
I124
sS'happy'
p366
I56
sS'offer'
p367
I123
sS'$200'
p368
I123
sS'blockading'
p369
I124
sS'inside'
p370
I120
sS'jizzed'
p371
I124
sS'nicest'
p372
I124
sS'facetimed'
p373
I124
sS'duey'
p374
I124
sS'smashed'
p375
I124
sS'duet'
p376
I124
sS'passenger'
p377
I123
sS'shooter'
p378
I124
sS'proved'
p379
I123
sS'tournament'
p380
I123
sS'15$'
p381
I124
sS'dream.\xe2\x9d\xa4'
p382
I124
sS'relay'
p383
I124
sS'floor'
p384
I124
sS'zane'
p385
I124
sS'ambitious'
p386
I123
sS'becuase'
p387
I124
sS'smell'
p388
I122
sS'roll'
p389
I123
sS'intend'
p390
I124
sS'man-lol'
p391
I124
sS'outage'
p392
I124
sS"'a"
p393
I124
sS'rolling'
p394
I123
sS'adrianna'
p395
I124
sS'puss'
p396
I122
sS'packets'
p397
I124
sS'pet'
p398
I124
sS'time'
p399
I50
sS':/'
p400
I124
sS':('
p401
I117
sS':)'
p402
I118
sS'guess\xe2\x80\x9d'
p403
I124
sS'midst'
p404
I124
sS'bitchin'
p405
I124
sS'bribes'
p406
I124
sS'obssessed'
p407
I124
sS'96'
p408
I124
sS':o'
p409
I124
sS'icing'
p410
I124
sS'lrg'
p411
I124
sS'choice'
p412
I121
sS'stays'
p413
I124
sS'exact'
p414
I124
sS'minute'
p415
I121
sS'tear'
p416
I122
sS'leave'
p417
I107
sS'team'
p418
I117
sS"didn't?,91303\n474033207885590528,suubreenuhh,2014-06-04"
p419
I124
sS'collage'
p420
I124
sS'sign'
p421
I121
sS'shirts'
p422
I120
sS'jodeci'
p423
I124
sS'drews'
p424
I124
sS'beasley'
p425
I123
sS'falling'
p426
I124
sS'boost'
p427
I124
sS'grandparents'
p428
I124
sS'funeral'
p429
I124
sS'snack'
p430
I123
sS'<<<<'
p431
I124
sS'address'
p432
I122
sS'alone'
p433
I120
sS'along'
p434
I120
sS'canoga'
p435
I79
sS'brilliant'
p436
I124
sS'21:15:40.0,34.1948816,-118.60618817,1351.11,someone'
p437
I124
sS'commonly'
p438
I124
sS'accomplished'
p439
I124
sS'public"'
p440
I124
sS'love'
p441
I42
sS'instas'
p442
I124
sS'06:28:50.0,34.19475438,-118.60685931,1351.11,an'
p443
I124
sS'fake'
p444
I123
sS'tuesday\xe2\x80\x9dyes'
p445
I124
sS'working'
p446
I119
sS'positive'
p447
I124
sS'answer.well'
p448
I124
sS'wondering'
p449
I122
sS'films'
p450
I124
sS'loving'
p451
I123
sS"brazil's"
p452
I124
sS'marbles'
p453
I66
sS'afford'
p454
I122
sS'brokanese\xe2\x80\x9d'
p455
I124
sS"let'sgetwasted"
p456
I124
sS'ignorant'
p457
I122
sS'\xe2\x9d\xa4\xef\xb8\x8f\xe2\x9d\xa4\xef\xb8\x8f'
p458
I124
sS'barbera'
p459
I124
sS'abortion'
p460
I124
sS'whaaaar'
p461
I124
sS'duhhhh'
p462
I124
sS'bake'
p463
I124
sS'kendrick'
p464
I124
sS'following'
p465
I123
sS'yourself\xe2\x80\x9d'
p466
I124
sS'awesome'
p467
I119
sS'allowed'
p468
I123
sS'muay'
p469
I124
sS'offense'
p470
I123
sS'stole'
p471
I121
sS'winter'
p472
I124
sS'poking'
p473
I124
sS'immune'
p474
I124
sS'elephant'
p475
I124
sS'grossed'
p476
I124
sS'snaps'
p477
I124
sS'blasting'
p478
I124
sS'spot'
p479
I122
sS'date'
p480
I116
sS'such'
p481
I94
sS'suck'
p482
I120
sS'data'
p483
I123
sS'egotistical'
p484
I124
sS'yaaaaaaay'
p485
I124
sS'burnnn'
p486
I124
sS'stress'
p487
I122
sS'surfing'
p488
I124
sS'ss'
p489
I124
sS'su'
p490
I123
sS'st'
p491
I114
sS'si'
p492
I124
sS'mango'
p493
I124
sS'so'
p494
I17
sS'07:40:36.0,34.19542871,-118.60677126,1351.11,in'
p495
I124
sS'sb'
p496
I124
sS'pulled'
p497
I122
sS'sd'
p498
I124
sS'devonshire'
p499
I124
sS'kona'
p500
I124
sS'years'
p501
I108
sS'hiring'
p502
I124
sS'episodes'
p503
I122
sS'kanye'
p504
I123
sS'thaaat'
p505
I124
sS'donrell'
p506
I124
sS'torn'
p507
I124
sS'stupidity'
p508
I124
sS'faves'
p509
I123
sS'gatorade'
p510
I124
sS'victor,91303\n414919376345636864,carolina4810222,2013-12-23'
p511
I124
sS'into'
p512
I96
sS'petition'
p513
I124
sS'matches'
p514
I124
sS'smarter'
p515
I124
sS'mcfarlins'
p516
I124
sS'feelin'
p517
I124
sS'5.5"'
p518
I124
sS'price\xe2\x80\x9di'
p519
I124
sS'ahaha'
p520
I124
sS'runners'
p521
I124
sS'matched'
p522
I124
sS'sux\xe2\x80\x9dlol'
p523
I124
sS'square'
p524
I123
sS'lowkey'
p525
I117
sS'receipt'
p526
I124
sS'you.caption'
p527
I124
sS'troll'
p528
I124
sS'today,91303\n510077120991617024,bloop_kimmy,2014-09-11'
p529
I124
sS'"gangsta'
p530
I124
sS'jokes'
p531
I121
sS'lebron'
p532
I122
sS'sunburnt'
p533
I124
sS'seriously'
p534
I111
sS'internet'
p535
I123
sS'smalls'
p536
I124
sS'dodgers'
p537
I111
sS'disintegrated'
p538
I124
sS'million'
p539
I123
sS'possibility'
p540
I124
sS'quite'
p541
I123
sS'bumps'
p542
I124
sS'crying*happy'
p543
I124
sS'besides'
p544
I123
sS'grandma'
p545
I124
sS'12:15'
p546
I124
sS'training'
p547
I124
sS'punk'
p548
I123
sS'aboard'
p549
I124
sS'\xe2\x9b\xb3\xef\xb8\x8f'
p550
I124
sS'one'
p551
I40
sS'reopen'
p552
I124
sS'spanish'
p553
I124
sS'vote'
p554
I122
sS'today...does'
p555
I124
sS'city'
p556
I124
sS'bite'
p557
I124
sS'fml'
p558
I121
sS'2'
p559
I81
sS'draft'
p560
I123
sS'stuffed'
p561
I124
sS'typing'
p562
I124
sS'williams'
p563
I124
sS'on&'
p564
I124
sS'ridiculous'
p565
I123
sS'boyfriend'
p566
I121
sS'ermagerd'
p567
I124
sS'depressed'
p568
I124
sS'future'
p569
I122
sS'17-0'
p570
I123
sS'damned'
p571
I124
sS'san'
p572
I122
sS'sam'
p573
I124
sS'sal'
p574
I124
sS'ahhhhhhhh'
p575
I124
sS'turned'
p576
I122
sS'alley'
p577
I124
sS'sad'
p578
I116
sS'woah'
p579
I121
sS'tastes'
p580
I124
sS'allen'
p581
I123
sS'saw'
p582
I114
sS'sav'
p583
I123
sS'sat'
p584
I123
sS'wowowolsoslsls'
p585
I124
sS'hawaiian'
p586
I124
sS'babysit'
p587
I124
sS'asshole\xe2\x80\x9d'
p588
I124
sS'note'
p589
I124
sS'omfg'
p590
I112
sS'take'
p591
I67
sS'wanting'
p592
I120
sS'grammys'
p593
I124
sS"c'mere"
p594
I124
sS'ahhahahahaha'
p595
I124
sS'two-run'
p596
I124
sS'knew'
p597
I122
sS'right?\xe2\x80\x9d'
p598
I124
sS'pages'
p599
I124
sS'horngry'
p600
I124
sS'uluwatu'
p601
I124
sS'lawd'
p602
I124
sS'dreamwork'
p603
I124
sS'drive'
p604
I119
sS'not"'
p605
I124
sS'link'
p606
I123
sS'snowman"'
p607
I124
sS'ever\xe2\x80\x9d'
p608
I124
sS'walking'
p609
I121
sS'\xe2\x9c\xa8'
p610
I124
sS'boyz'
p611
I123
sS'bright'
p612
I124
sS"lucas's"
p613
I124
sS'chill\xe2\x80\x9dwe'
p614
I124
sS'\xe2\x9c\x8b'
p615
I123
sS'\xe2\x9c\x8a'
p616
I122
sS'tears'
p617
I119
sS'going'
p618
I79
sS'\xe2\x9c\x94'
p619
I124
sS'blinds'
p620
I124
sS'beatles'
p621
I123
sS'goodluck'
p622
I124
sS'whaaaa'
p623
I124
sS"game\xe2\x80\x9dyou're"
p624
I124
sS'prime'
p625
I119
sS'pimp'
p626
I122
sS'artist'
p627
I123
sS'saliva'
p628
I124
sS'borrow'
p629
I122
sS"could've"
p630
I124
sS'where'
p631
I102
sS'xmas'
p632
I123
sS'morose'
p633
I124
sS'espn'
p634
I123
sS'anyways'
p635
I124
sS'it.....lol'
p636
I124
sS'1230\xe2\x80\x9d'
p637
I124
sS'man"'
p638
I124
sS'persians'
p639
I124
sS'cuul'
p640
I124
sS'clayton'
p641
I122
sS'elijah'
p642
I124
sS'aryana'
p643
I124
sS'mans'
p644
I124
sS'many'
p645
I107
sS'jokers'
p646
I124
sS'flipped'
p647
I124
sS's'
p648
I124
sS'4:20'
p649
I124
sS'rojas\xe2\x80\x9dlanguage'
p650
I124
sS'backpack'
p651
I123
sS"can't"
p652
I70
sS'riddle'
p653
I124
sS'twit'
p654
I124
sS'ants'
p655
I124
sS'twin'
p656
I122
sS'anti'
p657
I124
sS'article'
p658
I124
sS'boat'
p659
I123
sS'cramps'
p660
I124
sS'now\xe2\x80\x9d'
p661
I122
sS'teddy'
p662
I123
sS'west'
p663
I121
sS'vacation'
p664
I124
sS'beeeeyyyyooottccchh'
p665
I124
sS'breath'
p666
I124
sS'ugly?\xe2\x80\x9dshade....i'
p667
I124
sS'wants'
p668
I112
sS"bussin'"
p669
I124
sS'thousand'
p670
I123
sS'photos'
p671
I122
sS'javier'
p672
I124
sS'in-n-out\xe2\x80\xa6'
p673
I124
sS'hashtag'
p674
I123
sS'futsal'
p675
I124
sS'psychotherapy'
p676
I121
sS'ohio\xe2\x80\x9d'
p677
I124
sS'single'
p678
I118
sS'fancer'
p679
I124
sS'situation'
p680
I123
sS'ive'
p681
I112
sS'purse'
p682
I124
sS'bros'
p683
I124
sS'broo'
p684
I124
sS'famo'
p685
I124
sS'lullabye'
p686
I124
sS'underestimate'
p687
I124
sS'breakdown'
p688
I124
sS'cheers'
p689
I124
sS'costa'
p690
I121
sS'costs'
p691
I124
sS'hubby'
p692
I124
sS'summer'
p693
I98
sS'sprayed'
p694
I124
sS'being'
p695
I87
sS'rest'
p696
I120
sS'recycled'
p697
I124
sS'dicks'
p698
I124
sS'around'
p699
I107
sS'neuer'
p700
I123
sS'traffic'
p701
I124
sS'fine.boys'
p702
I124
sS'world'
p703
I86
sS'in-n-out'
p704
I93
sS'colon'
p705
I124
sS'\xe2\x9d\xa4\xef\xb8\x8f\xe2\x80\x9dthanks'
p706
I124
sS'learning'
p707
I124
sS'lobster'
p708
I123
sS'eusebio'
p709
I124
sS'nobodytyyy'
p710
I124
sS'playin'
p711
I123
sS'divine'
p712
I124
sS'thinks'
p713
I123
sS'top.\xe2\x80\x9d'
p714
I124
sS'memories'
p715
I124
sS'noon'
p716
I123
sS'nooo'
p717
I124
sS'tuba'
p718
I124
sS'tots'
p719
I123
sS'power'
p720
I121
sS'waddup'
p721
I124
sS'throwback'
p722
I120
sS';)'
p723
I111
sS'hollands'
p724
I124
sS';-'
p725
I124
sS'stone'
p726
I123
sS'package'
p727
I124
sS'favorite'
p728
I118
sS'meal'
p729
I124
sS'act'
p730
I111
sS'luck'
p731
I121
sS'curling'
p732
I124
sS'burning'
p733
I123
sS'bjj'
p734
I124
sS'freaked'
p735
I124
sS'homeless'
p736
I122
sS'apologize'
p737
I124
sS'chlamidya'
p738
I124
sS"how's"
p739
I122
sS'her'
p740
I85
sS'hey'
p741
I114
sS'lmfaooo'
p742
I124
sS'contagious.\xe2\x80\x9d'
p743
I124
sS'bubble'
p744
I123
sS"child's"
p745
I123
sS'smaug'
p746
I124
sS'with'
p747
I23
sS'buying'
p748
I123
sS'handsome'
p749
I123
sS"they're"
p750
I116
sS'rush'
p751
I124
sS'october'
p752
I124
sS'marni'
p753
I124
sS'swole'
p754
I124
sS'chomped'
p755
I124
sS'dirty'
p756
I123
sS'aa'
p757
I124
sS'gone'
p758
I118
sS'ab'
p759
I124
sS'ohh'
p760
I120
sS'af'
p761
I114
sS'exhausted'
p762
I124
sS'certain'
p763
I123
sS'ak'
p764
I124
sS'am'
p765
I88
sS'al'
p766
I123
sS'an'
p767
I56
sS'ap'
p768
I119
sS'as'
p769
I63
sS'at'
p770
I14
sS'aw'
p771
I124
sS'walks'
p772
I123
sS'ay'
p773
I123
sS'watched'
p774
I120
sS'cream'
p775
I123
sS'yoga'
p776
I122
sS'drafts'
p777
I124
sS'would\xe2\x80\x9d'
p778
I124
sS'drive-thru'
p779
I124
sS'bruised.because'
p780
I124
sS'terra'
p781
I124
sS'midget'
p782
I124
sS'fresh'
p783
I122
sS'blazin'
p784
I124
sS'5:45'
p785
I124
sS'natalie'
p786
I124
sS'mask'
p787
I123
sS'hello'
p788
I123
sS'original'
p789
I121
sS'9/11'
p790
I124
sS'time...swear'
p791
I124
sS'llifetime'
p792
I124
sS"04:15:18.0,34.19487198,-118.60651016,1351.11,i'm"
p793
I124
sS'scv'
p794
I124
sS'andrea'
p795
I124
sS'ty'
p796
I124
sS'tv'
p797
I119
sS'tu'
p798
I124
sS'champions'
p799
I124
sS'to'
p800
I4
sS'tail'
p801
I123
sS'th'
p802
I124
sS'dressing'
p803
I124
sS'tf'
p804
I116
sS'smile'
p805
I122
sS'te'
p806
I124
sS'trigga'
p807
I124
sS'hahahahhahahaha,91303\n476490928274681856,axelll23,2014-06-10'
p808
I124
sS'juniors\xe2\x9d\xa4\xef\xb8\x8f\xe2\x80\x9dstfu'
p809
I124
sS'cable'
p810
I124
sS'laying'
p811
I122
sS'sand'
p812
I122
sS'adjust'
p813
I124
sS'small'
p814
I122
sS'dodger'
p815
I122
sS'booskiboo'
p816
I124
sS'hahaha\xe2\x80\x9d'
p817
I124
sS'past'
p818
I117
sS'triunfel'
p819
I124
sS'elco'
p820
I121
sS'pass'
p821
I118
sS'chords\xe2\x80\x9d'
p822
I124
sS'really\xe2\x80\x9d'
p823
I124
sS'clock'
p824
I124
sS'section'
p825
I123
sS'fucks'
p826
I120
sS'\xe2\x9d\xa4\xef\xb8\x8f\xe2\x9d\xa4\xef\xb8\x8f\xe2\x9d\xa4\xef\xb8\x8f\xe2\x80\x9d'
p827
I124
sS'fuckk'
p828
I124
sS'+cash'
p829
I124
sS'booty\xe2\x80\x9d'
p830
I124
sS'method'
p831
I124
sS'revealing'
p832
I124
sS'full'
p833
I114
sS'hash'
p834
I124
sS'hours'
p835
I107
sS'november'
p836
I124
sS'legend'
p837
I124
sS'experience'
p838
I123
sS'pics'
p839
I116
sS'healthier'
p840
I124
sS'social'
p841
I123
sS"would've"
p842
I123
sS"friday's"
p843
I124
sS'240'
p844
I124
sS'vic'
p845
I124
sS'via'
p846
I120
sS'followed'
p847
I123
sS'vin'
p848
I124
sS'follower'
p849
I124
sS'pulls'
p850
I124
sS"on's"
p851
I124
sS'silva'
p852
I124
sS'kaitlyn'
p853
I124
sS'pearl'
p854
I123
sS'gorgeous'
p855
I121
sS'homework'
p856
I121
sS'more'
p857
I74
sS'teen'
p858
I124
sS'door'
p859
I118
sS'keeping'
p860
I123
sS'damien'
p861
I124
sS'phillip'
p862
I124
sS'1:11'
p863
I124
sS'knocker'
p864
I124
sS'mall'
p865
I112
sS'overme'
p866
I124
sS'deliciousne'
p867
I124
sS'male'
p868
I124
sS'\xe2\x95\xad\xe2\x97\x9c\xe2\x97\x9d'
p869
I123
sS'beautiful'
p870
I118
sS'accept'
p871
I124
sS'states'
p872
I124
sS'salty'
p873
I117
sS'sense'
p874
I121
sS'gallon'
p875
I123
sS"00:58:38.0,34.1873795,-118.60592319,1351.11,i'd"
p876
I124
sS'huge'
p877
I117
sS'face\xe2\x80\x9dwowe'
p878
I124
sS'3:30-5:30'
p879
I124
sS'hugs'
p880
I124
sS'tempting'
p881
I124
sS'plane'
p882
I121
sS'backyard'
p883
I121
sS'refuse'
p884
I124
sS'funday'
p885
I124
sS'volleyball'
p886
I124
sS"charlie's"
p887
I124
sS'fan?!"i'
p888
I124
sS'mexican'
p889
I118
sS'trade'
p890
I119
sS'lmaooooooo\xe2\x80\x9dthis'
p891
I124
sS'scott'
p892
I124
sS'smiling'
p893
I124
sS'its'
p894
I41
sS'roots'
p895
I124
sS'buttercup'
p896
I124
sS'sauce'
p897
I124
sS'it"'
p898
I123
sS'sucked'
p899
I124
sS'everytime'
p900
I123
sS'always'
p901
I75
sS'again\xe2\x80\x9d'
p902
I124
sS'1am'
p903
I124
sS'found'
p904
I118
sS'reactions'
p905
I124
sS'gettin'
p906
I123
sS'weeknd'
p907
I124
sS'hahaahahahha'
p908
I124
sS"they've"
p909
I123
sS'clockwork'
p910
I124
sS'really'
p911
I75
sS'psychology'
p912
I123
sS'inteoducing'
p913
I124
sS'whennnn...you'
p914
I124
sS'amazinggg'
p915
I124
sS'"loyalty"'
p916
I124
sS'qualify'
p917
I124
sS'conditioning'
p918
I124
sS'imagine'
p919
I122
sS'mcchicken'
p920
I124
sS'definition'
p921
I124
sS'one\xe2\x80\x9d'
p922
I124
sS',91303\n508793654748536832,bloop_kimmy,2014-09-08'
p923
I124
sS'w'
p924
I120
sS'castle'
p925
I123
sS'major'
p926
I124
sS'wymond'
p927
I124
sS'number'
p928
I115
sS'12th.\xe2\x80\x9dwell'
p929
I124
sS'kobe'
p930
I124
sS'guess'
p931
I104
sS'stuff!-'
p932
I124
sS'guest'
p933
I124
sS'jet'
p934
I124
sS'hahahahhahahjahahhahahhahahahhahahahhaha'
p935
I124
sS'essays'
p936
I123
sS'carly'
p937
I124
sS'shai'
p938
I123
sS'relationship'
p939
I120
sS'zeus'
p940
I124
sS'.....see'
p941
I124
sS'consult'
p942
I124
sS'bryce'
p943
I124
sS'grace'
p944
I124
sS'obama'
p945
I124
sS'vocab'
p946
I124
sS'kreme'
p947
I123
sS'vocal'
p948
I123
sS'reus'
p949
I124
sS"samantha's"
p950
I124
sS'"boom"'
p951
I124
sS'sell'
p952
I122
sS'permanence'
p953
I124
sS'self'
p954
I121
sS'also'
p955
I122
sS'chuuu'
p956
I124
sS'play'
p957
I97
sS"hailey's"
p958
I124
sS'virus'
p959
I124
sS'plan'
p960
I123
sS'accepting'
p961
I124
sS'ghost\xe2\x80\xa6'
p962
I124
sS'sometimes'
p963
I113
sS'doubts'
p964
I124
sS'aviva'
p965
I123
sS'favela'
p966
I124
sS'microsoft'
p967
I124
sS'despise'
p968
I124
sS'ugh'
p969
I120
sS'golf'
p970
I120
sS'gold'
p971
I122
sS'session'
p972
I121
sS'defender'
p973
I124
sS'handful\xe2\x80\x9dhandful'
p974
I124
sS'uhmm'
p975
I124
sS'skylar'
p976
I123
sS'wayne'
p977
I124
sS'factor'
p978
I124
sS'giants'
p979
I121
sS'african-americans'
p980
I124
sS'banned'
p981
I123
sS'rft'
p982
I122
sS'cry'
p983
I114
sS'(via'
p984
I124
sS'thots'
p985
I124
sS'croatia'
p986
I123
sS'cease'
p987
I124
sS'river'
p988
I124
sS'approaching'
p989
I124
sS'insane'
p990
I124
sS'set'
p991
I121
sS'creator'
p992
I124
sS"sleepi've"
p993
I124
sS'sex'
p994
I119
sS'see'
p995
I64
sS'allie'
p996
I124
sS'project'
p997
I124
sS'movie'
p998
I106
sS'currently'
p999
I124
sS'demons'
p1000
I124
sS'rite'
p1001
I124
sS'nope'
p1002
I123
sS'knowing'
p1003
I124
sS'cabrera'
p1004
I124
sS'p****awithout'
p1005
I124
sS'prospects'
p1006
I124
sS'last'
p1007
I87
sS'sometimes\xe2\x80\x9dmostly'
p1008
I124
sS'thou'
p1009
I124
sS'thot'
p1010
I124
sS'barely'
p1011
I122
sS'thor'
p1012
I124
sS'thinking'
p1013
I117
sS'day.\xe2\x80\x9d'
p1014
I123
sS'pdf'
p1015
I124
sS'whole'
p1016
I119
sS'messiah'
p1017
I124
sS'patty'
p1018
I124
sS'load'
p1019
I124
sS'\xe2\x98\xba'
p1020
I123
sS'bell'
p1021
I118
sS'thoooo'
p1022
I124
sS'coincidence'
p1023
I123
sS'church'
p1024
I123
sS'raw'
p1025
I124
sS'belt'
p1026
I124
sS'devil'
p1027
I124
sS'hitting'
p1028
I120
sS'two\xe2\x80\x9d'
p1029
I124
sS'\xe2\x98\x80'
p1030
I124
sS'raced'
p1031
I124
sS'champion'
p1032
I123
sS'fire'
p1033
I120
sS"what's"
p1034
I117
sS'"likewise"'
p1035
I124
sS'races'
p1036
I124
sS'awake'
p1037
I122
sS'receive'
p1038
I124
sS'reliable'
p1039
I124
sS'forgetting'
p1040
I124
sS'pressed'
p1041
I124
sS'error'
p1042
I124
sS'kissing'
p1043
I124
sS'robin'
p1044
I124
sS"leeeeeeeet's"
p1045
I124
sS'<3'
p1046
I118
sS'<<'
p1047
I123
sS'triple'
p1048
I123
sS'"going'
p1049
I124
sS'audi'
p1050
I124
sS'funny'
p1051
I105
sS'barney'
p1052
I124
sS'seek'
p1053
I124
sS'nabi'
p1054
I124
sS'honesly'
p1055
I124
sS'defeat'
p1056
I124
sS'alert'
p1057
I123
sS'matheny'
p1058
I124
sS'stack'
p1059
I124
sS'recent'
p1060
I124
sS'amy'
p1061
I124
sS'suspicious'
p1062
I124
sS'verlander'
p1063
I124
sS'person'
p1064
I111
sS'rosters'
p1065
I124
sS'kelly'
p1066
I124
sS'salvo'
p1067
I124
sS'restroom*'
p1068
I124
sS'gentle\xe2\x80\x9d'
p1069
I124
sS'area.\xe2\x80\x9dand'
p1070
I124
sS'lester'
p1071
I122
sS'plagued'
p1072
I124
sS'jodes'
p1073
I124
sS'forrest'
p1074
I118
sS'unto'
p1075
I124
sS'parents'
p1076
I120
sS'location'
p1077
I123
sS'crying'
p1078
I119
sS'courtney'
p1079
I124
sS'34-2\xe2\x80\x9dafter'
p1080
I124
sS'surprised'
p1081
I123
sS'australia'
p1082
I124
sS'couple'
p1083
I120
sS'hoodrat'
p1084
I124
sS'hitters'
p1085
I124
sS'flannel'
p1086
I124
sS'd'
p1087
I124
sS'continue'
p1088
I124
sS'ivan'
p1089
I124
sS'exist\xe2\x80\x9didk'
p1090
I124
sS'b4'
p1091
I124
sS'sight'
p1092
I124
sS'greener'
p1093
I124
sS'14:47:17.0,34.18749637,-118.6060961,1351.11,hahahha'
p1094
I124
sS'mights'
p1095
I124
sS'and/or'
p1096
I124
sS'measurements'
p1097
I124
sS'incorrect<<<<\xe2\x80\x9d'
p1098
I124
sS'religion'
p1099
I124
sS'dating'
p1100
I124
sS'temple'
p1101
I124
sS'be'
p1102
I22
sS'bf'
p1103
I123
sS'bb'
p1104
I123
sS'bc'
p1105
I102
sS"china's"
p1106
I124
sS'kunis'
p1107
I124
sS'bj'
p1108
I124
sS'bp'
p1109
I124
sS'santa'
p1110
I122
sS'bs'
p1111
I123
sS'by'
p1112
I95
sS'anything'
p1113
I106
sS'netflix'
p1114
I124
sS'deserves'
p1115
I122
sS'sooorrrryyy'
p1116
I124
sS'"ya'
p1117
I124
sS'attends'
p1118
I124
sS'amaaaaazing'
p1119
I124
sS'appropriate'
p1120
I124
sS'chirping'
p1121
I124
sS'katie'
p1122
I123
sS'spending'
p1123
I121
sS'u2'
p1124
I124
sS'opens'
p1125
I123
sS'inches'
p1126
I124
sS'jewish'
p1127
I124
sS'undeserving'
p1128
I124
sS'atlantic'
p1129
I124
sS'line'
p1130
I110
sS'posted'
p1131
I123
sS'erick'
p1132
I122
sS'inhumane'
p1133
I124
sS'up'
p1134
I28
sS'us'
p1135
I99
sS'ur'
p1136
I118
sS'um'
p1137
I121
sS'uh'
p1138
I120
sS'faded'
p1139
I123
sS'yelled'
p1140
I124
sS'genial'
p1141
I124
sS'sherbs'
p1142
I124
sS'raging'
p1143
I124
sS'tyrese'
p1144
I124
sS'haunt'
p1145
I124
sS'chat'
p1146
I123
sS'babe'
p1147
I121
sS'realest'
p1148
I124
sS'95%'
p1149
I124
sS'watching\xe2\x80\x9ddoesnt'
p1150
I124
sS'meals'
p1151
I124
sS'ago'
p1152
I117
sS'land'
p1153
I123
sS'texted'
p1154
I124
sS'stressin'
p1155
I124
sS'age'
p1156
I124
sS'walked'
p1157
I122
sS'texter'
p1158
I124
sS'enrolled'
p1159
I124
sS'senioritis'
p1160
I124
sS"16:58:51.0,34.19602793,-118.6059936,1351.11,can't"
p1161
I124
sS'essay'
p1162
I124
sS'\xe2\x98\xba\xef\xb8\x8f\xe2\x98\xba\xef\xb8\x8f\xe2\x98\xba\xef\xb8\x8f'
p1163
I124
sS'code'
p1164
I124
sS'scratch'
p1165
I124
sS'enjoyable'
p1166
I123
sS'"traveling'
p1167
I124
sS'freakin'
p1168
I123
sS'chillin'
p1169
I124
sS'cody'
p1170
I124
sS'young'
p1171
I116
sS'send'
p1172
I120
sS'dislike'
p1173
I124
sS'sent'
p1174
I119
sS'torture'
p1175
I124
sS'animals'
p1176
I124
sS'timely'
p1177
I124
sS'marry'
p1178
I124
sS'having'
p1179
I111
sS'eve'
p1180
I124
sS'fewer'
p1181
I124
sS'try'
p1182
I106
sS'threat'
p1183
I124
sS'race'
p1184
I111
sS'exitbae'
p1185
I124
sS'mishap'
p1186
I124
sS'video'
p1187
I117
sS'odd'
p1188
I122
sS'consistently'
p1189
I124
sS'bestfriends'
p1190
I124
sS'twins'
p1191
I124
sS'kershaw'
p1192
I115
sS'bird'
p1193
I123
sS'lee'
p1194
I123
sS'leg'
p1195
I122
sS'*gets'
p1196
I124
sS'leo'
p1197
I123
sS'let'
p1198
I104
sS'douchey'
p1199
I124
sS'great'
p1200
I89
sS'\xe2\x9a\xbd\xef\xb8\x8f'
p1201
I124
sS'technical'
p1202
I124
sS'involved'
p1203
I123
sS'shitive'
p1204
I124
sS'uhm-'
p1205
I124
sS'evidence\xe2\x80\x9dthis'
p1206
I124
sS'cousins'
p1207
I124
sS'makes'
p1208
I100
sS'weekends'
p1209
I124
sS'involves'
p1210
I124
sS'thats'
p1211
I92
sS'siri'
p1212
I124
sS'neiman'
p1213
I124
sS'donavan'
p1214
I124
sS'dumbest'
p1215
I124
sS'confidence'
p1216
I124
sS'whipping'
p1217
I124
sS'next'
p1218
I99
sS'doubt'
p1219
I124
sS'lock'
p1220
I124
sS'rick'
p1221
I124
sS'uwwwwwwwwwwwehhhhh'
p1222
I124
sS'blondies'
p1223
I124
sS'rich'
p1224
I123
sS'choc'
p1225
I124
sS'baby'
p1226
I111
sS'gladly'
p1227
I124
sS'charity'
p1228
I124
sS'balls'
p1229
I123
sS'practicing'
p1230
I124
sS'this'
p1231
I16
sS'challenge'
p1232
I121
sS'clients'
p1233
I123
sS'og'
p1234
I124
sS'rooney'
p1235
I124
sS'"miss'
p1236
I124
sS'bens'
p1237
I124
sS'process'
p1238
I122
sS'quesadillas'
p1239
I124
sS'high'
p1240
I110
sS'blvd'
p1241
I100
sS'in?\xe2\x80\x9d'
p1242
I124
sS'class"'
p1243
I124
sS'animal'
p1244
I122
sS'running,91303\n447437154906406912,str8fit,2014-03-22'
p1245
I124
sS'blocks'
p1246
I124
sS'realize...if'
p1247
I124
sS'tiem'
p1248
I123
sS'rod"'
p1249
I124
sS'tied'
p1250
I124
sS'pigs'
p1251
I124
sS'evry'
p1252
I123
sS'fits'
p1253
I124
sS'ties'
p1254
I123
sS'racks'
p1255
I124
sS'solidarity'
p1256
I124
sS'realized'
p1257
I120
sS"tf....jericho...let's"
p1258
I124
sS'robot'
p1259
I123
sS'mjs'
p1260
I124
sS'counted'
p1261
I124
sS'floppes'
p1262
I124
sS'move'
p1263
I114
sS'him...:/'
p1264
I124
sS'peavy'
p1265
I124
sS'perfect'
p1266
I118
sS'awaited\xe2\x80\xa6'
p1267
I124
sS'degrees'
p1268
I124
sS'2015'
p1269
I123
sS'2014'
p1270
I123
sS'2011'
p1271
I123
sS'2012'
p1272
I124
sS'designs'
p1273
I124
sS'nada'
p1274
I124
sS'earn'
p1275
I124
sS'nade'
p1276
I124
sS'bothering'
p1277
I124
sS'kiss'
p1278
I121
sS'cage'
p1279
I124
sS'realize'
p1280
I118
sS'betta'
p1281
I123
sS'truth'
p1282
I122
sS'francisco'
p1283
I124
sS'glasses'
p1284
I124
sS'doing'
p1285
I105
sS'society'
p1286
I124
sS'books'
p1287
I121
sS'meth'
p1288
I124
sS'havasu'
p1289
I124
sS'hilarious'
p1290
I119
sS'shut'
p1291
I113
sS'hyundai'
p1292
I124
sS'you\xe2\x80\x9dfunny'
p1293
I124
sS'collection'
p1294
I124
sS'thrust'
p1295
I124
sS'craving'
p1296
I122
sS'canyon\xe2\x80\xa6'
p1297
I124
sS'could'
p1298
I90
sS'scars'
p1299
I124
sS'david'
p1300
I123
sS'pudding'
p1301
I124
sS'davis'
p1302
I124
sS'gallona'
p1303
I124
sS'couls'
p1304
I124
sS'kendall'
p1305
I124
sS'scene'
p1306
I122
sS'jesus'
p1307
I113
sS'me\xe2\x80\x9dthis'
p1308
I124
sS'owner'
p1309
I124
sS'blows'
p1310
I123
sS'yella'
p1311
I124
sS'start'
p1312
I111
sS'parentscontrol'
p1313
I124
sS'system'
p1314
I122
sS'suck\xc2\xa1'
p1315
I124
sS'"discussed"'
p1316
I124
sS'omg\xe2\x80\x9d'
p1317
I124
sS'autograph'
p1318
I124
sS'enforcement'
p1319
I124
sS'stomach'
p1320
I123
sS'lot'
p1321
I110
sS'grandpa'
p1322
I124
sS'anyones'
p1323
I124
sS'valencia'
p1324
I124
sS'haven'
p1325
I124
sS'gotchu'
p1326
I123
sS'warfare'
p1327
I123
sS'bother'
p1328
I124
sS'misunderstand'
p1329
I124
sS'hashtags'
p1330
I124
sS'tonight'
p1331
I86
sS'*d'
p1332
I124
sS'uncalled'
p1333
I124
sS'babes'
p1334
I124
sS'latino'
p1335
I123
sS'lily'
p1336
I124
sS'soap'
p1337
I124
sS're-kindling'
p1338
I124
sS'classy'
p1339
I123
sS'terio'
p1340
I124
sS'||rt'
p1341
I124
sS'breh'
p1342
I124
sS'thanksgiving'
p1343
I123
sS'19:54:47.0,34.19485338,-118.60662349,1351.11,how'
p1344
I124
sS"you'll"
p1345
I120
sS'brew'
p1346
I124
sS'painting'
p1347
I124
sS'fact'
p1348
I119
sS'atmosphere'
p1349
I124
sS'hoodies'
p1350
I124
sS'lmaoo'
p1351
I124
sS"complications...you'll"
p1352
I124
sS'bring'
p1353
I114
sS"90's"
p1354
I124
sS'rough'
p1355
I124
sS'pause'
p1356
I124
sS'jay'
p1357
I122
sS'should'
p1358
I93
sS'buttons'
p1359
I124
sS'jam'
p1360
I124
sS'tape'
p1361
I123
sS'riding'
p1362
I124
sS'hope'
p1363
I81
sS'innings."'
p1364
I124
sS'meant'
p1365
I120
sS'handle'
p1366
I120
sS'listened'
p1367
I124
sS'bonds'
p1368
I123
sS'lucky'
p1369
I119
sS'styrofoam'
p1370
I124
sS'abby'
p1371
I124
sS'h'
p1372
I123
sS'lala'
p1373
I124
sS'taxes'
p1374
I124
sS'stuff'
p1375
I121
sS'comapre'
p1376
I124
sS'guessing'
p1377
I124
sS'btw'
p1378
I120
sS'packet'
p1379
I124
sS'edition'
p1380
I124
sS'triples'
p1381
I124
sS'packed'
p1382
I123
sS'yhea'
p1383
I124
sS'superhero'
p1384
I124
sS'so...nuuuumb'
p1385
I124
sS'email'
p1386
I116
sS'ends'
p1387
I120
sS'dogging'
p1388
I124
sS'spell.and'
p1389
I124
sS'mane\xe2\x80\x9d'
p1390
I124
sS'invited'
p1391
I124
sS'drug'
p1392
I124
sS'etc'
p1393
I123
sS'cc'
p1394
I124
sS'ca'
p1395
I122
sS'cf'
p1396
I124
sS'cx'
p1397
I124
sS"pederson's"
p1398
I124
sS'600'
p1399
I124
sS'drank'
p1400
I124
sS'waste'
p1401
I123
sS"harper's"
p1402
I124
sS'mooorrree\xe2\x80\x9d'
p1403
I124
sS'>'
p1404
I122
sS'homosexual'
p1405
I124
sS'cuuuuuttteee'
p1406
I124
sS'collection.\xe2\x80\xa6'
p1407
I124
sS'graphics'
p1408
I124
sS'yuuuup'
p1409
I124
sS'podcasts'
p1410
I124
sS'grinning'
p1411
I123
sS'federowicz'
p1412
I124
sS'rbi'
p1413
I124
sS'hahaha'
p1414
I120
sS'rigged'
p1415
I124
sS'22-inning'
p1416
I124
sS'site'
p1417
I124
sS'throwbaaaaack'
p1418
I124
sS'vs'
p1419
I121
sS'vu'
p1420
I123
sS'sits'
p1421
I123
sS'jenner'
p1422
I124
sS'</3'
p1423
I124
sS'tupac'
p1424
I121
sS'nerd'
p1425
I124
sS'gibby'
p1426
I123
sS'ball'
p1427
I119
sS'emotionally'
p1428
I124
sS'bale'
p1429
I124
sS'drink'
p1430
I119
sS'upon'
p1431
I124
sS'yaaaaaassss'
p1432
I124
sS'ofc'
p1433
I124
sS'off'
p1434
I85
sS'still\xe2\x80\x9d'
p1435
I124
sS'dissing'
p1436
I123
sS"howard's"
p1437
I124
sS'drawing'
p1438
I122
sS'legendary'
p1439
I124
sS'less'
p1440
I119
sS'moments'
p1441
I123
sS'das'
p1442
I124
sS'futurama'
p1443
I124
sS'rooms'
p1444
I124
sS'fam...wtf'
p1445
I124
sS'ganna'
p1446
I124
sS'arrest'
p1447
I124
sS'wet'
p1448
I124
sS'donut\xe2\x80\x9dsame'
p1449
I124
sS'wimpy'
p1450
I124
sS'checking'
p1451
I121
sS'haus'
p1452
I106
sS'five'
p1453
I123
sS'belgium'
p1454
I124
sS'nvm'
p1455
I124
sS'fools'
p1456
I124
sS'onion'
p1457
I124
sS'chairs'
p1458
I124
sS'isgood'
p1459
I124
sS'nerves'
p1460
I123
sS'$150'
p1461
I123
sS'"what'
p1462
I124
sS'jalapeno'
p1463
I124
sS'literally'
p1464
I110
sS'avoid'
p1465
I124
sS'does'
p1466
I107
sS'desolation'
p1467
I124
sS'4:30am'
p1468
I124
sS'schedule'
p1469
I120
sS'mathieu'
p1470
I124
sS'(booty'
p1471
I124
sS'pressure'
p1472
I124
sS'stage'
p1473
I124
sS'sister'
p1474
I115
sS'pregame'
p1475
I124
sS'lindero'
p1476
I124
sS'offseason'
p1477
I124
sS'something?\xe2\x80\x9d'
p1478
I124
sS'angeles'
p1479
I123
sS'seeds'
p1480
I124
sS'documentary'
p1481
I124
sS'swimming'
p1482
I123
sS'letters'
p1483
I124
sS'pussy'
p1484
I109
sS'mere'
p1485
I124
sS'disappointment\xe2\x80\x9dhahahaha'
p1486
I124
sS'complimented'
p1487
I124
sS'function'
p1488
I123
sS'doood'
p1489
I124
sS'fasho'
p1490
I122
sS'count'
p1491
I124
sS'places'
p1492
I123
sS'tallest'
p1493
I124
sS'official'
p1494
I124
sS'smooth'
p1495
I124
sS'convince'
p1496
I124
sS'subtweets'
p1497
I124
sS'problem'
p1498
I119
sS'informational'
p1499
I124
sS'odds'
p1500
I123
sS'irish'
p1501
I124
sS'recognize'
p1502
I124
sS'3-2'
p1503
I124
sS'3-1'
p1504
I123
sS'compared'
p1505
I122
sS'memory\xe2\x80\x9doh'
p1506
I124
sS'lately'
p1507
I124
sS'details'
p1508
I124
sS'3-error'
p1509
I124
sS'mcd'
p1510
I123
sS'monday'
p1511
I124
sS'chance'
p1512
I118
sS'badass'
p1513
I124
sS'ghost'
p1514
I124
sS'rule'
p1515
I123
sS'hairrrrrr'
p1516
I124
sS'disgusts'
p1517
I124
sS'476'
p1518
I124
sS'searched'
p1519
I123
sS'defend'
p1520
I124
sS'inning'
p1521
I124
sS'saves'
p1522
I124
sS'yikes'
p1523
I124
sS'saved'
p1524
I123
sS'worked'
p1525
I122
sS'relationships'
p1526
I122
sS'porno'
p1527
I124
sS'edward'
p1528
I124
sS'voted'
p1529
I124
sS'worth'
p1530
I116
sS'tagging'
p1531
I124
sS'tickets'
p1532
I122
sS"we'll"
p1533
I116
sS'upload'
p1534
I124
sS'18:47:13.0,34.18770382,-118.60595838,1351.11,i'
p1535
I124
sS'red'
p1536
I112
sS'299'
p1537
I124
sS'monologue'
p1538
I124
sS'u\xe2\x80\x9d'
p1539
I123
sS'7th'
p1540
I122
sS'panda'
p1541
I123
sS'machines'
p1542
I124
sS'+'
p1543
I123
sS'robbens'
p1544
I124
sS'officially'
p1545
I119
sS'told'
p1546
I119
sS'shutup'
p1547
I121
sS'sinks'
p1548
I124
sS'yessssd'
p1549
I124
sS'thancan'
p1550
I124
sS'glo'
p1551
I124
sS'items'
p1552
I123
sS'itunes'
p1553
I124
sS'surprised,91303\n472178779909926912,bazookaluke,2014-05-30'
p1554
I124
sS'smoke'
p1555
I121
sS'aka'
p1556
I124
sS'*will'
p1557
I124
sS'highly'
p1558
I124
sS'bro'
p1559
I113
sS'insta'
p1560
I124
sS'best\xe2\x80\x9d'
p1561
I124
sS'total'
p1562
I123
sS'bra'
p1563
I119
sS'die.i'
p1564
I124
sS'sweater'
p1565
I124
sS'motivate'
p1566
I124
sS'negative'
p1567
I124
sS'driving.\xe2\x80\x9d'
p1568
I124
sS'bombass'
p1569
I124
sS'scary'
p1570
I121
sS'haha'
p1571
I109
sS'over"'
p1572
I124
sS'pussy-shai'
p1573
I124
sS'after\xe2\x80\x9d'
p1574
I124
sS'word'
p1575
I113
sS'jess'
p1576
I124
sS'work'
p1577
I81
sS'cant'
p1578
I92
sS'koda'
p1579
I124
sS'peeve'
p1580
I124
sS'\xd9\x8a\xd8\xa7'
p1581
I124
sS'era'
p1582
I120
sS'female\xe2\x80\x9d'
p1583
I124
sS'deprived'
p1584
I124
sS'elbow'
p1585
I124
sS'piers'
p1586
I124
sS'omari'
p1587
I124
sS'goood'
p1588
I124
sS'looooong'
p1589
I124
sS'woman'
p1590
I121
sS'\xe2\x80\x9cguess'
p1591
I124
sS'recovery'
p1592
I124
sS'nuts'
p1593
I124
sS'rookie'
p1594
I123
sS'boats'
p1595
I123
sS'beach'
p1596
I114
sS'bday'
p1597
I114
sS'after'
p1598
I105
sS'lab'
p1599
I124
sS'lay'
p1600
I121
sS'law'
p1601
I124
sS'lap'
p1602
I124
sS'las'
p1603
I124
sS'chills'
p1604
I124
sS'appreciate'
p1605
I121
sS'scare'
p1606
I124
sS'green'
p1607
I122
sS'fan'
p1608
I118
sS'order'
p1609
I122
sS'greed'
p1610
I124
sS'lindsay'
p1611
I124
sS'burger)'
p1612
I122
sS'popsicle'
p1613
I124
sS'office'
p1614
I122
sS'defenders'
p1615
I124
sS'satisfied'
p1616
I124
sS'awful'
p1617
I122
sS'...\xc2\xa1!!\xc2\xa1\xc2\xa1\xc2\xa1'
p1618
I124
sS'mayor'
p1619
I123
sS'baby\xe2\x80\x9dbae'
p1620
I124
sS'somewhere'
p1621
I119
sS'highlights'
p1622
I123
sS'avocado'
p1623
I124
sS'fag'
p1624
I124
sS'"sam'
p1625
I124
sS'then'
p1626
I72
sS'them'
p1627
I83
sS'bans'
p1628
I124
sS'safe'
p1629
I121
sS'layun'
p1630
I124
sS'break'
p1631
I114
sS'roommate'
p1632
I124
sS'onestep'
p1633
I124
sS'they'
p1634
I61
sS'payback'
p1635
I124
sS'persian\xe2\x80\x9d'
p1636
I124
sS'sprinkles\xe2\x80\x9d'
p1637
I124
sS'bank'
p1638
I116
sS'bread'
p1639
I123
sS'relaunching'
p1640
I121
sS'l'
p1641
I124
sS'alexis'
p1642
I124
sS'maddogg'
p1643
I124
sS'feeds'
p1644
I124
sS'376'
p1645
I123
sS'lol.,91303\n508793465660903424,bloop_kimmy,2014-09-08'
p1646
I124
sS'valleyvandals'
p1647
I124
sS'gerrard'
p1648
I124
sS'streak\xe2\x80\x9ddick'
p1649
I124
sS'season.\xe2\x80\x9d'
p1650
I124
sS'logo'
p1651
I124
sS'daniel'
p1652
I124
sS'medicine'
p1653
I124
sS'hooker'
p1654
I124
sS'(woodland'
p1655
I116
sS'barrier'
p1656
I124
sS'admits'
p1657
I124
sS'tho\xe2\x80\x9dlol'
p1658
I124
sS"people's"
p1659
I124
sS'\xee\x8c\x92\xee\x90\x94'
p1660
I124
sS'mvp'
p1661
I124
sS'dammit'
p1662
I121
sS'created'
p1663
I123
sS'raisin'
p1664
I124
sS'hahahahhahaha'
p1665
I124
sS'"no'
p1666
I124
sS'can\xe2\x80\x99t'
p1667
I124
sS'(at'
p1668
I117
sS'vanowen'
p1669
I110
sS'champs'
p1670
I124
sS'hamstring'
p1671
I124
sS'another'
p1672
I106
sS'comin'
p1673
I123
sS'rated'
p1674
I124
sS'dogg'
p1675
I121
sS'dumbass'
p1676
I120
sS'john'
p1677
I124
sS'dogs'
p1678
I124
sS'5-10'
p1679
I124
sS'cereal'
p1680
I123
sS'nahh'
p1681
I124
sS'iron'
p1682
I124
sS'powers'
p1683
I123
sS'mains/'
p1684
I124
sS'giraffes'
p1685
I124
sS'portraits'
p1686
I124
sS'forced'
p1687
I123
sS'strength'
p1688
I124
sS'genuine'
p1689
I123
sS'hahahahahahhaha'
p1690
I124
sS'acquire'
p1691
I124
sS'bruce'
p1692
I124
sS'sue'
p1693
I124
sS'germany'
p1694
I119
sS'showtek'
p1695
I124
sS'smoked'
p1696
I124
sS'nostrils'
p1697
I124
sS'calculated'
p1698
I124
sS'judgmental'
p1699
I124
sS'aunt'
p1700
I123
sS'boyfriends'
p1701
I123
sS'religions'
p1702
I124
sS'spencers'
p1703
I124
sS'keywords'
p1704
I124
sS'dopes'
p1705
I124
sS'toast'
p1706
I122
sS"em'"
p1707
I124
sS'sentence'
p1708
I123
sS'deepest'
p1709
I124
sS'sus'
p1710
I123
sS'goalie'
p1711
I122
sS'personality'
p1712
I124
sS'do'
p1713
I34
sS'dm'
p1714
I117
sS'de'
p1715
I122
sS'db'
p1716
I122
sS'cardinals'
p1717
I124
sS'da'
p1718
I118
sS'dw'
p1719
I124
sS'rebirth'
p1720
I124
sS'runs'
p1721
I123
sS'w/o'
p1722
I124
sS'steak'
p1723
I123
sS'11\xe2\x80\x9d'
p1724
I124
sS'steam'
p1725
I124
sS'besties'
p1726
I124
sS'w/'
p1727
I114
sS'lemonade'
p1728
I124
sS'depends'
p1729
I124
sS'2\xe2\x80\x9dbruh'
p1730
I124
sS'r&r'
p1731
I124
sS"2's"
p1732
I124
sS'pedicure'
p1733
I124
sS'away'
p1734
I115
sS'gentleman'
p1735
I124
sS'props'
p1736
I124
sS'co)'
p1737
I124
sS'we'
p1738
I45
sS'nahhh'
p1739
I124
sS'kitchen'
p1740
I124
sS'cop'
p1741
I124
sS'ill'
p1742
I103
sS'cod'
p1743
I124
sS'(most'
p1744
I124
sS'ily'
p1745
I121
sS'tough'
p1746
I124
sS'seizure'
p1747
I124
sS'tony'
p1748
I124
sS'jays'
p1749
I124
sS'heals'
p1750
I124
sS'petty'
p1751
I123
sS'belieber'
p1752
I124
sS'sleepover'
p1753
I124
sS'is....great'
p1754
I124
sS'deodorant'
p1755
I124
sS'ooooo'
p1756
I124
sS'relaxing'
p1757
I124
sS'bone-in'
p1758
I124
sS'gracious'
p1759
I124
sS'east'
p1760
I124
sS',91303\n363821869083803648,interistaq8,2013-08-04'
p1761
I124
sS'd.c'
p1762
I124
sS'air'
p1763
I123
sS'voice'
p1764
I122
sS'lahm'
p1765
I123
sS'mistake'
p1766
I122
sS'brake'
p1767
I123
sS'cone'
p1768
I124
sS'tdfw'
p1769
I124
sS'wainright'
p1770
I123
sS'jerry'
p1771
I124
sS"b's"
p1772
I124
sS'ily2'
p1773
I124
sS'together..everyday'
p1774
I124
sS'swell'
p1775
I124
sS'hang'
p1776
I117
sS'soooooooooooooooooo'
p1777
I124
sS'evil'
p1778
I124
sS'hand'
p1779
I118
sS'chyeeeahh'
p1780
I124
sS'lol\xe2\x80\x9d'
p1781
I121
sS'darle'
p1782
I124
sS'nip'
p1783
I124
sS'turnuhhhhh'
p1784
I124
sS'knockoff'
p1785
I124
sS'kept'
p1786
I124
sS'thx'
p1787
I121
sS'tho'
p1788
I102
sS'hispanic'
p1789
I124
sS'epl'
p1790
I124
sS'contact'
p1791
I122
sS'the'
p1792
I3
sS'musical'
p1793
I124
sS'tha'
p1794
I124
sS'photo'
p1795
I123
sS'hahahha'
p1796
I124
sS'concert\xe2\x80\x9d'
p1797
I124
sS'thanks'
p1798
I99
sS'adding'
p1799
I124
sS'hills'
p1800
I111
sS'josh'
p1801
I120
sS'wright'
p1802
I124
sS'shout'
p1803
I123
sS'spread'
p1804
I121
sS'insensitive'
p1805
I124
sS'mayb'
p1806
I124
sS'rnb'
p1807
I124
sS'boxes'
p1808
I121
sS'theyre'
p1809
I123
sS'night'
p1810
I86
sS'portuguese'
p1811
I124
sS'honored'
p1812
I124
sS'6?\xe2\x80\x9d'
p1813
I124
sS'sends'
p1814
I124
sS'idgaf'
p1815
I123
sS'born'
p1816
I124
sS'confusing'
p1817
I123
sS'purple'
p1818
I124
sS'phenomenal'
p1819
I124
sS'comments'
p1820
I123
sS'asking'
p1821
I119
sS'4/20'
p1822
I124
sS'denied'
p1823
I123
sS'someway'
p1824
I124
sS'beating'
p1825
I123
sS'adorable'
p1826
I123
sS'columbus'
p1827
I124
sS'pls'
p1828
I122
sS'mascherano'
p1829
I124
sS'kickball'
p1830
I124
sS'illustration'
p1831
I124
sS'peer'
p1832
I124
sS'post'
p1833
I110
sS'_____'
p1834
I124
sS'months'
p1835
I118
sS'cherish'
p1836
I124
sS'winehouse'
p1837
I124
sS'wasting'
p1838
I123
sS'xyz'
p1839
I124
sS'bound'
p1840
I124
sS'yanni'
p1841
I119
sS'gamebook'
p1842
I124
sS'fight'
p1843
I118
sS'yalllllllllllllllllllgayasfkbye'
p1844
I124
sS'way'
p1845
I92
sS'was'
p1846
I26
sS'war'
p1847
I123
sS'lowest'
p1848
I124
sS"bria's"
p1849
I124
sS'becoming'
p1850
I122
sS'true'
p1851
I121
sS'reset'
p1852
I124
sS'reproductive'
p1853
I124
sS'mundial.\xe2\x80\x9dno'
p1854
I124
sS'7:12'
p1855
I124
sS'7:15'
p1856
I124
sS'winery'
p1857
I124
sS'promises'
p1858
I124
sS'\xcd\xa1'
p1859
I121
sS'tryna'
p1860
I113
sS'umpire'
p1861
I124
sS'evidence'
p1862
I124
sS'christmas\xe2\x80\x9dwhy'
p1863
I124
sS'guessed'
p1864
I124
sS'promised'
p1865
I124
sS"awake...i'm"
p1866
I124
sS'face'
p1867
I111
sS'mold'
p1868
I124
sS'physical'
p1869
I122
sS'dying'
p1870
I121
sS'reality'
p1871
I123
sS'interested'
p1872
I123
sS'jong'
p1873
I124
sS'test'
p1874
I124
sS'\xcd\x9c'
p1875
I121
sS'brothers'
p1876
I123
sS'welcome'
p1877
I119
sS'update'
p1878
I122
sS"let's"
p1879
I106
sS'scores'
p1880
I122
sS'cheated'
p1881
I122
sS'together'
p1882
I116
sS'cheater'
p1883
I123
sS'songz'
p1884
I123
sS'songs'
p1885
I119
sS'switched'
p1886
I124
sS'dance'
p1887
I122
sS'in-and-out'
p1888
I124
sS'knuckleballer'
p1889
I124
sS'somthing'
p1890
I124
sS'zone'
p1891
I123
sS'flash'
p1892
I124
sS'thighs'
p1893
I124
sS'fog'
p1894
I124
sS"a's"
p1895
I123
sS'protestors'
p1896
I124
sS'brown'
p1897
I120
sS'protective'
p1898
I124
sS'hannah'
p1899
I124
sS'vegan'
p1900
I121
sS'vegas'
p1901
I124
sS'blast'
p1902
I123
sS'margarita'
p1903
I124
sS'lana\xe2\x80\x9dusing'
p1904
I124
sS'trifecta'
p1905
I124
sS'presented'
p1906
I124
sS'12th'
p1907
I124
sS'gun'
p1908
I123
sS'turnt'
p1909
I123
sS'30yr'
p1910
I124
sS'p'
p1911
I124
sS'soooo'
p1912
I121
sS'guy'
p1913
I111
sS'brave'
p1914
I124
sS'"likely"'
p1915
I124
sS'jealy'
p1916
I124
sS'bravo'
p1917
I124
sS'hayston'
p1918
I124
sS'21:28:11.0,34.19487198,-118.60651016,1351.11,happy'
p1919
I124
sS'curse'
p1920
I124
sS'co-ed'
p1921
I124
sS'uniform'
p1922
I123
sS'oaks'
p1923
I124
sS'change'
p1924
I117
sS'shrery'
p1925
I124
sS'sending'
p1926
I124
sS'milwalkee'
p1927
I124
sS'lakers'
p1928
I123
sS'franklin'
p1929
I124
sS'kemp'
p1930
I121
sS'usually'
p1931
I122
sS'pillow'
p1932
I122
sS'homecoming'
p1933
I124
sS'lmfaoooo'
p1934
I124
sS'extra'
p1935
I122
sS'mckenna'
p1936
I124
sS'rarely'
p1937
I123
sS'mobil'
p1938
I123
sS'market'
p1939
I122
sS'angelo'
p1940
I124
sS"bieber's"
p1941
I124
sS'prove'
p1942
I123
sS'live'
p1943
I108
sS'nigga"'
p1944
I124
sS'angels'
p1945
I122
sS'entrance'
p1946
I124
sS'clue'
p1947
I123
sS'gwynn'
p1948
I124
sS'communist'
p1949
I124
sS'douche'
p1950
I124
sS'niggas'
p1951
I116
sS'car'
p1952
I106
sS'cat'
p1953
I123
sS'hardest'
p1954
I123
sS'can'
p1955
I46
sS'heart'
p1956
I113
sS'dedicated'
p1957
I124
sS'december'
p1958
I124
sS"didn't"
p1959
I113
sS'topic'
p1960
I124
sS'heard'
p1961
I117
sS'clothing'
p1962
I123
sS'occur'
p1963
I124
sS'means'
p1964
I120
sS'write'
p1965
I124
sS'nonstop'
p1966
I124
sS'heroes'
p1967
I124
sS'occasionaly'
p1968
I124
sS'remember'
p1969
I114
sS'whenever'
p1970
I124
sS'irwin'
p1971
I124
sS'fireball'
p1972
I124
sS'typical'
p1973
I124
sS'"anti-love"'
p1974
I124
sS'haircut'
p1975
I123
sS'brain'
p1976
I123
sS'17-0.\xe2\x80\x9dfuck'
p1977
I124
sS'managers'
p1978
I124
sS'cold'
p1979
I114
sS'still'
p1980
I70
sS'birds'
p1981
I123
sS'birthdayy'
p1982
I123
sS'flakess'
p1983
I124
sS'birthdays'
p1984
I124
sS'shaping'
p1985
I124
sS'forms'
p1986
I124
sS'window'
p1987
I124
sS'non'
p1988
I122
sS'noo'
p1989
I124
sS'features.\xe2\x80\x9d'
p1990
I124
sS'half'
p1991
I115
sS'not'
p1992
I27
sS'ritchie'
p1993
I124
sS'now'
p1994
I37
sS'wont'
p1995
I121
sS'james'
p1996
I124
sS'drop'
p1997
I124
sS'(6841'
p1998
I120
sS'em'
p1999
I117
sS'el'
p2000
I123
sS'en'
p2001
I124
sS'ei'
p2002
I124
sS'fired'
p2003
I124
sS'challenged'
p2004
I124
sS'ed'
p2005
I123
sS'yeah'
p2006
I115
sS'challenges'
p2007
I123
sS'ex'
p2008
I122
sS'year'
p2009
I97
sS'ew'
p2010
I123
sS'calling'
p2011
I121
sS'es'
p2012
I123
sS'album'
p2013
I117
sS'shown'
p2014
I124
sS'opened'
p2015
I123
sS'thirst'
p2016
I123
sS'looking'
p2017
I104
sS'b-52'
p2018
I124
sS'shows'
p2019
I123
sS'smfh'
p2020
I124
sS'cars'
p2021
I122
sS'rly'
p2022
I121
sS'carb'
p2023
I123
sS'card'
p2024
I120
sS'care'
p2025
I119
sS'honest'
p2026
I124
sS'lindsey'
p2027
I124
sS'zeusss\xe2\x80\x9d'
p2028
I124
sS'513'
p2029
I124
sS'f21..so'
p2030
I124
sS'flipping'
p2031
I122
sS'17:01:19.0,34.1959693,-118.60594982,1351.11,school'
p2032
I124
sS'yourself'
p2033
I114
sS'xx'
p2034
I120
sS'kersh'
p2035
I123
sS'odalis'
p2036
I124
sS'impossible'
p2037
I122
sS'message'
p2038
I123
sS'drove'
p2039
I123
sS'tomorrow'
p2040
I75
sS'size'
p2041
I122
sS'sheep'
p2042
I124
sS'checked'
p2043
I122
sS'silent'
p2044
I124
sS'caught'
p2045
I121
sS'carson'
p2046
I124
sS'facebook...4'
p2047
I124
sS'yis'
p2048
I124
sS'friend'
p2049
I112
sS'thas'
p2050
I124
sS'that'
p2051
I19
sS'pederson'
p2052
I123
sS'everhart'
p2053
I124
sS'highhhh'
p2054
I124
sS'baja'
p2055
I124
sS'thai'
p2056
I124
sS'pnd'
p2057
I124
sS'togetheeeeeer'
p2058
I124
sS'$15'
p2059
I123
sS'mens/womens'
p2060
I124
sS'fruits'
p2061
I124
sS'de-nial'
p2062
I124
sS"club's"
p2063
I124
sS'hunnnyyyyy'
p2064
I124
sS'angel'
p2065
I124
sS'craig'
p2066
I123
sS'correction'
p2067
I124
sS'slap'
p2068
I124
sS'keif'
p2069
I124
sS'slam'
p2070
I124
sS'anger'
p2071
I123
sS'breakfast'
p2072
I120
sS'inked'
p2073
I124
sS'equipment'
p2074
I124
sS'goals\xe2\x80\x9d'
p2075
I124
sS'bye.\xe2\x80\x9donly'
p2076
I124
sS'tigers'
p2077
I124
sS'bitching'
p2078
I124
sS'4th'
p2079
I122
sS'begin'
p2080
I124
sS'sayinnn'
p2081
I124
sS'price'
p2082
I116
sS'america'
p2083
I124
sS'michelle'
p2084
I124
sS'forever'
p2085
I119
sS'dream'
p2086
I117
sS'steady'
p2087
I124
sS'tooth'
p2088
I124
sS'sunset'
p2089
I124
sS'abraham'
p2090
I124
sS'typically'
p2091
I123
sS'filing'
p2092
I124
sS'photoshop'
p2093
I124
sS'cheeseburgers'
p2094
I124
sS'ground'
p2095
I124
sS'aint'
p2096
I118
sS'upgrade'
p2097
I124
sS'title'
p2098
I123
sS'only'
p2099
I73
sS'sierra'
p2100
I124
sS'brotha'
p2101
I124
sS'pumpkin'
p2102
I124
sS'quickscoper'
p2103
I124
sS'cannot'
p2104
I120
sS'kike'
p2105
I124
sS'concert'
p2106
I122
sS'physically'
p2107
I124
sS'station'
p2108
I124
sS'lapppp\xe2\x80\x9d'
p2109
I124
sS'asleep'
p2110
I121
sS'hoes'
p2111
I121
sS'hurt='
p2112
I124
sS'golazo'
p2113
I124
sS'glaze'
p2114
I124
sS'3'
p2115
I98
sS'between'
p2116
I123
sS'stupid"'
p2117
I124
sS'notice'
p2118
I123
sS'blame'
p2119
I124
sS'hurts'
p2120
I124
sS'comeback'
p2121
I123
sS'horrifying'
p2122
I124
sS'hahahhahaaha'
p2123
I124
sS'comes'
p2124
I120
sS'madness'
p2125
I124
sS'jeans'
p2126
I123
sS"couldn't"
p2127
I123
sS'cycling'
p2128
I124
sS'cares'
p2129
I122
sS'rebuild'
p2130
I124
sS'\xe2\x80\xbc\xef\xb8\x8f'
p2131
I124
sS'tropical'
p2132
I124
sS'hill\xe2\x80\x9dhahahaha'
p2133
I124
sS'lebroncenter-sportcenterlies'
p2134
I124
sS'sticky'
p2135
I124
sS'argentina'
p2136
I124
sS'4-0'
p2137
I122
sS'sun\xe2\x80\x9d'
p2138
I124
sS'these'
p2139
I99
sS'trick'
p2140
I122
sS'care"'
p2141
I124
sS'kerahaw'
p2142
I124
sS'galore'
p2143
I124
sS'coat\xe2\x80\x9d'
p2144
I124
sS'heels'
p2145
I122
sS'return'
p2146
I118
sS'property'
p2147
I123
sS'worry'
p2148
I121
sS'media'
p2149
I122
sS'gentlemen'
p2150
I124
sS'ya'
p2151
I102
sS'poetic'
p2152
I124
sS'followers'
p2153
I123
sS'roomie('
p2154
I124
sS'rt\xe2\x80\x9d'
p2155
I124
sS'finish'
p2156
I122
sS'closest'
p2157
I122
sS'wtfs'
p2158
I124
sS'fruit'
p2159
I124
sS'favorites'
p2160
I123
sS'mentally'
p2161
I123
sS'burrito'
p2162
I124
sS'traps'
p2163
I123
sS'charger'
p2164
I123
sS'breezy'
p2165
I124
sS'mad\xe2\x80\x9d'
p2166
I124
sS'ccc'
p2167
I124
sS'charged'
p2168
I123
sS'5-2-1-2'
p2169
I124
sS'everyone\xe2\x80\x9d'
p2170
I122
sS'touch'
p2171
I124
sS'ps3'
p2172
I122
sS'ps4'
p2173
I124
sS'sweatpants'
p2174
I124
sS'death'
p2175
I124
sS"ricebooding'"
p2176
I124
sS'choclate'
p2177
I124
sS'9:30'
p2178
I124
sS'treatment'
p2179
I124
sS'placessincerelyeverybody'
p2180
I124
sS'momentum'
p2181
I124
sS'real'
p2182
I103
sS'read'
p2183
I115
sS'twitchy'
p2184
I124
sS'gonna'
p2185
I57
sS'early'
p2186
I109
sS'listening'
p2187
I120
sS'using'
p2188
I118
sS'lady'
p2189
I120
sS'pst'
p2190
I124
sS'whatchu'
p2191
I124
sS'fortune'
p2192
I122
sS'hoodnight'
p2193
I124
sS't'
p2194
I124
sS'whatcha'
p2195
I124
sS'food...ugh'
p2196
I124
sS'cinnabon'
p2197
I124
sS'24.\xe2\x80\x9d'
p2198
I124
sS'ahhhhhh'
p2199
I124
sS'bless'
p2200
I124
sS"ireland's"
p2201
I124
sS'hahahahhaha'
p2202
I122
sS'hahahahahahahhaha'
p2203
I124
sS'saftey'
p2204
I124
sS'\xe2\x9c\x88\xef\xb8\x8f'
p2205
I124
sS'business'
p2206
I123
sS'asap'
p2207
I123
sS'seing'
p2208
I124
sS'equivalent'
p2209
I124
sS'exciting'
p2210
I124
sS'throw'
p2211
I120
sS'pussy\xe2\x80\x9d'
p2212
I123
sS'central'
p2213
I124
sS'hiatus'
p2214
I124
sS"j9's-k9's"
p2215
I124
sS'journey'
p2216
I124
sS'chow'
p2217
I115
sS'heavy'
p2218
I121
sS'snapchat'
p2219
I115
sS'taft'
p2220
I124
sS'heated'
p2221
I123
sS'elementary'
p2222
I124
sS'your'
p2223
I32
sS'stare'
p2224
I123
sS'neymar'
p2225
I124
sS'prepare'
p2226
I123
sS'area'
p2227
I123
sS'stoppage'
p2228
I124
sS'lol'
p2229
I44
sS'los'
p2230
I123
sS'cats'
p2231
I122
sS'800-588-2300'
p2232
I124
sS'stars'
p2233
I122
sS'teamwork'
p2234
I124
sS'allergic'
p2235
I124
sS'drains'
p2236
I124
sS'ealier'
p2237
I124
sS'smuggling'
p2238
I124
sS'pitcher'
p2239
I122
sS'you"'
p2240
I121
sS'trying'
p2241
I102
sS'copied'
p2242
I124
sS'toned'
p2243
I124
sS'5/6'
p2244
I124
sS'bucket'
p2245
I123
sS'mine\xe2\x99\xa1'
p2246
I124
sS'miguel'
p2247
I120
sS"rt's"
p2248
I124
sS"be.you're"
p2249
I124
sS'meansorry'
p2250
I124
sS'moved'
p2251
I124
sS'moves'
p2252
I124
sS'hospitals'
p2253
I124
sS'\xe2\x9c\x8f\xef\xb8\x8f'
p2254
I124
sS'no-hitter'
p2255
I124
sS'storage'
p2256
I123
sS'productively'
p2257
I123
sS'surreeeeee'
p2258
I124
sS'you'
p2259
I6
sS'(6443'
p2260
I124
sS'poor'
p2261
I121
sS'chicharito'
p2262
I124
sS'carpenter'
p2263
I124
sS'drive-through'
p2264
I124
sS'peak'
p2265
I124
sS'coverage'
p2266
I124
sS'pool'
p2267
I122
sS"bitch...i'm"
p2268
I124
sS'3-5'
p2269
I124
sS'yo"'
p2270
I124
sS'vines'
p2271
I120
sS'lipstick'
p2272
I124
sS'embracing'
p2273
I124
sS'cruisin'
p2274
I124
sS'digits/home'
p2275
I124
sS"k's"
p2276
I124
sS'messi'
p2277
I120
sS'month'
p2278
I119
sS'stop\xe2\x80\x9d'
p2279
I124
sS'shai\xe2\x80\x9dikr'
p2280
I124
sS'deadline'
p2281
I124
sS'asada'
p2282
I124
sS'referring'
p2283
I124
sS'everywhere'
p2284
I124
sS'moon."\xe2\x80\x9d'
p2285
I124
sS'danielle'
p2286
I119
sS'elias'
p2287
I116
sS'krispy'
p2288
I123
sS'demand...oh'
p2289
I124
sS'1pm'
p2290
I124
sS'very'
p2291
I119
sS'horror'
p2292
I124
sS'tweakin'
p2293
I124
sS'selfies'
p2294
I123
sS'verb'
p2295
I124
sS'decide'
p2296
I119
sS'heaven'
p2297
I122
sS"becky's"
p2298
I124
sS'steakhouse'
p2299
I119
sS'anal'
p2300
I124
sS"i'll"
p2301
I101
sS'raheem'
p2302
I124
sS'instagram'
p2303
I121
sS'streets'
p2304
I124
sS'1\xe2\x80\x9d'
p2305
I124
sS'drama,91303\n447438533251170305,str8fit,2014-03-22'
p2306
I124
sS'emotions'
p2307
I123
sS'yes.\xe2\x80\x9d'
p2308
I124
sS'withrow'
p2309
I124
sS'learned'
p2310
I123
sS"'preciate"
p2311
I124
sS'recruits'
p2312
I124
sS'loose'
p2313
I124
sS'modify'
p2314
I124
sS'venice'
p2315
I124
sS'answers'
p2316
I124
sS'maui'
p2317
I124
sS'tracks'
p2318
I124
sS'iraq'
p2319
I124
sS'ahead'
p2320
I121
sS'inspired'
p2321
I124
sS'losses'
p2322
I124
sS'creepy'
p2323
I124
sS'drawers'
p2324
I124
sS'amount'
p2325
I122
sS'arent'
p2326
I116
sS'uff\xe2\x80\x9d'
p2327
I124
sS'helps'
p2328
I122
sS'asf'
p2329
I123
sS'smoke?\xe2\x80\x9d'
p2330
I124
sS'goalies'
p2331
I123
sS'family'
p2332
I118
sS'(21:00)\xe2\x80\x9d'
p2333
I124
sS'put'
p2334
I112
sS'toys'
p2335
I124
sS'takes'
p2336
I114
sS'amaze'
p2337
I124
sS'headache\xe2\x80\x9d'
p2338
I124
sS'taken'
p2339
I123
sS'injury'
p2340
I123
sS'thrown'
p2341
I124
sS'yuck'
p2342
I123
sS'chyyynnaaa'
p2343
I124
sS'excuse'
p2344
I121
sS'broke'
p2345
I118
sS'hurry'
p2346
I123
sS'grill'
p2347
I124
sS'nina'
p2348
I124
sS'smurf'
p2349
I124
sS'me\xe2\x80\x9dand'
p2350
I123
sS'history'
p2351
I122
sS'hhu'
p2352
I124
sS'\xe2\x98\x95\xef\xb8\x8f'
p2353
I124
sS'23:06:09.0,34.19621418,-118.60625803,1351.11,visiting'
p2354
I124
sS'hhh'
p2355
I124
sS'hhn'
p2356
I123
sS'caption'
p2357
I123
sS'blurry\xe2\x80\x9di'
p2358
I124
sS'fr'
p2359
I122
sS'ft'
p2360
I119
sS'tried'
p2361
I120
sS'rude'
p2362
I124
sS'me....\xe2\x80\x9d'
p2363
I124
sS'sneak'
p2364
I123
sS'trien'
p2365
I124
sS'fb'
p2366
I124
sS'ff'
p2367
I124
sS'a'
p2368
I5
sS'4/6'
p2369
I124
sS'overnight'
p2370
I124
sS'anytime'
p2371
I122
sS'kirstie'
p2372
I124
sS'hobbit'
p2373
I124
sS'egg'
p2374
I124
sS'up\xe2\x80\x9d'
p2375
I123
sS'chicks'
p2376
I124
sS'help'
p2377
I117
sS'sooo'
p2378
I122
sS'soon'
p2379
I100
sS'bcuz'
p2380
I124
sS'bullpen'
p2381
I124
sS'hell'
p2382
I111
sS'mcdonalds'
p2383
I124
sS'fined'
p2384
I123
sS'actually'
p2385
I103
sS'>>>'
p2386
I124
sS'jers'
p2387
I124
sS'cutie'
p2388
I123
sS"haven't"
p2389
I119
sS'fool'
p2390
I123
sS'evening'
p2391
I123
sS'yo'
p2392
I109
sS'food'
p2393
I106
sS'cen'
p2394
I124
sS'ye'
p2395
I124
sS'reigning'
p2396
I124
sS'vomit'
p2397
I124
sS"you've"
p2398
I119
sS'foot'
p2399
I121
sS"united's"
p2400
I124
sS'intense\xe2\x80\x9dindeed'
p2401
I124
sS'payed'
p2402
I124
sS'stopped'
p2403
I123
sS"isn't"
p2404
I117
sS'referred'
p2405
I124
sS'flashbacks'
p2406
I124
sS'3/\\\xe2\x80\x9d'
p2407
I124
sS"bird!it's"
p2408
I124
sS'event'
p2409
I124
sS'<<<'
p2410
I122
sS'miss'
p2411
I97
sS'since'
p2412
I108
sS'hahhaahahhaha'
p2413
I124
sS'wolverine'
p2414
I124
sS'7'
p2415
I118
sS'gardener'
p2416
I124
sS'ass'
p2417
I74
sS'gt500'
p2418
I124
sS'earns'
p2419
I123
sS'dirt'
p2420
I123
sS'pug'
p2421
I124
sS'reason'
p2422
I120
sS'base'
p2423
I124
sS'brightest'
p2424
I124
sS"audi's"
p2425
I124
sS'dirk'
p2426
I124
sS'turnout'
p2427
I124
sS'opps'
p2428
I123
sS'drama/romance'
p2429
I124
sS'terrible'
p2430
I120
sS'terribly'
p2431
I124
sS'dis'
p2432
I124
sS'drooling'
p2433
I124
sS'prevent'
p2434
I124
sS'knocking'
p2435
I124
sS'arsenal'
p2436
I124
sS'fucked'
p2437
I115
sS'fantabulous'
p2438
I124
sS'mist'
p2439
I124
sS'loooooove'
p2440
I124
sS'maple'
p2441
I124
sS'eddy'
p2442
I124
sS'destroyedddd'
p2443
I124
sS'handshakes'
p2444
I124
sS'hundred'
p2445
I124
sS'private."\xe2\x80\x9dlol'
p2446
I124
sS'behind'
p2447
I123
sS"eminem's"
p2448
I124
sS'jordan'
p2449
I122
sS'albums'
p2450
I123
sS'cute\xe2\x80\x9d'
p2451
I124
sS'autumn'
p2452
I124
sS'caterpillar?"'
p2453
I124
sS'recovered'
p2454
I124
sS'toward'
p2455
I123
sS'ousted'
p2456
I123
sS'sentenced'
p2457
I124
sS'wasnt'
p2458
I119
sS'yeee'
p2459
I124
sS'lmaooooo'
p2460
I123
sS'juice'
p2461
I124
sS'organs'
p2462
I124
sS'option'
p2463
I123
sS'lie'
p2464
I120
sS'selfies...you'
p2465
I124
sS'lil'
p2466
I122
sS'trapped'
p2467
I124
sS'lit'
p2468
I124
sS'machado'
p2469
I122
sS'mx'
p2470
I124
sS'duuuh'
p2471
I124
sS'towards'
p2472
I123
sS'quote'
p2473
I118
sS'approves'
p2474
I124
sS'"everybody'
p2475
I124
sS"rt'ed"
p2476
I124
sS'watz'
p2477
I124
sS'kat'
p2478
I124
sS'5-0'
p2479
I123
sS'mobile'
p2480
I124
sS'clear'
p2481
I123
sS'clean'
p2482
I124
sS"robben's"
p2483
I123
sS'nigger."'
p2484
I124
sS'shoutout'
p2485
I124
sS'hips'
p2486
I124
sS'perseverance'
p2487
I123
sS'hyper'
p2488
I124
sS'ahahahahahahhh'
p2489
I124
sS'v10'
p2490
I124
sS'cheated"'
p2491
I124
sS'stunner'
p2492
I124
sS'3x3'
p2493
I124
sS'hyped'
p2494
I123
sS'duncan'
p2495
I124
sS'justice'
p2496
I123
sS'pretty'
p2497
I102
sS'3/\\'
p2498
I124
sS'meanwhile'
p2499
I124
sS'famous'
p2500
I124
sS'feels'
p2501
I118
sS'3/4'
p2502
I124
sS'pretending'
p2503
I124
sS'10:45'
p2504
I124
sS'during'
p2505
I119
sS'elf'
p2506
I124
sS'now..swear'
p2507
I124
sS'catches'
p2508
I123
sS'"close"'
p2509
I124
sS'x'
p2510
I121
sS'throwing'
p2511
I122
sS'dans'
p2512
I124
sS'mcgowan'
p2513
I124
sS'close'
p2514
I120
sS'angie'
p2515
I123
sS'pictures'
p2516
I107
sS'wow'
p2517
I98
sS'wop'
p2518
I124
sS'won'
p2519
I123
sS'dank'
p2520
I120
sS'conditions'
p2521
I124
sS'piss'
p2522
I123
sS'missing'
p2523
I120
sS'greinke'
p2524
I124
sS'unstoppable'
p2525
I124
sS'spray'
p2526
I124
sS'invisible'
p2527
I124
sS'league'
p2528
I122
sS'affion'
p2529
I124
sS'man...i'
p2530
I124
sS"wouldn't"
p2531
I123
sS'new..its'
p2532
I124
sS'sensitive'
p2533
I123
sS'boxers'
p2534
I124
sS'picture"'
p2535
I124
sS'liked'
p2536
I124
sS'oversleep'
p2537
I123
sS'headed'
p2538
I124
sS'whatever'
p2539
I122
sS'likes'
p2540
I123
sS'naps'
p2541
I124
sS'describes'
p2542
I124
sS'damn'
p2543
I110
sS'collected'
p2544
I124
sS'instructing'
p2545
I124
sS'delights'
p2546
I123
sS'lived'
p2547
I123
sS'else'
p2548
I112
sS'lives'
p2549
I124
sS'lool'
p2550
I124
sS'denpsey'
p2551
I124
sS'look'
p2552
I97
sS'fleek'
p2553
I124
sS'mumbling'
p2554
I124
sS'while'
p2555
I112
sS'smart'
p2556
I123
sS'bum....even'
p2557
I124
sS'loop'
p2558
I124
sS'pack'
p2559
I124
sS'smacked'
p2560
I124
sS'10000'
p2561
I123
sS'walkoff'
p2562
I124
sS'1000%'
p2563
I124
sS'skype'
p2564
I124
sS'ready'
p2565
I113
sS'shaq'
p2566
I124
sS'shat'
p2567
I124
sS'philly'
p2568
I124
sS'belong'
p2569
I122
sS'shab'
p2570
I124
sS'lol\xe2\x80\x9dyasssss'
p2571
I124
sS'grand'
p2572
I124
sS'coma*'
p2573
I124
sS'conflict'
p2574
I124
sS'used'
p2575
I114
sS'temporary'
p2576
I123
sS'3gs'
p2577
I124
sS'user'
p2578
I124
sS'good\xe2\x80\x9dthose'
p2579
I124
sS'arturo'
p2580
I124
sS'obviously'
p2581
I117
sS'"like'
p2582
I124
sS'hangs\xe2\x80\xa6'
p2583
I124
sS'praying'
p2584
I122
sS'procrastinating'
p2585
I123
sS'nikka'
p2586
I124
sS'soooooo'
p2587
I123
sS'girls\xe2\x80\x9d'
p2588
I124
sS'showing'
p2589
I122
sS'game'
p2590
I87
sS'"thanks'
p2591
I124
sS'"robben'
p2592
I124
sS'girl\xe2\x80\x9d'
p2593
I124
sS'translates'
p2594
I124
sS'popular'
p2595
I124
sS'parade'
p2596
I122
sS'fathers'
p2597
I124
sS'yolo'
p2598
I124
sS'some'
p2599
I62
sS'urgent'
p2600
I124
sS'lips'
p2601
I124
sS'mustang'
p2602
I124
sS'einstein'
p2603
I124
sS'(acoustic)'
p2604
I124
sS'ass...|rt'
p2605
I124
sS'bruhhh'
p2606
I124
sS'sweating'
p2607
I124
sS'run'
p2608
I112
sS'rub'
p2609
I123
sS'step'
p2610
I123
sS'power\xe2\x80\x9d'
p2611
I124
sS'become'
p2612
I121
sS'ache'
p2613
I124
sS'beautiful.,91303\n507600790895075329,gabiii_alc,2014-09-04'
p2614
I124
sS'offside'
p2615
I124
sS'2/6'
p2616
I124
sS'fosho'
p2617
I124
sS'fun\xe2\x80\x9d'
p2618
I124
sS'sake'
p2619
I124
sS'"yet"'
p2620
I124
sS'idk'
p2621
I114
sS'classics'
p2622
I124
sS'idc'
p2623
I116
sS'block'
p2624
I123
sS'seeing'
p2625
I118
sS'eaten'
p2626
I124
sS'visit'
p2627
I123
sS'within'
p2628
I123
sS'nonsense'
p2629
I124
sS"08:39:26.0,34.19487198,-118.60651016,1351.11,i'm"
p2630
I124
sS'rolls'
p2631
I124
sS'computer'
p2632
I123
sS'."'
p2633
I124
sS'heritage'
p2634
I124
sS'appearance\xe2\x80\x9dyessssss'
p2635
I124
sS'himself'
p2636
I123
sS'specialty'
p2637
I124
sS'reiterated'
p2638
I124
sS'larry'
p2639
I124
sS'reef'
p2640
I124
sS'branch'
p2641
I124
sS'pronoun>>>'
p2642
I124
sS'accustomed'
p2643
I124
sS'precalc'
p2644
I124
sS'chelsea'
p2645
I123
sS'00:44:22.0,34.190973,-118.606769,1351.11,i'
p2646
I124
sS'ordered'
p2647
I123
sS'kershaws'
p2648
I124
sS'sharing'
p2649
I124
sS'basterds'
p2650
I124
sS'cotton'
p2651
I124
sS'nah'
p2652
I109
sS'nap'
p2653
I119
sS'naw'
p2654
I124
sS'grind'
p2655
I123
sS'inglorious'
p2656
I124
sS'ooo'
p2657
I124
sS'theives\xe2\x80\x9d'
p2658
I124
sS'draw'
p2659
I124
sS"taylor's"
p2660
I124
sS'smiley'
p2661
I124
sS'5\'8"'
p2662
I124
sS'e'
p2663
I122
sS'youtube'
p2664
I123
sS'depth'
p2665
I124
sS'heats'
p2666
I124
sS'bribe'
p2667
I124
sS"she's"
p2668
I116
sS'underrated'
p2669
I124
sS'sounded'
p2670
I124
sS'desserts'
p2671
I124
sS'yassssssss'
p2672
I124
sS'gm'
p2673
I124
sS'tweeted'
p2674
I122
sS'mercer'
p2675
I124
sS'here\xe2\x80\x9di'
p2676
I124
sS'superpowered'
p2677
I124
sS'wear/prefer'
p2678
I124
sS'creative!!!!!\xe2\x80\x9d'
p2679
I124
sS'nose'
p2680
I121
sS'seager'
p2681
I123
sS'givenchy'
p2682
I124
sS'screwed'
p2683
I124
sS'maan'
p2684
I124
sS'facebook'
p2685
I122
sS'telling'
p2686
I123
sS'snuggle'
p2687
I124
sS'button'
p2688
I124
sS'michael'
p2689
I122
sS'ryan'
p2690
I123
sS'passtime'
p2691
I124
sS'sprouse'
p2692
I124
sS'deleting'
p2693
I124
sS'booty'
p2694
I106
sS'carter'
p2695
I124
sS'rudys'
p2696
I124
sS'waking'
p2697
I119
sS'jump'
p2698
I123
sS'blowing'
p2699
I124
sS'go'
p2700
I45
sS'download'
p2701
I123
sS'believes'
p2702
I124
sS'click'
p2703
I124
sS'sausage'
p2704
I124
sS'poke'
p2705
I124
sS'day?\xe2\x80\x9d'
p2706
I124
sS'referees'
p2707
I124
sS'commercial'
p2708
I124
sS'eminem'
p2709
I121
sS'weirdo'
p2710
I124
sS're-run'
p2711
I124
sS'ryuth'
p2712
I124
sS'breakimg'
p2713
I124
sS'micah'
p2714
I123
sS'chant'
p2715
I124
sS'uptight'
p2716
I123
sS'12am'
p2717
I123
sS"weren't"
p2718
I124
sS'18:51:48.0,34.19464655,-118.6062857,1351.11,the'
p2719
I124
sS'bernab\xc3\xa9u'
p2720
I124
sS'4.7"'
p2721
I124
sS'danger'
p2722
I124
sS'pitch'
p2723
I124
sS'win'
p2724
I114
sS'manage'
p2725
I124
sS'party,91303\n488161024424427520,andrewnab,2014-07-13'
p2726
I124
sS'wit'
p2727
I118
sS'singing'
p2728
I123
sS'unneccesary'
p2729
I124
sS'snoop'
p2730
I121
sS'hudson'
p2731
I122
sS'cray'
p2732
I123
sS'camera'
p2733
I121
sS'coldplay'
p2734
I124
sS'1/6'
p2735
I124
sS'1/3'
p2736
I124
sS'1/2'
p2737
I122
sS'started'
p2738
I108
sS'becomes'
p2739
I124
sS'econ'
p2740
I124
sS'confused'
p2741
I124
sS'starter'
p2742
I124
sS'meen'
p2743
I124
sS'salad'
p2744
I123
sS'ride'
p2745
I118
sS'meet'
p2746
I120
sS'drops'
p2747
I122
sS'averages'
p2748
I124
sS'control'
p2749
I124
sS'raybans'
p2750
I124
sS'kenny'
p2751
I124
sS'waaaay'
p2752
I124
sS'halloween'
p2753
I122
sS'pulling'
p2754
I122
sS'wonderful'
p2755
I124
sS'vibl'
p2756
I124
sS"carey's"
p2757
I124
sS'arrangement'
p2758
I124
sS'"real'
p2759
I124
sS'blasian'
p2760
I124
sS'fouled'
p2761
I124
sS'stolen...oh'
p2762
I124
sS'womb'
p2763
I124
sS'idiot.\xe2\x80\x9d'
p2764
I124
sS'bae-less'
p2765
I124
sS'jail"'
p2766
I124
sS'bathing'
p2767
I124
sS'g\xc3\xb6tze'
p2768
I124
sS'soulchild'
p2769
I124
sS'ovapriced'
p2770
I124
sS"won't"
p2771
I114
sS'costume'
p2772
I124
sS'hahahahhahahaha'
p2773
I123
sS'batmobile'
p2774
I124
sS'blake'
p2775
I123
sS'kwesiland'
p2776
I124
sS'[pic]'
p2777
I123
sS"guysc6h1206glucoseit's"
p2778
I124
sS'twerkin'
p2779
I124
sS"tattoo's"
p2780
I124
sS'\xd8\xac\xd9\x85\xd8\xa7\xd8\xb9\xd8\xa9,91303\n431607482343895040,itswillharrison,2014-02-07'
p2781
I124
sS'hands'
p2782
I122
sS'front'
p2783
I122
sS'world...and'
p2784
I124
sS'mastery'
p2785
I124
sS'guard'
p2786
I124
sS'savannahs'
p2787
I124
sS'nationals'
p2788
I123
sS'|'
p2789
I123
sS'upward'
p2790
I124
sS'seniors'
p2791
I123
sS'rojas'
p2792
I123
sS'lololololol'
p2793
I124
sS'special'
p2794
I121
sS'secretly'
p2795
I124
sS'(topanga'
p2796
I82
sS'look-->'
p2797
I124
sS'ricky'
p2798
I123
sS'cause'
p2799
I112
sS'time"'
p2800
I124
sS"one's"
p2801
I124
sS'torres'
p2802
I123
sS'hahahahhahaa'
p2803
I124
sS'copys'
p2804
I124
sS'attending'
p2805
I124
sS'completely'
p2806
I123
sS'princess'
p2807
I124
sS'ask'
p2808
I116
sS'times'
p2809
I107
sS'keek'
p2810
I124
sS'margaritas'
p2811
I124
sS'xposed'
p2812
I124
sS'powerful'
p2813
I123
sS'cardiac'
p2814
I124
sS'suya'
p2815
I124
sS'warcraft'
p2816
I124
sS'bitch'
p2817
I102
sS'quality'
p2818
I124
sS"you're"
p2819
I52
sS'playlist'
p2820
I123
sS'bears'
p2821
I124
sS'filthy'
p2822
I124
sS'attack'
p2823
I123
sS'prouder'
p2824
I124
sS'perfectly'
p2825
I124
sS'final'
p2826
I120
sS'2-3'
p2827
I124
sS'malibu'
p2828
I121
sS'lighters'
p2829
I124
sS'dtla'
p2830
I124
sS'exactly'
p2831
I113
sS"that'll"
p2832
I124
sS'herself'
p2833
I124
sS'outline'
p2834
I124
sS'latino/a'
p2835
I124
sS'ben'
p2836
I124
sS'beg'
p2837
I124
sS'bed'
p2838
I83
sS'bet'
p2839
I122
sS'"styrofoam"'
p2840
I124
sS'\xe2\x99\x8d\xef\xb8\x8f'
p2841
I124
sS'minds\xe2\x80\x9d'
p2842
I124
sS'need'
p2843
I64
sS'screw'
p2844
I122
sS'microphone'
p2845
I124
sS'stonefire'
p2846
I124
sS'selco'
p2847
I124
sS'able'
p2848
I120
sS'relatives'
p2849
I124
sS'tinashe'
p2850
I124
sS'truck'
p2851
I124
sS'coke'
p2852
I123
sS'lectures'
p2853
I124
sS'aww'
p2854
I120
sS'camper'
p2855
I124
sS'intentions'
p2856
I124
sS'awk'
p2857
I124
sS'awh'
p2858
I124
sS'awe'
p2859
I124
sS'1995'
p2860
I124
sS'________?\xe2\x80\x9d'
p2861
I124
sS'impression'
p2862
I124
sS"snoop...that's"
p2863
I124
sS'summer""um'
p2864
I124
sS'anyway'
p2865
I123
sS'lmao\xe2\x80\x9d'
p2866
I124
sS'hiiiits'
p2867
I124
sS'ayee'
p2868
I124
sS'envy'
p2869
I124
sS'based'
p2870
I123
sS'tire'
p2871
I124
sS'('
p2872
I123
sS'winner'
p2873
I124
sS'dedication...this'
p2874
I124
sS'bases'
p2875
I124
sS'fuel'
p2876
I124
sS'latinos'
p2877
I124
sS'tbt'
p2878
I124
sS'joint'
p2879
I124
sS'probably'
p2880
I107
sS'129'
p2881
I124
sS'endless'
p2882
I124
sS'trucks'
p2883
I124
sS'course'
p2884
I117
sS'numerous'
p2885
I124
sS'tuned'
p2886
I121
sS'she'
p2887
I84
sS'grab'
p2888
I124
sS'preach'
p2889
I124
sS'prayers'
p2890
I124
sS'shake'
p2891
I124
sS'calloway'
p2892
I124
sS'freeze'
p2893
I124
sS'accused'
p2894
I124
sS'laughed\xe2\x80\x9d'
p2895
I124
sS'desperate'
p2896
I124
sS'luckiest'
p2897
I124
sS'stats'
p2898
I122
sS'written'
p2899
I123
sS'correctly'
p2900
I123
sS'horrible'
p2901
I122
sS'flicks'
p2902
I124
sS'mind"'
p2903
I124
sS'brazil!!!!!!\xe2\x80\x9d'
p2904
I124
sS'nayrys'
p2905
I123
sS'kicking'
p2906
I120
sS'keep.and'
p2907
I124
sS'police'
p2908
I124
sS'kep'
p2909
I124
sS'hits'
p2910
I122
sS'career'
p2911
I122
sS'minds'
p2912
I124
sS'admit'
p2913
I123
sS'thang'
p2914
I124
sS'...went'
p2915
I124
sS'spandex'
p2916
I123
sS'tuesday'
p2917
I122
sS'tulo'
p2918
I124
sS'gotze'
p2919
I123
sS'quit'
p2920
I122
sS'act?maybe'
p2921
I124
sS'die\xe2\x80\x9d'
p2922
I124
sS'yas'
p2923
I124
sS'yan'
p2924
I124
sS'shneaky'
p2925
I123
sS'yah'
p2926
I123
sS":'-)\xe2\x80\x9d"
p2927
I124
sS'shoulders'
p2928
I124
sS'both'
p2929
I119
sS'-.-'
p2930
I123
sS'kicks'
p2931
I123
sS'smoking'
p2932
I124
sS'harder'
p2933
I124
sS'limbo'
p2934
I124
sS'"lets'
p2935
I124
sS"'67"
p2936
I124
sS"'64"
p2937
I124
sS'lambo'
p2938
I124
sS'demo'
p2939
I124
sS'surface'
p2940
I124
sS'bucks'
p2941
I120
sS'capture'
p2942
I124
sS'began'
p2943
I124
sS'jb*no'
p2944
I124
sS'parts'
p2945
I122
sS'party'
p2946
I106
sS'you"bae'
p2947
I124
sS'1-3'
p2948
I124
sS'forgotten'
p2949
I124
sS'effect'
p2950
I124
sS'//'
p2951
I124
sS'paycheck'
p2952
I124
sS'suga'
p2953
I124
sS'i'
p2954
I1
sS'well'
p2955
I89
sS'welp'
p2956
I123
sS'amends'
p2957
I124
sS'boring\xe2\x80\x9d'
p2958
I124
sS'cuck'
p2959
I124
sS'mistaken'
p2960
I124
sS'i\xe2\x9d\xa4bf'
p2961
I124
sS'sources'
p2962
I124
sS'distant'
p2963
I123
sS'50v10\xe2\x80\x9d'
p2964
I124
sS'skill'
p2965
I123
sS'lauren'
p2966
I123
sS'voice)"'
p2967
I124
sS'hackers'
p2968
I124
sS'vida'
p2969
I124
sS'bullshit'
p2970
I120
sS'riverside'
p2971
I123
sS'kick'
p2972
I123
sS'twitter"\xe2\x80\x9d'
p2973
I124
sS'livin'
p2974
I124
sS'pero'
p2975
I123
sS'5am'
p2976
I123
sS'loss'
p2977
I122
sS'lost'
p2978
I119
sS'stop\xe2\x80\x9dno'
p2979
I124
sS'saget'
p2980
I124
sS'fernando'
p2981
I122
sS'candy'
p2982
I122
sS'sized'
p2983
I124
sS'lose'
p2984
I116
sS'fleak'
p2985
I124
sS'page'
p2986
I124
sS'shed'
p2987
I124
sS'shen'
p2988
I124
sS'twitter'
p2989
I105
sS'library'
p2990
I123
sS'hush'
p2991
I123
sS'repeat'
p2992
I124
sS'shes'
p2993
I124
sS'cleveland'
p2994
I124
sS'home'
p2995
I93
sS'do....if'
p2996
I124
sS'away\xe2\x80\x9d'
p2997
I124
sS'balboa'
p2998
I123
sS'journal'
p2999
I123
sS'poignant'
p3000
I124
sS'empty'
p3001
I122
sS'beige'
p3002
I124
sS'tongue'
p3003
I124
sS'h8'
p3004
I124
sS'couldnt'
p3005
I120
sS'strategy'
p3006
I124
sS'pointless'
p3007
I123
sS',91303\n461629120867094528,ashhhhanne,2014-04-30'
p3008
I124
sS'noticed'
p3009
I124
sS'drumstick'
p3010
I124
sS'north'
p3011
I124
sS'hr'
p3012
I124
sS'hw'
p3013
I118
sS'forreal'
p3014
I124
sS'hi'
p3015
I120
sS'goals'
p3016
I122
sS'didnt'
p3017
I99
sS'highest'
p3018
I124
sS'eat'
p3019
I105
sS'he'
p3020
I51
sS'e-40'
p3021
I124
sS'cruel'
p3022
I124
sS'limit'
p3023
I124
sS'mazerunner'
p3024
I124
sS'2:30lay'
p3025
I124
sS'piece'
p3026
I124
sS"bella's"
p3027
I124
sS'kisses'
p3028
I124
sS'upsets'
p3029
I124
sS'erin'
p3030
I124
sS'rumors'
p3031
I123
sS'contest'
p3032
I121
sS'360my'
p3033
I124
sS'ahhahaha'
p3034
I124
sS'talkin'
p3035
I122
sS'hahahahhahahahahahhahahahahha'
p3036
I124
sS'star'
p3037
I122
sS'nyce'
p3038
I124
sS'friends'
p3039
I106
sS'devour'
p3040
I124
sS"demonsi've"
p3041
I124
sS'assssssssssssssssssssss'
p3042
I124
sS'bruisin'
p3043
I124
sS'6pm'
p3044
I123
sS'swag'
p3045
I123
sS'guerrero'
p3046
I123
sS'up*'
p3047
I124
sS'buddy'
p3048
I121
sS'up"'
p3049
I124
sS'on..\xe2\x80\x9d'
p3050
I124
sS'sorry'
p3051
I119
sS'onstage'
p3052
I124
sS'updated'
p3053
I124
sS'cruising'
p3054
I124
sS'stalkers'
p3055
I124
sS'high/low'
p3056
I124
sS'vast'
p3057
I124
sS'fhg'
p3058
I124
sS'steps\xe2\x80\x9d'
p3059
I124
sS'solution'
p3060
I123
sS'vice\xe2\x80\x9d'
p3061
I124
sS'heading'
p3062
I124
sS'clothes'
p3063
I122
sS'force'
p3064
I124
sS'me"'
p3065
I123
sS'me)'
p3066
I124
sS'japanese'
p3067
I124
sS'10x'
p3068
I124
sS'hibernate'
p3069
I124
sS'cactus'
p3070
I124
sS'even'
p3071
I68
sS"tonight's"
p3072
I119
sS'enchiladas'
p3073
I123
sS'jaeger'
p3074
I124
sS'f*ck'
p3075
I124
sS'lights'
p3076
I122
sS'h&m'
p3077
I124
sS'new'
p3078
I101
sS'ever'
p3079
I88
sS'mamas'
p3080
I122
sS'pancakes'
p3081
I124
sS'never'
p3082
I88
sS'meh'
p3083
I124
sS'drew'
p3084
I123
sS'met'
p3085
I121
sS"aren't"
p3086
I119
sS'105'
p3087
I124
sS'dry'
p3088
I121
sS'sleep|rt'
p3089
I124
sS'piercing'
p3090
I124
sS'beentrying'
p3091
I124
sS'groupchat'
p3092
I124
sS"someone's"
p3093
I123
sS'9/11.so'
p3094
I124
sS'eyebrows'
p3095
I122
sS'exception('
p3096
I124
sS'armz'
p3097
I124
sS'arms'
p3098
I123
sS'cali'
p3099
I118
sS'call'
p3100
I103
sS'calm'
p3101
I123
sS'typo'
p3102
I124
sS'calc'
p3103
I124
sS'type'
p3104
I117
sS'tell'
p3105
I93
sS'posting'
p3106
I123
sS'lungs'
p3107
I124
sS'homosexually'
p3108
I124
sS"5'9"
p3109
I124
sS'warm'
p3110
I124
sS'adult'
p3111
I123
sS"5'2"
p3112
I124
sS"5'4"
p3113
I124
sS'room'
p3114
I106
sS'gasolina'
p3115
I124
sS'roof'
p3116
I124
sS'movies'
p3117
I116
sS'times.\xe2\x80\x9d'
p3118
I124
sS'root'
p3119
I123
sS'give'
p3120
I104
sS'hosstyle\xc2\xbf'
p3121
I124
sS'honey'
p3122
I123
sS'foods'
p3123
I123
sS'homie'
p3124
I121
sS'"chill"'
p3125
I124
sS'asian?"me'
p3126
I124
sS'the\xe2\x80\xa6'
p3127
I124
sS'amazing'
p3128
I106
sS'edgy'
p3129
I124
sS'answer'
p3130
I120
sS'massive'
p3131
I123
sS'becky'
p3132
I123
sS"justice's"
p3133
I124
sS'replacing'
p3134
I124
sS'ova'
p3135
I124
sS'president'
p3136
I124
sS'20/20'
p3137
I124
sS'royce'
p3138
I124
sS'purchase'
p3139
I124
sS'anymore'
p3140
I115
sS'haha\xe2\x80\x9dits'
p3141
I124
sS'aaand'
p3142
I124
sS'goodbye'
p3143
I122
sS'athletes'
p3144
I124
sS'fifa'
p3145
I118
sS'banger'
p3146
I124
sS"months.\xe2\x80\x9dyou're"
p3147
I124
sS'deck'
p3148
I124
sS'too,91303\n506188597922656259,altoouni,2014-08-31'
p3149
I124
sS'room**turns'
p3150
I124
sS'before'
p3151
I99
sS'scoring'
p3152
I124
sS'shelf\xe2\x80\x9di'
p3153
I124
sS'chihuahua'
p3154
I124
sS'better'
p3155
I93
sS'cooperstown'
p3156
I124
sS'happy\xe2\x80\x9d'
p3157
I124
sS'weeks'
p3158
I119
sS'overcome'
p3159
I124
sS'weakness'
p3160
I123
sS'workout'
p3161
I120
sS'peoples'
p3162
I124
sS'\xe2\x98\xba\xef\xb8\x8f'
p3163
I119
sS'week*'
p3164
I124
sS'meat'
p3165
I124
sS'sleepless'
p3166
I124
sS'lucy'
p3167
I123
sS'thenx'
p3168
I124
sS"doctor's"
p3169
I124
sS'went'
p3170
I109
sS'side'
p3171
I116
sS'mean'
p3172
I105
sS'liga'
p3173
I124
sS'gunna'
p3174
I123
sS'cume'
p3175
I124
sS'taught'
p3176
I124
sS'trading'
p3177
I122
sS'throwback/'
p3178
I124
sS'forgot'
p3179
I111
sS'scoreless'
p3180
I123
sS'chyaa\xe2\x80\x9di'
p3181
I124
sS'open'
p3182
I117
sS'crucial'
p3183
I123
sS'content'
p3184
I124
sS'werehello'
p3185
I124
sS'revolving'
p3186
I124
sS'turning'
p3187
I123
sS'cutest'
p3188
I124
sS'resume'
p3189
I124
sS'struggle'
p3190
I122
sS'hoodie'
p3191
I123
sS'calculator'
p3192
I123
sS'starts'
p3193
I120
sS'shush'
p3194
I124
sS'enough\xe2\x80\x9d'
p3195
I124
sS'ayyyee,91303\n518851817233731584,philsmaster11,2014-10-05'
p3196
I124
sS'loud'
p3197
I123
sS'fuckin'
p3198
I119
sS'cleaning'
p3199
I123
sS'anytging'
p3200
I124
sS'features'
p3201
I124
sS'grade'
p3202
I120
sS'nudesjennifer'
p3203
I124
sS'hook'
p3204
I122
sS'hood'
p3205
I123
sS'spinach'
p3206
I124
sS'concussion'
p3207
I124
sS'girls'
p3208
I113
sS'twisted'
p3209
I124
sS'interlude'
p3210
I124
sS'-to'
p3211
I124
sS'sassiest'
p3212
I124
sS'gym'
p3213
I118
sS'trippy'
p3214
I120
sS'is\xe2\x80\x9d'
p3215
I124
sS'boarding'
p3216
I124
sS'anxiety'
p3217
I120
sS'preparation'
p3218
I123
sS'matter'
p3219
I121
sS'silly'
p3220
I124
sS'girl"'
p3221
I124
sS'mini'
p3222
I124
sS'mina'
p3223
I122
sS'modern'
p3224
I124
sS'mind'
p3225
I110
sS'mine'
p3226
I114
sS'ginger'
p3227
I123
sS'anybody'
p3228
I122
sS'seen'
p3229
I114
sS'seem'
p3230
I123
sS'mins'
p3231
I112
sS'mint'
p3232
I124
sS'tells'
p3233
I123
sS'others)'
p3234
I124
sS'chest'
p3235
I124
sS"nikki's"
p3236
I124
sS'niece'
p3237
I124
sS'illusionist'
p3238
I124
sS'regular'
p3239
I123
sS'"there'
p3240
I124
sS'too\xe2\x80\x9d'
p3241
I124
sS'special.|rt'
p3242
I124
sS'don'
p3243
I124
sS'observation'
p3244
I124
sS'alarm'
p3245
I122
sS'm'
p3246
I122
sS'dog'
p3247
I101
sS'doe'
p3248
I122
sS'definitely'
p3249
I110
sS'reallllll'
p3250
I124
sS'hotdog'
p3251
I123
sS'annoyed'
p3252
I123
sS'hunger'
p3253
I124
sS'retire'
p3254
I123
sS'ending'
p3255
I124
sS'sneaking'
p3256
I123
sS'parang'
p3257
I124
sS'powerpuff'
p3258
I124
sS'explain'
p3259
I122
sS'sugar'
p3260
I123
sS'timbs\xe2\x80\x9d'
p3261
I124
sS'stabbing'
p3262
I124
sS'folks'
p3263
I124
sS'gangsta'
p3264
I123
sS'wearing'
p3265
I119
sS'monica'
p3266
I122
sS'stop'
p3267
I96
sS'coast'
p3268
I124
sS'bat'
p3269
I124
sS'bar'
p3270
I120
sS'17'
p3271
I121
sS'bay'
p3272
I124
sS'bag'
p3273
I124
sS'bad'
p3274
I100
sS'bae'
p3275
I92
sS'ooohh'
p3276
I124
sS'shuld'
p3277
I123
sS'ears'
p3278
I124
sS"23:18:53.0,34.18819788,-118.60623726,1351.11,i'm"
p3279
I124
sS'reference'
p3280
I124
sS'testing'
p3281
I124
sS'decided'
p3282
I121
sS'brazil'
p3283
I118
sS'said'
p3284
I91
sS'rapping>\xe2\x80\x9d'
p3285
I124
sS'shaved'
p3286
I124
sS'hhahahahahahahah'
p3287
I124
sS'malco'
p3288
I124
sS'lazy'
p3289
I121
sS'omg'
p3290
I96
sS'wears'
p3291
I123
sS'dumber'
p3292
I123
sS'slowpoke'
p3293
I124
sS'ignorance'
p3294
I124
sS'gotts'
p3295
I124
sS'cousin'
p3296
I124
sS'motto'
p3297
I124
sS'against'
p3298
I119
sS'cuddles'
p3299
I124
sS'una'
p3300
I124
sS'height'
p3301
I123
sS'yaaa'
p3302
I124
sS'loaded'
p3303
I124
sS'stove....i'
p3304
I124
sS'sowwwyy'
p3305
I124
sS'evening...but'
p3306
I124
sS'basis'
p3307
I124
sS'strict\xe2\x80\x9d'
p3308
I124
sS'three'
p3309
I120
sS'tina'
p3310
I124
sS'tink'
p3311
I124
sS"chillin'"
p3312
I123
sS'threw'
p3313
I123
sS'you,91303\n467163872017666049,axelll23,2014-05-16'
p3314
I124
sS'chug'
p3315
I124
sS'mcm'
p3316
I124
sS'yessssss'
p3317
I124
sS'back..right'
p3318
I124
sS'together\xe2\x80\x9d'
p3319
I124
sS'sunshine'
p3320
I124
sS'sooooo'
p3321
I123
sS'chuu'
p3322
I124
sS'169'
p3323
I124
sS'personally'
p3324
I123
sS'gracias'
p3325
I124
sS'tank'
p3326
I121
sS'sly'
p3327
I124
sS'say'
p3328
I89
sS'ugly'
p3329
I114
sS'near'
p3330
I124
sS'suppose'
p3331
I123
sS'itinerary'
p3332
I124
sS'678-999-8212'
p3333
I124
sS'chilling'
p3334
I124
sS'unclear.\xe2\x80\x9dlord'
p3335
I124
sS'iz'
p3336
I124
sS'mexico'
p3337
I103
sS'naming'
p3338
I124
sS'is'
p3339
I9
sS'sushi'
p3340
I124
sS'it'
p3341
I11
sS'ii'
p3342
I124
sS'shame'
p3343
I122
sS'ik'
p3344
I124
sS'im'
p3345
I33
sS'in'
p3346
I10
sS'seattle'
p3347
I124
sS'id'
p3348
I123
sS'ig'
p3349
I123
sS'if'
p3350
I30
sS'grown'
p3351
I123
sS'bottles'
p3352
I124
sS'people\xe2\x80\x9dbruh'
p3353
I124
sS'lmaoooooo'
p3354
I123
sS'make'
p3355
I74
sS'polaroid'
p3356
I123
sS'just....he'
p3357
I124
sS'potentially'
p3358
I124
sS'hahah'
p3359
I124
sS'i2'
p3360
I124
sS'palacio'
p3361
I123
sS'kik'
p3362
I124
sS'end!!!\xe2\x80\x9d'
p3363
I124
sS'kim'
p3364
I124
sS'jealous'
p3365
I120
sS'opportunity'
p3366
I121
sS"he'll"
p3367
I124
sS'thoughts'
p3368
I124
sS'kid'
p3369
I115
sS'butter'
p3370
I124
sS'2007\xe2\x80\x9d'
p3371
I124
sS'practiced'
p3372
I123
sS'bell)'
p3373
I124
sS'youre'
p3374
I119
sS'pandora'
p3375
I122
sS'school?"gee'
p3376
I124
sS'yours'
p3377
I122
sS'left'
p3378
I112
sS'juss'
p3379
I123
sS'just'
p3380
I20
sS'trilled'
p3381
I124
sS'yea'
p3382
I100
sS'||'
p3383
I113
sS'unfair'
p3384
I124
sS'psych'
p3385
I124
sS'human'
p3386
I120
sS'yep'
p3387
I124
sS'yes'
p3388
I104
sS'yet'
p3389
I115
sS"agon's"
p3390
I124
sS'candidate'
p3391
I124
sS'wings'
p3392
I123
sS'jules'
p3393
I124
sS'save'
p3394
I119
sS'now\xe2\x80\x9dikr'
p3395
I124
sS'ops'
p3396
I123
sS'3pm'
p3397
I124
sS'commentate'
p3398
I124
sS'dreams'
p3399
I124
sS'shoulder'
p3400
I124
sS'nude'
p3401
I124
sS'manual'
p3402
I124
sS'unnecessary'
p3403
I123
sS'zombies'
p3404
I123
sS'"bae"'
p3405
I124
sS'deal'
p3406
I116
sS'somehow'
p3407
I123
sS'dead'
p3408
I120
sS'wwe'
p3409
I124
sS'poolside'
p3410
I121
sS'dear'
p3411
I123
sS'a\xe2\x80\xa6'
p3412
I124
sS'arguing'
p3413
I123
sS'bolt'
p3414
I123
sS":')\xe2\x80\x9d"
p3415
I124
sS'super'
p3416
I122
sS'yelling'
p3417
I124
sS'ribs'
p3418
I124
sS'flourishes'
p3419
I124
sS'afternoon'
p3420
I124
sS'automatically'
p3421
I123
sS'whats'
p3422
I108
sS'subs'
p3423
I123
sS'liek'
p3424
I124
sS'selfie'
p3425
I120
sS'intellectual'
p3426
I124
sS'chooses'
p3427
I124
sS'down'
p3428
I92
sS'lies'
p3429
I124
sS'up,91303\n476491106406768641,axelll23,2014-06-10'
p3430
I124
sS'carving'
p3431
I124
sS'liez'
p3432
I124
sS'saturdays'
p3433
I124
sS'tennis'
p3434
I124
sS'jealousy'
p3435
I123
sS'alread'
p3436
I124
sS'"nasty"'
p3437
I124
sS'form'
p3438
I124
sS'landing'
p3439
I124
sS'ford'
p3440
I124
sS'no,91303\n509551291107127296,desireeblaanco,2014-09-10'
p3441
I124
sS'failure'
p3442
I124
sS'"well'
p3443
I124
sS'temped'
p3444
I124
sS"'acting"
p3445
I124
sS'centipede'
p3446
I124
sS'wake.i'
p3447
I124
sS'daddy'
p3448
I120
sS'homieless'
p3449
I124
sS'sticks'
p3450
I124
sS'classic'
p3451
I123
sS'sale'
p3452
I122
sS'night...i'
p3453
I124
sS'shit'
p3454
I62
sS'graduatetoo'
p3455
I124
sS'tarde'
p3456
I124
sS'handed'
p3457
I124
sS'digital'
p3458
I124
sS'sleep.\xe2\x80\x9d'
p3459
I124
sS'felt'
p3460
I121
sS'diet'
p3461
I124
sS'woooooorld'
p3462
I124
sS'hahahahahaa'
p3463
I124
sS'fell'
p3464
I122
sS'diem'
p3465
I124
sS'weekend'
p3466
I115
sS'died'
p3467
I122
sS'babysitting'
p3468
I124
sS'happening'
p3469
I122
sS'8-5.\xe2\x80\x9dyou'
p3470
I124
sS'potato'
p3471
I122
sS'assume'
p3472
I124
sS'argueably'
p3473
I124
sS'topanga'
p3474
I94
sS'teeth'
p3475
I124
sS'befriend'
p3476
I124
sS"fleming's"
p3477
I120
sS'skin'
p3478
I123
sS'playoffs'
p3479
I124
sS'milk'
p3480
I121
sS'(b-side)'
p3481
I124
sS'disgusting'
p3482
I122
sS'blocking'
p3483
I124
sS'countdown'
p3484
I124
sS'0'
p3485
I124
sS'finally'
p3486
I107
sS'swoop'
p3487
I122
sS'myles'
p3488
I124
sS'string'
p3489
I124
sS'tacos'
p3490
I124
sS'oyyy'
p3491
I124
sS'lynch'
p3492
I124
sS'ma'
p3493
I123
sS'did'
p3494
I81
sS'die'
p3495
I118
sS'accidentally'
p3496
I124
sS'chill?"\xe2\x80\x9d'
p3497
I124
sS'specials'
p3498
I124
sS'dix'
p3499
I124
sS'round'
p3500
I119
sS"it'll"
p3501
I123
sS'shave'
p3502
I124
sS'talked'
p3503
I124
sS'***virgo'
p3504
I124
sS'dealing'
p3505
I124
sS'____'
p3506
I124
sS'6:19'
p3507
I124
sS'eating'
p3508
I117
sS'hell...my'
p3509
I124
sS'*mom'
p3510
I124
sS'international'
p3511
I124
sS'palmer'
p3512
I124
sS'bandwagon'
p3513
I124
sS'makeup'
p3514
I124
sS'french'
p3515
I122
sS'slow'
p3516
I123
sS"girlfriend?that's"
p3517
I124
sS'laughin'
p3518
I124
sS'earthquake'
p3519
I121
sS'wait'
p3520
I96
sS'boy'
p3521
I112
sS'shift'
p3522
I123
sS'strudel'
p3523
I124
sS'bow'
p3524
I124
sS'boi'
p3525
I121
sS'smyly'
p3526
I124
sS'boo'
p3527
I122
sS'bob'
p3528
I123
sS'massage'
p3529
I124
sS'teenage'
p3530
I124
sS'verga'
p3531
I124
sS'fam\xe2\x80\x9d'
p3532
I124
sS'pitchers'
p3533
I121
sS'everybody'
p3534
I122
sS'perf'
p3535
I123
sS'baes'
p3536
I122
sS'aye'
p3537
I122
sS'dude'
p3538
I82
sS'france'
p3539
I124
sS'ayy'
p3540
I123
sS'ahhh'
p3541
I124
sS'thru'
p3542
I120
sS'--->'
p3543
I124
sS'acceptable'
p3544
I124
sS'lifeguru'
p3545
I121
sS'effort'
p3546
I124
sS'wouldnt'
p3547
I118
sS"21:34:27.0,34.19487198,-118.60651016,1351.11,i'm"
p3548
I124
sS'flu'
p3549
I124
sS'soul'
p3550
I120
sS'sour'
p3551
I124
sS'9th'
p3552
I124
sS'growing'
p3553
I123
sS'making'
p3554
I114
sS'crazy'
p3555
I115
sS'uruguay'
p3556
I124
sS'fuck'
p3557
I47
sS"arsonist's"
p3558
I124
sS'pink'
p3559
I124
sS'awwww'
p3560
I124
sS'rays'
p3561
I122
sS'necklaces'
p3562
I124
sS'slyke'
p3563
I123
sS'till'
p3564
I116
sS'sunday'
p3565
I115
sS'pure'
p3566
I124
sS'map'
p3567
I124
sS'staying'
p3568
I123
sS'designer'
p3569
I123
sS'may'
p3570
I122
sS'max'
p3571
I124
sS'fed'
p3572
I124
sS'mac'
p3573
I124
sS'mad'
p3574
I122
sS'mah'
p3575
I123
sS'guys'
p3576
I95
sS'grow'
p3577
I122
sS'man'
p3578
I72
sS'noun'
p3579
I124
sS'neck'
p3580
I121
sS'maybe'
p3581
I110
sS'q'
p3582
I124
sS'switch'
p3583
I120
sS'jail'
p3584
I123
sS'deceive'
p3585
I124
sS'tall'
p3586
I121
sS"og's"
p3587
I124
sS'talk'
p3588
I107
sS'cute'
p3589
I102
sS'shoes'
p3590
I118
sS're-sign'
p3591
I124
sS'pointed'
p3592
I123
sS'hahhahahahahaha'
p3593
I124
sS'cuts'
p3594
I124
sS"natalie's"
p3595
I124
sS'group'
p3596
I121
sS'thank'
p3597
I103
sS'smoothie'
p3598
I121
sS'interesting'
p3599
I117
sS'grammatically'
p3600
I124
sS'thanx'
p3601
I123
sS'tweets'
p3602
I119
sS'tomorow'
p3603
I124
sS'main'
p3604
I124
sS'tucked'
p3605
I124
sS'bein'
p3606
I123
sS'killer'
p3607
I123
sS'hahahhahahaha'
p3608
I124
sS'sooner'
p3609
I124
sS'lunch'
p3610
I118
sS'touching'
p3611
I124
sS'killed'
p3612
I121
sS'gahahhahahhahahaa'
p3613
I124
sS'beating...lol!\xe2\x80\x9d'
p3614
I124
sS'girl'
p3615
I94
sS'gonzalez'
p3616
I124
sS'living'
p3617
I122
sS'jackson'
p3618
I124
sS'3rd'
p3619
I121
sS'stupid'
p3620
I118
sS'dutch'
p3621
I124
sS'dominate'
p3622
I124
sS'nudes'
p3623
I122
sS'correct'
p3624
I124
sS'lag'
p3625
I124
sS'spies'
p3626
I124
sS'yurn'
p3627
I124
sS'california'
p3628
I124
sS'vinyl'
p3629
I124
sS'underwear'
p3630
I124
sS'language'
p3631
I124
sS'question'
p3632
I122
sS'thing'
p3633
I90
sS'\xd9\x8a\xd9\x83\xd9\x84\xd9\x85\xd9\x86\xd9\x8a'
p3634
I124
sS'think'
p3635
I59
sS'waited'
p3636
I124
sS'first'
p3637
I93
sS'cheese'
p3638
I118
sS'crie'
p3639
I123
sS'crib'
p3640
I124
sS'eusebio!\xe2\x80\x9d'
p3641
I124
sS'fast'
p3642
I118
sS'carry'
p3643
I124
sS'sounds'
p3644
I116
sS'little'
p3645
I99
sS'slept'
p3646
I122
sS'ibrahimovic'
p3647
I124
sS'anyone'
p3648
I115
sS'speaking'
p3649
I123
sS'meme'
p3650
I124
sS'eyes'
p3651
I121
sS'memo'
p3652
I124
sS'jesus.\xe2\x80\x9dthis'
p3653
I124
sS'broadcast'
p3654
I123
sS'jethus'
p3655
I124
sS'mems'
p3656
I124
sS'butt'
p3657
I121
sS"here's"
p3658
I121
sS'11'
p3659
I124
sS'10'
p3660
I112
sS'13'
p3661
I123
sS'12'
p3662
I116
sS'15'
p3663
I121
sS'14'
p3664
I123
sS'sailing'
p3665
I124
sS'16'
p3666
I122
sS'19'
p3667
I124
sS'18'
p3668
I123
sS'gotta'
p3669
I113
sS'were'
p3670
I91
sS'1)'
p3671
I124
sS'kevin'
p3672
I124
sS'shocked'
p3673
I123
sS'squad'
p3674
I118
sS'interior'
p3675
I124
sS"m\xc3\x89xico!!!!!!!'nn"
p3676
I124
sS'pain'
p3677
I122
sS'theatre'
p3678
I124
sS'roster'
p3679
I124
sS'track'
p3680
I123
sS'cheesecake'
p3681
I124
sS'paid'
p3682
I124
sS'insanity'
p3683
I124
sS'skinner'
p3684
I124
sS'pair'
p3685
I121
sS'especially'
p3686
I121
sS'shop'
p3687
I123
sS'shot'
p3688
I118
sS'show'
p3689
I97
sS'outme'
p3690
I124
sS'kwon'
p3691
I123
sS'therapist'
p3692
I124
sS'shoe'
p3693
I124
sS'corner'
p3694
I123
sS'dick'
p3695
I120
sS'cheeseburger'
p3696
I124
sS'enough'
p3697
I117
sS'either'
p3698
I114
sS'black'
p3699
I110
sS'germs'
p3700
I124
sS'tamani'
p3701
I123
sS'get'
p3702
I31
sS'gea'
p3703
I124
sS'killers'
p3704
I124
sS'nearly'
p3705
I123
sS'*coughs'
p3706
I124
sS'gem'
p3707
I123
sS'calculator\xe2\x80\x9d'
p3708
I124
sS'morning'
p3709
I108
sS'01:47:14.0,34.18722195,-118.6059961,1351.11,want'
p3710
I124
sS'miles'
p3711
I124
sS'finishing'
p3712
I123
sS'honesty'
p3713
I124
sS'silence\xe2\x80\x9d'
p3714
I124
sS'seat'
p3715
I122
sS'lyfe'
p3716
I124
sS'wonder'
p3717
I114
sS'satisfying'
p3718
I124
sS'camping'
p3719
I123
sS',91303\n449682700887015425,carolina4810222,2014-03-28'
p3720
I124
sS'forecast'
p3721
I124
sS'montello'
p3722
I124
sS'willemina'
p3723
I124
sS'reading'
p3724
I114
sS'across'
p3725
I123
sS'date/'
p3726
I124
sS'tux'
p3727
I124
sS'u\xe2\x80\x9dples'
p3728
I124
sS'august'
p3729
I120
sS'killing'
p3730
I118
sS'invite'
p3731
I124
sS'jk'
p3732
I123
sS'smiled'
p3733
I124
sS'lopez'
p3734
I124
sS'dater'
p3735
I123
sS'dedicate'
p3736
I124
sS"**you're"
p3737
I124
sS'disappointment'
p3738
I124
sS'traded'
p3739
I122
sS'hippies.\xe2\x80\x9d'
p3740
I124
sS'cancer'
p3741
I123
sS'cla'
p3742
I124
sS'cancel'
p3743
I124
sS'comprehend'
p3744
I124
sS'considering'
p3745
I124
sS'"sugar"'
p3746
I124
sS'capable'
p3747
I124
sS'ucla'
p3748
I124
sS'mars'
p3749
I124
sS'mary'
p3750
I123
sS'shopping'
p3751
I116
sS'wake'
p3752
I114
sS'hardcore'
p3753
I124
sS'those'
p3754
I111
sS'sound'
p3755
I114
sS'predicament'
p3756
I124
sS'stackem'
p3757
I124
sS'cancelled'
p3758
I124
sS'margin'
p3759
I124
sS'bathe'
p3760
I124
sS"drake's"
p3761
I124
sS'rammed'
p3762
I124
sS'coffee'
p3763
I122
sS'sleeping'
p3764
I114
sS'middle'
p3765
I124
sS'finnaly'
p3766
I124
sS'protein'
p3767
I123
sS'everyday'
p3768
I118
sS'different'
p3769
I118
sS'doctor'
p3770
I124
sS'pay'
p3771
I121
sS'woodland'
p3772
I121
sS'same'
p3773
I89
sS'speech'
p3774
I123
sS'arguments'
p3775
I123
sS'struggling'
p3776
I123
sS'cchhhyaaa'
p3777
I124
sS'companion'
p3778
I124
sS'running'
p3779
I120
sS'totally'
p3780
I122
sS'solve'
p3781
I124
sS'bottle'
p3782
I121
sS'"friends"'
p3783
I124
sS'gates'
p3784
I124
sS'money'
p3785
I113
sS'pissing'
p3786
I124
sS"dm's"
p3787
I123
sS'dipped'
p3788
I124
sS'pups'
p3789
I123
sS'4'
p3790
I108
sS'hw\xe2\x80\x9d'
p3791
I124
sS'"only"'
p3792
I124
sS'admitting'
p3793
I124
sS'chainsaw'
p3794
I124
sS'mom'
p3795
I100
sS'mob'
p3796
I124
sS'disappointed'
p3797
I121
sS'homosexuality'
p3798
I124
sS'lightning'
p3799
I124
sS'audience'
p3800
I124
sS'miraculous'
p3801
I124
sS'laughing'
p3802
I122
sS'omgg'
p3803
I124
sS'doll'
p3804
I124
sS'alibi\xe2\x80\x9d'
p3805
I124
sS'pronounce'
p3806
I124
sS'04:01:20.0,34.18772872,-118.606116,1351.11,chinese'
p3807
I124
sS'organizing'
p3808
I124
sS'gross'
p3809
I124
sS'ellis'
p3810
I123
sS'thongs'
p3811
I122
sS'ellie'
p3812
I123
sS'kms'
p3813
I121
sS'seconds'
p3814
I121
sS'broken'
p3815
I122
sS'tease'
p3816
I124
sS'apvie'
p3817
I124
sS'road'
p3818
I123
sS'whitey'
p3819
I124
sS'lands'
p3820
I124
sS'margolis'
p3821
I124
sS'spreading'
p3822
I123
sS'blessed'
p3823
I124
sS'up."'
p3824
I124
sS'strip'
p3825
I124
sS'gomez'
p3826
I124
sS'slurpee'
p3827
I124
sS'madden'
p3828
I124
sS'price.\xe2\x80\x9dwtf'
p3829
I124
sS'dayquil'
p3830
I124
sS'chats'
p3831
I123
sS'trey'
p3832
I123
sS'comvo'
p3833
I124
sS'strikes'
p3834
I124
sS'sophisticated'
p3835
I124
sS"white'"
p3836
I124
sS'romantic'
p3837
I123
sS"wasn't"
p3838
I124
sS'ronaldo'
p3839
I121
sS'hated'
p3840
I124
sS'carpe'
p3841
I123
sS'deep'
p3842
I116
sS'fellow'
p3843
I124
sS'gumby'
p3844
I124
sS'file'
p3845
I124
sS'girlfriend'
p3846
I123
sS'film'
p3847
I124
sS'fill'
p3848
I123
sS'again'
p3849
I97
sS'hard\xe2\x80\x9d'
p3850
I124
sS'coughing'
p3851
I124
sS'obsessed'
p3852
I122
sS'xanax'
p3853
I124
sS"29's"
p3854
I124
sS'brandy'
p3855
I124
sS'important'
p3856
I122
sS'chris'
p3857
I119
sS'remote'
p3858
I124
sS"life's"
p3859
I124
sS"braggin'"
p3860
I124
sS'u'
p3861
I83
sS'alright'
p3862
I117
sS'starting'
p3863
I119
sS'liar'
p3864
I124
sS'forget'
p3865
I122
sS'suns'
p3866
I123
sS'suburban'
p3867
I124
sS'commute'
p3868
I124
sS'you.all'
p3869
I124
sS'fixtures'
p3870
I124
sS'children'
p3871
I123
sS'imma'
p3872
I122
sS'z'
p3873
I124
sS'poisoning**falls'
p3874
I124
sS'kanan'
p3875
I124
sS'sitting'
p3876
I124
sS"21:13:23.0,34.18952957,-118.60588789,1351.11,i'm"
p3877
I124
sS'bosom*'
p3878
I124
sS'fall'
p3879
I121
sS'difference'
p3880
I122
sS'trippin'
p3881
I123
sS'celebrity'
p3882
I121
sS'zygote'
p3883
I123
sS'donovan'
p3884
I123
sS'03:57:49.0,34.19504557,-118.60651762,1351.11,me'
p3885
I124
sS"boyce's"
p3886
I124
sS'neighborhood'
p3887
I124
sS'6\'2"'
p3888
I124
sS'zero'
p3889
I122
sS'perspective'
p3890
I124
sS'lawyer'
p3891
I124
sS'further'
p3892
I124
sS'hobo'
p3893
I124
sS'abc'
p3894
I124
sS'dankyyy'
p3895
I124
sS'public'
p3896
I122
sS'real?\xe2\x80\x9d'
p3897
I124
sS'9-5'
p3898
I124
sS'500$'
p3899
I124
sS'search'
p3900
I124
sS'jay\xe2\x80\x9d'
p3901
I124
sS'03:20:32.0,34.19525622,-118.60622287,1351.11,so'
p3902
I124
sS'airport'
p3903
I124
sS'mila'
p3904
I123
sS'mentions'
p3905
I123
sS'soul\xe2\x80\x9d'
p3906
I124
sS'munchkin'
p3907
I124
sS'extinction'
p3908
I124
sS'"ew"'
p3909
I124
sS'eye'
p3910
I123
sS'destination'
p3911
I124
sS'two'
p3912
I103
sS'comparing'
p3913
I122
sS'ginobili'
p3914
I124
sS'baseman'
p3915
I124
sS"ain't"
p3916
I110
sS'nice\xe2\x80\x9d'
p3917
I124
sS'that\xe2\x80\x9d'
p3918
I124
sS'town'
p3919
I122
sS'none'
p3920
I120
sS'hour'
p3921
I106
sS'recall'
p3922
I124
sS'sucks'
p3923
I111
sS'dev'
p3924
I124
sS'ded'
p3925
I124
sS'dee'
p3926
I124
sS'def'
p3927
I123
sS'shark'
p3928
I124
sS'death\xe2\x80\x9d'
p3929
I124
sS'wazowski'
p3930
I124
sS'share'
p3931
I124
sS'contradicts'
p3932
I124
sS'numbers'
p3933
I121
sS'venigga'
p3934
I124
sS'outfits'
p3935
I124
sS'needs'
p3936
I120
sS'awkward'
p3937
I123
sS'acts'
p3938
I124
sS'needa'
p3939
I124
sS"01:05:30.0,34.19487198,-118.60651016,1351.11,i'm"
p3940
I124
sS'genius"'
p3941
I124
sS'gtfo'
p3942
I124
sS'blood'
p3943
I124
sS'coming'
p3944
I119
sS'wave'
p3945
I123
sS'response'
p3946
I122
sS'tweeting'
p3947
I116
sS'eats'
p3948
I124
sS'pleasure'
p3949
I124
sS'playing'
p3950
I118
sS"that's"
p3951
I93
sS'stains'
p3952
I124
sS'pepe'
p3953
I124
sS'oblique'
p3954
I123
sS'trash\xe2\x80\x9d'
p3955
I124
sS'performance'
p3956
I124
sS'organize'
p3957
I124
sS'through'
p3958
I113
sS'tu\xe2\x80\x9dill'
p3959
I124
sS'existence'
p3960
I121
sS'24'
p3961
I123
sS'25'
p3962
I123
sS'26'
p3963
I122
sS'20'
p3964
I122
sS'21'
p3965
I124
sS'22'
p3966
I124
sS'23'
p3967
I122
sS'today\xe2\x80\x9dbc'
p3968
I124
sS'28'
p3969
I124
sS'scully'
p3970
I122
sS'late'
p3971
I117
sS'hurting'
p3972
I124
sS'someone'
p3973
I103
sS'ralphs'
p3974
I124
sS'inception'
p3975
I124
sS'5:50'
p3976
I124
sS'easily'
p3977
I121
sS'malons'
p3978
I124
sS'pregnant'
p3979
I124
sS'drake'
p3980
I115
sS'sterling'
p3981
I124
sS'everyone'
p3982
I99
sS'mental'
p3983
I124
sS'house'
p3984
I102
sS'energy'
p3985
I123
sS'hard'
p3986
I112
sS'idea'
p3987
I118
sS'fist'
p3988
I124
sS'ahahha'
p3989
I124
sS'hart'
p3990
I122
sS'deals'
p3991
I124
sS'lovers'
p3992
I123
sS'childish'
p3993
I121
sS'acting'
p3994
I124
sS"they'll"
p3995
I124
sS'clubmasters'
p3996
I124
sS'venitian'
p3997
I124
sS'bully'
p3998
I123
sS'lawrence'
p3999
I122
sS'casillas'
p4000
I124
sS'pleasant'
p4001
I124
sS'booty?\xe2\x80\x9d'
p4002
I124
sS'disneyland'
p4003
I122
sS'beginning'
p4004
I123
sS'game\xe2\x80\x9d'
p4005
I123
sS'justintv'
p4006
I124
sS'spiciest'
p4007
I124
sS'$250'
p4008
I124
sS'raptors'
p4009
I124
sS'dont'
p4010
I53
sS'valentine'
p4011
I124
sS'done'
p4012
I104
sS'divorce'
p4013
I124
sS'5th'
p4014
I124
sS'least'
p4015
I116
sS'pains'
p4016
I124
sS'mama'
p4017
I123
sS'you\xe2\x80\x9d'
p4018
I122
sS'park'
p4019
I77
sS'part'
p4020
I117
sS'doctors'
p4021
I124
sS'believe'
p4022
I119
sS'b'
p4023
I117
sS'fcked'
p4024
I124
sS'pickups'
p4025
I124
sS'gotten'
p4026
I121
sS'youth'
p4027
I124
sS'16:35:30.0,34.1875446,-118.6059458,1351.11,last'
p4028
I124
sS'supposed'
p4029
I117
sS'birthweek'
p4030
I124
sS'swerve'
p4031
I124
sS'outta'
p4032
I119
sS'picked'
p4033
I123
sS'left-handed'
p4034
I124
sS'meltdown'
p4035
I124
sS'hottietottie'
p4036
I124
sS'ditched'
p4037
I124
sS'dancing'
p4038
I123
sS"elias'"
p4039
I124
sS'honors'
p4040
I124
sS'majority'
p4041
I124
sS'build'
p4042
I124
sS'commentary'
p4043
I124
sS'cameroon'
p4044
I124
sS'eggs'
p4045
I124
sS'most'
p4046
I109
sS'charm'
p4047
I124
sS'significant'
p4048
I124
sS'11:15'
p4049
I124
sS'moatamedi"'
p4050
I124
sS'kg'
p4051
I122
sS"juice's"
p4052
I124
sS'kk'
p4053
I124
sS'ko'
p4054
I124
sS'kt'
p4055
I124
sS'western'
p4056
I124
sS'thomas'
p4057
I124
sS'obligations'
p4058
I123
sS'carne'
p4059
I124
sS'tuesdays'
p4060
I124
sS'find'
p4061
I106
sS'choco'
p4062
I124
sS'restaurant)'
p4063
I123
sS'joeugh'
p4064
I124
sS'nervous'
p4065
I124
sS'ruin'
p4066
I123
sS'waiting'
p4067
I116
sS'california)'
p4068
I124
sS'8'
p4069
I122
sS'beyonc\xc3\xa9'
p4070
I124
sS'permission'
p4071
I124
sS'luke'
p4072
I124
sS'express'
p4073
I123
sS'cheaper'
p4074
I124
sS'ferret'
p4075
I124
sS'courage'
p4076
I124
sS'batter'
p4077
I124
sS'freedom"'
p4078
I124
sS'suarez'
p4079
I123
sS'garcia'
p4080
I124
sS'common'
p4081
I123
sS'witches'
p4082
I124
sS'restaurants'
p4083
I124
sS'vibin'
p4084
I123
sS'vine'
p4085
I119
sS'leslie'
p4086
I124
sS'overeat'
p4087
I124
sS'retweet'
p4088
I119
sS'wash.,91303\n201020027976167426,nataliesbee,2012-05-11'
p4089
I124
sS'tamales'
p4090
I124
sS'visiting'
p4091
I124
sS'please'
p4092
I109
sS'fans'
p4093
I121
sS'smallest'
p4094
I123
sS'champagne'
p4095
I124
sS"tv's"
p4096
I124
sS'realquickk'
p4097
I124
sS'pisses'
p4098
I124
sS'tomorrow\xe2\x80\x9dhahahahhahahahhaahahhahahahahhahaha'
p4099
I124
sS'pissed'
p4100
I122
sS'chatsworth'
p4101
I123
sS'restaurant'
p4102
I116
sS'foreign'
p4103
I124
sS'focused'
p4104
I124
sS'point'
p4105
I114
sS'simple'
p4106
I120
sS'recycling'
p4107
I124
sS'gypsy'
p4108
I124
sS'simply'
p4109
I124
sS'throughout'
p4110
I123
sS'expensive'
p4111
I123
sS'raise'
p4112
I124
sS'trilogy'
p4113
I123
sS'secret'
p4114
I122
sS'dropping'
p4115
I123
sS'doodles'
p4116
I124
sS'meeting'
p4117
I124
sS'gay'
p4118
I119
sS'gas'
p4119
I122
sS'convert'
p4120
I124
sS'gal'
p4121
I124
sS'understand'
p4122
I120
sS'jell-o'
p4123
I124
sS'fur'
p4124
I124
sS'lunch/5th'
p4125
I124
sS'solid'
p4126
I123
sS'bill'
p4127
I123
sS'convo'
p4128
I124
sS'replaced'
p4129
I124
sS'fun'
p4130
I104
sS'inning.\xe2\x80\x9d'
p4131
I124
sS'portugal'
p4132
I123
sS'century'
p4133
I124
sS'menez'
p4134
I124
sS'bummy'
p4135
I124
sS'itself'
p4136
I123
sS'calender'
p4137
I124
sS'aches'
p4138
I124
sS'hahahahha'
p4139
I124
sS'dishonor'
p4140
I123
sS'puig'
p4141
I122
sS'whore"'
p4142
I124
sS'eww'
p4143
I124
sS'neutron'
p4144
I124
sS'assignment'
p4145
I122
sS'yesterday'
p4146
I119
sS'hahahhahahaa'
p4147
I124
sS'flurry'
p4148
I124
sS'celebratory'
p4149
I124
sS'dark'
p4150
I122
sS'chippers'
p4151
I124
sS'finesse'
p4152
I123
sS"price's"
p4153
I124
sS'spent'
p4154
I119
sS'y'
p4155
I121
sS'entry'
p4156
I123
sS'chemistry'
p4157
I124
sS'spend'
p4158
I122
sS'\xe2\x9d\xa4'
p4159
I123
sS'gerund'
p4160
I124
sS'50/50'
p4161
I124
sS'niggass'
p4162
I124
sS'hahanahnanamjndjahjaha'
p4163
I124
sS'injuries'
p4164
I124
sS'lebowski'
p4165
I124
sS'letting'
p4166
I124
sS'cut'
p4167
I120
sS'cus'
p4168
I124
sS'cup'
p4169
I106
sS'blankets'
p4170
I124
sS'cuz'
p4171
I115
sS'source'
p4172
I123
sS'homies'
p4173
I123
sS'snap'
p4174
I123
sS'excited'
p4175
I115
sS'hates'
p4176
I123
sS'cuh'
p4177
I124
sS'in.\xe2\x80\x9d'
p4178
I124
sS'nekkid'
p4179
I124
sS'awayayayayayayayyyyyyyyhy'
p4180
I124
sS'matters'
p4181
I124
sS'\xe2\x97\x9f\xe2\x97\x9e'
p4182
I123
sS'narcissist'
p4183
I123
sS'bit'
p4184
I123
sS'follows'
p4185
I124
sS'moccasins'
p4186
I124
sS'google'
p4187
I123
sS'often'
p4188
I123
sS'absolutely'
p4189
I124
sS'inching'
p4190
I124
sS'back'
p4191
I70
sS"exist's"
p4192
I124
sS"gibby's"
p4193
I124
sS'mirror'
p4194
I124
sS'falafel'
p4195
I124
sS'left?gibby'
p4196
I124
sS'pronounced'
p4197
I124
sS"21:39:58.0,34.18819788,-118.60623726,1351.11,let's"
p4198
I124
sS'apush'
p4199
I124
sS'decision'
p4200
I124
sS'senioritus'
p4201
I124
sS'pen'
p4202
I124
sS'sneakers'
p4203
I124
sS'pee'
p4204
I123
sS'epic'
p4205
I123
sS'commentator'
p4206
I124
sS'hozier'
p4207
I124
sS'hallelujah'
p4208
I124
sS'remembered'
p4209
I124
sS'costumes'
p4210
I124
sS'chanting'
p4211
I124
sS'hippie'
p4212
I124
sS'goods'
p4213
I124
sS'iced'
p4214
I124
sS'graduation'
p4215
I119
sS'drama'
p4216
I123
sS'belting'
p4217
I124
sS'hahahah'
p4218
I124
sS"nima's"
p4219
I124
sS'jimmy'
p4220
I124
sS'day!!\xe2\x80\x9dthanks'
p4221
I124
sS'steven'
p4222
I124
sS'lesson'
p4223
I124
sS'now?\xe2\x80\x9d'
p4224
I124
sS'celebration.\xe2\x80\x9d'
p4225
I124
sS'disability'
p4226
I124
sS'overpower'
p4227
I124
sS'homemade'
p4228
I124
sS'forward'
p4229
I123
sS'bored'
p4230
I118
sS'anally'
p4231
I124
sS'pimpin'
p4232
I124
sS'hahhaha'
p4233
I124
sS'motivational'
p4234
I124
sS'boys'
p4235
I112
sS'yesssss'
p4236
I124
sS'this\xe2\x80\x9didk'
p4237
I124
sS'hopes'
p4238
I124
sS'biggie'
p4239
I124
sS"tomorrow's"
p4240
I124
sS'jumbo'
p4241
I124
sS'freezers'
p4242
I124
sS'sammme'
p4243
I124
sS'arwin'
p4244
I124
sS'metal'
p4245
I123
sS"momma's"
p4246
I124
sS'cure'
p4247
I123
sS'diving'
p4248
I124
sS'adoring'
p4249
I124
sS'ugly"'
p4250
I124
sS'liners'
p4251
I124
sS'lens'
p4252
I124
sS'neglectful'
p4253
I124
sS'forever\xe2\x80\x9d'
p4254
I124
sS'cooked'
p4255
I124
sS'implied'
p4256
I124
sS'2008'
p4257
I124
sS'kickin'
p4258
I124
sS'aguilera'
p4259
I123
sS'jason'
p4260
I124
sS'restraining'
p4261
I124
sS'pederssn'
p4262
I124
sS'peanut'
p4263
I124
sS'maddie'
p4264
I124
sS'blaze'
p4265
I124
sS'random'
p4266
I119
sS'dessert'
p4267
I124
sS'putting'
p4268
I122
sS'wordsyour'
p4269
I124
sS'entire'
p4270
I120
sS'shock'
p4271
I124
sS'havent'
p4272
I115
sS'thiago'
p4273
I124
sS'joey'
p4274
I124
sS'nudesvictoria'
p4275
I124
sS'safe"'
p4276
I124
sS'uncomfortable'
p4277
I124
sS'carlo'
p4278
I124
sS'giving'
p4279
I119
sS'payday'
p4280
I123
sS'3d'
p4281
I124
sS'body'
p4282
I124
sS'packing'
p4283
I124
sS'healing'
p4284
I122
sS'others'
p4285
I122
sS'safer'
p4286
I124
sS'mindset'
p4287
I124
sS'talent'
p4288
I123
sS'33'
p4289
I124
sS'32'
p4290
I122
sS'30'
p4291
I121
sS'37'
p4292
I124
sS'34'
p4293
I124
sS'ashland'
p4294
I124
sS'18:44:44.0,34.19465452,-118.60643053,1351.11,awkward'
p4295
I124
sS'maplestory'
p4296
I124
sS'manny'
p4297
I124
sS'names'
p4298
I124
sS'birthdaayy'
p4299
I124
sS'patron'
p4300
I123
sS'hahahhahaha'
p4301
I124
sS'themselves'
p4302
I123
sS'disgustingly'
p4303
I124
sS'hrd'
p4304
I124
sS'ssoooo'
p4305
I124
sS'enviously'
p4306
I124
sS'iii'
p4307
I124
sS'hints'
p4308
I124
sS'account'
p4309
I124
sS'f'
p4310
I124
sS'szczesny'
p4311
I124
sS'obvious'
p4312
I124
sS'closing'
p4313
I124
sS'crocket'
p4314
I124
sS'unpacking'
p4315
I124
sS'snacks'
p4316
I124
sS'reason\xe2\x80\x9d'
p4317
I124
sS'holds'
p4318
I124
sS'hahaaha'
p4319
I124
sS'stock'
p4320
I124
sS'profile'
p4321
I123
sS'bone*'
p4322
I124
sS'fran'
p4323
I124
sS'lmfaoo'
p4324
I123
sS'frat'
p4325
I124
sS'dolled'
p4326
I124
sS'lines'
p4327
I124
sS'9am'
p4328
I123
sS'furious'
p4329
I124
sS'addiction'
p4330
I123
sS'erryday'
p4331
I124
sS'physical\xe2\x80\x9d'
p4332
I124
sS'embers'
p4333
I124
sS'horny'
p4334
I123
sS'bunch'
p4335
I123
sS'la'
p4336
I105
sS'lo'
p4337
I124
sS'winning'
p4338
I120
sS'dad'
p4339
I107
sS'later'
p4340
I119
sS'repeats'
p4341
I123
sS'dam'
p4342
I124
sS'dan'
p4343
I119
sS'spell'
p4344
I120
sS'squad.\xe2\x80\x9d'
p4345
I124
sS'dat'
p4346
I121
sS'mention'
p4347
I123
sS'cutting'
p4348
I124
sS'tickles'
p4349
I124
sS'instead'
p4350
I121
sS'wowe'
p4351
I123
sS'day'
p4352
I54
sS'10pm'
p4353
I124
sS'sin'
p4354
I124
sS'$4.61'
p4355
I124
sS'bueno'
p4356
I124
sS"allan's"
p4357
I123
sS'dreaming'
p4358
I124
sS'huntington'
p4359
I123
sS'marley'
p4360
I123
sS'arjen'
p4361
I124
sS'matt'
p4362
I122
sS"cespedes'"
p4363
I124
sS'rep'
p4364
I124
sS'deray'
p4365
I124
sS'stud'
p4366
I124
sS'technically'
p4367
I124
sS'ref'
p4368
I124
sS'math'
p4369
I123
sS'coed'
p4370
I124
sS'clarify'
p4371
I124
sS'que'
p4372
I124
sS'22:13:52.0,34.19487198,-118.60651016,1351.11,i'
p4373
I124
sS'snapchatz'
p4374
I124
sS'yard'
p4375
I124
sS'snapchats'
p4376
I121
sS'steal'
p4377
I123
sS'matchmaker'
p4378
I124
sS'quickscopes:-1v1-rust-1500-last'
p4379
I124
sS'tributes'
p4380
I124
sS'sack'
p4381
I124
sS'whoop'
p4382
I124
sS'alleys'
p4383
I124
sS'lagging'
p4384
I124
sS'braces'
p4385
I123
sS'stencil'
p4386
I124
sS'ruggish'
p4387
I124
sS'vulgar'
p4388
I124
sS'chill\xe2\x80\x9dyou'
p4389
I124
sS'palestine'
p4390
I124
sS'...\xe2\x80\x9d'
p4391
I124
sS'completed'
p4392
I124
sS'nobody'
p4393
I120
sS'loved'
p4394
I123
sS'loves'
p4395
I123
sS'grubbed'
p4396
I124
sS'visited'
p4397
I124
sS'athleticism'
p4398
I124
sS'wakes'
p4399
I124
sS'turn.so'
p4400
I124
sS'curves'
p4401
I124
sS'comfortable'
p4402
I124
sS'have'
p4403
I25
sS'curved'
p4404
I124
sS'sayings'
p4405
I124
sS'congrats'
p4406
I124
sS'millionairess'
p4407
I124
sS'mid'
p4408
I124
sS'mix'
p4409
I124
sS'tomass'
p4410
I124
sS'unless'
p4411
I123
sS'agenda'
p4412
I123
sS'90mph'
p4413
I124
sS'sfv'
p4414
I124
sS'skydive\xe2\x80\x9d'
p4415
I124
sS'stranded'
p4416
I124
sS'request'
p4417
I124
sS'ahhahhahahahha'
p4418
I124
sS'park)'
p4419
I109
sS'00:52:48.0,34.1888345,-118.60593625,1351.11,fuck...,91303\n510533357818888192,allisonlitzie,2014-09-12'
p4420
I124
sS'skinny'
p4421
I123
sS'normally'
p4422
I124
sS'kite'
p4423
I124
sS'text'
p4424
I114
sS'02:51:21.0,34.18714169,-118.60595117,1351.11,earthquake'
p4425
I124
sS'grabbed'
p4426
I124
sS'downloading'
p4427
I124
sS'satan'
p4428
I122
sS'"exciting'
p4429
I124
sS'exciting.....this'
p4430
I124
sS'pull'
p4431
I122
sS'beat'
p4432
I114
sS'bear'
p4433
I124
sS'ginuwine'
p4434
I124
sS'bean'
p4435
I124
sS'perfection'
p4436
I124
sS'timing'
p4437
I124
sS'jeannie'
p4438
I124
sS'hardwick'
p4439
I124
sS'teams'
p4440
I122
sS'mercedes'
p4441
I122
sS'including'
p4442
I124
sS'exists'
p4443
I124
sS'coffee..no'
p4444
I124
sS'racked'
p4445
I124
sS"20:29:35.0,34.19016517,-118.61460582,1351.11,don't"
p4446
I124
sS'national'
p4447
I124
sS'awaits'
p4448
I124
sS"fleming's\xe2\x80\xa6"
p4449
I124
sS'clutch!!\xe2\x80\x9d'
p4450
I124
sS'routine'
p4451
I124
sS'chyaa'
p4452
I124
sS'vry'
p4453
I124
sS'legit'
p4454
I124
sS'joke'
p4455
I117
sS'taking'
p4456
I114
sS'equal'
p4457
I123
sS'kosher'
p4458
I124
sS'theeeem'
p4459
I124
sS'tater'
p4460
I123
sS'retweets'
p4461
I124
sS'glorious'
p4462
I124
sS'otherwise'
p4463
I123
sS'lo-lo'
p4464
I124
sS'laugh'
p4465
I122
sS"it's"
p4466
I55
sS'concert...he'
p4467
I124
sS'devoting'
p4468
I124
sS'bday\xe2\x80\x9dsame'
p4469
I124
sS'proposal'
p4470
I124
sS'perplexed'
p4471
I124
sS'goddess'
p4472
I124
sS'finished'
p4473
I119
sS'axle'
p4474
I124
sS'"maddies'
p4475
I124
sS'volunteer'
p4476
I123
sS'7-0'
p4477
I124
sS'hahahahahahah'
p4478
I123
sS'value'
p4479
I124
sS'ohkay'
p4480
I123
sS'person\xe2\x80\x9d'
p4481
I124
sS'planets'
p4482
I124
sS'almost'
p4483
I111
sS'helped'
p4484
I124
sS'ax'
p4485
I124
sS'partner'
p4486
I124
sS')'
p4487
I122
sS'18:23:53.0,34.18822744,-118.60605301,1351.11,stop'
p4488
I124
sS'ochoa'
p4489
I122
sS'injured'
p4490
I123
sS'selfish'
p4491
I124
sS'fucker'
p4492
I124
sS'breech'
p4493
I124
sS'takers'
p4494
I124
sS'sisters'
p4495
I122
sS'drapkin'
p4496
I124
sS'shitting'
p4497
I124
sS'retard'
p4498
I124
sS'thought'
p4499
I102
sS'oops'
p4500
I121
sS'position'
p4501
I123
sS'seats'
p4502
I124
sS'podcast'
p4503
I124
sS'lake'
p4504
I123
sS'bench'
p4505
I123
sS'add'
p4506
I119
sS'ohhh'
p4507
I123
sS'match'
p4508
I122
sS'tests'
p4509
I123
sS'nudescalum'
p4510
I124
sS'\xe2\x97\x9f\xe2\x97\x9e\xe2\x95\xaf'
p4511
I123
sS'skinnier'
p4512
I124
sS'x-mas'
p4513
I124
sS'like'
p4514
I24
sS'crawled'
p4515
I124
sS'11pm'
p4516
I124
sS'chick'
p4517
I123
sS'works'
p4518
I120
sS'soft'
p4519
I123
sS'italian'
p4520
I124
sS'alive'
p4521
I122
sS'hair'
p4522
I111
sS'lloris'
p4523
I124
sS"someone...aren't"
p4524
I124
sS'happens'
p4525
I121
sS'hurricane'
p4526
I124
sS'assuming'
p4527
I124
sS'eso'
p4528
I124
sS'sweetie.\xe2\x80\x9d'
p4529
I124
sS'-vin'
p4530
I124
sS'slight'
p4531
I124
sS'reguardless'
p4532
I124
sS'stellat'
p4533
I124
sS'snapped'
p4534
I124
sS'judging'
p4535
I124
sS'about'
p4536
I48
sS':-)'
p4537
I119
sS'actual'
p4538
I124
sS'justin'
p4539
I123
sS'shaking'
p4540
I124
sS'flake'
p4541
I124
sS'tomm'
p4542
I124
sS'introduced'
p4543
I124
sS'terry'
p4544
I124
sS'playoff'
p4545
I124
sS'doesnt'
p4546
I112
sS'female'
p4547
I123
sS'quickly'
p4548
I124
sS'termine'
p4549
I124
sS'wack'
p4550
I123
sS'meeee'
p4551
I124
sS'adolescent'
p4552
I124
sS'rushed'
p4553
I124
sS'rting'
p4554
I124
sS'1988'
p4555
I124
sS'rushes'
p4556
I124
sS'meeep'
p4557
I124
sS'bees'
p4558
I124
sS'biggest'
p4559
I123
sS'buy'
p4560
I105
sS'chatting'
p4561
I123
sS'comprimised'
p4562
I124
sS'bus'
p4563
I123
sS'brand'
p4564
I124
sS'sequel'
p4565
I124
sS'but'
p4566
I39
sS'buu'
p4567
I124
sS'bun'
p4568
I124
sS'bum'
p4569
I124
sS'sheepshead'
p4570
I124
sS'editing'
p4571
I124
sS'wise'
p4572
I124
sS'wish'
p4573
I116
sS'j'
p4574
I122
sS'flip'
p4575
I124
sS'minutes'
p4576
I114
sS'fuckboi'
p4577
I124
sS'replying'
p4578
I124
sS'whisper'
p4579
I124
sS'pic'
p4580
I119
sS'pig'
p4581
I124
sS'pix'
p4582
I124
sS'periods'
p4583
I124
sS'pit'
p4584
I124
sS'dressed'
p4585
I124
sS'45'
p4586
I124
sS'41'
p4587
I124
sS'surreal'
p4588
I124
sS'shouldve'
p4589
I124
sS'12/1'
p4590
I124
sS'uba'
p4591
I123
sS'shouldvw'
p4592
I124
sS'christians'
p4593
I124
sS'goin'
p4594
I121
sS'|rt'
p4595
I67
sS'baker'
p4596
I124
sS'\xe2\x80\x9d'
p4597
I124
sS'4s'
p4598
I124
sS'baked'
p4599
I124
sS'8th'
p4600
I124
sS"sean's"
p4601
I124
sS'sleep'
p4602
I90
sS'hate'
p4603
I95
sS'tweet'
p4604
I100
sS'under'
p4605
I122
sS'pride'
p4606
I124
sS'stanton'
p4607
I124
sS'7:45'
p4608
I124
sS'lololol'
p4609
I124
sS'every'
p4610
I100
sS'jack'
p4611
I124
sS'encounter'
p4612
I124
sS'comsidering'
p4613
I124
sS'school'
p4614
I97
sS'venus'
p4615
I124
sS'joggers'
p4616
I124
sS'enjoy'
p4617
I119
sS'throughs'
p4618
I124
sS'consistent'
p4619
I123
sS'almond'
p4620
I123
sS'street'
p4621
I123
sS'friendships'
p4622
I124
sS'covalent'
p4623
I124
sS'blue'
p4624
I121
sS'christ'
p4625
I124
sS'poison'
p4626
I124
sS'blur'
p4627
I124
sS'pats'
p4628
I124
sS'kicked'
p4629
I123
sS'zack'
p4630
I124
sS'zach'
p4631
I122
sS'stared'
p4632
I124
sS'nayeli'
p4633
I124
sS'roya'
p4634
I123
sS'whoite'
p4635
I124
sS'stares'
p4636
I124
sS'nails.-'
p4637
I124
sS'leaves'
p4638
I124
sS'changed'
p4639
I119
sS'changes'
p4640
I122
sS'bloomer'
p4641
I124
sS'julia'
p4642
I124
sS'feelings'
p4643
I122
sS'patience'
p4644
I124
sS'padawan'
p4645
I124
sS'would'
p4646
I65
sS'm5'
p4647
I124
sS'asses'
p4648
I123
sS'breathe'
p4649
I123
sS'interviews"'
p4650
I124
sS'phone'
p4651
I106
sS'excellent'
p4652
I124
sS'robbing'
p4653
I124
sS'tampa'
p4654
I124
sS'must'
p4655
I119
sS'me'
p4656
I13
sS'9-0'
p4657
I123
sS'join'
p4658
I124
sS'mc'
p4659
I124
sS'cheapest'
p4660
I124
sS'entertained'
p4661
I124
sS'daft'
p4662
I124
sS'hern\xc3\xa1ndez'
p4663
I124
sS'ms'
p4664
I123
sS'mr'
p4665
I123
sS'my'
p4666
I7
sS'grenade'
p4667
I124
sS'ghana'
p4668
I123
sS'florida'
p4669
I124
sS'kompany'
p4670
I123
sS'screen...guess'
p4671
I124
sS'keep'
p4672
I109
sS'ceremony'
p4673
I124
sS'end'
p4674
I116
sS'buns'
p4675
I123
sS'eyeballs'
p4676
I124
sS'life\xe2\x80\x9dyou'
p4677
I124
sS'poker'
p4678
I124
sS'mess'
p4679
I121
sS'jumping'
p4680
I124
sS'danny'
p4681
I120
sS'funniest'
p4682
I122
sS'enter'
p4683
I122
sS'vapor'
p4684
I124
sS'amir'
p4685
I124
sS'over'
p4686
I80
sS'casted'
p4687
I124
sS'london'
p4688
I123
sS'husban'
p4689
I122
sS'ima'
p4690
I123
sS'2:09'
p4691
I124
sS'fairway'
p4692
I124
sS'bad\xe2\x80\x9d\xe2\x80\x9d'
p4693
I124
sS'yimi'
p4694
I124
sS'expectations'
p4695
I122
sS'writing'
p4696
I123
sS'ribery'
p4697
I124
sS'fade'
p4698
I124
sS'400'
p4699
I124
sS'imy'
p4700
I124
sS'bouta'
p4701
I124
sS'"ohmmmmmmm"'
p4702
I124
sS'alex'
p4703
I123
sS'mammas'
p4704
I124
sS'filling'
p4705
I124
sS'victory'
p4706
I123
sS'each'
p4707
I119
sS'"bby"'
p4708
I124
sS'\xe2\x98\xba\xef\xb8\x8f|rt'
p4709
I122
sS'celebrating'
p4710
I124
sS'saturday'
p4711
I119
sS'gon'
p4712
I124
sS'driving'
p4713
I119
sS'god'
p4714
I105
sS'psychic'
p4715
I119
sS'washed'
p4716
I121
sS'got'
p4717
I58
sS'"wylde"'
p4718
I124
sS'free'
p4719
I118
sS'rain'
p4720
I123
sS'wanted'
p4721
I113
sS'days'
p4722
I107
sS'"this'
p4723
I123
sS'filter'
p4724
I124
sS'onto'
p4725
I124
sS'rang'
p4726
I124
sS'already'
p4727
I103
sS'hearing'
p4728
I122
sS'rant'
p4729
I123
sS'sober'
p4730
I124
sS'scissors'
p4731
I123
sS'toy'
p4732
I123
sS'ss15'
p4733
I124
sS'top'
p4734
I120
sS'knooow'
p4735
I124
sS'stepdad'
p4736
I124
sS'jamba'
p4737
I124
sS'too'
p4738
I60
sS'tom'
p4739
I123
sS'kewl'
p4740
I123
sS'tonight,91303\n458679580552089600,andrewnab,2014-04-22'
p4741
I124
sS'urban'
p4742
I124
sS'ceiling'
p4743
I124
sS'lord...now'
p4744
I124
sS'centered'
p4745
I124
sS'serve'
p4746
I124
sS'took'
p4747
I111
sS'kindest'
p4748
I124
sS'essein'
p4749
I124
sS'nijah'
p4750
I123
sS'burger'
p4751
I94
sS'green...rt'
p4752
I124
sS'black.\xe2\x80\x9dlowkey'
p4753
I124
sS'classes'
p4754
I122
sS'10th'
p4755
I124
sS'rad'
p4756
I124
sS'fashion'
p4757
I124
sS'bound\xe2\x9c\x8c\xef\xb8\x8f'
p4758
I124
sS'ran'
p4759
I121
sS'talking'
p4760
I103
sS'9"36"you'
p4761
I124
sS'beckett'
p4762
I123
sS'ray'
p4763
I120
sS'-'
p4764
I96
sS'predominantly'
p4765
I124
sS'nimas'
p4766
I124
sS'laughed'
p4767
I124
sS'rides'
p4768
I124
sS'though'
p4769
I107
sS'dmed'
p4770
I124
sS'xx_slidr_xx'
p4771
I124
sS's000'
p4772
I124
sS'erasers'
p4773
I124
sS'flop'
p4774
I121
sS'flow'
p4775
I123
sS'sleepy....whaaaat'
p4776
I124
sS'yang'
p4777
I115
sS'yana'
p4778
I122
sS'pineapple'
p4779
I124
sS'queen'
p4780
I120
sS'sagg'
p4781
I124
sS'horny.hoe'
p4782
I124
sS'radio'
p4783
I122
sS'earth'
p4784
I124
sS'july'
p4785
I124
sS'chipotle'
p4786
I124
sS'asians'
p4787
I123
sS'watch'
p4788
I97
sS'niggas\xe2\x80\x9dyou'
p4789
I124
sS'geee'
p4790
I124
sS'countries'
p4791
I124
sS'twice'
p4792
I123
sS'shots'
p4793
I120
sS'ruins'
p4794
I124
sS'habit'
p4795
I124
sS'liquor'
p4796
I124
sS'resist'
p4797
I124
sS'keenan'
p4798
I124
sS"dev's"
p4799
I124
sS'disturbing'
p4800
I124
sS'noodles'
p4801
I124
sS'"oh'
p4802
I123
sS'finger'
p4803
I124
sS'hopefully'
p4804
I124
sS'matters\xe2\x80\x9d:)'
p4805
I124
sS'd_iana__19'
p4806
I124
sS'confusion'
p4807
I124
sS'weak'
p4808
I122
sS'however'
p4809
I124
sS'outages'
p4810
I124
sS'wear'
p4811
I117
sS'news'
p4812
I122
sS'protect'
p4813
I124
sS'fault'
p4814
I120
sS"plane!it's...a"
p4815
I124
sS'games\xe2\x80\x9d'
p4816
I124
sS'niqqqaaaaaaa'
p4817
I124
sS'players'
p4818
I122
sS'games'
p4819
I119
sS'faceq'
p4820
I124
sS'faces'
p4821
I124
sS'dopest'
p4822
I124
sS'10:30pm'
p4823
I124
sS'yayday'
p4824
I124
sS'danaconda!\xe2\x80\x9d'
p4825
I124
sS'deported\xe2\x80\x9dhope'
p4826
I124
sS'trust'
p4827
I118
sS'23:19:17.0,34.19492533,-118.60624849,1351.11,,91303\n513826544838799360,jrslist,2014-09-21'
p4828
I124
sS'it\xe2\x80\x9di'
p4829
I124
sS'bathroom'
p4830
I123
sS'"you'
p4831
I123
sS'gtfoh'
p4832
I124
sS'been'
p4833
I74
sS'blower'
p4834
I124
sS'beer'
p4835
I123
sS'belongs'
p4836
I124
sS'expected'
p4837
I122
sS'hambone'
p4838
I124
sS'pursing'
p4839
I124
sS'drugs'
p4840
I124
sS'uncommon'
p4841
I124
sS'craft'
p4842
I124
sS'catch'
p4843
I119
sS'cracker'
p4844
I123
sS'n'
p4845
I92
sS'(22001'
p4846
I115
sS'teachers'
p4847
I122
sS'cracked'
p4848
I123
sS'transfering'
p4849
I124
sS'provocative'
p4850
I124
sS'"i'
p4851
I116
sS'cooool'
p4852
I124
sS'nike'
p4853
I122
sS'suggest'
p4854
I124
sS'*orders'
p4855
I124
sS'forehead'
p4856
I124
sS'inventory'
p4857
I124
sS'several'
p4858
I124
sS'yung'
p4859
I124
sS'vvv'
p4860
I124
sS'pick'
p4861
I122
sS'coachella'
p4862
I124
sS'fridays'
p4863
I124
sS'characters'
p4864
I124
sS'cycle'
p4865
I124
sS'now...ok'
p4866
I124
sS'dylan'
p4867
I123
sS"mother's"
p4868
I124
sS'charlie'
p4869
I124
sS'greatest'
p4870
I124
sS'mother'
p4871
I121
sS'dads'
p4872
I122
sS'proposed'
p4873
I124
sS'laptop'
p4874
I123
sS'explanatory'
p4875
I124
sS'5s'
p4876
I123
sS'teenager'
p4877
I124
sS'5k'
p4878
I124
sS'gave'
p4879
I119
sS'liscense\xe2\x80\x9d'
p4880
I124
sS'advances'
p4881
I124
sS'breaks'
p4882
I123
sS'\xe2\x95\xb0\xe2\x97\x9f\xe2\x97\x9e'
p4883
I123
sS'itself.\xe2\x80\x9d'
p4884
I124
sS'bando'
p4885
I124
sS'burnt'
p4886
I124
sS'advanced'
p4887
I124
sS'apart'
p4888
I121
sS'melting'
p4889
I124
sS'appearing'
p4890
I124
sS'gift'
p4891
I121
sS'55'
p4892
I124
sS'orlando'
p4893
I124
sS'50'
p4894
I121
sS'5%'
p4895
I124
sS'braceface'
p4896
I124
sS'successfully'
p4897
I124
sS'jennifer'
p4898
I122
sS'usher'
p4899
I123
sS'advertise'
p4900
I124
sS'cottonheadedninnymuggins'
p4901
I124
sS'ice'
p4902
I111
sS'everything'
p4903
I105
sS'ucsb'
p4904
I124
sS'allstar'
p4905
I124
sS'christmas'
p4906
I120
sS'deleted'
p4907
I124
sS'b\xc3\xa6'
p4908
I124
sS'cori'
p4909
I124
sS'cory'
p4910
I124
sS'burbank'
p4911
I124
sS'dinner'
p4912
I118
sS'plus'
p4913
I119
sS'facetime'
p4914
I124
sS'aha'
p4915
I120
sS'presence'
p4916
I124
sS'ahh'
p4917
I124
sS'bath'
p4918
I119
sS'easily.\xe2\x80\x9dsame'
p4919
I124
sS'annotating'
p4920
I124
sS'life..but'
p4921
I124
sS'class'
p4922
I115
sS'virgin'
p4923
I124
sS'rell'
p4924
I124
sS'gio'
p4925
I124
sS'purposely'
p4926
I124
sS'did.no'
p4927
I124
sS'head'
p4928
I116
sS'hangover'
p4929
I123
sS'attempted'
p4930
I124
sS'6'
p4931
I111
sS'rollercoasters'
p4932
I124
sS'26th'
p4933
I124
sS'heat'
p4934
I121
sS'hear'
p4935
I121
sS'solar'
p4936
I124
sS'admiration'
p4937
I124
sS'prowl'
p4938
I124
sS'ruined'
p4939
I122
sS'adore'
p4940
I124
sS'atta'
p4941
I124
sS'penal'
p4942
I122
sS'welcome.\xe2\x80\x9d'
p4943
I124
sS'tria'
p4944
I123
sS'annoying'
p4945
I117
sS'trip'
p4946
I117
sS'ni'
p4947
I124
sS'nl'
p4948
I123
sS'no'
p4949
I40
sS'na'
p4950
I124
sS'commercials'
p4951
I124
sS'when'
p4952
I49
sS'til'
p4953
I124
sS'tim'
p4954
I121
sS'setting'
p4955
I124
sS'tie'
p4956
I122
sS"kim's"
p4957
I124
sS'picture'
p4958
I111
sS'football'
p4959
I119
sS'younger'
p4960
I124
sS'faster'
p4961
I120
sS'love\xe2\x80\x9d'
p4962
I124
sS'serious'
p4963
I122
sS'180+'
p4964
I124
sS'neighbors'
p4965
I122
sS'focus'
p4966
I123
sS'leads'
p4967
I124
sS'lmaooooo\xe2\x80\x9d'
p4968
I124
sS'row'
p4969
I124
sS'1948'
p4970
I124
sS'promote'
p4971
I124
sS'helllllllll'
p4972
I124
sS'charge'
p4973
I122
sS'discovering'
p4974
I124
sS'cry.\xe2\x80\x9d'
p4975
I124
sS'pedersen'
p4976
I124
sS'federation'
p4977
I124
sS'advantage'
p4978
I122
sS'cook'
p4979
I123
sS'cool'
p4980
I101
sS'clouds'
p4981
I124
sS'lohan'
p4982
I123
sS'level'
p4983
I124
sS'peeps'
p4984
I124
sS'brother'
p4985
I119
sS'science'
p4986
I124
sS'says'
p4987
I113
sS'trend'
p4988
I124
sS"yeezus'"
p4989
I124
sS'obsolete'
p4990
I124
sS'prom'
p4991
I124
sS'hair"'
p4992
I124
sS'fear'
p4993
I119
sS'drinks'
p4994
I120
sS'tapanga'
p4995
I124
sS'goes'
p4996
I118
sS'hillasdaillest'
p4997
I124
sS'....but'
p4998
I124
sS'learn'
p4999
I120
sS'water'
p5000
I115
sS'baseball'
p5001
I117
sS'healthy'
p5002
I124
sS'guilty'
p5003
I124
sS'cinnamon'
p5004
I123
sS'weird'
p5005
I113
sS'compare'
p5006
I120
sS'1st'
p5007
I122
sS'dead!"*survives*'
p5008
I124
sS'erturn'
p5009
I124
sS'ando'
p5010
I124
sS'handled'
p5011
I124
sS'sports'
p5012
I121
sS'iphone'
p5013
I119
sS'\xd9\x88\xd8\xa7\xd8\xad\xd8\xaf'
p5014
I124
sS'memory'
p5015
I124
sS'today'
p5016
I60
sS'riot'
p5017
I124
sS'chocolate'
p5018
I124
sS'casey'
p5019
I124
sS'beers'
p5020
I122
sS'sike'
p5021
I123
sS'lolol'
p5022
I124
sS'meatball'
p5023
I124
sS'pickle'
p5024
I124
sS'streak'
p5025
I123
sS'alotta'
p5026
I124
sS'stream'
p5027
I124
sS'ahhahahhaahhaha'
p5028
I124
sS'ago\xe2\x80\x9dyou'
p5029
I124
sS'dropped'
p5030
I123
sS'kys'
p5031
I124
sS'counting'
p5032
I123
sS'dress'
p5033
I123
sS'1'
p5034
I111
sS'cardinal'
p5035
I124
sS'fourth'
p5036
I124
sS'dope'
p5037
I118
sS'$100'
p5038
I124
sS'crashed'
p5039
I124
sS'birthday'
p5040
I68
sS'disheartening'
p5041
I124
sS'drained'
p5042
I124
sS'..\xe2\x80\x9d'
p5043
I124
sS'tbh'
p5044
I115
sS'rollin'
p5045
I124
sS'comfort'
p5046
I124
sS'werent'
p5047
I124
sS'midnight'
p5048
I124
sS'blocked'
p5049
I124
sS"he's"
p5050
I102
sS'nima'
p5051
I121
sS'happened'
p5052
I116
sS'songs)'
p5053
I124
sS'lonely'
p5054
I124
sS'moms'
p5055
I122
sS'qualified'
p5056
I124
sS'conquer'
p5057
I124
sS'ppl'
p5058
I121
sS'term'
p5059
I122
sS'name'
p5060
I110
sS'sophomore'
p5061
I123
sS'clutch'
p5062
I124
sS'pajaconda'
p5063
I124
sS'realise'
p5064
I124
sS'stahp'
p5065
I124
sS'bed\xe2\x80\x9d'
p5066
I124
sS'thuggish'
p5067
I124
sS'kimmy'
p5068
I124
sS'catching'
p5069
I119
sS'begun'
p5070
I124
sS'busta'
p5071
I124
sS'plans'
p5072
I118
sS"america's"
p5073
I124
sS'factors'
p5074
I124
sS'ayoowwnn'
p5075
I124
sS'factory'
p5076
I123
sS'emmantaler'
p5077
I124
sS'attracted'
p5078
I124
sS"shouldn't"
p5079
I124
sS'hacked'
p5080
I123
sS'theory'
p5081
I124
sS'you.\xe2\x80\x9d'
p5082
I124
sS'flyer'
p5083
I124
sS'ahahah'
p5084
I122
sS'100+'
p5085
I124
sS'yup'
p5086
I122
sS'100$'
p5087
I123
sS'calories'
p5088
I124
sS'a&b'
p5089
I124
sS'motion'
p5090
I124
sS'turn'
p5091
I114
sS'butterflies'
p5092
I124
sS'yum'
p5093
I124
sS'swing'
p5094
I124
sS'vibeee'
p5095
I124
sS'bellion'
p5096
I124
sS'wellmaybe'
p5097
I124
sS"rubik's"
p5098
I124
sS'millions'
p5099
I123
sS'given'
p5100
I124
sS'stuck'
p5101
I124
sS'trillion'
p5102
I124
sS'white'
p5103
I114
sS'gives'
p5104
I123
sS'exploring'
p5105
I124
sS'hug'
p5106
I120
sS'imy2'
p5107
I124
sS'season'
p5108
I114
sS'crews'
p5109
I124
sS'huh'
p5110
I123
sS'cops'
p5111
I124
sS'lmao'
p5112
I79
sS'>>>>>>'
p5113
I124
sS'r'
p5114
I119
sS'cards'
p5115
I122
sS'driveway'
p5116
I124
sS'pre'
p5117
I124
sS'ang'
p5118
I124
sS'chloe'
p5119
I124
sS'pro'
p5120
I122
sS'ant'
p5121
I124
sS'tanning'
p5122
I124
sS'rent'
p5123
I124
sS'zeus2'
p5124
I124
sS'any'
p5125
I103
sS'batting'
p5126
I124
sS'superman'
p5127
I124
sS'kush'
p5128
I124
sS"farmer's"
p5129
I124
sS'strengths'
p5130
I124
sS'blunt'
p5131
I122
sS'surf'
p5132
I124
sS'sure'
p5133
I96
sS'multiple'
p5134
I124
sS'falls'
p5135
I124
sS'reaction.\xe2\x80\x9d'
p5136
I124
sS'sleep.i'
p5137
I124
sS'freshman'
p5138
I122
sS'considered'
p5139
I123
sS'proud'
p5140
I119
sS'hungry'
p5141
I120
sS"hurts.you're"
p5142
I124
sS'uncle'
p5143
I124
sS'senior'
p5144
I115
sS'uninterested'
p5145
I124
sS'cheat'
p5146
I121
sS'byong'
p5147
I124
sS'lee,91303\n482999018511806466,itsmiguel_21,2014-06-28'
p5148
I124
sS'hack'
p5149
I123
sS'flop"clothing'
p5150
I124
sS'pffff'
p5151
I124
sS"guy.it's"
p5152
I124
sS'favor'
p5153
I124
sS'state'
p5154
I124
sS'nadia'
p5155
I123
sS'wooo'
p5156
I124
sS'hanley'
p5157
I122
sS'dreaded'
p5158
I124
sS'wooh'
p5159
I124
sS'jazz'
p5160
I124
sS'freaking'
p5161
I124
sS'fainted'
p5162
I124
sS'\xee\x84\x86'
p5163
I124
sS'naked'
p5164
I124
sS":')"
p5165
I123
sS'paper'
p5166
I123
sS'182)'
p5167
I124
sS'predicted'
p5168
I121
sS'hahahahahhahaha'
p5169
I124
sS'pants'
p5170
I122
sS"y'all"
p5171
I109
sS'picnic'
p5172
I122
sS'connections'
p5173
I124
sS'college'
p5174
I118
sS'ignores'
p5175
I124
sS'parking'
p5176
I122
sS'opening'
p5177
I124
sS':-)\xe2\x80\x9domg'
p5178
I124
sS'weapons'
p5179
I124
sS'outside'
p5180
I120
sS'toying'
p5181
I124
sS'messed'
p5182
I121
sS'guitar'
p5183
I124
sS'great\xe2\x80\x9d'
p5184
I124
sS'comb'
p5185
I124
sS'come'
p5186
I83
sS'14:47:46.0,34.18701102,-118.60600197,1351.11,buying'
p5187
I124
sS'sodium'
p5188
I124
sS'contract'
p5189
I124
sS'1-0!\xe2\x80\x9dfuck'
p5190
I124
sS'deported'
p5191
I124
sS'"get'
p5192
I124
sS"6'"
p5193
I122
sS'bricks'
p5194
I124
sS'pot'
p5195
I124
sS'wuntid'
p5196
I124
sS'period'
p5197
I116
sS'insist'
p5198
I124
sS'60'
p5199
I124
sS'64'
p5200
I124
sS'hotter'
p5201
I124
sS'turkey'
p5202
I124
sS'touchdown!\xe2\x80\x9d'
p5203
I124
sS'howard'
p5204
I121
sS'50$'
p5205
I124
sS'escalated'
p5206
I124
sS'jon'
p5207
I121
sS'wapo'
p5208
I124
sS'robben'
p5209
I111
sS'robbed'
p5210
I124
sS'rbgy'
p5211
I124
sS'hernia'
p5212
I124
sS'careful'
p5213
I123
sS'spirit'
p5214
I124
sS'myself'
p5215
I107
sS'spiderman'
p5216
I124
sS'cash'
p5217
I121
sS'rhymes'
p5218
I124
sS'cast'
p5219
I120
sS'4-0-1'
p5220
I124
sS'abducted'
p5221
I124
sS'life*'
p5222
I124
sS'couples'
p5223
I124
sS'good'
p5224
I52
sS'punched'
p5225
I124
sS'pull-out'
p5226
I124
sS'ironic'
p5227
I124
sS'helmet'
p5228
I124
sS'sippin'
p5229
I124
sS'sellin'
p5230
I124
sS"satan's"
p5231
I124
sS'$20'
p5232
I121
sS'10:30'
p5233
I123
sS'bowl'
p5234
I124
sS'check'
p5235
I107
sS'buys'
p5236
I124
sS'reminder'
p5237
I124
sS'retweeting'
p5238
I122
sS'events'
p5239
I124
sS"flowin'"
p5240
I124
sS'week'
p5241
I103
sS'barefoot'
p5242
I124
sS'driver'
p5243
I124
sS'changing'
p5244
I124
sS'magicae'
p5245
I124
sS'deeeebbbaaaa\xe2\x9d\xa4\xef\xb8\x8f\xe2\x9d\xa4\xef\xb8\x8f\xe2\x9d\xa4\xef\xb8\x8f\xe2\x9d\xa4\xef\xb8\x8f\xe2\x9d\xa4\xef\xb8\x8f'
p5246
I124
sS'ranch'
p5247
I124
sS'without'
p5248
I121
sS'justify'
p5249
I124
sS'nd'
p5250
I124
sS'tomorrow\xe2\x80\x9d'
p5251
I124
sS'kill'
p5252
I118
sS'fair\xe2\x80\x9d'
p5253
I124
sS'blow'
p5254
I124
sS'7:21pm'
p5255
I124
sS"we've"
p5256
I119
sS"everyone's"
p5257
I123
sS'seems'
p5258
I124
sS'except'
p5259
I123
sS'kimberly'
p5260
I124
sS'lets'
p5261
I108
sS'ross'
p5262
I124
sS'bud\xe2\x80\x9dfucking'
p5263
I124
sS'kills'
p5264
I123
sS'it.\xe2\x80\x9d'
p5265
I123
sS'accepted'
p5266
I123
sS'wbu'
p5267
I124
sS'towel'
p5268
I124
sS'patrick'
p5269
I124
sS'sanity'
p5270
I124
sS'brownforever'
p5271
I124
sS'joking'
p5272
I124
sS"9's"
p5273
I124
sS'table'
p5274
I121
sS'thotties'
p5275
I124
sS'mood'
p5276
I124
sS'shirtless'
p5277
I124
sS'googled'
p5278
I124
sS'slick'
p5279
I124
sS'legal'
p5280
I124
sS'moon'
p5281
I123
sS'moor'
p5282
I124
sS'hipster'
p5283
I124
sS'lmfao'
p5284
I117
sS'loudest'
p5285
I124
sS'yay'
p5286
I115
sS'earlier'
p5287
I122
sS'oo'
p5288
I123
sS'on'
p5289
I18
sS'ok'
p5290
I98
sS'oj'
p5291
I124
sS'oh'
p5292
I92
sS'jeep'
p5293
I124
sS'of'
p5294
I12
sS'discussed'
p5295
I123
sS'brittany'
p5296
I123
sS'stand'
p5297
I123
sS'or'
p5298
I59
sS'amber'
p5299
I124
sS'ladies'
p5300
I118
sS'me"and'
p5301
I124
sS'today...i'
p5302
I124
sS'there'
p5303
I67
sS'racism'
p5304
I123
sS'ferris'
p5305
I124
sS'strong'
p5306
I121
sS'slowly'
p5307
I122
sS'valley'
p5308
I120
sS'treat'
p5309
I123
sS'lmaooo'
p5310
I124
sS'ended'
p5311
I123
sS'"what\'s'
p5312
I124
sS'too.....in'
p5313
I124
sS'me...meaning'
p5314
I124
sS'longer'
p5315
I121
sS'"it\'s'
p5316
I124
sS'nightlife'
p5317
I124
sS'creeping'
p5318
I124
sS'taylor'
p5319
I122
sS'taste'
p5320
I124
sS'feliz'
p5321
I124
sS'felix'
p5322
I120
sS'cbs'
p5323
I124
sS'sarkar'
p5324
I124
sS'4.7'
p5325
I124
sS'hasnt'
p5326
I122
sS'hasnr'
p5327
I124
sS'idiot'
p5328
I117
sS'deserve'
p5329
I121
sS'krul'
p5330
I124
sS'5'
p5331
I109
sS'trash'
p5332
I123
sS'championship'
p5333
I123
sS'finale'
p5334
I123
sS'hahahah\xe2\x80\x9dsays'
p5335
I124
sS'flower'
p5336
I124
sS'missed'
p5337
I122
sS'assassins'
p5338
I124
sS'calls'
p5339
I124
sS'\xe2\x9c\x8c\xef\xb8\x8f,91303\n368425634906656768,kikistame,2013-08-16'
p5340
I124
sS'tanner'
p5341
I122
sS'wifi'
p5342
I123
sS'curve'
p5343
I124
sS'barcelona'
p5344
I124
sS'tanned'
p5345
I124
sS'tho!\xe2\x80\x9d'
p5346
I124
sS'all'
p5347
I36
sS'chinese'
p5348
I121
sS'lack'
p5349
I124
sS'follow'
p5350
I116
sS'decisions'
p5351
I122
sS'thursday'
p5352
I123
sS'everyone\xe2\x80\x9dhow'
p5353
I124
sS'activities'
p5354
I124
sS'maybe\xe2\x80\x9d'
p5355
I124
sS'worse'
p5356
I119
sS'song'
p5357
I111
sS'far'
p5358
I117
sS'fav'
p5359
I117
sS'fat'
p5360
I123
sS'cool\xe2\x80\x9d'
p5361
I124
sS'worst'
p5362
I113
sS'fam'
p5363
I120
sS'fab'
p5364
I123
sS'ticket'
p5365
I123
sS'delicious\xe2\x80\xa6'
p5366
I124
sS'treating'
p5367
I124
sS'adjective'
p5368
I124
sS'list'
p5369
I122
sS'prolonged'
p5370
I123
sS'fluent'
p5371
I124
sS'liars'
p5372
I124
sS'wow.just'
p5373
I124
sS'ten'
p5374
I124
sS'tea'
p5375
I123
sS'tee'
p5376
I124
sS'invention'
p5377
I124
sS'aphrodisiac'
p5378
I124
sS'what'
p5379
I38
sS'sub'
p5380
I122
sS'sun'
p5381
I123
sS'musty'
p5382
I123
sS'crush'
p5383
I123
sS'suv'
p5384
I124
sS'version'
p5385
I123
sS'attitudes'
p5386
I124
sS'sup'
p5387
I123
sS'guns'
p5388
I124
sS'vamos'
p5389
I124
sS'toes'
p5390
I124
sS'christian'
p5391
I115
sS'shoulda'
p5392
I124
sS'sportscenter'
p5393
I124
sS'pickaxe'
p5394
I124
sS'mindsets'
p5395
I124
sS'believ'
p5396
I124
sS'seen\xe2\x80\x9d'
p5397
I124
sS'texts'
p5398
I122
sS'semester'
p5399
I122
sS'2000s'
p5400
I124
sS'florence'
p5401
I124
sS'emoji'
p5402
I123
sS'dgaf'
p5403
I124
sS'donuts'
p5404
I124
sS'mulholland'
p5405
I124
sS'interception'
p5406
I124
sS'irritate'
p5407
I124
sS'nowwww'
p5408
I124
sS'shits'
p5409
I123
sS'minor'
p5410
I124
sS'flat'
p5411
I123
sS'israel'
p5412
I124
sS'knows'
p5413
I117
sS'basically'
p5414
I121
sS'known'
p5415
I124
sS'glad'
p5416
I120
sS'steffani'
p5417
I124
sS'v'
p5418
I123
sS'pony'
p5419
I124
sS'challenging'
p5420
I124
sS'pong'
p5421
I124
sS'court'
p5422
I124
sS'goal'
p5423
I114
sS'rather'
p5424
I117
sS'breaking'
p5425
I119
sS'explains'
p5426
I124
sS'22:02:38.0,34.19492533,-118.60624849,1351.11,blaming'
p5427
I124
sS'shouldnt'
p5428
I122
sS'okay'
p5429
I106
sS'siqqqqqqqqqq'
p5430
I124
sS'cancun'
p5431
I124
sS'entrepenuer'
p5432
I124
sS'short'
p5433
I123
sS'shady'
p5434
I122
sS'shore'
p5435
I124
sS'see\xe2\x80\x9d'
p5436
I124
sS'"im'
p5437
I124
sS'like..."easiest'
p5438
I124
sS"don't"
p5439
I49
sS'september'
p5440
I124
sS'cespedes'
p5441
I123
sS'5:30am'
p5442
I124
sS'isnt'
p5443
I112
sS'shit\xe2\x80\x9d'
p5444
I122
sS'"is'
p5445
I124
sS'style'
p5446
I121
sS'you\xe2\x9d\xa4\xef\xb8\x8f'
p5447
I124
sS',91303\n517091339381780482,jrslist,2014-09-30'
p5448
I124
sS'pray'
p5449
I119
sS'resort'
p5450
I124
sS'scop'
p5451
I124
sS'stephen'
p5452
I124
sS'bout'
p5453
I117
sS'soccer'
p5454
I118
sS'might'
p5455
I90
sS'alter'
p5456
I124
sS'somebody'
p5457
I122
sS'clippers'
p5458
I124
sS'bigger'
p5459
I123
sS'marcus'
p5460
I124
sS'turns'
p5461
I124
sS'friendship'
p5462
I121
sS'weight'
p5463
I124
sS'generation'
p5464
I124
sS'hawaii'
p5465
I124
sS'expect'
p5466
I121
sS'alcohol'
p5467
I121
sS'4pm'
p5468
I124
sS'"things'
p5469
I124
sS'health'
p5470
I120
sS'overlooked.\xe2\x80\x9d'
p5471
I124
sS'friday'
p5472
I120
sS'differ'
p5473
I124
sS'cookie'
p5474
I123
sS'teach'
p5475
I123
sS'"college'
p5476
I124
sS'blister'
p5477
I123
sS"year's"
p5478
I124
sS'deja'
p5479
I124
sS'neopets'
p5480
I124
sS'throws'
p5481
I121
sS'dine'
p5482
I124
sS'unhealthy'
p5483
I123
sS'feel'
p5484
I97
sS'notify'
p5485
I124
sS'colombia'
p5486
I124
sS'blank'
p5487
I123
sS'slower'
p5488
I124
sS'2k14!"'
p5489
I124
sS'story'
p5490
I114
sS'"'
p5491
I124
sS'script'
p5492
I124
sS'comfy'
p5493
I124
sS'passed'
p5494
I122
sS'overusing'
p5495
I124
sS'syrup'
p5496
I124
sS'store'
p5497
I122
sS'headache'
p5498
I124
sS'statement'
p5499
I124
sS'pump'
p5500
I124
sS'hotel'
p5501
I124
sS'am\xc3\xa9rica'
p5502
I124
sS"i'ma"
p5503
I124
sS'must\xe2\x80\x9d'
p5504
I124
sS'$4'
p5505
I124
sS'convinced'
p5506
I124
sS'$3'
p5507
I124
sS'$1'
p5508
I124
sS'king'
p5509
I124
sS'kind'
p5510
I116
sS'xoxo!!,91303\n366306304668626944,jaredbaker03,2013-08-10'
p5511
I124
sS'double'
p5512
I115
sS'uhmmmmmmmmm'
p5513
I124
sS'cost'
p5514
I124
sS'cuff'
p5515
I123
sS'risks'
p5516
I124
sS'dane'
p5517
I123
sS'risky'
p5518
I124
sS'motivation'
p5519
I124
sS'lewandowski'
p5520
I124
sS'acculturation'
p5521
I124
sS'\xe2\x97\x9c\xe2\x97\x9d\xe2\x95\xae'
p5522
I123
sS'shai\xe2\x80\x9d'
p5523
I124
sS"nothin'"
p5524
I124
sS'nights'
p5525
I121
sS'lo\xc3\xb1'
p5526
I124
sS'finding'
p5527
I124
sS'irritated'
p5528
I124
sS'19:08:09.0,34.18979145,-118.605905,1351.11,actually'
p5529
I124
sS'eff'
p5530
I124
sS'buff'
p5531
I124
sS'7%'
p5532
I124
sS'added'
p5533
I123
sS'chunts'
p5534
I124
sS'reunited'
p5535
I123
sS'tongue\xe2\x80\x9d'
p5536
I124
sS'70'
p5537
I124
sS'nothing'
p5538
I105
sS'seasons'
p5539
I124
sS'doggie'
p5540
I124
sS'lying'
p5541
I122
sS'literally\xe2\x80\x9d'
p5542
I124
sS'stfu'
p5543
I123
sS'cds'
p5544
I124
sS'cried'
p5545
I124
sS'blockedt'
p5546
I124
sS'accurate'
p5547
I124
sS"mom's"
p5548
I124
sS'shepherd'
p5549
I124
sS'alone.everytime'
p5550
I124
sS'his'
p5551
I83
sS'hit'
p5552
I104
sS'>>help'
p5553
I124
sS"mouth\xe2\x80\x9dthat's"
p5554
I124
sS'him'
p5555
I101
sS'typos'
p5556
I122
sS'them...but'
p5557
I124
sS'vincent'
p5558
I124
sS'tourney'
p5559
I124
sS'swavey'
p5560
I124
sS'clubhouse\xe2\x80\x9dfinally'
p5561
I124
sS'art'
p5562
I122
sS'kylie'
p5563
I124
sS'defense'
p5564
I124
sS'dumb'
p5565
I117
sS'are'
p5566
I35
sS'ari'
p5567
I123
sS'arm'
p5568
I124
sS'souljia'
p5569
I124
sS'nutella'
p5570
I124
sS'albums\xe2\x80\x9d'
p5571
I124
sS'damn\xe2\x80\x9dthat'
p5572
I124
sS'consecutive'
p5573
I124
sS'not(21'
p5574
I124
sS"18:02:17.0,34.19487198,-118.60651016,1351.11,i'm"
p5575
I124
sS'solo'
p5576
I123
sS'know\xe2\x80\x9d'
p5577
I124
sS'sold'
p5578
I124
sS'attention'
p5579
I124
sS'outfit'
p5580
I123
sS'bar)'
p5581
I123
sS'c'
p5582
I122
sS'license'
p5583
I124
sS'stiiill'
p5584
I124
sS'became'
p5585
I124
sS'annie'
p5586
I123
sS'finds'
p5587
I124
sS'sloth'
p5588
I124
sS'flies'
p5589
I123
sS'guts'
p5590
I124
sS'sweet'
p5591
I120
sS':((('
p5592
I124
sS'dudes'
p5593
I122
sS'crispy'
p5594
I124
sS'duh'
p5595
I124
sS'ps'
p5596
I124
sS'pw'
p5597
I123
sS'due'
p5598
I123
sS'dug'
p5599
I123
sS'manhunt'
p5600
I124
sS'pd'
p5601
I124
sS'whoa'
p5602
I123
sS'woke'
p5603
I117
sS'pm'
p5604
I124
sS'teespring'
p5605
I124
sS'too....you'
p5606
I124
sS'rocking'
p5607
I124
sS"dm'ed"
p5608
I124
sS'sportcenter'
p5609
I123
sS'robben-esque'
p5610
I124
sS'stolen'
p5611
I124
sS'frozen'
p5612
I124
sS'nate'
p5613
I124
sS'care?\xe2\x80\x9d'
p5614
I124
sS'"bye'
p5615
I124
sS'theres'
p5616
I113
sS'ohmygod'
p5617
I124
sS'monster.\xe2\x80\x9dmonster'
p5618
I124
sS'rip'
p5619
I123
sS"emoji's"
p5620
I124
sS'disappointing'
p5621
I124
sS'anymore.-'
p5622
I124
sS'rig'
p5623
I124
sS'rid'
p5624
I124
sS'shirt'
p5625
I102
sS'delicious'
p5626
I124
sS'backseat'
p5627
I124
sS'king?\xe2\x80\x9d'
p5628
I124
sS'9'
p5629
I120
sS'literature'
p5630
I124
sS'couldve'
p5631
I124
sS'moving'
p5632
I121
sS'89%'
p5633
I124
sS'wheres'
p5634
I124
sS'lower'
p5635
I124
sS'shelby'
p5636
I124
sS'bouncer'
p5637
I124
sS'two!?\xe2\x80\x9di'
p5638
I124
sS'seniorsretweet'
p5639
I124
sS'cheer'
p5640
I124
sS'edge'
p5641
I123
sS'luckyyyy'
p5642
I124
sS'abilities'
p5643
I124
sS'feeme'
p5644
I124
sS'friendships\xe2\x80\x9d'
p5645
I124
sS'questions'
p5646
I122
sS'lexus'
p5647
I124
sS'nommmmmm'
p5648
I124
sS'customers'
p5649
I124
sS'sittin'
p5650
I124
sS'lovin'
p5651
I124
sS'mariah'
p5652
I122
sS'ponyboy'
p5653
I124
sS'ignore'
p5654
I123
sS'arthur'
p5655
I124
sS'typo*hhahahahhahahhaha'
p5656
I124
sS'fucking'
p5657
I52
sS'semana'
p5658
I124
sS'"we'
p5659
I124
sS'courtois'
p5660
I124
sS'forsursies'
p5661
I124
sS'guyssss'
p5662
I124
sS"'56"
p5663
I124
sS'anne'
p5664
I124
sS"fuckin'"
p5665
I124
sS'lmaoooo'
p5666
I122
sS'kelsey'
p5667
I123
sS's/o'
p5668
I124
sS'yaaassss'
p5669
I124
sS'intense'
p5670
I119
sS'untappd'
p5671
I124
sS'run?\xe2\x80\x9d'
p5672
I124
sS'quantity\xe2\x80\x9d'
p5673
I124
sS'sometimes\xe2\x80\x9d'
p5674
I124
sS'workout,91303\n390688958247886848,krissymariposa,2013-10-17'
p5675
I124
sS'wanna'
p5676
I74
sS'dwight'
p5677
I124
sS'clubhouse'
p5678
I123
sS'"girly"'
p5679
I124
sS'mommy'
p5680
I124
sS'momma'
p5681
I122
sS'nigga'
p5682
I106
sS'stitches'
p5683
I124
sS'xoxo'
p5684
I123
sS'ca)'
p5685
I56
sS'long'
p5686
I108
sS"we're"
p5687
I112
sS'bruh'
p5688
I99
sS'girlfriends'
p5689
I124
sS"forrest's"
p5690
I124
sS'fries'
p5691
I119
sS"hasn't"
p5692
I124
sS'capitalizes'
p5693
I124
sS'fried'
p5694
I124
sS'called'
p5695
I115
sS"argentina's"
p5696
I124
sS'freak'
p5697
I123
sS'stick'
p5698
I120
sS'cover'
p5699
I122
sS'graham'
p5700
I124
sS'rainy'
p5701
I124
sS'lemon'
p5702
I124
sS'peace'
p5703
I124
sS'nick'
p5704
I124
sS'nice'
p5705
I107
sS'problems'
p5706
I122
sS'helping'
p5707
I122
sS'allowing'
p5708
I124
sS'remix'
p5709
I124
sS'happier'
p5710
I123
sS'vice'
p5711
I121
sS'impatient'
p5712
I124
sS'joining'
p5713
I124
sS'once'
p5714
I113
sS'cargar'
p5715
I124
sS'alien'
p5716
I124
sS'windy'
p5717
I124
sS'doghaus'
p5718
I124
sS'issues'
p5719
I123
sS'j.cole'
p5720
I124
sS'itll'
p5721
I124
sS'include'
p5722
I124
sS'wished'
p5723
I124
sS'mainstream'
p5724
I124
sS'3.14.14'
p5725
I124
sS'niqqa'
p5726
I124
sS'$112000'
p5727
I124
sS'bae\xe2\x80\x9d'
p5728
I124
sS'drinking'
p5729
I121
sS',91303\n320218992532922369,savyy30,2013-04-05'
p5730
I124
sS'tango\xe2\x80\x9dor'
p5731
I124
sS'gullible'
p5732
I124
sS'3:34pm'
p5733
I124
sS'stay'
p5734
I110
sS"you'd"
p5735
I124
sS'reunion'
p5736
I123
sS'acid'
p5737
I124
sS'stds'
p5738
I124
sS'kris'
p5739
I123
sS'fine'
p5740
I122
sS"man's"
p5741
I124
sS'19th'
p5742
I123
sS'chose'
p5743
I124
sS'degree'
p5744
I124
sS'pushing'
p5745
I124
sS'explore'
p5746
I124
sS'diet"\xe2\x80\x9d'
p5747
I124
sS'sexy'
p5748
I119
sS'settling'
p5749
I124
sS'laughter'
p5750
I124
sS'leaving'
p5751
I120
sS'7/20'
p5752
I124
sS"dad's"
p5753
I122
sS'reds'
p5754
I124
sS'apple'
p5755
I121
sS'egypt'
p5756
I124
sS'zlatan'
p5757
I124
sS'greg'
p5758
I124
sS'use'
p5759
I113
sS'hahahahaha'
p5760
I120
sS'from'
p5761
I71
sS'figure'
p5762
I121
sS'usa'
p5763
I122
sS'&'
p5764
I86
sS'ookay'
p5765
I124
sS'few'
p5766
I118
sS'scariest'
p5767
I124
sS'sort'
p5768
I124
sS'all..but'
p5769
I124
sS'enijah'
p5770
I124
sS'penis'
p5771
I123
sS'women'
p5772
I124
sS'annoy'
p5773
I124
sS'7pm'
p5774
I124
sS'(canoga'
p5775
I108
sS'anywhere'
p5776
I123
sS'aight'
p5777
I124
sS'proof'
p5778
I122
sS'tat'
p5779
I124
sS'thirsty'
p5780
I123
sS"birdy's"
p5781
I124
sS'spying'
p5782
I124
sS'tax'
p5783
I124
sS'tae'
p5784
I124
sS'tag'
p5785
I124
sS'something'
p5786
I102
sS'tan'
p5787
I120
sS'tai'
p5788
I124
sS'sir'
p5789
I123
sS'legging'
p5790
I124
sS'united'
p5791
I124
sS'syndrome'
p5792
I123
sS'sit'
p5793
I118
sS'zues'
p5794
I124
sS'perks'
p5795
I124
sS'usain'
p5796
I124
sS'cuffed'
p5797
I124
sS'hazard'
p5798
I124
sS'tack'
p5799
I124
sS'taco'
p5800
I115
sS'hahahaha'
p5801
I114
sS'liiike'
p5802
I123
sS'light'
p5803
I120
sS'honestly'
p5804
I118
sS'crawling'
p5805
I124
sS'martini'
p5806
I124
sS'shotgun\xe2\x80\x9d'
p5807
I124
sS'packed,91303\n371375554143875072,carolina4810222,2013-08-24'
p5808
I124
sS'joanne'
p5809
I124
sS'own'
p5810
I118
sS'looks'
p5811
I101
sS'jimenez'
p5812
I124
sS'glen'
p5813
I124
sS'softtt'
p5814
I124
sS'ships'
p5815
I124
sS'tyler'
p5816
I124
sS'restrain'
p5817
I124
sS'choose'
p5818
I122
sS'orange'
p5819
I122
sS'bye'
p5820
I119
sS'do\xe2\x80\xa6'
p5821
I124
sS'amjad'
p5822
I124
sS'citrus'
p5823
I124
sS'practice'
p5824
I119
sS'untouchable'
p5825
I124
sS'ambition'
p5826
I124
sS'articles'
p5827
I123
sS'edit'
p5828
I124
sS"your'e"
p5829
I124
sS'transmitted'
p5830
I123
sS'trap'
p5831
I124
sS'interview'
p5832
I123
sS'mo.bb'
p5833
I124
sS'seperated'
p5834
I124
sS'89'
p5835
I124
sS'our'
p5836
I94
sS'80'
p5837
I124
sS'out'
p5838
I29
sS'rply'
p5839
I124
sS'we\xe2\x80\x99re'
p5840
I124
sS'pixelated'
p5841
I124
sS'philip'
p5842
I124
sS'g'
p5843
I122
sS'phrases'
p5844
I124
sS'lohl'
p5845
I124
sS'biting'
p5846
I123
sS'tysm'
p5847
I124
sS'spy!"'
p5848
I124
sS'straight'
p5849
I119
sS"doesn't"
p5850
I118
sS'unknown'
p5851
I123
sS'myspace'
p5852
I123
sS'their'
p5853
I106
sS'drool'
p5854
I124
sS"god's"
p5855
I124
sS'photoshopped'
p5856
I124
sS'shell'
p5857
I113
sS'anythingggg'
p5858
I124
sS'mattingly'
p5859
I123
sS'salami'
p5860
I123
sS'holland'
p5861
I118
sS'boring'
p5862
I121
sS'father...is'
p5863
I124
sS'richer'
p5864
I124
sS'ahhahahahahahah'
p5865
I124
sS'10-1'
p5866
I124
sS'yohan'
p5867
I124
sS'relationship/'
p5868
I124
sS'host'
p5869
I123
sS'actions,91303\n478252641718263808,ksol_,2014-06-15'
p5870
I124
sS'afraid'
p5871
I124
sS'matchfaker'
p5872
I124
sS'skittles'
p5873
I124
sS'bagel'
p5874
I122
sS'which'
p5875
I120
sS'youuuu'
p5876
I123
sS'who'
p5877
I61
sS'highschool'
p5878
I124
sS'why'
p5879
I60
sS'deny'
p5880
I124
sS'saddest'
p5881
I124
sS'ramirez'
p5882
I123
sS'looked'
p5883
I120
sS'swarming'
p5884
I124
sS'wait!!!\xe2\x80\x9d'
p5885
I124
sS'brenda'
p5886
I124
sS'agreed'
p5887
I123
sS'chicken'
p5888
I118
sS'ear'
p5889
I122
sS'sunflowers'
p5890
I124
sS'\xe2\x97\x9c\xe2\x97\x9d'
p5891
I123
sS'cube'
p5892
I122
sS'workin'
p5893
I124
sS'watching'
p5894
I107
sS'goosebumps'
p5895
I123
sS'awwh'
p5896
I124
sS'me.\xe2\x80\x9d'
p5897
I124
sS'ones'
p5898
I121
sS'words'
p5899
I116
sS'qt'
p5900
I124
sS'belts'
p5901
I124
sS'married'
p5902
I123
sS'sirigu'
p5903
I124
sS'view'
p5904
I123
sS'available'
p5905
I124
sS'ebi'
p5906
I124
sS'unfairly'
p5907
I124
sS'barrels'
p5908
I124
sS'closer'
p5909
I124
sS'cole'
p5910
I124
sS'closet'
p5911
I122
sS'arguably'
p5912
I123
sS'wagers'
p5913
I124
sS'genius'
p5914
I123
sS'mexicans'
p5915
I124
sS'closed'
p5916
I124
sS'expenses...and'
p5917
I124
sS'stories'
p5918
I123
sS'frustrated'
p5919
I124
sS'bought'
p5920
I122
sS'trynna'
p5921
I123
sS'amen'
p5922
I124
sS'job'
p5923
I111
sS'joc'
p5924
I118
sS'joe'
p5925
I122
sS'senses.\xe2\x80\x9d'
p5926
I124
sS'horngry\xe2\x80\x9d'
p5927
I124
sS'wnba'
p5928
I124
sS'grounds'
p5929
I124
sS'wall'
p5930
I122
sS'walk'
p5931
I122
sS'walt'
p5932
I124
sS'respect'
p5933
I122
sS'kidink'
p5934
I124
sS'bbe'
p5935
I124
sS'thottie'
p5936
I124
sS'bby'
p5937
I124
sS'"i\'m'
p5938
I124
sS'mike'
p5939
I124
sS'liverpool'
p5940
I124
sS'painted'
p5941
I124
sS'hmu'
p5942
I123
sS'mcat'
p5943
I124
sS'present'
p5944
I124
sS'colton'
p5945
I124
sS'choices'
p5946
I123
sS'will'
p5947
I72
sS'wild'
p5948
I123
sS"nobody's"
p5949
I124
sS'refs'
p5950
I118
sS'thus'
p5951
I124
sS'broken.\xe2\x80\x9dpolar'
p5952
I124
sS'avi'
p5953
I121
sS'thug'
p5954
I124
sS'kyyams'
p5955
I124
sS'stadiums'
p5956
I124
sS'inch'
p5957
I124
sS'gets'
p5958
I110
sS'tomatoes'
p5959
I124
sS'difficult'
p5960
I124
sS'"they'
p5961
I124
sS'jesusnunez'
p5962
I124
sS'slave'
p5963
I124
sS'premiere'
p5964
I124
sS'beast'
p5965
I121
sS'student'
p5966
I124
sS'l.a'
p5967
I124
sS'9:43'
p5968
I124
sS'fighting'
p5969
I120
sS'wymonds'
p5970
I124
sS'english'
p5971
I121
sS'rocket'
p5972
I124
sS"should've"
p5973
I123
sS'fishing'
p5974
I124
sS'drunk'
p5975
I117
sS'sky'
p5976
I123
sS'u-verse'
p5977
I124
sS'ever.,91303\n477283951124283392,philsmaster11,2014-06-13'
p5978
I124
sS'book'
p5979
I116
sS'wurdle'
p5980
I124
sS'birfdaaay'
p5981
I124
sS'nudesbeliebers'
p5982
I124
sS'shutout\xe2\x80\x9d'
p5983
I124
sS'sick'
p5984
I112
sS"who's"
p5985
I116
sS'know'
p5986
I43
sS'facial'
p5987
I123
sS'press'
p5988
I123
sS'10/10'
p5989
I124
sS'flemings'
p5990
I123
sS'miami'
p5991
I124
sS'loser'
p5992
I124
sS'january'
p5993
I124
sS"j's"
p5994
I124
sS'because'
p5995
I104
sS'scared'
p5996
I120
sS'searching'
p5997
I124
sS"giroud's"
p5998
I124
sS'goodlooking'
p5999
I124
sS'leaf'
p6000
I124
sS'lead'
p6001
I123
sS'outfitters'
p6002
I124
sS'injury.i'
p6003
I124
sS'lean'
p6004
I124
sS'mines'
p6005
I124
sS'bosses'
p6006
I124
sS'ripped'
p6007
I123
sS'werth'
p6008
I124
sS"adrianna's"
p6009
I124
sS'insults'
p6010
I124
sS'rare'
p6011
I124
sS'getting'
p6012
I101
sS'cheif'
p6013
I124
sS'swear'
p6014
I116
sS'bronquitis'
p6015
I124
sS'sweat'
p6016
I124
sS'3/4/5'
p6017
I124
sS'preform'
p6018
I124
sS'weather'
p6019
I123
sS'hotline'
p6020
I124
sS'brush'
p6021
I124
sS'\xe2\x9c\xa8from'
p6022
I124
sS'nuke'
p6023
I124
sS'van'
p6024
I121
sS'crave'
p6025
I124
sS'transfer'
p6026
I124
sS'*'
p6027
I124
sS'kidding'
p6028
I122
sS'intention'
p6029
I124
sS"i've"
p6030
I95
sS'shane'
p6031
I124
sS'bitches'
p6032
I113
sS'volume'
p6033
I124
sS'anoter'
p6034
I124
sS'made'
p6035
I99
sS'hitter'
p6036
I122
sS'whether'
p6037
I124
sS'distract'
p6038
I124
sS'record'
p6039
I121
sS'21:28:34.0,34.19376603,-118.61237917,1351.11,optionszzz\xe2\x98\x80\xef\xb8\x8f,91303\n488161052652081152,andrewnab,2014-07-13'
p6040
I124
sS'cake'
p6041
I121
sS'faggot'
p6042
I122
sS'cmon'
p6043
I124
sS'lady\xe2\x99\xa1beautiful'
p6044
I124
sS'se\xc3\xb1or'
p6045
I124
sS'"so'
p6046
I124
sS'goodness'
p6047
I124
sS'(preferably'
p6048
I124
sS'happen'
p6049
I116
sS'bitchs'
p6050
I124
sS'solarsoft'
p6051
I124
sS'incredible'
p6052
I123
sS',91303\n485327369582821376,bloop_kimmy,2014-07-05'
p6053
I124
sS'boot'
p6054
I124
sS'midnight\xe2\x80\x9d'
p6055
I124
sS'other'
p6056
I103
sS'normal'
p6057
I121
sS'boob'
p6058
I124
sS'deffs'
p6059
I124
sS'20:56:46.0,34.1911659,-118.6060875,1351.11,teach'
p6060
I124
sS'june'
p6061
I123
sS'kinda'
p6062
I119
sS'ramble'
p6063
I124
sS'sass'
p6064
I124
sS'5pmpst'
p6065
I124
s.