(dp0
S''
p1
I4
sS'raining'
p2
I73
sS'showered'
p3
I75
sS'khalil'
p4
I75
sS'figures,91356\n312288031447056386,shany_p,2013-03-14'
p5
I75
sS'yellow'
p6
I74
sS'four'
p7
I75
sS'sleep'
p8
I60
sS'hanging'
p9
I75
sS'liar'
p10
I75
sS'captain'
p11
I75
sS'hate'
p12
I57
sS'(which'
p13
I75
sS'poorly'
p14
I75
sS'guerrero'
p15
I75
sS'buddy'
p16
I74
sS'tweet'
p17
I65
sS'sweetest'
p18
I75
sS'endings'
p19
I75
sS'originality'
p20
I75
sS'bike'
p21
I75
sS"johnson's"
p22
I75
sS'under'
p23
I72
sS'"an'
p24
I75
sS'sorry'
p25
I69
sS'pride'
p26
I74
sS'genesta'
p27
I75
sS'worth'
p28
I72
sS'risk'
p29
I75
sS'deli'
p30
I75
sS'every'
p31
I63
sS'jack'
p32
I75
sS'fireplace'
p33
I75
sS'tickets'
p34
I75
sS'poppa'
p35
I75
sS'school'
p36
I66
sS'molesting'
p37
I75
sS'parrot'
p38
I75
sS'exaggerate'
p39
I75
sS'maksim'
p40
I75
sS'venue'
p41
I75
sS'wednesday'
p42
I75
sS'oooo'
p43
I75
sS'samurai'
p44
I75
sS'unrelated'
p45
I75
sS'red'
p46
I74
sS'glued'
p47
I75
sS'undercover'
p48
I75
sS'enjoy'
p49
I73
sS'"all'
p50
I75
sS'force'
p51
I75
sS'tired'
p52
I71
sS'phones'
p53
I74
sS'vvvvv'
p54
I75
sS'iced'
p55
I75
sS'nail'
p56
I75
sS'second'
p57
I72
sS'street'
p58
I70
sS'7th'
p59
I74
sS'panda'
p60
I75
sS'monster'
p61
I75
sS'even'
p62
I64
sS'christ'
p63
I75
sS'slurpees'
p64
I75
sS'saved'
p65
I75
sS'+'
p66
I74
sS'boogie'
p67
I75
sS'fantab'
p68
I75
sS'lights'
p69
I75
sS'above'
p70
I75
sS'new'
p71
I55
sS'ever'
p72
I60
sS'told'
p73
I69
sS'shutup'
p74
I74
sS'21:32:10.0,34.16314933,-118.53613252,1398.01,really'
p75
I75
sS'mimosas'
p76
I74
sS'pancakes'
p77
I74
sS'never'
p78
I59
sS"jessie's"
p79
I75
sS'here'
p80
I62
sS'dweab'
p81
I75
sS'met'
p82
I71
sS'studio'
p83
I73
sS'active'
p84
I74
sS'aftermath'
p85
I75
sS"aren't"
p86
I73
sS'106'
p87
I75
sS'lyc\xc3\xa9e'
p88
I75
sS'celebration'
p89
I75
sS'stresses'
p90
I75
sS'kids'
p91
I73
sS'daughter'
p92
I74
sS'munez'
p93
I75
sS'items'
p94
I73
sS'k'
p95
I75
sS'jail'
p96
I75
sS'ignoring'
p97
I75
sS'credit'
p98
I75
sS"i'd"
p99
I73
sS'karim'
p100
I75
sS'smoke'
p101
I74
sS'\xe2\x9c\x94\xef\xb8\x8f'
p102
I75
sS"i'm"
p103
I17
sS"someone's"
p104
I73
sS'dre'
p105
I75
sS'slkate'
p106
I75
sS'pleb'
p107
I75
sS'fantastic'
p108
I74
sS'outfit&'
p109
I75
sS'natural'
p110
I75
sS'feelings'
p111
I74
sS'bro'
p112
I69
sS'qui'
p113
I75
sS'insta'
p114
I74
sS'bra'
p115
I75
sS'<3'
p116
I73
sS'sarah'
p117
I73
sS'would'
p118
I56
sS'army'
p119
I75
sS'catchy'
p120
I75
sS'motivate'
p121
I75
sS'bucky'
p122
I75
sS"world's"
p123
I75
sS'kushiyu'
p124
I74
sS'music'
p125
I69
sS'denmark'
p126
I75
sS'tryin'
p127
I74
sS'type'
p128
I75
sS'until'
p129
I74
sS'feeling='
p130
I75
sS'th'
p131
I75
sS'holy'
p132
I74
sS'relax'
p133
I72
sS'successful'
p134
I75
sS'brings'
p135
I75
sS'haha'
p136
I70
sS'award'
p137
I75
sS'phone'
p138
I69
sS'warm'
p139
I75
sS'siblings'
p140
I75
sS'90'
p141
I75
sS'93'
p142
I75
sS'hold'
p143
I74
sS'95'
p144
I75
sS'circumstances'
p145
I75
sS'shoot'
p146
I74
sS'ma'
p147
I73
sS'room'
p148
I71
sS'moviee'
p149
I75
sS'work'
p150
I56
sS'mi'
p151
I75
sS'cant'
p152
I69
sS'mj'
p153
I75
sS'movies'
p154
I75
sS'nairii\xe2\x9d\xa4\xef\xb8\x8f\xe2\x9d\xa4\xef\xb8\x8f'
p155
I75
sS'cuddle'
p156
I75
sS'tinder'
p157
I75
sS'era'
p158
I75
sS'sweeter'
p159
I75
sS'mr'
p160
I73
sS'entertainer'
p161
I75
sS'my'
p162
I6
sS"gabriel's"
p163
I75
sS'piercings'
p164
I75
sS'give'
p165
I67
sS'indie'
p166
I75
sS'"love'
p167
I75
sS'preffered'
p168
I75
sS'foods'
p169
I75
sS'homie'
p170
I75
sS'want'
p171
I41
sS'premium'
p172
I75
sS'not."'
p173
I75
sS'keep'
p174
I67
sS'rescue'
p175
I75
sS'hoe'
p176
I75
sS'end'
p177
I72
sS'thing'
p178
I64
sS'shades\xe2\x80\x9d'
p179
I75
sS'sitting'
p180
I73
sS'nuts'
p181
I73
sS'far'
p182
I74
sS'amazing'
p183
I69
sS'cures'
p184
I75
sS'hop'
p185
I75
sS'answer'
p186
I74
sS'quoi'
p187
I75
sS'beach'
p188
I73
sS'bombbb'
p189
I75
sS'bday'
p190
I74
sS'typed'
p191
I75
sS'after'
p192
I67
sS'whyyyy'
p193
I75
sS'thankyou'
p194
I75
sS'wrong'
p195
I74
sS'fat'
p196
I75
sS'salsa'
p197
I75
sS'las'
p198
I75
sS'purchase'
p199
I74
sS'superbad'
p200
I75
sS'danny'
p201
I75
sS'attempt'
p202
I75
sS'chillen'
p203
I75
sS'wins'
p204
I75
sS'appreciate'
p205
I74
sS'headquarters'
p206
I75
sS'childhood'
p207
I75
sS'waaaaaaaas'
p208
I75
sS'suggest'
p209
I75
sS'worst'
p210
I74
sS'order'
p211
I75
sS'wine'
p212
I75
sS'salon'
p213
I75
sS'office'
p214
I75
sS'dreamed'
p215
I75
sS'over'
p216
I68
sS"mary's"
p217
I75
sS'jacuzzi'
p218
I75
sS'london'
p219
I75
sS'1-10'
p220
I75
sS'concepts"'
p221
I75
sS'fellas'
p222
I75
sS'l.a.hey'
p223
I75
sS'clapped'
p224
I75
sS'before'
p225
I69
sS'personal'
p226
I74
sS'bringing'
p227
I75
sS'writing'
p228
I74
sS'better'
p229
I66
sS'woodranch*'
p230
I75
sS'imy'
p231
I75
sS'weeks'
p232
I71
sS'easier'
p233
I75
sS'hahah'
p234
I73
sS'waffles'
p235
I75
sS'then'
p236
I56
sS'them'
p237
I67
sS'similar'
p238
I75
sS'workout'
p239
I74
sS'break'
p240
I75
sS'effects'
p241
I74
sS'they'
p242
I47
sS'closer'
p243
I75
sS'schools'
p244
I75
sS'one'
p245
I34
sS'silver'
p246
I75
sS'netherlands'
p247
I73
sS'alex'
p248
I68
sS'rocky'
p249
I75
sS'"sawuontweet"'
p250
I75
sS'each'
p251
I72
sS'volcano'
p252
I75
sS'went'
p253
I70
sS'side'
p254
I72
sS'sandi'
p255
I75
sS'mean'
p256
I67
sS'gunna'
p257
I74
sS'companies'
p258
I75
sS'sevinc'
p259
I75
sS'spider'
p260
I74
sS'carry'
p261
I75
sS'trading'
p262
I75
sS'saturday'
p263
I71
sS'whip'
p264
I75
sS'rt'
p265
I69
sS'boohoo'
p266
I75
sS'goo'
p267
I74
sS'weds'
p268
I75
sS',91356\n264916838339723264,shellzone143,2012-11-04'
p269
I75
sS'driving'
p270
I75
sS'god'
p271
I70
sS'psychic'
p272
I75
sS'washed'
p273
I75
sS'hard."'
p274
I75
sS'vessels'
p275
I75
sS'george'
p276
I75
sS're'
p277
I75
sS'everything."'
p278
I75
sS'rare'
p279
I75
sS'smh'
p280
I72
sS'rl'
p281
I75
sS'got'
p282
I39
sS'rn'
p283
I70
sS'millions'
p284
I75
sS'grease'
p285
I75
sS'turning'
p286
I74
sS'cutest'
p287
I75
sS"you're"
p288
I50
sS'chin,91356\n286722778302935040,shany_p,2013-01-03'
p289
I75
sS'fave'
p290
I75
sS'free'
p291
I71
sS'small'
p292
I75
sS'throwbackk'
p293
I75
sS'beanies'
p294
I75
sS'favs'
p295
I75
sS'wanted'
p296
I67
sS'mvp'
p297
I75
sS'delight'
p298
I75
sS'ate'
p299
I72
sS'starts'
p300
I73
sS'raisin'
p301
I75
sS'days'
p302
I65
sS'"this'
p303
I75
sS'renew'
p304
I75
sS'"no'
p305
I75
sS"today's"
p306
I75
sS'jameerzz'
p307
I75
sS'moving'
p308
I75
sS'(as'
p309
I75
sS'fuckin'
p310
I69
sS'already'
p311
I70
sS'kim'
p312
I75
sS'unfollowed'
p313
I75
sS'grade'
p314
I70
sS'cuzzy'
p315
I75
sS'hoop'
p316
I73
sS'ez'
p317
I75
sS'hearing'
p318
I75
sS'pancetta.\xe2\x80\xa6'
p319
I75
sS'another'
p320
I70
sS'comin'
p321
I74
sS'2:00am'
p322
I75
sS'crazyyyyy'
p323
I75
sS'dominating'
p324
I75
sS'popsicles'
p325
I75
sS'brock'
p326
I75
sS'basketball'
p327
I75
sS'girly'
p328
I75
sS'top'
p329
I73
sS'hot<'
p330
I75
sS'girls'
p331
I68
sS'twisted'
p332
I75
sS'elevator'
p333
I75
sS'fuxkin'
p334
I75
sS'twenties'
p335
I75
sS'ton'
p336
I74
sS'too'
p337
I43
sS'tom'
p338
I75
sS'hollywood'
p339
I74
sS'john'
p340
I75
sS'listen'
p341
I74
sS'papazian'
p342
I75
sS'hangout'
p343
I75
sS'chaminaders'
p344
I75
sS'grandchildren'
p345
I75
sS'gym'
p346
I73
sS'dpc818'
p347
I73
sS'took'
p348
I73
sS'trippy'
p349
I74
sS'wisdom'
p350
I75
sS'iloverain04'
p351
I75
sS'exhilarating'
p352
I75
sS'gyu'
p353
I75
sS',91356\n287879662145794049,shany_p,2013-01-06'
p354
I75
sS'),91356\n264228701900795905,shellzone143,2012-11-02'
p355
I75
sS'western'
p356
I75
sS'crawl'
p357
I75
sS'abriv'
p358
I75
sS'begins'
p359
I75
sS'distance'
p360
I75
sS'target'
p361
I75
sS'hike'
p362
I73
sS'yarden'
p363
I75
sS'tree'
p364
I74
sS'likely'
p365
I75
sS'\xd7\x90\xd7\x94\xd7\x91\xd7\xaa'
p366
I75
sS'shower'
p367
I71
sS'merci'
p368
I75
sS'goshgarian'
p369
I75
sS'flame'
p370
I75
sS'williams'
p371
I75
sS'notecards'
p372
I75
sS'feeling'
p373
I71
sS'stacey'
p374
I75
sS'mini'
p375
I75
sS'blackhawks'
p376
I75
sS'sees'
p377
I75
sS'palace'
p378
I75
sS'portraits'
p379
I75
sS"ennis'"
p380
I75
sS'mind'
p381
I74
sS'mine'
p382
I70
sS'spent'
p383
I72
sS'talking'
p384
I68
sS'golriz'
p385
I75
sS'seen'
p386
I75
sS'tells'
p387
I75
sS'up!"'
p388
I75
sS'it\xe2\x80\xa6'
p389
I75
sS'do"'
p390
I75
sS'-'
p391
I70
sS'thorough'
p392
I75
sS'brandon'
p393
I75
sS'okie'
p394
I75
sS'recommended'
p395
I75
sS'derek'
p396
I75
sS'doors'
p397
I75
sS'carolena'
p398
I75
sS'davidson'
p399
I75
sS'nobody'
p400
I73
sS'though'
p401
I73
sS'poker'
p402
I75
sS'germany'
p403
I70
sS'including'
p404
I75
sS'tabling'
p405
I75
sS'unknowingly'
p406
I75
sS'prostitute'
p407
I75
sS'broadcast'
p408
I75
sS'emailing'
p409
I75
sS'professor'
p410
I75
sS'camp'
p411
I74
sS'm'
p412
I75
sS'dog'
p413
I74
sS'yours'
p414
I75
sS'freeway'
p415
I75
sS'definitely'
p416
I72
sS'aunt'
p417
I75
sS'805'
p418
I75
sS'wildcard'
p419
I75
sS'pineapple'
p420
I75
sS'yann'
p421
I75
sS"david's"
p422
I75
sS'hahahahhahahahahha'
p423
I75
sS'came'
p424
I74
sS'saying'
p425
I73
sS'bomb'
p426
I73
sS'lyrics'
p427
I73
sS'alight'
p428
I75
sS'random'
p429
I75
sS'ending'
p430
I75
sS'pops'
p431
I74
sS'prescription'
p432
I75
sS'colors'
p433
I74
sS'probz'
p434
I75
sS'participate'
p435
I75
sS'earth'
p436
I74
sS'enjoyed'
p437
I75
sS'"dont'
p438
I75
sS'busy'
p439
I73
sS'resemblance'
p440
I74
sS'consciousness'
p441
I74
sS'feeel'
p442
I75
sS'louise'
p443
I75
sS'headline'
p444
I75
sS'acne'
p445
I75
sS"baby's"
p446
I75
sS'outhey'
p447
I75
sS'hrs'
p448
I75
sS'appreciated'
p449
I75
sS'about'
p450
I41
sS'rich'
p451
I75
sS'gods'
p452
I75
sS'folks'
p453
I75
sS'announce'
p454
I75
sS'chipotle'
p455
I74
sS'rica'
p456
I75
sS'wearing'
p457
I74
sS'do'
p458
I32
sS'dm'
p459
I75
sS'sense'
p460
I75
sS'wide'
p461
I75
sS'leeroys'
p462
I75
sS'de'
p463
I73
sS'watch'
p464
I69
sS'awesomely'
p465
I75
sS'da'
p466
I72
sS'haunted'
p467
I75
sS'dw'
p468
I74
sS'happiest'
p469
I75
sS'du'
p470
I75
sS"portman's"
p471
I75
sS'tribute'
p472
I75
sS'preemptively'
p473
I75
sS'bat'
p474
I75
sS'bar'
p475
I74
sS'greens'
p476
I75
sS'nicely'
p477
I75
sS'racing'
p478
I75
sS'harmonizing'
p479
I75
sS'par\xc3\xads'
p480
I75
sS'10th-18th'
p481
I75
sS'public'
p482
I75
sS'bag'
p483
I74
sS'bad'
p484
I63
sS'bae'
p485
I72
sS',91356\n289873733009694720,shany_p,2013-01-11'
p486
I75
sS'cocky'
p487
I75
sS'steal'
p488
I75
sS'ears'
p489
I75
sS'respond'
p490
I75
sS'disaster'
p491
I75
sS'reference'
p492
I74
sS'habit'
p493
I75
sS'w/'
p494
I73
sS'testing'
p495
I75
sS'wasup'
p496
I75
sS'goodnight'
p497
I73
sS'decided'
p498
I75
sS'fail'
p499
I75
sS'mea'
p500
I75
sS'best'
p501
I57
sS'subject'
p502
I75
sS'brazil'
p503
I74
sS'said'
p504
I61
sS'cavem'
p505
I75
sS'lots'
p506
I74
sS'away'
p507
I73
sS'rings'
p508
I75
sS'brian."8th'
p509
I75
sS"there's"
p510
I72
sS'sais'
p511
I75
sS'convos??"'
p512
I75
sS'hopefully'
p513
I75
sS'approach'
p514
I75
sS'lazy'
p515
I74
sS'oomf'
p516
I74
sS'omg'
p517
I61
sS'wears'
p518
I75
sS'commence'
p519
I75
sS'however'
p520
I75
sS'boss'
p521
I74
sS'tweeters'
p522
I75
sS'dunnn"'
p523
I75
sS'wear'
p524
I73
sS'wtf'
p525
I71
sS'dedication'
p526
I75
sS'news'
p527
I74
sS'motto'
p528
I75
sS'blasted'
p529
I75
sS'ham'
p530
I75
sS'cop'
p531
I75
sS'tfti'
p532
I75
sS"21:27:46.0,34.14977156,-118.54441023,1398.01,can't"
p533
I75
sS'\xe2\x9d\xa4\xef\xb8\x8f'
p534
I72
sS'country'
p535
I53
sS'ill'
p536
I72
sS'jelly'
p537
I74
sS'against'
p538
I75
sS'cuddles'
p539
I75
sS'players'
p540
I74
sS'games'
p541
I75
sS'gewd'
p542
I75
sS'abriviations'
p543
I75
sS'requests'
p544
I75
sS'argue'
p545
I75
sS'asked'
p546
I74
sS'ily'
p547
I71
sS'shows$$$$$'
p548
I75
sS'character'
p549
I75
sS'2nd'
p550
I75
sS'"and'
p551
I75
sS'club\xe2\x80\xa6'
p552
I75
sS'durants'
p553
I75
sS'diff'
p554
I75
sS'blonde'
p555
I75
sS'bikinis'
p556
I75
sS'smash'
p557
I75
sS'parler'
p558
I75
sS'been'
p559
I53
sS'cyrus'
p560
I75
sS'ting'
p561
I75
sS'commission'
p562
I75
sS'beer'
p563
I75
sS'much'
p564
I58
sS'tina'
p565
I75
sS'lovely'
p566
I75
sS'idol'
p567
I75
sS'website'
p568
I75
sS'life'
p569
I63
sS'ooooo'
p570
I75
sS'drugs'
p571
I73
sS"c'est"
p572
I75
sS'"sorry"'
p573
I75
sS'sooooo'
p574
I75
sS'ariana'
p575
I75
sS'catering'
p576
I75
sS'cheryl'
p577
I75
sS'child'
p578
I75
sS'catch'
p579
I73
sS'worked'
p580
I75
sS'regretted'
p581
I75
sS'hers'
p582
I75
sS'chill'
p583
I71
sS'commerce'
p584
I74
sS'exception'
p585
I74
sS'has'
p586
I59
sS'ahead'
p587
I75
sS'gnt'
p588
I75
sS'newest'
p589
I75
sS'n'
p590
I59
sS'lesser'
p591
I75
sS'ugly'
p592
I74
sS'near'
p593
I75
sS'teachers'
p594
I75
sS'b-day'
p595
I75
sS'stopping'
p596
I75
sS'aid'
p597
I74
sS'cracked'
p598
I75
sS'voice'
p599
I74
sS'skirts'
p600
I75
sS'seven'
p601
I75
sS'"a'
p602
I75
sS'played'
p603
I75
sS'is'
p604
I8
sS'sushi'
p605
I70
sS'bumped'
p606
I75
sS'it'
p607
I12
sS'iv'
p608
I75
sS'jess'
p609
I73
sS'ik'
p610
I75
sS'im'
p611
I63
sS'il'
p612
I74
sS'in'
p613
I11
sS'id'
p614
I74
sS'ig'
p615
I74
sS'if'
p616
I35
sS'memorial'
p617
I75
sS'thingy'
p618
I75
sS'quand'
p619
I75
sS'sleepyhead'
p620
I75
sS'things'
p621
I66
sS'make'
p622
I61
sS'toaster'
p623
I75
sS'112'
p624
I75
sS'forehead'
p625
I75
sS'marathon'
p626
I74
sS'incorrectly'
p627
I74
sS'80s'
p628
I75
sS':(('
p629
I75
sS'toasted'
p630
I75
sS'doobies'
p631
I75
sS'lyf3\xe2\x9c\xa8'
p632
I75
sS'sings'
p633
I75
sS'ella'
p634
I73
sS'social'
p635
I73
sS'hang'
p636
I69
sS'hand'
p637
I71
sS'spelling/'
p638
I75
sS'waterfall'
p639
I75
sS'yakir'
p640
I75
sS'lol\xe2\x80\x9d'
p641
I75
sS'jealous'
p642
I75
sS'caps'
p643
I75
sS'i$'
p644
I75
sS'thoughts'
p645
I75
sS'kid'
p646
I73
sS'fuckboys'
p647
I75
sS'kicked'
p648
I75
sS'thx'
p649
I71
sS'braemar\xe2\x80\xa6'
p650
I75
sS'changes'
p651
I75
sS'dyingggg'
p652
I75
sS'youre'
p653
I75
sS'80%'
p654
I75
sS'climber'
p655
I75
sS'tho'
p656
I71
sS'burgers'
p657
I75
sS'contact'
p658
I75
sS'greatest'
p659
I75
sS'pandora'
p660
I75
sS'mother'
p661
I74
sS'the'
p662
I2
sS'corporate'
p663
I75
sS'musical'
p664
I74
sS'dads'
p665
I75
sS'left'
p666
I71
sS'gift"'
p667
I75
sS'just'
p668
I18
sS'yea'
p669
I74
sS'photo'
p670
I73
sS'unfollow'
p671
I75
sS'sleepy'
p672
I74
sS'hahahha'
p673
I75
sS'assigned'
p674
I75
sS'thanku'
p675
I75
sS'psych'
p676
I75
sS'thanks'
p677
I58
sS'yep'
p678
I74
sS'yes'
p679
I67
sS'"could'
p680
I75
sS'francophiles'
p681
I75
sS'yet'
p682
I69
sS'ilkhani'
p683
I75
sS'hah'
p684
I73
sS'occupee'
p685
I75
sS'hills'
p686
I75
sS'had'
p687
I59
sS'5s'
p688
I75
sS'wings'
p689
I75
sS'shout'
p690
I74
sS'board'
p691
I74
sS'easy'
p692
I73
sS'match'
p693
I73
sS'hat'
p694
I74
sS'gave'
p695
I75
sS'casting'
p696
I75
sS'lol,91356\n311567752269819905,shany_p,2013-03-12'
p697
I75
sS'mayb'
p698
I74
sS'breaks'
p699
I75
sS'rnd'
p700
I75
sS'tmrw'
p701
I74
sS'possibly'
p702
I75
sS'12:35'
p703
I75
sS'poser'
p704
I75
sS'highly'
p705
I75
sS'(tarzana'
p706
I74
sS'dreams'
p707
I74
sS'd'
p708
I75
sS'59'
p709
I75
sS'gift'
p710
I74
sS'texts'
p711
I75
sS'3036'
p712
I75
sS'yarin'
p713
I75
sS'50'
p714
I75
sS'steph'
p715
I75
sS'remind'
p716
I75
sS'peeves'
p717
I75
sS'night'
p718
I54
sS'hung'
p719
I75
sS'class(es)'
p720
I75
sS"lena's"
p721
I75
sS'right'
p722
I59
sS'old'
p723
I70
sS'deal'
p724
I71
sS'people'
p725
I52
sS'dead'
p726
I74
sS'jennifer'
p727
I75
sS'born'
p728
I75
sS'clubs'
p729
I75
sS'dear'
p730
I75
sS'radiohead'
p731
I75
sS'library'
p732
I75
sS'for'
p733
I10
sS"where'd"
p734
I75
sS'etsycheck'
p735
I75
sS'ice'
p736
I74
sS'creative'
p737
I74
sS'everything'
p738
I72
sS'asking'
p739
I75
sS'umm'
p740
I75
sS'slivers'
p741
I75
sS'christmas'
p742
I75
sS'knew'
p743
I75
sS'pls'
p744
I71
sS'-luke'
p745
I75
sS'schoooool'
p746
I75
sS'club)'
p747
I74
sS'plz'
p748
I73
sS'hsm'
p749
I75
sS'discount'
p750
I73
sS'dalti'
p751
I75
sS'defensive'
p752
I75
sS'geodude'
p753
I75
sS'post'
p754
I69
sS"j'etait"
p755
I75
sS'super'
p756
I73
sS'herpes'
p757
I75
sS'"have'
p758
I75
sS'limitation'
p759
I75
sS'necklace'
p760
I75
sS'acquire'
p761
I75
sS'ribs'
p762
I75
sS'dinner'
p763
I68
sS'plus'
p764
I75
sS'afternoon'
p765
I75
sS'definition'
p766
I75
sS'curry'
p767
I75
sS'tonights'
p768
I75
sS'soa'
p769
I75
sS'fran\xc3\xa7ais'
p770
I75
sS'sob'
p771
I75
sS'sheets'
p772
I75
sS'selfie'
p773
I74
sS'ppl'
p774
I73
sS'down'
p775
I58
sS'deena'
p776
I75
sS'sos'
p777
I75
sS'mangos'
p778
I75
sS'wrap'
p779
I75
sS'procrastinator'
p780
I75
sS'snowpiercer'
p781
I75
sS'hashflag'
p782
I75
sS'east'
p783
I75
sS'undiscovered'
p784
I75
sS'support'
p785
I75
sS'tennis'
p786
I74
sS'jealousy'
p787
I75
sS'fight'
p788
I72
sS'gig'
p789
I75
sS'absolutely'
p790
I73
sS'editor'
p791
I75
sS'way'
p792
I66
sS'greatness'
p793
I75
sS'call'
p794
I74
sS'wat'
p795
I73
sS'was'
p796
I21
sS'farfaellla'
p797
I75
sS'happy'
p798
I45
sS'head'
p799
I73
sS'yolo'
p800
I73
sS'northridge'
p801
I75
sS'form'
p802
I74
sS'batman'
p803
I75
sS'tigers'
p804
I75
sS'gorgeous'
p805
I74
sS'heat'
p806
I71
sS'hear'
p807
I73
sS'leep'
p808
I75
sS'true'
p809
I67
sS'renee'
p810
I75
sS'b4'
p811
I75
sS'congratulations'
p812
I75
sS'responding'
p813
I75
sS'ami'
p814
I75
sS'input'
p815
I75
sS'happen'
p816
I75
sS"else's"
p817
I75
sS'tell'
p818
I61
sS'montage'
p819
I75
sS'mighty'
p820
I75
sS'cosmos'
p821
I75
sS'pixar'
p822
I75
sS'going,91356\n320295180529987584,shany_p,2013-04-05'
p823
I75
sS'delete'
p824
I75
sS'phil'
p825
I74
sS'classic'
p826
I75
sS'drive'
p827
I71
sS'take\xe2\x80\xa6'
p828
I75
sS'sometime'
p829
I75
sS'exist'
p830
I75
sS'prayer'
p831
I75
sS'tea'
p832
I75
sS'blueberry'
p833
I75
sS'annoying'
p834
I72
sS'wedding\xe2\x99\x8e\xef\xb8\x8f'
p835
I75
sS'check'
p836
I72
sS'shit'
p837
I51
sS'physical'
p838
I75
sS'lungs'
p839
I75
sS'dying'
p840
I74
sS'no'
p841
I45
sS'na'
p842
I75
sS'street\xe2\x80\xa6'
p843
I75
sS'when'
p844
I33
sS'ne'
p845
I75
sS'handed'
p846
I75
sS'reality'
p847
I74
sS'tim'
p848
I75
sS'setting'
p849
I75
sS'test'
p850
I75
sS'ferrari'
p851
I75
sS'nt'
p852
I75
sS'roll'
p853
I70
sS'meeeee'
p854
I75
sS'picture'
p855
I73
sS'video!2'
p856
I75
sS'brothers'
p857
I74
sS'robbins'
p858
I75
sS'felt'
p859
I74
sS'weirdest'
p860
I75
sS'diet'
p861
I75
sS'hahahah'
p862
I75
sS"let's"
p863
I71
sS'write-up'
p864
I75
sS'fell'
p865
I73
sS'brightens'
p866
I75
sS'rolling'
p867
I74
sS'gettysburger'
p868
I74
sS'weekend'
p869
I68
sS'hyundais'
p870
I75
sS'nxt'
p871
I72
sS"mike's"
p872
I75
sS'together'
p873
I73
sS"n'"
p874
I74
sS'reception'
p875
I75
sS'time'
p876
I40
sS'serious'
p877
I75
sS'songs'
p878
I74
sS'neighbors'
p879
I75
sS':/'
p880
I74
sS':('
p881
I65
sS':)'
p882
I61
sS'themed'
p883
I75
sS'cking'
p884
I75
sS'lemings'
p885
I75
sS'leads'
p886
I75
sS'roy'
p887
I74
sS'mile'
p888
I75
sS'skiing'
p889
I74
sS'battle'
p890
I75
sS'abundant'
p891
I75
sS'skid'
p892
I75
sS'row'
p893
I73
sS'21st'
p894
I75
sS'meryl'
p895
I75
sS'tounge'
p896
I75
sS'certification'
p897
I75
sS'father'
p898
I75
sS'pen'
p899
I75
sS'818'
p900
I75
sS'finally'
p901
I70
sS'ucsb'
p902
I75
sS'promoting'
p903
I75
sS'oneloveny'
p904
I75
sS'marks'
p905
I75
sS'must'
p906
I74
sS"band's"
p907
I75
sS'me'
p908
I13
sS'looking\xe2\x80\xa6'
p909
I75
sS"we've"
p910
I75
sS'bluffs'
p911
I75
sS'none'
p912
I75
sS'unfamiliar'
p913
I75
sS'tacos'
p914
I75
sS'companydelivery'
p915
I75
sS'vegas'
p916
I73
sS'anonymous'
p917
I75
sS'artwork'
p918
I75
sS'cook'
p919
I75
sS'join'
p920
I73
sS'exact'
p921
I75
sS'cool'
p922
I68
sS'dating'
p923
I75
sS'clouds'
p924
I75
sS'eden'
p925
I75
sS'did'
p926
I48
sS'die'
p927
I72
sS'brother'
p928
I73
sS'leave'
p929
I72
sS'p'
p930
I75
sS'soooo'
p931
I73
sS'thanksgivukkah'
p932
I75
sS'team'
p933
I72
sS'quick'
p934
I73
sS'guy'
p935
I71
sS'round'
p936
I72
sS'added'
p937
I75
sS"it'll"
p938
I75
sS'shave'
p939
I74
sS'pork'
p940
I75
sS'says'
p941
I75
sS'porn'
p942
I75
sS'trend'
p943
I75
sS'electric"'
p944
I75
sS'prediction'
p945
I75
sS'shirts'
p946
I75
sS'tooooooooooo'
p947
I75
sS'eating'
p948
I73
sS'bake'
p949
I74
sS'rough'
p950
I75
sS'jealo'
p951
I75
sS'kiyomi'
p952
I75
sS'jeopardy'
p953
I71
sS'deleted'
p954
I74
sS'hungry'
p955
I75
sS'nebraska'
p956
I75
sS'axel'
p957
I75
sS'goes'
p958
I72
sS'reply'
p959
I74
sS'falling'
p960
I73
sS'ground'
p961
I75
sS'ridic'
p962
I75
sS'gawd'
p963
I74
sS'weezy'
p964
I75
sS'grandparents'
p965
I75
sS'hairs'
p966
I75
sS'makeup'
p967
I75
sS'obsession,91356\n286680608137162752,shany_p,2013-01-03'
p968
I75
sS'ridin'
p969
I75
sS'french'
p970
I74
sS"madonna's"
p971
I75
sS'water'
p972
I74
sS'<<<<'
p973
I75
sS'elses'
p974
I75
sS'alone'
p975
I70
sS'along'
p976
I75
sS'bk'
p977
I75
sS'teaches'
p978
I75
sS'earthquake'
p979
I73
sS'change'
p980
I75
sS'wait'
p981
I61
sS'box'
p982
I74
sS'boy'
p983
I70
sS'hotties'
p984
I75
sS'brilliant'
p985
I75
sS'shift'
p986
I75
sS'strudel'
p987
I75
sS'cassius'
p988
I75
sS'lakers'
p989
I75
sS'expulsion'
p990
I75
sS'accomplished'
p991
I75
sS'sentences)'
p992
I75
sS'exams'
p993
I75
sS'bon'
p994
I75
sS'boo'
p995
I74
sS'usually'
p996
I75
sS'tha'
p997
I75
sS'bob'
p998
I74
sS"reminiscin'"
p999
I75
sS'bruised'
p1000
I75
sS'montreal'
p1001
I75
sS'bammausa'
p1002
I75
sS'love'
p1003
I28
sS'hiking'
p1004
I75
sS'extra'
p1005
I74
sS'darkskin'
p1006
I75
sS'prefer'
p1007
I75
sS'fuck.cant'
p1008
I75
sS'guysalways'
p1009
I75
sS'fake'
p1010
I74
sS'crisis'
p1011
I75
sS'market'
p1012
I75
sS'cucaine'
p1013
I75
sS'working'
p1014
I68
sS'baes'
p1015
I74
sS'aye'
p1016
I75
sS'bury'
p1017
I75
sS'angry'
p1018
I75
sS'visit'
p1019
I70
sS'by'
p1020
I56
sS'voudrais'
p1021
I75
sS'live'
p1022
I69
sS'jam'
p1023
I75
sS'iphone'
p1024
I74
sS'flaunting'
p1025
I75
sS'mediocre'
p1026
I75
sS'thru'
p1027
I74
sS'angels'
p1028
I75
sS'today'
p1029
I52
sS"sum'n"
p1030
I75
sS'scratched'
p1031
I75
sS'it\xe2\x9d\x97'
p1032
I75
sS"brazil's"
p1033
I75
sS'chella'
p1034
I75
sS'club'
p1035
I52
sS'suggestions'
p1036
I75
sS'chocolate'
p1037
I75
sS'----'
p1038
I75
sS'vmas'
p1039
I75
sS'everywhere'
p1040
I75
sS'wowowowow'
p1041
I75
sS'\xe2\x9d\xa4\xef\xb8\x8f\xe2\x9d\xa4\xef\xb8\x8f'
p1042
I74
sS'cmon'
p1043
I75
sS'(anywhere'
p1044
I75
sS'fly'
p1045
I75
sS'milads'
p1046
I75
sS'niggas'
p1047
I74
sS'julius'
p1048
I75
sS'car'
p1049
I67
sS'flw'
p1050
I74
sS'cat'
p1051
I72
sS'soup'
p1052
I75
sS'can'
p1053
I41
sS'following'
p1054
I75
sS'making'
p1055
I71
sS'texted'
p1056
I75
sS'heart'
p1057
I74
sS'crazy'
p1058
I74
sS'stream'
p1059
I74
sS'awesome'
p1060
I66
sS'nemo'
p1061
I75
sS"didn't"
p1062
I68
sS'fuck'
p1063
I59
sS'agent'
p1064
I75
sS'topic'
p1065
I75
sS'heard'
p1066
I75
sS'whhhha'
p1067
I75
sS'something??"'
p1068
I75
sS'purity'
p1069
I75
sS"guy's"
p1070
I75
sS'pond'
p1071
I75
sS'gar\xc3\xa7on'
p1072
I75
sS'spa'
p1073
I75
sS'counting'
p1074
I75
sS'stole'
p1075
I75
sS'spiderman'
p1076
I75
sS'winter'
p1077
I75
sS'parsarico'
p1078
I75
sS'discussion'
p1079
I75
sS'means'
p1080
I75
sS'cliche'
p1081
I75
sS'gasol'
p1082
I75
sS'write'
p1083
I73
sS'till'
p1084
I74
sS'sunday'
p1085
I71
sS'sword'
p1086
I75
sS'\xe2\x9d\xa4\xef\xb8\x8f\xe2\x9d\xa4\xef\xb8\x8f\xe2\x9d\xa4\xef\xb8\x8f'
p1087
I75
sS'anime'
p1088
I75
sS'map'
p1089
I75
sS'staying'
p1090
I75
sS'huge'
p1091
I75
sS'may'
p1092
I68
sS'prezi'
p1093
I75
sS'southern'
p1094
I75
sS'crashed'
p1095
I75
sS'birthday'
p1096
I57
sS'mad'
p1097
I72
sS'date'
p1098
I73
sS'such'
p1099
I72
sS'suck'
p1100
I73
sS'guys'
p1101
I58
sS'grow'
p1102
I75
sS'man'
p1103
I61
sS'stress'
p1104
I75
sS'mayo'
p1105
I75
sS'remember'
p1106
I71
sS'whenever'
p1107
I73
sS'maybe'
p1108
I72
sS'20:20:33.0,34.14978811,-118.54436873,1398.01,what'
p1109
I75
sS'francais'
p1110
I75
sS'si'
p1111
I75
sS'cannot'
p1112
I75
sS'so'
p1113
I15
sS'automatically'
p1114
I75
sS'sb'
p1115
I73
sS'pulled'
p1116
I75
sS'sf'
p1117
I74
sS'talk'
p1118
I71
sS'nearly'
p1119
I75
sS'cute'
p1120
I65
sS'shoes'
p1121
I75
sS'johny'
p1122
I75
sS'spitting'
p1123
I75
sS'around"'
p1124
I75
sS'wishing'
p1125
I75
sS'cotten'
p1126
I75
sS"o's"
p1127
I75
sS'years'
p1128
I71
sS'professors'
p1129
I75
sS'brain'
p1130
I75
sS'episodes'
p1131
I75
sS'shabby,91356\n286747293703602176,shany_p,2013-01-03'
p1132
I75
sS'lyric'
p1133
I74
sS'shake'
p1134
I74
sS'bishhhh'
p1135
I75
sS'cold'
p1136
I75
sS'still'
p1137
I56
sS'sjnce'
p1138
I75
sS'birthdayy'
p1139
I75
sS'thank'
p1140
I53
sS'mais'
p1141
I74
sS'how'
p1142
I38
sS'interesting'
p1143
I74
sS'jim'
p1144
I75
sS'proposed'
p1145
I75
sS'hot'
p1146
I71
sS'lyin'
p1147
I75
sS'window'
p1148
I75
sS'nsa'
p1149
I75
sS'tweets'
p1150
I72
sS'mail'
p1151
I75
sS"\xe2\x98\x80\xef\xb8\x8fcan't"
p1152
I75
sS'swans'
p1153
I75
sS'apel'
p1154
I75
sS'visiting'
p1155
I75
sS'petition'
p1156
I75
sS'happened'
p1157
I70
sS'lonely'
p1158
I75
sS'emailed'
p1159
I75
sS'freshly'
p1160
I75
sS'views'
p1161
I75
sS'moms'
p1162
I74
sS'recipes'
p1163
I75
sS'killer'
p1164
I75
sS'sarcastic'
p1165
I75
sS'feelin'
p1166
I74
sS'underneath'
p1167
I75
sS'lunch'
p1168
I74
sS'srsly'
p1169
I75
sS'half'
p1170
I72
sS'not'
p1171
I29
sS'ahah'
p1172
I75
sS'nov'
p1173
I74
sS'now'
p1174
I44
sS'killed'
p1175
I75
sS'nor'
p1176
I75
sS'josh'
p1177
I75
sS'wont'
p1178
I75
sS'term'
p1179
I74
sS'name'
p1180
I66
sS'clutch'
p1181
I74
sS're-downloaded'
p1182
I75
sS'drop'
p1183
I72
sS'47'
p1184
I75
sS'calabasas'
p1185
I71
sS'selters'
p1186
I75
sS'injury'
p1187
I75
sS'em'
p1188
I66
sS'lowkey'
p1189
I75
sS'-white'
p1190
I75
sS'receipt'
p1191
I75
sS'directing'
p1192
I75
sS'yeah'
p1193
I74
sS'sideswiped'
p1194
I75
sS'persian'
p1195
I74
sS'feeeel'
p1196
I75
sS'sponsor'
p1197
I75
sS'year'
p1198
I62
sS'ft'
p1199
I75
sS'girl'
p1200
I64
sS'worried'
p1201
I75
sS'obsession'
p1202
I75
sS'disasters'
p1203
I75
sS'surprise'
p1204
I75
sS'tried'
p1205
I75
sS'album'
p1206
I74
sS'living'
p1207
I74
sS'accomplish'
p1208
I75
sS'jackson'
p1209
I75
sS'3rd'
p1210
I75
sS'space'
p1211
I75
sS',91356\n286690321893564416,shany_p,2013-01-03'
p1212
I75
sS'irony'
p1213
I75
sS'factory'
p1214
I75
sS'looking'
p1215
I69
sS'seriously'
p1216
I73
sS'miles'
p1217
I75
sS'internet'
p1218
I75
sS"rachel's"
p1219
I75
sS'correct'
p1220
I74
sS'shows'
p1221
I71
sS'exactly'
p1222
I75
sS'sxsw'
p1223
I75
sS'bolts'
p1224
I75
sS'cars'
p1225
I75
sS'million'
p1226
I75
sS'boobs'
p1227
I75
sS'albuquerque'
p1228
I75
sS'cart'
p1229
I75
sS'quite'
p1230
I73
sS'mercedes'
p1231
I75
sS'california'
p1232
I73
sS'crazier'
p1233
I74
sS'grandma'
p1234
I75
sS'scarred'
p1235
I75
sS'card'
p1236
I74
sS'care'
p1237
I71
sS'training'
p1238
I74
sS'language'
p1239
I75
sS'<'
p1240
I75
sS'yup'
p1241
I75
sS'100%'
p1242
I75
sS'british'
p1243
I75
sS'turn'
p1244
I71
sS'butterflies'
p1245
I75
sS'place'
p1246
I72
sS'massive'
p1247
I75
sS'virginity'
p1248
I75
sS'turd'
p1249
I74
sS'think'
p1250
I50
sS'waited'
p1251
I75
sS'first'
p1252
I65
sS'wuteva'
p1253
I75
sS'cheese'
p1254
I74
sS'flying'
p1255
I75
sS'xo'
p1256
I72
sS'occupations'
p1257
I75
sS'xoxo'
p1258
I75
sS'rachel'
p1259
I74
sS'yourself'
p1260
I71
sS'your\xe2\x80\xa6'
p1261
I75
sS'fast'
p1262
I74
sS'spanish'
p1263
I75
sS'vote'
p1264
I75
sS'impossible'
p1265
I74
sS'sounds'
p1266
I68
sS'drove'
p1267
I74
sS'open'
p1268
I72
sS'tomorrow'
p1269
I62
sS'size'
p1270
I75
sS'city'
p1271
I65
sS'little'
p1272
I68
sS'quality'
p1273
I75
sS'stuck'
p1274
I75
sS'card"'
p1275
I75
sS'1k'
p1276
I75
sS'jony'
p1277
I75
sS'anyone'
p1278
I68
sS'2'
p1279
I55
sS'imma'
p1280
I75
sS'white'
p1281
I69
sS'turnovers'
p1282
I75
sS'friend'
p1283
I69
sS'eyes'
p1284
I73
sS'treasurie,91356\n264904555253334018,shellzone143,2012-11-04'
p1285
I75
sS'that'
p1286
I16
sS'season'
p1287
I74
sS'huh'
p1288
I75
sS'hut'
p1289
I75
sS'ridiculous'
p1290
I75
sS'gad'
p1291
I75
sS'flowers'
p1292
I75
sS'than'
p1293
I59
sS'boyfriend'
p1294
I74
sS'11'
p1295
I73
sS'10'
p1296
I73
sS'13'
p1297
I75
sS'12'
p1298
I72
sS'15'
p1299
I72
sS'lmao'
p1300
I67
sS'17'
p1301
I74
sS'16'
p1302
I75
sS'19'
p1303
I74
sS'18'
p1304
I75
sS'gotta'
p1305
I67
sS'handmade'
p1306
I75
sS'ventura'
p1307
I74
sS'r'
p1308
I70
sS'purposely'
p1309
I75
sS'were'
p1310
I62
sS'cards'
p1311
I75
sS'asleep'
p1312
I73
sS'you--'
p1313
I75
sS'and'
p1314
I7
sS'real\xe2\x80\x9d'
p1315
I75
sS'nicer'
p1316
I74
sS'cheri'
p1317
I75
sS'18:23:16.0,34.14975153,-118.54413429,1398.01,and'
p1318
I75
sS'turned'
p1319
I74
sS'slap'
p1320
I74
sS'sad'
p1321
I74
sS'dash'
p1322
I74
sS'woah'
p1323
I75
sS'say'
p1324
I70
sS'friend\xe2\x9d\xa4\xef\xb8\x8f'
p1325
I75
sS'rent'
p1326
I75
sS'breakfast'
p1327
I73
sS'saw'
p1328
I70
sS'any'
p1329
I67
sS'kevin'
p1330
I75
sS'sat'
p1331
I75
sS',91356\n289859314804473856,shany_p,2013-01-11'
p1332
I75
sS'zod'
p1333
I75
sS'zoe'
p1334
I75
sS'wcw'
p1335
I74
sS'gaybors'
p1336
I75
sS'answering'
p1337
I74
sS'note'
p1338
I75
sS'hookah'
p1339
I71
sS'take'
p1340
I65
sS'online'
p1341
I73
sS'wanting'
p1342
I75
sS'blunt'
p1343
I75
sS'$200'
p1344
I75
sS'urge'
p1345
I75
sS'sure'
p1346
I67
sS'multiple'
p1347
I75
sS'theatre'
p1348
I75
sS'sherman'
p1349
I75
sS'paid'
p1350
I75
sS'insanity'
p1351
I75
sS'importantly'
p1352
I75
sS'voice*'
p1353
I75
sS'egyptian'
p1354
I75
sS'america'
p1355
I74
sS'pages'
p1356
I74
sS'voice"'
p1357
I75
sS'especially'
p1358
I75
sS'considered'
p1359
I75
sS'uses'
p1360
I75
sS'proud'
p1361
I73
sS'sale'
p1362
I70
sS'beaded'
p1363
I73
sS'pic.maybe'
p1364
I75
sS'sunset'
p1365
I74
sS'uncle'
p1366
I72
sS'senior'
p1367
I74
sS'itttttt,91356\n316952115723526144,shany_p,2013-03-27'
p1368
I75
sS'pi\xc3\xb1a'
p1369
I75
sS'shop'
p1370
I68
sS'walking'
p1371
I74
sS'medalist'
p1372
I75
sS'shot'
p1373
I74
sS'behb'
p1374
I74
sS'\xe2\x9c\xa8muzic'
p1375
I75
sS'show'
p1376
I68
sS'tko'
p1377
I74
sS'fifty'
p1378
I75
sS'"boy'
p1379
I75
sS'\xe2\x9d\xa4\xef\xb8\x8fme'
p1380
I75
sS'corner'
p1381
I75
sS'trop'
p1382
I73
sS'takin'
p1383
I73
sS'crashing'
p1384
I74
sS',91356\n288912515692384256,shany_p,2013-01-09'
p1385
I75
sS'snack'
p1386
I75
sS'ratio'
p1387
I75
sS'\xe2\x9c\x8b'
p1388
I75
sS'knicks'
p1389
I74
sS'daily'
p1390
I75
sS'dick'
p1391
I74
sS'3'
p1392
I68
sS"mornin'"
p1393
I75
sS'\xe2\x9d\x8c\xe2\xad\x95\xe2\x9d\x8c'
p1394
I75
sS'only'
p1395
I59
sS'going'
p1396
I51
sS'black'
p1397
I72
sS'hockey'
p1398
I74
sS'travesty'
p1399
I75
sS'germs'
p1400
I75
sS'stain'
p1401
I75
sS'awareness'
p1402
I75
sS'pumpkin'
p1403
I75
sS'josiah'
p1404
I63
sS'closed'
p1405
I75
sS'get'
p1406
I36
sS'witness'
p1407
I75
sS'8-10'
p1408
I75
sS'killers'
p1409
I74
sS'negative'
p1410
I75
sS'bracelets'
p1411
I74
sS'meatpalooza'
p1412
I75
sS'laguna'
p1413
I75
sS'pathetic\xe2\x80\x9d'
p1414
I75
sS'freaking'
p1415
I75
sS'regarding'
p1416
I75
sS'happyyy'
p1417
I75
sS'artist'
p1418
I75
sS'17:30:22.0,34.14966997,-118.54424913,1398.01,s/o'
p1419
I75
sS'"cute'
p1420
I75
sS'morning'
p1421
I68
sS":'("
p1422
I75
sS'stupid'
p1423
I72
sS"could've"
p1424
I75
sS'worries'
p1425
I75
sS'scott'
p1426
I74
sS'finishing'
p1427
I75
sS'23:40:05.0,34.14964604,-118.5441452,1398.01,lil'
p1428
I75
sS'where'
p1429
I66
sS'husband'
p1430
I75
sS"y'all"
p1431
I75
sS'concert'
p1432
I70
sS'lazy\xe2\x80\x9d'
p1433
I75
sS'favorite!!better'
p1434
I75
sS"hasn't"
p1435
I75
sS'domoreofwhat'
p1436
I75
sS'lyfe'
p1437
I74
sS'college'
p1438
I74
sS'parking'
p1439
I75
sS'encouraged'
p1440
I75
sS'24/7'
p1441
I74
sS'chaminade'
p1442
I75
sS'up,91356\n301787968723636226,shany_p,2013-02-13'
p1443
I75
sS'enough'
p1444
I71
sS'gaga'
p1445
I75
sS'between'
p1446
I75
sS'that!!,91356\n286689112780591104,shany_p,2013-01-03'
p1447
I75
sS'reading'
p1448
I74
sS'across'
p1449
I74
sS'whispered'
p1450
I75
sS'august'
p1451
I75
sS'jt'
p1452
I75
sS'omfggg'
p1453
I75
sS'jv'
p1454
I75
sS'jp'
p1455
I74
sS'biebers'
p1456
I74
sS'jr'
p1457
I75
sS'killing'
p1458
I75
sS'blame'
p1459
I74
sS'ahahahahahh'
p1460
I75
sS'awards'
p1461
I75
sS'jj'
p1462
I75
sS'jk'
p1463
I75
sS'je'
p1464
I73
sS'tub'
p1465
I75
sS'come'
p1466
I56
sS"reddit's"
p1467
I75
sS'guitar'
p1468
I74
sS'daddy'
p1469
I75
sS'superstar'
p1470
I75
sS'moon"'
p1471
I75
sS'many'
p1472
I64
sS'somewhere'
p1473
I75
sS's'
p1474
I74
sS'buddie'
p1475
I75
sS'expression'
p1476
I75
sS"can't"
p1477
I56
sS'assignment/essay/project'
p1478
I75
sS'cancer'
p1479
I73
sS'ilarkin'
p1480
I75
sS'color'
p1481
I73
sS'jaunts'
p1482
I75
sS'undercover"'
p1483
I75
sS'period'
p1484
I75
sS'ants'
p1485
I75
sS'pleeezz'
p1486
I75
sS'pole'
p1487
I75
sS'learning'
p1488
I75
sS'article'
p1489
I75
sS'polo'
p1490
I75
sS'"grasp'
p1491
I75
sS'crew'
p1492
I73
sS'consider'
p1493
I75
sS'boat'
p1494
I75
sS'save'
p1495
I75
sS'punisher'
p1496
I75
sS'cycling'
p1497
I75
sS'"waiting'
p1498
I75
sS'west'
p1499
I74
sS'50%'
p1500
I65
sS'carey'
p1501
I75
sS'gd'
p1502
I75
sS'likewise'
p1503
I75
sS'guys48hrs'
p1504
I75
sS'sesh'
p1505
I75
sS'tyga'
p1506
I75
sS'wants'
p1507
I73
sS'shopping'
p1508
I74
sS'precautions'
p1509
I75
sS'elvis'
p1510
I74
sS'bms'
p1511
I74
sS'dramatic'
p1512
I74
sS'wake'
p1513
I71
sS'hashtag'
p1514
I75
sS'"who'
p1515
I75
sS'laying'
p1516
I75
sS'former'
p1517
I75
sS'those'
p1518
I63
sS'^'
p1519
I75
sS'sound'
p1520
I71
sS'myself'
p1521
I68
sS'soccer'
p1522
I74
sS'disconnected'
p1523
I75
sS'onesie'
p1524
I74
sS'these'
p1525
I65
sS'genious'
p1526
I75
sS'ratchet'
p1527
I75
sS'life"'
p1528
I75
sS'newspaper'
p1529
I75
sS'cls'
p1530
I75
sS'invited'
p1531
I74
sS'coolest'
p1532
I75
sS"papi's"
p1533
I75
sS'ive'
p1534
I73
sS'seahawks'
p1535
I75
sS'bathrooms'
p1536
I75
sS'coffee'
p1537
I73
sS'sleeping'
p1538
I75
sS'sprained'
p1539
I75
sS'middle'
p1540
I73
sS'good'
p1541
I36
sS'punched'
p1542
I75
sS'tri-tip'
p1543
I75
sS'urkle'
p1544
I75
sS'return'
p1545
I75
sS'everyday'
p1546
I74
sS'worry'
p1547
I71
sS'don\xe2\x80\x99t.\xe2\x80\x9d'
p1548
I75
sS'different'
p1549
I75
sS'pas'
p1550
I73
sS'verified'
p1551
I74
sS'april'
p1552
I75
sS'where?,91356\n304289939699417089,shany_p,2013-02-20'
p1553
I75
sS'pay'
p1554
I73
sS'nighter'
p1555
I75
sS'$24'
p1556
I75
sS'same'
p1557
I67
sS'mole'
p1558
I75
sS'\xe2\x9d\x8c\xe2\xad\x95\xe2\x9d\x8c\xe2\xad\x95\xe2\x9d\x8c\xe2\xad\x95\xe2\x9d\x8c\xe2\xad\x95\xe2\x9d\x8c\xe2\xad\x95\xe2\x9d\x8c\xe2\xad\x95'
p1559
I75
sS'food'
p1560
I75
sS'followers'
p1561
I75
sS'suprz'
p1562
I75
sS'dealt'
p1563
I75
sS'week'
p1564
I71
sS'nest'
p1565
I74
sS'assist'
p1566
I75
sS'driver'
p1567
I75
sS'weed'
p1568
I75
sS'only,91356\n264851833909030912,shellzone143,2012-11-03'
p1569
I75
sS'running'
p1570
I75
sS'fruit'
p1571
I75
sS'totally'
p1572
I75
sS'hummingbird'
p1573
I75
sS'costa'
p1574
I74
sS'out-nike'
p1575
I75
sS'nothin'
p1576
I74
sS'without'
p1577
I72
sS'comes'
p1578
I73
sS'cicis'
p1579
I75
sS'btwn'
p1580
I75
sS'"friends"'
p1581
I75
sS'04:50:25.0,34.15287154,-118.54477998,1398.01,support'
p1582
I75
sS'commercials'
p1583
I75
sS'starbucks'
p1584
I75
sS'honesty'
p1585
I75
sS'summer'
p1586
I63
sS'realest'
p1587
I74
sS'\xe2\x98\xba\xef\xb8\x8f'
p1588
I72
sS'being'
p1589
I62
sS'nd'
p1590
I75
sS'toby'
p1591
I75
sS'rest'
p1592
I70
sS'foot'
p1593
I75
sS'(i'
p1594
I75
sS'kill'
p1595
I73
sS'greetings'
p1596
I75
sS'ps2'
p1597
I75
sS'blondes'
p1598
I75
sS'announcement'
p1599
I74
sS'death'
p1600
I75
sS'clueless'
p1601
I75
sS'ny'
p1602
I75
sS'thinking'
p1603
I67
sS'rose'
p1604
I74
sS'lolllll'
p1605
I75
sS'seems'
p1606
I74
sS'except'
p1607
I74
sS'\xd7\x92\xd7\x9d'
p1608
I75
sS'blog'
p1609
I71
sS'lets'
p1610
I68
sS'interested'
p1611
I75
sS'9:30'
p1612
I75
sS'4'
p1613
I66
sS'swim'
p1614
I72
sS'sanett'
p1615
I75
sS'around'
p1616
I70
sS'amo'
p1617
I75
sS'overused'
p1618
I75
sS'read'
p1619
I71
sS'mittleman'
p1620
I75
sS"roshe's"
p1621
I75
sS'fridge'
p1622
I75
sS'gonna'
p1623
I52
sS'early'
p1624
I70
sS'np'
p1625
I75
sS'moi'
p1626
I75
sS'traffic'
p1627
I73
sS'mon'
p1628
I73
sS'listening'
p1629
I74
sS'grammar'
p1630
I73
sS'lady'
p1631
I74
sS'furniture'
p1632
I75
sS'towel'
p1633
I75
sS'hoodnight'
p1634
I75
sS'bracelet'
p1635
I74
sS'lightning'
p1636
I75
sS'tsunami'
p1637
I75
sS'"seriously'
p1638
I75
sS't'
p1639
I74
sS'whatcha'
p1640
I75
sS'tower'
p1641
I75
sS'passionate'
p1642
I75
sS'clap'
p1643
I75
sS'jews'
p1644
I73
sS'joking'
p1645
I75
sS'"omg'
p1646
I75
sS'movies/shows/documentaries'
p1647
I75
sS'calling'
p1648
I75
sS'princess,91356\n316952458280714241,shany_p,2013-03-27'
p1649
I75
sS'kings'
p1650
I74
sS'duration'
p1651
I75
sS'06:07:01.0,34.15239379,-118.53799396,1398.01,in'
p1652
I75
sS'thinks'
p1653
I75
sS'yesss'
p1654
I75
sS'gross'
p1655
I74
sS'regina'
p1656
I75
sS'slice'
p1657
I75
sS'mood'
p1658
I74
sS'memories'
p1659
I74
sS'tuba'
p1660
I75
sS'moon'
p1661
I75
sS'particularly'
p1662
I75
sS'outa'
p1663
I75
sS'poli'
p1664
I75
sS'expressing'
p1665
I75
sS'435'
p1666
I75
sS'kacy'
p1667
I75
sS'refer'
p1668
I75
sS'vistas'
p1669
I75
sS'welcome'
p1670
I75
sS'business'
p1671
I73
sS'asap'
p1672
I75
sS'lmfao'
p1673
I73
sS'nails'
p1674
I75
sS'fitness'
p1675
I75
sS'miscellaneous'
p1676
I75
sS'broken'
p1677
I75
sS'hectic'
p1678
I73
sS'stops'
p1679
I75
sS'leftover'
p1680
I75
sS';)'
p1681
I72
sS';('
p1682
I73
sS'brighton'
p1683
I75
sS'on'
p1684
I14
sS'jeez'
p1685
I75
sS'ok'
p1686
I66
sS'oh'
p1687
I60
sS'"gorgeous'
p1688
I75
sS'of'
p1689
I9
sS'industry'
p1690
I75
sS'marc'
p1691
I75
sS'favorite'
p1692
I66
sS'brittany'
p1693
I75
sS'meal'
p1694
I73
sS'chop'
p1695
I75
sS'stand'
p1696
I75
sS'pockets'
p1697
I75
sS'act'
p1698
I75
sS'out)'
p1699
I75
sS'luck'
p1700
I70
sS'or'
p1701
I37
sS'amber'
p1702
I75
sS'lands'
p1703
I75
sS'tweetin'
p1704
I75
sS'spreading'
p1705
I75
sS'snapchat'
p1706
I72
sS'accounts'
p1707
I75
sS'darren'
p1708
I75
sS'shock'
p1709
I75
sS'parties'
p1710
I75
sS'gopos....im'
p1711
I75
sS'youu'
p1712
I75
sS'nowadays'
p1713
I75
sS'your'
p1714
I26
sS'neymar'
p1715
I75
sS'her'
p1716
I53
sS'area'
p1717
I74
sS'unisex'
p1718
I75
sS'breakfast/lunch'
p1719
I74
sS'there'
p1720
I48
sS'totalitarian'
p1721
I75
sS'hey'
p1722
I60
sS'lol'
p1723
I62
sS'los'
p1724
I72
sS'stars'
p1725
I74
sS'lox'
p1726
I75
sS'valley'
p1727
I71
sS'surviver'
p1728
I75
sS'copacabana'
p1729
I75
sS'incase-'
p1730
I75
sS'dormir'
p1731
I75
sS'*girls'
p1732
I75
sS'\xe2\x9d\xa4\xe2\x9d\xa4\xe2\x9d\xa4'
p1733
I75
sS'yayy'
p1734
I75
sS'taftco'
p1735
I73
sS'lmaooo'
p1736
I74
sS'we???"'
p1737
I75
sS'helicopter'
p1738
I75
sS'happier'
p1739
I75
sS'31\xc2\xb0'
p1740
I75
sS'trying'
p1741
I68
sS'with'
p1742
I17
sS'buying'
p1743
I75
sS'handsome'
p1744
I75
sS"they're"
p1745
I71
sS"wasn't"
p1746
I74
sS'bottles'
p1747
I75
sS'bucket'
p1748
I75
sS'treasure'
p1749
I75
sS'buckners'
p1750
I75
sS'agree'
p1751
I73
sS'toilet'
p1752
I75
sS'ad'
p1753
I75
sS'johnny'
p1754
I75
sS'af'
p1755
I72
sS'certain'
p1756
I73
sS'am'
p1757
I53
sS',91356\n286667037001003009,shany_p,2013-01-03'
p1758
I75
sS'deep'
p1759
I73
sS'fellow'
p1760
I73
sS'mormons'
p1761
I75
sS'ap'
p1762
I74
sS'as'
p1763
I53
sS'at'
p1764
I19
sS'aw'
p1765
I74
sS'walks'
p1766
I75
sS'zombified'
p1767
I75
sS'!!!!!so'
p1768
I75
sS'tarzana'
p1769
I66
sS'malibu'
p1770
I74
sS'cream'
p1771
I74
sS'incorrect'
p1772
I74
sS'again'
p1773
I71
sS'lollllll'
p1774
I75
sS'yoga'
p1775
I72
sS'goddam'
p1776
I73
sS'deserve'
p1777
I74
sS'green'
p1778
I75
sS'graduate'
p1779
I75
sS'field'
p1780
I75
sS'5'
p1781
I70
sS'fools'
p1782
I74
sS'trash'
p1783
I75
sS"tonight's"
p1784
I75
sS'biologically'
p1785
I75
sS'pillows'
p1786
I75
sS'obsessed'
p1787
I74
sS'students'
p1788
I75
sS'topshop'
p1789
I75
sS'teeth'
p1790
I75
sS'gifts'
p1791
I75
sS'important'
p1792
I74
sS'fresh'
p1793
I74
sS'chris'
p1794
I73
sS'fedoras'
p1795
I75
sS'pool'
p1796
I72
sS'natalie'
p1797
I73
sS'srry'
p1798
I75
sS'calls'
p1799
I75
sS'mocking'
p1800
I75
sS'vines'
p1801
I74
sS'sounded'
p1802
I75
sS'directors'
p1803
I75
sS'u'
p1804
I23
sS'alright'
p1805
I74
sS'dvr'
p1806
I75
sS'starting'
p1807
I74
sS'strings'
p1808
I75
sS'represent'
p1809
I75
sS'all'
p1810
I20
sS'sci'
p1811
I75
sS'forget'
p1812
I72
sS'ali'
p1813
I75
sS'dollas'
p1814
I75
sS'month'
p1815
I74
sS'coach'
p1816
I75
sS'messy'
p1817
I75
sS'follow'
p1818
I66
sS'liam'
p1819
I75
sS'revellers'
p1820
I75
sS'baaaack'
p1821
I75
sS"treatin'"
p1822
I75
sS'griffin'
p1823
I75
sS'tx'
p1824
I75
sS'tv'
p1825
I74
sS'switched'
p1826
I75
sS'luresday'
p1827
I75
sS'thursday'
p1828
I74
sS'laughing'
p1829
I75
sS'to'
p1830
I3
sS'tl'
p1831
I74
sS'daniel'
p1832
I75
sS'tarzana)'
p1833
I73
sS'tf'
p1834
I75
sS'smile'
p1835
I74
sS'enjoying'
p1836
I74
sS'hideous'
p1837
I75
sS'ta'
p1838
I75
sS'case'
p1839
I74
sS'woman'
p1840
I73
sS'appointment'
p1841
I75
sS'returned'
p1842
I75
sS'hehehahahoohoo'
p1843
I75
sS'song'
p1844
I67
sS'very'
p1845
I61
sS'fav'
p1846
I74
sS'floated'
p1847
I75
sS'selfies'
p1848
I72
sS'sons'
p1849
I75
sS'fan'
p1850
I71
sS'day\xe2\x80\x9dtru'
p1851
I75
sS'decide'
p1852
I74
sS'fall'
p1853
I72
sS'ticket'
p1854
I67
sS'difference'
p1855
I75
sS'fag'
p1856
I74
sS'misspelling'
p1857
I75
sS',91356\n322425781114523648,shany_p,2013-04-11'
p1858
I75
sS'louis'
p1859
I74
sS'list'
p1860
I74
sS'grandfather'
p1861
I75
sS'sang'
p1862
I74
sS'vibes'
p1863
I75
sS't-'
p1864
I75
sS'dankest'
p1865
I75
sS'laur'
p1866
I75
sS'lisa'
p1867
I75
sS'vibez'
p1868
I75
sS"i'll"
p1869
I59
sS'dunk'
p1870
I75
sS'cookies'
p1871
I74
sS'neighborhood'
p1872
I75
sS'instagram'
p1873
I73
sS'chipotles'
p1874
I75
sS'healed'
p1875
I75
sS'past'
p1876
I74
sS'rate'
p1877
I75
sS'settled'
p1878
I75
sS'cancelled=best'
p1879
I75
sS'further'
p1880
I75
sS'nba'
p1881
I75
sS'casual'
p1882
I73
sS'snippets'
p1883
I75
sS'what'
p1884
I33
sS'tweeted'
p1885
I75
sS'\xe2\x99\xbb\xef\xb8\x8f'
p1886
I75
sS'darkness'
p1887
I74
sS'pinterest'
p1888
I74
sS'wrecked'
p1889
I75
sS'anniversary'
p1890
I75
sS'xox'
p1891
I75
sS'version'
p1892
I74
sS'sus'
p1893
I74
sS'garth'
p1894
I75
sS'learned'
p1895
I75
sS'storke'
p1896
I75
sS'kidnaped"'
p1897
I75
sS'pic"'
p1898
I75
sS'movement'
p1899
I74
sS'full'
p1900
I72
sS'iran'
p1901
I75
sS'malaria'
p1902
I75
sS'hungover'
p1903
I75
sS'surfer'
p1904
I75
sS'hours'
p1905
I70
sS'squeezed'
p1906
I75
sS'beacon'
p1907
I75
sS'jonas'
p1908
I75
sS"natasha's"
p1909
I75
sS'respect'
p1910
I75
sS'search'
p1911
I75
sS'disorders'
p1912
I75
sS'vito'
p1913
I75
sS'fwd'
p1914
I75
sS'goal\xe2\x9c\x94\xef\xb8\x8f'
p1915
I75
sS'inspired'
p1916
I75
sS'fwb'
p1917
I75
sS'pics'
p1918
I75
sS'amount'
p1919
I73
sS'pick'
p1920
I73
sS'action'
p1921
I75
sS"would've"
p1922
I75
sS'(it'
p1923
I75
sS'forgott'
p1924
I75
sS'via'
p1925
I75
sS'shuffle'
p1926
I75
sS'members'
p1927
I75
sS'family'
p1928
I68
sS'hahahahh'
p1929
I75
sS'partnering'
p1930
I75
sS'deals'
p1931
I75
sS'put'
p1932
I67
sS'follower'
p1933
I73
sS'rewordings'
p1934
I75
sS'reeeally'
p1935
I75
sS'globes'
p1936
I75
sS'rican'
p1937
I75
sS'gosh'
p1938
I75
sS'armed'
p1939
I75
sS'emoji'
p1940
I75
sS'eye'
p1941
I75
sS'takes'
p1942
I74
sS'raff'
p1943
I75
sS'texting'
p1944
I75
sS'two'
p1945
I72
sS'omgggg'
p1946
I75
sS"85'"
p1947
I75
sS'lovers...48'
p1948
I75
sS'trip'
p1949
I75
sS'6'
p1950
I70
sS'taken'
p1951
I73
sS'tacky'
p1952
I75
sS'kick'
p1953
I73
sS'more'
p1954
I53
sS'teen'
p1955
I73
sS'tryna'
p1956
I70
sS'door'
p1957
I74
sS'ange'
p1958
I75
sS"uncle's"
p1959
I75
sS'company'
p1960
I74
sS'"where'
p1961
I75
sS'portman'
p1962
I74
sS'motorsports'
p1963
I75
sS'landed'
p1964
I75
sS'corleone'
p1965
I75
sS'leming'
p1966
I74
sS'basically'
p1967
I75
sS'known'
p1968
I75
sS'hurry'
p1969
I75
sS'glad'
p1970
I72
sS'hoopin'
p1971
I75
sS'keeping'
p1972
I74
sS'enlightenment'
p1973
I75
sS'hour'
p1974
I70
sS'elysia'
p1975
I75
sS'science'
p1976
I75
sS'des'
p1977
I75
sS'sucks'
p1978
I73
sS'loveshrek'
p1979
I75
sS'sudden'
p1980
I74
sS'del'
p1981
I75
sS'dem'
p1982
I75
sS'morgan'
p1983
I74
sS'learn'
p1984
I75
sS'knocked'
p1985
I75
sS'bikinis\xe2\x80\x9daye'
p1986
I75
sS'history'
p1987
I73
sS'beautiful'
p1988
I70
sS'walked='
p1989
I75
sS'hamburger'
p1990
I75
sS'bffs'
p1991
I75
sS'longterm'
p1992
I75
sS'gooooooooooooooooooooooooooooooooooooooooooooooooooooooool'
p1993
I75
sS'share'
p1994
I73
sS'states'
p1995
I75
sS"'94"
p1996
I75
sS'sassypants'
p1997
I75
sS'phrase'
p1998
I75
sS'hahahahhahaha'
p1999
I75
sS'influenced'
p2000
I75
sS'court'
p2001
I75
sS'goal'
p2002
I70
sS'awkward'
p2003
I75
sS'"oren'
p2004
I75
sS'sawuontweet'
p2005
I75
sS'breaking'
p2006
I74
sS'maps'
p2007
I75
sS"mellie's"
p2008
I74
sS'hating'
p2009
I75
sS'fr'
p2010
I74
sS'okay'
p2011
I68
sS'plans'
p2012
I74
sS'advice'
p2013
I75
sS'scouts'
p2014
I75
sS'whippin'
p2015
I75
sS'lighting'
p2016
I75
sS'blood'
p2017
I74
sS'numb'
p2018
I75
sS'coming'
p2019
I67
sS'...standing'
p2020
I75
sS'midnt'
p2021
I75
sS'fo'
p2022
I75
sS'a'
p2023
I4
sS'refuse'
p2024
I75
sS'funday'
p2025
I73
sS'mitzvah'
p2026
I75
sS'fagit'
p2027
I75
sS'quoted'
p2028
I75
sS'volleyball'
p2029
I75
sS'gloomy'
p2030
I75
sS'ego'
p2031
I75
sS'grande'
p2032
I75
sS'flwu'
p2033
I75
sS'media'
p2034
I75
sS'pleasure'
p2035
I75
sS'dream'
p2036
I73
sS'playing'
p2037
I71
sS"that's"
p2038
I52
sS'help'
p2039
I68
sS"don't"
p2040
I35
sS'reminded'
p2041
I75
sS'brotha'
p2042
I74
sS'sooo'
p2043
I74
sS'soon'
p2044
I68
sS'bcuz'
p2045
I74
sS'isnt'
p2046
I75
sS'paper'
p2047
I74
sS'through'
p2048
I71
sS'hell'
p2049
I69
sS'its'
p2050
I55
sS'humid'
p2051
I75
sS'(tarzana)'
p2052
I75
sS'25'
p2053
I74
sS'style'
p2054
I74
sS'comedic'
p2055
I75
sS'thrilling'
p2056
I75
sS'21'
p2057
I75
sS'allo'
p2058
I74
sS'thnx'
p2059
I69
sS'actually'
p2060
I62
sS'late'
p2061
I67
sS'bellisimo'
p2062
I75
sS'dammn'
p2063
I75
sS'parts'
p2064
I75
sS'piano/guitar'
p2065
I75
sS'thnk'
p2066
I73
sS'bout'
p2067
I71
sS'cutie'
p2068
I72
sS'might'
p2069
I71
sS"haven't"
p2070
I73
sS'urself'
p2071
I75
sS'it-'
p2072
I75
sS'somebody'
p2073
I71
sS'yo'
p2074
I75
sS'ya'
p2075
I57
sS'yc'
p2076
I75
sS'ye'
p2077
I75
sS'clippers'
p2078
I75
sS'boobies'
p2079
I75
sS'olivia'
p2080
I73
sS"you've"
p2081
I73
sS'blllllllaaaaaaaast'
p2082
I75
sS'idols'
p2083
I75
sS'aka'
p2084
I75
sS'complain'
p2085
I75
sS'straaaange'
p2086
I75
sS'easily'
p2087
I75
sS'limarie-ck'
p2088
I75
sS'hook'
p2089
I75
sS'sundays'
p2090
I75
sS'always'
p2091
I58
sS'?,91356\n264907928451035136,shellzone143,2012-11-04'
p2092
I75
sS'suprise'
p2093
I74
sS'drake'
p2094
I72
sS'wrapped'
p2095
I75
sS'someone'
p2096
I68
sS'stopped'
p2097
I75
sS'parsaverance'
p2098
I75
sS'found'
p2099
I72
sS'forbid,91356\n264871128504352769,shellzone143,2012-11-03'
p2100
I75
sS'notes'
p2101
I75
sS'trailer'
p2102
I75
sS'everyone'
p2103
I61
sS'chopper'
p2104
I75
sS'weight'
p2105
I75
sS'"they'
p2106
I75
sS'house'
p2107
I65
sS'\xe2\x9c\x94\xef\xb8\x8fgotta'
p2108
I75
sS'hard'
p2109
I60
sS'reduce'
p2110
I75
sS'idea'
p2111
I75
sS'accidentally'
p2112
I74
sS'connect'
p2113
I75
sS'quick)'
p2114
I75
sS'bath'
p2115
I75
sS'\xe2\x9d\xa4on'
p2116
I75
sS'butthurt'
p2117
I74
sS'anarchy'
p2118
I75
sS'really'
p2119
I49
sS'impersonation'
p2120
I75
sS'lovers'
p2121
I70
sS'missed'
p2122
I75
sS'roku'
p2123
I75
sS'walked'
p2124
I75
sS'since'
p2125
I71
sS'vaughn"'
p2126
I75
sS'research'
p2127
I75
sS'rightfully'
p2128
I75
sS'participants'
p2129
I75
sS'granola'
p2130
I75
sS'krispy'
p2131
I74
sS'7'
p2132
I74
sS'issue'
p2133
I75
sS'gardener'
p2134
I75
sS'ass'
p2135
I68
sS'(reseda'
p2136
I74
sS'wilbur'
p2137
I75
sS"scout's"
p2138
I75
sS'favored'
p2139
I74
sS'lowkey\xe2\x9d\xa4\xef\xb8\x8f'
p2140
I75
sS'confidence'
p2141
I75
sS'story'
p2142
I74
sS'you\xe2\x80\x99ll'
p2143
I75
sS'reason'
p2144
I74
sS'hott'
p2145
I75
sS'fatass'
p2146
I73
sS'imagine'
p2147
I74
sS'ask'
p2148
I71
sS'loads'
p2149
I75
sS'bash'
p2150
I75
sS'cheers'
p2151
I74
sS'benefits'
p2152
I75
sS'service'
p2153
I75
sS'18:02:29.0,34.14980697,-118.54419131,1398.01,this'
p2154
I75
sS'terrible'
p2155
I72
sS'cheering'
p2156
I75
sS'american'
p2157
I73
sS'prejudice'
p2158
I74
sS'yall'
p2159
I75
sS'w'
p2160
I68
sS'bumper'
p2161
I74
sS'dis'
p2162
I75
sS'fallen'
p2163
I75
sS'monica\xe2\x80\xa6'
p2164
I75
sS'major'
p2165
I74
sS'dont'
p2166
I68
sS'slipped'
p2167
I75
sS'feel'
p2168
I61
sS'txting'
p2169
I75
sS'number'
p2170
I74
sS'fancy'
p2171
I74
sS'feeder'
p2172
I75
sS'feet'
p2173
I75
sS'sisters'
p2174
I71
sS'pop'
p2175
I75
sS'done'
p2176
I68
sS'harpersbazaar_ru'
p2177
I75
sS'kobe'
p2178
I72
sS'miss'
p2179
I55
sS'pinned'
p2180
I75
sS'guess'
p2181
I74
sS'"'
p2182
I74
sS'heads'
p2183
I74
sS'jet'
p2184
I74
sS'avec'
p2185
I75
sS'5th'
p2186
I75
sS'grime'
p2187
I73
sS'revive'
p2188
I75
sS'least'
p2189
I73
sS'player'
p2190
I75
sS'collage'
p2191
I75
sS'wonderful'
p2192
I74
sS'identity'
p2193
I75
sS'saint'
p2194
I75
sS'mama'
p2195
I74
sS'315yd'
p2196
I75
sS'jen'
p2197
I74
sS'store'
p2198
I74
sS'selling'
p2199
I74
sS'statement'
p2200
I75
sS'behind'
p2201
I75
sS'quakes'
p2202
I75
sS'out..enjoy'
p2203
I75
sS'stephanie'
p2204
I75
sS'part'
p2205
I69
sS'etsy'
p2206
I62
sS'stairs'
p2207
I75
sS'grace'
p2208
I75
sS'canoga'
p2209
I75
sS'kind'
p2210
I74
sS'grew'
p2211
I75
sS'persnl'
p2212
I75
sS'kreme'
p2213
I74
sS'dans'
p2214
I75
sS'grey'
p2215
I75
sS'ahha'
p2216
I75
sS'wussssup'
p2217
I75
sS'2020'
p2218
I75
sS'uncanny'
p2219
I74
sS'dang'
p2220
I74
sS'insightful'
p2221
I75
sS'treated'
p2222
I75
sS'berrics'
p2223
I75
sS'risky'
p2224
I75
sS'close.,91356\n304312996535078912,shany_p,2013-02-20'
p2225
I75
sS'outta'
p2226
I75
sS'uncomfortable'
p2227
I75
sS'gals'
p2228
I75
sS'fights'
p2229
I74
sS'beforehand'
p2230
I75
sS'randomly'
p2231
I75
sS"nothin'"
p2232
I74
sS'orders'
p2233
I75
sS'lie'
p2234
I75
sS'koala'
p2235
I74
sS'replies\xe2\x9d\x8c\xe2\xad\x95\xe2\x9d\x8c\xe2\xad\x95\xe2\x9d\x8c'
p2236
I75
sS'lil'
p2237
I71
sS'self'
p2238
I75
sS'cave'
p2239
I75
sS'couch'
p2240
I75
sS'lit'
p2241
I74
sS'also'
p2242
I72
sS'caesar'
p2243
I75
sS'finding'
p2244
I75
sS'cavs'
p2245
I75
sS'play'
p2246
I64
sS'towards'
p2247
I75
sS'customize'
p2248
I75
sS'chart'
p2249
I75
sS'reunited'
p2250
I75
sS'most'
p2251
I67
sS'plan'
p2252
I75
sS'nothing'
p2253
I73
sS'accepting'
p2254
I75
sS'nirvana'
p2255
I75
sS'understands'
p2256
I75
sS'"you\'re'
p2257
I75
sS'sometimes'
p2258
I74
sS'wore'
p2259
I74
sS'giving'
p2260
I74
sS'exs'
p2261
I75
sS'\xe2\x98\x80\xef\xb8\x8f'
p2262
I75
sS'weigh'
p2263
I75
sS'shoutout'
p2264
I75
sS'bandeau'
p2265
I75
sS'ugh'
p2266
I73
sS'golf'
p2267
I74
sS'ootw'
p2268
I75
sS'gold'
p2269
I74
sS"streep's"
p2270
I75
sS'league'
p2271
I75
sS'gallmeier'
p2272
I75
sS'stfu'
p2273
I72
sS"berklee's"
p2274
I75
sS'alert'
p2275
I75
sS'rts'
p2276
I75
sS'jared'
p2277
I75
sS'fine'
p2278
I74
sS'find'
p2279
I68
sS'frankie'
p2280
I75
sS'impact'
p2281
I75
sS'frontin'
p2282
I75
sS'believe'
p2283
I70
sS'paranoid'
p2284
I75
sS'ruin'
p2285
I75
sS'writer'
p2286
I73
sS'bestfriends'
p2287
I75
sS'tarzanas'
p2288
I75
sS'pretty'
p2289
I64
sS'money'
p2290
I75
sS'8'
p2291
I74
sS'circle'
p2292
I75
sS'5:30pm'
p2293
I75
sS'giants'
p2294
I75
sS'merch'
p2295
I75
sS'his'
p2296
I64
sS'hit'
p2297
I73
sS'tommorow'
p2298
I75
sS"they'd"
p2299
I75
sS'feels'
p2300
I74
sS'breast'
p2301
I75
sS'pretending'
p2302
I75
sS'during'
p2303
I74
sS'silk'
p2304
I75
sS'him'
p2305
I64
sS'enemy'
p2306
I75
sS"gabriella's"
p2307
I75
sS'anythingggggggggggggggg'
p2308
I75
sS'sleeve'
p2309
I75
sS'loversna'
p2310
I75
sS'cry'
p2311
I74
sS'watch\xe2\x80\xa6'
p2312
I75
sS'alotta'
p2313
I75
sS'thots'
p2314
I75
sS'common'
p2315
I74
sS'nominate'
p2316
I75
sS'$13.99'
p2317
I75
sS'river'
p2318
I75
sS'wrote'
p2319
I75
sS'insane'
p2320
I75
sS'aghh'
p2321
I75
sS'bars'
p2322
I75
sS'set'
p2323
I71
sS'art'
p2324
I74
sS'vids'
p2325
I75
sS'vine'
p2326
I73
sS'sex'
p2327
I75
sS'culture'
p2328
I75
sS'see'
p2329
I55
sS'defense'
p2330
I75
sS'dumb'
p2331
I73
sS'are'
p2332
I31
sS'sea'
p2333
I74
sS'close'
p2334
I71
sS'retweet'
p2335
I75
sS'project'
p2336
I75
sS'practice'
p2337
I75
sS'23:17:38.0,34.14967613,-118.54419965,1398.01,painting'
p2338
I75
sS'pictures'
p2339
I74
sS'wow'
p2340
I62
sS'please'
p2341
I68
sS'slapped'
p2342
I75
sS'fans'
p2343
I70
sS'determined'
p2344
I75
sS'rarri'
p2345
I75
sS'probably'
p2346
I68
sS'years"'
p2347
I75
sS'champagne'
p2348
I75
sS'nope'
p2349
I75
sS'compliment'
p2350
I75
sS'supposed'
p2351
I74
sS'europe'
p2352
I75
sS'can\xe2\x80\xa6'
p2353
I75
sS',91356\n286748370335313920,shany_p,2013-01-03'
p2354
I75
sS'creating'
p2355
I75
sS'wanelo'
p2356
I73
sS'treasurie'
p2357
I75
sS'222222'
p2358
I75
sS'sold'
p2359
I74
sS'attention'
p2360
I74
sS'condo'
p2361
I75
sS'pissed'
p2362
I74
sS'both'
p2363
I72
sS'c'
p2364
I75
sS'10th'
p2365
I75
sS'last'
p2366
I55
sS"frickin'"
p2367
I75
sS'newly'
p2368
I75
sS'thot'
p2369
I75
sS"wouldn't"
p2370
I73
sS'event'
p2371
I75
sS'uncles)'
p2372
I75
sS'up\xe2\xac\x86\xef\xb8\x8f'
p2373
I75
sS'rehearsed."'
p2374
I75
sS'amoeba'
p2375
I75
sS'movie/book/tv'
p2376
I75
sS'canadians'
p2377
I74
sS'sext'
p2378
I75
sS'bond'
p2379
I75
sS'whole'
p2380
I74
sS'liked'
p2381
I75
sS'point'
p2382
I74
sS'simple'
p2383
I74
sS'sweet'
p2384
I70
sS'address'
p2385
I75
sS'dudes'
p2386
I75
sS'"shrek'
p2387
I75
sS'gypsy'
p2388
I74
sS'simply'
p2389
I75
sS'likes'
p2390
I75
sS'sexy'
p2391
I75
sS'vessel'
p2392
I75
sS'throughout'
p2393
I75
sS'communiti'
p2394
I75
sS'consuming'
p2395
I75
sS'dun'
p2396
I75
sS'chick'
p2397
I75
sS'autocorrect'
p2398
I75
sS'political'
p2399
I75
sS'due'
p2400
I74
sS'teacher'
p2401
I74
sS'damn'
p2402
I61
sS'hereeee'
p2403
I75
sS'napa'
p2404
I75
sS'pj'
p2405
I75
sS'meeting'
p2406
I75
sS'whoa'
p2407
I75
sS'woke'
p2408
I72
sS'pm'
p2409
I74
sS'lived'
p2410
I75
sS'flight'
p2411
I74
sS'gay'
p2412
I74
sS'buck'
p2413
I75
sS'fire'
p2414
I75
sS'ages'
p2415
I75
sS"what's"
p2416
I71
sS'transferring'
p2417
I74
sS'rainbows'
p2418
I75
sS'else'
p2419
I69
sS'cinco'
p2420
I75
sS'whatever'
p2421
I75
sS'awake'
p2422
I72
sS'specifically'
p2423
I75
sS'rocking'
p2424
I75
sS"f's"
p2425
I75
sS'bitchh'
p2426
I75
sS'moreee'
p2427
I75
sS'pact'
p2428
I75
sS'intriguing'
p2429
I75
sS'look'
p2430
I62
sS'enchanted'
p2431
I73
sS'mlk'
p2432
I75
sS'straight'
p2433
I74
sS'expanded'
p2434
I75
sS'convo'
p2435
I74
sS'pace'
p2436
I75
sS'while'
p2437
I68
sS'smart'
p2438
I74
sS'behavior'
p2439
I75
sS'hbd'
p2440
I75
sS'fun'
p2441
I70
sS'biking'
p2442
I75
sS'robin'
p2443
I75
sS'2night'
p2444
I75
sS'fuentes'
p2445
I75
sS'real'
p2446
I66
sS'hoping'
p2447
I75
sS'think,91356\n311180730250194944,shany_p,2013-03-11'
p2448
I75
sS'beaucoup'
p2449
I75
sS'calculator'
p2450
I75
sS'rip'
p2451
I75
sS'(3-5'
p2452
I75
sS'triple'
p2453
I75
sS'skype'
p2454
I75
sS'"look'
p2455
I75
sS'this"'
p2456
I75
sS'<*'
p2457
I75
sS'"ask'
p2458
I75
sS'retarded'
p2459
I75
sS'funny'
p2460
I68
sS'decor'
p2461
I75
sS'shirt'
p2462
I75
sS'anymore'
p2463
I70
sS'migraine'
p2464
I75
sS'eyewear'
p2465
I75
sS'nevahhh\xe2\x80\x9d'
p2466
I75
sS'funni'
p2467
I75
sS'9'
p2468
I74
sS'shai'
p2469
I75
sS'yoooolllllooooo'
p2470
I75
sS'"angels'
p2471
I75
sS'used'
p2472
I74
sS'wheree'
p2473
I75
sS'assignment'
p2474
I75
sS'recovered'
p2475
I75
sS'yesterday'
p2476
I73
sS'holidays'
p2477
I74
sS'moment'
p2478
I75
sS'fun:)getting'
p2479
I75
sS'weird'
p2480
I75
sS'recent'
p2481
I75
sS'dark'
p2482
I75
sS'doreen'
p2483
I75
sS'older'
p2484
I75
sS"dad's"
p2485
I74
sS'codeine'
p2486
I75
sS'anybody'
p2487
I73
sS'picks'
p2488
I75
sS'sports'
p2489
I75
sS'person'
p2490
I72
sS'flags'
p2491
I75
sS'massage'
p2492
I75
sS'y'
p2493
I72
sS'chemistry'
p2494
I75
sS'spend'
p2495
I74
sS'darn'
p2496
I75
sS'mom'
p2497
I73
sS'desk'
p2498
I75
sS'db'
p2499
I75
sS'shape'
p2500
I75
sS'ya!-'
p2501
I75
sS'using'
p2502
I73
sS'lexus'
p2503
I75
sS'praying'
p2504
I75
sS'way\xe2\x9d\xa4'
p2505
I75
sS'prince'
p2506
I75
sS'lennon'
p2507
I75
sS'cut'
p2508
I74
sS'rio.huge'
p2509
I75
sS'hrs-visit'
p2510
I75
sS'cup'
p2511
I74
sS'workers'
p2512
I75
sS'ciel'
p2513
I75
sS'cuz'
p2514
I58
sS'parents'
p2515
I75
sS'homies'
p2516
I73
sS'snap'
p2517
I75
sS'\xd7\x9e\xd7\x90\xd7\x95\xd7\x93'
p2518
I75
sS'cum'
p2519
I74
sS'easter'
p2520
I74
sS'excited'
p2521
I71
sS'surprised'
p2522
I74
sS'mami'
p2523
I75
sS'bio'
p2524
I74
sS'confession'
p2525
I75
sS'emergency'
p2526
I75
sS'big'
p2527
I68
sS'couple'
p2528
I71
sS'jerked'
p2529
I75
sS'game'
p2530
I61
sS'blackjack'
p2531
I75
sS'diehards'
p2532
I75
sS'regrets'
p2533
I75
sS'"call'
p2534
I75
sS'life>>>>>'
p2535
I75
sS'flannel'
p2536
I75
sS'drum'
p2537
I75
sS'lost'
p2538
I72
sS"ain't"
p2539
I75
sS'message'
p2540
I74
sS'kickin'
p2541
I75
sS'ignore'
p2542
I75
sS'roscoes'
p2543
I74
sS'bamboo'
p2544
I75
sS'bruin'
p2545
I75
sS'pertaining'
p2546
I75
sS'often'
p2547
I74
sS'fucking'
p2548
I68
sS'1st'
p2549
I72
sS'some'
p2550
I47
sS'back'
p2551
I54
sS'bach'
p2552
I75
sS'blow'
p2553
I75
sS'ah'
p2554
I72
sS'understood'
p2555
I75
sS'serengeti'
p2556
I75
sS'yarin\xe2\x80\x9di'
p2557
I75
sS'classes'
p2558
I75
sS'18:24:02.0,34.14962446,-118.54420002,1398.01,lolll,91356\n311177727698935808,shany_p,2013-03-11'
p2559
I75
sS'funny\xe2\x80\x9d\xe2\x80\x9d'
p2560
I75
sS'scale'
p2561
I75
sS'jewelry'
p2562
I74
sS'dull'
p2563
I75
sS'pet'
p2564
I74
sS'redo'
p2565
I75
sS'decision'
p2566
I74
sS'firecracker'
p2567
I74
sS'debra'
p2568
I75
sS'prom'
p2569
I74
sS'anne'
p2570
I73
sS'epic'
p2571
I74
sS'either'
p2572
I71
sS'be'
p2573
I20
sS'bf'
p2574
I74
sS'run'
p2575
I72
sS'bb'
p2576
I72
sS'bc'
p2577
I73
sS'remembered'
p2578
I75
sS'word'
p2579
I75
sS't-mac'
p2580
I75
sS'jl'
p2581
I64
sS'bi'
p2582
I75
sS'came\xe2\x80\xa6'
p2583
I75
sS'step'
p2584
I72
sS"really....i'm"
p2585
I75
sS'bp'
p2586
I75
sS'achi'
p2587
I75
sS'santa'
p2588
I74
sS'bs'
p2589
I75
sS'crap'
p2590
I75
sS'intense'
p2591
I74
sS'deeeeldo'
p2592
I75
sS'jeezus'
p2593
I75
sS'anything'
p2594
I73
sS'netflix'
p2595
I74
sS'soft'
p2596
I73
sS'completing'
p2597
I75
sS'delish'
p2598
I75
sS'truck'
p2599
I75
sS'shleep'
p2600
I73
sS'range'
p2601
I74
sS'beans'
p2602
I75
sS'idk'
p2603
I69
sS'bish'
p2604
I75
sS'mouth'
p2605
I72
sS'fucks'
p2606
I75
sS'wanna'
p2607
I64
sS'seeing'
p2608
I74
sS'jimmy'
p2609
I75
sS'!!,91356\n264915861498900481,shellzone143,2012-11-04'
p2610
I75
sS'dude'
p2611
I73
sS'into'
p2612
I67
sS'within'
p2613
I74
sS'nigga'
p2614
I69
sS'oaks'
p2615
I75
sS'rissa'
p2616
I75
sS'dwayne'
p2617
I75
sS'stitches'
p2618
I75
sS'chidi'
p2619
I75
sS'verbal'
p2620
I75
sS'spending'
p2621
I74
sS'question'
p2622
I73
sS'ca)'
p2623
I74
sS'long'
p2624
I70
sS'custom'
p2625
I75
sS'suis'
p2626
I75
sS'occupy'
p2627
I75
sS'finish...lol)'
p2628
I75
sS'addicting'
p2629
I75
sS"we're"
p2630
I71
sS'bruh'
p2631
I74
sS'bored'
p2632
I72
sS'footage'
p2633
I75
sS'himself'
p2634
I75
sS'kb'
p2635
I75
sS'poster'
p2636
I73
sS'ways'
p2637
I75
sS'girlfriends'
p2638
I75
sS't-shirt'
p2639
I75
sS'boys'
p2640
I72
sS'link'
p2641
I75
sS'\xe2\x99\xab'
p2642
I75
sS'boyz'
p2643
I75
sS'line'
p2644
I75
sS'junior'
p2645
I74
sS'posted'
p2646
I73
sS'info'
p2647
I74
sS'jonathan'
p2648
I75
sS'restaraunt'
p2649
I75
sS'frnd'
p2650
I75
sS'fries'
p2651
I74
sS'up'
p2652
I27
sS'us'
p2653
I65
sS'ur'
p2654
I56
sS'um'
p2655
I74
sS'un'
p2656
I75
sS'uh'
p2657
I74
sS'mature'
p2658
I75
sS'faded'
p2659
I75
sS'itt,91356\n314442028907900928,shany_p,2013-03-20'
p2660
I75
sS'chelsea'
p2661
I75
sS'called'
p2662
I72
sS'uc'
p2663
I74
sS'ub'
p2664
I75
sS'uber'
p2665
I74
sS'sort'
p2666
I75
sS'constant'
p2667
I75
sS'3-0'
p2668
I75
sS'plaaaan'
p2669
I75
sS'cover'
p2670
I75
sS'fans-'
p2671
I75
sS'jcsc'
p2672
I74
sS'anymore,91356\n286743765559959553,shany_p,2013-01-03'
p2673
I75
sS'single'
p2674
I75
sS'xo,91356\n264645342287499265,shellzone143,2012-11-03'
p2675
I75
sS'cafe'
p2676
I75
sS'2-0'
p2677
I75
sS'cotton'
p2678
I75
sS'facebook'
p2679
I75
sS'year.\xe2\x80\xa6'
p2680
I75
sS'hehehe'
p2681
I75
sS'fixing'
p2682
I75
sS'nah'
p2683
I75
sS'peace'
p2684
I74
sS'b/t'
p2685
I75
sS'nick'
p2686
I75
sS'nap'
p2687
I74
sS'tuff'
p2688
I75
sS"actors'"
p2689
I75
sS'department'
p2690
I75
sS'dovey'
p2691
I75
sS'assassinate'
p2692
I75
sS'b/c'
p2693
I75
sS'nice'
p2694
I63
sS'prez'
p2695
I75
sS"taylor's"
p2696
I75
sS'papi'
p2697
I75
sS'understatement'
p2698
I75
sS'problems'
p2699
I75
sS'resign'
p2700
I75
sS'occurred'
p2701
I75
sS'helping'
p2702
I75
sS'dalt'
p2703
I74
sS'drag'
p2704
I75
sS'est'
p2705
I75
sS'evan'
p2706
I75
sS'dunzo'
p2707
I75
sS'fisher'
p2708
I75
sS'"vince'
p2709
I75
sS'entertaining'
p2710
I75
sS'\xe2\x9d\x8c\xe2\xad\x95'
p2711
I75
sS'ago'
p2712
I74
sS'e'
p2713
I75
sS'practically'
p2714
I75
sS'late.plz'
p2715
I75
sS'required'
p2716
I75
sS'youtube'
p2717
I75
sS'gr8'
p2718
I73
sS'am,91356\n321315598573383680,shany_p,2013-04-08'
p2719
I75
sS'weights'
p2720
I75
sS'dot'
p2721
I75
sS"she's"
p2722
I72
sS'48hr'
p2723
I74
sS'2009'
p2724
I75
sS'having'
p2725
I63
sS'once'
p2726
I74
sS'essay'
p2727
I73
sS'melty'
p2728
I75
sS'code'
p2729
I73
sS'savior'
p2730
I75
sS'birthdayyy'
p2731
I75
sS'steve'
p2732
I73
sS'lithium-'
p2733
I75
sS'hyper'
p2734
I75
sS'gang'
p2735
I75
sS'mo-"'
p2736
I75
sS'go'
p2737
I35
sS'gossip'
p2738
I75
sS'etait'
p2739
I75
sS'hooka'
p2740
I73
sS'chillin'
p2741
I75
sS'juliano'
p2742
I75
sS'crossover'
p2743
I75
sS'pope'
p2744
I75
sS'turkish'
p2745
I75
sS'young'
p2746
I72
sS'send'
p2747
I69
sS'riders'
p2748
I75
sS'shack'
p2749
I75
sS'carelessly'
p2750
I75
sS'friendly'
p2751
I75
sS'sent'
p2752
I73
sS'confirmation'
p2753
I75
sS'wished'
p2754
I75
sS'mainstream'
p2755
I74
sS'outside'
p2756
I74
sS'dessert'
p2757
I75
sS'\xe2\x9d\xa4\xef\xb8\x8f\xe2\x80\x9d'
p2758
I75
sS'annika'
p2759
I75
sS'spoon'
p2760
I75
sS'putting'
p2761
I74
sS'accuse'
p2762
I75
sS'telling'
p2763
I75
sS'drinking'
p2764
I75
sS'bryant'
p2765
I75
sS'entire'
p2766
I73
sS'magic'
p2767
I75
sS'marry'
p2768
I74
sS'*stone'
p2769
I75
sS'michael'
p2770
I74
sS'knightly'
p2771
I75
sS'ryan'
p2772
I75
sS'try'
p2773
I66
sS'assignments'
p2774
I75
sS'nairi'
p2775
I75
sS'min'
p2776
I75
sS'youuu'
p2777
I75
sS'radio'
p2778
I75
sS'havent'
p2779
I74
sS'tru'
p2780
I74
sS'swoop'
p2781
I75
sS'booty'
p2782
I75
sS'bleeding'
p2783
I74
sS'rap/hip'
p2784
I75
sS'poets'
p2785
I75
sS'boots'
p2786
I75
sS'waking'
p2787
I73
sS'postworkout'
p2788
I75
sS'ochs'
p2789
I74
sS'video'
p2790
I74
sS'picked'
p2791
I73
sS'miley'
p2792
I75
sS'download'
p2793
I75
sS'cupcakes'
p2794
I75
sS'plays'
p2795
I75
sS'power'
p2796
I75
sS'kris'
p2797
I75
sS'lolll'
p2798
I74
sS'yusss'
p2799
I75
sS'laurence'
p2800
I75
sS'waiting'
p2801
I74
sS'twins'
p2802
I75
sS'abele'
p2803
I74
sS'exercise'
p2804
I75
sS'body'
p2805
I75
sS'lee'
p2806
I75
sS'degree'
p2807
I75
sS'river-'
p2808
I75
sS'les'
p2809
I75
sS'let'
p2810
I66
sS'others'
p2811
I75
sS'sing'
p2812
I74
sS"19:28:11.0,34.1496815,-118.54416431,1398.01,can't"
p2813
I75
sS'plzzz'
p2814
I75
sS'crocker'
p2815
I75
sS'photobomb'
p2816
I75
sS'settling'
p2817
I75
sS'great'
p2818
I52
sS'30'
p2819
I73
sS'shades'
p2820
I75
sS'36'
p2821
I75
sS'later'
p2822
I75
sS'eatin'
p2823
I75
sS"weren't"
p2824
I75
sS'argggh'
p2825
I75
sS'makes'
p2826
I65
sS'sup'
p2827
I75
sS'thats'
p2828
I69
sS'wig'
p2829
I75
sS'named'
p2830
I75
sS'apple'
p2831
I75
sS'clark'
p2832
I75
sS'spy'
p2833
I75
sS'win'
p2834
I74
sS'app'
p2835
I74
sS'manage'
p2836
I75
sS'dedicated'
p2837
I74
sS'wit'
p2838
I74
sS'bust'
p2839
I75
sS'tradingfaves'
p2840
I75
sS'resurrection'
p2841
I75
sS'scandal'
p2842
I74
sS'singing'
p2843
I74
sS'drving'
p2844
I75
sS'cloud'
p2845
I75
sS'dosent'
p2846
I75
sS'use'
p2847
I71
sS'from'
p2848
I46
sS'figure'
p2849
I75
sS'usa'
p2850
I75
sS'&'
p2851
I41
sS'flat'
p2852
I75
sS'next'
p2853
I60
sS'few'
p2854
I72
sS'doubt'
p2855
I75
sS'coldplay'
p2856
I75
sS'toy'
p2857
I75
sS'idkkk'
p2858
I75
sS'shmoke'
p2859
I75
sS'baba'
p2860
I75
sS'popped'
p2861
I74
sS'started'
p2862
I75
sS'brutus'
p2863
I75
sS'feminists'
p2864
I75
sS'treasure,91356\n264900332168044544,shellzone143,2012-11-04'
p2865
I75
sS':-('
p2866
I75
sS'confused'
p2867
I75
sS'trail'
p2868
I75
sS'gettin'
p2869
I75
sS'popper'
p2870
I75
sS'pft'
p2871
I75
sS'grea'
p2872
I75
sS'baby'
p2873
I67
sS'actual'
p2874
I75
sS'promotional'
p2875
I75
sS'broth'
p2876
I75
sS'boards'
p2877
I75
sS'balls'
p2878
I75
sS'knowin'
p2879
I75
sS'salad'
p2880
I75
sS'f'
p2881
I74
sS'this'
p2882
I15
sS'ride'
p2883
I74
sS'nuarts'
p2884
I75
sS'pour'
p2885
I74
sS'$$$$$i'
p2886
I75
sS'freedom'
p2887
I75
sS'meet'
p2888
I71
sS'closing'
p2889
I74
sS'didnt'
p2890
I74
sS'dropped'
p2891
I75
sS'"loathe'
p2892
I75
sS'thirsty'
p2893
I75
sS'monica'
p2894
I75
sS'"memorize"'
p2895
I75
sS'patunia'
p2896
I75
sS'high'
p2897
I69
sS'kys'
p2898
I75
sS',91356\n286746232003624961,shany_p,2013-01-03'
p2899
I75
sS'pulling'
p2900
I75
sS'something'
p2901
I63
sS"l'aime"
p2902
I75
sS'blvd'
p2903
I74
sS'fatherless-no-more'
p2904
I73
sS'tan'
p2905
I75
sS'bowl'
p2906
I75
sS'skirt'
p2907
I75
sS'hesitate'
p2908
I75
sS'united'
p2909
I75
sS'syndrome'
p2910
I75
sS'falls'
p2911
I75
sS'sit'
p2912
I75
sS'poetry'
p2913
I75
sS'swisher'
p2914
I75
sS'brian'
p2915
I75
sS"they've"
p2916
I75
sS'blessings'
p2917
I75
sS'sif'
p2918
I75
sS'instead'
p2919
I75
sS'ferdinand'
p2920
I75
sS'comedy'
p2921
I75
sS'gurl'
p2922
I74
sS'cancun'
p2923
I75
sS'myman'
p2924
I75
sS'stop'
p2925
I64
sS'fart'
p2926
I75
sS'notebook'
p2927
I75
sS'purpose*'
p2928
I75
sS'men'
p2929
I75
sS'taco'
p2930
I73
sS'hahahaha'
p2931
I73
sS'wiltern'
p2932
I75
sS'coast'
p2933
I75
sS'tomato'
p2934
I75
sS'somethin'
p2935
I75
sS'knightley'
p2936
I74
sS'ittt'
p2937
I75
sS'famous'
p2938
I75
sS'light'
p2939
I75
sS'lame'
p2940
I75
sS'thingsfor'
p2941
I75
sS'bloody'
p2942
I75
sS'laurie'
p2943
I74
sS'crawling'
p2944
I75
sS'colada'
p2945
I75
sS'counted'
p2946
I75
sS'mustache'
p2947
I75
sS'procrastination'
p2948
I75
sS'live."'
p2949
I75
sS'houston'
p2950
I75
sS'lamborghini...you'
p2951
I75
sS'move'
p2952
I74
sS'whilst'
p2953
I75
sS"won't"
p2954
I73
sS'looks'
p2955
I69
sS'beacoup'
p2956
I75
sS'bunch'
p2957
I75
sS'perfect'
p2958
I73
sS'1'
p2959
I73
sS'blake'
p2960
I75
sS'le'
p2961
I75
sS'you.peace'
p2962
I75
sS'la'
p2963
I65
sS'lovers..50%'
p2964
I75
sS'responsibilities'
p2965
I75
sS'"idothat2"'
p2966
I75
sS'kindergarten'
p2967
I75
sS'shy'
p2968
I75
sS'2014'
p2969
I73
sS'holiday'
p2970
I73
sS'image'
p2971
I75
sS'2013'
p2972
I75
sS'dad'
p2973
I73
sS'freeman'
p2974
I75
sS'spektor>'
p2975
I75
sS'crash'
p2976
I74
sS'braemar'
p2977
I55
sS'dab'
p2978
I75
sS'spell'
p2979
I75
sS'ship'
p2980
I75
sS'goooooodmorning'
p2981
I75
sS'dat'
p2982
I75
sS'cutting'
p2983
I75
sS'kiss'
p2984
I74
sS'hands'
p2985
I73
sS'front'
p2986
I75
sS'rotation'
p2987
I75
sS'boned'
p2988
I75
sS'day'
p2989
I42
sS'preschool'
p2990
I75
sS'masters'
p2991
I75
sS'damian'
p2992
I75
sS'betta'
p2993
I75
sS'magnitude'
p2994
I74
sS'betty'
p2995
I75
sS'promise'
p2996
I75
sS'texas'
p2997
I75
sS'one\xe2\x9d\xa4\xef\xb8\x8f'
p2998
I75
sS'experienced'
p2999
I75
sS'glasses'
p3000
I75
sS'hathaway'
p3001
I73
sS'bueno'
p3002
I75
sS'doing'
p3003
I64
sS'adventure'
p3004
I75
sS'related'
p3005
I74
sS'xoxox'
p3006
I75
sS'twitta'
p3007
I75
sS'our'
p3008
I56
sS'meth'
p3009
I74
sS'marley'
p3010
I75
sS'?,91356\n264229154210336770,shellzone143,2012-11-02'
p3011
I75
sS'special'
p3012
I71
sS'out'
p3013
I22
sS'groove'
p3014
I75
sS'rex'
p3015
I75
sS'forgive'
p3016
I75
sS'announcer'
p3017
I75
sS'photos'
p3018
I75
sS'beautiful\xe2\x80\xa6'
p3019
I75
sS'mis'
p3020
I75
sS'disick'
p3021
I75
sS'max'
p3022
I75
sS"subtweetin'"
p3023
I75
sS'cause'
p3024
I74
sS'math'
p3025
I74
sS'"ugly"'
p3026
I75
sS'shut'
p3027
I73
sS'ete'
p3028
I75
sS'molly'
p3029
I75
sS'70s'
p3030
I74
sS'temps'
p3031
I75
sS'completely'
p3032
I74
sS'pixelated'
p3033
I75
sS'franz'
p3034
I75
sS'comeback'
p3035
I75
sS'coodle'
p3036
I73
sS'princess'
p3037
I75
sS"ex's\xe2\x80\x9djust"
p3038
I75
sS'g'
p3039
I72
sS'fitz'
p3040
I75
sS'gifting'
p3041
I75
sS'could'
p3042
I57
sS'swim\xe2\x80\x9d'
p3043
I75
sS'times'
p3044
I70
sS'conversation'
p3045
I75
sS'4th'
p3046
I72
sS'shutout'
p3047
I75
sS'"help'
p3048
I75
sS'guyz'
p3049
I75
sS'strageit'
p3050
I75
sS'yells'
p3051
I75
sS'lollll'
p3052
I75
sS'embarrassed'
p3053
I75
sS'walter'
p3054
I75
sS'bitch'
p3055
I71
sS'owner'
p3056
I75
sS'reached'
p3057
I75
sS'peters'
p3058
I75
sS'hoes'
p3059
I75
sS'to*'
p3060
I75
sS"doesn't"
p3061
I67
sS'monkey'
p3062
I75
sS'start'
p3063
I67
sS'seabass'
p3064
I75
sS'fuckers'
p3065
I75
sS'their'
p3066
I67
sS'lmfaooooooooo,91356\n286727342963970048,shany_p,2013-01-03'
p3067
I75
sS'ankle'
p3068
I74
sS'cuzzi'
p3069
I75
sS'final'
p3070
I73
sS'beard'
p3071
I75
sS'flume'
p3072
I74
sS'repping'
p3073
I74
sS'shell'
p3074
I72
sS'lot'
p3075
I69
sS'academy'
p3076
I74
sS'kiera'
p3077
I73
sS'realized'
p3078
I74
sS'slides'
p3079
I75
sS'bombers'
p3080
I75
sS'grandpa'
p3081
I74
sS'bieber'
p3082
I74
sS"that'll"
p3083
I75
sS'july'
p3084
I73
sS'anybodi'
p3085
I75
sS'udo'
p3086
I75
sS'gotchu'
p3087
I75
sS'steel'
p3088
I75
sS'fiyerrr'
p3089
I75
sS'ben'
p3090
I75
sS'kickback'
p3091
I75
sS'boring'
p3092
I75
sS'deserves'
p3093
I75
sS'bed'
p3094
I69
sS'loves'
p3095
I75
sS'candles'
p3096
I75
sS'bare'
p3097
I75
sS'spurs'
p3098
I74
sS'seb'
p3099
I75
sS'1.7'
p3100
I74
sS'tabs'
p3101
I75
sS'hashtags'
p3102
I75
sS'comfortable'
p3103
I74
sS'tonight'
p3104
I64
sS'unlikely'
p3105
I75
sS'have'
p3106
I24
sS'dictate'
p3107
I75
sS'need'
p3108
I47
sS'funrun'
p3109
I74
sS'viewed'
p3110
I75
sS'jug'
p3111
I75
sS'iive'
p3112
I75
sS'eva...my'
p3113
I75
sS'mermaid'
p3114
I75
sS'aladdin'
p3115
I75
sS'congrats'
p3116
I72
sS'studying'
p3117
I74
sS'mic'
p3118
I75
sS'able'
p3119
I72
sS'switch'
p3120
I75
sS'arm'
p3121
I75
sS'bagel'
p3122
I74
sS'which'
p3123
I69
sS'honestly'
p3124
I71
sS'korean'
p3125
I75
sS'='
p3126
I75
sS';-)'
p3127
I74
sS'apprciates'
p3128
I75
sS'unless'
p3129
I74
sS'"shut'
p3130
I75
sS'aww'
p3131
I74
sS'who'
p3132
I59
sS'you"'
p3133
I75
sS'furious'
p3134
I75
sS'maintenant'
p3135
I74
sS'kitkat'
p3136
I75
sS'14.3!!!!\xe2\x80\xa6'
p3137
I75
sS'awe'
p3138
I74
sS'medal'
p3139
I75
sS'why'
p3140
I57
sS'fair'
p3141
I75
sS'07'
p3142
I75
sS'deny'
p3143
I75
sS'laurent'
p3144
I75
sS'parisian'
p3145
I75
sS'gather'
p3146
I75
sS'stronger'
p3147
I75
sS'ballsack'
p3148
I75
sS'face'
p3149
I75
sS"you'll"
p3150
I74
sS'callers'
p3151
I75
sS'movie'
p3152
I75
sS'painting'
p3153
I75
sS'fact'
p3154
I75
sS'smirked'
p3155
I75
sS'backyard'
p3156
I75
sS'recess'
p3157
I75
sS'purell'
p3158
I75
sS'text'
p3159
I71
sS'aussi'
p3160
I75
sS'morningg'
p3161
I75
sS'anyway'
p3162
I75
sS'bring'
p3163
I69
sS'skateboarding'
p3164
I75
sS'sat/sunday'
p3165
I75
sS'chicken'
p3166
I74
sS'feat'
p3167
I75
sS'filmed'
p3168
I75
sS'slangs'
p3169
I75
sS'lik'
p3170
I75
sS'posting'
p3171
I75
sS'('
p3172
I75
sS'scorpion'
p3173
I75
sS'colbert'
p3174
I75
sS'should'
p3175
I68
sS'score'
p3176
I75
sS"anyone's"
p3177
I75
sS'lemme'
p3178
I74
sS'combo'
p3179
I75
sS'employee'
p3180
I75
sS'riding'
p3181
I75
sS'piano'
p3182
I75
sS'local'
p3183
I75
sS'hope'
p3184
I68
sS'meant'
p3185
I75
sS'cube'
p3186
I75
sS'watching'
p3187
I57
sS'chicago'
p3188
I75
sS'dope'
p3189
I73
sS'overall'
p3190
I75
sS'lucky'
p3191
I75
sS'tbh'
p3192
I74
sS'awww'
p3193
I73
sS'ones'
p3194
I75
sS'words'
p3195
I71
sS'128'
p3196
I75
sS'chips'
p3197
I74
sS'rite'
p3198
I75
sS'kardashians'
p3199
I75
sS'gray'
p3200
I75
sS"kobe's"
p3201
I71
sS'the\xe2\x80\xa6'
p3202
I75
sS'(ps'
p3203
I75
sS'3:30pm'
p3204
I75
sS'teams'
p3205
I75
sS'dome'
p3206
I75
sS'stuff'
p3207
I75
sS'she'
p3208
I58
sS'6/7/14'
p3209
I75
sS'tunes'
p3210
I75
sS'gunman'
p3211
I75
sS'powerlifting'
p3212
I75
sS'futuristic'
p3213
I75
sS'view'
p3214
I74
sS'toe'
p3215
I75
sS'btw'
p3216
I75
sS'day,91356\n302660333993074688,shany_p,2013-02-16'
p3217
I75
sS'prayers'
p3218
I75
sS'national'
p3219
I75
sS'pitch'
p3220
I75
sS'we'
p3221
I40
sS'computer'
p3222
I75
sS'gnight\xe2\x9d\xa4\xef\xb8\x8f'
p3223
I75
sS'kanye'
p3224
I75
sS'airmail'
p3225
I75
sS'gotten'
p3226
I75
sS'destiny'
p3227
I75
sS'luv'
p3228
I67
sS'genius'
p3229
I75
sS'nightmare'
p3230
I74
sS'chapstick'
p3231
I75
sS'commented'
p3232
I75
sS'724'
p3233
I75
sS'favor'
p3234
I71
sS';))))'
p3235
I75
sS'panty'
p3236
I75
sS'correctly'
p3237
I74
sS'horrible'
p3238
I74
sS'ebola'
p3239
I75
sS'stories'
p3240
I75
sS'email'
p3241
I68
sS'bought'
p3242
I72
sS'ends'
p3243
I75
sS'exam'
p3244
I74
sS'superior'
p3245
I75
sS'joy'
p3246
I73
sS'kicking'
p3247
I75
sS'job'
p3248
I72
sS'spoil'
p3249
I75
sS'precious'
p3250
I75
sS'legit'
p3251
I74
sS'dobe'
p3252
I75
sS'dopest/most'
p3253
I75
sS'long...2'
p3254
I75
sS'career'
p3255
I75
sS'joke'
p3256
I72
sS'taking'
p3257
I74
sS"he's"
p3258
I67
sS'wnba'
p3259
I75
sS'comment'
p3260
I75
sS'trips'
p3261
I75
sS'kosher'
p3262
I75
sS'etc'
p3263
I74
sS'nima'
p3264
I75
sS'desolee'
p3265
I75
sS'passing'
p3266
I75
sS'invites'
p3267
I75
sS'glorious'
p3268
I75
sS'otherwise'
p3269
I75
sS'ck'
p3270
I63
sS'torn'
p3271
I75
sS'co'
p3272
I75
sS'gone'
p3273
I75
sS'cc'
p3274
I75
sS'ca'
p3275
I75
sS'walk'
p3276
I74
sS'wth'
p3277
I75
sS'non-jews'
p3278
I75
sS'laugh'
p3279
I75
sS'modeling'
p3280
I75
sS'done-'
p3281
I75
sS'table'
p3282
I74
sS'zoughi'
p3283
I75
sS'winning'
p3284
I75
sS'poem'
p3285
I74
sS"it's"
p3286
I31
sS'18:12:06.0,34.14966716,-118.54414084,1398.01,when'
p3287
I75
sS'twerky'
p3288
I75
sS'responds'
p3289
I74
sS'tutor'
p3290
I75
sS'gopro'
p3291
I75
sS'drank'
p3292
I75
sS'yah'
p3293
I75
sS'"i\'m'
p3294
I74
sS"lady's"
p3295
I75
sS'waste'
p3296
I75
sS'girl!"'
p3297
I75
sS'bbq'
p3298
I74
sS'>'
p3299
I74
sS'mike'
p3300
I74
sS'general'
p3301
I75
sS',91356\n320286665144938498,shany_p,2013-04-05'
p3302
I75
sS'ok...hard'
p3303
I75
sS'selter'
p3304
I75
sS'painted'
p3305
I75
sS'ahmad'
p3306
I75
sS'policy'
p3307
I75
sS'finished'
p3308
I73
sS'tense'
p3309
I75
sS'bull'
p3310
I75
sS'smoking'
p3311
I74
sS'brunch'
p3312
I75
sS'an'
p3313
I57
sS'dangit'
p3314
I75
sS'daiquiris'
p3315
I75
sS'20plexes'
p3316
I75
sS'bye'
p3317
I75
sS'fitzgerald'
p3318
I75
sS'harder'
p3319
I74
sS'tshirt'
p3320
I75
sS'2010'
p3321
I75
sS'will'
p3322
I56
sS'jumanji'
p3323
I74
sS'hahaha'
p3324
I71
sS'balance'
p3325
I75
sS'instantly'
p3326
I75
sS'chartrs'
p3327
I75
sS'tings'
p3328
I75
sS'stageit'
p3329
I74
sS'almost'
p3330
I70
sS'site'
p3331
I75
sS'blimp'
p3332
I75
sS'vs'
p3333
I74
sS'avi'
p3334
I75
sS'\xd7\x90\xd7\x95\xd7\xaa\xd7\x9a'
p3335
I75
sS'bucks'
p3336
I75
sS'whore'
p3337
I75
sS'greater'
p3338
I75
sS'remodeling'
p3339
I75
sS'4.97mi'
p3340
I75
sS'hummus'
p3341
I75
sS')'
p3342
I64
sS'funniest'
p3343
I75
sS'member'
p3344
I75
sS'guns'
p3345
I75
sS'strange'
p3346
I74
sS'jaw'
p3347
I75
sS'conversations'
p3348
I75
sS'underground'
p3349
I75
sS'party'
p3350
I72
sS'gets'
p3351
I72
sS'gnight'
p3352
I75
sS'difficult'
p3353
I75
sS'tedious'
p3354
I75
sS'nokia'
p3355
I75
sS'we??"'
p3356
I75
sS'&why'
p3357
I75
sS'premiere'
p3358
I75
sS'bale'
p3359
I75
sS'drink'
p3360
I72
sS'upon'
p3361
I75
sS'beast'
p3362
I75
sS'fucken'
p3363
I73
sS'student'
p3364
I75
sS'fucked'
p3365
I71
sS'maserati'
p3366
I75
sS'sunburn'
p3367
I75
sS'magician'
p3368
I75
sS'l.a'
p3369
I70
sS'sunrise'
p3370
I75
sS'blinds'
p3371
I75
sS'off'
p3372
I54
sS'undertaker'
p3373
I75
sS'records'
p3374
I75
sS'i'
p3375
I1
sS'shotgun'
p3376
I74
sS'contest'
p3377
I75
sS'well'
p3378
I64
sS'ofl'
p3379
I74
sS'app<<<<<'
p3380
I75
sS'thought'
p3381
I69
sS'46'
p3382
I75
sS'riff'
p3383
I75
sS'oops'
p3384
I75
sS'english'
p3385
I72
sS'reseda'
p3386
I75
sS'limp'
p3387
I75
sS'latest'
p3388
I75
sS'taller'
p3389
I75
sS'cameo'
p3390
I75
sS'bananas'
p3391
I75
sS'less'
p3392
I71
sS'11/12'
p3393
I75
sS'flea'
p3394
I75
sS'batteries'
p3395
I75
sS'lauren'
p3396
I75
sS'cigarette'
p3397
I75
sS'night>>>'
p3398
I75
sS'ads'
p3399
I75
sS'bragging'
p3400
I75
sS'bell'
p3401
I72
sS'sky'
p3402
I75
sS'lake'
p3403
I75
sS'realize'
p3404
I69
sS'add'
p3405
I73
sS'other'
p3406
I67
sS'attractive'
p3407
I75
sS'work>'
p3408
I75
sS"emmanuel's"
p3409
I75
sS'ohhh'
p3410
I75
sS'2\xe2\x83\xa34\xe2\x83\xa3'
p3411
I75
sS'brah'
p3412
I75
sS'homework'
p3413
I73
sS'details'
p3414
I73
sS'identical'
p3415
I75
sS'littlest'
p3416
I75
sS"who's"
p3417
I67
sS'pants'
p3418
I75
sS'five'
p3419
I74
sS'know'
p3420
I44
sS'bottoms'
p3421
I75
sS'press'
p3422
I75
sS'immediately'
p3423
I75
sS'25%'
p3424
I75
sS'you'
p3425
I5
sS'loss'
p3426
I74
sS'showing'
p3427
I75
sS'like'
p3428
I25
sS'inviting'
p3429
I74
sS'header'
p3430
I75
sS'kitties'
p3431
I75
sS'ring'
p3432
I74
sS'04:23:06.0,34.14972223,-118.54421586,1398.01,my'
p3433
I75
sS'shell143'
p3434
I75
sS'garage'
p3435
I75
sS"luke's"
p3436
I75
sS'lose'
p3437
I74
sS'become'
p3438
I73
sS'works'
p3439
I74
sS'emmy'
p3440
I74
sS'page'
p3441
I74
sS'11%'
p3442
I75
sS'because'
p3443
I66
sS'shabby'
p3444
I75
sS'batman!,91356\n322824489471705089,shany_p,2013-04-12'
p3445
I75
sS'twitter'
p3446
I63
sS'poop'
p3447
I75
sS'alive'
p3448
I75
sS'watered'
p3449
I75
sS'hair'
p3450
I70
sS'growth'
p3451
I74
sS'xo,91356\n264227943197323264,shellzone143,2012-11-02'
p3452
I75
sS'proper'
p3453
I75
sS'home'
p3454
I57
sS'liking'
p3455
I75
sS'double'
p3456
I75
sS'happens'
p3457
I74
sS'hipsters'
p3458
I73
sS'medium-rare'
p3459
I75
sS'diaries'
p3460
I75
sS'17:41:12.0,34.15035611,-118.54404981,1398.01,keep'
p3461
I75
sS'literally'
p3462
I66
sS'hurricane'
p3463
I75
sS'constantly'
p3464
I75
sS'does'
p3465
I69
sS'oedipus'
p3466
I75
sS'g\xe2\x99\xa0\xef\xb8\x8f\xe2\x99\xa5\xef\xb8\x8f\xe2\x99\xa3\xef\xb8\x8f\xe2\x99\xa6\xef\xb8\x8f'
p3467
I75
sS'earrings'
p3468
I74
sS'dick\xe2\x80\x9dyou'
p3469
I75
sS'pepper'
p3470
I75
sS'slight'
p3471
I75
sS'rock'
p3472
I75
sS'\xd7\x99\xd7\xa4\xd7\x94'
p3473
I75
sS'slut'
p3474
I75
sS'bran'
p3475
I75
sS'pasta'
p3476
I75
sS'stage'
p3477
I75
sS'internship'
p3478
I75
sS'inconsiderate'
p3479
I75
sS'sister'
p3480
I74
sS':-)'
p3481
I45
sS'lifestyle'
p3482
I74
sS'justin'
p3483
I73
sS'world'
p3484
I70
sS'getting'
p3485
I63
sS',91356\n286742513774104576,shany_p,2013-01-03'
p3486
I75
sS'legendary'
p3487
I75
sS"sketchin'"
p3488
I75
sS'angeles'
p3489
I73
sS'epiphany'
p3490
I75
sS'swear'
p3491
I74
sS'frwd'
p3492
I75
sS'l8'
p3493
I75
sS'documentary'
p3494
I74
sS'lovers-check'
p3495
I75
sS'swimming'
p3496
I74
sS'h8'
p3497
I75
sS'own'
p3498
I70
sS'hahahahhahahaha'
p3499
I75
sS'gatsby'
p3500
I75
sS'keeps'
p3501
I75
sS'pussy'
p3502
I71
sS'tag'
p3503
I75
sS'screamed'
p3504
I75
sS'weather'
p3505
I72
sS'champ'
p3506
I75
sS'hahahahhaa'
p3507
I75
sS'world,91356\n318870412509462528,shany_p,2013-04-01'
p3508
I75
sS'quickly'
p3509
I75
sS"enemie's"
p3510
I75
sS'wack'
p3511
I75
sS'22:20:21.0,34.14971887,-118.54412096,1398.01,hahaha'
p3512
I75
sS"killin'"
p3513
I75
sS'spots'
p3514
I75
sS'noticed'
p3515
I73
sS'overtime'
p3516
I75
sS'frustration'
p3517
I75
sS'biggest'
p3518
I75
sS'inspiration'
p3519
I75
sS'catalina'
p3520
I75
sS'buy'
p3521
I71
sS'north'
p3522
I75
sS'chatting'
p3523
I75
sS"i've"
p3524
I67
sS'kinkos'
p3525
I75
sS'brand'
p3526
I74
sS'bitches'
p3527
I71
sS'hw'
p3528
I74
sS'but'
p3529
I30
sS'reminds'
p3530
I75
sS'hi'
p3531
I62
sS'ho'
p3532
I75
sS'beat'
p3533
I75
sS'editing'
p3534
I75
sS'eat'
p3535
I69
sS'bud'
p3536
I75
sS'he'
p3537
I49
sS'count'
p3538
I74
sS'boarding'
p3539
I75
sS'sending'
p3540
I75
sS'made'
p3541
I66
sS'"anti-semite'
p3542
I75
sS'places'
p3543
I74
sS'missing,91356\n286749055852351488,shany_p,2013-01-03'
p3544
I75
sS'wish'
p3545
I63
sS'finals'
p3546
I75
sS'j'
p3547
I75
sS'record'
p3548
I75
sS'fuckboy'
p3549
I75
sS'convince'
p3550
I75
sS'limit'
p3551
I75
sS'empty'
p3552
I75
sS'problem'
p3553
I74
sS'piece'
p3554
I72
sS'minutes'
p3555
I74
sS'suzy'
p3556
I75
sS'myy'
p3557
I75
sS'-->'
p3558
I74
sS'thnku'
p3559
I73
sS'pic'
p3560
I68
sS'pie'
p3561
I75
sS'ins'
p3562
I75
sS'beats'
p3563
I75
sS'goodness'
p3564
I75
sS'ink'
p3565
I75
sS'amirite?)'
p3566
I75
sS'commentators'
p3567
I75
sS'shooting'
p3568
I74
sS'ew'
p3569
I74
sS'kushiyuuuuu'
p3570
I75
sS'rumors'
p3571
I74
sS'onnnnnnnn'
p3572
I75
sS'48'
p3573
I72
sS'incredible'
p3574
I74
sS'wowwwwww'
p3575
I75
sS'dressed'
p3576
I75
sS'45'
p3577
I74
sS'treatment'
p3578
I75
sS"hummingbird's"
p3579
I75
sS'book'
p3580
I73
sS'boom'
p3581
I74
sS'sick'
p3582
I73
sS'clicky'
p3583
I75
sS'arrribbbaa'
p3584
I75
sS'mass'
p3585
I75
sS'talkin'
p3586
I75
sS'reckless'
p3587
I75
sS'monday'
p3588
I70
sS'loungin'
p3589
I75
sS'excite'
p3590
I75
sS'class'
p3591
I71
sS'disturbing-ness'
p3592
I75
sS'jung'
p3593
I75
sS'stay'
p3594
I72
sS'/song'
p3595
I75
sS'chance'
p3596
I74
sS'uba'
p3597
I74
sS'kinda'
p3598
I73
sS'grille'
p3599
I75
sS'friends'
p3600
I61
sS'goin'
p3601
I75
sS'kidding'
p3602
I75
sS'sass'
p3603
I75
sS'kardashian'
p3604
I75
sS'endddd'
p3605
I75
sS'bakes'
p3606
I75
sS'rule'
p3607
I75
sS'news"'
p3608
I75
sS'compete'
p3609
I75
sS'understand'
p3610
I70
sS'8th'
p3611
I75
s.