(dp0
S''
p1
I4
sS'todays'
p2
I49
sS'tonight.""who\'s?""my'
p3
I49
sS'colleges'
p4
I49
sS'four'
p5
I47
sS'sleep'
p6
I47
sS'asian'
p7
I49
sS'appetite'
p8
I48
sS'captain'
p9
I49
sS'hate'
p10
I39
sS'marching'
p11
I49
sS'tweet'
p12
I47
sS'bike'
p13
I49
sS'under'
p14
I48
sS'lord'
p15
I49
sS'sorry'
p16
I49
sS'worth'
p17
I49
sS'every'
p18
I43
sS'jack'
p19
I49
sS'noms'
p20
I49
sS'tickets'
p21
I48
sS'school'
p22
I48
sS'baking'
p23
I49
sS'wednesday'
p24
I49
sS'clothes'
p25
I45
sS'enjoy'
p26
I49
sS'cher'
p27
I49
sS'tired'
p28
I48
sS'bacon'
p29
I49
sS'nail'
p30
I49
sS'across'
p31
I49
sS'street'
p32
I47
sS'panda'
p33
I49
sS'even'
p34
I44
sS'hide'
p35
I49
sS'saved'
p36
I48
sS'enchiladas'
p37
I49
sS'lights'
p38
I49
sS'new'
p39
I36
sS'ever'
p40
I45
sS'told'
p41
I49
sS'song...but'
p42
I49
sS'never'
p43
I40
sS'here'
p44
I44
sS'102'
p45
I49
sS'103'
p46
I49
sS'100'
p47
I49
sS'diagnostic'
p48
I49
sS'(sherman'
p49
I37
sS'dork'
p50
I49
sS'studs'
p51
I49
sS'kids'
p52
I49
sS"i's"
p53
I49
sS'items'
p54
I48
sS'employees'
p55
I49
sS"i'd"
p56
I49
sS"i'm"
p57
I17
sS'excuse'
p58
I49
sS'bro'
p59
I48
sS'brb'
p60
I49
sS'would'
p61
I42
sS'sweater'
p62
I49
sS'motivate'
p63
I49
sS'call'
p64
I46
sS'survive'
p65
I49
sS'type'
p66
I49
sS'until'
p67
I48
sS'holy'
p68
I49
sS'relax'
p69
I49
sS'king...rarely'
p70
I49
sS'haha'
p71
I42
sS'it'
p72
I12
sS'phone'
p73
I46
sS'warm'
p74
I48
sS'off('
p75
I49
sS'hole'
p76
I49
sS'hold'
p77
I47
sS'moskwa'
p78
I49
sS'me'
p79
I10
sS'enjoying'
p80
I49
sS'word'
p81
I49
sS'crest'
p82
I49
sS'work'
p83
I33
sS'mi'
p84
I49
sS'cuddle'
p85
I49
sS'mr'
p86
I48
sS'my'
p87
I6
sS'saturday'
p88
I49
sS'give'
p89
I49
sS'goooo'
p90
I49
sS'homie'
p91
I47
sS'reviewing'
p92
I49
sS'want'
p93
I34
sS'blarrrgghhhhh'
p94
I49
sS'unforgettable'
p95
I49
sS'str8'
p96
I49
sS'end'
p97
I48
sS'thing'
p98
I48
sS"callender's"
p99
I46
sS'6mon'
p100
I49
sS'kennington'
p101
I13
sS'how'
p102
I41
sS'amazing'
p103
I44
sS'interview'
p104
I41
sS'place'
p105
I45
sS'beach'
p106
I49
sS'lam'
p107
I49
sS'beauty'
p108
I49
sS'bday'
p109
I49
sS'chaaaaaainzzz'
p110
I49
sS'after'
p111
I46
sS'wrong'
p112
I49
sS'president'
p113
I49
sS'law'
p114
I49
sS'las'
p115
I48
sS'...they'
p116
I49
sS'wins'
p117
I48
sS'schneider'
p118
I49
sS'appreciate'
p119
I49
sS'hasta'
p120
I49
sS'ultimate'
p121
I49
sS'order'
p122
I49
sS'wind'
p123
I49
sS'wine'
p124
I49
sS'salon'
p125
I49
sS'office'
p126
I49
sS'over'
p127
I41
sS'fam'
p128
I49
sS'saying?"'
p129
I49
sS'pavillions'
p130
I49
sS'oven'
p131
I49
sS'foreal'
p132
I49
sS'mayor'
p133
I49
sS'hip-hop'
p134
I49
sS'before'
p135
I45
sS'ima'
p136
I48
sS'fit'
p137
I49
sS'highlights'
p138
I48
sS'gente'
p139
I49
sS'avocado'
p140
I48
sS'better'
p141
I46
sS'405'
p142
I49
sS'production'
p143
I49
sS'd\xc3\xadas'
p144
I49
sS'weeks'
p145
I48
sS'then'
p146
I41
sS'them'
p147
I47
sS'gunning'
p148
I49
sS'safe'
p149
I48
sS'break'
p150
I44
sS'they'
p151
I40
sS'one'
p152
I31
sS'bank'
p153
I48
sS'grammar'
p154
I49
sS'chuck'
p155
I49
sS'roast'
p156
I48
sS'$50'
p157
I49
sS'went'
p158
I49
sS'meal'
p159
I49
sS'luck'
p160
I49
sS'stealing'
p161
I49
sS'dawn'
p162
I49
sS'xp'
p163
I48
sS'rt'
p164
I48
sS'driving'
p165
I49
sS'god'
p166
I48
sS'berryz'
p167
I49
sS'smo'
p168
I49
sS'ugky'
p169
I49
sS'smh'
p170
I48
sS'got'
p171
I31
sS'rn'
p172
I47
sS'...what'
p173
I49
sS'turning'
p174
I49
sS"you're"
p175
I45
sS'free'
p176
I49
sS'mourning'
p177
I49
sS'grapes'
p178
I49
sS'aisle'
p179
I49
sS'dammit'
p180
I45
sS'starts'
p181
I47
sS'days'
p182
I47
sS'+5'
p183
I49
sS'(at'
p184
I43
sS'fuckin'
p185
I49
sS'already'
p186
I48
sS'grade'
p187
I49
sS'spinning'
p188
I49
sS'another'
p189
I45
sS'goooooalalalalalallllallalaala'
p190
I49
sS'girls'
p191
I44
sS'elevator'
p192
I48
sS'anabelle'
p193
I49
sS'dumbass'
p194
I48
sS'too'
p195
I44
sS'tom'
p196
I49
sS'hollywood'
p197
I49
sS'toe'
p198
I49
sS'jwrath'
p199
I49
sS'urban'
p200
I49
sS'letsss'
p201
I49
sS'tooo'
p202
I49
sS'gym'
p203
I49
sS'took'
p204
I49
sS'wisdom'
p205
I49
sS'postcards'
p206
I49
sS'crawl'
p207
I49
sS'begins'
p208
I49
sS'paaaaaaaause'
p209
I49
sS'fooods'
p210
I49
sS'tree'
p211
I47
sS'feeling'
p212
I47
sS'este'
p213
I48
sS'ran'
p214
I49
sS'mind'
p215
I49
sS'talking'
p216
I48
sS'rap'
p217
I49
sS'seen'
p218
I47
sS'seem'
p219
I49
sS'seek'
p220
I49
sS'seminar'
p221
I49
sS'<<<33\xe2\x80\x9dso'
p222
I49
sS"she'd"
p223
I49
sS'-'
p224
I40
sS'though'
p225
I49
sS'limitless'
p226
I49
sS'phase'
p227
I49
sS'marie'
p228
I45
sS'dummy'
p229
I49
sS'episode'
p230
I47
sS'devastating'
p231
I49
sS'm'
p232
I49
sS'dog'
p233
I49
sS'doe'
p234
I49
sS'freeway'
p235
I49
sS'bullshit\xe2\x80\x9d'
p236
I49
sS'annoyed'
p237
I49
sS'came'
p238
I47
sS'saying'
p239
I49
sS'bomb'
p240
I48
sS'meetings'
p241
I49
sS'queen'
p242
I48
sS'radio'
p243
I49
sS'lessons'
p244
I49
sS'busy'
p245
I48
sS'cousins'
p246
I49
sS'donkeys...ok'
p247
I49
sS'hrs'
p248
I49
sS'than'
p249
I44
sS'touched'
p250
I49
sS'gods'
p251
I49
sS'chipotle'
p252
I48
sS'wearing'
p253
I48
sS'do'
p254
I33
sS'10'
p255
I48
sS'de'
p256
I46
sS'watch'
p257
I47
sS'da'
p258
I46
sS'wedding'
p259
I49
sS'report'
p260
I49
sS'dr'
p261
I49
sS'learned'
p262
I49
sS'disses'
p263
I49
sS'bar'
p264
I49
sS'bad'
p265
I47
sS'bae'
p266
I44
sS'grilled'
p267
I49
sS'steal'
p268
I49
sS'respond'
p269
I49
sS'fair'
p270
I47
sS'w/'
p271
I47
sS'lemonade'
p272
I49
sS'athenea'
p273
I49
sS'depends'
p274
I49
sS'toes'
p275
I49
sS'iglesia'
p276
I49
sS'best'
p277
I39
sS'said'
p278
I47
sS'kennington\xe2\x80\xa6'
p279
I47
sS'chins'
p280
I49
sS'mitch'
p281
I49
sS'lots'
p282
I48
sS'away'
p283
I49
sS'rings'
p284
I49
sS"there's"
p285
I47
sS'finger'
p286
I49
sS'viernes'
p287
I48
sS'letting'
p288
I49
sS'we'
p289
I31
sS'men'
p290
I49
sS'omg'
p291
I49
sS'wb'
p292
I49
sS'autoship'
p293
I49
sS'weak'
p294
I49
sS'boss'
p295
I49
sS'nahhh'
p296
I49
sS'wear'
p297
I49
sS'wtf'
p298
I46
sS'wth'
p299
I49
sS'cousin'
p300
I49
sS'picking'
p301
I48
sS'hills'
p302
I49
sS'received'
p303
I49
sS'goddess'
p304
I49
sS'country'
p305
I49
sS'4755'
p306
I31
sS'players'
p307
I47
sS'bet'
p308
I49
sS'faces'
p309
I49
sS'asked'
p310
I48
sS'ily'
p311
I49
sS'habran'
p312
I49
sS'had'
p313
I44
sS'excited('
p314
I49
sS'hygiene'
p315
I49
sS'springs'
p316
I49
sS'ever-_-'
p317
I49
sS'trust'
p318
I49
sS'priscilla'
p319
I49
sS'gratitude'
p320
I49
sS'bathroom'
p321
I48
sS'seein'
p322
I49
sS'three'
p323
I47
sS'been'
p324
I43
sS'beer'
p325
I49
sS'much'
p326
I43
sS'puta'
p327
I49
sS'lovely'
p328
I49
sS'life'
p329
I41
sS'crying'
p330
I48
sS'drugs'
p331
I48
sS'worker'
p332
I48
sS'watchers'
p333
I49
sS'catch'
p334
I49
sS'lionel'
p335
I49
sS'evalongoria'
p336
I49
sS'n'
p337
I48
sS'suppose'
p338
I49
sS'bloomed'
p339
I49
sS'balance'
p340
I49
sS'chilling'
p341
I49
sS'mistake'
p342
I49
sS'flat.blue'
p343
I49
sS'mexico'
p344
I48
sS'is'
p345
I8
sS'sushi'
p346
I49
sS'"i'
p347
I49
sS'cant'
p348
I49
sS'school.\xe2\x80\x9d'
p349
I49
sS'im'
p350
I46
sS'oaks)'
p351
I47
sS'in'
p352
I9
sS'if'
p353
I41
sS'things'
p354
I44
sS'make'
p355
I40
sS'split'
p356
I49
sS'strong\xe2\x80\x9d'
p357
I49
sS'success'
p358
I49
sS'couple'
p359
I48
sS'yung'
p360
I49
sS'wheel'
p361
I49
sS'bearded'
p362
I49
sS'governors'
p363
I49
sS'*silence*'
p364
I49
sS'mood:lsdemon'
p365
I49
sS'hand'
p366
I49
sS'bignight'
p367
I49
sS'aka'
p368
I48
sS'kid'
p369
I48
sS'lauging'
p370
I49
sS'youre'
p371
I49
sS'game'
p372
I44
sS'greatest'
p373
I49
sS'hearts'
p374
I49
sS'the'
p375
I2
sS'musical'
p376
I49
sS'tha'
p377
I49
sS'left'
p378
I47
sS'just'
p379
I20
sS'unemployment'
p380
I49
sS'yea'
p381
I48
sS'photo'
p382
I45
sS'||'
p383
I49
sS'sleepy'
p384
I49
sS'thanks'
p385
I36
sS'human'
p386
I49
sS'yes'
p387
I46
sS'yet'
p388
I47
sS'ham'
p389
I49
sS'han'
p390
I49
sS'scorpio'
p391
I49
sS'old-fashioned'
p392
I49
sS'character'
p393
I48
sS'oshap'
p394
I49
sS'innocent'
p395
I49
sS'has'
p396
I41
sS'5c'
p397
I49
sS'gave'
p398
I49
sS'capo'
p399
I49
sS"iggy's"
p400
I49
sS'airhead'
p401
I49
sS'-_-'
p402
I49
sS'performing'
p403
I49
sS'remind'
p404
I49
sS'steps'
p405
I49
sS'night'
p406
I31
sS'amor'
p407
I49
sS'right'
p408
I44
sS'old'
p409
I49
sS'deal'
p410
I49
sS'people'
p411
I41
sS'dead'
p412
I48
sS'tajin'
p413
I49
sS'doorstep'
p414
I49
sS'confusing'
p415
I49
sS'humor'
p416
I49
sS'customer:)'
p417
I49
sS'for'
p418
I8
sS'ice'
p419
I48
sS'gymboree'
p420
I49
sS'everything'
p421
I44
sS'asking'
p422
I48
sS'shakes'
p423
I49
sS'preeeeeetttty'
p424
I49
sS'graduates'
p425
I49
sS'stuborness'
p426
I49
sS'post'
p427
I49
sS'super'
p428
I48
sS'dollars'
p429
I49
sS'months'
p430
I48
sS'choke'
p431
I49
sS'o'
p432
I48
sS'dinner'
p433
I40
sS'afternoon'
p434
I49
sS'emcee'
p435
I49
sS'thermostat'
p436
I49
sS'presence'
p437
I49
sS'wasting'
p438
I49
sS'ahh'
p439
I47
sS'soo'
p440
I49
sS'bath'
p441
I49
sS'down'
p442
I42
sS'thankful'
p443
I49
sS'exciting"'
p444
I49
sS'accomplishments'
p445
I49
sS'wrap'
p446
I49
sS'surround'
p447
I49
sS'tennis'
p448
I49
sS'gift'
p449
I48
sS'fight'
p450
I48
sS'stuck'
p451
I48
sS'trayvon'
p452
I49
sS'gio'
p453
I48
sS'music'
p454
I48
sS'was'
p455
I28
sS'happy'
p456
I34
sS'head'
p457
I49
sS'northridge'
p458
I49
sS'offer'
p459
I48
sS'sickest'
p460
I48
sS'feminine'
p461
I49
sS'needles'
p462
I49
sS'hear'
p463
I48
sS'true'
p464
I48
sS'reset'
p465
I49
sS'happen'
p466
I49
sS'inside'
p467
I49
sS'tell'
p468
I46
sS'crystal'
p469
I49
sS'emotional'
p470
I49
sS'daddy'
p471
I49
sS'trim'
p472
I49
sS'proud'
p473
I48
sS'drive'
p474
I47
sS'esteban'
p475
I49
sS'check'
p476
I47
sS'shit'
p477
I39
sS'nh'
p478
I49
sS'tarde'
p479
I49
sS'no'
p480
I29
sS'tit'
p481
I49
sS'tip'
p482
I49
sS'ne'
p483
I48
sS'reality'
p484
I49
sS'oscar'
p485
I49
sS'test'
p486
I48
sS'smell'
p487
I49
sS"'s"
p488
I49
sS'football'
p489
I48
sS"let's"
p490
I44
sS'fell'
p491
I49
sS'cooper'
p492
I49
sS'hurt'
p493
I49
sS'weekend'
p494
I43
sS'died'
p495
I48
sS'jones'
p496
I49
sS'glass'
p497
I49
sS'packets'
p498
I49
sS'bradleyfordmason'
p499
I49
sS'teeth'
p500
I49
sS'serious'
p501
I49
sS'lineup'
p502
I49
sS':))'
p503
I49
sS':/'
p504
I49
sS':('
p505
I49
sS':)'
p506
I42
sS'ron'
p507
I49
sS'dance'
p508
I47
sS'roa'
p509
I48
sS'umm...i'
p510
I49
sS'acrylics'
p511
I49
sS'apts'
p512
I49
sS'grateful'
p513
I49
sS'chair'
p514
I49
sS'milk'
p515
I47
sS'surplus'
p516
I49
sS'venice'
p517
I49
sS'suicide'
p518
I49
sS'yummy'
p519
I47
sS'fine.....and'
p520
I49
sS'zone'
p521
I49
sS'818'
p522
I49
sS'answered'
p523
I49
sS'finally'
p524
I43
sS'protestors'
p525
I49
sS'brown'
p526
I49
sS':o'
p527
I49
sS'seshallowaterboyz'
p528
I49
sS'advantage'
p529
I49
sS':d'
p530
I47
sS'recipe'
p531
I49
sS'choice'
p532
I49
sS'vegas'
p533
I49
sS'5min'
p534
I49
sS':p'
p535
I49
sS'10the'
p536
I49
sS'did'
p537
I45
sS'die'
p538
I47
sS'dig'
p539
I49
sS'peeps'
p540
I49
sS'brother'
p541
I49
sS'turnt'
p542
I49
sS'leave'
p543
I48
sS'soooo'
p544
I49
sS'tums'
p545
I49
sS'team'
p546
I48
sS'quick'
p547
I47
sS'guy'
p548
I46
sS'round'
p549
I49
sS'yall'
p550
I49
sS'says'
p551
I47
sS'regret'
p552
I49
sS'"sassy"'
p553
I49
sS'cyber'
p554
I49
sS'group*'
p555
I49
sS'shirts'
p556
I49
sS'eating'
p557
I48
sS'rough'
p558
I49
sS'drinks'
p559
I48
sS'lmbo'
p560
I49
sS'stressful'
p561
I48
sS'mels'
p562
I49
sS'melt'
p563
I49
sS'goes'
p564
I48
sS'oaks'
p565
I30
sS'"oasis"'
p566
I49
sS'apartments)'
p567
I46
sS'trunkhunnids'
p568
I49
sS'water'
p569
I47
sS'alone'
p570
I49
sS'along'
p571
I49
sS'change'
p572
I47
sS'wait'
p573
I35
sS'box'
p574
I49
sS'boy'
p575
I48
sS'standout'
p576
I49
sS'woop'
p577
I48
sS'alta'
p578
I49
sS'bon'
p579
I48
sS'boo'
p580
I48
sS'hospitality'
p581
I49
sS'homecoming'
p582
I46
sS'love'
p583
I30
sS'extra'
p584
I48
sS"'keeper"
p585
I49
sS'fake'
p586
I49
sS'markes'
p587
I49
sS'pitchers'
p588
I49
sS'gillette'
p589
I49
sS'working'
p590
I49
sS'positive'
p591
I48
sS'dude'
p592
I48
sS'live'
p593
I42
sS'going'
p594
I34
sS'ayy'
p595
I49
sS'iphone'
p596
I49
sS'ahhh'
p597
I49
sS'prep'
p598
I49
sS'today'
p599
I38
sS'riot'
p600
I49
sS'afford'
p601
I49
sS'ooo'
p602
I47
sS'beers'
p603
I49
sS'riders'
p604
I49
sS'deserved'
p605
I49
sS'niggas'
p606
I49
sS'eeeeee'
p607
I49
sS'car'
p608
I48
sS'can'
p609
I32
sS'growing'
p610
I49
sS'making'
p611
I47
sS'crazy'
p612
I48
sS'mongo'
p613
I49
sS'figure'
p614
I49
sS'awesome'
p615
I46
sS"comin'"
p616
I49
sS"didn't"
p617
I47
sS'fuck'
p618
I37
sS'shards'
p619
I49
sS'topic'
p620
I49
sS'regale'
p621
I49
sS'burbank'
p622
I49
sS'spa'
p623
I48
sS'stole'
p624
I49
sS'swedish'
p625
I49
sS'means'
p626
I49
sS'sundae'
p627
I49
sS'dorito'
p628
I49
sS'1'
p629
I46
sS'till'
p630
I49
sS'sunday'
p631
I47
sS'\xe2\x9d\xa4\xef\xb8\x8f\xe2\x9d\xa4\xef\xb8\x8f\xe2\x9d\xa4\xef\xb8\x8f'
p632
I49
sS'absolute'
p633
I49
sS'photography'
p634
I47
sS'hollywood/valley'
p635
I49
sS'$100'
p636
I49
sS'mas'
p637
I49
sS'laundry'
p638
I49
sS'huge'
p639
I49
sS'may'
p640
I46
sS'sacrifice'
p641
I49
sS'spot'
p642
I48
sS'stripes'
p643
I49
sS'levi'
p644
I49
sS'birthday'
p645
I49
sS'mae'
p646
I49
sS'mad'
p647
I49
sS'date'
p648
I45
sS'such'
p649
I45
sS'suck'
p650
I49
sS'guys'
p651
I44
sS'man'
p652
I44
sS'waist'
p653
I49
sS'conscious'
p654
I49
sS'whenever'
p655
I49
sS'maybe'
p656
I49
sS'adornato'
p657
I49
sS'blastin'
p658
I49
sS'(14846'
p659
I49
sS'(14845'
p660
I49
sS'mango'
p661
I49
sS'so'
p662
I15
sS'basket'
p663
I49
sS'pulled'
p664
I49
sS'se'
p665
I49
sS'refund'
p666
I49
sS'cute'
p667
I48
sS'lsd'
p668
I49
sS'shoes'
p669
I48
sS'midnight'
p670
I49
sS'feature'
p671
I49
sS'course'
p672
I49
sS'episodes'
p673
I49
sS'shake'
p674
I47
sS'cold'
p675
I49
sS'still'
p676
I42
sS'gta'
p677
I49
sS'rooftop'
p678
I49
sS'thank'
p679
I40
sS"he's"
p680
I43
sS'interesting'
p681
I49
sS'sexiest'
p682
I49
sS'hot'
p683
I48
sS'offers'
p684
I49
sS'main'
p685
I49
sS'selfie'
p686
I49
sS'happened'
p687
I48
sS'busquets'
p688
I49
sS'moms'
p689
I48
sS'huehuehuehu'
p690
I49
sS'lunch'
p691
I46
sS'half'
p692
I48
sS'not'
p693
I33
sS'now'
p694
I36
sS'bullshit'
p695
I49
sS'name'
p696
I48
sS'clutch'
p697
I49
sS'chiptole'
p698
I49
sS'em'
p699
I48
sS'square'
p700
I49
sS'it...if'
p701
I49
sS'crushing'
p702
I49
sS'yeah'
p703
I45
sS'i-10'
p704
I49
sS'bradley'
p705
I47
sS'catching'
p706
I49
sS'year'
p707
I46
sS'girl'
p708
I42
sS'420!!!\xe2\x9d\xa4'
p709
I49
sS'es'
p710
I48
sS'living'
p711
I49
sS'and\xe2\x80\xa6'
p712
I49
sS'3rd'
p713
I49
sS'seriously'
p714
I48
sS'miles'
p715
I49
sS'montoya'
p716
I49
sS'she'
p717
I40
sS'smfh'
p718
I49
sS'05:00:40.0,34.1573744,-118.4564162,1413.03,i'
p719
I49
sS'*clicks'
p720
I49
sS'quite'
p721
I49
sS'card'
p722
I49
sS'advance'
p723
I49
sS'carnival'
p724
I49
sS'waiter'
p725
I49
sS'yup'
p726
I49
sS'programming'
p727
I49
sS'turn'
p728
I49
sS'lindsey'
p729
I49
sS'yum'
p730
I48
sS'think'
p731
I41
sS'first'
p732
I41
sS'cheese'
p733
I48
sS'bling'
p734
I49
sS'coming'
p735
I45
sS'yourself'
p736
I49
sS'fast'
p737
I49
sS'spanish'
p738
I49
sS'xs'
p739
I49
sS'sounds'
p740
I48
sS'open'
p741
I39
sS'tomorrow'
p742
I36
sS'city'
p743
I48
sS'little'
p744
I48
sS'caught'
p745
I48
sS'anyone'
p746
I48
sS'2'
p747
I38
sS'white'
p748
I46
sS'cousin,91403\n511738787756793856,thegrandeb,2014-09-16'
p749
I49
sS'friend'
p750
I46
sS'eyes'
p751
I49
sS'exoskeleton'
p752
I49
sS'way'
p753
I44
sS'that'
p754
I18
sS'season'
p755
I49
sS'boba'
p756
I49
sS'ridiculous'
p757
I49
sS'butt'
p758
I49
sS'quad'
p759
I49
sS'copy'
p760
I49
sS"mel's"
p761
I35
sS'boyfriend'
p762
I48
sS'11'
p763
I48
sS'wide'
p764
I49
sS'13'
p765
I49
sS'12'
p766
I49
sS'15'
p767
I48
sS'lmao'
p768
I47
sS'gotta'
p769
I48
sS'10:00'
p770
I49
sS'ventura'
p771
I45
sS'r'
p772
I47
sS'venture'
p773
I49
sS'were'
p774
I47
sS'cards'
p775
I49
sS'and'
p776
I7
sS'coconut'
p777
I45
sS'lick'
p778
I49
sS'san'
p779
I48
sS'hoes'
p780
I49
sS'sad'
p781
I44
sS'say'
p782
I46
sS'rent'
p783
I48
sS'breakfast'
p784
I45
sS'saw'
p785
I46
sS'any'
p786
I47
sS'rotflmmfao'
p787
I49
sS'drive-in)'
p788
I46
sS'uuuuuu'
p789
I49
sS'note'
p790
I48
sS'hookah'
p791
I48
sS'take'
p792
I40
sS'sure'
p793
I47
sS'price'
p794
I48
sS'sherman'
p795
I40
sS'paid'
p796
I47
sS'america'
p797
I49
sS'forever'
p798
I47
sS'lates'
p799
I49
sS'later'
p800
I49
sS'hungry'
p801
I48
sS'wing'
p802
I49
sS'senior'
p803
I48
sS'salt'
p804
I49
sS'shop'
p805
I49
sS'drastically'
p806
I49
sS'\xe2\x9c\xa8'
p807
I48
sS'show'
p808
I49
sS'visiting\xe2\x80\xa6'
p809
I49
sS'cheap'
p810
I49
sS"...you've"
p811
I49
sS'mmnn'
p812
I49
sS'mister'
p813
I49
sS'ground'
p814
I49
sS'aint'
p815
I49
sS'slow'
p816
I47
sS'\xe2\x9c\x8a'
p817
I49
sS'3'
p818
I47
sS'only'
p819
I40
sS'dics'
p820
I49
sS'black'
p821
I48
sS'hockey'
p822
I48
sS'viva'
p823
I49
sS'get'
p824
I32
sS'mormon'
p825
I49
sS'truly'
p826
I49
sS'cursing'
p827
I49
sS'lighter'
p828
I49
sS'freaking'
p829
I48
sS'borrow'
p830
I49
sS'morning'
p831
I46
sS'naked'
p832
I48
sS'jokes'
p833
I49
sS'stupid'
p834
I48
sS'pants'
p835
I48
sS'where'
p836
I45
sS"y'all"
p837
I49
sS'concert'
p838
I49
sS'better?woah'
p839
I49
sS'seat'
p840
I47
sS'yeahyeaaaaahhh'
p841
I49
sS'college'
p842
I49
sS'peppermint'
p843
I49
sS'hell'
p844
I48
sS'sport'
p845
I49
sS'hoez'
p846
I49
sS'boning'
p847
I49
sS'opening'
p848
I49
sS'enough'
p849
I49
sS'estar'
p850
I49
sS'between'
p851
I48
sS'to.l.a'
p852
I49
sS'checks'
p853
I48
sS'scoring'
p854
I49
sS'notice'
p855
I49
sS'jobs'
p856
I49
sS"callender's)"
p857
I49
sS'home"sick'
p858
I49
sS'armenian'
p859
I49
sS'jk'
p860
I49
sS'article'
p861
I49
sS'come'
p862
I42
sS'fackkk'
p863
I49
sS'installation'
p864
I49
sS'many'
p865
I48
sS"can't"
p866
I30
sS'comer'
p867
I49
sS'armenia'
p868
I49
sS'hurts'
p869
I49
sS'jeans'
p870
I49
sS'pop'
p871
I48
sS'3000'
p872
I49
sS"couldn't"
p873
I48
sS'actually'
p874
I49
sS'well...at'
p875
I49
sS'west'
p876
I49
sS'ucla'
p877
I48
sS'breath'
p878
I49
sS'quitte'
p879
I48
sS'wants'
p880
I47
sS'shopping'
p881
I49
sS'andrew'
p882
I48
sS'laney'
p883
I49
sS'centerpiece'
p884
I49
sS'stovetop'
p885
I49
sS'hashtag'
p886
I49
sS'hardcore'
p887
I49
sS'those'
p888
I45
sS'sound'
p889
I48
sS'myself'
p890
I49
sS'3:45'
p891
I49
sS'these'
p892
I42
sS'penthouse'
p893
I49
sS'ive'
p894
I49
sS'agnostic'
p895
I49
sS'mixtape'
p896
I49
sS'sleeping'
p897
I48
sS'middle'
p898
I49
sS'someone'
p899
I40
sS'punched'
p900
I49
sS'protein'
p901
I49
sS'stickers'
p902
I49
sS'annoying'
p903
I49
sS'pay'
p904
I48
sS'same'
p905
I45
sS'good:d'
p906
I49
sS'food'
p907
I48
sS'motherfuckin'
p908
I49
sS'damon'
p909
I49
sS'pal'
p910
I49
sS'todos'
p911
I48
sS'-1...sound'
p912
I49
sS'week'
p913
I42
sS'extended'
p914
I49
sS'ni'
p915
I49
sS'running'
p916
I49
sS'harris'
p917
I49
sS'changing'
p918
I49
sS'1pm'
p919
I49
sS'totally'
p920
I49
sS'theater'
p921
I48
sS'magical'
p922
I49
sS'without'
p923
I49
sS'comes'
p924
I47
sS'hubby'
p925
I49
sS'starbucks'
p926
I48
sS'summer'
p927
I45
sS'morons'
p928
I49
sS'realest'
p929
I49
sS'ya'
p930
I47
sS'money'
p931
I48
sS'rest'
p932
I48
sS'(i'
p933
I49
sS'kill'
p934
I49
sS'polish'
p935
I49
sS'uberpool'
p936
I49
sS'blow'
p937
I48
sS'rosh'
p938
I49
sS'remember'
p939
I49
sS'seems'
p940
I49
sS'iphones'
p941
I49
sS'it\xe2\x80\x99s'
p942
I49
sS'lets'
p943
I46
sS'paaaaas'
p944
I49
sS'ahhhh'
p945
I49
sS'4'
p946
I49
sS'ca'
p947
I49
sS'kingdom'
p948
I49
sS'around'
p949
I49
sS'gonna'
p950
I44
sS'early'
p951
I49
sS'()'
p952
I49
sS'traffic'
p953
I49
sS'mon'
p954
I49
sS'mom'
p955
I42
sS'pangea'
p956
I47
sS'world'
p957
I45
sS'accepted'
p958
I49
sS'disappointed'
p959
I49
sS"('"
p960
I49
sS'thing""a'
p961
I49
sS'pounds'
p962
I49
sS'either'
p963
I49
sS'clay'
p964
I49
sS'grub'
p965
I49
sS'apartments'
p966
I14
sS'madrid'
p967
I45
sS'competition'
p968
I49
sS'romansh'
p969
I49
sS'oscars'
p970
I49
sS'guillermo'
p971
I49
sS'snoring'
p972
I49
sS'mood'
p973
I48
sS'memories'
p974
I49
sS'willis'
p975
I49
sS'moon'
p976
I49
sS'felt'
p977
I48
sS'raven_queen'
p978
I49
sS'lmfao'
p979
I47
sS'^_^'
p980
I48
sS'asad'
p981
I48
sS';)'
p982
I47
sS'exciting'
p983
I49
sS'throw'
p984
I49
sS'be\xe2\x80\xa6'
p985
I49
sS'on'
p986
I16
sS'ok'
p987
I46
sS'oj'
p988
I49
sS'oh'
p989
I42
sS'of'
p990
I14
sS'favorite'
p991
I48
sS'cleanse)'
p992
I49
sS'srs'
p993
I49
sS'journey'
p994
I49
sS'toothpaste'
p995
I49
sS'deezrelentless'
p996
I49
sS'or'
p997
I41
sS'blessed'
p998
I49
sS'vacation'
p999
I49
sS'shiet'
p1000
I47
sS'organics'
p1001
I49
sS'jasper'
p1002
I49
sS'youu'
p1003
I49
sS'your'
p1004
I31
sS'trabajar'
p1005
I49
sS'her'
p1006
I40
sS'hes'
p1007
I49
sS'there'
p1008
I41
sS'hey'
p1009
I49
sS'lol'
p1010
I37
sS'start'
p1011
I46
sS'low'
p1012
I49
sS'lot'
p1013
I47
sS'valley'
p1014
I49
sS'4:39'
p1015
I49
sS'allergic'
p1016
I49
sS'staaaaacys'
p1017
I49
sS'lane'
p1018
I49
sS'amongst'
p1019
I49
sS'raven_queen\xe2\x80\xa6'
p1020
I49
sS'survived'
p1021
I49
sS'corse'
p1022
I49
sS'trying'
p1023
I44
sS'with'
p1024
I11
sS'spice'
p1025
I49
sS"they're"
p1026
I48
sS'hire'
p1027
I49
sS'joint'
p1028
I49
sS"wasn't"
p1029
I49
sS'ronaldo'
p1030
I49
sS'tftiville'
p1031
I49
sS"ol'reliable"
p1032
I49
sS'\xe2\x98\x80\xe2\x98\x80\xe2\x98\x80'
p1033
I49
sS'strawberry'
p1034
I49
sS'offsides'
p1035
I49
sS'expect'
p1036
I49
sS"ratchet's"
p1037
I49
sS'ac'
p1038
I49
sS'deez'
p1039
I49
sS'af'
p1040
I49
sS'exhausted'
p1041
I48
sS'ah'
p1042
I48
sS'am'
p1043
I37
sS'fellow'
p1044
I49
sS'60%'
p1045
I49
sS'as'
p1046
I49
sS'at'
p1047
I13
sS'aw'
p1048
I49
sS'girlfriend'
p1049
I49
sS'watched'
p1050
I48
sS'trapfag'
p1051
I49
sS'deee'
p1052
I49
sS'tedious'
p1053
I49
sS'again'
p1054
I42
sS'yoga'
p1055
I49
sS'graduate'
p1056
I49
sS'tight'
p1057
I48
sS'5'
p1058
I44
sS'you'
p1059
I10
sS'mapwork'
p1060
I49
sS'separate'
p1061
I49
sS'finale'
p1062
I48
sS'-__-'
p1063
I48
sS'gifts'
p1064
I49
sS'sallie'
p1065
I49
sS'hueheie'
p1066
I49
sS'koubou'
p1067
I49
sS'building'
p1068
I49
sS'carbs'
p1069
I49
sS'wifi'
p1070
I49
sS'too!"'
p1071
I49
sS'having'
p1072
I47
sS'u'
p1073
I24
sS'alright'
p1074
I49
sS'starting'
p1075
I49
sS'crustose'
p1076
I49
sS'all'
p1077
I29
sS'lace'
p1078
I49
sS'messi'
p1079
I49
sS'dollar'
p1080
I49
sS'disc'
p1081
I49
sS'follow'
p1082
I45
sS'children'
p1083
I49
sS'usher.mp3'
p1084
I49
sS'blueberries'
p1085
I49
sS'referring'
p1086
I49
sS'hunting'
p1087
I49
sS'bakken'
p1088
I49
sS'tu'
p1089
I47
sS'thursday'
p1090
I49
sS'to'
p1091
I3
sS'program'
p1092
I48
sS'te'
p1093
I49
sS'tb'
p1094
I48
sS'paying'
p1095
I49
sS'fax'
p1096
I49
sS'woman'
p1097
I49
sS'appointment'
p1098
I49
sS'worse'
p1099
I48
sS'song'
p1100
I46
sS'very'
p1101
I46
sS'fat'
p1102
I48
sS'worst'
p1103
I48
sS'fall'
p1104
I49
sS'ticket'
p1105
I48
sS'list'
p1106
I48
sS'large'
p1107
I49
sS'small'
p1108
I49
sS"i'll"
p1109
I46
sS'cookies'
p1110
I49
sS'quicker'
p1111
I48
sS'instagram'
p1112
I47
sS':^))'
p1113
I49
sS'past'
p1114
I49
sS'burger'
p1115
I48
sS'rate'
p1116
I49
sS'casual'
p1117
I49
sS'harden'
p1118
I49
sS'what'
p1119
I32
sS'sun'
p1120
I49
sS'section'
p1121
I49
sS'resume'
p1122
I49
sS'crush'
p1123
I49
sS'sooooooo'
p1124
I48
sS'whaa'
p1125
I49
sS'tribute'
p1126
I49
sS'dias'
p1127
I49
sS'full'
p1128
I46
sS'today...fresh'
p1129
I49
sS'week:)'
p1130
I49
sS'hours'
p1131
I48
sS'*asks'
p1132
I49
sS'i.d'
p1133
I49
sS'grape'
p1134
I49
sS'experience'
p1135
I49
sS'pics'
p1136
I49
sS'crybaby'
p1137
I49
sS'pick'
p1138
I48
sS'real'
p1139
I49
sS'via'
p1140
I49
sS'family'
p1141
I45
sS'vii'
p1142
I49
sS'screens'
p1143
I49
sS'semester'
p1144
I49
sS'emoji'
p1145
I49
sS'm:-)'
p1146
I49
sS'eye'
p1147
I48
sS'destination'
p1148
I49
sS'two'
p1149
I43
sS'fooddddd'
p1150
I49
sS'kjokovic'
p1151
I49
sS'gorgeous'
p1152
I48
sS'shits'
p1153
I49
sS'injury'
p1154
I49
sS'more'
p1155
I36
sS'tele-nav'
p1156
I49
sS'tryna'
p1157
I48
sS"hella'"
p1158
I49
sS'ramona'
p1159
I49
sS'plant'
p1160
I49
sS'00:06:55.0,34.157452,-118.4557385,1413.03,when'
p1161
I49
sS"ain't"
p1162
I49
sS'broke'
p1163
I49
sS'hurry'
p1164
I49
sS'glad'
p1165
I49
sS'grill'
p1166
I48
sS'hour'
p1167
I46
sS'sucks'
p1168
I49
sS'learn'
p1169
I49
sS'beautiful'
p1170
I48
sS'share'
p1171
I49
sS'accept'
p1172
I48
sS'daddys'
p1173
I49
sS'sunny'
p1174
I49
sS'minimum'
p1175
I48
sS'sense'
p1176
I48
sS'hhn'
p1177
I49
sS'mcgangbang'
p1178
I49
sS'needs'
p1179
I48
sS'goal'
p1180
I49
sS'desperation'
p1181
I49
sS'pompo'
p1182
I49
sS'enomarada'
p1183
I49
sS'queden'
p1184
I49
sS'*ends'
p1185
I49
sS'minutes:('
p1186
I49
sS'fr'
p1187
I49
sS'sandwich'
p1188
I49
sS'okay'
p1189
I47
sS'brets'
p1190
I49
sS'lighting'
p1191
I49
sS'adventure'
p1192
I49
sS'fg'
p1193
I49
sS'(14801'
p1194
I49
sS'a'
p1195
I5
sS'funday'
p1196
I49
sS'cards.there'
p1197
I49
sS'tweeting'
p1198
I49
sS'11-1pm'
p1199
I49
sS'anytime'
p1200
I49
sS'inline'
p1201
I49
sS'playing'
p1202
I49
sS"that's"
p1203
I41
sS'help'
p1204
I47
sS'uncensored'
p1205
I49
sS"don't"
p1206
I36
sS'gymboree)'
p1207
I49
sS'flowers'
p1208
I49
sS'soon'
p1209
I48
sS'isnt'
p1210
I48
sS'paper'
p1211
I49
sS'bcus'
p1212
I49
sS'its'
p1213
I46
sS'5:30'
p1214
I49
sS'style'
p1215
I49
sS'27'
p1216
I49
sS'pens'
p1217
I49
sS'done:)'
p1218
I49
sS'brows'
p1219
I49
sS'28'
p1220
I49
sS'ricardo'
p1221
I49
sS'late'
p1222
I49
sS'van'
p1223
I49
sS'cutie'
p1224
I49
sS'might'
p1225
I49
sS"haven't"
p1226
I49
sS'hurting'
p1227
I49
sS'good'
p1228
I24
sS'return'
p1229
I49
sS'yo'
p1230
I47
sS'gooo'
p1231
I49
sS'hunter'
p1232
I49
sS'uhh'
p1233
I49
sS'eco-beauties'
p1234
I49
sS"you've"
p1235
I48
sS"james'"
p1236
I49
sS'sundays'
p1237
I49
sS'always'
p1238
I42
sS'drake'
p1239
I49
sS'found'
p1240
I46
sS'notes'
p1241
I49
sS"isn't"
p1242
I49
sS'everyone'
p1243
I41
sS'weight'
p1244
I49
sS'house'
p1245
I39
sS'energy'
p1246
I47
sS'hard'
p1247
I47
sS'idea'
p1248
I47
sS'police'
p1249
I49
sS'duchess'
p1250
I49
sS'connect'
p1251
I48
sS'event'
p1252
I49
sS'really'
p1253
I42
sS'missed'
p1254
I48
sS'since'
p1255
I48
sS'mu\xc3\xb1oz'
p1256
I49
sS'hill'
p1257
I49
sS'7'
p1258
I49
sS'ass'
p1259
I45
sS'hailing'
p1260
I49
sS'dirt'
p1261
I49
sS'friday'
p1262
I43
sS'bulll'
p1263
I49
sS'disneyland'
p1264
I49
sS'fatass'
p1265
I49
sS'imagine'
p1266
I49
sS'put'
p1267
I48
sS'onsite'
p1268
I46
sS'golly'
p1269
I49
sS'launch'
p1270
I49
sS'computers'
p1271
I49
sS'terrible'
p1272
I49
sS'american'
p1273
I49
sS'w'
p1274
I48
sS'castle'
p1275
I49
sS'dont'
p1276
I49
sS'feel'
p1277
I42
sS'contender'
p1278
I49
sS'ayyeee'
p1279
I49
sS'number'
p1280
I49
sS'done'
p1281
I45
sS'dzevakan'
p1282
I49
sS'miss'
p1283
I46
sS'villa'
p1284
I49
sS'story'
p1285
I49
sS'killin'
p1286
I49
sS'script'
p1287
I49
sS'least'
p1288
I48
sS'paint'
p1289
I47
sS'station'
p1290
I49
sS'mama'
p1291
I49
sS'julietta)'
p1292
I49
sS'nigeria'
p1293
I49
sS'banana'
p1294
I48
sS'store'
p1295
I48
sS'1-5pm'
p1296
I48
sS'relationship'
p1297
I49
sS'park'
p1298
I48
sS'segun'
p1299
I49
sS'part'
p1300
I49
sS'thesigning'
p1301
I49
sS'believe'
p1302
I48
sS'grocery'
p1303
I49
sS'ave)'
p1304
I43
sS'double'
p1305
I48
sS'swerve'
p1306
I49
sS'suffocating'
p1307
I49
sS'juice'
p1308
I48
sS'guncles'
p1309
I49
sS"scared\xe2\x80\x9dyou're"
p1310
I49
sS'sell'
p1311
I49
sS'wilson'
p1312
I49
sS'dancing'
p1313
I49
sS'self'
p1314
I49
sS'also'
p1315
I47
sS'liz'
p1316
I49
sS'darte'
p1317
I49
sS'play'
p1318
I47
sS'hires'
p1319
I49
sS'chunts'
p1320
I49
sS'eggs'
p1321
I49
sS'most'
p1322
I47
sS'75'
p1323
I49
sS'nopull'
p1324
I49
sS'nothing'
p1325
I46
sS'tongue*'
p1326
I49
sS'diamonds)'
p1327
I49
sS'understands'
p1328
I49
sS'windows'
p1329
I48
sS'into'
p1330
I46
sS'sometimes'
p1331
I49
sS'hamie'
p1332
I49
sS'clean'
p1333
I49
sS'blend'
p1334
I49
sS'ugh'
p1335
I49
sS'golf'
p1336
I49
sS'session'
p1337
I47
sS'felon'
p1338
I49
sS'85\xc2\xa2'
p1339
I49
sS'valet'
p1340
I49
sS'find'
p1341
I48
sS'1-4pm'
p1342
I47
sS'brushed'
p1343
I49
sS'ruin'
p1344
I49
sS'waiting'
p1345
I49
sS'being'
p1346
I49
sS'betray'
p1347
I49
sS'pretty'
p1348
I42
sS'luis'
p1349
I49
sS"mom's"
p1350
I49
sS'giants'
p1351
I49
sS'his'
p1352
I45
sS'party?\xe2\x80\x9d'
p1353
I49
sS'salud'
p1354
I49
sS'express'
p1355
I48
sS'tillman'
p1356
I49
sS'b'
p1357
I48
sS'work-_-'
p1358
I49
sS'during'
p1359
I48
sS'him'
p1360
I44
sS'enemy'
p1361
I49
sS'metta'
p1362
I49
sS'rft'
p1363
I49
sS'cry'
p1364
I49
sS'thots'
p1365
I49
sS'"meat"balls'
p1366
I49
sS'wrote'
p1367
I49
sS'approaching'
p1368
I49
sS'ser'
p1369
I49
sS"missin'"
p1370
I49
sS'sex'
p1371
I48
sS'see'
p1372
I43
sS'dumb'
p1373
I48
sS'are'
p1374
I26
sS'close'
p1375
I47
sS'retweet'
p1376
I49
sS'definitely'
p1377
I49
sS'pictures'
p1378
I48
sS'wow'
p1379
I49
sS'vons'
p1380
I49
sS'halves'
p1381
I49
sS'fans'
p1382
I49
sS'smallest'
p1383
I49
sS'captured'
p1384
I49
sS'probably'
p1385
I48
sS'rlly'
p1386
I49
sS'available'
p1387
I49
sS'"bargain"'
p1388
I49
sS'last'
p1389
I44
sS'barely'
p1390
I49
sS'became'
p1391
I49
sS'retarded'
p1392
I49
sS'whole'
p1393
I48
sS'liked'
p1394
I49
sS'bbyiniguez3'
p1395
I49
sS'simple'
p1396
I48
sS'andas'
p1397
I49
sS'rosa'
p1398
I49
sS'simply'
p1399
I49
sS'likes'
p1400
I49
sS'church'
p1401
I49
sS'streva'
p1402
I49
sS'mission'
p1403
I49
sS'headaches'
p1404
I48
sS'devil'
p1405
I49
sS'monthly'
p1406
I48
sS'damn'
p1407
I47
sS'damm'
p1408
I48
sS'9:30'
p1409
I49
sS'meeting'
p1410
I49
sS'woke'
p1411
I48
sS'banana-chocolate'
p1412
I49
sS'gay'
p1413
I47
sS'gas'
p1414
I49
sS'else'
p1415
I44
sS'anthony'
p1416
I49
sS'whatever'
p1417
I49
sS'understand'
p1418
I49
sS'whitney'
p1419
I49
sS'look'
p1420
I44
sS'frozen'
p1421
I47
sS'bill'
p1422
I48
sS'\xe2\xad\x90\xef\xb8\x8f'
p1423
I49
sS'while'
p1424
I46
sS'replaced'
p1425
I49
sS'smart'
p1426
I49
sS'fun'
p1427
I43
sS'graffiti'
p1428
I49
sS'theres'
p1429
I49
sS'styles'
p1430
I49
sS'<3'
p1431
I49
sS'portugal'
p1432
I49
sS'rip'
p1433
I49
sS'ready'
p1434
I41
sS'rib'
p1435
I49
sS'voy'
p1436
I49
sS'funny'
p1437
I49
sS'falcao'
p1438
I49
sS'forced'
p1439
I49
sS'off:d'
p1440
I49
sS'yesterday'
p1441
I49
sS'holidays'
p1442
I49
sS'moment'
p1443
I49
sS'gihan'
p1444
I49
sS'cleaning'
p1445
I48
sS":'^(("
p1446
I49
sS'kno'
p1447
I48
sS'nola'
p1448
I49
sS'obviously'
p1449
I48
sS'neeeeeeggddd'
p1450
I49
sS'y'
p1451
I48
sS'organization'
p1452
I49
sS'dark'
p1453
I49
sS'spend'
p1454
I49
sS'>.<'
p1455
I49
sS'laaaa'
p1456
I49
sS'work:d'
p1457
I49
sS'scoops\xe2\x80\xa6'
p1458
I49
sS'it.\xe2\x80\x9d'
p1459
I49
sS'obispo...ok'
p1460
I49
sS'using'
p1461
I49
sS'alternative'
p1462
I49
sS'wage'
p1463
I49
sS'cup'
p1464
I47
sS'caras'
p1465
I49
sS'cuz'
p1466
I48
sS'sydney'
p1467
I49
sS'lurkin'
p1468
I49
sS'easter'
p1469
I49
sS'excited'
p1470
I47
sS'dankk'
p1471
I49
sS'(you)'
p1472
I49
sS'recruit!\xe2\x80\x9du'
p1473
I49
sS'big'
p1474
I44
sS'bid'
p1475
I49
sS'work:('
p1476
I48
sS'shitty'
p1477
I49
sS'suffering'
p1478
I49
sS'falcon'
p1479
I49
sS'wings'
p1480
I48
sS'knock'
p1481
I49
sS'onion'
p1482
I49
sS'kester'
p1483
I47
sS'continue'
p1484
I49
sS'joto'
p1485
I49
sS'b"'
p1486
I49
sS'fucking'
p1487
I45
sS'spring'
p1488
I49
sS'some'
p1489
I42
sS'back'
p1490
I41
sS'palm'
p1491
I49
sS'poly'
p1492
I48
sS'sauces'
p1493
I49
sS'dude...i'
p1494
I49
sS'singing'
p1495
I49
sS'absolutely'
p1496
I49
sS'shall'
p1497
I49
sS'meds'
p1498
I49
sS'prom'
p1499
I49
sS'be'
p1500
I20
sS'bf'
p1501
I49
sS'run'
p1502
I48
sS'04:50:09.0,34.1574006,-118.4564637,1413.03,hahahah'
p1503
I49
sS'rapping'
p1504
I49
sS'lose'
p1505
I49
sS'fed'
p1506
I49
sS'bj'
p1507
I49
sS'step'
p1508
I49
sS'vitals'
p1509
I49
sS'from'
p1510
I25
sS'hiehuehuehuehue'
p1511
I49
sS'2/3'
p1512
I49
sS'by'
p1513
I44
sS'anything'
p1514
I49
sS'netflix'
p1515
I49
sS"mcdonald's"
p1516
I48
sS'graduation'
p1517
I49
sS'fuckkk'
p1518
I49
sS'idk'
p1519
I48
sS'bish'
p1520
I49
sS'nuys'
p1521
I49
sS'wanna'
p1522
I49
sS'block'
p1523
I49
sS'ppl'
p1524
I48
sS'seeing'
p1525
I48
sS'grammy'
p1526
I49
sS'garbage'
p1527
I49
sS'pero'
p1528
I49
sS'mommy'
p1529
I49
sS'because'
p1530
I45
sS'fallin'
p1531
I49
sS'lesson'
p1532
I49
sS'bangladesh'
p1533
I49
sS'ca)'
p1534
I35
sS'long'
p1535
I47
sS'camera'
p1536
I49
sS'bruh'
p1537
I49
sS'andy'
p1538
I48
sS'bored'
p1539
I47
sS'invite'
p1540
I49
sS'pavilions)'
p1541
I47
sS'boys'
p1542
I49
sS'larry'
p1543
I49
sS'pilling'
p1544
I49
sS'posted'
p1545
I45
sS'info'
p1546
I49
sS'12pm'
p1547
I49
sS'erick'
p1548
I49
sS'fries'
p1549
I49
sS'up'
p1550
I26
sS'us'
p1551
I48
sS'ur'
p1552
I47
sS'planet'
p1553
I49
sS"tomorrow's"
p1554
I49
sS'pavilions'
p1555
I45
sS'sum'
p1556
I49
sS'called'
p1557
I47
sS'uber'
p1558
I49
sS'listening'
p1559
I49
sS"rj's"
p1560
I49
sS'package'
p1561
I49
sS'cure'
p1562
I49
sS'cafe'
p1563
I49
sS'cotton'
p1564
I49
sS'huhueheueuwh'
p1565
I49
sS'btwn'
p1566
I49
sS'nah'
p1567
I47
sS'peace'
p1568
I49
sS'club'
p1569
I49
sS'that...lol'
p1570
I49
sS'points'
p1571
I48
sS'backi'
p1572
I49
sS'nice'
p1573
I48
sS'helping'
p1574
I49
sS'meaning'
p1575
I49
sS'awwwwkward'
p1576
I49
sS'ago'
p1577
I49
sS'remix'
p1578
I49
sS'land'
p1579
I49
sS'outing'
p1580
I49
sS'jorges'
p1581
I48
sS'far'
p1582
I48
sS"she's"
p1583
I49
sS'buffalo'
p1584
I49
sS'hello'
p1585
I48
sS'rinse'
p1586
I49
sS'once'
p1587
I49
sS'mardi'
p1588
I49
sS'scratch'
p1589
I48
sS'results'
p1590
I49
sS'gf'
p1591
I49
sS'go'
p1592
I24
sS'tweeted'
p1593
I49
sS'chillin'
p1594
I49
sS'drive-in'
p1595
I39
sS'cummingur'
p1596
I49
sS'send'
p1597
I48
sS'wishes'
p1598
I49
sS'telling'
p1599
I49
sS'really:-)'
p1600
I49
sS'20:15:50.0,34.1574431,-118.4565694,1413.03,last'
p1601
I49
sS'button'
p1602
I49
sS'computin'
p1603
I49
sS'try'
p1604
I47
sS'min'
p1605
I49
sS'bathed'
p1606
I49
sS'cvs/pharmacy'
p1607
I41
sS'clients'
p1608
I49
sS'booty'
p1609
I47
sS'goodies'
p1610
I48
sS'boots'
p1611
I49
sS'video'
p1612
I49
sS'picked'
p1613
I48
sS'negus'
p1614
I49
sS'yayyy'
p1615
I49
sS'acid'
p1616
I49
sS'depression'
p1617
I49
sS'kris'
p1618
I49
sS'hrclosangeles'
p1619
I49
sS"man's"
p1620
I49
sS'internship'
p1621
I49
sS'payday'
p1622
I48
sS'indian'
p1623
I49
sS'ahhhhh'
p1624
I49
sS'degree'
p1625
I49
sS'exchange'
p1626
I49
sS'leo'
p1627
I49
sS'problemas'
p1628
I49
sS'let'
p1629
I46
sS'healing'
p1630
I49
sS'others'
p1631
I48
sS'sexy'
p1632
I49
sS'great'
p1633
I42
sS'zumba'
p1634
I49
sS'huntington'
p1635
I49
sS'35'
p1636
I49
sS'leaving'
p1637
I49
sS"weren't"
p1638
I49
sS'popcorn'
p1639
I48
sS'makes'
p1640
I46
sS'consejo'
p1641
I49
sS'app'
p1642
I49
sS'wit'
p1643
I49
sS'bust'
p1644
I49
sS'apply'
p1645
I49
sS'tools'
p1646
I49
sS'cloud'
p1647
I49
sS'use'
p1648
I48
sS'tcas'
p1649
I49
sS'usc'
p1650
I46
sS'&'
p1651
I38
sS'remains'
p1652
I49
sS'hahahhahaha'
p1653
I49
sS'se\xc3\xb1orita'
p1654
I49
sS'next'
p1655
I42
sS'doubt'
p1656
I48
sS'oils'
p1657
I49
sS'themselves'
p1658
I48
sS'1/2'
p1659
I49
sS'started'
p1660
I48
sS'impress'
p1661
I49
sS'about'
p1662
I34
sS'gettin'
p1663
I49
sS'rabbit'
p1664
I49
sS'baby'
p1665
I43
sS'women'
p1666
I48
sS'fooling'
p1667
I49
sS'wearin'
p1668
I49
sS'this'
p1669
I19
sS'ride'
p1670
I48
sS'when'
p1671
I33
sS'mommas'
p1672
I49
sS'lazer'
p1673
I49
sS'didnt'
p1674
I49
sS'thirsty'
p1675
I49
sS'halloween'
p1676
I49
sS'0.4'
p1677
I49
sS'high'
p1678
I47
sS'tag'
p1679
I48
sS'something'
p1680
I45
sS'blvd'
p1681
I47
sS'wonderful'
p1682
I49
sS'fam-bam'
p1683
I49
sS'fett'
p1684
I49
sS'struggles'
p1685
I49
sS'brian'
p1686
I49
sS'instead'
p1687
I49
sS'gurl'
p1688
I49
sS'stop'
p1689
I46
sS'homie,91403\n511728890331799553,thegrandeb,2014-09-16'
p1690
I49
sS'racks'
p1691
I49
sS'$1000+'
p1692
I49
sS'faaaaaaaaaank'
p1693
I49
sS'scoop'
p1694
I49
sS'hunnid'
p1695
I49
sS'houston'
p1696
I49
sS'bathing'
p1697
I49
sS'beauties'
p1698
I49
sS'move'
p1699
I49
sS'whilst'
p1700
I49
sS'maaaan'
p1701
I49
sS"won't"
p1702
I48
sS'artest'
p1703
I49
sS'bunch'
p1704
I46
sS'lf'
p1705
I49
sS'la'
p1706
I41
sS'[pic]'
p1707
I38
sS'willing'
p1708
I49
sS'degrees'
p1709
I49
sS'2015'
p1710
I49
sS'2014'
p1711
I49
sS'holiday'
p1712
I49
sS'dad'
p1713
I49
sS'prosper'
p1714
I49
sS'pangeaorganics'
p1715
I49
sS'04:23:36.0,34.1573744,-118.4564162,1413.03,their'
p1716
I49
sS'oranges'
p1717
I49
sS'dat'
p1718
I49
sS'kiss'
p1719
I49
sS'front'
p1720
I45
sS'day'
p1721
I31
sS'warned'
p1722
I49
sS'bastoine'
p1723
I49
sS'slide'
p1724
I49
sS'weather'
p1725
I49
sS'trap'
p1726
I49
sS'bills'
p1727
I48
sS'|'
p1728
I49
sS"tommy's"
p1729
I49
sS'bueno'
p1730
I48
sS'\xc3\xbcber'
p1731
I49
sS'doing'
p1732
I46
sS'society'
p1733
I49
sS'our'
p1734
I47
sS'programmer'
p1735
I49
sS'special'
p1736
I48
sS'out'
p1737
I27
sS'matt'
p1738
I49
sS'movie...candy'
p1739
I49
sS'over\xe2\x80\xa6'
p1740
I49
sS'contigo'
p1741
I49
sS'red'
p1742
I46
sS'shut'
p1743
I46
sS'bww'
p1744
I48
sS'que'
p1745
I47
sS'retards'
p1746
I49
sS'machinebig'
p1747
I49
sS'sitting'
p1748
I49
sS'princess'
p1749
I49
sS'scary'
p1750
I49
sS'organic'
p1751
I49
sS'barca'
p1752
I49
sS'g'
p1753
I49
sS'you\xe2\x80\x99ve'
p1754
I49
sS'could'
p1755
I49
sS'florida'
p1756
I49
sS'keep'
p1757
I48
sS'4th'
p1758
I49
sS'tipped'
p1759
I49
sS',91403\n513841836960792577,thegrandeb,2014-09-22'
p1760
I49
sS'bitch'
p1761
I49
sS'lagging'
p1762
I49
sS'"stiffler"'
p1763
I49
sS'misswd'
p1764
I49
sS"doesn't"
p1765
I45
sS'management'
p1766
I49
sS'monkey'
p1767
I49
sS'los'
p1768
I46
sS'ordering'
p1769
I49
sS'bologna'
p1770
I49
sS'their'
p1771
I48
sS'attack'
p1772
I49
sS'decorations'
p1773
I49
sS'time'
p1774
I30
sS'cuzzo'
p1775
I49
sS'perfectly'
p1776
I49
sS'final'
p1777
I49
sS'stomach'
p1778
I48
sS'completed'
p1779
I49
sS'nobody'
p1780
I49
sS'depressing'
p1781
I49
sS'theirsame'
p1782
I49
sS'coughed'
p1783
I49
sS'niggis'
p1784
I49
sS'loved'
p1785
I49
sS'goodnight'
p1786
I49
sS'timeidk'
p1787
I49
sS'loves'
p1788
I49
sS'bare'
p1789
I49
sS'10-4'
p1790
I49
sS'spurs'
p1791
I49
sS'deodorant'
p1792
I49
sS'comfortable'
p1793
I49
sS'tonight'
p1794
I40
sS'have'
p1795
I22
sS'need'
p1796
I41
sS'curved'
p1797
I49
sS'dementia'
p1798
I49
sS'apparently'
p1799
I48
sS'congrats'
p1800
I45
sS'cvs/pharmacy)'
p1801
I49
sS'ahold'
p1802
I49
sS'babes'
p1803
I49
sS'truck'
p1804
I49
sS'asshole'
p1805
I49
sS'solll'
p1806
I48
sS'='
p1807
I44
sS'who'
p1808
I44
sS'jorge'
p1809
I49
sS'you"'
p1810
I49
sS"where's"
p1811
I49
sS'why'
p1812
I37
sS'barista'
p1813
I49
sS'thanksgiving'
p1814
I48
sS'ramirez'
p1815
I49
sS'looked'
p1816
I49
sS'talk'
p1817
I49
sS'movie'
p1818
I47
sS'normally'
p1819
I49
sS'fact'
p1820
I48
sS'biked'
p1821
I49
sS'bring'
p1822
I47
sS'chicken'
p1823
I48
sS'promote'
p1824
I49
sS'('
p1825
I40
sS'should'
p1826
I44
sS'riding'
p1827
I48
sS'handsome'
p1828
I49
sS'hope'
p1829
I46
sS'handle'
p1830
I49
sS'watching'
p1831
I44
sS'beat'
p1832
I48
sS'r.o.t.cright'
p1833
I49
sS'lucky'
p1834
I49
sS'tbh'
p1835
I49
sS'ones'
p1836
I49
sS'$162'
p1837
I49
sS'ghetto'
p1838
I49
sS'ended'
p1839
I49
sS'h'
p1840
I49
sS'gras'
p1841
I49
sS'rapper'
p1842
I49
sS'taxes'
p1843
I49
sS'qc'
p1844
I49
sS'stuff'
p1845
I48
sS'gram'
p1846
I49
sS'worksitting'
p1847
I49
sS'11am'
p1848
I49
sS'preach'
p1849
I49
sS'btw'
p1850
I49
sS'prayers'
p1851
I49
sS'reddit'
p1852
I49
sS'computer'
p1853
I49
sS'luv'
p1854
I43
sS'hashanah'
p1855
I49
sS'bought'
p1856
I47
sS'jot'
p1857
I49
sS'jenrose2442'
p1858
I49
sS'amen'
p1859
I49
sS'moshpit'
p1860
I49
sS'kicking'
p1861
I49
sS'job'
p1862
I48
sS'rinsed'
p1863
I49
sS'spoil'
p1864
I49
sS'jog'
p1865
I49
sS'group'
p1866
I48
sS'sassafras'
p1867
I49
sS'j.r'
p1868
I49
sS'taking'
p1869
I48
sS'insidious'
p1870
I49
sS'out.\xe2\x80\x9d'
p1871
I49
sS'puff'
p1872
I46
sS'tickets*me'
p1873
I49
sS'relevant'
p1874
I49
sS'co'
p1875
I49
sS'tuesday'
p1876
I49
sS'walk'
p1877
I48
sS'denise'
p1878
I49
sS'news'
p1879
I49
sS'kings'
p1880
I49
sS'winning'
p1881
I49
sS'fatthat'
p1882
I49
sS'yay'
p1883
I43
sS'birkenstocks'
p1884
I49
sS"it's"
p1885
I35
sS'slowly'
p1886
I49
sS'treat'
p1887
I49
sS'waste'
p1888
I49
sS'cuidar'
p1889
I49
sS'bbq'
p1890
I48
sS'lgi'
p1891
I49
sS'mcgriddles'
p1892
I49
sS'pie'
p1893
I49
sS'hmm'
p1894
I49
sS'falling'
p1895
I49
sS'bull'
p1896
I49
sS'blazer'
p1897
I49
sS'brunch'
p1898
I49
sS'an'
p1899
I33
sS'laser'
p1900
I49
sS'plain'
p1901
I49
sS'hopsin'
p1902
I48
sS'will'
p1903
I32
sS'stunning'
p1904
I49
sS'hahaha'
p1905
I49
sS'wild'
p1906
I48
sS'va'
p1907
I49
sS'almost'
p1908
I48
sS',91403\n511741436866600960,thegrandeb,2014-09-16'
p1909
I49
sS'vs'
p1910
I48
sS'bucks'
p1911
I49
sS'denial'
p1912
I49
sS'una'
p1913
I49
sS'benjis'
p1914
I49
sS'clase'
p1915
I49
sS'matches'
p1916
I49
sS'strange'
p1917
I49
sS'party'
p1918
I41
sS'paula'
p1919
I49
sS'ochoa'
p1920
I49
sS'ball'
p1921
I48
sS'premiere'
p1922
I49
sS'herejasper'
p1923
I49
sS'adventure-day'
p1924
I49
sS'ion'
p1925
I49
sS'fucken'
p1926
I49
sS'l.a'
p1927
I49
sS'warming'
p1928
I49
sS'diabetes'
p1929
I49
sS'off'
p1930
I23
sS'malaga'
p1931
I49
sS'fully'
p1932
I49
sS'i'
p1933
I1
sS'bob-omb'
p1934
I49
sS'well'
p1935
I45
sS'thought'
p1936
I48
sS'(also'
p1937
I49
sS'meet'
p1938
I49
sS'nadal'
p1939
I49
sS'announces'
p1940
I49
sS'cried'
p1941
I49
sS'less'
p1942
I49
sS'jefe'
p1943
I49
sS'quiero'
p1944
I49
sS'field'
p1945
I49
sS'knew'
p1946
I49
sS'realize'
p1947
I49
sS'two\xe2\x80\xa6'
p1948
I49
sS'book'
p1949
I49
sS'kick'
p1950
I48
sS'royalty'
p1951
I49
sS'5am'
p1952
I49
sS'know'
p1953
I39
sS'press'
p1954
I49
sS'pies'
p1955
I49
sS'showing'
p1956
I49
sS'like'
p1957
I21
sS'lost'
p1958
I49
sS'sizes'
p1959
I49
sS'solllll'
p1960
I49
sS'candy'
p1961
I49
sS'dickheads'
p1962
I49
sS'james'
p1963
I49
sS'panzanella'
p1964
I49
sS'page'
p1965
I48
sS'crunkness'
p1966
I49
sS'nigga'
p1967
I43
sS'twitter'
p1968
I48
sS'niggi'
p1969
I49
sS'searching'
p1970
I49
sS'hail'
p1971
I49
sS'hair'
p1972
I47
sS'home'
p1973
I41
sS'meatloaf'
p1974
I49
sS'cribbo'
p1975
I49
sS'outfitters'
p1976
I49
sS'literally'
p1977
I49
sS'chickgood'
p1978
I49
sS'does'
p1979
I46
sS'hipocrita'
p1980
I49
sS'esl'
p1981
I49
sS'schedule'
p1982
I48
sS'choker'
p1983
I49
sS'puede'
p1984
I49
sS'gamedesigner'
p1985
I49
sS'pasta'
p1986
I49
sS'loans'
p1987
I49
sS'stage'
p1988
I49
sS'sister'
p1989
I47
sS':-)'
p1990
I48
sS':-/'
p1991
I49
sS'extension'
p1992
I49
sS'getting'
p1993
I42
sS'done.\xe2\x80\x9d'
p1994
I49
sS'flake'
p1995
I49
sS'angeles'
p1996
I48
sS'mofo'
p1997
I49
sS'perks'
p1998
I49
sS'swear'
p1999
I48
sS'sweat'
p2000
I49
sS'saddens'
p2001
I49
sS'socks'
p2002
I49
sS'guard'
p2003
I49
sS'doesnt'
p2004
I49
sS'nautious'
p2005
I49
sS'forget'
p2006
I49
sS'2k14'
p2007
I49
sS'networking'
p2008
I49
sS'overtime'
p2009
I49
sS'$300'
p2010
I49
sS'inner'
p2011
I49
sS'powdered'
p2012
I49
sS'buy'
p2013
I49
sS'north'
p2014
I49
sS"i've"
p2015
I49
sS'bus'
p2016
I49
sS'brand'
p2017
I49
sS'bitches'
p2018
I49
sS'booked'
p2019
I49
sS'but'
p2020
I28
sS'money-___-'
p2021
I49
sS'gain'
p2022
I49
sS'gail'
p2023
I49
sS'hc'
p2024
I49
sS'ha'
p2025
I49
sS'eat'
p2026
I47
sS'cedros'
p2027
I31
sS'he'
p2028
I43
sS'count'
p2029
I48
sS'made'
p2030
I44
sS'wish'
p2031
I47
sS'yuke'
p2032
I48
sS'10-2pm'
p2033
I49
sS'cake'
p2034
I49
sS'faggot'
p2035
I49
sS'minutes'
p2036
I48
sS'product\xe2\x80\xa6'
p2037
I49
sS'myy'
p2038
I49
sS'jenny'
p2039
I49
sS'whisper'
p2040
I49
sS'romney'
p2041
I49
sS'mcm'
p2042
I49
sS'goodness'
p2043
I48
sS'83'
p2044
I49
sS'doterra'
p2045
I49
sS'ew'
p2046
I49
sS'diego'
p2047
I49
sS'contest'
p2048
I48
sS'dressed'
p2049
I49
sS'40'
p2050
I48
sS'lately'
p2051
I49
sS'rawradri'
p2052
I49
sS'annnnd'
p2053
I49
sS'other'
p2054
I49
sS'sick'
p2055
I48
sS'"soccer'
p2056
I49
sS'star'
p2057
I49
sS'monday'
p2058
I49
sS'class'
p2059
I48
sS'stay'
p2060
I44
sS'chance'
p2061
I49
sS'kinda'
p2062
I48
sS'pinup'
p2063
I49
sS'friends'
p2064
I47
sS'goin'
p2065
I48
sS'ave'
p2066
I36
sS'\xe2\x80\x94'
p2067
I45
sS'martin'
p2068
I49
sS'this\xe2\x80\xa6'
p2069
I49
sS'awake'
p2070
I49
sS'baked'
p2071
I49
s.