(dp0
S''
p1
I1
sS'raining'
p2
I106
sS'soundclash'
p3
I106
sS'arrives'
p4
I106
sS'whoops'
p5
I106
sS'yellow'
p6
I106
sS'everybody'
p7
I106
sS'yikes'
p8
I106
sS'andre'
p9
I106
sS'sleep'
p10
I87
sS'asian'
p11
I106
sS"friend's"
p12
I106
sS'hanging'
p13
I103
sS'captain'
p14
I106
sS'hate'
p15
I87
sS'chili'
p16
I105
sS'happybirthday'
p17
I106
sS'whose'
p18
I104
sS'buddy'
p19
I102
sS'paris'
p20
I105
sS'tweet'
p21
I97
sS'swan'
p22
I106
sS'presento'
p23
I105
sS'igual'
p24
I106
sS'mmmmmmm'
p25
I106
sS"dicaprio's"
p26
I106
sS'voted'
p27
I106
sS'342'
p28
I106
sS'under'
p29
I100
sS'lord'
p30
I102
sS'lionel'
p31
I106
sS'worth'
p32
I98
sS'winfrey'
p33
I106
sS'quinoa'
p34
I106
sS'cruising'
p35
I106
sS'added'
p36
I106
sS'deli'
p37
I106
sS'quince'
p38
I106
sS'aurora'
p39
I106
sS'<-----------'
p40
I106
sS'dipas'
p41
I106
sS'capoeira'
p42
I106
sS'every'
p43
I83
sS'jack'
p44
I106
sS'hibernating'
p45
I106
sS'mysterious.\xe2\x80\x9dnoclue15'
p46
I106
sS'bringing'
p47
I106
sS'noms'
p48
I106
sS'flys'
p49
I106
sS'tickets'
p50
I102
sS'sleet'
p51
I106
sS'school'
p52
I100
sS'bestfriend'
p53
I106
sS'humph'
p54
I106
sS'leisurely'
p55
I106
sS'wednesday'
p56
I105
sS'humidity'
p57
I105
sS'superfood'
p58
I106
sS'convenience'
p59
I106
sS'math'
p60
I106
sS'humps'
p61
I106
sS'heading'
p62
I104
sS'9pm'
p63
I106
sS'enjoy'
p64
I99
sS'room/apt'
p65
I106
sS'"all'
p66
I106
sS'force'
p67
I106
sS'leaders'
p68
I106
sS'tired'
p69
I104
sS'phones'
p70
I106
sS'consistent'
p71
I106
sS'almond'
p72
I104
sS'bacon'
p73
I105
sS'japanese'
p74
I106
sS'voting'
p75
I106
sS'chef'
p76
I106
sS'cameron'
p77
I106
sS'second'
p78
I102
sS'street'
p79
I105
sS'huffing'
p80
I106
sS'chairs'
p81
I106
sS'needin'
p82
I106
sS'n'
p83
I97
sS'others)'
p84
I63
sS'even'
p85
I89
sS'everyones'
p86
I106
sS'wreck'
p87
I106
sS'thunder'
p88
I105
sS'+'
p89
I101
sS'stars'
p90
I106
sS'asia'
p91
I106
sS'scrolling'
p92
I106
sS'lights'
p93
I105
sS'estuvo'
p94
I106
sS'fuerza'
p95
I106
sS'above'
p96
I106
sS'new'
p97
I55
sS'tips'
p98
I106
sS'hmmm'
p99
I106
sS'ever'
p100
I78
sS'disney'
p101
I106
sS'told'
p102
I102
sS'mee'
p103
I105
sS'gota'
p104
I106
sS'screams'
p105
I106
sS'zach'
p106
I106
sS'culd'
p107
I106
sS"watchin'"
p108
I106
sS'never'
p109
I73
sS'jasmine'
p110
I106
sS'equals'
p111
I106
sS'here'
p112
I65
sS'pata'
p113
I106
sS'met'
p114
I99
sS'108'
p115
I106
sS'studio'
p116
I65
sS'\xe3\x81\x82\xe3\x82\x8a\xe3\x81\x8c\xe3\x81\xa8\xe3\x81\x86'
p117
I106
sS'mer'
p118
I106
sS'wagyu'
p119
I106
sS'100'
p120
I105
sS'101'
p121
I96
sS'105'
p122
I106
sS'dry'
p123
I104
sS'kids'
p124
I102
sS'jams'
p125
I106
sS'hv'
p126
I106
sS'k'
p127
I103
sS'changed'
p128
I103
sS'glendale'
p129
I106
sS"ray's"
p130
I106
sS'taped'
p131
I106
sS'harass'
p132
I106
sS"i'd"
p133
I97
sS'froyo'
p134
I105
sS"s'mores"
p135
I106
sS'\xe2\x9c\x94\xef\xb8\x8f'
p136
I106
sS'military'
p137
I106
sS"i'm"
p138
I8
sS'dre'
p139
I106
sS'midway'
p140
I106
sS';d)'
p141
I106
sS'eyebrows'
p142
I106
sS'golden'
p143
I104
sS'fantastic'
p144
I105
sS'wassup'
p145
I106
sS'puck.\xe2\x80\x9d'
p146
I106
sS'magically'
p147
I106
sS'j\xc3\xa4ger'
p148
I106
sS'julie'
p149
I105
sS'julia'
p150
I106
sS'feelings'
p151
I104
sS'bro'
p152
I102
sS'm\xc3\xaame'
p153
I106
sS'mcwrap'
p154
I106
sS'hablar'
p155
I106
sS'ruhroh'
p156
I106
sS'total'
p157
I105
sS'___'
p158
I106
sS'bra'
p159
I105
sS'hoping'
p160
I106
sS'...lots'
p161
I106
sS'cheating'
p162
I106
sS'would'
p163
I78
sS'geisha'
p164
I106
sS'runyon'
p165
I106
sS'mixology'
p166
I106
sS'barks'
p167
I106
sS'u.o.e.n.o'
p168
I106
sS'4/16'
p169
I106
sS'princess'
p170
I106
sS'cali'
p171
I104
sS"dentist's"
p172
I106
sS'music'
p173
I98
sS'bagatelle'
p174
I104
sS'passport'
p175
I106
sS"50's"
p176
I106
sS'myself.now'
p177
I106
sS'survive'
p178
I106
sS'sexy'
p179
I105
sS'preview'
p180
I106
sS'type'
p181
I103
sS'tell'
p182
I91
sS'breathe'
p183
I105
sS'funciona'
p184
I106
sS'females'
p185
I106
sS'posting'
p186
I106
sS'holy'
p187
I97
sS'sabes'
p188
I106
sS'oscar'
p189
I105
sS'haha'
p190
I83
sS'training'
p191
I106
sS'award'
p192
I106
sS'it'
p193
I19
sS'phone'
p194
I97
sS'learn\xe2\x80\xa6'
p195
I106
sS'warm'
p196
I105
sS'biotin'
p197
I106
sS'ver\xc3\xb6ffentlicht'
p198
I106
sS'teaching'
p199
I105
sS'hold'
p200
I103
sS'blocking'
p201
I106
sS'must'
p202
I104
sS'shoot'
p203
I100
sS'irvin'
p204
I106
sS'intake'
p205
I106
sS'enjoying'
p206
I106
sS'ma'
p207
I105
sS'room'
p208
I104
sS'err'
p209
I105
sS'player'
p210
I106
sS'mm'
p211
I105
sS'1998'
p212
I106
sS'work'
p213
I72
sS'mi'
p214
I105
sS'worm'
p215
I106
sS'roof'
p216
I105
sS'mu'
p217
I106
sS'cal)'
p218
I105
sS'tinder'
p219
I106
sS'era'
p220
I106
sS'ms'
p221
I106
sS'exceptions'
p222
I106
sS'excelente'
p223
I106
sS'my'
p224
I7
sS'coulda'
p225
I106
sS'vodka'
p226
I106
sS'foodie'
p227
I106
sS'give'
p228
I101
sS'indie'
p229
I106
sS'laughs'
p230
I103
sS'emoji'
p231
I106
sS'3.5miles'
p232
I106
sS'honey'
p233
I105
sS'homie'
p234
I106
sS'want'
p235
I78
sS'keep'
p236
I95
sS'absolute'
p237
I105
sS'preferably'
p238
I105
sS'aging'
p239
I106
sS'hoe'
p240
I106
sS'end'
p241
I96
sS'pearis'
p242
I106
sS'chilly'
p243
I104
sS'hon'
p244
I106
sS'travel'
p245
I106
sS'sitting'
p246
I105
sS'nuts'
p247
I105
sS'(on'
p248
I106
sS'machine'
p249
I106
sS'how'
p250
I66
sS'amazing'
p251
I92
sS'writers'
p252
I105
sS'fashion'
p253
I106
sS'hop'
p254
I106
sS'adult\xe2\x80\x9d'
p255
I106
sS'interview'
p256
I106
sS'yum'
p257
I103
sS'beach'
p258
I103
sS'charging'
p259
I106
sS'pizza'
p260
I92
sS'instagramming'
p261
I106
sS'blanks'
p262
I106
sS'to\xe2\x80\xa6'
p263
I106
sS'beauty'
p264
I105
sS'bday'
p265
I104
sS'fav'
p266
I106
sS'after'
p267
I73
sS'loyalty'
p268
I106
sS'sarahjessiexxx'
p269
I106
sS'wrong'
p270
I104
sS'jumping'
p271
I106
sS'lax'
p272
I105
sS'lay'
p273
I104
sS'salsa'
p274
I106
sS'20/20'
p275
I106
sS'law'
p276
I106
sS'chinee'
p277
I106
sS'lesbian'
p278
I106
sS'las'
p279
I102
sS'crackin'
p280
I106
sS'attempt'
p281
I106
sS'rousey'
p282
I106
sS'third'
p283
I105
sS'chillen'
p284
I106
sS'blows'
p285
I106
sS'acknowledged'
p286
I106
sS'day....shopping'
p287
I106
sS'purging'
p288
I106
sS'toluca'
p289
I106
sS'lou'
p290
I106
sS'orally'
p291
I106
sS'funniest'
p292
I102
sS'ultimate'
p293
I105
sS'goodbye'
p294
I104
sS'enter'
p295
I106
sS'worst'
p296
I103
sS'ray-bans'
p297
I106
sS'skyping'
p298
I106
sS'realizing'
p299
I105
sS'wind'
p300
I106
sS'wine'
p301
I97
sS'wus'
p302
I105
sS'comenten'
p303
I106
sS'decide'
p304
I106
sS'office'
p305
I106
sS'deck'
p306
I106
sS'welcomed'
p307
I106
sS'over'
p308
I78
sS'fam'
p309
I105
sS'facial'
p310
I106
sS'satisfied'
p311
I106
sS'neta'
p312
I106
sS'awful'
p313
I106
sS'hibernation'
p314
I106
sS'london'
p315
I106
sS'"i-don\'t-need-to-think-for-awhile"'
p316
I106
sS'ma\xc3\xb1ana'
p317
I106
sS'mayor'
p318
I106
sS'before'
p319
I83
sS'fir'
p320
I104
sS'40%'
p321
I106
sS'californians'
p322
I106
sS'mcdreamy."'
p323
I106
sS'fit'
p324
I105
sS'sliders'
p325
I106
sS'somewhere'
p326
I104
sS'soaking'
p327
I105
sS'shaaaaaaade'
p328
I106
sS'denver'
p329
I106
sS'writing'
p330
I102
sS'better'
p331
I81
sS'production'
p332
I105
sS'goodmorning'
p333
I106
sS'condition'
p334
I106
sS'(i.e'
p335
I106
sS'creo'
p336
I106
sS'weeks'
p337
I102
sS'easier'
p338
I104
sS'overcome'
p339
I106
sS'then'
p340
I80
sS'them'
p341
I94
sS'nopeee'
p342
I106
sS'woken'
p343
I105
sS'traje'
p344
I106
sS'similar'
p345
I106
sS'workout'
p346
I98
sS'safe'
p347
I105
sS"we'll"
p348
I104
sS'zac'
p349
I106
sS'break'
p350
I105
sS'band'
p351
I106
sS'roommate'
p352
I105
sS'stamos'
p353
I106
sS'xd'
p354
I106
sS'they'
p355
I70
sS'audience)'
p356
I106
sS'one'
p357
I47
sS'silver'
p358
I105
sS'bank'
p359
I105
sS'counter'
p360
I106
sS"grey's"
p361
I105
sS'grammar'
p362
I106
sS'ummm...thank'
p363
I106
sS'tupac'
p364
I106
sS'bearly'
p365
I106
sS'sleepless'
p366
I106
sS'mentalist'
p367
I106
sS"a'comin"
p368
I106
sS'panini'
p369
I106
sS'bootay'
p370
I106
sS'victory'
p371
I106
sS'each'
p372
I105
sS'addicted'
p373
I105
sS'went'
p374
I101
sS'side'
p375
I100
sS'mean'
p376
I100
sS'signing'
p377
I105
sS'4-20-2010'
p378
I106
sS'chillaxin'
p379
I106
sS'\xe2\x9d\x84\xef\xb8\x8f\xe2\x9b\x84\xef\xb8\x8f'
p380
I106
sS"hasn't"
p381
I106
sS'gunna'
p382
I105
sS'laying'
p383
I103
sS'january'
p384
I106
sS'celebrating'
p385
I105
sS'taught'
p386
I105
sS'aroma-ing'
p387
I106
sS'hanged'
p388
I106
sS'forgot'
p389
I102
sS'logo'
p390
I106
sS'dawn'
p391
I106
sS'mothers'
p392
I106
sS'minutes...it'
p393
I106
sS'saturday'
p394
I94
sS'fxckin'
p395
I106
sS'rt'
p396
I104
sS'lait'
p397
I106
sS'velvet'
p398
I106
sS'network'
p399
I106
sS'driving'
p400
I99
sS'oprah'
p401
I105
sS'god'
p402
I94
sS'nunca'
p403
I106
sS'dime'
p404
I106
sS'washed'
p405
I106
sS'f\xc3\xadlos'
p406
I106
sS'trainers'
p407
I106
sS'content'
p408
I106
sS'soad'
p409
I106
sS'smh'
p410
I105
sS'heavenly'
p411
I106
sS'got'
p412
I70
sS'machida'
p413
I106
sS'forth'
p414
I106
sS'gate'
p415
I106
sS'cheatin'
p416
I106
sS'cutest'
p417
I106
sS"you're"
p418
I80
sS'fava'
p419
I106
sS'leftovers'
p420
I106
sS'fave'
p421
I105
sS'revenge'
p422
I105
sS'free'
p423
I94
sS'"weird"'
p424
I106
sS'struggle'
p425
I104
sS'grapes'
p426
I105
sS"people's"
p427
I104
sS'rodrigo'
p428
I106
sS'returning'
p429
I106
sS'wanted'
p430
I103
sS'hendrix-tonight'
p431
I106
sS'dammit'
p432
I106
sS'ate'
p433
I105
sS'("nothing'
p434
I106
sS'dayum'
p435
I106
sS'created'
p436
I105
sS'starts'
p437
I105
sS'messages'
p438
I106
sS'days'
p439
I79
sS'ups'
p440
I105
sS'taverna'
p441
I106
sS"today's"
p442
I103
sS'moving'
p443
I106
sS'shootin'
p444
I105
sS'(at'
p445
I88
sS'caught'
p446
I106
sS'fuckin'
p447
I105
sS'dodgeball'
p448
I106
sS'flick'
p449
I106
sS'already'
p450
I90
sS'hd'
p451
I106
sS'characters'
p452
I106
sS'>>'
p453
I105
sS'pyrex'
p454
I106
sS'california!such'
p455
I106
sS'hearing'
p456
I104
sS'channels'
p457
I106
sS'hook'
p458
I106
sS'fassbender'
p459
I106
sS'wrapper'
p460
I106
sS'delicious'
p461
I103
sS'comin'
p462
I106
sS'sober'
p463
I104
sS'geeksstaff'
p464
I106
sS'curing'
p465
I106
sS'instagram'
p466
I105
sS'snapper'
p467
I106
sS'basketball'
p468
I106
sS'aire'
p469
I106
sS'service'
p470
I103
sS'dogg'
p471
I106
sS'top'
p472
I102
sS'engagement'
p473
I106
sS'girls'
p474
I93
sS'needed'
p475
I104
sS'confirming'
p476
I106
sS'noooooo'
p477
I106
sS'too'
p478
I67
sS'xiv'
p479
I106
sS'tom'
p480
I106
sS'influence'
p481
I106
sS'hollywood'
p482
I72
sS'john'
p483
I105
sS'bitter'
p484
I103
sS'dogs'
p485
I105
sS'listen'
p486
I103
sS'hacer'
p487
I105
sS'murder'
p488
I106
sS'totes-cray'
p489
I106
sS'segunda'
p490
I106
sS'gym'
p491
I93
sS'2am'
p492
I105
sS'took'
p493
I105
sS'direct'
p494
I106
sS'somewhat'
p495
I106
sS'gretchen'
p496
I106
sS'partynextdoors'
p497
I106
sS"winery's"
p498
I106
sS'begins'
p499
I105
sS'nail'
p500
I106
sS'anxiety'
p501
I106
sS'target'
p502
I106
sS'showed'
p503
I106
sS'fufu'
p504
I106
sS'hike'
p505
I105
sS"mother's"
p506
I106
sS'project'
p507
I105
sS'matter'
p508
I105
sS'fabulous'
p509
I105
sS'silly'
p510
I103
sS'speaking'
p511
I106
sS'"ooo'
p512
I106
sS'dinner.\xe2\x80\xa6'
p513
I106
sS'feeling'
p514
I94
sS"maggianos'"
p515
I106
sS'mini'
p516
I103
sS'humble'
p517
I106
sS'sees'
p518
I106
sS'rimmies'
p519
I106
sS'palace'
p520
I106
sS'columbiano'
p521
I106
sS'ran'
p522
I104
sS'boston'
p523
I105
sS'mind'
p524
I97
sS'mine'
p525
I105
sS'youtube'
p526
I106
sS'talking'
p527
I100
sS'bennett_kim'
p528
I106
sS'efecto'
p529
I105
sS'manner'
p530
I106
sS'seen'
p531
I97
sS'seem'
p532
I103
sS'semen'
p533
I106
sS'ray'
p534
I106
sS'thaaaanks'
p535
I106
sS'pranked'
p536
I106
sS'cactus'
p537
I106
sS'it\xe2\x80\xa6'
p538
I106
sS'mostly'
p539
I106
sS'burgers'
p540
I106
sS'convenient'
p541
I106
sS'-'
p542
I67
sS'snow'
p543
I106
sS'matthew'
p544
I106
sS'depiction'
p545
I106
sS'causing'
p546
I106
sS'news!\xe2\x80\x9ddaddy'
p547
I106
sS'niece'
p548
I106
sS'forces'
p549
I106
sS'sleeper'
p550
I106
sS'beta-carotene'
p551
I106
sS'panties'
p552
I106
sS'rides'
p553
I106
sS'hours....opps'
p554
I106
sS'cookout'
p555
I105
sS'blue'
p556
I105
sS'nobody'
p557
I104
sS'susie'
p558
I106
sS'one.tacos'
p559
I106
sS'[hip]ster'
p560
I106
sS'though'
p561
I100
sS'temprano'
p562
I106
sS'doin'
p563
I106
sS'mother'
p564
I106
sS'2.99'
p565
I106
sS'audition'
p566
I105
sS'regular'
p567
I106
sS'butttt'
p568
I106
sS'plenty'
p569
I106
sS'scripts'
p570
I106
sS'phase'
p571
I106
sS'long"'
p572
I106
sS'contain'
p573
I106
sS'90\xc2\xb0'
p574
I106
sS'doh'
p575
I106
sS'episode'
p576
I97
sS'treats'
p577
I106
sS'grove'
p578
I106
sS"love....it's"
p579
I106
sS'alarm'
p580
I105
sS'metal'
p581
I105
sS'dog'
p582
I99
sS'roommates'
p583
I106
sS'breather'
p584
I106
sS'freeway'
p585
I98
sS'-remember'
p586
I106
sS'definitely'
p587
I99
sS'tech'
p588
I106
sS'radford'
p589
I106
sS'beatiful'
p590
I106
sS'hocus'
p591
I106
sS'boyfriends'
p592
I105
sS'mating'
p593
I106
sS'came'
p594
I102
sS'sleeeepin'
p595
I106
sS'saying'
p596
I105
sS'bomb'
p597
I104
sS'inspire'
p598
I106
sS'pope'
p599
I104
sS'hunger'
p600
I106
sS'meetings'
p601
I105
sS'random'
p602
I104
sS"performer's"
p603
I106
sS'caffeine'
p604
I106
sS'lee'
p605
I106
sS'radio'
p606
I105
sS'poison'
p607
I106
sS'blabbering'
p608
I106
sS'earth'
p609
I103
sS'sags'
p610
I106
sS'enjoyed'
p611
I106
sS'kale'
p612
I106
sS"uncle's"
p613
I106
sS'orleans'
p614
I103
sS'umm....what'
p615
I106
sS'busy'
p616
I103
sS'quoted'
p617
I106
sS'(keep'
p618
I106
sS'typewriters'
p619
I106
sS'explain'
p620
I105
sS'ocd'
p621
I106
sS'bust'
p622
I105
sS'sugar'
p623
I106
sS'spits'
p624
I106
sS'rico'
p625
I105
sS'version'
p626
I105
sS'bliss'
p627
I106
sS'rick'
p628
I105
sS'rich'
p629
I104
sS'winslet'
p630
I106
sS'personality'
p631
I106
sS'wearing'
p632
I101
sS'do'
p633
I48
sS'\xc3\x81ngeles'
p634
I106
sS'dm'
p635
I105
sS'sunglasses'
p636
I106
sS"can't\xe2\x80\xa6"
p637
I106
sS'godzilla'
p638
I106
sS'wide'
p639
I106
sS'gees'
p640
I106
sS'dd'
p641
I106
sS'de'
p642
I92
sS'stop'
p643
I90
sS'fluid'
p644
I106
sS'coast'
p645
I100
sS'.....last'
p646
I106
sS'sleeeeeepy'
p647
I106
sS'dz'
p648
I106
sS'spirit'
p649
I106
sS'wedding'
p650
I104
sS'$10'
p651
I105
sS'quarters'
p652
I106
sS'dr'
p653
I97
sS'14'
p654
I106
sS'runs'
p655
I105
sS'bar'
p656
I96
sS'greens'
p657
I105
sS'covering'
p658
I106
sS'taste'
p659
I106
sS'officially'
p660
I105
sS'ahhhhhhh'
p661
I105
sS'licking'
p662
I106
sS'bay'
p663
I104
sS'twice'
p664
I102
sS'bad'
p665
I91
sS'bae'
p666
I105
sS'bac'
p667
I106
sS'grilled'
p668
I103
sS'wannabe'
p669
I106
sS'w/a'
p670
I106
sS'"man'
p671
I106
sS'ears'
p672
I105
sS'headed'
p673
I106
sS'optimus'
p674
I106
sS'besties'
p675
I106
sS'habit'
p676
I106
sS'w/'
p677
I30
sS'branding'
p678
I106
sS'sematary"'
p679
I106
sS'sage'
p680
I106
sS'depends'
p681
I106
sS'decided'
p682
I104
sS'for\xe2\x80\xa6'
p683
I104
sS'2-a-day'
p684
I106
sS'fail'
p685
I106
sS'hash'
p686
I106
sS'maletas'
p687
I106
sS"nyong'o"
p688
I106
sS'best'
p689
I69
sS'subject'
p690
I106
sS'brazil'
p691
I105
sS'weirdo'
p692
I106
sS'said'
p693
I92
sS'lots'
p694
I103
sS'godson...and'
p695
I106
sS'away'
p696
I100
sS'interviewing'
p697
I106
sS'muy'
p698
I106
sS'kiss'
p699
I106
sS'rushing'
p700
I106
sS'opened'
p701
I106
sS'flojera'
p702
I106
sS"there's"
p703
I98
sS'finger'
p704
I104
sS'ered'
p705
I106
sS'hopefully'
p706
I105
sS'yogurt'
p707
I105
sS'eren'
p708
I106
sS'alguien'
p709
I106
sS'warrior'
p710
I105
sS'we'
p711
I45
sS'men'
p712
I102
sS'omg'
p713
I103
sS'stracciatella'
p714
I106
sS'extend'
p715
I105
sS'nature'
p716
I106
sS'rolled'
p717
I106
sS'fruits'
p718
I106
sS'ignorance'
p719
I106
sS'boss'
p720
I106
sS'flare\xe2\x80\xa6'
p721
I106
sS'harvard'
p722
I106
sS'bosh'
p723
I106
sS'wear'
p724
I104
sS'wtf'
p725
I101
sS'wth'
p726
I106
sS'cousin'
p727
I104
sS'picking'
p728
I104
sS'debt'
p729
I106
sS'kitchen'
p730
I103
sS'bras'
p731
I106
sS'usc>>>>'
p732
I106
sS'protect'
p733
I106
sS'accident'
p734
I106
sS'tardado'
p735
I106
sS'cow'
p736
I106
sS'\xe2\x9d\xa4\xef\xb8\x8f'
p737
I102
sS'meredith'
p738
I106
sS'country'
p739
I104
sS'ill'
p740
I105
sS'sparkling'
p741
I106
sS'ahora'
p742
I104
sS'against'
p743
I106
sS'\xd8\xa7\xd9\x84\xd9\x84\xd9\x87\xd9\x85'
p744
I106
sS'participating'
p745
I105
sS'una'
p746
I104
sS'games'
p747
I102
sS'spurs'
p748
I106
sS'lookin'
p749
I105
sS'faces'
p750
I105
sS'hypocrites'
p751
I106
sS'\xe2\x9a\xa1\xef\xb8\x8f\xe2\x9a\xa1\xef\xb8\x8f\xe2\x9a\xa1\xef\xb8\x8f\xe2\x9a\xa1\xef\xb8\x8f\xe2\x9a\xa1\xef\xb8\x8f\xe2\x9a\xa1\xef\xb8\x8f\xe2\x9a\xa1\xef\xb8\x8f'
p752
I104
sS'argue'
p753
I106
sS'freshest'
p754
I106
sS'asked'
p755
I105
sS'con'
p756
I104
sS'suggest'
p757
I106
sS'sorbet'
p758
I106
sS'&&'
p759
I106
sS"relaxin'"
p760
I106
sS"hilton's"
p761
I106
sS'character'
p762
I106
sS'peru'
p763
I106
sS'coconut'
p764
I106
sS'2nd'
p765
I106
sS'pati'
p766
I106
sS'canyon'
p767
I104
sS'drilled'
p768
I106
sS'springs'
p769
I106
sS'trust'
p770
I102
sS'stares'
p771
I106
sS'headlights'
p772
I106
sS"doesn't.\xe2\x80\x9d"
p773
I106
sS'bathroom'
p774
I106
sS"aren't"
p775
I101
sS'positively'
p776
I106
sS'llooooouuuud'
p777
I106
sS'beef'
p778
I103
sS'"you'
p779
I106
sS'dusting'
p780
I106
sS'three'
p781
I105
sS'been'
p782
I67
sS'quickly'
p783
I105
sS'confident'
p784
I106
sS'beer'
p785
I102
sS'much'
p786
I79
sS'communion'
p787
I106
sS'tina'
p788
I106
sS'basic'
p789
I105
sS'basil'
p790
I105
sS'lovely'
p791
I97
sS"chillin'"
p792
I105
sS'threw'
p793
I106
sS'website'
p794
I106
sS'studs'
p795
I106
sS'life'
p796
I87
sS'twit-shit'
p797
I106
sS'chuc'
p798
I106
sS'relaxing'
p799
I106
sS'caf\xc3\xa9'
p800
I105
sS'drugs'
p801
I106
sS'sunshine'
p802
I106
sS'observatory'
p803
I106
sS'locations'
p804
I106
sS'fest'
p805
I106
sS'lift'
p806
I105
sS'stilllll'
p807
I106
sS'chile'
p808
I106
sS'child'
p809
I106
sS'catch'
p810
I101
sS'worked'
p811
I102
sS'church)'
p812
I105
sS'chill'
p813
I103
sS'gracias'
p814
I105
sS'tank'
p815
I106
sS'fate/zero'
p816
I106
sS'sampson'
p817
I106
sS"hershey's"
p818
I106
sS'universal)'
p819
I106
sS'neak'
p820
I106
sS'tastes'
p821
I106
sS'air'
p822
I102
sS'ugly'
p823
I104
sS'near'
p824
I105
sS'surprised'
p825
I105
sS'stopping'
p826
I105
sS'sinfulplanning'
p827
I106
sS'voice'
p828
I102
sS'leaves'
p829
I106
sS'dirtbag'
p830
I106
sS'servicios'
p831
I106
sS'congratulation'
p832
I106
sS'eden'
p833
I106
sS'played'
p834
I105
sS'thursdays'
p835
I105
sS'eeeep'
p836
I106
sS'is'
p837
I13
sS'sushi'
p838
I102
sS'"i'
p839
I103
sS'defeated'
p840
I106
sS'tease'
p841
I106
sS'audrey'
p842
I106
sS'jess'
p843
I106
sS'cant'
p844
I104
sS'australia'
p845
I106
sS'im'
p846
I99
sS'experience'
p847
I106
sS'in'
p848
I9
sS'madonna'
p849
I105
sS'r\xc3\xa9sum\xc3\xa9'
p850
I106
sS'id'
p851
I106
sS'ig'
p852
I105
sS'if'
p853
I54
sS'grown'
p854
I105
sS'rick&jenna'
p855
I106
sS'nevermind...my'
p856
I106
sS'emergency'
p857
I106
sS'hb'
p858
I106
sS'things'
p859
I94
sS'make'
p860
I74
sS'jogging'
p861
I106
sS'beside'
p862
I106
sS'backed'
p863
I106
sS'manches'
p864
I106
sS'caffe'
p865
I101
sS'hahah'
p866
I103
sS'babies'
p867
I105
sS'grows'
p868
I106
sS'wheel'
p869
I106
sS'youth'
p870
I106
sS'smoke'
p871
I105
sS'typhoid'
p872
I105
sS'declaring'
p873
I106
sS'social'
p874
I105
sS'hang'
p875
I105
sS'coachella'
p876
I103
sS'rain'
p877
I99
sS'hand'
p878
I103
sS'delight'
p879
I106
sS'fridays'
p880
I106
sS'garlic'
p881
I106
sS'scale'
p882
I106
sS'kim'
p883
I106
sS'supper'
p884
I106
sS'jealous'
p885
I103
sS'positives'
p886
I106
sS'blaming'
p887
I106
sS'headquarters'
p888
I106
sS'opportunity'
p889
I106
sS'aka'
p890
I106
sS'thoughts'
p891
I105
sS'kid'
p892
I104
sS'butter'
p893
I104
sS'kept'
p894
I106
sS'mikechacon'
p895
I106
sS'thx'
p896
I104
sS'charlie'
p897
I106
sS'failing'
p898
I106
sS'kyle'
p899
I106
sS'carnitas'
p900
I106
sS'tho'
p901
I101
sS'hispanic'
p902
I106
sS'contact'
p903
I104
sS'greatest'
p904
I104
sS'humbly'
p905
I106
sS'alarms'
p906
I106
sS'the'
p907
I2
sS'flops'
p908
I105
sS'yours'
p909
I104
sS'tha'
p910
I105
sS'left'
p911
I103
sS'seasonal'
p912
I106
sS'endless'
p913
I106
sS'capitol'
p914
I106
sS'just'
p915
I28
sS'wasteful'
p916
I106
sS'yea'
p917
I102
sS'photo'
p918
I78
sS'sporting'
p919
I105
sS'sleepy'
p920
I104
sS'thankk'
p921
I105
sS'mid'
p922
I106
sS'quotes'
p923
I106
sS'thanks'
p924
I73
sS'picasso'
p925
I106
sS'yep'
p926
I103
sS'yes'
p927
I81
sS'yet'
p928
I93
sS'resurrected'
p929
I106
sS'designers'
p930
I106
sS'hills'
p931
I103
sS'cherry'
p932
I106
sS'tea...what'
p933
I106
sS'cast...roll'
p934
I106
sS'had'
p935
I80
sS'khylin'
p936
I106
sS"feelin'"
p937
I106
sS'night...so'
p938
I106
sS'hay'
p939
I104
sS'shout'
p940
I105
sS'spread'
p941
I106
sS'sexyyylol'
p942
I106
sS'easy'
p943
I104
sS'prison'
p944
I106
sS'omggg'
p945
I106
sS'east'
p946
I100
sS'hat'
p947
I106
sS'x-men'
p948
I106
sS'gave'
p949
I106
sS'casting'
p950
I104
sS'self-inflicted'
p951
I106
sS'popping'
p952
I106
sS'gifs'
p953
I106
sS'bad...god'
p954
I106
sS'vin'
p955
I106
sS'breaks'
p956
I106
sS'possible'
p957
I104
sS'tear'
p958
I106
sS'possibly'
p959
I106
sS'chose'
p960
I106
sS'else.\xe2\x80\x9d'
p961
I106
sS'3pm'
p962
I106
sS'background'
p963
I106
sS'wanting'
p964
I106
sS'judge'
p965
I106
sS'dreamt'
p966
I106
sS'apart'
p967
I106
sS'highly'
p968
I105
sS'burnt'
p969
I106
sS'asshole'
p970
I105
sS'vanity'
p971
I106
sS'desire'
p972
I105
sS'brought'
p973
I104
sS'tyyypiiiicccaaaalll'
p974
I106
sS'gift'
p975
I105
sS'55'
p976
I106
sS'grizzly'
p977
I106
sS'50'
p978
I104
sS'xbox'
p979
I105
sS'you.\xe2\x80\x9d'
p980
I106
sS'festivities'
p981
I106
sS'hours!!!\xe2\x80\x9d'
p982
I106
sS'7-eleven'
p983
I105
sS'amor'
p984
I106
sS'security'
p985
I106
sS'sebastian'
p986
I106
sS'clementine'
p987
I106
sS'"bae"'
p988
I106
sS'right'
p989
I64
sS'old'
p990
I93
sS'ole'
p991
I106
sS'deal'
p992
I105
sS'people'
p993
I62
sS'\xe2\x98\x80\xef\xb8\x8f\xe2\x98\x80\xef\xb8\x8f'
p994
I106
sS'idgaf'
p995
I104
sS'jennifer'
p996
I105
sS'salir'
p997
I105
sS'altered'
p998
I106
sS'fuuuuck'
p999
I106
sS'creep'
p1000
I105
sS'saved'
p1001
I106
sS'ick'
p1002
I106
sS'vista\xe2\x80\xa6'
p1003
I105
sS'cnt'
p1004
I106
sS'ich'
p1005
I106
sS'dense'
p1006
I106
sS'for'
p1007
I16
sS'informative'
p1008
I106
sS'purple'
p1009
I106
sS'a\xe2\x80\xa6'
p1010
I105
sS'mcknight'
p1011
I106
sS'ice'
p1012
I103
sS'creative'
p1013
I104
sS'filming'
p1014
I104
sS'fog'
p1015
I106
sS'sleepies'
p1016
I106
sS'foo'
p1017
I106
sS'adorable'
p1018
I103
sS'christmas'
p1019
I97
sS'cord'
p1020
I106
sS'sherman'
p1021
I106
sS'bold'
p1022
I106
sS'canc\xc3\xban'
p1023
I106
sS'things"'
p1024
I106
sS'quedo'
p1025
I106
sS'b\xc3\xa6'
p1026
I106
sS'night'
p1027
I50
sS'liver'
p1028
I106
sS'munchies'
p1029
I106
sS'disappeared'
p1030
I106
sS'restedi'
p1031
I106
sS'starring'
p1032
I106
sS'roscoes'
p1033
I106
sS'losing'
p1034
I104
sS'post'
p1035
I105
sS'pll'
p1036
I105
sS'super'
p1037
I96
sS'windstorms'
p1038
I106
sS'trophy'
p1039
I105
sS'better!"'
p1040
I106
sS'yelling'
p1041
I106
sS'mariokart'
p1042
I106
sS'meow'
p1043
I103
sS'theirs'
p1044
I106
sS'months'
p1045
I104
sS'bitch.\xe2\x80\x9d'
p1046
I106
sS'choke'
p1047
I106
sS'o'
p1048
I102
sS'inner'
p1049
I106
sS'dinner'
p1050
I90
sS'sorri'
p1051
I106
sS'plus'
p1052
I105
sS'afternoon'
p1053
I104
sS'stoked'
p1054
I103
sS'plate'
p1055
I106
sS'islands'
p1056
I106
sS'twitch'
p1057
I105
sS'octopus'
p1058
I105
sS'amaze-balls'
p1059
I106
sS'flatbread'
p1060
I106
sS'duke'
p1061
I106
sS'indestructobot'
p1062
I106
sS'whats'
p1063
I105
sS'battlefield'
p1064
I106
sS'student'
p1065
I106
sS'selfie'
p1066
I102
sS'float'
p1067
I105
sS'craft'
p1068
I106
sS'bound'
p1069
I105
sS'soo'
p1070
I106
sS'mocha'
p1071
I105
sS'down'
p1072
I87
sS'thankful'
p1073
I102
sS'juicing'
p1074
I106
sS'google'
p1075
I106
sS'a\xc3\xb1o'
p1076
I106
sS'dean'
p1077
I106
sS'shoots'
p1078
I105
sS'coitus'
p1079
I106
sS'rounds'
p1080
I105
sS'saturdays'
p1081
I104
sS'giu'
p1082
I106
sS'america'
p1083
I106
sS'peoples'
p1084
I106
sS'armo'
p1085
I106
sS'boneta'
p1086
I106
sS'support'
p1087
I105
sS'flying'
p1088
I104
sS'>>>>'
p1089
I106
sS'asses'
p1090
I106
sS'nova'
p1091
I106
sS'fight'
p1092
I103
sS'stuck'
p1093
I105
sS"ole'"
p1094
I106
sS'way'
p1095
I79
sS'spring'
p1096
I106
sS'jane'
p1097
I106
sS'call'
p1098
I100
sS'was'
p1099
I31
sS'marge'
p1100
I106
sS'happy'
p1101
I61
sS'head'
p1102
I98
sS'\xd9\x83\xd9\x84'
p1103
I105
sS'form'
p1104
I105
sS'hmm...currently'
p1105
I106
sS'tigers'
p1106
I106
sS'gorgeous'
p1107
I101
sS'shits'
p1108
I106
sS'heat'
p1109
I104
sS'hear'
p1110
I102
sS'dead'
p1111
I102
sS'patient'
p1112
I106
sS'true'
p1113
I101
sS'negativish'
p1114
I106
sS'mckinley'
p1115
I106
sS'otter'
p1116
I106
sS'viva'
p1117
I106
sS'b4'
p1118
I106
sS'25th'
p1119
I106
sS'jd2pictures'
p1120
I106
sS'"99'
p1121
I106
sS'eggs\xe2\x80\xa6'
p1122
I106
sS'inside'
p1123
I104
sS'mtv'
p1124
I104
sS'rays'
p1125
I106
sS'stores'
p1126
I106
sS'until'
p1127
I94
sS'r.i.p'
p1128
I106
sS'auditioning'
p1129
I106
sS'chesapeke'
p1130
I106
sS'nerdy'
p1131
I106
sS'smashed'
p1132
I106
sS'palm'
p1133
I105
sS'duet'
p1134
I106
sS'latch'
p1135
I106
sS'frands'
p1136
I106
sS'delete'
p1137
I105
sS'trim'
p1138
I106
sS'reevaluate'
p1139
I106
sS'proud'
p1140
I105
sS'sight'
p1141
I106
sS'classic'
p1142
I105
sS'stronger'
p1143
I106
sS'iyaz'
p1144
I106
sS'hungry'
p1145
I105
sS'dear'
p1146
I102
sS'darko'
p1147
I105
sS'request'
p1148
I106
sS'awhile'
p1149
I106
sS'annoying'
p1150
I106
sS"model'"
p1151
I106
sS'check'
p1152
I99
sS'shit'
p1153
I84
sS'specially'
p1154
I106
sS'ni'
p1155
I105
sS'vista'
p1156
I104
sS'nm'
p1157
I106
sS'dying'
p1158
I105
sS'no'
p1159
I40
sS'colder'
p1160
I106
sS'commercials'
p1161
I104
sS'\xe2\x9a\x93\xef\xb8\x8f'
p1162
I106
sS'when'
p1163
I49
sS'capita'
p1164
I106
sS'til'
p1165
I105
sS'coffee\xe2\x80\xa6'
p1166
I104
sS'build'
p1167
I106
sS'pasadena'
p1168
I106
sS'whew'
p1169
I106
sS'warehouse'
p1170
I106
sS'gf'
p1171
I106
sS'page'
p1172
I106
sS'tig'
p1173
I105
sS'smell'
p1174
I101
sS'roll'
p1175
I103
sS'picture'
p1176
I99
sS'muffin)'
p1177
I106
sS'rehearsing'
p1178
I106
sS'brothers'
p1179
I105
sS'sling'
p1180
I106
sS'models'
p1181
I104
sS'surprise'
p1182
I105
sS'why'
p1183
I84
sS'felt'
p1184
I101
sS'stealing'
p1185
I106
sS'update'
p1186
I106
sS'diet'
p1187
I106
sS'700$'
p1188
I106
sS"let's"
p1189
I102
sS'journey'
p1190
I105
sS'and/or'
p1191
I106
sS'professional'
p1192
I106
sS'snooze'
p1193
I105
sS'detox'
p1194
I105
sS'weekend'
p1195
I94
sS'explosions'
p1196
I106
sS'jones'
p1197
I106
sS'hiii'
p1198
I106
sS'happening'
p1199
I105
sS'glass'
p1200
I105
sS'normally'
p1201
I106
sS'moved'
p1202
I106
sS'together'
p1203
I101
sS'memiors'
p1204
I106
sS'fsu'
p1205
I106
sS'time'
p1206
I42
sS'push'
p1207
I106
sS'serious'
p1208
I103
sS'22-'
p1209
I106
sS'decision'
p1210
I105
sS'updates'
p1211
I106
sS'songs'
p1212
I104
sS'1st'
p1213
I106
sS'maldita'
p1214
I106
sS'coach'
p1215
I105
sS':('
p1216
I105
sS':)'
p1217
I86
sS'ron'
p1218
I104
sS'whoever'
p1219
I105
sS'dance'
p1220
I97
sS'teary-eyed'
p1221
I106
sS"see's"
p1222
I106
sS'excellent'
p1223
I106
sS'focus'
p1224
I106
sS'monterrey'
p1225
I106
sS'themes'
p1226
I106
sS'manager'
p1227
I105
sS'/'
p1228
I105
sS'skin'
p1229
I105
sS'covered'
p1230
I106
sS'forage'
p1231
I106
sS'chair'
p1232
I106
sS'chais'
p1233
I106
sS'milk'
p1234
I103
sS'recharge'
p1235
I106
sS'venice'
p1236
I105
sS'92'
p1237
I106
sS'yummy'
p1238
I105
sS'everything'
p1239
I98
sS'hump'
p1240
I105
sS'flash'
p1241
I106
sS'vez'
p1242
I105
sS'contemplating'
p1243
I105
sS'answered'
p1244
I104
sS'finally'
p1245
I83
sS'bwahaha'
p1246
I106
sS'forclosed'
p1247
I106
sS'ok:)'
p1248
I106
sS'foreals'
p1249
I106
sS'"follow"'
p1250
I106
sS'circumstances'
p1251
I106
sS"a's"
p1252
I105
sS'lake'
p1253
I106
sS'fuiste'
p1254
I106
sS'me'
p1255
I20
sS':o'
p1256
I106
sS'shananagins'
p1257
I106
sS'icing'
p1258
I106
sS'3am'
p1259
I106
sS'iggy'
p1260
I106
sS'fleece'
p1261
I106
sS'choice'
p1262
I101
sS'chargers'
p1263
I106
sS'vegas'
p1264
I87
sS'aroma\xe2\x9d\xa4\xef\xb8\x8f'
p1265
I106
sS'kitten'
p1266
I106
sS'join'
p1267
I104
sS'blast'
p1268
I106
sS':p'
p1269
I106
sS'pintaron'
p1270
I106
sS'minute'
p1271
I103
sS'cool'
p1272
I94
sS'speed'
p1273
I106
sS'looney'
p1274
I106
sS'staples'
p1275
I105
sS'level'
p1276
I106
sS'did'
p1277
I92
sS'die'
p1278
I103
sS'permits'
p1279
I106
sS'posts'
p1280
I106
sS'brother'
p1281
I98
sS'turnt'
p1282
I105
sS'leave'
p1283
I98
sS'p'
p1284
I106
sS'dbz'
p1285
I106
sS'subway'
p1286
I104
sS'team'
p1287
I102
sS'quick'
p1288
I103
sS'guy'
p1289
I95
sS'so...i'
p1290
I106
sS'dip'
p1291
I106
sS'round'
p1292
I102
sS'yall'
p1293
I106
sS'"i\'ll'
p1294
I106
sS'shave'
p1295
I105
sS'application'
p1296
I106
sS'olympic'
p1297
I106
sS'talked'
p1298
I106
sS'says'
p1299
I101
sS'porn'
p1300
I105
sS'trend'
p1301
I104
sS'dealing'
p1302
I106
sS'group)'
p1303
I106
sS'sign'
p1304
I106
sS'____'
p1305
I105
sS'snap.not'
p1306
I106
sS'cost'
p1307
I106
sS'dried'
p1308
I106
sS'run'
p1309
I101
sS'pur\xc3\xa9e'
p1310
I105
sS'chicken'
p1311
I106
sS'substitute'
p1312
I106
sS'drinks'
p1313
I106
sS'volunteering'
p1314
I106
sS'elton'
p1315
I106
sS'stressful'
p1316
I106
sS'vitacek'
p1317
I106
sS'movies'
p1318
I103
sS'unheralded'
p1319
I106
sS'bc'
p1320
I106
sS'luhhhhh'
p1321
I106
sS'4th...time'
p1322
I106
sS'remembered'
p1323
I106
sS'quedar'
p1324
I106
sS'quedas'
p1325
I106
sS'aux'
p1326
I106
sS'goes'
p1327
I103
sS'guilt'
p1328
I106
sS'falling'
p1329
I104
sS'freaky'
p1330
I106
sS'co-ep'
p1331
I106
sS'pregunto'
p1332
I106
sS'supporting'
p1333
I104
sS'morningwith'
p1334
I106
sS'getaways'
p1335
I106
sS'bandwagon'
p1336
I106
sS'agosto'
p1337
I106
sS'doubt'
p1338
I106
sS'makeup'
p1339
I106
sS'lange'
p1340
I106
sS'lyly'
p1341
I106
sS'drink"'
p1342
I106
sS'water'
p1343
I102
sS'juro'
p1344
I106
sS'satay'
p1345
I106
sS's/o'
p1346
I106
sS'"cure\xe2\x80\xa6'
p1347
I106
sS'alone'
p1348
I104
sS'alond'
p1349
I106
sS'along'
p1350
I106
sS'earthquake'
p1351
I102
sS'change'
p1352
I101
sS'wait'
p1353
I81
sS'boy'
p1354
I100
sS'hbo'
p1355
I106
sS'foraged'
p1356
I106
sS'jajajajajajejejjejejejejejjjjejejejejje'
p1357
I106
sS'brilliant'
p1358
I104
sS'cronut'
p1359
I106
sS'woahhh'
p1360
I106
sS'wherever'
p1361
I104
sS'shooter'
p1362
I106
sS'mortis'
p1363
I106
sS'accomplished'
p1364
I106
sS'cinnamon'
p1365
I106
sS'boo'
p1366
I101
sS'usually'
p1367
I105
sS'weird'
p1368
I100
sS'quieeeeeen'
p1369
I106
sS'pillow'
p1370
I106
sS'massage'
p1371
I102
sS'homeward'
p1372
I106
sS'gorgeously'
p1373
I106
sS'motherfucking'
p1374
I106
sS'love'
p1375
I39
sS'beer"'
p1376
I106
sS'hiking'
p1377
I105
sS'extra'
p1378
I105
sS'enough?""yea'
p1379
I106
sS'bs'
p1380
I106
sS'indio'
p1381
I106
sS'coladas'
p1382
I106
sS'bullock'
p1383
I105
sS'keeper'
p1384
I106
sS'snowboard'
p1385
I105
sS'fake'
p1386
I104
sS'atrocious'
p1387
I106
sS"mcwrappin'"
p1388
I106
sS'lizzy'
p1389
I106
sS'mobil'
p1390
I106
sS'crisis'
p1391
I106
sS'market'
p1392
I105
sS'transplant'
p1393
I106
sS'sweating'
p1394
I105
sS'este'
p1395
I106
sS'andele'
p1396
I106
sS'russell'
p1397
I106
sS'working'
p1398
I93
sS'baes'
p1399
I106
sS'perk'
p1400
I106
sS'positive'
p1401
I105
sS'\xd1\x80\xd1\x8b\xd0\xb1\xd0\xba\xd1\x83'
p1402
I106
sS"it'll"
p1403
I106
sS'dude'
p1404
I100
sS'by'
p1405
I81
sS'wrongs'
p1406
I106
sS'live'
p1407
I87
sS'wood'
p1408
I106
sS'todas'
p1409
I106
sS'nueva'
p1410
I106
sS'wondering'
p1411
I106
sS'ahhh'
p1412
I105
sS'films'
p1413
I104
sS'thru'
p1414
I101
sS'today'
p1415
I43
sS'loving'
p1416
I104
sS'\xe2\x9a\xa1\xef\xb8\x8f\xe2\x9a\xa1\xef\xb8\x8f\xe2\x9a\xa1\xef\xb8\x8f\xe2\x9a\xa1\xef\xb8\x8f\xe2\x9a\xa1\xef\xb8\x8f\xe2\x9a\xa1\xef\xb8\x8f\xe2\x9a\xa1\xef\xb8\x8f\xe2\x9a\xa1\xef\xb8\x8f'
p1417
I106
sS'hooked'
p1418
I106
sS'teased'
p1419
I106
sS'riot'
p1420
I106
sS'cooler'
p1421
I106
sS'club'
p1422
I104
sS'novio'
p1423
I106
sS'ooo'
p1424
I106
sS'guapos'
p1425
I106
sS'chocolate'
p1426
I104
sS'downtown'
p1427
I104
sS'employee'
p1428
I106
sS'strawberryrecords'
p1429
I106
sS'chocan'
p1430
I106
sS'olive'
p1431
I106
sS'given'
p1432
I105
sS'espera'
p1433
I106
sS'riders'
p1434
I106
sS'mascot'
p1435
I106
sS'fly'
p1436
I101
sS'involve'
p1437
I106
sS'hayride'
p1438
I106
sS'sheds'
p1439
I106
sS'anything'
p1440
I105
sS'niggas'
p1441
I103
sS'car'
p1442
I95
sS'cap'
p1443
I105
sS'prepared'
p1444
I106
sS'soul'
p1445
I105
sS'believer'
p1446
I106
sS'cat'
p1447
I106
sS'purge'
p1448
I106
sS'vaginas'
p1449
I106
sS'hardest'
p1450
I106
sS'cah'
p1451
I106
sS'you.~'
p1452
I106
sS'can'
p1453
I58
sS'9th'
p1454
I106
sS'kendrick'
p1455
I104
sS'following'
p1456
I103
sS'making'
p1457
I93
sS'arrive'
p1458
I106
sS'orita'
p1459
I106
sS'texted'
p1460
I106
sS'stimulating'
p1461
I106
sS"lovin'"
p1462
I106
sS'bron'
p1463
I106
sS'heart'
p1464
I103
sS'crazy'
p1465
I93
sS'valentines'
p1466
I106
sS"'91"
p1467
I106
sS'stream'
p1468
I104
sS'december'
p1469
I102
sS'awesome'
p1470
I80
sS"didn't"
p1471
I95
sS'fuck'
p1472
I89
sS'agent'
p1473
I105
sS'soup'
p1474
I106
sS'stoli'
p1475
I106
sS'heard'
p1476
I103
sS'braceless'
p1477
I106
sS'chin'
p1478
I106
sS'dropped'
p1479
I105
sS'council'
p1480
I106
sS'allowed'
p1481
I106
sS'counting'
p1482
I106
sS'clothing'
p1483
I106
sS'listens'
p1484
I105
sS'pink'
p1485
I106
sS'awwww'
p1486
I105
sS'purp'
p1487
I106
sS'winter'
p1488
I106
sS'deserves'
p1489
I106
sS'discussion'
p1490
I106
sS'watching'
p1491
I96
sS'magazine'
p1492
I105
sS'pine'
p1493
I106
sS'1'
p1494
I98
sS'till'
p1495
I105
sS'sunday'
p1496
I87
sS'llega'
p1497
I106
sS'pure'
p1498
I106
sS'nyc'
p1499
I102
sS'pocus'
p1500
I106
sS'nye'
p1501
I106
sS'ceremony'
p1502
I106
sS'mas'
p1503
I101
sS'mar'
p1504
I106
sS'laundry'
p1505
I106
sS'coe'
p1506
I106
sS'140'
p1507
I106
sS'may'
p1508
I99
sS'max'
p1509
I106
sS'blasting'
p1510
I105
sS'spot'
p1511
I103
sS'needs'
p1512
I100
sS'latte'
p1513
I105
sS'fireplace'
p1514
I106
sS'birthday'
p1515
I89
sS"beyonce's"
p1516
I106
sS'mad'
p1517
I101
sS'emilia'
p1518
I106
sS'date'
p1519
I97
sS'such'
p1520
I94
sS'suck'
p1521
I103
sS'heart$118'
p1522
I106
sS'guys'
p1523
I92
sS'grow'
p1524
I106
sS'lifting'
p1525
I106
sS'man'
p1526
I78
sS'dummest'
p1527
I106
sS'cadbury'
p1528
I106
sS'natural'
p1529
I106
sS'remember'
p1530
I102
sS'combinations'
p1531
I106
sS'chiropractic'
p1532
I106
sS'whenever'
p1533
I106
sS'maybe'
p1534
I101
sS'sp'
p1535
I105
sS'bean'
p1536
I105
sS'su'
p1537
I106
sS'st'
p1538
I96
sS'si'
p1539
I100
sS'frustrated'
p1540
I106
sS'so'
p1541
I26
sS'tonights'
p1542
I106
sS'african'
p1543
I106
sS'basket'
p1544
I106
sS'title'
p1545
I106
sS'today....thanks'
p1546
I106
sS'pulled'
p1547
I106
sS'talk'
p1548
I95
sS'"march27".\xe2\x80\xa6'
p1549
I106
sS'drunken'
p1550
I106
sS'cute'
p1551
I100
sS'tagged'
p1552
I106
sS'serving'
p1553
I106
sS'manera'
p1554
I106
sS'paramore'
p1555
I105
sS'disclosure'
p1556
I106
sS'extinguen'
p1557
I106
sS'indeed'
p1558
I106
sS'wishing'
p1559
I104
sS'years'
p1560
I97
sS"mcdonald's)"
p1561
I101
sS'brain'
p1562
I106
sS'episodes'
p1563
I104
sS'dapper'
p1564
I106
sS'pitch'
p1565
I105
sS'aber'
p1566
I106
sS'cold'
p1567
I103
sS'still'
p1568
I80
sS'zuzu:)'
p1569
I106
sS'blocked'
p1570
I106
sS'djs'
p1571
I106
sS'apes'
p1572
I106
sS'group'
p1573
I105
sS'thank'
p1574
I77
sS"he's"
p1575
I96
sS'smoothie'
p1576
I105
sS'interesting'
p1577
I104
sS'birthdays'
p1578
I106
sS'hot'
p1579
I96
sS'faves'
p1580
I106
sS"he'd"
p1581
I106
sS'window'
p1582
I106
sS'offers'
p1583
I106
sS'tweets'
p1584
I104
sS'mail'
p1585
I106
sS'wildlings'
p1586
I106
sS'main'
p1587
I104
sS'trapenese'
p1588
I106
sS'ahh'
p1589
I104
sS'happened'
p1590
I103
sS'nom'
p1591
I104
sS'non'
p1592
I106
sS'lonely'
p1593
I104
sS'dej\xc3\xb3'
p1594
I106
sS'moms'
p1595
I106
sS'pushover'
p1596
I106
sS'sooner'
p1597
I105
sS'feelin'
p1598
I106
sS'sttrawberries'
p1599
I106
sS'lunch'
p1600
I97
sS'touching'
p1601
I106
sS'obscene'
p1602
I106
sS'half'
p1603
I105
sS'not'
p1604
I41
sS'alisa'
p1605
I106
sS'thus'
p1606
I106
sS'now'
p1607
I53
sS'killed'
p1608
I105
sS'fit-club'
p1609
I106
sS'josh'
p1610
I106
sS'wont'
p1611
I106
sS'fea'
p1612
I106
sS'name'
p1613
I101
sS'ahs'
p1614
I105
sS'james'
p1615
I105
sS'3-day'
p1616
I106
sS'locked'
p1617
I106
sS'realistic'
p1618
I106
sS'rock'
p1619
I103
sS'photoshoot'
p1620
I104
sS'fun-der'
p1621
I106
sS'liberating'
p1622
I106
sS'em'
p1623
I102
sS'el'
p1624
I97
sS'en'
p1625
I94
sS'lowkey'
p1626
I105
sS"'victoria's"
p1627
I106
sS'kimmy'
p1628
I106
sS'yeah'
p1629
I91
sS'subways'
p1630
I106
sS'catching'
p1631
I101
sS'year'
p1632
I92
sS'a-okay'
p1633
I106
sS'et'
p1634
I106
sS'girl'
p1635
I76
sS'teams'
p1636
I106
sS'salads'
p1637
I105
sS'ep'
p1638
I106
sS'es'
p1639
I102
sS'album'
p1640
I100
sS'living'
p1641
I101
sS'and\xe2\x80\xa6'
p1642
I105
sS'jackson'
p1643
I106
sS'jigga'
p1644
I106
sS'3rd'
p1645
I104
sS'deperdido'
p1646
I106
sS'factory'
p1647
I105
sS'looking'
p1648
I94
sS'seriously'
p1649
I100
sS'miles'
p1650
I105
sS"shouldn't"
p1651
I105
sS'internet'
p1652
I106
sS'bless'
p1653
I106
sS'bugging'
p1654
I106
sS'correct'
p1655
I105
sS'shows'
p1656
I101
sS'hooooooya'
p1657
I106
sS'\xd0\xb5\xd1\x81\xd1\x82'
p1658
I106
sS'monster'
p1659
I104
sS'hyung'
p1660
I106
sS'prostitutes'
p1661
I106
sS'(burbank'
p1662
I105
sS'million'
p1663
I104
sS'casualida'
p1664
I106
sS'departamento'
p1665
I106
sS'quite'
p1666
I105
sS'screaming'
p1667
I106
sS'quickie'
p1668
I106
sS'california'
p1669
I95
sS'besides'
p1670
I105
sS'...american'
p1671
I106
sS'cityfrom'
p1672
I106
sS'amigos'
p1673
I105
sS'cough'
p1674
I106
sS'today\xe2\x98\x80\xef\xb8\x8f'
p1675
I106
sS'card'
p1676
I104
sS'care'
p1677
I100
sS'pancake'
p1678
I106
sS'underwear'
p1679
I105
sS'yummiest'
p1680
I106
sS'"hear"'
p1681
I106
sS'alcove\xe2\x80\xa6'
p1682
I106
sS'waiter'
p1683
I106
sS'yup'
p1684
I105
sS'100%'
p1685
I105
sS'quemada'
p1686
I106
sS'calories'
p1687
I106
sS'british'
p1688
I106
sS'16th'
p1689
I106
sS'turn'
p1690
I99
sS'funky'
p1691
I106
sS'10pm'
p1692
I106
sS'place'
p1693
I88
sS'husband'
p1694
I106
sS'\xd9\x87\xd9\x85'
p1695
I106
sS'futbolista'
p1696
I105
sS'sorrel\xe2\x80\xa6'
p1697
I106
sS'mides'
p1698
I106
sS'yess'
p1699
I106
sS'think'
p1700
I77
sS'first'
p1701
I70
sS'carney'
p1702
I106
sS'cheese'
p1703
I105
sS'constantly'
p1704
I106
sS'xo'
p1705
I106
sS'xm'
p1706
I105
sS'americano'
p1707
I106
sS'potter'
p1708
I105
sS'flipping'
p1709
I105
sS'crib'
p1710
I106
sS'yourself'
p1711
I102
sS'your\xe2\x80\xa6'
p1712
I106
sS'xx'
p1713
I106
sS'americans'
p1714
I106
sS'fast'
p1715
I106
sS'spanish'
p1716
I105
sS'carry'
p1717
I104
sS'sounds'
p1718
I100
sS'drove'
p1719
I105
sS'open'
p1720
I104
sS'tomorrow'
p1721
I78
sS'size'
p1722
I106
sS'city'
p1723
I21
sS'little'
p1724
I91
sS'"influential'
p1725
I106
sS'district'
p1726
I106
sS'bite'
p1727
I104
sS'slept'
p1728
I102
sS'five-year'
p1729
I106
sS'plastic'
p1730
I106
sS'anyone'
p1731
I98
sS'2'
p1732
I41
sS'typing'
p1733
I106
sS'cita'
p1734
I106
sS'white'
p1735
I98
sS'tujunga'
p1736
I102
sS'national'
p1737
I106
sS'friend'
p1738
I94
sS'eyes'
p1739
I104
sS'hug'
p1740
I106
sS'bridesmaids'
p1741
I106
sS'releases'
p1742
I105
sS'that'
p1743
I23
sS'on"'
p1744
I106
sS'season'
p1745
I94
sS"men's"
p1746
I106
sS'huh'
p1747
I105
sS'relaxer'
p1748
I106
sS'game!"'
p1749
I106
sS'hut'
p1750
I101
sS'cops'
p1751
I105
sS'hurt'
p1752
I106
sS'butt'
p1753
I101
sS'baja'
p1754
I106
sS'shirley'
p1755
I106
sS'thai'
p1756
I106
sS'x1'
p1757
I106
sS'than'
p1758
I83
sS"here's"
p1759
I104
sS'boyfriend'
p1760
I102
sS'11'
p1761
I106
sS'10'
p1762
I100
sS'13'
p1763
I104
sS'12'
p1764
I101
sS'15'
p1765
I105
sS'lmao'
p1766
I106
sS'depressed'
p1767
I106
sS'gotta'
p1768
I97
sS'lake)'
p1769
I106
sS'non-stop'
p1770
I106
sS'crossroads'
p1771
I106
sS'ventura'
p1772
I104
sS'r'
p1773
I104
sS'killingsworth'
p1774
I106
sS'bag'
p1775
I106
sS'were'
p1776
I94
sS'cards'
p1777
I104
sS'futuro'
p1778
I106
sS'counselor'
p1779
I106
sS'damned'
p1780
I106
sS'published'
p1781
I105
sS'and'
p1782
I4
sS'grew'
p1783
I106
sS'hairline'
p1784
I106
sS'real\xe2\x80\x9d'
p1785
I106
sS'san'
p1786
I106
sS'styling~'
p1787
I106
sS'appreciate'
p1788
I106
sS'seal'
p1789
I106
sS'turned'
p1790
I104
sS'marijuana'
p1791
I106
sS'alley'
p1792
I105
sS'sad'
p1793
I100
sS'medical'
p1794
I105
sS'say'
p1795
I89
sS'tanning'
p1796
I106
sS'sas'
p1797
I106
sS'\xe2\x86\x90\xe2\x86\x90\xe2\x86\x90'
p1798
I106
sS'breakfast'
p1799
I98
sS'strutting'
p1800
I106
sS'saw'
p1801
I90
sS'any'
p1802
I89
sS'kevin'
p1803
I105
sS'sat'
p1804
I106
sS'move.\xe2\x98\xba\xef\xb8\x8f'
p1805
I106
sS'pleasant'
p1806
I106
sS'zombieland'
p1807
I105
sS'gold\xe2\x80\xa6'
p1808
I106
sS'dallasrowdyaustin'
p1809
I106
sS'answering'
p1810
I106
sS'validating'
p1811
I106
sS'40'
p1812
I106
sS'note'
p1813
I105
sS'potential'
p1814
I105
sS'hookah'
p1815
I106
sS'take'
p1816
I90
sS'ruling'
p1817
I106
sS'performance'
p1818
I104
sS'hemp'
p1819
I106
sS'beirut'
p1820
I106
sS'day...lax\xe2\x9c\x88\xef\xb8\x8flhr\xe2\x9c\x88\xef\xb8\x8fbey....so'
p1821
I106
sS'channel'
p1822
I105
sS'butterfly'
p1823
I106
sS'200'
p1824
I106
sS'handing'
p1825
I106
sS'sure'
p1826
I88
sS'pain'
p1827
I105
sS"achin'"
p1828
I106
sS'theatre'
p1829
I106
sS'opposite'
p1830
I105
sS'tornado'
p1831
I104
sS'cheesecake'
p1832
I102
sS'price'
p1833
I106
sS'knew'
p1834
I104
sS'clearer'
p1835
I106
sS'paid'
p1836
I106
sS'netflix'
p1837
I105
sS'assault'
p1838
I106
sS'intergalactic'
p1839
I106
sS'sheets'
p1840
I106
sS'"pajama'
p1841
I106
sS'fck'
p1842
I106
sS'icon'
p1843
I106
sS'michelle'
p1844
I106
sS'forever'
p1845
I103
sS'neuro'
p1846
I106
sS'especially'
p1847
I103
sS'touchy'
p1848
I106
sS'wherestheparty'
p1849
I106
sS'average'
p1850
I106
sS'later'
p1851
I104
sS'steady'
p1852
I106
sS'drive'
p1853
I100
sS'order'
p1854
I106
sS'24/7'
p1855
I106
sS'sunset'
p1856
I106
sS'philips)'
p1857
I105
sS'rihana'
p1858
I106
sS'7:30'
p1859
I106
sS'shop'
p1860
I103
sS'__'
p1861
I106
sS'walking'
p1862
I101
sS'drastically'
p1863
I106
sS'shot'
p1864
I105
sS'\xe2\x9c\xa8'
p1865
I104
sS'show'
p1866
I84
sS'german'
p1867
I106
sS'\xe2\x9d\xa4\xef\xb8\x8fmy'
p1868
I106
sS'cheap'
p1869
I105
sS'fever'
p1870
I106
sS'discovered'
p1871
I106
sS'estoy'
p1872
I104
sS'bright'
p1873
I106
sS'therapist'
p1874
I106
sS"morningdon't"
p1875
I106
sS'corner'
p1876
I104
sS'aggressive'
p1877
I106
sS'ground'
p1878
I105
sS'"who\'s'
p1879
I106
sS'snack'
p1880
I106
sS'fedhead'
p1881
I106
sS'dice'
p1882
I106
sS'\xe2\x9c\x8b'
p1883
I100
sS'\xe2\x9c\x8a'
p1884
I105
sS'daily'
p1885
I106
sS'dick'
p1886
I105
sS'3'
p1887
I67
sS'vid'
p1888
I106
sS'd....b...z'
p1889
I106
sS'"holiday"'
p1890
I106
sS'only'
p1891
I74
sS'going'
p1892
I66
sS'black'
p1893
I96
sS'hockey'
p1894
I105
sS'"free'
p1895
I106
sS'\xe2\x99\xa1'
p1896
I105
sS'dreaded'
p1897
I106
sS'bridge'
p1898
I105
sS'ranking'
p1899
I106
sS'get'
p1900
I51
sS'hostage'
p1901
I106
sS'witness'
p1902
I106
sS'between'
p1903
I106
sS'freezing'
p1904
I104
sS'milkshakes'
p1905
I104
sS'truly'
p1906
I104
sS'stang'
p1907
I106
sS'leon'
p1908
I106
sS'cannot'
p1909
I105
sS'kiki'
p1910
I106
sS'nearly'
p1911
I106
sS'cheat'
p1912
I106
sS'whaaat'
p1913
I105
sS'wonkers'
p1914
I106
sS'biggie'
p1915
I106
sS'beastie'
p1916
I106
sS'pimp'
p1917
I106
sS'artist'
p1918
I105
sS'floods'
p1919
I106
sS'awwwww'
p1920
I105
sS'morning'
p1921
I74
sS'jokes'
p1922
I106
sS'tension'
p1923
I106
sS'stupid'
p1924
I103
sS"could've"
p1925
I106
sS'worries'
p1926
I104
sS'miley'
p1927
I104
sS'finishing'
p1928
I105
sS'bought'
p1929
I106
sS'where'
p1930
I94
sS'xmas'
p1931
I105
sS'vision'
p1932
I106
sS'helps'
p1933
I106
sS"y'all"
p1934
I99
sS'reveals'
p1935
I106
sS'lyft'
p1936
I106
sS'jr'
p1937
I106
sS'concert'
p1938
I106
sS'grammys'
p1939
I106
sS'keyboard'
p1940
I106
sS'notice'
p1941
I106
sS'hamels'
p1942
I106
sS'seat'
p1943
I105
sS'cocktails'
p1944
I105
sS'hickies'
p1945
I106
sS'asleep'
p1946
I104
sS'sean'
p1947
I106
sS'parking'
p1948
I104
sS'apologies'
p1949
I106
sS'coogi'
p1950
I106
sS'purest'
p1951
I106
sS'wonder'
p1952
I105
sS'um'
p1953
I103
sS'fails'
p1954
I106
sS'j.k'
p1955
I106
sS'camping'
p1956
I106
sS'farmers'
p1957
I105
sS'ways'
p1958
I105
sS'review'
p1959
I106
sS'opening'
p1960
I106
sS'thurs'
p1961
I106
sS'weapons'
p1962
I106
sS'storage'
p1963
I106
sS'enough'
p1964
I101
sS'from\xe2\x80\xa6'
p1965
I106
sS'(11220'
p1966
I106
sS'joy'
p1967
I106
sS'teens'
p1968
I105
sS'reading'
p1969
I104
sS'across'
p1970
I104
sS'whipped'
p1971
I106
sS'ima'
p1972
I105
sS'cantaloupe'
p1973
I106
sS'jobs'
p1974
I105
sS'august'
p1975
I105
sS'25'
p1976
I106
sS'prettiest'
p1977
I106
sS'huggz'
p1978
I106
sS'planes'
p1979
I106
sS'style'
p1980
I106
sS'supermarket'
p1981
I106
sS'killing'
p1982
I106
sS'concentrate'
p1983
I106
sS'awards'
p1984
I98
sS'joby'
p1985
I106
sS'como'
p1986
I105
sS'jk'
p1987
I106
sS'coma'
p1988
I105
sS'cities'
p1989
I106
sS'come'
p1990
I86
sS'instagrams'
p1991
I106
sS'reaction'
p1992
I105
sS'z'
p1993
I106
sS'talented'
p1994
I106
sS'useless'
p1995
I106
sS'many'
p1996
I95
sS'23'
p1997
I106
sS'dds)'
p1998
I105
sS'monk'
p1999
I105
sS'contract'
p2000
I106
sS'flipped'
p2001
I106
sS'personal'
p2002
I106
sS'tour'
p2003
I106
sS'loudly'
p2004
I106
sS'quien'
p2005
I106
sS'yeeee'
p2006
I106
sS'chorizo'
p2007
I106
sS'backpack'
p2008
I106
sS"can't"
p2009
I59
sS'armenian'
p2010
I106
sS'duty'
p2011
I106
sS'watch*'
p2012
I106
sS'"y\'all."'
p2013
I106
sS'6:30'
p2014
I106
sS'siii'
p2015
I106
sS'color'
p2016
I106
sS'annual'
p2017
I106
sS'pot'
p2018
I105
sS'por'
p2019
I100
sS'period'
p2020
I106
sS'football'
p2021
I106
sS'nooooo'
p2022
I106
sS'pon'
p2023
I106
sS'singers'
p2024
I106
sS'twin'
p2025
I103
sS'3000'
p2026
I106
sS"couldn't"
p2027
I104
sS'dracut'
p2028
I106
sS'freak'
p2029
I106
sS'pod'
p2030
I106
sS'crew'
p2031
I104
sS'chevron)'
p2032
I106
sS'logic'
p2033
I106
sS'turkey'
p2034
I104
sS'save'
p2035
I105
sS'arts'
p2036
I106
sS'ahahahahaha'
p2037
I106
sS'tuning'
p2038
I105
sS'carina'
p2039
I106
sS'capable'
p2040
I106
sS'west'
p2041
I95
sS'vacation'
p2042
I106
sS'ja'
p2043
I106
sS'tropical'
p2044
I106
sS'prime'
p2045
I106
sS'ed'
p2046
I106
sS'jon'
p2047
I106
sS'likewise'
p2048
I106
sS'hubbies'
p2049
I106
sS'"dummy"'
p2050
I106
sS'tough\xe2\x80\x9d'
p2051
I106
sS'mary'
p2052
I104
sS'bullshit'
p2053
I106
sS'wants'
p2054
I102
sS'direction'
p2055
I105
sS'matters'
p2056
I106
sS'cowgirl"'
p2057
I106
sS'some:)'
p2058
I106
sS'stumbled'
p2059
I106
sS'figured'
p2060
I106
sS'wake'
p2061
I101
sS'bmw'
p2062
I102
sS'hashtag'
p2063
I106
sS'foggy'
p2064
I106
sS'skiers'
p2065
I106
sS'argentina'
p2066
I105
sS'those'
p2067
I101
sS'case'
p2068
I105
sS'gut'
p2069
I106
sS'myself'
p2070
I99
sS'whyyyyyyyyyy'
p2071
I106
sS'these'
p2072
I88
sS'sauce'
p2073
I104
sS'humans'
p2074
I106
sS'definition'
p2075
I106
sS'cash'
p2076
I106
sS'cast'
p2077
I105
sS'tragedy'
p2078
I106
sS'warning'
p2079
I106
sS'ongoing'
p2080
I106
sS'cerdoo'
p2081
I106
sS'joke'
p2082
I106
sS'newspaper'
p2083
I106
sS'hmmmm'
p2084
I106
sS'yessum'
p2085
I106
sS'coolest'
p2086
I106
sS'ein'
p2087
I106
sS'cum'
p2088
I106
sS'eran'
p2089
I105
sS'engaged'
p2090
I106
sS'coffee'
p2091
I12
sS'sleeping'
p2092
I102
sS'couples'
p2093
I106
sS'blah'
p2094
I103
sS'good'
p2095
I44
sS'eras'
p2096
I106
sS'towards'
p2097
I106
sS'beaver'
p2098
I106
sS'protein'
p2099
I106
sS'everyday'
p2100
I104
sS'worry'
p2101
I104
sS'$2.95'
p2102
I106
sS'bags'
p2103
I106
sS'different'
p2104
I103
sS'williams'
p2105
I106
sS'shuts'
p2106
I106
sS'[[fill'
p2107
I106
sS'pay'
p2108
I102
sS'10:30'
p2109
I106
sS'bowl'
p2110
I105
sS'same'
p2111
I99
sS'trip'
p2112
I94
sS'food'
p2113
I98
sS'dayna'
p2114
I106
sS'stepped'
p2115
I106
sS'pal'
p2116
I106
sS'events'
p2117
I105
sS'homophobic'
p2118
I106
sS'amd'
p2119
I106
sS'week'
p2120
I88
sS'visually'
p2121
I106
sS'raps'
p2122
I106
sS'finish'
p2123
I104
sS'screenshot'
p2124
I106
sS'holla'
p2125
I106
sS'it"'
p2126
I106
sS'driver'
p2127
I105
sS'aaaaaah'
p2128
I106
sS'weed'
p2129
I104
sS'cheers'
p2130
I105
sS'running'
p2131
I105
sS'fruit'
p2132
I105
sS'wired'
p2133
I104
sS'two'
p2134
I88
sS'favorites'
p2135
I106
sS"emmy's"
p2136
I106
sS'changing'
p2137
I106
sS'totally'
p2138
I102
sS'term\xe2\x99\xa1'
p2139
I106
sS'omelette'
p2140
I106
sS'emoji*'
p2141
I106
sS'awesomeness'
p2142
I106
sS'burrito'
p2143
I105
sS'warming'
p2144
I106
sS'vineland'
p2145
I106
sS'floor'
p2146
I106
sS'subservient'
p2147
I106
sS'bang'
p2148
I105
sS'nothin'
p2149
I105
sS'zabner'
p2150
I100
sS'without'
p2151
I100
sS'comes'
p2152
I105
sS"caplan.can't"
p2153
I106
sS'model'
p2154
I105
sS'deported'
p2155
I106
sS'canceled'
p2156
I106
sS'mashup'
p2157
I106
sS'bodies'
p2158
I106
sS'parody'
p2159
I106
sS'summer'
p2160
I99
sS'capitulo'
p2161
I106
sS'am:0'
p2162
I106
sS'\xe2\x98\xba\xef\xb8\x8f'
p2163
I99
sS'being'
p2164
I88
sS'money'
p2165
I98
sS'fatties'
p2166
I106
sS'sights'
p2167
I106
sS'rest'
p2168
I105
sS'kill'
p2169
I106
sS'summed'
p2170
I106
sS'touch'
p2171
I106
sS'flavor'
p2172
I106
sS'nam'
p2173
I106
sS'hamachi'
p2174
I104
sS'robins'
p2175
I106
sS'ps4'
p2176
I106
sS'weekly'
p2177
I106
sS'blow'
p2178
I106
sS'sprang'
p2179
I106
sS'death'
p2180
I106
sS'clueless'
p2181
I106
sS'cancer'
p2182
I106
sS'ny'
p2183
I102
sS'thinking'
p2184
I99
sS'seems'
p2185
I105
sS'except'
p2186
I105
sS'complain'
p2187
I106
sS'blog'
p2188
I106
sS'lets'
p2189
I106
sS'ahhhh'
p2190
I104
sS'4'
p2191
I84
sS"potato's"
p2192
I100
sS'chuttttt'
p2193
I106
sS'1976'
p2194
I106
sS'flashing'
p2195
I106
sS'ca'
p2196
I68
sS'real'
p2197
I95
sS'jake'
p2198
I106
sS'around'
p2199
I89
sS'spectacular'
p2200
I105
sS'blowout'
p2201
I106
sS'read'
p2202
I101
sS'cuando'
p2203
I106
sS'psa'
p2204
I106
sS'virginia'
p2205
I103
sS'gonna'
p2206
I95
sS'day..my'
p2207
I106
sS'dark'
p2208
I103
sS'traffic'
p2209
I95
sS'insist'
p2210
I106
sS'listening'
p2211
I100
sS'tanto'
p2212
I105
sS'world'
p2213
I94
sS'middle-class"'
p2214
I106
sS'lady'
p2215
I103
sS'dare'
p2216
I105
sS'ruled'
p2217
I106
sS'christina'
p2218
I106
sS'blogging'
p2219
I106
sS'pounds'
p2220
I106
sS'deacuerdo'
p2221
I106
sS'collective'
p2222
I106
sS'broth.\xe2\x80\xa6'
p2223
I106
sS'homegirl'
p2224
I102
sS'"he'
p2225
I106
sS'nadamas'
p2226
I106
sS'tsunami'
p2227
I106
sS'gras'
p2228
I105
sS'either'
p2229
I102
sS'beverly'
p2230
I104
sS'served'
p2231
I106
sS'voluntarily'
p2232
I106
sS'frogger'
p2233
I106
sS'pete&jonathan'
p2234
I106
sS'yayayayyayayayayya'
p2235
I106
sS';p'
p2236
I106
sS'hyaterical'
p2237
I106
sS'apartments'
p2238
I105
sS'daddy'
p2239
I106
sS'diamond.......wait'
p2240
I106
sS'hahhaha'
p2241
I106
sS'myyyy'
p2242
I106
sS'competition'
p2243
I106
sS'oscars'
p2244
I106
sS'eddie'
p2245
I106
sS'table'
p2246
I102
sS'playin'
p2247
I106
sS'divine'
p2248
I106
sS'matching'
p2249
I104
sS'ahhhhhh'
p2250
I104
sS'"eddie'
p2251
I106
sS'lentils'
p2252
I106
sS'wiggins'
p2253
I105
sS'regina'
p2254
I106
sS'mood'
p2255
I103
sS'(4340'
p2256
I106
sS'vote'
p2257
I106
sS'dds'
p2258
I102
sS'memories'
p2259
I105
sS'noon'
p2260
I106
sS'nooo'
p2261
I106
sS'stopp'
p2262
I106
sS'moon'
p2263
I105
sS'muerta'
p2264
I106
sS'hipster'
p2265
I105
sS'23rd'
p2266
I106
sS'in!ggggrrr'
p2267
I106
sS'baldwin'
p2268
I106
sS'setlist'
p2269
I106
sS'welcome'
p2270
I101
sS'\xe2\x9c\x88\xef\xb8\x8f'
p2271
I105
sS'business'
p2272
I103
sS'asap'
p2273
I106
sS'lmfao'
p2274
I105
sS'fitness'
p2275
I104
sS'weirdest'
p2276
I106
sS'insulting'
p2277
I106
sS'pastors'
p2278
I106
sS'resurrection'
p2279
I105
sS';)'
p2280
I102
sS'exciting'
p2281
I102
sS'throw'
p2282
I106
sS'patsy!!bend'
p2283
I106
sS'mensa'
p2284
I105
sS'be\xe2\x80\xa6'
p2285
I106
sS'on'
p2286
I20
sS'crafting'
p2287
I106
sS'cremas'
p2288
I106
sS'ok'
p2289
I104
sS'oj'
p2290
I106
sS'ace'
p2291
I106
sS'oh'
p2292
I83
sS'reasons'
p2293
I106
sS'of'
p2294
I18
sS'industry'
p2295
I104
sS'favorite'
p2296
I83
sS'fein'
p2297
I106
sS'meal'
p2298
I104
sS'free)'
p2299
I106
sS'fell'
p2300
I106
sS'wolf'
p2301
I105
sS'stand'
p2302
I105
sS'neighbor'
p2303
I105
sS'masterpieces'
p2304
I106
sS'chive'
p2305
I106
sS'choy'
p2306
I106
sS'luck'
p2307
I103
sS'or'
p2308
I75
sS'road'
p2309
I104
sS'~my'
p2310
I106
sS'ladies'
p2311
I105
sS'lands'
p2312
I106
sS'curling'
p2313
I106
sS'accent'
p2314
I106
sS'night..cheat'
p2315
I106
sS'internet-era'
p2316
I106
sS'homeland'
p2317
I106
sS'blessed'
p2318
I102
sS'snapchat'
p2319
I104
sS'rolling'
p2320
I106
sS'morir'
p2321
I105
sS'"screenwriting'
p2322
I106
sS'amiga'
p2323
I106
sS'homeless'
p2324
I106
sS'gary'
p2325
I105
sS'elementary'
p2326
I105
sS'wade'
p2327
I106
sS'youu'
p2328
I105
sS'your'
p2329
I37
sS'buds'
p2330
I106
sS'burbank'
p2331
I105
sS'neymar'
p2332
I106
sS'rewarding'
p2333
I106
sS'fill'
p2334
I105
sS"how's"
p2335
I105
sS'her'
p2336
I81
sS'area'
p2337
I106
sS'hip'
p2338
I106
sS'downed'
p2339
I106
sS'there'
p2340
I74
sS'relocation'
p2341
I106
sS'hey'
p2342
I101
sS'lol'
p2343
I77
sS'well....this'
p2344
I106
sS'start'
p2345
I95
sS'cats'
p2346
I105
sS'mondays'
p2347
I104
sS'low'
p2348
I106
sS'lot'
p2349
I100
sS'brazilian'
p2350
I104
sS'valley'
p2351
I99
sS'fish'
p2352
I105
sS'yah'
p2353
I105
sS'pasando'
p2354
I106
sS'sorrel'
p2355
I104
sS'brandimilloy'
p2356
I106
sS'volunteerism'
p2357
I106
sS'you"'
p2358
I106
sS'tripod'
p2359
I106
sS'jus'
p2360
I105
sS'hiccup'
p2361
I106
sS'everyone]]'
p2362
I106
sS'gorg'
p2363
I105
sS'cottage'
p2364
I105
sS'happier'
p2365
I106
sS'remix)'
p2366
I106
sS'trying'
p2367
I95
sS'with'
p2368
I25
sS'corduroy'
p2369
I106
sS'buying'
p2370
I104
sS'handsome'
p2371
I106
sS"they're"
p2372
I103
sS'october'
p2373
I106
sS'rage'
p2374
I106
sS"wasn't"
p2375
I97
sS'hooray'
p2376
I106
sS'potato'
p2377
I106
sS'pushups\xe2\x80\xa2smoke'
p2378
I106
sS'breath'
p2379
I106
sS'strawberry'
p2380
I105
sS'doc'
p2381
I106
sS'dirty'
p2382
I105
sS'moley'
p2383
I105
sS'caligae'
p2384
I105
sS'advantage'
p2385
I106
sS'trips'
p2386
I105
sS'swaggy'
p2387
I106
sS'gone'
p2388
I103
sS'rva'
p2389
I103
sS'ab'
p2390
I105
sS'entiende'
p2391
I106
sS'johnny'
p2392
I106
sS'af'
p2393
I106
sS'exhausted'
p2394
I105
sS'ah'
p2395
I103
sS'efron'
p2396
I106
sS'am'
p2397
I84
sS'sales'
p2398
I106
sS'watches'
p2399
I106
sS'an'
p2400
I73
sS'imagination'
p2401
I106
sS'as'
p2402
I64
sS'$4.25/gallon'
p2403
I106
sS'au'
p2404
I105
sS'at'
p2405
I10
sS'aw'
p2406
I106
sS'hobbies'
p2407
I106
sS'ay'
p2408
I106
sS'watched'
p2409
I104
sS'jargon'
p2410
I106
sS'nerd'
p2411
I106
sS'film'
p2412
I105
sS'cream'
p2413
I102
sS'yoo'
p2414
I106
sS'again'
p2415
I84
sS'4.7'
p2416
I106
sS'beyond'
p2417
I104
sS'yoga'
p2418
I106
sS'"bitches'
p2419
I106
sS'deserve'
p2420
I103
sS'drivers'
p2421
I102
sS'threesome'
p2422
I106
sS'yogi'
p2423
I106
sS'green'
p2424
I104
sS'bonitas'
p2425
I106
sS'ascap'
p2426
I106
sS'=)'
p2427
I106
sS'tight'
p2428
I106
sS'valid'
p2429
I106
sS'5'
p2430
I87
sS'ok.this'
p2431
I106
sS'orchid'
p2432
I106
sS'hmu'
p2433
I106
sS'friggin'
p2434
I104
sS'you'
p2435
I11
sS'babylon'
p2436
I105
sS'tomaszkrol'
p2437
I106
sS'gazpacho'
p2438
I106
sS"tonight's"
p2439
I106
sS'polar'
p2440
I105
sS'poop'
p2441
I105
sS'redkittystraight\xe2\x80\xa6'
p2442
I106
sS'obsessed'
p2443
I106
sS'students'
p2444
I106
sS'ley'
p2445
I105
sS'symbol'
p2446
I106
sS'finale'
p2447
I105
sS'pear'
p2448
I106
sS'asses.\xe2\x80\x9d'
p2449
I106
sS'herbs'
p2450
I106
sS'roxanne'
p2451
I106
sS'important'
p2452
I106
sS'track'
p2453
I105
sS'gayest'
p2454
I106
sS'accounts'
p2455
I106
sS"she's"
p2456
I98
sS'chris'
p2457
I106
sS'pool'
p2458
I102
sS'alcohol'
p2459
I105
sS'booked'
p2460
I105
sS'srry'
p2461
I106
sS'calls'
p2462
I106
sS'wife'
p2463
I105
sS"life's"
p2464
I106
sS'waaaaah'
p2465
I106
sS'having'
p2466
I93
sS'lipstick'
p2467
I106
sS'estan'
p2468
I106
sS'mass'
p2469
I104
sS'nelson'
p2470
I106
sS'candies'
p2471
I106
sS'alright'
p2472
I104
sS'nutrient'
p2473
I106
sS'dvr'
p2474
I106
sS'starting'
p2475
I101
sS'original'
p2476
I104
sS'all'
p2477
I31
sS'forget'
p2478
I103
sS'park:('
p2479
I106
sS'diesel'
p2480
I106
sS'beware'
p2481
I106
sS'lack'
p2482
I106
sS'concern'
p2483
I106
sS'month'
p2484
I104
sS'refreshing\xe2\x80\xa6'
p2485
I106
sS':/'
p2486
I106
sS'lurks'
p2487
I106
sS'taquitos'
p2488
I106
sS'parmesan'
p2489
I106
sS'dish'
p2490
I106
sS'follow'
p2491
I103
sS'kick-ass'
p2492
I105
sS'liam'
p2493
I106
sS'carpet'
p2494
I104
sS'shattered'
p2495
I106
sS'griffin'
p2496
I106
sS'apartment'
p2497
I106
sS':*'
p2498
I106
sS'college'
p2499
I106
sS'doe'
p2500
I106
sS'tv'
p2501
I105
sS'baddest'
p2502
I104
sS'tu'
p2503
I104
sS'thursday'
p2504
I101
sS'laughing'
p2505
I106
sS'riots'
p2506
I106
sS'to'
p2507
I5
sS'happen..the'
p2508
I106
sS'scrambled'
p2509
I106
sS'ti'
p2510
I104
sS'tf'
p2511
I106
sS'smile'
p2512
I105
sS'te'
p2513
I98
sS'presentation'
p2514
I106
sS'auburn-alabama'
p2515
I106
sS'mandela'
p2516
I106
sS'sound'
p2517
I105
sS'woman'
p2518
I102
sS'premium'
p2519
I106
sS'worse'
p2520
I104
sS'song'
p2521
I89
sS'very'
p2522
I94
sS'horror'
p2523
I103
sS'verbena'
p2524
I106
sS'mara'
p2525
I106
sS'fat'
p2526
I104
sS'fan'
p2527
I102
sS'hatching'
p2528
I106
sS'fall'
p2529
I101
sS'fab'
p2530
I106
sS'ticket'
p2531
I103
sS'difference'
p2532
I106
sS'fad'
p2533
I106
sS'verbana'
p2534
I106
sS'gg'
p2535
I106
sS'heaven'
p2536
I103
sS'peor'
p2537
I106
sS'post-meal'
p2538
I106
sS'--'
p2539
I105
sS'ofcourse'
p2540
I106
sS'onesie'
p2541
I106
sS'list'
p2542
I101
sS'theaters'
p2543
I106
sS'large'
p2544
I105
sS'sand'
p2545
I106
sS'sane'
p2546
I106
sS'harry'
p2547
I105
sS'small'
p2548
I101
sS'lisa'
p2549
I100
sS'dodger'
p2550
I106
sS'befroended'
p2551
I106
sS'vanilla'
p2552
I106
sS"i'll"
p2553
I87
sS'dunk'
p2554
I106
sS'cookies'
p2555
I105
sS'neighborhood'
p2556
I105
sS'pasa'
p2557
I105
sS'fence'
p2558
I106
sS'conmigo'
p2559
I106
sS'tea'
p2560
I15
sS'today--i'
p2561
I106
sS'streets'
p2562
I106
sS'sippin'
p2563
I106
sS'valuable'
p2564
I106
sS'blahhhhh'
p2565
I106
sS'past'
p2566
I105
sS'hice'
p2567
I105
sS'zero'
p2568
I106
sS'design'
p2569
I106
sS'displays'
p2570
I106
sS'rebuena'
p2571
I106
sS'nba'
p2572
I104
sS"saturday's"
p2573
I106
sS'investment'
p2574
I106
sS'aphrodisiac'
p2575
I106
sS'90s'
p2576
I106
sS'what'
p2577
I44
sS'abc'
p2578
I105
sS'animes'
p2579
I106
sS'richard'
p2580
I106
sS'clock'
p2581
I105
sS'sun'
p2582
I101
sS'resume'
p2583
I106
sS'anniversary'
p2584
I105
sS'emotions'
p2585
I106
sS'crush'
p2586
I106
sS'carolinecurrin'
p2587
I106
sS'abs'
p2588
I105
sS'diaz'
p2589
I105
sS'malibu\xe2\x98\x80\xef\xb8\x8f'
p2590
I106
sS'happppyyyy'
p2591
I106
sS'ratchet'
p2592
I106
sS'learned'
p2593
I104
sS'row'
p2594
I106
sS'redbox'
p2595
I106
sS'guns'
p2596
I106
sS'contrast'
p2597
I106
sS'movement'
p2598
I106
sS'\xe3\x85\x8b\xe3\x85\x8b\xe3\x85\x8b'
p2599
I106
sS'full'
p2600
I104
sS'aaryn'
p2601
I106
sS"c'mon"
p2602
I106
sS'hungover'
p2603
I106
sS'hahaha'
p2604
I103
sS'ballet'
p2605
I106
sS'forgive'
p2606
I106
sS'hours'
p2607
I92
sS'wild'
p2608
I102
sS'suicide'
p2609
I106
sS'jonas'
p2610
I106
sS'trunk'
p2611
I106
sS'november'
p2612
I105
sS'strong'
p2613
I104
sS'yaaaaaa'
p2614
I106
sS'handed"'
p2615
I106
sS'arena'
p2616
I106
sS'solid'
p2617
I106
sS'teeth'
p2618
I106
sS'ahead'
p2619
I106
sS'world.\xe2\x9c\x88\xef\xb8\x8f'
p2620
I106
sS'inspired'
p2621
I104
sS'stretching'
p2622
I106
sS'likin'
p2623
I106
sS'storefront'
p2624
I106
sS'pics'
p2625
I104
sS'fired'
p2626
I106
sS'soldier'
p2627
I106
sS'airport'
p2628
I104
sS'ir\xc3\xa9'
p2629
I106
sS'milkshake'
p2630
I105
sS'fwy'
p2631
I106
sS'musically'
p2632
I106
sS'pick'
p2633
I98
sS"would've"
p2634
I103
sS'"but"'
p2635
I106
sS"friday's"
p2636
I106
sS'roomie'
p2637
I105
sS'brightest'
p2638
I106
sS'trainer'
p2639
I106
sS"day's"
p2640
I106
sS'cappuccino'
p2641
I106
sS'via'
p2642
I104
sS'nembe'
p2643
I106
sS'family'
p2644
I99
sS'buses'
p2645
I106
sS'continues!:)'
p2646
I106
sS'father'
p2647
I106
sS'pasture'
p2648
I106
sS'escuchar'
p2649
I106
sS'nombre'
p2650
I106
sS'texts'
p2651
I104
sS'mutant'
p2652
I106
sS'toys'
p2653
I106
sS'globes'
p2654
I105
sS'1903'
p2655
I106
sS'\xe2\x80\xa2do'
p2656
I106
sS'woah'
p2657
I106
sS'minute...what'
p2658
I106
sS'show\xe2\x80\xa6'
p2659
I106
sS'attendance'
p2660
I106
sS'eye'
p2661
I106
sS'takes'
p2662
I100
sS'siiiick'
p2663
I106
sS'"hate"'
p2664
I106
sS'\xe2\x98\x9d\xef\xb8\x8f'
p2665
I105
sS'texting'
p2666
I106
sS'charge'
p2667
I105
sS'pears'
p2668
I106
sS'slumber'
p2669
I106
sS'm&ms'
p2670
I106
sS'comparing'
p2671
I106
sS'anger'
p2672
I106
sS'foursquare'
p2673
I106
sS'good....run'
p2674
I106
sS'twerking?"'
p2675
I106
sS'6'
p2676
I99
sS'taken'
p2677
I103
sS'dunks'
p2678
I106
sS'injury'
p2679
I106
sS'more'
p2680
I71
sS'teen'
p2681
I106
sS'tryna'
p2682
I103
sS'door'
p2683
I106
sS'knows'
p2684
I103
sS'(no'
p2685
I106
sS'grabbing'
p2686
I106
sS'lush'
p2687
I106
sS'company'
p2688
I105
sS'spoils'
p2689
I105
sS'mynard'
p2690
I104
sS'f-shack'
p2691
I106
sS'lloro'
p2692
I106
sS'israel.military'
p2693
I106
sS'excuse'
p2694
I105
sS'ass\xe2\x80\xa6'
p2695
I106
sS"ain't"
p2696
I94
sS'stick'
p2697
I106
sS'broke'
p2698
I105
sS'glam'
p2699
I106
sS'anthropomorphic'
p2700
I106
sS'hurry'
p2701
I104
sS'semper'
p2702
I106
sS'glad'
p2703
I97
sS'luv'
p2704
I106
sS'town'
p2705
I101
sS'lust'
p2706
I106
sS'keeping'
p2707
I105
sS'hour'
p2708
I103
sS'middle'
p2709
I104
sS'phillip'
p2710
I106
sS'sucks'
p2711
I103
sS'sweeps'
p2712
I106
sS'kickass'
p2713
I106
sS"february's"
p2714
I106
sS'desmaquillante'
p2715
I106
sS'del'
p2716
I103
sS'den'
p2717
I106
sS'pero'
p2718
I105
sS'facelift'
p2719
I106
sS'deb'
p2720
I106
sS'dec'
p2721
I106
sS'lighter'
p2722
I106
sS'def'
p2723
I106
sS'vu'
p2724
I106
sS'beautiful'
p2725
I93
sS'evil'
p2726
I106
sS'shark'
p2727
I106
sS'scam'
p2728
I106
sS'(with'
p2729
I106
sS'brown'
p2730
I105
sS'rodriguez'
p2731
I106
sS'snuck'
p2732
I106
sS'suggestions'
p2733
I105
sS'accept'
p2734
I104
sS'socal'
p2735
I106
sS'1/8"\xe2\x80\xa6'
p2736
I106
sS'\xe2\x98\x95\xef\xb8\x8f'
p2737
I100
sS'salty'
p2738
I106
sS"theatre's"
p2739
I106
sS'sense'
p2740
I106
sS'station'
p2741
I105
sS'dress'
p2742
I106
sS'ughhhh'
p2743
I105
sS'rental)'
p2744
I106
sS'huge'
p2745
I104
sS'bank)'
p2746
I104
sS'answer'
p2747
I106
sS'"boobs'
p2748
I106
sS'awkward'
p2749
I102
sS'breaking'
p2750
I104
sS't.y'
p2751
I106
sS'minhdobythewindow'
p2752
I106
sS'stayed'
p2753
I106
sS'spichs'
p2754
I106
sS'maps'
p2755
I106
sS'yipeee'
p2756
I106
sS'perry'
p2757
I106
sS'hugs'
p2758
I105
sS'browns'
p2759
I106
sS'choreo'
p2760
I106
sS'credible'
p2761
I106
sS'creature'
p2762
I106
sS'aasha'
p2763
I106
sS'hinks'
p2764
I106
sS'okay'
p2765
I98
sS'tried'
p2766
I103
sS'evento'
p2767
I106
sS'straightedge'
p2768
I106
sS'*gets'
p2769
I106
sS'b-rock'
p2770
I106
sS'soundtrack'
p2771
I106
sS'plane'
p2772
I105
sS'blood'
p2773
I105
sS'numb'
p2774
I106
sS'coming'
p2775
I94
sS'fi'
p2776
I106
sS'tacos'
p2777
I106
sS'bloom'
p2778
I106
sS"darlin'"
p2779
I106
sS'a'
p2780
I6
sS'favor'
p2781
I106
sS'short'
p2782
I105
sS'passion'
p2783
I106
sS'funday'
p2784
I104
sS'hypnotized'
p2785
I106
sS"that'd"
p2786
I106
sS'tweeting'
p2787
I106
sS'levantado'
p2788
I106
sS'seconds'
p2789
I106
sS'deals'
p2790
I106
sS'buns'
p2791
I105
sS'alcoholics'
p2792
I106
sS'f-ing'
p2793
I106
sS'mk'
p2794
I106
sS'crafts'
p2795
I106
sS'nuzzled'
p2796
I106
sS'rentals'
p2797
I106
sS'dream'
p2798
I102
sS'playing'
p2799
I94
sS"that's"
p2800
I76
sS'josiah'
p2801
I106
sS'mexican'
p2802
I103
sS'help'
p2803
I103
sS'reservoir'
p2804
I106
sS"don't"
p2805
I46
sS'guranteed'
p2806
I106
sS'brotha'
p2807
I106
sS'artwork'
p2808
I106
sS'sooo'
p2809
I105
sS'soon'
p2810
I97
sS'cross'
p2811
I106
sS'held'
p2812
I105
sS'attitude'
p2813
I106
sS'paper'
p2814
I106
sS'through'
p2815
I97
sS'shit\xe2\x80\x9d'
p2816
I106
sS'committed'
p2817
I106
sS'hell'
p2818
I92
sS'y3'
p2819
I105
sS'bizkit'
p2820
I106
sS'its'
p2821
I100
sS'brie'
p2822
I106
sS'features'
p2823
I106
sS'24'
p2824
I104
sS'messed'
p2825
I105
sS'fanning'
p2826
I106
sS'verse'
p2827
I106
sS'20'
p2828
I102
sS'22'
p2829
I106
sS'shifts'
p2830
I106
sS'ousted'
p2831
I106
sS'sale'
p2832
I106
sS'28'
p2833
I106
sS'shit\xe2\x80\xa6'
p2834
I106
sS'actually'
p2835
I98
sS'late'
p2836
I94
sS'>>>'
p2837
I106
sS'nhl'
p2838
I106
sS'bout'
p2839
I102
sS'cutie'
p2840
I105
sS'might'
p2841
I103
sS"haven't"
p2842
I97
sS'(10901'
p2843
I104
sS'hurting'
p2844
I106
sS'evening'
p2845
I104
sS'return'
p2846
I106
sS'sucking'
p2847
I106
sS'yo'
p2848
I99
sS'ya'
p2849
I82
sS'uhm'
p2850
I106
sS'\xe2\x98\x94\xef\xb8\x8f'
p2851
I103
sS'woulda'
p2852
I105
sS'speechless'
p2853
I106
sS'walls'
p2854
I105
sS'vomit'
p2855
I106
sS"you've"
p2856
I100
sS'foot'
p2857
I105
sS'attending'
p2858
I106
sS'fan-fucking-tactic'
p2859
I106
sS'bigger'
p2860
I105
sS'sing>>>>>>'
p2861
I106
sS'diary'
p2862
I106
sS'laterdang'
p2863
I106
sS'twd'
p2864
I106
sS'huh?"'
p2865
I106
sS'sundays'
p2866
I105
sS'always'
p2867
I68
sS'yng'
p2868
I106
sS'drake'
p2869
I106
sS'jaime'
p2870
I106
sS'marino'
p2871
I106
sS'ashes'
p2872
I106
sS'someone'
p2873
I88
sS'1am'
p2874
I106
sS'found'
p2875
I104
sS'friendship'
p2876
I103
sS'yodas'
p2877
I106
sS"isn't"
p2878
I97
sS'dulles'
p2879
I106
sS'heavy'
p2880
I106
sS'everyone'
p2881
I92
sS'"similar'
p2882
I106
sS'another'
p2883
I89
sS'pork'
p2884
I106
sS'generation'
p2885
I106
sS'house'
p2886
I99
sS'energy'
p2887
I103
sS'hard'
p2888
I99
sS'idea'
p2889
I101
sS'him'
p2890
I95
sS'accidentally'
p2891
I103
sS'comforter'
p2892
I105
sS'wires'
p2893
I106
sS'\xd8\xb6\xd9\x8a\xd9\x82'
p2894
I106
sS'...today'
p2895
I106
sS'django'
p2896
I106
sS'infinity'
p2897
I106
sS'blues'
p2898
I106
sS'thing'
p2899
I93
sS'todo'
p2900
I105
sS'event'
p2901
I105
sS'really'
p2902
I80
sS'orio'
p2903
I106
sS'travels'
p2904
I106
sS'flower'
p2905
I105
sS'missed'
p2906
I105
sS'ftw'
p2907
I106
sS'<<<'
p2908
I106
sS'19'
p2909
I106
sS'4pm'
p2910
I106
sS'since'
p2911
I94
sS'tigran'
p2912
I106
sS'aaaaaaalll'
p2913
I106
sS'acting'
p2914
I102
sS'reeeeaaall'
p2915
I106
sS'safety'
p2916
I106
sS'hill'
p2917
I106
sS'7'
p2918
I105
sS'gseh'
p2919
I106
sS'flame'
p2920
I106
sS'darling'
p2921
I106
sS'rowling'
p2922
I106
sS'highway'
p2923
I106
sS'ass'
p2924
I94
sS'pum'
p2925
I105
sS'bald'
p2926
I106
sS'wisconsin'
p2927
I106
sS'reco'
p2928
I106
sS'pathetic'
p2929
I106
sS'lawrence'
p2930
I99
sS'sweethearts'
p2931
I106
sS'timeline'
p2932
I106
sS'friday'
p2933
I101
sS'story'
p2934
I103
sS'drives'
p2935
I106
sS'mmm'
p2936
I105
sS'touted'
p2937
I106
sS'reason'
p2938
I102
sS'killin'
p2939
I106
sS'cookie'
p2940
I106
sS'disneyland'
p2941
I105
sS'imagine'
p2942
I105
sS'put'
p2943
I95
sS'mmg'
p2944
I106
sS'entonces'
p2945
I106
sS'beginning'
p2946
I106
sS'sidewalk'
p2947
I106
sS'bulls'
p2948
I106
sS'annotated'
p2949
I106
sS'thrown'
p2950
I106
sS'director'
p2951
I106
sS'owners'
p2952
I106
sS'"diva"'
p2953
I106
sS'girly'
p2954
I105
sS'deer'
p2955
I106
sS'woven'
p2956
I106
sS'papparazzi'
p2957
I106
sS'american'
p2958
I104
sS'harris'
p2959
I106
sS'expecting'
p2960
I106
sS'w'
p2961
I99
sS'bumper'
p2962
I105
sS'castle'
p2963
I106
sS'dis'
p2964
I106
sS'fuck....is'
p2965
I106
sS'flood'
p2966
I106
sS'major'
p2967
I105
sS'bonito'
p2968
I106
sS'superbowl'
p2969
I106
sS'dont'
p2970
I103
sS'upper'
p2971
I106
sS'feel'
p2972
I87
sS'diller'
p2973
I106
sS'number'
p2974
I103
sS'fancy'
p2975
I106
sS'traveled'
p2976
I106
sS"belly's"
p2977
I106
sS'horn-rimmed'
p2978
I106
sS'done'
p2979
I94
sS'blank'
p2980
I106
sS'kobe'
p2981
I106
sS'miss'
p2982
I86
sS'sunburn'
p2983
I106
sS'maple'
p2984
I106
sS'fumar'
p2985
I106
sS'passes'
p2986
I106
sS'guess'
p2987
I100
sS'more!shutdown'
p2988
I106
sS'jet'
p2989
I106
sS'script'
p2990
I106
sS'benedict'
p2991
I106
sS'coasts'
p2992
I106
sS'(4360'
p2993
I102
sS'comfy'
p2994
I104
sS'tradition'
p2995
I106
sS'paint'
p2996
I105
sS'burn'
p2997
I106
sS'wonderful'
p2998
I104
sS'name/email'
p2999
I106
sS'passed'
p3000
I104
sS'preachers'
p3001
I106
sS'mama'
p3002
I106
sS'japonesa'
p3003
I106
sS'banana'
p3004
I102
sS'store'
p3005
I103
sS'headache'
p3006
I101
sS'stoop'
p3007
I106
sS'guesssss'
p3008
I106
sS'storm'
p3009
I105
sS'para'
p3010
I103
sS'behind'
p3011
I104
sS'exploded'
p3012
I106
sS'hotel'
p3013
I105
sS'park'
p3014
I98
sS'square'
p3015
I106
sS'tivo'
p3016
I106
sS'dentist'
p3017
I106
sS'part'
p3018
I101
sS'telephone'
p3019
I106
sS'$6'
p3020
I106
sS'9:45'
p3021
I106
sS'albums'
p3022
I106
sS'believe'
p3023
I93
sS'swingers'
p3024
I106
sS'persian'
p3025
I106
sS'king'
p3026
I104
sS'kind'
p3027
I98
sS'b'
p3028
I102
sS'rappin'
p3029
I106
sS'krull'
p3030
I106
sS'double'
p3031
I101
sS'tyree'
p3032
I106
sS'saber'
p3033
I106
sS'recording'
p3034
I105
sS'determined'
p3035
I105
sS'stalk'
p3036
I106
sS'supposed'
p3037
I106
sS'dani'
p3038
I106
sS'dang'
p3039
I106
sS'nailed'
p3040
I106
sS'_______'
p3041
I106
sS'toward'
p3042
I106
sS'"fun-sized"'
p3043
I106
sS'sheeran'
p3044
I106
sS'normal'
p3045
I106
sS'swerve'
p3046
I106
sS'ranch'
p3047
I106
sS'belated'
p3048
I106
sS'kart'
p3049
I106
sS'5-10'
p3050
I106
sS'syncing'
p3051
I106
sS'seth'
p3052
I106
sS'ages'
p3053
I106
sS'rocked....pool'
p3054
I106
sS'andas'
p3055
I106
sS'juice'
p3056
I106
sS'graffiti'
p3057
I106
sS'aloneeeee'
p3058
I106
sS'rugs'
p3059
I106
sS'previews'
p3060
I106
sS'pi\xc3\x91a'
p3061
I106
sS'lid'
p3062
I106
sS'thought'
p3063
I98
sS'bruhhhhhh'
p3064
I106
sS'nights'
p3065
I103
sS'fermented'
p3066
I106
sS'dancing'
p3067
I105
sS'lil'
p3068
I105
sS'self'
p3069
I105
sS'flaming'
p3070
I106
sS'couch'
p3071
I100
sS'lit'
p3072
I105
sS'also'
p3073
I101
sS'today...and'
p3074
I106
sS'los\xe2\x80\xa6'
p3075
I104
sS'sandwiches'
p3076
I106
sS'pouring'
p3077
I106
sS"phillps?!?'"
p3078
I106
sS'puffing'
p3079
I106
sS'inglish'
p3080
I106
sS'pressings'
p3081
I106
sS'waitin'
p3082
I106
sS'lanta'
p3083
I106
sS'play'
p3084
I96
sS'jamie'
p3085
I106
sS'electric'
p3086
I106
sS'warnings'
p3087
I105
sS'janae'
p3088
I106
sS'serviced'
p3089
I106
sS'most'
p3090
I93
sS'75'
p3091
I106
sS'charm'
p3092
I106
sS'plan'
p3093
I105
sS'sandra'
p3094
I105
sS'nothing'
p3095
I97
sS'seasons'
p3096
I106
sS'extremely'
p3097
I102
sS'revolutionary'
p3098
I106
sS'kiddies'
p3099
I106
sS'wats'
p3100
I106
sS'reward'
p3101
I106
sS'kg'
p3102
I106
sS'eatingg'
p3103
I106
sS'bug'
p3104
I106
sS'windows'
p3105
I106
sS'sbtb'
p3106
I106
sS'clear'
p3107
I106
sS'sometimes'
p3108
I98
sS'wore'
p3109
I106
sS'bills'
p3110
I106
sS'odds'
p3111
I106
sS'amazed'
p3112
I106
sS'clean'
p3113
I105
sS'\xe2\x98\x80\xef\xb8\x8f'
p3114
I99
sS'latest'
p3115
I106
sS'paul'
p3116
I106
sS'ugh'
p3117
I103
sS'rebels'
p3118
I106
sS'gold'
p3119
I106
sS'sleepovers'
p3120
I106
sS'blended'
p3121
I106
sS'book-to-movie'
p3122
I106
sS'carpets'
p3123
I106
sS'stumped'
p3124
I106
sS'burrata'
p3125
I106
sS'weho'
p3126
I106
sS'well...better'
p3127
I106
sS'fijate'
p3128
I106
sS'fine'
p3129
I98
sS'find'
p3130
I92
sS'bananas'
p3131
I106
sS'degeneres'
p3132
I106
sS'wraps'
p3133
I106
sS'bff'
p3134
I105
sS'zumba'
p3135
I106
sS'series'
p3136
I106
sS'nervous'
p3137
I104
sS'ruin'
p3138
I105
sS'camel'
p3139
I106
sS'bestfriends'
p3140
I106
sS'grace'
p3141
I106
sS'estare'
p3142
I106
sS'appletini'
p3143
I106
sS'wight:\xe2\x80\xa2run'
p3144
I106
sS'central'
p3145
I106
sS'pretty'
p3146
I98
sS'hangover/migraine'
p3147
I106
sS'8'
p3148
I101
sS'circle'
p3149
I106
sS'insurance'
p3150
I106
sS'(studio'
p3151
I27
sS'vocalist'
p3152
I106
sS'england'
p3153
I106
sS'porque'
p3154
I104
sS'his'
p3155
I85
sS'hit'
p3156
I98
sS'brecky'
p3157
I106
sS'express'
p3158
I106
sS'grocery'
p3159
I105
sS'famous'
p3160
I106
sS'feels'
p3161
I102
sS'courage'
p3162
I105
sS'actions'
p3163
I106
sS'theft'
p3164
I106
sS'x-factor'
p3165
I106
sS'chateau'
p3166
I106
sS'stunt'
p3167
I106
sS'workouts'
p3168
I104
sS'emails'
p3169
I105
sS'alexander'
p3170
I106
sS"mockingbirds'"
p3171
I106
sS'ghijkl."'
p3172
I106
sS'crack\xe2\x80\x9d'
p3173
I106
sS'cry'
p3174
I104
sS'______________________________model'
p3175
I106
sS'low-fat'
p3176
I106
sS'common'
p3177
I106
sS'gotten'
p3178
I103
sS'x'
p3179
I102
sS'river'
p3180
I106
sS'wallet'
p3181
I106
sS'insane'
p3182
I103
sS'bars'
p3183
I104
sS'set'
p3184
I100
sS'ser'
p3185
I106
sS'dump'
p3186
I106
sS'creepiest'
p3187
I106
sS'bias'
p3188
I106
sS'marathons'
p3189
I106
sS'proactiv'
p3190
I105
sS'sex'
p3191
I100
sS'see'
p3192
I52
sS'dumb'
p3193
I105
sS'are'
p3194
I35
sS'sea'
p3195
I103
sS'tender'
p3196
I106
sS'close'
p3197
I101
sS'bark'
p3198
I105
sS'angie'
p3199
I106
sS'chilln'
p3200
I106
sS'retweet'
p3201
I105
sS'declined'
p3202
I106
sS'vocalists'
p3203
I106
sS'jejejeje'
p3204
I106
sS'mario'
p3205
I106
sS'lauren'
p3206
I106
sS'vitamins'
p3207
I106
sS'pokemon'
p3208
I106
sS'pictures'
p3209
I103
sS'wow'
p3210
I98
sS'currently'
p3211
I104
sS'please'
p3212
I93
sS'vas'
p3213
I106
sS'elderberry'
p3214
I106
sS"kid's"
p3215
I106
sS'hollyweird'
p3216
I106
sS'fans'
p3217
I105
sS'won'
p3218
I103
sS'11am'
p3219
I106
sS'managers'
p3220
I106
sS'probably'
p3221
I96
sS'champagne'
p3222
I104
sS'nope'
p3223
I106
sS'compliment'
p3224
I106
sS'available'
p3225
I106
sS'solo'
p3226
I104
sS'paisley'
p3227
I106
sS'muslim'
p3228
I106
sS'statistically'
p3229
I106
sS'missing'
p3230
I104
sS"heart's"
p3231
I106
sS'sold'
p3232
I106
sS'attention'
p3233
I106
sS'sola'
p3234
I106
sS'aircraft'
p3235
I106
sS'french'
p3236
I106
sS'pami'
p3237
I106
sS'dipped'
p3238
I106
sS'pissed'
p3239
I105
sS'both'
p3240
I100
sS'c'
p3241
I102
sS'union"'
p3242
I106
sS'last'
p3243
I68
sS'reverse'
p3244
I106
sS'license'
p3245
I106
sS'restaurant'
p3246
I77
sS'brunches'
p3247
I106
sS'thot'
p3248
I106
sS"wouldn't"
p3249
I101
sS'muffinlife'
p3250
I106
sS'onion'
p3251
I105
sS'pace'
p3252
I106
sS'roman'
p3253
I104
sS'annie'
p3254
I106
sS'quiere'
p3255
I106
sS'$peak'
p3256
I106
sS'focused'
p3257
I106
sS'hcb'
p3258
I106
sS'whole'
p3259
I98
sS'"vacation"'
p3260
I106
sS'cierto'
p3261
I105
sS"oj's"
p3262
I106
sS'liked'
p3263
I106
sS'bassssic'
p3264
I106
sS'borromeo'
p3265
I101
sS'hackers'
p3266
I106
sS'point'
p3267
I104
sS'simple'
p3268
I105
sS'sweet'
p3269
I97
sS'broncearme'
p3270
I106
sS'recycling'
p3271
I106
sS'ahhhhhahahaha'
p3272
I106
sS'whatever'
p3273
I101
sS'hollow'
p3274
I105
sS'post\xe2\x80\xa6'
p3275
I106
sS"hadn't"
p3276
I106
sS'dancer'
p3277
I106
sS'simply'
p3278
I104
sS'adaptation'
p3279
I106
sS'steele'
p3280
I106
sS'church'
p3281
I101
sS'rave'
p3282
I106
sS'co.)'
p3283
I76
sS'volunteered'
p3284
I106
sS'crispy'
p3285
I104
sS'expensive'
p3286
I105
sS'duh'
p3287
I106
sS'fro-yo'
p3288
I106
sS'devil'
p3289
I106
sS'naps'
p3290
I106
sS'floor.\xe2\x80\xa6'
p3291
I106
sS'pt'
p3292
I105
sS'woooooo-sah'
p3293
I106
sS'foreveryoungla'
p3294
I105
sS'due'
p3295
I105
sS'hitting'
p3296
I103
sS'respecting'
p3297
I106
sS'secret'
p3298
I106
sS'pa'
p3299
I106
sS'damn'
p3300
I101
sS'forward\xe2\x80\xa6'
p3301
I106
sS'donde'
p3302
I106
sS'pile'
p3303
I106
sS'brick'
p3304
I106
sS'pi'
p3305
I106
sS'meeting'
p3306
I103
sS'woke'
p3307
I103
sS'pm'
p3308
I106
sS'settling'
p3309
I106
sS'dialogue'
p3310
I106
sS'hikes'
p3311
I106
sS'flight'
p3312
I102
sS'gay'
p3313
I104
sS'sending'
p3314
I106
sS'fire'
p3315
I101
sS"what's"
p3316
I100
sS'mundo'
p3317
I106
sS'gas'
p3318
I104
sS'convert'
p3319
I106
sS'else'
p3320
I99
sS'cones'
p3321
I106
sS'lautner'
p3322
I106
sS'gal'
p3323
I106
sS'lives'
p3324
I104
sS'oitnb'
p3325
I105
sS'gah'
p3326
I106
sS'prices'
p3327
I105
sS'(95'
p3328
I106
sS'rocking'
p3329
I106
sS'desayunar'
p3330
I106
sS'honest'
p3331
I106
sS'bets'
p3332
I106
sS'randomly'
p3333
I106
sS'w/the'
p3334
I106
sS'pesto'
p3335
I106
sS'rogan'
p3336
I106
sS'look'
p3337
I95
sS'frozen'
p3338
I103
sS'stoled'
p3339
I106
sS'straight'
p3340
I102
sS'governor'
p3341
I106
sS're-watch'
p3342
I106
sS'nicoise'
p3343
I106
sS'healthy'
p3344
I105
sS'while'
p3345
I94
sS'baaaaaack'
p3346
I106
sS'replaced'
p3347
I106
sS'match'
p3348
I106
sS'mimosas'
p3349
I106
sS'fun'
p3350
I80
sS'sjp'
p3351
I106
sS'animated'
p3352
I106
sS'hooters'
p3353
I106
sS'cages'
p3354
I106
sS'theres'
p3355
I105
sS'secluded'
p3356
I106
sS'aromas'
p3357
I106
sS'<3'
p3358
I105
sS'century'
p3359
I101
sS'cents'
p3360
I105
sS'<<'
p3361
I104
sS'belmont'
p3362
I106
sS'point***+'
p3363
I106
sS'rip'
p3364
I106
sS'sonoma'
p3365
I106
sS'rio'
p3366
I102
sS'expressions'
p3367
I106
sS'obstacle'
p3368
I106
sS'elementary)'
p3369
I106
sS"cleanin'"
p3370
I106
sS'beautifully'
p3371
I106
sS'ready'
p3372
I97
sS'2013"'
p3373
I106
sS'voy'
p3374
I104
sS'chase'
p3375
I104
sS'funny'
p3376
I100
sS'theatre)'
p3377
I106
sS'mirror'
p3378
I106
sS'shirt'
p3379
I105
sS'anymore'
p3380
I99
sS'originality'
p3381
I106
sS'belong'
p3382
I106
sS'ahiiii'
p3383
I106
sS'cervantes'
p3384
I106
sS'rules'
p3385
I104
sS'"mise'
p3386
I106
sS'erscht'
p3387
I106
sS'stopppppp'
p3388
I106
sS'grand'
p3389
I106
sS'9'
p3390
I99
sS'strangers'
p3391
I106
sS"bangin'"
p3392
I106
sS'ac'
p3393
I106
sS'\xe2\x98\x80\xef\xb8\x8f\xe2\x98\x80\xef\xb8\x8f\xe2\x98\x80\xef\xb8\x8f\xe2\x98\x80\xef\xb8\x8f\xe2\x98\x80\xef\xb8\x8f'
p3394
I106
sS'used'
p3395
I99
sS'temporary'
p3396
I106
sS'itch'
p3397
I106
sS'mountain'
p3398
I106
sS"open...you're"
p3399
I106
sS'armpit'
p3400
I106
sS'yesterday'
p3401
I99
sS'hahahhahahaa'
p3402
I106
sS'sandman'
p3403
I106
sS'moment'
p3404
I102
sS'strength'
p3405
I106
sS'cucumber'
p3406
I106
sS'cleaning'
p3407
I105
sS'attractive'
p3408
I106
sS'infused'
p3409
I106
sS'courtesy'
p3410
I106
sS'carr_men1'
p3411
I106
sS'nickname'
p3412
I106
sS'wheres'
p3413
I106
sS'super\xe2\x80\xa6'
p3414
I106
sS'adentro'
p3415
I106
sS'early'
p3416
I93
sS'gnomes'
p3417
I106
sS'entre'
p3418
I106
sS'loaner'
p3419
I106
sS'older'
p3420
I104
sS"dad's"
p3421
I106
sS'depending'
p3422
I106
sS'nola'
p3423
I106
sS'spent'
p3424
I104
sS'honor'
p3425
I106
sS'person'
p3426
I98
sS'cheer'
p3427
I105
sS'edge'
p3428
I106
sS'flags'
p3429
I106
sS'cannes'
p3430
I106
sS"punkin'"
p3431
I105
sS'y'
p3432
I100
sS'tryin'
p3433
I106
sS'ju'
p3434
I106
sS'chemistry'
p3435
I106
sS'spend'
p3436
I106
sS'yankees'
p3437
I106
sS'pollen'
p3438
I106
sS'tim'
p3439
I106
sS'cave'
p3440
I106
sS'mom'
p3441
I91
sS'/zero'
p3442
I106
sS'skreers'
p3443
I106
sS'billboard'
p3444
I105
sS'vinland'
p3445
I106
sS'tad'
p3446
I106
sS"tonighti'm"
p3447
I106
sS'aroma'
p3448
I14
sS'soooooooooooo'
p3449
I106
sS'jodes'
p3450
I106
sS'roasted'
p3451
I104
sS'retired'
p3452
I106
sS'moorpark'
p3453
I100
sS'forrest'
p3454
I105
sS'prince'
p3455
I106
sS'bethany'
p3456
I106
sS'c\xc3\xa1mara'
p3457
I106
sS'juuuust'
p3458
I106
sS'tables'
p3459
I104
sS'cut'
p3460
I103
sS'cus'
p3461
I106
sS'cup'
p3462
I101
sS'muchly'
p3463
I106
sS'deets'
p3464
I105
sS'workers'
p3465
I106
sS'8pm'
p3466
I106
sS'education'
p3467
I106
sS'cuz'
p3468
I97
sS'signals'
p3469
I106
sS'havin'
p3470
I106
sS'parents'
p3471
I104
sS'location'
p3472
I106
sS'soooooo'
p3473
I105
sS'homies'
p3474
I106
sS'snap'
p3475
I105
sS'lip'
p3476
I106
sS'yooooouuuuu'
p3477
I106
sS'kumquat'
p3478
I106
sS'easter'
p3479
I105
sS'excited'
p3480
I87
sS'hates'
p3481
I105
sS'hater'
p3482
I106
sS'foreeeeaaaaall'
p3483
I106
sS'blvd.)'
p3484
I106
sS'trickin'
p3485
I106
sS'vendor'
p3486
I106
sS'funning'
p3487
I106
sS'quickly\xe2\x80\xa6'
p3488
I106
sS'queso'
p3489
I106
sS'big'
p3490
I91
sS'showing'
p3491
I106
sS'8:30pm'
p3492
I106
sS'braddock'
p3493
I106
sS'lovin'
p3494
I105
sS'at\xe2\x80\xa6'
p3495
I105
sS'shitty'
p3496
I106
sS'game'
p3497
I93
sS'biz'
p3498
I106
sS'abound'
p3499
I105
sS'bit'
p3500
I104
sS'bloody'
p3501
I105
sS'musik'
p3502
I106
sS'\xd0\xa0\xd1\x8b\xd0\xb1\xd0\xba\xd0\xb0'
p3503
I106
sS'flannel'
p3504
I106
sS'knock'
p3505
I105
sS'bootywork'
p3506
I106
sS'success'
p3507
I102
sS'ef\xcc\xb1charisto\xc3\xbame'
p3508
I106
sS'realgood\xe2\x80\x9dwit'
p3509
I106
sS'according'
p3510
I106
sS'vidaaaaa'
p3511
I106
sS'callar'
p3512
I106
sS'productive'
p3513
I106
sS'collect'
p3514
I105
sS'vans'
p3515
I106
sS'eek'
p3516
I106
sS'saget'
p3517
I106
sS'popular'
p3518
I106
sS'bittys'
p3519
I106
sS'super-fab'
p3520
I106
sS'ijs'
p3521
I106
sS'balsamic'
p3522
I106
sS'often'
p3523
I104
sS'playaaaaa'
p3524
I106
sS'tym'
p3525
I106
sS'fucking'
p3526
I91
sS'b-'
p3527
I106
sS'cambiaron'
p3528
I106
sS'report\xe2\x80\xa6'
p3529
I105
sS'some'
p3530
I62
sS'back'
p3531
I55
sS'global'
p3532
I106
sS'b5'
p3533
I106
sS'b6'
p3534
I106
sS'3:30'
p3535
I106
sS'mmmmm'
p3536
I105
sS'"we'
p3537
I106
sS'b2'
p3538
I106
sS'greener'
p3539
I106
sS'trendy'
p3540
I106
sS'curious'
p3541
I106
sS'classes'
p3542
I105
sS'sheesh'
p3543
I106
sS'envidia'
p3544
I106
sS'scarf'
p3545
I106
sS'vol'
p3546
I106
sS'reruns'
p3547
I106
sS'describing'
p3548
I106
sS'anny'
p3549
I106
sS'contacts'
p3550
I106
sS'pet'
p3551
I105
sS'absolutely'
p3552
I101
sS'pros'
p3553
I106
sS'gimme'
p3554
I106
sS'per'
p3555
I106
sS'wiz'
p3556
I106
sS'meds'
p3557
I105
sS"dreamin'"
p3558
I106
sS'behave'
p3559
I106
sS'kitsuen'
p3560
I106
sS'ojos'
p3561
I106
sS'epic'
p3562
I106
sS'anna'
p3563
I106
sS't'
p3564
I104
sS'jumpy'
p3565
I106
sS'be'
p3566
I29
sS':-d'
p3567
I106
sS'eating'
p3568
I103
sS'bb'
p3569
I106
sS'$88'
p3570
I106
sS'rub'
p3571
I105
sS'lose'
p3572
I101
sS'bj'
p3573
I106
sS'zombie'
p3574
I106
sS'lover'
p3575
I106
sS'public"'
p3576
I106
sS'santa'
p3577
I106
sS'chick'
p3578
I104
sS'crap'
p3579
I105
sS'intense'
p3580
I104
sS'vaccine'
p3581
I105
sS'faith'
p3582
I105
sS'bgb'
p3583
I105
sS'inspiring'
p3584
I106
sS'deserved'
p3585
I105
sS'76'
p3586
I103
sS'andan'
p3587
I106
sS'\xd9\x81\xd8\xb1\xd8\xac\xd9\x8b\xd8\xa7'
p3588
I106
sS'iced'
p3589
I104
sS"mcdonald's"
p3590
I96
sS'virus'
p3591
I106
sS'oatmeal'
p3592
I106
sS'caioti'
p3593
I105
sS'lankershim'
p3594
I104
sS'financial'
p3595
I106
sS'beans'
p3596
I105
sS'idk'
p3597
I106
sS'goodi'
p3598
I106
sS'forearms'
p3599
I106
sS'wanna'
p3600
I96
sS'idc'
p3601
I105
sS'72'
p3602
I106
sS'ppl'
p3603
I103
sS'seeing'
p3604
I102
sS'jimmy'
p3605
I106
sS'colorado'
p3606
I105
sS'isshhy'
p3607
I106
sS'marissa'
p3608
I106
sS'visit'
p3609
I103
sS'into'
p3610
I97
sS'within'
p3611
I106
sS'nonsense'
p3612
I106
sS'servers'
p3613
I106
sS'exercises'
p3614
I106
sS'momma'
p3615
I105
sS'because'
p3616
I88
sS'\xe2\x99\xa5\xef\xb8\x8f'
p3617
I106
sS'oaks'
p3618
I106
sS'awesome?!)'
p3619
I106
sS'antioxidant'
p3620
I106
sS'sports'
p3621
I106
sS'lebron'
p3622
I99
sS'rolls'
p3623
I106
sS'smells'
p3624
I106
sS'aventada'
p3625
I106
sS'\xe2\x9c\x88\xef\xb8\x8f\xe2\x9c\x88\xef\xb8\x8f'
p3626
I106
sS'spam'
p3627
I106
sS'spending'
p3628
I104
sS'ew'
p3629
I106
sS'...i'
p3630
I106
sS'question'
p3631
I104
sS'ca)'
p3632
I24
sS'long'
p3633
I91
sS'marrying'
p3634
I106
sS'clocks'
p3635
I106
sS'consultation'
p3636
I106
sS"we're"
p3637
I100
sS'homemade'
p3638
I105
sS'bruh'
p3639
I105
sS'forward'
p3640
I102
sS'bored'
p3641
I105
sS'scared'
p3642
I105
sS'bitties'
p3643
I105
sS'alison'
p3644
I106
sS'invite'
p3645
I105
sS'poster'
p3646
I106
sS'raisins'
p3647
I106
sS'eshot'
p3648
I106
sS'boys'
p3649
I100
sS'yesssss'
p3650
I106
sS'larry'
p3651
I106
sS'link'
p3652
I105
sS'repeatedly'
p3653
I106
sS'familia'
p3654
I106
sS'bracelets'
p3655
I106
sS'line'
p3656
I103
sS'serio'
p3657
I106
sS'creek\xe2\x80\xa6'
p3658
I106
sS'raising'
p3659
I106
sS'posted'
p3660
I82
sS'tomorrow"'
p3661
I106
sS'infront'
p3662
I106
sS'spa)'
p3663
I106
sS'originals'
p3664
I106
sS'fries'
p3665
I106
sS'up'
p3666
I38
sS'us'
p3667
I93
sS'ur'
p3668
I101
sS'planet'
p3669
I104
sS'man..lol'
p3670
I106
sS'un'
p3671
I106
sS'uh'
p3672
I106
sS'faded'
p3673
I105
sS'highlight'
p3674
I106
sS'azalea'
p3675
I106
sS'fried'
p3676
I105
sS'suucksssss'
p3677
I106
sS'called'
p3678
I101
sS'shes'
p3679
I106
sS'uber'
p3680
I103
sS'loners'
p3681
I106
sS'constant'
p3682
I106
sS'adults'
p3683
I106
sS'introducing'
p3684
I106
sS'alumni'
p3685
I106
sS'chai'
p3686
I106
sS'unsafe'
p3687
I106
sS'pas'
p3688
I106
sS'starbucks'
p3689
I106
sS'pale....get'
p3690
I106
sS'merry'
p3691
I106
sS'single'
p3692
I103
sS'cure'
p3693
I106
sS'curb'
p3694
I106
sS'mojo466'
p3695
I106
sS'recent'
p3696
I106
sS'rally'
p3697
I106
sS'cafe'
p3698
I96
sS'10/28'
p3699
I106
sS'hail'
p3700
I106
sS'bitching'
p3701
I106
sS'echo'
p3702
I106
sS'$4.27/gallon'
p3703
I106
sS'rainy'
p3704
I106
sS'naa'
p3705
I106
sS'lemon'
p3706
I105
sS'brunching'
p3707
I106
sS'nah'
p3708
I104
sS'peace'
p3709
I105
sS'neber'
p3710
I106
sS'cuenta'
p3711
I106
sS'thinks'
p3712
I106
sS'nealasmuseum'
p3713
I106
sS'nick'
p3714
I103
sS'nap'
p3715
I103
sS'doy'
p3716
I106
sS'actors'
p3717
I103
sS'ellen'
p3718
I106
sS'altar'
p3719
I106
sS'rocnation'
p3720
I106
sS'place.such'
p3721
I106
sS'b/c'
p3722
I106
sS'ooooooo'
p3723
I106
sS'raine'
p3724
I106
sS'nice'
p3725
I94
sS'pills'
p3726
I106
sS'papi'
p3727
I106
sS'woodbridge'
p3728
I102
sS'glamping'
p3729
I106
sS'cuppycake'
p3730
I106
sS'problems'
p3731
I103
sS'home."'
p3732
I106
sS'helping'
p3733
I104
sS"m&m's"
p3734
I106
sS'slave'
p3735
I106
sS'\xd0\x92\xd0\xbe'
p3736
I106
sS'shin-strain'
p3737
I106
sS'clue'
p3738
I106
sS'schnoze'
p3739
I106
sS'ago'
p3740
I100
sS'haaay'
p3741
I106
sS'remix'
p3742
I105
sS'land'
p3743
I104
sS'e'
p3744
I104
sS'lana'
p3745
I106
sS'\xe2\x9a\xa1\xef\xb8\x8f\xe2\x9a\xa1\xef\xb8\x8f'
p3746
I106
sS'dvd'
p3747
I106
sS'age'
p3748
I106
sS'holes'
p3749
I105
sS'walked'
p3750
I106
sS'cooked'
p3751
I105
sS'menchies'
p3752
I104
sS'karma'
p3753
I105
sS'colonial'
p3754
I106
sS'far'
p3755
I100
sS'fresh'
p3756
I104
sS'berries'
p3757
I106
sS'imma'
p3758
I106
sS'hello'
p3759
I104
sS'once'
p3760
I102
sS'mardi'
p3761
I105
sS'code'
p3762
I105
sS'jason'
p3763
I105
sS'squats'
p3764
I103
sS'hint'
p3765
I106
sS'laziness'
p3766
I106
sS'resistance'
p3767
I106
sS'tested'
p3768
I106
sS'slick'
p3769
I106
sS'steve'
p3770
I106
sS'desserts'
p3771
I105
sS'bangin'
p3772
I106
sS'proposition'
p3773
I106
sS'gang'
p3774
I106
sS'during'
p3775
I106
sS'go'
p3776
I57
sS'levantarme'
p3777
I106
sS'tweeted'
p3778
I106
sS'\xd0\xb2\xd1\x81\xd1\x82\xd0\xb0\xd0\xb5\xd0\xbc'
p3779
I106
sS'kate'
p3780
I105
sS'issues'
p3781
I105
sS'cody'
p3782
I106
sS'moi...look'
p3783
I106
sS'acordabaaaaa'
p3784
I106
sS'turkish'
p3785
I106
sS'peanut'
p3786
I104
sS'young'
p3787
I105
sS'send'
p3788
I102
sS'cuppa'
p3789
I106
sS'culinary'
p3790
I106
sS"netflixin'"
p3791
I106
sS'woohoo'
p3792
I106
sS'amigas'
p3793
I106
sS'mudcats'
p3794
I106
sS'breach'
p3795
I106
sS'dislike'
p3796
I106
sS'sent'
p3797
I105
sS'elei'
p3798
I106
sS'end...thanks'
p3799
I106
sS'foreman'
p3800
I106
sS'trompo'
p3801
I106
sS'philips'
p3802
I106
sS'outside'
p3803
I104
sS'dessert'
p3804
I105
sS'kitty'
p3805
I106
sS'outdoorsy'
p3806
I106
sS'chyessss'
p3807
I106
sS'screwed'
p3808
I105
sS'chilli'
p3809
I106
sS'tommrow'
p3810
I106
sS'telling'
p3811
I106
sS'douche'
p3812
I106
sS'drinking'
p3813
I105
sS'minerals'
p3814
I106
sS'eeek'
p3815
I106
sS'mmhmm'
p3816
I106
sS'timely'
p3817
I106
sS'ganas'
p3818
I105
sS'magic'
p3819
I105
sS'alec'
p3820
I106
sS'crocheting'
p3821
I106
sS'grey'
p3822
I106
sS'experiencing'
p3823
I106
sS'button'
p3824
I106
sS'gettin'
p3825
I106
sS'michael'
p3826
I103
sS'stfu'
p3827
I106
sS'ryan'
p3828
I106
sS"patty's"
p3829
I106
sS'try'
p3830
I100
sS'\xe2\x98\x80on'
p3831
I106
sS'hat\xe2\x80\xa6'
p3832
I106
sS'min'
p3833
I106
sS'avoiding'
p3834
I106
sS'somecod'
p3835
I106
sS'leonardo'
p3836
I106
sS'thiago'
p3837
I106
sS'joey'
p3838
I106
sS'slow'
p3839
I106
sS'clients'
p3840
I106
sS'booty'
p3841
I105
sS'edina'
p3842
I105
sS'autobots'
p3843
I106
sS'folds'
p3844
I106
sS'carly'
p3845
I106
sS'\xe2\x9d\xa4'
p3846
I106
sS'est\xc3\xa1'
p3847
I104
sS'waking'
p3848
I104
sS'hodor'
p3849
I106
sS'video'
p3850
I97
sS'traveling'
p3851
I105
sS'picked'
p3852
I106
sS'download'
p3853
I103
sS'happythat'
p3854
I106
sS'odd'
p3855
I106
sS'click'
p3856
I106
sS'mcdonalds'
p3857
I106
sS'wahoo'
p3858
I101
sS'power'
p3859
I105
sS'drakes..\xe2\x80\x9d'
p3860
I106
sS'chicago'
p3861
I105
sS'giving'
p3862
I104
sS'tuesdays'
p3863
I106
sS'espresso'
p3864
I101
sS'chillin'
p3865
I106
sS'that"'
p3866
I106
sS'kinsey'
p3867
I106
sS'richmond'
p3868
I105
sS'paying'
p3869
I105
sS'waiting'
p3870
I105
sS'girlie'
p3871
I106
sS'worships'
p3872
I106
sS'comprehend'
p3873
I106
sS'drags'
p3874
I106
sS'bird'
p3875
I106
sS'steel'
p3876
I106
sS'body'
p3877
I103
sS'\xd9\x88'
p3878
I106
sS'monedas'
p3879
I106
sS'me...a'
p3880
I106
sS'cozy'
p3881
I105
sS'degree'
p3882
I105
sS'geezus.so'
p3883
I106
sS'commercial'
p3884
I106
sS'youre'
p3885
I106
sS'growing'
p3886
I106
sS'packing'
p3887
I105
sS'let'
p3888
I92
sS'puede'
p3889
I105
sS'jeans'
p3890
I106
sS'others'
p3891
I61
sS'sing'
p3892
I105
sS'invented'
p3893
I106
sS'extra\xc3\xb1o'
p3894
I106
sS'sayin'
p3895
I106
sS'ukraine'
p3896
I106
sS'presale'
p3897
I106
sS'great'
p3898
I75
sS'cera'
p3899
I106
sS'33'
p3900
I106
sS'involved'
p3901
I104
sS'30'
p3902
I105
sS'shades'
p3903
I106
sS'titanic'
p3904
I106
sS'leaving'
p3905
I103
sS'paranoid'
p3906
I106
sS'eatin'
p3907
I106
sS'cae'
p3908
I106
sS'raspberries'
p3909
I106
sS'derby'
p3910
I106
sS'opinion'
p3911
I106
sS'proof'
p3912
I106
sS'makes'
p3913
I93
sS'hooomiiiesssss\xe2\x9d\xa4\xef\xb8\x8f'
p3914
I106
sS'now!\xe2\x80\xa6'
p3915
I106
sS'apple'
p3916
I105
sS'clark'
p3917
I106
sS'spy'
p3918
I106
sS'win'
p3919
I101
sS'limp'
p3920
I106
sS'siri'
p3921
I105
sS'ensign'
p3922
I103
sS'dingo'
p3923
I106
sS'(looks'
p3924
I106
sS'evacuations'
p3925
I106
sS'snapped'
p3926
I106
sS'wit'
p3927
I105
sS':)))'
p3928
I105
sS'scandal'
p3929
I104
sS'resolutions'
p3930
I105
sS'singing'
p3931
I106
sS'egg'
p3932
I106
sS'manipulate'
p3933
I106
sS'lime'
p3934
I105
sS'standing'
p3935
I103
sS'use'
p3936
I106
sS'andreas'
p3937
I106
sS'from'
p3938
I50
sS'figure'
p3939
I106
sS'usa'
p3940
I106
sS'&'
p3941
I36
sS'chocolates'
p3942
I106
sS'delicacies'
p3943
I106
sS'frog'
p3944
I105
sS'next'
p3945
I84
sS'eeeek'
p3946
I106
sS'few'
p3947
I101
sS'camera'
p3948
I104
sS'hot97'
p3949
I106
sS'crab'
p3950
I106
sS'muah'
p3951
I106
sS'd'
p3952
I106
sS'tinseltown'
p3953
I106
sS'themselves'
p3954
I106
sS'jesses'
p3955
I106
sS'"pet'
p3956
I106
sS'touched'
p3957
I105
sS'possession'
p3958
I106
sS"'the"
p3959
I106
sS'1/3'
p3960
I106
sS'1/2'
p3961
I105
sS'comparison'
p3962
I106
sS'started'
p3963
I101
sS'"low"'
p3964
I106
sS'sister'
p3965
I105
sS'confused'
p3966
I106
sS'review!thx'
p3967
I106
sS'california)'
p3968
I106
sS'soooooooo'
p3969
I105
sS'train'
p3970
I105
sS'myself\xe2\x80\xa6'
p3971
I106
sS'baby'
p3972
I95
sS'actual'
p3973
I105
sS'tearing'
p3974
I106
sS'broth'
p3975
I105
sS'women'
p3976
I102
sS'annoy'
p3977
I106
sS'majority'
p3978
I106
sS'account'
p3979
I106
sS'salad'
p3980
I104
sS'f'
p3981
I105
sS'this'
p3982
I22
sS'ride'
p3983
I104
sS'6am'
p3984
I104
sS'jajay'
p3985
I106
sS'donut'
p3986
I106
sS'shoulda'
p3987
I106
sS'anywhere'
p3988
I104
sS'comic-con'
p3989
I106
sS'thin'
p3990
I106
sS'praise'
p3991
I106
sS'universe'
p3992
I106
sS'meet'
p3993
I98
sS'bend'
p3994
I105
sS'control'
p3995
I105
sS'bittersweet'
p3996
I105
sS'owie'
p3997
I106
sS'links'
p3998
I106
sS'monica'
p3999
I106
sS'process'
p4000
I106
sS'wed'
p4001
I106
sS'vallarta'
p4002
I106
sS'halloween'
p4003
I104
sS'tay'
p4004
I106
sS'jajajajajja'
p4005
I106
sS'pieces'
p4006
I105
sS'high'
p4007
I101
sS'villain'
p4008
I106
sS'tag'
p4009
I105
sS'hilton'
p4010
I105
sS'something'
p4011
I97
sS'tab'
p4012
I106
sS'blvd'
p4013
I101
sS'boner'
p4014
I106
sS'tan'
p4015
I102
sS't.i'
p4016
I106
sS'bahahahaha'
p4017
I106
sS'peace..no'
p4018
I106
sS'asians'
p4019
I106
sS'sis'
p4020
I106
sS'sir'
p4021
I105
sS'nationwide'
p4022
I106
sS'beyonc\xc3\xa9'
p4023
I106
sS'sit'
p4024
I103
sS'vibe'
p4025
I106
sS'"carcajadas"'
p4026
I106
sS'holds'
p4027
I105
sS'tacos/beer'
p4028
I106
sS'niiiiiiiiice'
p4029
I106
sS'brian'
p4030
I106
sS'cd'
p4031
I106
sS'$3.79/gallon'
p4032
I106
sS'forest'
p4033
I106
sS'instead'
p4034
I106
sS'comedy'
p4035
I105
sS'panic'
p4036
I106
sS'pomona'
p4037
I106
sS'stock'
p4038
I106
sS'profile'
p4039
I106
sS"ducky's"
p4040
I106
sS'cobwebs'
p4041
I106
sS'cheeee'
p4042
I106
sS'wold'
p4043
I106
sS'shiiit'
p4044
I106
sS'hooooya'
p4045
I106
sS'kickstarter'
p4046
I106
sS'watch'
p4047
I85
sS'elle'
p4048
I106
sS'fart'
p4049
I106
sS'avisame'
p4050
I106
sS'taco'
p4051
I105
sS'hahahaha'
p4052
I103
sS'1886'
p4053
I106
sS'da'
p4054
I104
sS'compraste'
p4055
I106
sS'shit"'
p4056
I106
sS'tomato'
p4057
I106
sS'roses'
p4058
I106
sS'realized'
p4059
I105
sS'\xe2\x9c\x92\xef\xb8\x8f....soon'
p4060
I106
sS'yeager'
p4061
I106
sS"maxin'"
p4062
I106
sS'light'
p4063
I102
sS'noises'
p4064
I106
sS'lines'
p4065
I106
sS'remedy'
p4066
I106
sS'manganese'
p4067
I106
sS'lala-land'
p4068
I106
sS'deaded'
p4069
I106
sS'honestly'
p4070
I104
sS'mcrib'
p4071
I104
sS'rega\xc3\xb1en'
p4072
I106
sS'classy'
p4073
I105
sS'haunted'
p4074
I106
sS'stakes'
p4075
I106
sS'longest'
p4076
I106
sS'weiners'
p4077
I106
sS'gloomy'
p4078
I106
sS'six'
p4079
I106
sS'wissh'
p4080
I106
sS'fresno'
p4081
I106
sS'tackle'
p4082
I106
sS'move'
p4083
I103
sS'perturbed'
p4084
I106
sS'spektors'
p4085
I106
sS'\xe2\x9a\xa1\xef\xb8\x8f'
p4086
I105
sS'maaaan'
p4087
I106
sS"won't"
p4088
I99
sS'looks'
p4089
I101
sS'valla'
p4090
I106
sS'mentioned'
p4091
I105
sS'2:('
p4092
I106
sS'horny'
p4093
I106
sS'bunch'
p4094
I106
sS'perfect'
p4095
I96
sS'helicopters'
p4096
I104
sS'cornholio'
p4097
I106
sS'le'
p4098
I105
sS'creeped'
p4099
I106
sS'la'
p4100
I60
sS'paths'
p4101
I106
sS'lo'
p4102
I102
sS'fue'
p4103
I106
sS'nadama'
p4104
I106
sS'[pic]'
p4105
I84
sS'ladescargala\xe2\x80\xa6'
p4106
I106
sS'degrees'
p4107
I104
sS'asking'
p4108
I106
sS'pussy'
p4109
I106
sS'orange'
p4110
I101
sS'linings'
p4111
I105
sS'holiday'
p4112
I102
sS'educates'
p4113
I106
sS'<'
p4114
I106
sS'2013'
p4115
I105
sS'murdock'
p4116
I106
sS'dad'
p4117
I98
sS'day\xe2\x80\xa6'
p4118
I106
sS'satellitei'
p4119
I106
sS'relay'
p4120
I106
sS'pearl'
p4121
I106
sS'blackberries'
p4122
I106
sS'citrus'
p4123
I105
sS'auto'
p4124
I106
sS'nada'
p4125
I106
sS'spell'
p4126
I103
sS'bat'
p4127
I106
sS'oranges'
p4128
I106
sS'felties'
p4129
I106
sS'dat'
p4130
I104
sS'cutting'
p4131
I106
sS'bio'
p4132
I106
sS'hands'
p4133
I101
sS'front'
p4134
I103
sS'combo'
p4135
I106
sS"heat's"
p4136
I106
sS'genuine'
p4137
I106
sS'seaweed'
p4138
I106
sS'day'
p4139
I33
sS'(toluca'
p4140
I106
sS'february'
p4141
I106
sS'fantasizing'
p4142
I106
sS'autistic'
p4143
I106
sS'earring'
p4144
I106
sS'radiant'
p4145
I106
sS'existir'
p4146
I106
sS'bueler'
p4147
I105
sS'high-light'
p4148
I106
sS'truth'
p4149
I104
sS'references'
p4150
I106
sS'pint'
p4151
I106
sS'|'
p4152
I106
sS'experienced'
p4153
I106
sS'glasses'
p4154
I106
sS'studios'
p4155
I106
sS'as\xe2\x80\xa6'
p4156
I106
sS'doing'
p4157
I95
sS'taverna)'
p4158
I106
sS'adventure'
p4159
I106
sS'parties'
p4160
I106
sS'staying'
p4161
I105
sS'society'
p4162
I106
sS'-jon'
p4163
I106
sS'designer'
p4164
I106
sS"d'antoni"
p4165
I106
sS'sectional'
p4166
I106
sS'hoes'
p4167
I106
sS'our'
p4168
I92
sS'80'
p4169
I106
sS'disco'
p4170
I106
sS'cada'
p4171
I106
sS'special'
p4172
I101
sS'out'
p4173
I38
sS'respects'
p4174
I106
sS'matt'
p4175
I106
sS'inspiration'
p4176
I106
sS'entertainment'
p4177
I105
sS'vanessa'
p4178
I106
sS'as\xc3\xad'
p4179
I106
sS'critics'
p4180
I105
sS'nocciolo'
p4181
I106
sS'bunches'
p4182
I106
sS'maya'
p4183
I106
sS'hilarious'
p4184
I99
sS'season-1'
p4185
I106
sS'smog'
p4186
I105
sS'subtext'
p4187
I106
sS'cause'
p4188
I101
sS'rich""just'
p4189
I106
sS'red'
p4190
I96
sS'1weather'
p4191
I106
sS'afford'
p4192
I105
sS'batting'
p4193
I106
sS'shut'
p4194
I105
sS'jessica'
p4195
I105
sS"doin'"
p4196
I106
sS'southern'
p4197
I106
sS'ipod'
p4198
I104
sS'actor/fashion'
p4199
I106
sS'galaxies'
p4200
I104
sS'greedy'
p4201
I106
sS'voice\xe2\x80\x9d'
p4202
I106
sS'embassy'
p4203
I106
sS'release'
p4204
I104
sS"drinkin'"
p4205
I106
sS'que'
p4206
I81
sS'york'
p4207
I105
sS'craving'
p4208
I102
sS'log'
p4209
I106
sS'scary'
p4210
I104
sS'hunny'
p4211
I106
sS'organic'
p4212
I106
sS'prepare'
p4213
I106
sS'g'
p4214
I105
sS'spill'
p4215
I106
sS'snapchats'
p4216
I104
sS'could'
p4217
I78
sS'ask'
p4218
I104
sS"'s"
p4219
I106
sS'times'
p4220
I101
sS'conversation'
p4221
I105
sS'starin'
p4222
I106
sS'pudding'
p4223
I106
sS'wrote'
p4224
I106
sS'agrada'
p4225
I105
sS'8-0'
p4226
I106
sS'\xe2\x86\x91\xe2\x86\x91\xe2\x86\x91\xe2\x86\x91sickest'
p4227
I106
sS'south'
p4228
I106
sS'guyz'
p4229
I106
sS'comfiest'
p4230
I106
sS'sew'
p4231
I106
sS"reppin'"
p4232
I106
sS'1939'
p4233
I106
sS'apps'
p4234
I106
sS'sleepy...and'
p4235
I106
sS'scene'
p4236
I106
sS'wayyy'
p4237
I106
sS'jesus'
p4238
I105
sS'whoop'
p4239
I106
sS'aftershock'
p4240
I106
sS'city)'
p4241
I99
sS'hab\xc3\xada'
p4242
I106
sS'bitch'
p4243
I103
sS'mah'
p4244
I106
sS'gatherings'
p4245
I106
sS'\xd9\x85\xd8\xae\xd8\xb1\xd8\xac\xd9\x8b\xd8\xa7'
p4246
I106
sS'hehe'
p4247
I105
sS'"red'
p4248
I106
sS"doesn't"
p4249
I101
sS'accurate'
p4250
I106
sS'cuesta'
p4251
I106
sS'bonus'
p4252
I106
sS'morals"'
p4253
I106
sS'los'
p4254
I87
sS'festival'
p4255
I106
sS'dove'
p4256
I106
sS'durable'
p4257
I106
sS'myspace'
p4258
I106
sS'redthey'
p4259
I106
sS'shanny'
p4260
I106
sS'mudslides'
p4261
I106
sS'mal'
p4262
I106
sS'their'
p4263
I93
sS'vagina'
p4264
I106
sS'wahoooooo'
p4265
I106
sS'lic'
p4266
I106
sS'voldemort'
p4267
I106
sS'jingle'
p4268
I106
sS'compartida'
p4269
I106
sS'perfectly'
p4270
I106
sS'final'
p4271
I105
sS'"who'
p4272
I106
sS'misunderstood'
p4273
I106
sS'malibu'
p4274
I102
sS'stomach'
p4275
I104
sS'ohhhhhhh'
p4276
I106
sS'shorts'
p4277
I105
sS'mojitos'
p4278
I106
sS'bottles'
p4279
I106
sS'societies'
p4280
I106
sS'exactly'
p4281
I101
sS'shorty'
p4282
I106
sS'comer'
p4283
I106
sS'mt'
p4284
I106
sS'ttfffff'
p4285
I106
sS'chemicals'
p4286
I106
sS'surfing'
p4287
I106
sS'maze'
p4288
I105
sS'steeeze'
p4289
I106
sS"that'll"
p4290
I106
sS'neck'
p4291
I105
sS'ipad'
p4292
I106
sS'loved'
p4293
I102
sS'bodyguard'
p4294
I106
sS'swimming'
p4295
I106
sS'ben'
p4296
I106
sS'mugres'
p4297
I106
sS"weren't"
p4298
I106
sS'2015'
p4299
I106
sS'pointers'
p4300
I106
sS'breeeead'
p4301
I106
sS'infectious'
p4302
I106
sS'bed'
p4303
I94
sS'bee'
p4304
I106
sS'roberts'
p4305
I106
sS'nemesis'
p4306
I106
sS'info'
p4307
I106
sS'felicidaaaaaaaaaad'
p4308
I106
sS'candles'
p4309
I106
sS'regresando'
p4310
I106
sS'm\xc3\xad'
p4311
I106
sS'allergic'
p4312
I106
sS'bet'
p4313
I104
sS'hesch'
p4314
I106
sS'straps'
p4315
I106
sS'faster'
p4316
I106
sS'violets'
p4317
I106
sS'screenwriter'
p4318
I106
sS'\xe2\x9c\x92\xef\xb8\x8f'
p4319
I106
sS'tonight'
p4320
I62
sS'mornings'
p4321
I106
sS'imdb'
p4322
I106
sS'are..."'
p4323
I106
sS'have'
p4324
I41
sS'disturbing'
p4325
I106
sS'need'
p4326
I72
sS'apparently'
p4327
I103
sS'clearly'
p4328
I106
sS'complete'
p4329
I106
sS'prezzie'
p4330
I106
sS'jajajjaja'
p4331
I106
sS'shank'
p4332
I106
sS'congrats'
p4333
I100
sS'studying'
p4334
I105
sS'zzzzzzz'
p4335
I106
sS'able'
p4336
I105
sS'switch'
p4337
I106
sS'hangover'
p4338
I102
sS'which'
p4339
I101
sS'rom\xc3\xa1ntica'
p4340
I106
sS'mis'
p4341
I104
sS'='
p4342
I103
sS';-)'
p4343
I104
sS'lastnightfree'
p4344
I106
sS'ahi'
p4345
I106
sS'vallase'
p4346
I106
sS'meek'
p4347
I106
sS'"shut'
p4348
I106
sS'aww'
p4349
I106
sS'\xd8\xa7\xd8\xac\xd8\xb9\xd9\x84'
p4350
I106
sS'chickens'
p4351
I106
sS'who'
p4352
I80
sS'jorge'
p4353
I106
sS'pensando'
p4354
I106
sS"where's"
p4355
I106
sS'proxima'
p4356
I106
sS'duele'
p4357
I106
sS'fit:)'
p4358
I106
sS'eight'
p4359
I106
sS'forreal'
p4360
I106
sS'cracking'
p4361
I106
sS'awe'
p4362
I106
sS'future'
p4363
I106
sS'coffees'
p4364
I106
sS'class'
p4365
I93
sS'socializing'
p4366
I106
sS'freeeeeeee'
p4367
I106
sS'tamales'
p4368
I106
sS'stranded'
p4369
I106
sS'upset'
p4370
I106
sS'thanksgiving'
p4371
I104
sS'peeve'
p4372
I106
sS'face'
p4373
I102
sS'looked'
p4374
I104
sS"you'll"
p4375
I104
sS'self-medicating'
p4376
I106
sS'park)'
p4377
I106
sS'se'
p4378
I100
sS'movie'
p4379
I90
sS'ourselves...\xe2\x80\xa6'
p4380
I106
sS'skinny'
p4381
I106
sS'highest'
p4382
I106
sS'painting'
p4383
I104
sS'website.\xe2\x80\x9d'
p4384
I106
sS'fact'
p4385
I102
sS'ughhh'
p4386
I106
sS'son'
p4387
I106
sS'lease'
p4388
I106
sS'backyard'
p4389
I106
sS'=p'
p4390
I106
sS'flakemeister3k'
p4391
I106
sS"pnd's"
p4392
I106
sS'text'
p4393
I106
sS'agreed'
p4394
I106
sS'charles'
p4395
I101
sS'anyway'
p4396
I105
sS'must.....stop.....eating'
p4397
I106
sS'bring'
p4398
I102
sS'planning'
p4399
I105
sS'playbook'
p4400
I105
sS'rouge'
p4401
I106
sS'(185'
p4402
I106
sS'fear'
p4403
I106
sS'longer'
p4404
I106
sS'halloweenie'
p4405
I106
sS'mice'
p4406
I106
sS'shoes'
p4407
I106
sS'cartwheels'
p4408
I106
sS"anderson's"
p4409
I106
sS'squeeze'
p4410
I104
sS'tire'
p4411
I105
sS'jay'
p4412
I105
sS'giants'
p4413
I106
sS'('
p4414
I103
sS'winner'
p4415
I104
sS'bien'
p4416
I106
sS'should'
p4417
I84
sS'jan'
p4418
I105
sS'hector'
p4419
I106
sS'jam'
p4420
I106
sS'lemme'
p4421
I104
sS'sisisi'
p4422
I106
sS'subway)'
p4423
I104
sS'tune'
p4424
I106
sS'riding'
p4425
I104
sS'bourbon'
p4426
I106
sS'aprende'
p4427
I106
sS'hope'
p4428
I91
sS'meant'
p4429
I105
sS'any1'
p4430
I106
sS'lawrence/feelies'
p4431
I106
sS'handle'
p4432
I106
sS'sweetie'
p4433
I106
sS'listened'
p4434
I105
sS'means'
p4435
I97
sS'beat'
p4436
I104
sS'midnight'
p4437
I104
sS'dope'
p4438
I104
sS'props'
p4439
I105
sS'overall'
p4440
I105
sS'lucky'
p4441
I104
sS'bear'
p4442
I102
sS'fatburger'
p4443
I106
sS'tbh'
p4444
I106
sS'community'
p4445
I105
sS'ones'
p4446
I102
sS'words'
p4447
I106
sS'werent'
p4448
I106
sS":'')"
p4449
I106
sS'sisis'
p4450
I106
sS'chips'
p4451
I104
sS'routine'
p4452
I106
sS'ghetto'
p4453
I106
sS'to.\xe2\x80\x9d'
p4454
I106
sS'the\xe2\x80\xa6'
p4455
I105
sS'ended'
p4456
I106
sS'"research"'
p4457
I106
sS'married'
p4458
I105
sS'state'
p4459
I106
sS'calling'
p4460
I103
sS'sleepover")'
p4461
I106
sS'stuff'
p4462
I101
sS'liberty'
p4463
I106
sS'she'
p4464
I79
sS'dangerous'
p4465
I106
sS'tunes'
p4466
I106
sS'ohio'
p4467
I105
sS'hollywood)'
p4468
I104
sS'\xd9\x84\xd9\x8a'
p4469
I106
sS'preach'
p4470
I106
sS'btw'
p4471
I106
sS'official'
p4472
I106
sS'btr'
p4473
I106
sS'prayers'
p4474
I106
sS'shake'
p4475
I106
sS'orphan'
p4476
I106
sS'lazy'
p4477
I105
sS'joooke'
p4478
I106
sS'computer'
p4479
I106
sS'hut)'
p4480
I106
sS'tujunga\xe2\x80\xa6'
p4481
I106
sS'packed'
p4482
I106
sS'crying'
p4483
I106
sS'luckiest'
p4484
I106
sS'cole'
p4485
I106
sS'"sleep'
p4486
I106
sS'jurassic'
p4487
I106
sS'has'
p4488
I79
sS'pattern'
p4489
I106
sS'nightmare'
p4490
I106
sS'meatballs'
p4491
I104
sS'thumb'
p4492
I106
sS'goober'
p4493
I106
sS'wonder-con'
p4494
I106
sS'genius'
p4495
I106
sS'written'
p4496
I105
sS'benedicting'
p4497
I106
sS'"abcdef'
p4498
I106
sS'horrible'
p4499
I106
sS'spare'
p4500
I106
sS'flicks'
p4501
I106
sS'place...they'
p4502
I106
sS'noche'
p4503
I106
sS'email'
p4504
I105
sS'curtains'
p4505
I106
sS'pants'
p4506
I104
sS'mejores'
p4507
I105
sS';)!!!when'
p4508
I106
sS'(ca)'
p4509
I106
sS'merri'
p4510
I106
sS'amen'
p4511
I105
sS'mattress'
p4512
I106
sS'a.m'
p4513
I105
sS'pimples'
p4514
I106
sS'deliver'
p4515
I106
sS"e!'s"
p4516
I106
sS'kicking'
p4517
I102
sS'job'
p4518
I103
sS'shittiest'
p4519
I106
sS'joe'
p4520
I106
sS'key'
p4521
I106
sS'yawning'
p4522
I106
sS'precious'
p4523
I106
sS'legit'
p4524
I106
sS'staring'
p4525
I105
sS'praying'
p4526
I105
sS'mexican"'
p4527
I106
sS'goal'
p4528
I106
sS'taking'
p4529
I96
sS'fwm'
p4530
I106
sS'wt'
p4531
I106
sS'atleast'
p4532
I105
sS'passing'
p4533
I105
sS'highland'
p4534
I106
sS'jersey'
p4535
I106
sS'crystals'
p4536
I106
sS'time."'
p4537
I106
sS'dancin'
p4538
I106
sS'co'
p4539
I17
sS'cm'
p4540
I106
sS'toilet'
p4541
I106
sS'wall'
p4542
I106
sS'tuesday'
p4543
I104
sS'lyricist'
p4544
I106
sS'makin'
p4545
I106
sS'riffles'
p4546
I106
sS'walk'
p4547
I101
sS'denise'
p4548
I106
sS'taylor'
p4549
I106
sS'proud!\xe2\x80\x9dlove'
p4550
I106
sS'laugh'
p4551
I106
sS'news'
p4552
I104
sS'respect'
p4553
I104
sS'zinc'
p4554
I106
sS'winning'
p4555
I106
sS'flexin'
p4556
I106
sS'lies'
p4557
I106
sS'tiene'
p4558
I103
sS'poem'
p4559
I106
sS'practicando'
p4560
I106
sS'yay'
p4561
I85
sS'pin'
p4562
I106
sS'iba'
p4563
I106
sS'faltan'
p4564
I106
sS"it's"
p4565
I32
sS'hunters'
p4566
I106
sS'noms...then'
p4567
I106
sS'bumblebee'
p4568
I105
sS'cent'
p4569
I106
sS'nutella'
p4570
I106
sS'drank'
p4571
I105
sS'treat'
p4572
I105
sS'bby'
p4573
I106
sS'certain'
p4574
I105
sS'ship'
p4575
I106
sS'waste'
p4576
I106
sS'proxy'
p4577
I106
sS'>'
p4578
I106
sS'username'
p4579
I106
sS'coq'
p4580
I106
sS'mike'
p4581
I102
sS'describe'
p4582
I106
sS'stationed'
p4583
I106
sS'league'
p4584
I106
sS'f**k'
p4585
I104
sS'op'
p4586
I106
sS'volando'
p4587
I106
sS'topless'
p4588
I106
sS'hmm'
p4589
I106
sS'finished'
p4590
I105
sS'ensuring'
p4591
I106
sS'hope\xe2\x80\xa6'
p4592
I106
sS'kyrie'
p4593
I105
sS'abortions'
p4594
I106
sS'2014'
p4595
I105
sS'gross'
p4596
I106
sS'brunch'
p4597
I96
sS'general'
p4598
I105
sS'present'
p4599
I104
sS'volunteer'
p4600
I106
sS'homer'
p4601
I106
sS'bye'
p4602
I106
sS'welcoming'
p4603
I106
sS'pizzzzzzza'
p4604
I106
sS'stawberries'
p4605
I106
sS'runway'
p4606
I105
sS'fotos'
p4607
I106
sS'harder'
p4608
I106
sS'tengo'
p4609
I106
sS'choices'
p4610
I105
sS'will'
p4611
I63
sS'cashing'
p4612
I106
sS'stunning'
p4613
I105
sS'eeeevvery'
p4614
I106
sS'fault'
p4615
I104
sS'girasol'
p4616
I79
sS'tasty'
p4617
I106
sS'conoco'
p4618
I104
sS'kurtcobain'
p4619
I106
sS'tings'
p4620
I106
sS'me.\xe2\x80\x9d'
p4621
I106
sS'~'
p4622
I106
sS'va'
p4623
I101
sS'sleepiest'
p4624
I106
sS'induced'
p4625
I106
sS'flex'
p4626
I106
sS'almost'
p4627
I102
sS'insanely'
p4628
I106
sS'rapidito:('
p4629
I106
sS'wkd'
p4630
I106
sS'helped'
p4631
I105
sS"disneyland's"
p4632
I106
sS'conditioning'
p4633
I106
sS'vs'
p4634
I106
sS'sherlock'
p4635
I106
sS'dag-nabit'
p4636
I106
sS'lifetime'
p4637
I106
sS'claimed'
p4638
I106
sS'ave'
p4639
I97
sS'avg'
p4640
I106
sS'tattoo'
p4641
I106
sS'az'
p4642
I106
sS'fkn'
p4643
I106
sS'players'
p4644
I105
sS'fryman'
p4645
I106
sS'twerkin'
p4646
I106
sS'amo'
p4647
I106
sS'upside'
p4648
I106
sS'wicked'
p4649
I105
sS'knicks'
p4650
I106
sS'strange'
p4651
I106
sS'speaker'
p4652
I106
sS'jaw'
p4653
I106
sS'eclectic'
p4654
I106
sS'party'
p4655
I84
sS'android'
p4656
I106
sS'gets'
p4657
I98
sS'tiempo'
p4658
I106
sS'ball'
p4659
I102
sS'columbia'
p4660
I104
sS'mach'
p4661
I106
sS'abyss'
p4662
I106
sS'promo'
p4663
I103
sS'premiere'
p4664
I104
sS'drink'
p4665
I102
sS'upon'
p4666
I105
sS'collab'
p4667
I106
sS'"jamie'
p4668
I106
sS'publi'
p4669
I106
sS'beast'
p4670
I106
sS'braaaaasssiiilia'
p4671
I106
sS'fucken'
p4672
I106
sS'burbank-.-'
p4673
I106
sS'bigceej'
p4674
I106
sS'novela'
p4675
I106
sS'spitting'
p4676
I106
sS'uni'
p4677
I106
sS'fucked'
p4678
I103
sS'\xd1\x81\xd0\xba\xd0\xbe\xd0\xbb\xd1\x8c\xd0\xba\xd0\xbe'
p4679
I106
sS'charles\xe2\x80\xa6'
p4680
I106
sS'flat'
p4681
I106
sS'l.a'
p4682
I103
sS'fiat'
p4683
I106
sS'sunrise'
p4684
I106
sS'pull'
p4685
I105
sS'//'
p4686
I106
sS'than\xe2\x80\xa6'
p4687
I106
sS'correspondent'
p4688
I106
sS'off'
p4689
I71
sS'center'
p4690
I106
sS'records'
p4691
I105
sS'i'
p4692
I3
sS'\xe2\x9c\x82'
p4693
I106
sS'incredible'
p4694
I106
sS'well'
p4695
I91
sS'fighting'
p4696
I105
sS'welp'
p4697
I103
sS'amazing.when'
p4698
I106
sS'theses'
p4699
I106
sS'oops'
p4700
I106
sS'vinaigrette'
p4701
I106
sS'muscle'
p4702
I105
sS'conservative'
p4703
I106
sS'caramelized'
p4704
I106
sS'please!!!!hey'
p4705
I106
sS'pense'
p4706
I106
sS'internship"'
p4707
I106
sS'carrie'
p4708
I106
sS'legendary'
p4709
I106
sS'rigor'
p4710
I106
sS'less'
p4711
I101
sS'hybrid'
p4712
I106
sS"should've"
p4713
I106
sS'jamming'
p4714
I106
sS'jeje'
p4715
I106
sS'pajaritos'
p4716
I106
sS'beginnings'
p4717
I106
sS'being\xe2\x80\xa6'
p4718
I106
sS'books'
p4719
I106
sS'rooms'
p4720
I106
sS'laurel'
p4721
I106
sS'skill'
p4722
I106
sS'graduate'
p4723
I106
sS'lettuce'
p4724
I106
sS'happiness'
p4725
I106
sS'beachh'
p4726
I106
sS'brilliantly'
p4727
I106
sS'\xc3\x9cber'
p4728
I106
sS'cigarette'
p4729
I106
sS'quiero'
p4730
I99
sS'likes'
p4731
I106
sS'chavo'
p4732
I106
sS"tippin'"
p4733
I106
sS'3.20'
p4734
I106
sS'thanks\xe2\x80\xa6'
p4735
I106
sS'podcast'
p4736
I106
sS'drunk'
p4737
I104
sS'sky'
p4738
I104
sS'ammendment'
p4739
I106
sS'realize'
p4740
I102
sS'googling'
p4741
I106
sS'wer'
p4742
I106
sS'add'
p4743
I105
sS'other'
p4744
I95
sS'halo'
p4745
I106
sS'crack'
p4746
I106
sS'vids'
p4747
I106
sS'ohhh'
p4748
I106
sS'riverside'
p4749
I104
sS'earthquakes'
p4750
I104
sS'kick'
p4751
I104
sS'centurywestbmw'
p4752
I105
sS'reirme'
p4753
I106
sS'livin'
p4754
I106
sS'checking'
p4755
I105
sS'coastin'
p4756
I106
sS"who's"
p4757
I103
sS'utah'
p4758
I105
sS'$9.99'
p4759
I106
sS'politely'
p4760
I106
sS'touch\xc3\xa9'
p4761
I105
sS'headlining'
p4762
I106
sS'5am'
p4763
I106
sS'know'
p4764
I56
sS'knot'
p4765
I105
sS'immediately'
p4766
I105
sS'blueflowers'
p4767
I106
sS'line-up'
p4768
I106
sS'vartan'
p4769
I106
sS'sissi'
p4770
I106
sS'x-mas'
p4771
I106
sS'emma'
p4772
I106
sS'like'
p4773
I34
sS'lost'
p4774
I104
sS'skips'
p4775
I106
sS'miami'
p4776
I104
sS'porfa'
p4777
I106
sS'ring'
p4778
I106
sS'ratatouille'
p4779
I106
sS'candy'
p4780
I103
sS'cosas'
p4781
I105
sS'vortex'
p4782
I106
sS'outdone'
p4783
I106
sS'purse'
p4784
I106
sS'fianc\xc3\xa9'
p4785
I106
sS't-mac'
p4786
I105
sS'become'
p4787
I103
sS'works'
p4788
I106
sS'sprain'
p4789
I106
sS'suddenly'
p4790
I106
sS'italian'
p4791
I106
sS'virginity'
p4792
I106
sS'nigga'
p4793
I91
sS'twitter'
p4794
I101
sS'village'
p4795
I106
sS'robinhearts'
p4796
I106
sS'replacement'
p4797
I106
sS'alive'
p4798
I105
sS'hair'
p4799
I99
sS'horario'
p4800
I106
sS'116'
p4801
I106
sS'"heroes"'
p4802
I105
sS'expected'
p4803
I105
sS'refreshed'
p4804
I106
sS'cleveland'
p4805
I106
sS'proper'
p4806
I106
sS'home'
p4807
I85
sS'died'
p4808
I106
sS'peter'
p4809
I106
sS'happens'
p4810
I105
sS'nokia'
p4811
I106
sS'learn'
p4812
I106
sS'lead'
p4813
I106
sS'esp'
p4814
I106
sS'"dope"'
p4815
I106
sS'literally'
p4816
I104
sS'avoid'
p4817
I106
sS'\xe2\x97\x8f\xe2\x96\xba'
p4818
I105
sS'2789'
p4819
I106
sS'grinding'
p4820
I106
sS'twerking'
p4821
I105
sS'e-mail'
p4822
I106
sS'ese'
p4823
I106
sS'does'
p4824
I96
sS'experiencias'
p4825
I106
sS'dags'
p4826
I106
sS'eso'
p4827
I103
sS'bosses'
p4828
I106
sS'bajaron'
p4829
I106
sS'trap'
p4830
I106
sS'clairmont'
p4831
I105
sS'noise'
p4832
I106
sS'puedo'
p4833
I105
sS'7mph.\xe2\x80\x9d'
p4834
I106
sS'schedule'
p4835
I106
sS'pues'
p4836
I106
sS'journal'
p4837
I106
sS'bowling'
p4838
I105
sS'slut'
p4839
I104
sS'pressure'
p4840
I106
sS'petty'
p4841
I106
sS'10901\xe2\x80\xa6'
p4842
I106
sS'mailboxes'
p4843
I106
sS'daquan'
p4844
I106
sS'\xd9\x85\xd9\x86'
p4845
I105
sS'encino'
p4846
I106
sS'about'
p4847
I52
sS':-)'
p4848
I102
sS'rare'
p4849
I104
sS':-/'
p4850
I105
sS'getting'
p4851
I86
sS'freedom'
p4852
I105
sS'biscuit'
p4853
I106
sS'basis'
p4854
I106
sS'ch\xc3\xa9rie'
p4855
I106
sS"i've\xe2\x80\xa6"
p4856
I106
sS'angeles'
p4857
I91
sS'decimate'
p4858
I106
sS'swear'
p4859
I100
sS'toppings'
p4860
I106
sS'sweat'
p4861
I105
sS'crusted'
p4862
I106
sS'daphne'
p4863
I106
sS'coulier'
p4864
I106
sS'noho'
p4865
I103
sS'roooock'
p4866
I106
sS'own'
p4867
I105
sS'30s'
p4868
I106
sS'keeps'
p4869
I106
sS'there...please'
p4870
I106
sS'pigging'
p4871
I106
sS'hologramic'
p4872
I106
sS'inspires'
p4873
I106
sS'socks'
p4874
I106
sS'mou'
p4875
I106
sS'immune'
p4876
I106
sS'luna'
p4877
I106
sS'weather'
p4878
I98
sS'promise'
p4879
I105
sS'finalizing'
p4880
I106
sS'artists'
p4881
I106
sS'roads'
p4882
I105
sS'nieces'
p4883
I106
sS'oww'
p4884
I105
sS'cyrus'
p4885
I106
sS'badass'
p4886
I106
sS'eh'
p4887
I106
sS'weepy'
p4888
I105
sS'wack'
p4889
I106
sS'networking'
p4890
I106
sS':)bend'
p4891
I106
sS'more."'
p4892
I106
sS'firefighter'
p4893
I106
sS'consistently.......being'
p4894
I106
sS'tourist'
p4895
I106
sS'awarded'
p4896
I106
sS'bump'
p4897
I106
sS'mung'
p4898
I106
sS'dropping'
p4899
I106
sS'lunchies'
p4900
I106
sS'place"'
p4901
I106
sS'biggest'
p4902
I106
sS'daniela'
p4903
I105
sS"itself'"
p4904
I106
sS'globe'
p4905
I106
sS'peppers'
p4906
I106
sS'\xe2\x9a\xa1\xef\xb8\x8f\xe2\x9a\xa1\xef\xb8\x8f\xe2\x9a\xa1\xef\xb8\x8f\xe2\x9a\xa1\xef\xb8\x8f\xe2\x9a\xa1\xef\xb8\x8f'
p4907
I104
sS'buy'
p4908
I106
sS'north'
p4909
I99
sS'stadium'
p4910
I106
sS'kandi'
p4911
I106
sS"i've"
p4912
I72
sS'baasaaaaack'
p4913
I106
sS'brand'
p4914
I106
sS'bitches'
p4915
I103
sS'\xe2\x86\x90\xe2\x86\x90\xe2\x86\x90\xe2\x86\x90'
p4916
I106
sS'mase'
p4917
I106
sS'but'
p4918
I34
sS'buu'
p4919
I106
sS'hording'
p4920
I106
sS'reminds'
p4921
I105
sS'neutral'
p4922
I106
sS'hi'
p4923
I103
sS'faveeee'
p4924
I106
sS'goals'
p4925
I106
sS'\xe2\x98\x80'
p4926
I106
sS'unbelievably'
p4927
I106
sS'ha'
p4928
I104
sS'memphis'
p4929
I106
sS'eat'
p4930
I92
sS'bud'
p4931
I106
sS'he'
p4932
I87
sS'made'
p4933
I90
sS"work!\xe2\x9c\x8c\xef\xb8\x8flet's"
p4934
I106
sS'flix'
p4935
I106
sS'places'
p4936
I103
sS'fassbender...enough'
p4937
I106
sS'wish'
p4938
I82
sS'vacacioneeeeeeeeees'
p4939
I106
sS'j'
p4940
I106
sS'flip'
p4941
I104
sS'signed'
p4942
I106
sS'(have'
p4943
I106
sS'excitement'
p4944
I105
sS'record'
p4945
I106
sS'below'
p4946
I106
sS'car)'
p4947
I102
sS'stories'
p4948
I106
sS'"one'
p4949
I106
sS'blessings'
p4950
I106
sS'cake'
p4951
I102
sS'problem'
p4952
I105
sS'piece'
p4953
I105
sS'minutes'
p4954
I103
sS'people-being-awesome'
p4955
I106
sS'weeknd'
p4956
I106
sS'whateva'
p4957
I106
sS'throwin'
p4958
I106
sS'jueveves'
p4959
I106
sS'iphone'
p4960
I106
sS'kelsey'
p4961
I106
sS'stoopid'
p4962
I106
sS'overload'
p4963
I106
sS'recognize'
p4964
I106
sS'universal'
p4965
I99
sS'pic'
p4966
I104
sS'pie'
p4967
I105
sS'nyfa'
p4968
I106
sS'beats'
p4969
I105
sS'conan'
p4970
I106
sS'goodness'
p4971
I104
sS'adorbs'
p4972
I106
sS'like"'
p4973
I106
sS'shooting'
p4974
I104
sS'230am'
p4975
I106
sS'happen'
p4976
I101
sS'amiguitos'
p4977
I106
sS'diego'
p4978
I106
sS'irrrrrrrrrr'
p4979
I106
sS'"nice'
p4980
I106
sS'improving'
p4981
I106
sS'caf\xc3\xa8'
p4982
I106
sS'contest'
p4983
I105
sS'californiadreams'
p4984
I106
sS'vidddddd'
p4985
I106
sS'shortsleeves'
p4986
I106
sS'\xd0\x9b\xd0\x95\xd0\xa2'
p4987
I106
sS'(north'
p4988
I92
sS'surreal'
p4989
I106
sS'book'
p4990
I98
sS'boom'
p4991
I104
sS'sick'
p4992
I98
sS'7/11'
p4993
I106
sS'u'
p4994
I78
sS'actor-dishwasher'
p4995
I106
sS'dresses'
p4996
I106
sS'giovannireda'
p4997
I106
sS'repeat'
p4998
I103
sS'star'
p4999
I106
sS'monday'
p5000
I102
sS'demopouli'
p5001
I106
sS'sooooo'
p5002
I106
sS'mask.should'
p5003
I106
sS'stay'
p5004
I97
sS'chance'
p5005
I104
sS'kinda'
p5006
I104
sS'ziploc'
p5007
I106
sS'cosita'
p5008
I106
sS'suck!yay'
p5009
I106
sS'afternoon...can'
p5010
I106
sS'friends'
p5011
I88
sS'goin'
p5012
I104
sS'ghost'
p5013
I106
sS'absurdity'
p5014
I106
sS'lupita'
p5015
I106
sS'\xe2\x80\x94'
p5016
I102
sS'using'
p5017
I106
sS'gelato'
p5018
I99
sS'blownnnn'
p5019
I106
sS'baker'
p5020
I106
sS'elmer'
p5021
I106
sS'dave'
p5022
I106
sS'rule'
p5023
I106
sS'forgetting'
p5024
I106
sS'instagraming'
p5025
I106
sS'4o'
p5026
I106
sS'uhhh'
p5027
I106
sS'write'
p5028
I105
sS'awake'
p5029
I104
sS'yell'
p5030
I106
sS'gardens'
p5031
I106
sS'ohhhh'
p5032
I106
s.