(dp0
S''
p1
I1
sS'all'
p2
I27
sS'coach'
p3
I33
sS'dist'
p4
I34
sS':)'
p5
I33
sS'whoever'
p6
I34
sS'dotg'
p7
I34
sS'foot'
p8
I34
sS'22&im'
p9
I34
sS'fig)'
p10
I34
sS'known'
p11
I34
sS'skate'
p12
I33
sS'sleep'
p13
I31
sS'taco)'
p14
I34
sS'go'
p15
I22
sS'playoffs'
p16
I34
sS'psycho'
p17
I34
sS'everyones'
p18
I34
sS'hate'
p19
I30
sS'forget'
p20
I34
sS'synthetic'
p21
I34
sS'asada'
p22
I34
sS'william'
p23
I34
sS'snowing'
p24
I34
sS'father'
p25
I34
sS'disgusting'
p26
I34
sS'karaoke'
p27
I34
sS'to'
p28
I4
sS'tl'
p29
I33
sS'asking'
p30
I34
sS'friday'
p31
I34
sS'hola'
p32
I34
sS'supplies'
p33
I34
sS'under'
p34
I33
sS'tf'
p35
I30
sS'smile'
p36
I34
sS'sorry'
p37
I33
sS'barley'
p38
I34
sS'fly'
p39
I34
sS'worse'
p40
I32
sS'booooo'
p41
I34
sS'sitting'
p42
I33
sS':d'
p43
I34
sS'7:45'
p44
I34
sS'pleasent'
p45
I34
sS':c'
p46
I34
sS'graphic'
p47
I34
sS'fan'
p48
I34
sS'jack'
p49
I28
sS'fall'
p50
I34
sS'labor'
p51
I34
sS'dolo'
p52
I34
sS'cool'
p53
I34
sS'carne'
p54
I34
sS'din'
p55
I33
sS'cable'
p56
I34
sS'level'
p57
I34
sS'did'
p58
I32
sS'whooping'
p59
I34
sS'michael'
p60
I34
sS'dia'
p61
I34
sS'turnt'
p62
I34
sS'try'
p63
I34
sS'meee'
p64
I34
sS'dillinger'
p65
I34
sS'team'
p66
I34
sS'w/me'
p67
I34
sS'havent'
p68
I34
sS'dodger'
p69
I34
sS'athlete'
p70
I34
sS"i'll"
p71
I34
sS'upper'
p72
I34
sS'work'
p73
I29
sS'neighborhood'
p74
I34
sS'portable'
p75
I34
sS'tired'
p76
I33
sS'cds'
p77
I34
sS'bacon'
p78
I34
sS'chomp'
p79
I33
sS'sign'
p80
I34
sS'past'
p81
I34
sS'gator'
p82
I32
sS'street'
p83
I34
sS'video'
p84
I34
sS'shirts'
p85
I34
sS'\xee\x90\x94'
p86
I33
sS'port'
p87
I34
sS'\xee\x90\x92'
p88
I34
sS'blue'
p89
I34
sS'what'
p90
I24
sS'nem'
p91
I32
sS'stood'
p92
I34
sS'falcons'
p93
I34
sS'slight'
p94
I34
sS'fingers'
p95
I34
sS'picture'
p96
I34
sS'uhmm'
p97
I34
sS'eating'
p98
I34
sS'flowing'
p99
I34
sS'new'
p100
I30
sS'row'
p101
I34
sS'ever'
p102
I32
sS'brothers.federal'
p103
I34
sS'told'
p104
I34
sS'beasty'
p105
I34
sS'aint'
p106
I34
sS'kicked'
p107
I34
sS"c'mon"
p108
I34
sS'ma'
p109
I34
sS'makeup'
p110
I33
sS'(los'
p111
I30
sS'water'
p112
I33
sS'met'
p113
I34
sS'let'
p114
I33
sS'&&'
p115
I34
sS'lex'
p116
I34
sS'sexy'
p117
I34
sS"who's"
p118
I34
sS'change'
p119
I33
sS'wait'
p120
I31
sS'box'
p121
I30
sS'boy'
p122
I34
sS'great'
p123
I31
sS'gay'
p124
I34
sS'losses'
p125
I34
sS'shades'
p126
I33
sS'diff'
p127
I34
sS'leaving'
p128
I32
sS'itunes'
p129
I34
sS'advertising'
p130
I34
sS'smoke'
p131
I34
sS'boo'
p132
I33
sS'action'
p133
I33
sS"i'm"
p134
I12
sS"someone's"
p135
I34
sS'bruised'
p136
I32
sS'homecoming'
p137
I34
sS'thats'
p138
I34
sS'loooove'
p139
I34
sS'love'
p140
I28
sS'schismatic'
p141
I34
sS'family'
p142
I34
sS'ive'
p143
I34
sS'win'
p144
I31
sS'vin'
p145
I34
sS'while'
p146
I34
sS'feelings'
p147
I33
sS'palabra'
p148
I34
sS'touchdown'
p149
I34
sS'drammmmmaaa'
p150
I34
sS'market'
p151
I34
sS'<3'
p152
I34
sS'munchies'
p153
I34
sS'hahahahaha'
p154
I33
sS'from'
p155
I30
sS'takes'
p156
I26
sS'working'
p157
I34
sS'&'
p158
I29
sS'yaass'
p159
I34
sS'dude'
p160
I32
sS'finally'
p161
I31
sS'next'
p162
I31
sS'sbux'
p163
I34
sS'insider'
p164
I34
sS'ca)'
p165
I30
sS'jam'
p166
I34
sS'call'
p167
I31
sS'retail'
p168
I34
sS'means'
p169
I34
sS'thru'
p170
I34
sS'tell'
p171
I32
sS'today'
p172
I32
sS'more'
p173
I30
sS'tryna'
p174
I34
sS'outta'
p175
I34
sS'babe'
p176
I32
sS'knows'
p177
I34
sS'holy'
p178
I34
sS'relax'
p179
I34
sS'halloween'
p180
I34
sS'training'
p181
I34
sS'phone'
p182
I34
sS'carrying'
p183
I34
sS'beers'
p184
I34
sS'stick'
p185
I34
sS'broke'
p186
I34
sS'loss'
p187
I34
sS'baby'
p188
I33
sS'rare'
p189
I34
sS'fakes'
p190
I34
sS'effort'
p191
I34
sS'td'
p192
I34
sS'glad'
p193
I34
sS'me'
p194
I10
sS'balls'
p195
I34
sS'bartender'
p196
I33
sS'anything'
p197
I34
sS'hour'
p198
I34
sS'niggas'
p199
I34
sS'this'
p200
I14
sS'car'
p201
I34
sS'ride'
p202
I32
sS'getting'
p203
I29
sS'bummd'
p204
I34
sS'crossed'
p205
I34
sS'can'
p206
I29
sS'install'
p207
I34
sS'mr'
p208
I34
sS'making'
p209
I34
sS'my'
p210
I6
sS'beautiful'
p211
I33
sS'crazy'
p212
I32
sS'embarrassing'
p213
I34
sS'want'
p214
I22
sS'give'
p215
I34
sS'awesome'
p216
I33
sS"didn't"
p217
I33
sS'fuck'
p218
I32
sS'goooo'
p219
I34
sS'heard'
p220
I33
sS'pac12'
p221
I34
sS'something'
p222
I32
sS'slip'
p223
I33
sS':-)'
p224
I34
sS'blvd'
p225
I34
sS'wonderful'
p226
I34
sS'tan'
p227
I34
sS'times'
p228
I34
sS'absolute'
p229
I34
sS'huge'
p230
I34
sS'sits'
p231
I34
sS'end'
p232
I33
sS'awkward'
p233
I34
sS'sit'
p234
I34
sS'watching'
p235
I31
sS'feature'
p236
I34
sS'j'
p237
I34
sS'1'
p238
I34
sS'how'
p239
I25
sS'hot'
p240
I33
sS'whore'
p241
I34
sS'weed'
p242
I34
sS'gf'
p243
I34
sS'comedy'
p244
I34
sS'horror'
p245
I34
sS'gurl'
p246
I34
sS'stand'
p247
I34
sS'\xe2\x9e\xa1\xef\xb8\x8fraye_jaye\xe2\xac\x85\xef\xb8\x8f\xe2\x80\x9d'
p248
I34
sS'as\xe2\x80\xa6'
p249
I34
sS'okay'
p250
I33
sS'may'
p251
I34
sS'stop'
p252
I34
sS'after'
p253
I34
sS'spot'
p254
I34
sS'ego'
p255
I34
sS'babysat'
p256
I34
sS'wrong'
p257
I34
sS'birthday'
p258
I33
sS'tackle'
p259
I34
sS'mad'
p260
I32
sS'taco'
p261
I30
sS'date'
p262
I34
sS'such'
p263
I31
sS'law'
p264
I34
sS'guys'
p265
I30
sS'grow'
p266
I34
sS'types'
p267
I34
sS'man'
p268
I30
sS'a'
p269
I5
sS'short'
p270
I34
sS'-___-'
p271
I34
sS'third'
p272
I34
sS'conscious'
p273
I34
sS'tweeting'
p274
I34
sS'amazon'
p275
I34
sS'volleyball'
p276
I33
sS'shucks'
p277
I34
sS'switch'
p278
I34
sS'truck'
p279
I32
sS'goodbye'
p280
I34
sS'keeps'
p281
I34
sS'every'
p282
I34
sS'first'
p283
I34
sS'dream'
p284
I33
sS'order'
p285
I32
sS'talk'
p286
I34
sS"that's"
p287
I27
sS'cute'
p288
I34
sS"don't"
p289
I20
sS'over'
p290
I32
sS'sooo'
p291
I34
sS'soon'
p292
I33
sS'years'
p293
I32
sS'ended'
p294
I34
sS'through'
p295
I33
sS'looks'
p296
I31
sS'hell'
p297
I34
sS'cold'
p298
I33
sS'still'
p299
I33
sS'its'
p300
I28
sS'before'
p301
I33
sS'perfect'
p302
I33
sS'25'
p303
I34
sS'20'
p304
I34
sS'thank'
p305
I32
sS"he's"
p306
I32
sS'interesting'
p307
I34
sS'burger>>>>'
p308
I34
sS'birthdays'
p309
I34
sS'28'
p310
I34
sS'amazing'
p311
I32
sS'scully'
p312
I34
sS'[pic]'
p313
I32
sS'better'
p314
I29
sS'munchie'
p315
I34
sS'fig'
p316
I33
sS'peno'
p317
I34
sS'2014'
p318
I34
sS'might'
p319
I33
sS'2013'
p320
I34
sS'outside'
p321
I34
sS'dad'
p322
I28
sS'then'
p323
I30
sS'them'
p324
I33
sS'good'
p325
I21
sS'somebody'
p326
I34
sS'ya'
p327
I31
sS'workout'
p328
I30
sS'uhm'
p329
I34
sS'stores'
p330
I34
sS'school'
p331
I32
sS'clippers'
p332
I34
sS'cupcake'
p333
I34
sS'break'
p334
I34
sS'lunch'
p335
I32
sS'humans'
p336
I34
sS'therapy'
p337
I34
sS'they'
p338
I26
sS'half'
p339
I34
sS'not'
p340
I22
sS'comeee'
p341
I34
sS'now'
p342
I24
sS'ahaha'
p343
I33
sS'day'
p344
I30
sS'wont'
p345
I34
sS'tall"'
p346
I34
sS'slumpy'
p347
I34
sS'name'
p348
I33
sS'always'
p349
I28
sS'cider'
p350
I34
sS'least)'
p351
I34
sS':///'
p352
I33
sS'--'
p353
I34
sS'muff'
p354
I34
sS"penny's"
p355
I33
sS'tracey'
p356
I34
sS'found'
p357
I34
sS'obligated'
p358
I34
sS'meal'
p359
I33
sS'blossomed'
p360
I34
sS'tatts'
p361
I34
sS'everyone'
p362
I31
sS'weight'
p363
I34
sS'$100'
p364
I34
sS'doing'
p365
I30
sS'house'
p366
I32
sS'train'
p367
I34
sS'hard'
p368
I34
sS'yeah'
p369
I33
sS'hlp'
p370
I34
sS'dickpics'
p371
I34
sS'booktubeathon'
p372
I34
sS'ex'
p373
I34
sS'preaching'
p374
I34
sS'year'
p375
I34
sS'our'
p376
I33
sS'girl'
p377
I33
sS'beyond'
p378
I33
sS'ring'
p379
I34
sS'out'
p380
I28
sS'rt'
p381
I32
sS'living'
p382
I33
sS'gon'
p383
I34
sS'network'
p384
I34
sS'"boyf"'
p385
I34
sS'"wow'
p386
I34
sS'god'
p387
I32
sS'since'
p388
I34
sS'washed'
p389
I34
sS'looking'
p390
I32
sS'seriously'
p391
I33
sS'krispy'
p392
I34
sS'time)'
p393
I34
sS'7'
p394
I33
sS'smh'
p395
I33
sS'got'
p396
I33
sS'rn'
p397
I29
sS'cause'
p398
I34
sS'red'
p399
I34
sS'idk'
p400
I34
sS'ass'
p401
I31
sS'swerveincurvein'
p402
I34
sS'dodgers'
p403
I34
sS'jessica'
p404
I34
sS'cutest'
p405
I34
sS"you're"
p406
I27
sS'alllll'
p407
I34
sS'onward'
p408
I34
sS'million'
p409
I34
sS'little'
p410
I34
sS'killin'
p411
I34
sS'york'
p412
I31
sS'hoodie'
p413
I34
sS'ima'
p414
I34
sS'real\xe2\x80\x9d'
p415
I34
sS'wanted'
p416
I33
sS'guy'
p417
I34
sS'card'
p418
I34
sS'dishwasher'
p419
I34
sS'dayum'
p420
I34
sS'maniac'
p421
I34
sS'starts'
p422
I34
sS'could'
p423
I32
sS'enjoy'
p424
I34
sS'days'
p425
I33
sS'keep'
p426
I33
sS'thing'
p427
I32
sS'funky'
p428
I34
sS'place'
p429
I33
sS'husband'
p430
I34
sS'castle'
p431
I27
sS'ears'
p432
I34
sS'think'
p433
I34
sS'teammates'
p434
I34
sS'designed'
p435
I34
sS'blind'
p436
I34
sS'\xee\x90\x8d'
p437
I34
sS'already'
p438
I32
sS'(6300'
p439
I34
sS'dont'
p440
I33
sS'prevent'
p441
I34
sS'feel'
p442
I30
sS'number'
p443
I34
sS'one'
p444
I28
sS'respecting'
p445
I34
sS'unexpected'
p446
I34
sS'done'
p447
I31
sS'bitch'
p448
I33
sS'another'
p449
I34
sS'why?lol'
p450
I34
sS'vote'
p451
I33
sS'angeles)'
p452
I34
sS'sounds'
p453
I33
sS'miss'
p454
I31
sS'tomorrow'
p455
I30
sS"'bout"
p456
I34
sS'legislative'
p457
I34
sS"doesn't"
p458
I33
sS'guess'
p459
I32
sS'long'
p460
I34
sS"'merica"
p461
I34
sS'stuck'
p462
I34
sS'be"'
p463
I34
sS'obvi'
p464
I34
sS'top'
p465
I34
sS'/cross'
p466
I34
sS'least'
p467
I33
sS'their'
p468
I31
sS'2'
p469
I32
sS'dumbass'
p470
I34
sS'too'
p471
I29
sS'perfectly'
p472
I34
sS'liquor'
p473
I34
sS'friend'
p474
I34
sS'low'
p475
I33
sS'"let'
p476
I34
sS'mizzo'
p477
I34
sS'that'
p478
I15
sS'tooo'
p479
I34
sS'jamie'
p480
I34
sS'park'
p481
I30
sS'took'
p482
I33
sS'broadcast'
p483
I34
sS'doctors'
p484
I34
sS'burrito'
p485
I34
sS'july'
p486
I34
sS'than'
p487
I33
sS'now...lol'
p488
I34
sS'boyfriend'
p489
I33
sS'11'
p490
I34
sS'loved'
p491
I34
sS'kind'
p492
I34
sS'b'
p493
I33
sS'frick'
p494
I34
sS'28!"'
p495
I34
sS'boring'
p496
I34
sS'gotta'
p497
I34
sS'kreme'
p498
I34
sS'grey'
p499
I33
sS'againnn'
p500
I34
sS'shower'
p501
I34
sS'sebastian'
p502
I34
sS'classes'
p503
I34
sS'stalk'
p504
I34
sS'nervous'
p505
I34
sS'disrespects'
p506
I34
sS'maybe'
p507
I34
sS'cards'
p508
I34
sS'sister'
p509
I34
sS'feeling'
p510
I33
sS'members'
p511
I34
sS'\xee\x90\x98'
p512
I34
sS'and'
p513
I9
sS'rad'
p514
I34
sS'photographer'
p515
I34
sS'false'
p516
I34
sS'queen)'
p517
I34
sS'chonchies*'
p518
I34
sS'portraits'
p519
I34
sS'ready'
p520
I34
sS'editors'
p521
I34
sS'tonight'
p522
I30
sS'talking'
p523
I33
sS'say'
p524
I34
sS'adding'
p525
I34
sS'have'
p526
I27
sS'need'
p527
I32
sS'allen'
p528
I34
sS'breakfast'
p529
I34
sS'turn'
p530
I34
sS'saw'
p531
I33
sS'clearly'
p532
I33
sS'sat'
p533
I34
sS'kemp'
p534
I34
sS'thought'
p535
I34
sS'\xee\x90\x8e'
p536
I34
sS'dishes'
p537
I33
sS'dancing'
p538
I34
sS'fucking'
p539
I34
sS'reeks'
p540
I34
sS'-'
p541
I23
sS'couch'
p542
I34
sS'squad'
p543
I34
sS'lip'
p544
I34
sS'take'
p545
I30
sS'kayy'
p546
I34
sS'season'
p547
I34
sS'so'
p548
I17
sS'asshole'
p549
I34
sS'='
p550
I34
sS'tigers'
p551
I34
sS'even'
p552
I34
sS'nobody'
p553
I34
sS'pain'
p554
I34
sS'normal'
p555
I34
sS'track'
p556
I33
sS'huh'
p557
I34
sS'doin'
p558
I32
sS'who'
p559
I34
sS'sue'
p560
I34
sS'reunited'
p561
I34
sS'pastor'
p562
I34
sS"where's"
p563
I34
sS'most'
p564
I34
sS'importantly'
p565
I34
sS'cracking'
p566
I34
sS'tall'
p567
I34
sS'nothing'
p568
I34
sS'playlist'
p569
I34
sS'why'
p570
I30
sS'stubhub'
p571
I34
sS'forever'
p572
I34
sS'especially'
p573
I34
sS'mobile'
p574
I34
sS'athletes'
p575
I34
sS'proud'
p576
I34
sS'hungry'
p577
I34
sS'face'
p578
I31
sS'thaat'
p579
I34
sS'link'
p580
I34
sS'senior'
p581
I34
sS'away'
p582
I33
sS'ho'
p583
I34
sS'saying'
p584
I34
sS'thomas'
p585
I34
sS'ugh'
p586
I34
sS'bomb'
p587
I34
sS'chicks'
p588
I34
sS'text'
p589
I33
sS'queen'
p590
I27
sS'fifty'
p591
I33
sS'pops'
p592
I34
sS'radio'
p593
I34
sS'welp'
p594
I34
sS'stoned'
p595
I34
sS'earth'
p596
I34
sS'fine'
p597
I34
sS'pleased'
p598
I34
sS'costing'
p599
I34
sS'sharks'
p600
I33
sS'woot'
p601
I33
sS'yaaasss'
p602
I34
sS'\xe2\x9c\x8a'
p603
I34
sS'('
p604
I33
sS'wut'
p605
I34
sS'fans'
p606
I33
sS'should'
p607
I31
sS'failed'
p608
I34
sS'only'
p609
I27
sS'going'
p610
I31
sS'pretty'
p611
I34
sS'folks'
p612
I34
sS'posted'
p613
I33
sS'hope'
p614
I34
sS'wearing'
p615
I34
sS'do'
p616
I28
sS'his'
p617
I33
sS'hit'
p618
I34
sS'get'
p619
I18
sS'beat'
p620
I32
sS'watch'
p621
I34
sS'tbt'
p622
I34
sS'legs'
p623
I34
sS'tricked'
p624
I34
sS'gogo'
p625
I34
sS'tbh'
p626
I34
sS'feels'
p627
I33
sS'12'
p628
I34
sS'\xee\x84\x88\xee\x90\x83\xee\x81\x98\xee\x90\x8e\xee\x90\x93\xee\x80\xa3'
p629
I34
sS'basement'
p630
I34
sS'damnit'
p631
I34
sS'happiest'
p632
I33
sS'him'
p633
I31
sS"tita's"
p634
I34
sS'reading'
p635
I34
sS'bar'
p636
I31
sS'trucks'
p637
I33
sS'cry'
p638
I34
sS'morning'
p639
I32
sS'watched'
p640
I34
sS'threading'
p641
I34
sS'bad'
p642
I31
sS'she'
p643
I32
sS'activity'
p644
I34
sS'worries'
p645
I34
sS'weaves'
p646
I34
sS'where'
p647
I28
sS'vision'
p648
I34
sS'view'
p649
I33
sS'body'
p650
I34
sS'learn'
p651
I34
sS'accuses'
p652
I34
sS'concert'
p653
I34
sS'fair'
p654
I34
sS'rockstar'
p655
I34
sS'w/'
p656
I26
sS'attached'
p657
I34
sS'subsidizing'
p658
I34
sS'vine'
p659
I34
sS'we'
p660
I28
sS'see'
p661
I32
sS'college'
p662
I34
sS'are'
p663
I23
sS'close'
p664
I34
sS'al^2'
p665
I34
sS'retweet'
p666
I34
sS'best'
p667
I31
sS'wonder'
p668
I34
sS'tripping'
p669
I34
sS'said'
p670
I31
sS'head?&she'
p671
I34
sS'luv'
p672
I34
sS'"ha!"'
p673
I34
sS'pictures'
p674
I34
sS'wow'
p675
I33
sS'currently'
p676
I34
sS'please'
p677
I34
sS'forecast'
p678
I34
sS'biel'
p679
I34
sS'enough'
p680
I33
sS'score'
p681
I34
sS'azulejo'
p682
I34
sS'varsityjohnny'
p683
I34
sS'probably'
p684
I34
sS'rite'
p685
I34
sS'later..been'
p686
I34
sS'bought'
p687
I34
sS'nip'
p688
I34
sS'solo'
p689
I34
sS'ends'
p690
I33
sS'oomf'
p691
I33
sS'omg'
p692
I32
sS'opening'
p693
I34
sS'rolled'
p694
I34
sS'comp'
p695
I34
sS'momentum'
p696
I34
sS'sipper'
p697
I34
sS'batman'
p698
I34
sS'butts'
p699
I34
sS'mooink'
p700
I34
sS'coffee'
p701
I34
sS'here'
p702
I32
sS'key'
p703
I33
sS'jk'
p704
I34
sS'news'
p705
I33
sS'come'
p706
I32
sS'screamed'
p707
I34
sS'store'
p708
I34
sS'last'
p709
I32
sS'country'
p710
I34
sS'taking'
p711
I32
sS'barely'
p712
I34
sS'has'
p713
I34
sS'contract'
p714
I32
sS'gotten'
p715
I34
sS'(80%'
p716
I34
sS'7mi'
p717
I34
sS'54th'
p718
I34
sS'atleast'
p719
I34
sS'aid)'
p720
I34
sS'haa'
p721
I34
sS'carwash'
p722
I34
sS'baseball'
p723
I34
sS'highland'
p724
I32
sS'whole'
p725
I32
sS'retweets'
p726
I34
sS"can't"
p727
I34
sS'hard.you'
p728
I34
sS'being\xe2\x80\xa6'
p729
I34
sS'tough'
p730
I34
sS'wtf'
p731
I33
sS'drunk'
p732
I34
sS'sweet'
p733
I32
sS'tuesday'
p734
I33
sS'fineeeeeee'
p735
I34
sS'bikini'
p736
I34
sS'wrap'
p737
I34
sS'walk'
p738
I34
sS'running'
p739
I34
sS')-'
p740
I34
sS'likes'
p741
I33
sS'respect'
p742
I33
sS'crew'
p743
I32
sS'mission'
p744
I34
sS'thraxxhouse'
p745
I34
sS'headlights'
p746
I34
sS'late'
p747
I33
sS'works'
p748
I34
sS'union'
p749
I33
sS"it's"
p750
I25
sS'carey'
p751
I34
sS'been'
p752
I34
sS'wasnt'
p753
I34
sS'much'
p754
I30
sS'damn'
p755
I34
sS'legit'
p756
I34
sS'stadium'
p757
I34
sS"lady's"
p758
I34
sS'sesh'
p759
I33
sS"shinin'"
p760
I34
sS'meeting'
p761
I33
sS'realize'
p762
I34
sS'board'
p763
I34
sS'wants'
p764
I33
sS'life'
p765
I29
sS'goodnight'
p766
I34
sS'vinegar'
p767
I34
sS'fire'
p768
I34
sS'kisses'
p769
I34
sS'shoutout'
p770
I34
sS'pie'
p771
I34
sS'pringle'
p772
I34
sS'fest'
p773
I33
sS'awake'
p774
I34
sS'hashtag'
p775
I34
sS'lifting'
p776
I34
sS'ab93'
p777
I34
sS'rocking'
p778
I34
sS'wahhwhshwji'
p779
I34
sS'violations'
p780
I34
sS'sound'
p781
I34
sS'randomly'
p782
I34
sS'myself'
p783
I33
sS'novel'
p784
I34
sS'/'
p785
I34
sS'tattoooo'
p786
I34
sS'626'
p787
I34
sS'bill'
p788
I34
sS'ahah'
p789
I34
sS'cash'
p790
I34
sS'will'
p791
I31
sS'agghhhhh'
p792
I34
sS'near'
p793
I33
sS'reformed'
p794
I34
sS'many'
p795
I34
sS'fun'
p796
I34
sS'rings'
p797
I34
sS'listen'
p798
I34
sS'changed'
p799
I34
sS'....and'
p800
I34
sS'wild'
p801
I34
sS'tickled'
p802
I34
sS'loml'
p803
I34
sS'is'
p804
I6
sS'sushi'
p805
I34
sS'it'
p806
I11
sS'encouragement'
p807
I34
sS'sleeping'
p808
I33
sS'cant'
p809
I33
sS'someone'
p810
I33
sS'im'
p811
I30
sS'in'
p812
I8
sS'heels'
p813
I34
sS'pics'
p814
I34
sS'worry'
p815
I34
sS'if'
p816
I25
sS'tattoo'
p817
I34
sS'material"'
p818
I34
sS'any'
p819
I34
sS'open'
p820
I32
sS'things'
p821
I33
sS'make'
p822
I33
sS'horny'
p823
I34
sS'same'
p824
I34
sS'check'
p825
I33
sS'member'
p826
I33
sS'food'
p827
I29
sS'hey'
p828
I34
sS'hahah'
p829
I34
sS'grand'
p830
I34
sS'party'
p831
I34
sS'gets'
p832
I32
sS'trucking'
p833
I34
sS'week'
p834
I33
sS'advocate'
p835
I34
sS'temporary'
p836
I34
sS'nod'
p837
I34
sS'drink'
p838
I33
sS'upon'
p839
I34
sS'hand'
p840
I33
sS'usually'
p841
I34
sS'fucken'
p842
I34
sS'walmart'
p843
I34
sS'moving'
p844
I33
sS'yg'
p845
I34
sS'never'
p846
I34
sS'fridayy'
p847
I34
sS'ikea'
p848
I34
sS'speechless'
p849
I34
sS'opportunity'
p850
I34
sS'aka'
p851
I34
sS'understand'
p852
I34
sS'tmrw'
p853
I34
sS'off'
p854
I28
sS'band'
p855
I34
sS'i'
p856
I2
sS'charger'
p857
I34
sS'well'
p858
I30
sS'spent'
p859
I34
sS'tuesdays'
p860
I34
sS'tho'
p861
I33
sS'person'
p862
I32
sS'pupusas'
p863
I34
sS'wya'
p864
I34
sS'deserve'
p865
I34
sS'very'
p866
I34
sS'gift'
p867
I34
sS'the'
p868
I3
sS'bumping'
p869
I34
sS'buuuuuut'
p870
I34
sS'left'
p871
I33
sS'summer'
p872
I33
sS'friendship'
p873
I34
sS'mingle'
p874
I34
sS'\xe2\x9d\xa4'
p875
I34
sS'just'
p876
I19
sS'slowly'
p877
I34
sS'being'
p878
I34
sS'photo'
p879
I33
sS'alll'
p880
I34
sS'technicians'
p881
I33
sS'assigned'
p882
I34
sS'front'
p883
I34
sS'ab1839'
p884
I34
sS'rooms'
p885
I34
sS'human'
p886
I34
sS'behind'
p887
I34
sS'yes'
p888
I30
sS'yet'
p889
I34
sS'apple'
p890
I34
sS'presumption'
p891
I34
sS'death'
p892
I34
sS'thinking'
p893
I33
sS'(2013)'
p894
I34
sS'workers'
p895
I34
sS'point'
p896
I34
sS'had'
p897
I31
sS'killed'
p898
I32
sS'time-warp'
p899
I34
sS'lets'
p900
I34
sS'henny'
p901
I34
sS'parents'
p902
I33
sS'4'
p903
I33
sS'homies'
p904
I33
sS'"championship'
p905
I34
sS'playing'
p906
I34
sS'totally'
p907
I34
sS'ca'
p908
I34
sS'homework'
p909
I34
sS'gave'
p910
I34
sS'real'
p911
I32
sS'book'
p912
I34
sS'customers'
p913
I34
sS'around'
p914
I33
sS'easily'
p915
I34
sS'checking'
p916
I34
sS'big'
p917
I34
sS'laughed'
p918
I34
sS'gonna'
p919
I31
sS'early'
p920
I34
sS'game'
p921
I32
sS'were'
p922
I34
sS'know'
p923
I22
sS'listening'
p924
I33
sS'(-'
p925
I33
sS'world'
p926
I34
sS"what'choo"
p927
I34
sS'lady'
p928
I34
sS'luckyyy'
p929
I34
sS'mariah'
p930
I34
sS'knock'
p931
I34
sS'b/c'
p932
I34
sS'like'
p933
I18
sS'onion'
p934
I34
sS'shabu'
p935
I34
sS'honestly'
p936
I34
sS'anymore'
p937
I34
sS'benefit'
p938
I34
sS'burgers'
p939
I34
sS'(or'
p940
I34
sS'thighs'
p941
I33
sS'night'
p942
I31
sS'hung'
p943
I34
sS'5$'
p944
I34
sS'losh'
p945
I34
sS'autozone'
p946
I34
sS'mazes'
p947
I34
sS'seating'
p948
I34
sS'right'
p949
I28
sS'old'
p950
I32
sS'people'
p951
I30
sS'sends'
p952
I34
sS'twitter'
p953
I33
sS'some'
p954
I28
sS'back'
p955
I30
sS'10'
p956
I34
sS'tumblr'
p957
I34
sS'mirror'
p958
I34
sS'kinda'
p959
I34
sS'home'
p960
I31
sS'-\xe2\x80\xa6'
p961
I34
sS'fading'
p962
I34
sS'happens'
p963
I34
sS'gross'
p964
I34
sS'"that\'s'
p965
I34
sS'trust'
p966
I34
sS'obsessed'
p967
I34
sS'for'
p968
I12
sS'pues'
p969
I34
sS'snapchatted'
p970
I34
sS'though'
p971
I34
sS'ice'
p972
I34
sS'kitty'
p973
I34
sS'does'
p974
I34
sS'wizardream'
p975
I34
sS'nose'
p976
I34
sS'be'
p977
I22
sS'bf'
p978
I34
sS'assembly'
p979
I33
sS"jokin'"
p980
I34
sS'schedule'
p981
I34
sS'bl'
p982
I34
sS'lose'
p983
I34
sS'laker'
p984
I34
sS'plz'
p985
I34
sS'slut'
p986
I34
sS'ridley'
p987
I34
sS'broken'
p988
I34
sS'cholo'
p989
I34
sS'innocence'
p990
I34
sS'yaaassss'
p991
I34
sS';)'
p992
I34
sS'super'
p993
I34
sS'by'
p994
I28
sS'lights'
p995
I34
sS'phillip'
p996
I34
sS"eden's"
p997
I34
sS'on'
p998
I19
sS'about'
p999
I30
sS'deffffffff'
p1000
I34
sS'ok'
p1001
I32
sS'would'
p1002
I34
sS'filipino'
p1003
I34
sS'oh'
p1004
I30
sS'of'
p1005
I13
sS'favorite'
p1006
I34
sS'lovely'
p1007
I34
sS"la's"
p1008
I34
sS'angeles'
p1009
I29
sS'deserves'
p1010
I34
sS'dinner'
p1011
I33
sS'afternoon'
p1012
I33
sS'tongue'
p1013
I34
sS'luck'
p1014
I34
sS'or'
p1015
I29
sS'flower'
p1016
I34
sS'seeing'
p1017
I33
sS'dnt'
p1018
I34
sS'aha'
p1019
I34
sS'letter'
p1020
I34
sS'baseman'
p1021
I34
sS'visit'
p1022
I34
sS'into'
p1023
I33
sS'definitely'
p1024
I34
sS'three'
p1025
I34
sS'down'
p1026
I31
sS'thankful'
p1027
I33
sS'playoff'
p1028
I34
sS'because'
p1029
I31
sS'magilla'
p1030
I34
sS'artists'
p1031
I34
sS'elementary'
p1032
I34
sS'sox'
p1033
I34
sS'sports'
p1034
I33
sS'your'
p1035
I23
sS'sunglasses'
p1036
I34
sS'east'
p1037
I34
sS'chillest'
p1038
I34
sS'ahahah'
p1039
I34
sS'her'
p1040
I30
sS'hes'
p1041
I34
sS'jameson'
p1042
I34
sS'friends'
p1043
I34
sS'there'
p1044
I34
sS'live'
p1045
I34
sS'lol'
p1046
I14
sS'lags'
p1047
I34
sS'los'
p1048
I33
sS'leave'
p1049
I34
sS'cats'
p1050
I34
sS'impromptu'
p1051
I34
sS"we're"
p1052
I33
sS'way'
p1053
I33
sS'forward'
p1054
I33
sS'ayy'
p1055
I33
sS'bored'
p1056
I33
sS'was'
p1057
I23
sS'energy'
p1058
I34
sS'happy'
p1059
I34
sS'(son'
p1060
I34
sS'goodmorninggg'
p1061
I34
sS'hs'
p1062
I34
sS'hp'
p1063
I34
sS'toooo'
p1064
I34
sS'but'
p1065
I16
sS'doinnnn'
p1066
I34
sS'goinghome'
p1067
I34
sS'hi'
p1068
I32
sS'hear'
p1069
I32
sS'dead'
p1070
I34
sS'hopes'
p1071
I34
sS'eatatfig'
p1072
I33
sS'ha'
p1073
I34
sS'with'
p1074
I18
sS'eat'
p1075
I34
sS'he'
p1076
I27
sS'outchea'
p1077
I34
sS'congratulations'
p1078
I32
sS'made'
p1079
I33
sS'backtoca.con'
p1080
I34
sS'happen'
p1081
I34
sS'payback'
p1082
I34
sS'wish'
p1083
I34
sS'whatcha'
p1084
I34
sS'fries'
p1085
I34
sS'up'
p1086
I24
sS'us'
p1087
I30
sS'record'
p1088
I34
sS'un'
p1089
I34
sS'=/'
p1090
I34
sS'lays'
p1091
I34
sS'sapphire'
p1092
I34
sS'nerdy'
p1093
I34
sS'piece'
p1094
I34
sS'minutes'
p1095
I33
sS'onyeabor'
p1096
I34
sS'bell'
p1097
I34
sS'website'
p1098
I34
sS'lazzyyy'
p1099
I34
sS'af'
p1100
I32
sS'forgot'
p1101
I34
sS'am'
p1102
I33
sS'al'
p1103
I34
sS"ol'"
p1104
I34
sS'an'
p1105
I29
sS'as'
p1106
I33
sS'at'
p1107
I15
sS'budget'
p1108
I34
sS'girlfriend'
p1109
I34
sS'box)'
p1110
I32
sS'annoying'
p1111
I33
sS'bishop'
p1112
I26
sS'shit'
p1113
I30
sS'cream'
p1114
I34
sS'again'
p1115
I32
sS'firm'
p1116
I34
sS'cheatful'
p1117
I34
sS'dying'
p1118
I34
sS'no'
p1119
I23
sS'idiot'
p1120
I34
sS'dressed'
p1121
I34
sS'tito'
p1122
I34
sS'lmfao'
p1123
I34
sS'when'
p1124
I29
sS'40'
p1125
I34
sS'til'
p1126
I34
sS'painted'
p1127
I34
sS'nap'
p1128
I33
sS'interested'
p1129
I34
sS'5'
p1130
I32
sS'sick'
p1131
I34
sS'weights'
p1132
I34
sS'you'
p1133
I7
sS'really'
p1134
I30
sS'mock'
p1135
I33
sS'nice'
p1136
I32
sS'poor'
p1137
I34
sS'bot3'
p1138
I34
sS'repeat'
p1139
I34
sS'meeeee'
p1140
I34
sS'brothers'
p1141
I33
sS'monday'
p1142
I34
sS'dies'
p1143
I34
sS'earlier\xe2\x99\xa1'
p1144
I34
sS'football'
p1145
I33
sS'pg-13'
p1146
I34
sS'thanks'
p1147
I34
sS'stay'
p1148
I32
sS"let's"
p1149
I33
sS'class'
p1150
I34
sS'garvanza'
p1151
I33
sS'12/3'
p1152
I34
sS'coverage'
p1153
I34
sS'throughout'
p1154
I34
sS'nicest'
p1155
I34
sS'song'
p1156
I33
sS'weekend'
p1157
I33
sS'needed'
p1158
I34
sS'mood'
p1159
I34
sS'land'
p1160
I34
sS'happening'
p1161
I34
sS'together'
p1162
I34
sS'hello'
p1163
I33
sS'hella'
p1164
I33
sS'u'
p1165
I32
sS'karma'
p1166
I34
sS'time'
p1167
I32
sS"she's"
p1168
I33
sS'mean'
p1169
I34
sS'having'
p1170
I30
sS'once'
p1171
I34
s.