(dp0
S''
p1
I3
sS'all'
p2
I16
sS':('
p3
I19
sS'03:40:47.0,34.12098995,-118.17718975,1831.04,plot'
p4
I19
sS'month'
p5
I18
sS'baby'
p6
I17
sS'go'
p7
I15
sS'follow'
p8
I19
sS'hate'
p9
I19
sS'happpy'
p10
I19
sS'tweet'
p11
I19
sS'to'
p12
I2
sS'finally'
p13
I19
sS'helps'
p14
I19
sS'/.\\'
p15
I18
sS'lord'
p16
I19
sS'sorry'
p17
I18
sS"a's"
p18
I19
sS':o'
p19
I18
sS'song'
p20
I19
sS'far'
p21
I19
sS'none'
p22
I19
sS'fat'
p23
I18
sS',90042\n474968384937791488,mariiisaa_,2014-06-06'
p24
I19
sS'every'
p25
I18
sS'surprise'
p26
I19
sS'00:22:51.0,34.12091551,-118.17715477,1831.04,like'
p27
I19
sS'cool'
p28
I19
sS'tickets'
p29
I19
sS'leave'
p30
I19
sS'small'
p31
I19
sS"it'll"
p32
I19
sS'work'
p33
I19
sS'core'
p34
I19
sS'phones'
p35
I19
sS'ewhh'
p36
I19
sS'second'
p37
I19
sS'freakkin'
p38
I19
sS'huell'
p39
I19
sS'even'
p40
I18
sS'what'
p41
I17
sS'fucks'
p42
I19
sS'waiting'
p43
I19
sS'sus'
p44
I19
sS'new'
p45
I17
sS'learned'
p46
I19
sS'nicholas'
p47
I19
sS'method'
p48
I19
sS'sux'
p49
I19
sS'body'
p50
I19
sS'full'
p51
I19
sS'reporter'
p52
I19
sS'never'
p53
I19
sS'here'
p54
I15
sS'\xe2\x9d\xa4\xef\xb8\x8f'
p55
I18
sS'fuckkeddd'
p56
I19
sS'baseball'
p57
I19
sS'alone'
p58
I19
sS'buzzing'
p59
I19
sS'ahahahahahahah'
p60
I19
sS'wait'
p61
I18
sS'calvin'
p62
I19
sS',90042\n480778902172729345,_widacha,2014-06-22'
p63
I19
sS'pick'
p64
I19
sS"i'm"
p65
I9
sS'thats'
p66
I19
sS'named'
p67
I19
sS'love'
p68
I18
sS'fake'
p69
I19
sS'from'
p70
I19
sS'would'
p71
I17
sS'army'
p72
I19
sS'dude'
p73
I18
sS'two'
p74
I19
sS'tripping'
p75
I19
sS'live'
p76
I19
sS'therefore'
p77
I19
sS'thru'
p78
I19
sS'today'
p79
I17
sS'more'
p80
I18
sS'breathe'
p81
I19
sS"didn't"
p82
I19
sS'company'
p83
I19
sS'haha'
p84
I18
sS'about'
p85
I19
sS'hurt'
p86
I19
sS'adult'
p87
I19
sS'known'
p88
I19
sS'me'
p89
I5
sS'keeping'
p90
I19
sS'tho?!?\xe2\x80\x9d'
p91
I19
sS'clothes,90042\n486255254619439104,mariiisaa_,2014-07-07'
p92
I19
sS'this'
p93
I11
sS'getting'
p94
I18
sS'movies'
p95
I19
sS'del'
p96
I19
sS'can'
p97
I15
sS'my'
p98
I4
sS'point'
p99
I19
sS'soundcheck'
p100
I19
sS'lock'
p101
I19
sS'halloween'
p102
I19
sS'fuck'
p103
I18
sS'critic'
p104
I19
sS'salty'
p105
I19
sS'something'
p106
I19
sS'want'
p107
I17
sS'sit'
p108
I19
sS'travel'
p109
I19
sS'comfort'
p110
I19
sS'1'
p111
I19
sS'how'
p112
I17
sS'sunday'
p113
I19
sS',90042\n493874656256880642,mariiisaa_,2014-07-28'
p114
I19
sS'animal'
p115
I19
sS'familiar'
p116
I19
sS'instead'
p117
I19
sS'centimeters'
p118
I19
sS'beach'
p119
I19
sS',90042\n474964088041123841,mariiisaa_,2014-06-06'
p120
I19
sS'pizza'
p121
I19
sS'watch'
p122
I19
sS'earlier'
p123
I19
sS'crashed'
p124
I19
sS'jumping'
p125
I19
sS'coming'
p126
I19
sS'mah'
p127
I19
sS'suck'
p128
I18
sS'guys'
p129
I18
sS'man'
p130
I19
sS'a'
p131
I5
sS'owns'
p132
I19
sS'so'
p133
I16
sS'crawling'
p134
I19
sS'talk'
p135
I19
sS"that's"
p136
I19
sS"don't"
p137
I14
sS'soon'
p138
I18
sS'mentioned'
p139
I18
sS'still'
p140
I17
sS'its'
p141
I19
sS'before'
p142
I19
sS'thank'
p143
I17
sS"he's"
p144
I19
sS"e's"
p145
I19
sS'botched'
p146
I19
sS',90042\n474992888485400577,mariiisaa_,2014-06-06'
p147
I19
sS'labor'
p148
I19
sS'better'
p149
I18
sS'birthdayyyy'
p150
I19
sS'cotto'
p151
I19
sS'bye'
p152
I18
sS'happened'
p153
I18
sS'dad'
p154
I19
sS'21:44:28.0,34.1210526,-118.17727475,1831.04,i'
p155
I19
sS'them'
p156
I19
sS'good'
p157
I18
sS'hop'
p158
I19
sS'food'
p159
I18
sS'cutting'
p160
I19
sS'they'
p161
I19
sS'not'
p162
I16
sS'now'
p163
I18
sS'day'
p164
I14
sS'bread'
p165
I19
sS'wont'
p166
I19
sS"grey's"
p167
I19
sS'name'
p168
I18
sS'always'
p169
I16
sS'bless'
p170
I19
sS'each'
p171
I19
sS'went'
p172
I19
sS'soft'
p173
I19
sS'bitch'
p174
I19
sS'everyone'
p175
I19
sS'lagging'
p176
I19
sS'house'
p177
I18
sS'hard'
p178
I19
sS'yeah'
p179
I19
sS'our'
p180
I17
sS'dawn'
p181
I19
sS'out'
p182
I18
sS'living'
p183
I19
sS'god'
p184
I19
sS'mandy'
p185
I19
sS'loll'
p186
I19
sS'seriously'
p187
I18
sS'got'
p188
I18
sS'rn'
p189
I17
sS'ass'
p190
I17
sS'after'
p191
I19
sS'o.o'
p192
I19
sS"you're"
p193
I19
sS'carr'
p194
I19
sS'little'
p195
I18
sS'free'
p196
I19
sS'disneyland'
p197
I19
sS'put'
p198
I19
sS'6pack'
p199
I19
sS'thru!,90042\n244848677951266816,mrsgwenniesmith,2012-09-09'
p200
I19
sS'dayy'
p201
I19
sS'times'
p202
I19
sS'conversation'
p203
I19
sS'birthday'
p204
I18
sS'w'
p205
I18
sS'yess'
p206
I19
sS'think'
p207
I16
sS'fuckin'
p208
I19
sS'first'
p209
I19
sS'cheese'
p210
I19
sS'unfollowed'
p211
I19
sS'taco'
p212
I19
sS'one'
p213
I18
sS'done'
p214
I19
sS'overdramatic'
p215
I19
sS'another'
p216
I19
sS'sounds'
p217
I19
sS'open'
p218
I19
sS'tomorrow'
p219
I18
sS"doesn't"
p220
I19
sS'story'
p221
I19
sS'be"'
p222
I19
sS'anyone'
p223
I19
sS'2'
p224
I19
sS'too'
p225
I18
sS'dogs'
p226
I18
sS'headache'
p227
I19
sS'stomach'
p228
I19
sS'lot'
p229
I19
sS'that'
p230
I14
sS'._.,90042\n493343027411169280,kennyyyf,2014-07-27'
p231
I19
sS'boba'
p232
I19
sS'hut'
p233
I19
sS'part'
p234
I19
sS'grandpa'
p235
I19
sS'somone'
p236
I19
sS'king'
p237
I19
sS'kind'
p238
I19
sS'tios'
p239
I19
sS'goodnight'
p240
I19
sS'anaheim'
p241
I19
sS'were'
p242
I18
sS'spurt'
p243
I19
sS'feeling'
p244
I19
sS'and'
p245
I6
sS'san'
p246
I19
sS'beeeeee'
p247
I19
sS'locations'
p248
I19
sS'ant'
p249
I19
sS'say'
p250
I19
sS'bored,90042\n474968820382040065,mariiisaa_,2014-06-06'
p251
I19
sS'have'
p252
I12
sS'need'
p253
I16
sS'ray'
p254
I19
sS'storage'
p255
I19
sS'micheladas'
p256
I19
sS'note'
p257
I19
sS'also'
p258
I19
sS'build'
p259
I19
sS"eden's"
p260
I19
sS'bitchhhhh'
p261
I19
sS'asshole'
p262
I19
sS'youuuu'
p263
I19
sS'play'
p264
I19
sS'sure'
p265
I19
sS'wooot'
p266
I17
sS'eewwww'
p267
I19
sS'who'
p268
I19
sS'anatomy'
p269
I19
sS'most'
p270
I19
sS'plan'
p271
I19
sS'why'
p272
I19
sS'wats'
p273
I19
sS'forever'
p274
I19
sS'dom'
p275
I19
sS'doc'
p276
I19
sS'hungry'
p277
I19
sS'aunt'
p278
I19
sS'cabnot'
p279
I19
sS'came'
p280
I19
sS'show'
p281
I16
sS'fine'
p282
I19
sS'find'
p283
I19
sS'pause'
p284
I19
sS'!!!!,90042\n476563217150275584,mariiisaa_,2014-06-11'
p285
I19
sS'('
p286
I19
sS'should'
p287
I18
sS'going'
p288
I16
sS'screening'
p289
I19
sS'8'
p290
I19
sS'do'
p291
I15
sS'his'
p292
I18
sS'get'
p293
I18
sS'wooooot'
p294
I19
sS'stop'
p295
I19
sS'halloweeen'
p296
I19
sS',90042\n475009680326918144,mariiisaa_,2014-06-06'
p297
I19
sS'words'
p298
I19
sS'reply'
p299
I19
sS'during'
p300
I19
sS'grrrr'
p301
I19
sS'bar'
p302
I19
sS'howser'
p303
I19
sS'morning'
p304
I19
sS'stupid'
p305
I18
sS'she'
p306
I18
sS'glendale'
p307
I19
sS'where'
p308
I17
sS',90042\n472533630678355969,mariiisaa_,2014-05-31'
p309
I19
sS'around'
p310
I19
sS'sex'
p311
I19
sS'03:14:59.0,34.12104235,-118.17733058,1831.04,someone'
p312
I19
sS'see'
p313
I18
sS'spanking?,90042\n'
p314
I19
sS'sec'
p315
I19
sS'are'
p316
I15
sS'buzzed'
p317
I19
sS'ari'
p318
I19
sS'retweet'
p319
I19
sS'best'
p320
I19
sS'mario'
p321
I19
sS'closet'
p322
I19
sS'ways'
p323
I19
sS'movie'
p324
I19
sS'fans'
p325
I19
sS'teens'
p326
I19
sS'attention'
p327
I19
sS'wc'
p328
I19
sS'"arty"'
p329
I19
sS'handful'
p330
I19
sS'weak'
p331
I19
sS'wtf'
p332
I18
sS'news'
p333
I19
sS'come'
p334
I17
sS'legit'
p335
I19
sS'both'
p336
I19
sS'last'
p337
I19
sS'career'
p338
I19
sS'fault'
p339
I18
sS'games'
p340
I19
sS'let'
p341
I19
sS'highland'
p342
I19
sS'whole'
p343
I19
sS"can't"
p344
I15
sS'cakes'
p345
I19
sS'drunk'
p346
I19
sS'cc'
p347
I19
sS'simply'
p348
I19
sS'cousin'
p349
I19
sS'expensive'
p350
I19
sS'do,90042\n364877350896283649,chloesiegs,2013-08-06'
p351
I19
sS"it's"
p352
I18
sS'beer'
p353
I19
sS'much'
p354
I17
sS'damn'
p355
I19
sS'bbq'
p356
I19
sS'-.-'
p357
I19
sS'child'
p358
I19
sS'an'
p359
I19
sS'exception'
p360
I19
sS'dicks'
p361
I19
sS'_raaeeeee'
p362
I19
sS'these'
p363
I18
sS'convo'
p364
I19
sS'n'
p365
I18
sS'20:21:47.0,34.12093404,-118.17725622,1831.04,i'
p366
I19
sS'while'
p367
I19
sS'joke'
p368
I19
sS'fun'
p369
I19
sS'uggh'
p370
I18
sS'18:26:37.0,34.11513345,-118.17785139,1831.04,any'
p371
I19
sS'hoping'
p372
I19
sS'portugal'
p373
I19
sS'is'
p374
I13
sS'it'
p375
I18
sS'kcrw'
p376
I19
sS'rio'
p377
I19
sS'cant'
p378
I18
sS'someone'
p379
I19
sS'im'
p380
I17
sS'in'
p381
I9
sS'obnoxious'
p382
I19
sS'ig'
p383
I19
sS'if'
p384
I17
sS'different'
p385
I19
sS'pay'
p386
I19
sS'pester'
p387
I19
sS'ya'
p388
I19
sS'motherfuckin'
p389
I19
sS'party'
p390
I19
sS'gets'
p391
I19
sS'week'
p392
I19
sS'used'
p393
I19
sS'raymond'
p394
I19
sS'drink'
p395
I19
sS'tbqh'
p396
I19
sS'fucked'
p397
I19
sS'watic'
p398
I19
sS'i'
p399
I1
sS'stupid,90042\n476564193072533504,mariiisaa_,2014-06-11'
p400
I19
sS'!,90042\n476565882001293314,mariiisaa_,2014-06-11'
p401
I19
sS'without'
p402
I19
sS'comes'
p403
I19
sS'worry'
p404
I19
sS'y'
p405
I19
sS'the'
p406
I2
sS'left'
p407
I19
sS'i\xe2\x80\x99m'
p408
I19
sS'summer'
p409
I19
sS'just'
p410
I15
sS'being'
p411
I18
sS'photo'
p412
I19
sS'sleepy'
p413
I19
sS'thanks'
p414
I19
sS'seats'
p415
I19
sS'followed'
p416
I19
sS'speed'
p417
I19
sS'cut'
p418
I19
sS'05:10:09.0,34.1143557,-118.1791617,1831.04,so'
p419
I19
sS'had'
p420
I19
sS'except'
p421
I19
sS'add'
p422
I18
sS'05:09:57.0,34.1143557,-118.1791617,1831.04,gotta'
p423
I19
sS'4'
p424
I18
sS'snap'
p425
I18
sS'has'
p426
I18
sS'take'
p427
I17
sS'which'
p428
I19
sS'gonna'
p429
I18
sS'early'
p430
I18
sS'know'
p431
I13
sS'mom'
p432
I19
sS'dreams'
p433
I19
sS'd'
p434
I19
sS'like'
p435
I18
sS'pounds'
p436
I19
sS'shabot'
p437
I19
sS'farquad'
p438
I19
sS'whitter'
p439
I19
sS'03:43:04.0,34.12090296,-118.17720256,1831.04,edens'
p440
I19
sS'disorder'
p441
I19
sS'because'
p442
I15
sS'facials'
p443
I19
sS'joking'
p444
I19
sS'people'
p445
I15
sS'fucking'
p446
I15
sS'twitter'
p447
I17
sS'some'
p448
I18
sS'hair'
p449
I18
sS'growth'
p450
I19
sS'trippen'
p451
I19
sS',90042\n476563613566513152,mariiisaa_,2014-06-11'
p452
I19
sS'dear'
p453
I19
sS'home'
p454
I19
sS'gross'
p455
I19
sS'cnt'
p456
I19
sS'for'
p457
I8
sS'pet'
p458
I19
sS'literally'
p459
I18
sS'\xe2\x98\xba\xef\xb8\x8f\xe2\x9d\xa4\xef\xb8\x8f'
p460
I19
sS'everything'
p461
I19
sS'ellie'
p462
I19
sS'deficit'
p463
I19
sS'kangaroos'
p464
I19
sS'be'
p465
I14
sS'setlists'
p466
I19
sS'eating'
p467
I18
sS'bc'
p468
I18
sS'self-serve'
p469
I19
sS'explaination'
p470
I19
sS'binder'
p471
I19
sS'30+'
p472
I19
sS'pascual'
p473
I19
sS'exciting'
p474
I19
sS'by'
p475
I19
sS'gained'
p476
I19
sS'on'
p477
I10
sS'sister'
p478
I19
sS'usa'
p479
I19
sS'oh'
p480
I19
sS'of'
p481
I9
sS'&'
p482
I18
sS'bonding'
p483
I19
sS'swear'
p484
I19
sS'plus'
p485
I19
sS'idk'
p486
I19
sS'bish'
p487
I19
sS'mean'
p488
I19
sS'sept'
p489
I19
sS'or'
p490
I17
sS'swimming'
p491
I19
sS'02:41:06.0,34.12096851,-118.17717532,1831.04,advanced'
p492
I19
sS'into'
p493
I18
sS'down'
p494
I19
sS'right'
p495
I17
sS'elementary'
p496
I19
sS'your'
p497
I16
sS'deal'
p498
I19
sS'there'
p499
I19
sS'hey'
p500
I18
sS'lol'
p501
I13
sS'stars'
p502
I18
sS'was'
p503
I18
sS'opens'
p504
I19
sS'chats'
p505
I19
sS'rogelio'
p506
I19
sS'elsewhere'
p507
I19
sS'chatting'
p508
I19
sS'coke'
p509
I19
sS'truu'
p510
I19
sS'(:,90042\n483477518976950272,_raaeeeee,2014-06-30'
p511
I19
sS'but'
p512
I18
sS'notifications'
p513
I19
sS'heat'
p514
I19
sS'uncle'
p515
I19
sS'trying'
p516
I19
sS'with'
p517
I8
sS"wasn't"
p518
I19
sS'up'
p519
I15
sS',90042\n474967909890940928,mariiisaa_,2014-06-06'
p520
I19
sS',90042\n474742751490097152,mariiisaa_,2014-06-06'
p521
I19
sS'adults'
p522
I18
sS'johnny'
p523
I19
sS'describe'
p524
I19
sS'moved'
p525
I19
sS'ordering'
p526
I19
sS'twist'
p527
I19
sS'as'
p528
I18
sS'at'
p529
I14
sS'melatonin'
p530
I19
sS'floridians'
p531
I19
sS'hospitals'
p532
I19
sS'trip'
p533
I19
sS'shit'
p534
I17
sS'again'
p535
I18
sS'landon'
p536
I19
sS'no'
p537
I16
sS'nah'
p538
I19
sS'when'
p539
I19
sS',90042\n474033568641855488,mariiisaa_,2014-06-04'
p540
I19
sS'other'
p541
I19
sS'5'
p542
I19
sS'you'
p543
I7
sS'really'
p544
I18
sS'10'
p545
I19
sS'papi'
p546
I19
sS'students'
p547
I19
sS'rubberband'
p548
I19
sS'\xe2\x80\x9ci\xe2\x80\x99m'
p549
I19
sS'outback'
p550
I19
sS"17:20:37.0,34.12095808,-118.17724273,1831.04,she's"
p551
I19
sS'kinda'
p552
I19
sS'hahahahahah'
p553
I19
sS',90042\n483477566901067778,_raaeeeee,2014-06-30'
p554
I19
sS'lana'
p555
I19
sS'dog'
p556
I19
sS'u'
p557
I16
sS'involved,90042\n474992449291419648,mariiisaa_,2014-06-06'
p558
I19
sS'time'
p559
I17
sS'bazoopy'
p560
I19
s.