(dp0
S''
p1
I1
sS'edc'
p2
I35
sS'all'
p3
I25
sS':('
p4
I35
sS'hurricane'
p5
I35
sS'ouch'
p6
I35
sS'watssup'
p7
I35
sS'milf'
p8
I35
sS'burritos'
p9
I35
sS'mile'
p10
I35
sS'sleep'
p11
I33
sS'go'
p12
I19
sS'shot'
p13
I35
sS'mill'
p14
I35
sS'hate'
p15
I25
sS'mucho'
p16
I35
sS'norwalk'
p17
I35
sS'pedro'
p18
I35
sS'attracted'
p19
I35
sS'tv'
p20
I35
sS'tweet'
p21
I33
sS'tu'
p22
I29
sS'seriously'
p23
I35
sS'send'
p24
I31
sS'to'
p25
I6
sS'finally'
p26
I33
sS'does'
p27
I35
sS'bruhh'
p28
I35
sS'under'
p29
I35
sS'tf'
p30
I33
sS'sorry'
p31
I35
sS'te'
p32
I35
sS'worth'
p33
I33
sS'(grandma'
p34
I35
sS'shoot'
p35
I34
sS'sister'
p36
I35
sS'jerk'
p37
I35
sS'song'
p38
I34
sS'very'
p39
I35
sS'fat'
p40
I35
sS':c'
p41
I35
sS'begging'
p42
I35
sS'spoon'
p43
I35
sS'sons'
p44
I34
sS'every'
p45
I35
sS'decide'
p46
I35
sS'fall'
p47
I35
sS'telling'
p48
I35
sS'word'
p49
I35
sS'drinking'
p50
I35
sS'blast'
p51
I35
sS'minute'
p52
I35
sS'cool'
p53
I35
sS'tickets'
p54
I35
sS'entire'
p55
I35
sS'school'
p56
I33
sS'bestfriend'
p57
I35
sS'did'
p58
I32
sS'die'
p59
I33
sS'boodahs'
p60
I34
sS'leave'
p61
I34
sS'mm'
p62
I35
sS'vibes'
p63
I35
sS'married'
p64
I35
sS'q'
p65
I35
sS'car'
p66
I35
sS'small'
p67
I35
sS'membered'
p68
I35
sS'guy'
p69
I35
sS'few'
p70
I35
sS'caso'
p71
I35
sS'20th'
p72
I35
sS'clothes'
p73
I35
sS"i'll"
p74
I32
sS'height'
p75
I35
sS'\xee\x90\x8e'
p76
I35
sS'says'
p77
I35
sS"you'd"
p78
I35
sS'bleeding'
p79
I35
sS'bacon'
p80
I35
sS'sigo'
p81
I35
sS'waking'
p82
I35
sS'video'
p83
I35
sS'nah'
p84
I35
sS'likewuuuh'
p85
I35
sS'even'
p86
I26
sS'trick'
p87
I35
sS'what'
p88
I24
sS'ehhhhh'
p89
I35
sS'harbore'
p90
I35
sS'ever1'
p91
I35
sS'm\xc3\xado'
p92
I35
sS'asap'
p93
I35
sS'paying'
p94
I35
sS'waiting'
p95
I35
sS'enamoramiento'
p96
I35
sS'goes'
p97
I35
sS'new'
p98
I33
sS'learned'
p99
I35
sS'ever'
p100
I32
sS'told'
p101
I35
sS'body'
p102
I34
sS'whose'
p103
I35
sS'never'
p104
I29
sS'diapers'
p105
I35
sS'here'
p106
I32
sS'piedras'
p107
I35
sS'\xe2\x9d\xa4\xef\xb8\x8f'
p108
I33
sS'extra\xc3\xb1a'
p109
I35
sS'let'
p110
I33
sS'descansar'
p111
I35
sS'active'
p112
I35
sS'sexy'
p113
I35
sS'buzzing'
p114
I35
sS'change'
p115
I35
sS'wait'
p116
I34
sS'box'
p117
I35
sS'great'
p118
I34
sS'kids'
p119
I35
sS'daughter'
p120
I35
sS'broken'
p121
I34
sS'vaporized'
p122
I35
sS'k'
p123
I34
sS'creepy'
p124
I35
sS'hac\xc3\xa9s'
p125
I35
sS'\xe2\x98\x95\xef\xb8\x8f\xe2\x9d\xa4\xef\xb8\x8f'
p126
I35
sS"i'd"
p127
I35
sS'smoke'
p128
I35
sS'cousins'
p129
I35
sS'action'
p130
I35
sS"i'm"
p131
I9
sS'changes'
p132
I35
sS'beautiful'
p133
I35
sS'wassup'
p134
I35
sS'love'
p135
I24
sS'"me'
p136
I35
sS'bs'
p137
I35
sS'bro'
p138
I35
sS'pasi\xc3\xb3n'
p139
I35
sS'manny'
p140
I35
sS'wit'
p141
I35
sS'fake'
p142
I34
sS'emoji'
p143
I34
sS'yourself'
p144
I35
sS'plot'
p145
I35
sS'use'
p146
I34
sS'from'
p147
I32
sS'takes'
p148
I35
sS'working'
p149
I34
sS'&'
p150
I29
sS'angry'
p151
I34
sS'pero'
p152
I34
sS'next'
p153
I32
sS'.\xe2\x80\x9d'
p154
I35
sS'live'
p155
I35
sS'music'
p156
I35
sS'until'
p157
I35
sS'wondering'
p158
I35
sS'was\xe2\x80\xa6'
p159
I35
sS'shits'
p160
I35
sS'type'
p161
I35
sS'tell'
p162
I34
sS'today'
p163
I31
sS'more'
p164
I30
sS'pescador'
p165
I35
sS'tryna'
p166
I32
sS'grier'
p167
I34
sS'face\xe2\x80\x9d'
p168
I35
sS'started'
p169
I35
sS'novio'
p170
I35
sS'haha'
p171
I35
sS'm\xc3\xad'
p172
I35
sS'cu\xc3\xa1ndo'
p173
I35
sS'it'
p174
I12
sS'!\xe2\x80\x9d'
p175
I35
sS'phone'
p176
I33
sS"ain't"
p177
I34
sS'91'
p178
I35
sS'90'
p179
I35
sS'ambers'
p180
I35
sS'glad'
p181
I35
sS'must'
p182
I34
sS'me'
p183
I8
sS'butthurt'
p184
I35
sS'ma'
p185
I35
sS'me.\xe2\x80\x9d'
p186
I35
sS'niggas'
p187
I35
sS'this'
p188
I15
sS'recall'
p189
I35
sS'work'
p190
I32
sS'mi'
p191
I33
sS'cat'
p192
I35
sS'movies'
p193
I34
sS'can'
p194
I27
sS'meet'
p195
I35
sS'my'
p196
I5
sS'dee'
p197
I35
sS'something'
p198
I35
sS'control'
p199
I35
sS'heart'
p200
I35
sS'crazy'
p201
I34
sS'months'
p202
I35
sS'thirsty'
p203
I35
sS'give'
p204
I33
sS'templar'
p205
I35
sS'muah'
p206
I35
sS"didn't"
p207
I33
sS'fuck'
p208
I27
sS'socal'
p209
I35
sS'perder'
p210
I35
sS'red/burgundy'
p211
I35
sS'elbowed'
p212
I35
sS'want'
p213
I28
sS'wonderful'
p214
I35
sS'protein'
p215
I35
sS'angeles'
p216
I35
sS'needs'
p217
I35
sS'dignidad'
p218
I35
sS'turn'
p219
I33
sS'rather'
p220
I35
sS'lejos'
p221
I35
sS'means'
p222
I35
sS'hahaaha'
p223
I35
sS'till'
p224
I34
sS'sunday'
p225
I34
sS'juvy'
p226
I35
sS'oye'
p227
I35
sS'beach'
p228
I35
sS'ronnie'
p229
I35
sS'afternoon'
p230
I35
sS'fr'
p231
I33
sS'okay'
p232
I31
sS'plans'
p233
I35
sS'rude'
p234
I35
sS'hunnies'
p235
I35
sS'bday'
p236
I35
sS'watch'
p237
I32
sS'tropezando'
p238
I35
sS'after'
p239
I31
sS'odies'
p240
I35
sS'wrong'
p241
I35
sS'frat'
p242
I34
sS'mad'
p243
I35
sS'coming'
p244
I35
sS'salsa'
p245
I35
sS'cuesta'
p246
I35
sS'guys'
p247
I34
sS'types'
p248
I35
sS'man'
p249
I33
sS'a'
p250
I7
sS'calves'
p251
I35
sS'remember'
p252
I35
sS'famous'
p253
I34
sS'maybe'
p254
I35
sS'shady'
p255
I34
sS'sit'
p256
I35
sS'seconds'
p257
I35
sS'awww'
p258
I35
sS'idc'
p259
I34
sS'ehhhh'
p260
I34
sS'si'
p261
I35
sS'so'
p262
I15
sS'ultimate'
p263
I34
sS'banks'
p264
I35
sS'fan'
p265
I35
sS'playing'
p266
I35
sS'talk'
p267
I32
sS"that's"
p268
I32
sS'cute'
p269
I34
sS'mabey'
p270
I34
sS'help'
p271
I34
sS'zed'
p272
I35
sS"don't"
p273
I18
sS'over'
p274
I34
sS'sooo'
p275
I35
sS'soon'
p276
I35
sS'brain'
p277
I35
sS'through'
p278
I34
sS'looks'
p279
I34
sS'foreal'
p280
I34
sS'orgullo'
p281
I35
sS'cold'
p282
I35
sS'still'
p283
I29
sS'put'
p284
I35
sS'its'
p285
I35
sS'jotio'
p286
I35
sS'before'
p287
I33
sS'perfect'
p288
I35
sS'le'
p289
I34
sS'cobija'
p290
I35
sS'thank'
p291
I34
sS'destroyer'
p292
I35
sS'la'
p293
I31
sS'somewhere'
p294
I35
sS'lo'
p295
I33
sS'extra\xc3\xb1ar\xe2\x80\x9d'
p296
I35
sS'\xe2\x9c\x8b\xe2\x80\x9d'
p297
I34
sS'actually'
p298
I34
sS'corner*'
p299
I35
sS'tyler'
p300
I35
sS'choose'
p301
I35
sS'pena'
p302
I35
sS'personas'
p303
I35
sS'imy'
p304
I35
sS'bout'
p305
I35
sS'bye'
p306
I35
sS'might'
p307
I35
sS'uuuyyyy'
p308
I35
sS'then'
p309
I29
sS'them'
p310
I32
sS'good'
p311
I29
sS'somebody'
p312
I34
sS'yo'
p313
I31
sS'moms'
p314
I34
sS'weakness'
p315
I35
sS'introduce'
p316
I35
sS'hello\xe2\x80\x9d'
p317
I35
sS'answer'
p318
I35
sS'hurting'
p319
I35
sS'starbucks'
p320
I35
sS'they'
p321
I23
sS'half'
p322
I35
sS'not'
p323
I15
sS'now'
p324
I34
sS'day'
p325
I30
sS'nor'
p326
I35
sS'down'
p327
I30
sS'emojis'
p328
I35
sS'tupac'
p329
I35
sS'always'
p330
I32
sS'debating'
p331
I34
sS'm\xc3\xa1s'
p332
I32
sS'carol)'
p333
I35
sS'enamorada'
p334
I35
sS'each'
p335
I34
sS'found'
p336
I34
sS'went'
p337
I35
sS"isn't"
p338
I35
sS'mean'
p339
I33
sS'em'
p340
I34
sS'el'
p341
I31
sS'everyone'
p342
I33
sS'lowkey'
p343
I35
sS'illy'
p344
I35
sS'p'
p345
I35
sS'doing'
p346
I32
sS'house'
p347
I35
sS'energy'
p348
I35
sS'hard'
p349
I34
sS'brother'
p350
I35
sS'catching'
p351
I35
sS"we'd"
p352
I35
sS'forgot'
p353
I34
sS'our'
p354
I35
sS'girl'
p355
I32
sS'lalala'
p356
I35
sS'todo'
p357
I34
sS'en'
p358
I35
sS'es'
p359
I25
sS'out'
p360
I27
sS'rt'
p361
I32
sS'goo'
p362
I35
sS'gon'
p363
I35
sS'muera'
p364
I35
sS'driving'
p365
I35
sS'blackr'
p366
I35
sS'profit'
p367
I35
sS'god'
p368
I34
sS'childish'
p369
I35
sS'since'
p370
I35
sS'soooo'
p371
I35
sS'cuffing'
p372
I35
sS'smo'
p373
I35
sS'poco'
p374
I34
sS'acting'
p375
I35
sS'stupid'
p376
I35
sS'freshman'
p377
I35
sS'ily'
p378
I35
sS'smh'
p379
I34
sS'got'
p380
I31
sS'rn'
p381
I32
sS'cause'
p382
I35
sS'red'
p383
I34
sS'ass'
p384
I32
sS'foundation'
p385
I35
sS'shut'
p386
I33
sS'foam'
p387
I35
sS'whuuut'
p388
I35
sS"doesn't"
p389
I33
sS'misspelling'
p390
I35
sS'friday'
p391
I35
sS'little'
p392
I32
sS'free'
p393
I35
sS'spies'
p394
I35
sS'quick'
p395
I35
sS'reason'
p396
I34
sS'que'
p397
I28
sS'imagine'
p398
I35
sS'ask'
p399
I35
sS'asi'
p400
I35
sS'wanted'
p401
I34
sS'inevitable'
p402
I35
sS'certified'
p403
I34
sS'care'
p404
I33
sS'scary'
p405
I35
sS'starts'
p406
I35
sS'could'
p407
I34
sS'ohhhhhhhhhh'
p408
I35
sS'days'
p409
I35
sS'keep'
p410
I35
sS'thing'
p411
I34
sS'someone.\xe2\x80\x9d'
p412
I35
sS'birthday'
p413
I35
sS'place'
p414
I35
sS'ruined\xe2\x80\x9d'
p415
I35
sS'stuff'
p416
I35
sS'boys'
p417
I35
sS'think'
p418
I31
sS'drunk.\xe2\x80\x9d'
p419
I35
sS'first'
p420
I35
sS'major'
p421
I35
sS'already'
p422
I34
sS'desvelarse'
p423
I35
sS'dont'
p424
I34
sS'pick'
p425
I35
sS'feel'
p426
I33
sS'*'
p427
I35
sS'bossy'
p428
I35
sS'number'
p429
I35
sS'one'
p430
I28
sS'hamstring'
p431
I35
sS'dint'
p432
I35
sS'lol'
p433
I13
sS'another'
p434
I35
sS'sober'
p435
I35
sS'sounds'
p436
I35
sS'miss'
p437
I31
sS'tomorrow'
p438
I32
sS'hood'
p439
I35
sS'prank'
p440
I35
sS"you're"
p441
I28
sS'guess'
p442
I33
sS"water's"
p443
I35
sS'bonita'
p444
I35
sS'los'
p445
I35
sS'bruhh\xe2\x80\x9d'
p446
I35
sS'approximately'
p447
I35
sS'anyone'
p448
I34
sS'their'
p449
I34
sS'2'
p450
I34
sS'too'
p451
I31
sS'hollywood'
p452
I35
sS'spotting'
p453
I35
sS'speaking'
p454
I34
sS'eyes'
p455
I34
sS'way'
p456
I33
sS'big'
p457
I35
sS'that'
p458
I16
sS'saturday.\xe2\x80\x9d'
p459
I35
sS'season'
p460
I35
sS'park'
p461
I33
sS'berrinches'
p462
I35
sS'trippy'
p463
I35
sS'viewing'
p464
I35
sS'part'
p465
I35
sS'knocks'
p466
I35
sS'.1'
p467
I35
sS'chasing'
p468
I35
sS'sign'
p469
I35
sS'herself'
p470
I35
sS'than'
p471
I33
sS'kkk\xe2\x80\x9d'
p472
I35
sS'undertaker'
p473
I35
sS'grew'
p474
I35
sS'lmao'
p475
I27
sS'06:59:43.0,34.1116861,-118.1982478,1835.20,setting'
p476
I35
sS'gotta'
p477
I33
sS'goodnight'
p478
I35
sS'hesitating'
p479
I35
sS'matter'
p480
I34
sS'dank'
p481
I35
sS'friend'
p482
I34
sS'were'
p483
I35
sS'asleep'
p484
I35
sS'feeling'
p485
I34
sS'bet'
p486
I35
sS'anyways'
p487
I35
sS'and'
p488
I10
sS'rag'
p489
I34
sS'piece'
p490
I35
sS'sea'
p491
I35
sS'whut'
p492
I35
sS'ran'
p493
I34
sS'mind'
p494
I32
sS'mine'
p495
I35
sS'sad'
p496
I34
sS'tonight'
p497
I35
sS'talking'
p498
I33
sS'say'
p499
I33
sS'importo'
p500
I35
sS'have'
p501
I29
sS'lurking'
p502
I35
sS'need'
p503
I33
sS'seen'
p504
I33
sS'fun.!"'
p505
I35
sS'deuces'
p506
I35
sS'saw'
p507
I35
sS'tells'
p508
I35
sS'you*'
p509
I35
sS'lie'
p510
I34
sS'issue'
p511
I35
sS'filming'
p512
I35
sS'dildo'
p513
I35
sS'trapped'
p514
I35
sS'-'
p515
I35
sS'ideas'
p516
I35
sS'couch'
p517
I35
sS'cortante'
p518
I35
sS'omfg'
p519
I35
sS'squad'
p520
I35
sS'square'
p521
I35
sS'take'
p522
I29
sS'which'
p523
I35
sS'wanting'
p524
I35
sS'rides'
p525
I35
sS'sure'
p526
I35
sS'unless'
p527
I35
sS'wha'
p528
I35
sS'normal'
p529
I35
sS'aww'
p530
I34
sS'temprano'
p531
I35
sS'who'
p532
I27
sS'sue'
p533
I35
sS'cerebro'
p534
I35
sS'business2'
p535
I35
sS'duele'
p536
I35
sS'awk'
p537
I34
sS'girlfriends'
p538
I35
sS'cracking'
p539
I35
sS'net'
p540
I35
sS'nothing'
p541
I34
sS'facial'
p542
I35
sS'why'
p543
I24
sS'forever'
p544
I34
sS'appeared\xe2\x80\x9d'
p545
I35
sS'\xe2\x9c\x8c\xef\xb8\x8f\xe2\x9c\x8a'
p546
I35
sS'saddest'
p547
I35
sS'medical'
p548
I35
sS'sometimes'
p549
I34
sS'clubbing'
p550
I35
sS'hungry'
p551
I35
sS'doe'
p552
I34
sS'looked'
p553
I34
sS"you'll"
p554
I34
sS'metas'
p555
I35
sS'park)'
p556
I35
sS'se'
p557
I35
sS'clean'
p558
I35
sS'urs'
p559
I35
sS'girlz'
p560
I35
sS'sweater'
p561
I35
sS'tubes'
p562
I35
sS'wow'
p563
I33
sS'fact'
p564
I35
sS'wild'
p565
I35
sS'ugh'
p566
I33
sS'bomb'
p567
I34
sS'\xe2\x9c\xa8'
p568
I35
sS'show'
p569
I35
sS'females'
p570
I35
sS'random'
p571
I34
sS'pussy'
p572
I35
sS'anyway'
p573
I35
sS'stfu'
p574
I35
sS'hace'
p575
I35
sS'chicken'
p576
I35
sS'longer'
p577
I35
sS'fine'
p578
I34
sS'find'
p579
I33
sS'shoes'
p580
I35
sS'sharks'
p581
I35
sS'busy'
p582
I35
sS'bff'
p583
I34
sS'('
p584
I34
sS'dick'
p585
I35
sS'tosh.o'
p586
I35
sS'should'
p587
I30
sS'being'
p588
I32
sS'only'
p589
I32
sS'going'
p590
I32
sS'black'
p591
I35
sS'goku'
p592
I35
sS'tantas'
p593
I35
sS'watching'
p594
I35
sS'spice'
p595
I35
sS'valga'
p596
I35
sS'hope'
p597
I34
sS'meant'
p598
I35
sS'do'
p599
I24
sS'his'
p600
I29
sS'hit'
p601
I35
sS'$2'
p602
I35
sS'gratis'
p603
I35
sS'get'
p604
I20
sS'thanks.\xe2\x80\x9d'
p605
I35
sS'de'
p606
I32
sS'stop'
p607
I27
sS'nasty'
p608
I35
sS'tbh'
p609
I25
sS'feels'
p610
I35
sS'\xe2\x97\xbc\xef\xb8\x8f\xe2\x96\xab\xef\xb8\x8f\xe2\x96\xaa\xef\xb8\x8f\xe2\x97\xbb\xef\xb8\x8f\xe2\x97\xbe\xef\xb8\x8f'
p611
I35
sS'stars'
p612
I35
sS'opcional'
p613
I35
sS'wedding'
p614
I35
sS'dye'
p615
I35
sS'omgosh'
p616
I35
sS'him'
p617
I32
sS'freaking'
p618
I35
sS'sadface'
p619
I35
sS'enemy'
p620
I35
sS'rft'
p621
I35
sS'public.\xe2\x80\x9d'
p622
I35
sS'cry'
p623
I34
sS'kylie'
p624
I35
sS'cr\xc3\xa9eme'
p625
I35
sS'morning'
p626
I35
sS'bad'
p627
I35
sS'bae'
p628
I32
sS'fault'
p629
I35
sS'she'
p630
I34
sS'tbfh'
p631
I34
sS"won't"
p632
I34
sS'where'
p633
I33
sS'ears'
p634
I35
sS"y'all"
p635
I33
sS'chasers'
p636
I35
sS'set'
p637
I35
sS'creator'
p638
I35
sS'enamorarse'
p639
I35
sS'facetimed'
p640
I35
sS'weird\xe2\x80\x9d'
p641
I35
sS'seat'
p642
I35
sS'see'
p643
I34
sS'dumb'
p644
I34
sS'are'
p645
I18
sS'buzzed'
p646
I34
sS'hoes'
p647
I34
sS'close'
p648
I35
sS'vacaciones'
p649
I35
sS'acts'
p650
I35
sS'best'
p651
I35
sS'wonder'
p652
I35
sS'mexicana'
p653
I35
sS'fails'
p654
I34
sS'said'
p655
I30
sS'pictures'
p656
I35
sS'away'
p657
I33
sS'09'
p658
I35
sS'please'
p659
I35
sS'3'
p660
I35
sS"there's"
p661
I34
sS'closed'
p662
I35
sS'between'
p663
I34
sS'pist'
p664
I35
sS'reading'
p665
I35
sS'nope'
p666
I35
sS'subtweets'
p667
I35
sS'we'
p668
I22
sS'loose'
p669
I35
sS'omg'
p670
I34
sS'bed'
p671
I35
sS'parent'
p672
I35
sS'mexicans'
p673
I35
sS'spoiled'
p674
I35
sS'deliver'
p675
I35
sS'blame'
p676
I35
sS'job'
p677
I34
sS'apes'
p678
I35
sS'(los'
p679
I35
sS'wtf'
p680
I34
sS'sitting'
p681
I35
sS'cousin'
p682
I35
sS'contigo"'
p683
I35
sS'come'
p684
I33
sS'pissed'
p685
I35
sS'cop'
p686
I35
sS'c'
p687
I35
sS'accident'
p688
I35
sS'last'
p689
I32
sS'brown'
p690
I35
sS'met'
p691
I34
sS'thou'
p692
I33
sS'many'
p693
I33
sS'ill'
p694
I35
sS"he's"
p695
I32
sS'ahora'
p696
I34
sS'oh'
p697
I35
sS'called'
p698
I35
sS'una'
p699
I35
sS's'
p700
I34
sS'became'
p701
I35
sS'quien'
p702
I35
sS'thoe'
p703
I35
sS'china'
p704
I35
sS'passing'
p705
I35
sS'highland'
p706
I32
sS'safely'
p707
I35
sS"can't"
p708
I32
sS'con'
p709
I34
sS'drunk'
p710
I35
sS'-__-'
p711
I35
sS'ca'
p712
I35
sS'jk'
p713
I35
sS'por'
p714
I35
sS'whatever'
p715
I35
sS'2nd'
p716
I35
sS'narcotraficante'
p717
I35
sS'money3'
p718
I35
sS'pole'
p719
I35
sS'non'
p720
I35
sS'routine'
p721
I35
sS'news'
p722
I35
sS'respect'
p723
I34
sS'blonde'
p724
I35
sS'trust'
p725
I32
sS'expensive'
p726
I35
sS'san'
p727
I35
sS'duh'
p728
I35
sS'better'
p729
I35
sS'most'
p730
I35
sS'yay'
p731
I33
sS'raise'
p732
I35
sS'puts'
p733
I35
sS'swimmer'
p734
I35
sS"it's"
p735
I21
sS'ca)'
p736
I35
sS'been'
p737
I32
sS'quickly'
p738
I35
sS'beer'
p739
I35
sS'much'
p740
I34
sS'damn'
p741
I33
sS'bby'
p742
I33
sS'waste'
p743
I35
sS'meeting'
p744
I35
sS'qu\xc3\xa9'
p745
I34
sS'wants'
p746
I34
sS'life'
p747
I23
sS'kkk'
p748
I35
sS'relaxing'
p749
I35
sS'girls'
p750
I35
sS'fire'
p751
I35
sS'turned'
p752
I35
sS'face'
p753
I35
sS'gas'
p754
I35
sS'mariposa'
p755
I35
sS'"shop"'
p756
I35
sS'else'
p757
I34
sS'orange'
p758
I35
sS'finished'
p759
I35
sS'tfti'
p760
I35
sS'wake'
p761
I33
sS'quickest'
p762
I35
sS'aries'
p763
I35
sS'niece'
p764
I35
sS'those'
p765
I35
sS'chill'
p766
I35
sS'case'
p767
I35
sS'myself'
p768
I35
sS'definetly'
p769
I35
sS'look'
p770
I34
sS'turns'
p771
I35
sS'these'
p772
I34
sS'straight'
p773
I35
sS'brat'
p774
I35
sS'n'
p775
I35
sS'will'
p776
I30
sS'cast'
p777
I35
sS'ratchet'
p778
I35
sS'dude'
p779
I35
sS'fun'
p780
I34
sS'situation'
p781
I35
sS'took'
p782
I35
sS'pack'
p783
I35
sS'*cuts'
p784
I35
sS'dad'
p785
I35
sS'almost'
p786
I35
sS'aqua'
p787
I35
sS'is'
p788
I14
sS'coffee'
p789
I34
sS'shame'
p790
I35
sS'someone'
p791
I28
sS'embrace'
p792
I35
sS'nigguhs'
p793
I35
sS'swinging'
p794
I35
sS'in'
p795
I15
sS'cook'
p796
I35
sS'bucks'
p797
I35
sS'/:<'
p798
I35
sS'obnoxious'
p799
I35
sS'breakfast'
p800
I35
sS'whore'
p801
I35
sS'if'
p802
I22
sS'jenner'
p803
I35
sS'funny'
p804
I33
sS'different'
p805
I35
sS'annoying'
p806
I35
sS'open'
p807
I35
sS'things'
p808
I32
sS'make'
p809
I35
sS'belong'
p810
I35
sS'some1'
p811
I35
sS'pussies'
p812
I35
sS'same'
p813
I26
sS'shifts'
p814
I35
sS'poetic'
p815
I35
sS'followers'
p816
I35
sS'argue'
p817
I35
sS'utilice'
p818
I35
sS'texting'
p819
I35
sS'party'
p820
I32
sS'gets'
p821
I34
sS'strips'
p822
I35
sS'drink'
p823
I35
sS'hang'
p824
I35
sS'yesterday'
p825
I35
sS'rain'
p826
I35
sS'hand'
p827
I34
sS'moment'
p828
I34
sS'compared'
p829
I35
sS'lol\xe2\x80\x9d'
p830
I35
sS'fucked'
p831
I31
sS'build'
p832
I35
sS'kia'
p833
I35
sS'totally'
p834
I34
sS"he'll"
p835
I35
sS'"quiero'
p836
I35
sS'banda'
p837
I35
sS'no1\xe2\x80\x9d'
p838
I35
sS'off'
p839
I31
sS'entre'
p840
I34
sS'romp'
p841
I35
sS'i'
p842
I2
sS'makes'
p843
I35
sS'well'
p844
I35
sS'romanticising'
p845
I35
sS'obviously'
p846
I35
sS'thought'
p847
I31
sS'person'
p848
I33
sS'without'
p849
I34
sS'oops'
p850
I35
sS'easily'
p851
I35
sS'y'
p852
I31
sS'gift'
p853
I35
sS'the'
p854
I3
sS'uno'
p855
I34
sS'yours'
p856
I35
sS'amazed'
p857
I35
sS'left'
p858
I34
sS'summer'
p859
I34
sS'disloyal'
p860
I35
sS'\xe2\x98\xba\xef\xb8\x8f'
p861
I34
sS'just'
p862
I11
sS'less'
p863
I34
sS'yea'
p864
I30
sS'money'
p865
I33
sS'stepbrothers'
p866
I35
sS'cuco'
p867
I35
sS'wifey'
p868
I35
sS'using'
p869
I35
sS'yes'
p870
I34
sS'quema'
p871
I35
sS'happiness'
p872
I35
sS'procrastinating'
p873
I35
sS'tables'
p874
I35
sS'yr'
p875
I35
sS'cup'
p876
I35
sS'cherry'
p877
I35
sS'drive'
p878
I35
sS'had'
p879
I30
sS'except'
p880
I35
sS'complain'
p881
I35
sS'sixflags'
p882
I35
sS'confessions'
p883
I35
sS'wet'
p884
I33
sS'has'
p885
I32
sS'homework'
p886
I35
sS'gave'
p887
I33
sS'real'
p888
I32
sS'nozz'
p889
I34
sS'rednecks'
p890
I35
sS'b-day\xe2\x80\x9d'
p891
I35
sS'importante'
p892
I34
sS'replaced'
p893
I35
sS"women's"
p894
I35
sS'chapter'
p895
I35
sS'gonna'
p896
I28
sS'allowance'
p897
I35
sS'early'
p898
I35
sS'game'
p899
I34
sS'bruuuh'
p900
I35
sS'bitch'
p901
I35
sS'know'
p902
I26
sS'mom'
p903
I28
sS'incendio'
p904
I35
sS'judge'
p905
I35
sS'world'
p906
I33
sS'bit'
p907
I34
sS'walk'
p908
I35
sS'flannel'
p909
I35
sS'delgada'
p910
I35
sS'like'
p911
I9
sS'lost'
p912
I34
sS'escuch\xc3\xb3'
p913
I35
sS'honestly'
p914
I35
sS'ignore'
p915
I35
sS'ignora'
p916
I35
sS'nose'
p917
I35
sS'night'
p918
I33
sS'amor'
p919
I33
sS'works'
p920
I34
sS'hmu'
p921
I35
sS'likes'
p922
I35
sS'"bae"'
p923
I35
sS'because'
p924
I35
sS'old'
p925
I35
sS'noo'
p926
I35
sS'people'
p927
I25
sS'fucking'
p928
I32
sS'fatcamp'
p929
I35
sS'scared'
p930
I34
sS'semana'
p931
I35
sS'some'
p932
I28
sS'back'
p933
I31
sS'?\xe2\x80\x9d'
p934
I34
sS'50'
p935
I35
sS'hair'
p936
I32
sS'choosing'
p937
I35
sS'home'
p938
I35
sS'tato'
p939
I35
sS'finna'
p940
I35
sS'98%'
p941
I35
sS'sanity'
p942
I35
sS'doing\xe2\x80\x9d'
p943
I35
sS'bounce'
p944
I35
sS'for'
p945
I22
sS'richer'
p946
I35
sS'tube'
p947
I35
sS'foosbsll'
p948
I35
sS'per'
p949
I35
sS'tho'
p950
I35
sS'everything'
p951
I35
sS'asking'
p952
I35
sS'sino'
p953
I35
sS'eso'
p954
I35
sS'pee'
p955
I35
sS'dia'
p956
I35
sS'be'
p957
I20
sS'bf'
p958
I34
sS'eating'
p959
I35
sS'weird'
p960
I35
sS'bc'
p961
I24
sS'lmfao'
p962
I34
sS'hay'
p963
I35
sS'plz'
p964
I34
sS'snake'
p965
I35
sS'yeap'
p966
I35
sS'how'
p967
I22
sS'lover'
p968
I35
sS'although'
p969
I35
sS'okok'
p970
I35
sS'everyday'
p971
I35
sS'eye'
p972
I35
sS'falls'
p973
I35
sS'ducking'
p974
I35
sS'trophy'
p975
I35
sS'on'
p976
I22
sS'about'
p977
I28
sS':-)'
p978
I31
sS'ok'
p979
I34
sS'would'
p980
I33
sS'anything'
p981
I33
sS'getting'
p982
I35
sS'of'
p983
I15
sS'strangers'
p984
I35
sS'baes'
p985
I35
sS'favorite'
p986
I34
sS':-$'
p987
I35
sS'fun\xe2\x80\x9d'
p988
I35
sS'idk'
p989
I34
sS'year!,90042\n480575166292840448,nicksvnchez,2014-06-22'
p990
I35
sS'mouth'
p991
I35
sS'definition'
p992
I35
sS'wanna'
p993
I26
sS'or'
p994
I30
sS'plan'
p995
I35
sS'nah.\xe2\x80\x9dless'
p996
I35
sS'equally'
p997
I35
sS'own'
p998
I33
sS'whites'
p999
I35
sS'visit'
p1000
I35
sS'into'
p1001
I33
sS'ppl'
p1002
I34
sS'puhleez'
p1003
I34
sS'quiero'
p1004
I35
sS'momma'
p1005
I35
sS'weather'
p1006
I34
sS'promise'
p1007
I35
sS'cent'
p1008
I35
sS'nephews'
p1009
I35
sS'soy'
p1010
I33
sS'by\xe2\x80\x9d'
p1011
I35
sS'your'
p1012
I24
sS"07:04:20.0,34.1116861,-118.1982478,1835.20,knott's"
p1013
I35
sS'she\xe2\x80\xa6'
p1014
I35
sS'"babes"'
p1015
I35
sS'.-'
p1016
I35
sS'area'
p1017
I35
sS'change.\xe2\x80\x9d'
p1018
I35
sS'weekend'
p1019
I34
sS'there'
p1020
I32
sS'telemundo'
p1021
I35
sS'long'
p1022
I34
sS'noticed'
p1023
I35
sS'start'
p1024
I32
sS'lonely'
p1025
I35
sS'drank'
p1026
I35
sS"we're"
p1027
I35
sS'lot'
p1028
I31
sS'bruh'
p1029
I34
sS'forward'
p1030
I35
sS'vas'
p1031
I35
sS'yrs'
p1032
I35
sS'was'
p1033
I18
sS'twitter'
p1034
I34
sS'purposely'
p1035
I35
sS'happy'
p1036
I33
sS'l\xc3\xadnea'
p1037
I35
sS'buy'
p1038
I34
sS'invite'
p1039
I35
sS"i've"
p1040
I34
sS'coke'
p1041
I35
sS'6'
p1042
I35
sS'but'
p1043
I13
sS'crys'
p1044
I35
sS'reminds'
p1045
I35
sS'idgaf'
p1046
I35
sS'hopes'
p1047
I35
sS'when!\xe2\x80\x9d'
p1048
I35
sS'trying'
p1049
I35
sS'with'
p1050
I17
sS'eat'
p1051
I33
sS'he'
p1052
I28
sS'card'
p1053
I35
sS'b4'
p1054
I35
sS'responding'
p1055
I35
sS'uy'
p1056
I35
sS'dominican'
p1057
I35
sS'levantarse'
p1058
I35
sS'whether'
p1059
I35
sS'wish'
p1060
I34
sS'inside'
p1061
I34
sS'darker'
p1062
I35
sS'attached'
p1063
I35
sS'up'
p1064
I13
sS'us'
p1065
I32
sS'ur'
p1066
I34
sS'planet'
p1067
I35
sS'lagging'
p1068
I35
sS'un'
p1069
I34
sS'nicest'
p1070
I35
sS'woke'
p1071
I35
sS'problem'
p1072
I35
sS'loving'
p1073
I35
sS'temper'
p1074
I35
sS'eduardo'
p1075
I35
sS'this>'
p1076
I35
sS'605'
p1077
I35
sS'devastating'
p1078
I35
sS'entiende'
p1079
I35
sS'af'
p1080
I31
sS'taste'
p1081
I35
sS'dure'
p1082
I34
sS'year'
p1083
I34
sS'am'
p1084
I32
sS'mike'
p1085
I35
sS'esco'
p1086
I35
sS'an'
p1087
I31
sS'twist'
p1088
I35
sS'as'
p1089
I30
sS'proves'
p1090
I35
sS'right'
p1091
I35
sS'at'
p1092
I24
sS'mejor'
p1093
I34
sS'babe'
p1094
I34
sS'explains'
p1095
I35
sS'shit'
p1096
I31
sS'stripper'
p1097
I34
sS'again'
p1098
I31
sS'soccer'
p1099
I35
sS'gustas"'
p1100
I35
sS'gay'
p1101
I35
sS'no'
p1102
I15
sS'tooturntproblemz'
p1103
I35
sS'commercials'
p1104
I35
sS'peace'
p1105
I35
sS'when'
p1106
I20
sS'other'
p1107
I32
sS'5'
p1108
I33
sS'becomes'
p1109
I35
sS'coked'
p1110
I35
sS'you'
p1111
I4
sS'really'
p1112
I32
sS'nice'
p1113
I35
sS'picture'
p1114
I35
sS'raided'
p1115
I35
sS'movies\xe2\x80\x9d'
p1116
I35
sS'so.\xe2\x80\x9d'
p1117
I35
sS'unmention'
p1118
I35
sS'surprise'
p1119
I35
sS'problems'
p1120
I35
sS'bottom'
p1121
I35
sS'stay'
p1122
I32
sS"let's"
p1123
I34
sS'chance'
p1124
I35
sS'kinda'
p1125
I35
sS"she's"
p1126
I34
sS'chris'
p1127
I35
sS'hurt'
p1128
I33
sS'friends'
p1129
I30
sS'senior'
p1130
I35
sS'im'
p1131
I35
sS'faster'
p1132
I35
sS'fund'
p1133
I35
sS'assume'
p1134
I35
sS'fevers'
p1135
I35
sS'amused'
p1136
I35
sS'loyal'
p1137
I35
sS'algo'
p1138
I35
sS'u'
p1139
I28
sS'came'
p1140
I35
sS'time'
p1141
I28
sS'understand'
p1142
I34
sS'nash'
p1143
I34
sS'dehydrated'
p1144
I35
sS'having'
p1145
I34
s.