(dp0
S''
p1
I6
sS'all'
p2
I23
sS'jason'
p3
I27
sS':)'
p4
I22
sS'fre$h'
p5
I27
sS'yellow'
p6
I27
sS'sleep'
p7
I27
sS'asian'
p8
I27
sS'go'
p9
I25
sS'follow'
p10
I25
sS'hate'
p11
I27
sS'consider'
p12
I27
sS'replacements'
p13
I27
sS'yummy'
p14
I27
sS'marka'
p15
I27
sS'to'
p16
I5
sS'asking'
p17
I26
sS'record-breaking'
p18
I27
sS'those'
p19
I25
sS'must'
p20
I26
sS'me'
p21
I13
sS'worse'
p22
I27
sS'bowers'
p23
I27
sS'song'
p24
I27
sS'far'
p25
I27
sS'smh'
p26
I27
sS'hermon'
p27
I27
sS'fall'
p28
I27
sS'ma'
p29
I27
sS'hemp'
p30
I27
sS'difference'
p31
I27
sS'cool'
p32
I27
sS'entire'
p33
I27
sS'level'
p34
I26
sS'did'
p35
I24
sS'dig'
p36
I27
sS'list'
p37
I27
sS'gun'
p38
I27
sS'turnt'
p39
I27
sS'try'
p40
I25
sS'p'
p41
I27
sS'independence'
p42
I27
sS'team'
p43
I26
sS'guy'
p44
I27
sS'tru'
p45
I27
sS'round'
p46
I26
sS'booty'
p47
I27
sS'fence'
p48
I27
sS'tired'
p49
I27
sS'bravo'
p50
I27
sS'yourself'
p51
I27
sS'nail'
p52
I27
sS'likely'
p53
I27
sS'fabulous'
p54
I27
sS'even'
p55
I27
sS'what'
p56
I20
sS'christ'
p57
I27
sS'giving'
p58
I27
sS':0'
p59
I27
sS'+'
p60
I27
sS'enjoyed'
p61
I27
sS'crush'
p62
I27
sS'lights'
p63
I27
sS'above'
p64
I27
sS'new'
p65
I25
sS'ever'
p66
I26
sS'dias'
p67
I27
sS'hating"'
p68
I27
sS'told'
p69
I27
sS'hungover'
p70
I27
sS'never'
p71
I27
sS'here'
p72
I24
sS'water'
p73
I27
sS'\xe2\x9d\xa4\xef\xb8\x8f'
p74
I27
sS'focused'
p75
I27
sS'pancake'
p76
I27
sS'meet'
p77
I27
sS'alone'
p78
I27
sS'path'
p79
I27
sS'100'
p80
I27
sS'chelseytran'
p81
I27
sS'yds'
p82
I27
sS'change'
p83
I26
sS'wait'
p84
I26
sS'great'
p85
I26
sS'healthy'
p86
I27
sS'study'
p87
I27
sS'guilty'
p88
I27
sS'creepy'
p89
I27
sS'credit'
p90
I27
sS'airport'
p91
I27
sS'smoke'
p92
I27
sS'social'
p93
I27
sS"i'm"
p94
I20
sS'fantastic'
p95
I26
sS'love'
p96
I26
sS'hw'
p97
I27
sS'prefer'
p98
I27
sS'cheeers'
p99
I27
sS'feelings'
p100
I27
sS'thrust'
p101
I27
sS'market'
p102
I24
sS'standing'
p103
I27
sS'use'
p104
I27
sS'puberty.\xe2\x80\x9d'
p105
I27
sS'from'
p106
I24
sS'working'
p107
I27
sS'&'
p108
I24
sS'achieve'
p109
I27
sS'visit'
p110
I27
sS'two'
p111
I25
sS'sports'
p112
I27
sS'parties'
p113
I27
sS'few'
p114
I27
sS'ca)'
p115
I27
sS'bike'
p116
I27
sS'call'
p117
I26
sS'm3'
p118
I27
sS'is'
p119
I10
sS'today'
p120
I25
sS'more'
p121
I23
sS'presumes'
p122
I27
sS'tennis'
p123
I26
sS'company'
p124
I27
sS'apparent'
p125
I27
sS'haha'
p126
I26
sS'about'
p127
I25
sS'"i'
p128
I27
sS'beers'
p129
I27
sS'baby'
p130
I27
sS'cases'
p131
I27
sS'hurry'
p132
I27
sS'glad'
p133
I27
sS'women'
p134
I27
sS'customer'
p135
I27
sS'keeping'
p136
I27
sS'word'
p137
I27
sS'room'
p138
I26
sS'hour'
p139
I27
sS'niggas'
p140
I26
sS'this'
p141
I16
sS'car'
p142
I27
sS'ride'
p143
I27
sS'work'
p144
I25
sS'sucks'
p145
I27
sS'soul'
p146
I27
sS'vs'
p147
I27
sS'can'
p148
I19
sS'following'
p149
I27
sS'making'
p150
I27
sS'my'
p151
I12
sS'history'
p152
I27
sS'beautiful'
p153
I27
sS'hip'
p154
I27
sS'cornflakes'
p155
I27
sS'december'
p156
I27
sS'awesome'
p157
I26
sS"didn't"
p158
I25
sS'fuck'
p159
I24
sS'tad'
p160
I27
sS'heard'
p161
I27
sS'want'
p162
I26
sS'keep'
p163
I27
sS'dutchess'
p164
I27
sS'homicide'
p165
I27
sS'needs'
p166
I27
sS'sit'
p167
I26
sS'watching'
p168
I27
sS'vehicular'
p169
I27
sS'1'
p170
I27
sS'how'
p171
I26
sS'hot'
p172
I26
sS'low'
p173
I27
sS'buenos'
p174
I27
sS'galleria'
p175
I27
sS'nyc'
p176
I27
sS'chase'
p177
I27
sS'beach'
p178
I27
sS"doesn't"
p179
I27
sS'staying'
p180
I27
sS'de'
p181
I27
sS'okay'
p182
I27
sS'plans'
p183
I27
sS'beauty'
p184
I27
sS'rudd'
p185
I27
sS'replacing'
p186
I27
sS'max'
p187
I27
sS'after'
p188
I27
sS'sneak'
p189
I27
sS'lab'
p190
I27
sS'fart'
p191
I27
sS'birthday'
p192
I27
sS'brands'
p193
I27
sS'coming'
p194
I27
sS'guys'
p195
I26
sS'man'
p196
I27
sS'a'
p197
I3
sS'criticize'
p198
I27
sS'remember'
p199
I27
sS'maybe'
p200
I25
sS'shady'
p201
I27
sS'appreciate'
p202
I27
sS'seco'
p203
I27
sS'so'
p204
I20
sS'belle'
p205
I27
sS'pleasure'
p206
I27
sS"that's"
p207
I26
sS'exclusive'
p208
I27
sS'fattest'
p209
I27
sS"don't"
p210
I20
sS'serve'
p211
I27
sS'over'
p212
I27
sS'soon'
p213
I26
sS'years'
p214
I26
sS'course'
p215
I27
sS'still'
p216
I25
sS'its'
p217
I25
sS'before'
p218
I27
sS'25'
p219
I27
sS'le'
p220
I27
sS'la'
p221
I25
sS'smoothie'
p222
I27
sS'interesting'
p223
I27
sS'howdy'
p224
I27
sS'solving'
p225
I27
sS'better'
p226
I26
sS'window'
p227
I27
sS'fade'
p228
I27
sS'founders'
p229
I27
sS'followers'
p230
I27
sS'might'
p231
I25
sS'easier'
p232
I27
sS"haven't"
p233
I27
sS'dad'
p234
I27
sS'then'
p235
I27
sS'tonic'
p236
I27
sS'good'
p237
I20
sS'ya'
p238
I27
sS'conversations'
p239
I27
sS'practice'
p240
I27
sS'woulda'
p241
I27
sS'scene'
p242
I27
sS'dat'
p243
I27
sS'\xe2\x98\xba\xef\xb8\x8f'
p244
I27
sS'half'
p245
I27
sS'not'
p246
I25
sS'now'
p247
I23
sS'day'
p248
I26
sS'porto'
p249
I27
sS'name'
p250
I27
sS'sundays'
p251
I27
sS'debut'
p252
I27
sS'bless'
p253
I27
sS'--'
p254
I26
sS'token'
p255
I27
sS'found'
p256
I27
sS'side'
p257
I27
sS'mean'
p258
I27
sS'wheel'
p259
I27
sS'everyone'
p260
I26
sS'delicious'
p261
I27
sS'doing'
p262
I25
sS'house'
p263
I27
sS'hard'
p264
I25
sS'related'
p265
I27
sS'manifesto'
p266
I27
sS'connect'
p267
I27
sS'.....mayyyyybbbeeeee'
p268
I27
sS'year'
p269
I27
sS'our'
p270
I27
sS'girl'
p271
I27
sS'saturday'
p272
I27
sS'special'
p273
I27
sS'out'
p274
I17
sS'leave'
p275
I26
sS'funding'
p276
I27
sS'attend'
p277
I27
sS'driving'
p278
I26
sS'factors'
p279
I27
sS'god'
p280
I27
sS'ha'
p281
I27
sS'since'
p282
I25
sS'bday'
p283
I27
sS'seriously'
p284
I27
sS'health'
p285
I26
sS'internet'
p286
I27
sS'dinner'
p287
I27
sS'got'
p288
I22
sS'red'
p289
I27
sS'shows'
p290
I27
sS'ass'
p291
I27
sS'cigar'
p292
I27
sS"zedd's"
p293
I27
sS'friday'
p294
I27
sS'little'
p295
I27
sS'quite'
p296
I26
sS'glendale'
p297
I27
sS'ask'
p298
I27
sS'steering'
p299
I27
sS'aisle'
p300
I27
sS'owners'
p301
I27
sS'fantasy)'
p302
I27
sS'carnival'
p303
I27
sS'crashed'
p304
I27
sS'could'
p305
I26
sS'put'
p306
I27
sS'days'
p307
I26
sS'times'
p308
I27
sS'thing'
p309
I27
sS'49ers'
p310
I27
sS'place'
p311
I27
sS"today's"
p312
I27
sS'laundry'
p313
I27
sS'moving'
p314
I27
sS'retail'
p315
I27
sS'(at'
p316
I27
sS'think'
p317
I24
sS'fuckin'
p318
I27
sS'first'
p319
I24
sS'emotion'
p320
I27
sS'already'
p321
I26
sS'guessing'
p322
I27
sS'feel'
p323
I27
sS'empowering'
p324
I27
sS'coding'
p325
I27
sS'number'
p326
I27
sS'one'
p327
I22
sS'floors'
p328
I27
sS'done'
p329
I27
sS'another'
p330
I27
sS'says'
p331
I27
sS'tomorrow'
p332
I26
sS'blunts'
p333
I27
sS"you're"
p334
I23
sS'guess'
p335
I27
sS'fascinating'
p336
I27
sS'los'
p337
I27
sS'leading'
p338
I26
sS'myspace'
p339
I27
sS'needed'
p340
I26
sS'too'
p341
I24
sS'tom'
p342
I27
sS'meat/water'
p343
I27
sS'hollywood'
p344
I27
sS'bitter'
p345
I27
sS'banana'
p346
I27
sS'mermaid'
p347
I27
sS'headache'
p348
I26
sS'malibu'
p349
I27
sS'selling'
p350
I27
sS'lot'
p351
I27
sS'that'
p352
I14
sS'nobody'
p353
I27
sS'park'
p354
I22
sS'took'
p355
I27
sS'lists'
p356
I27
sS'slider'
p357
I27
sS'dudes'
p358
I27
sS'nigga'
p359
I27
sS'cereal'
p360
I27
sS'thai'
p361
I26
sS'than'
p362
I24
sS'character'
p363
I27
sS'kind'
p364
I27
sS'b'
p365
I27
sS'jam'
p366
I27
sS'hike'
p367
I26
sS'gotta'
p368
I26
sS'shower'
p369
I27
sS'determined'
p370
I27
sS'friend'
p371
I27
sS'lover'
p372
I27
sS'listen'
p373
I26
sS'and'
p374
I8
sS'coconut'
p375
I27
sS'investors'
p376
I27
sS'partnership'
p377
I27
sS'turned'
p378
I27
sS'slap'
p379
I27
sS'tonight'
p380
I27
sS'attention-getter'
p381
I27
sS'have'
p382
I17
sS'need'
p383
I21
sS'seen'
p384
I27
sS'seem'
p385
I27
sS'turn'
p386
I27
sS'any'
p387
I26
sS'sell'
p388
I27
sS'u.s'
p389
I27
sS'drunk'
p390
I27
sS'min'
p391
I27
sS'self'
p392
I27
sS'-'
p393
I27
sS'isolated'
p394
I27
sS'also'
p395
I26
sS'ideal'
p396
I27
sS'potential'
p397
I27
sS'take'
p398
I25
sS'which'
p399
I27
sS'somtimes'
p400
I27
sS'wanting'
p401
I27
sS';-)'
p402
I26
sS'pain'
p403
I27
sS'lightskin'
p404
I27
sS'though'
p405
I25
sS'huh'
p406
I27
sS'price'
p407
I27
sS'who'
p408
I25
sS'fresco'
p409
I25
sS'ahead\xe2\x80\xa6'
p410
I27
sS'boiling'
p411
I27
sS'printed'
p412
I27
sS'knee'
p413
I27
sS'kay'
p414
I27
sS'extremely'
p415
I27
sS'why'
p416
I26
sS'(mochilla)'
p417
I27
sS'kb'
p418
I27
sS'chemistry'
p419
I27
sS'professor'
p420
I27
sS'caatdrool'
p421
I27
sS'dog'
p422
I25
sS'face'
p423
I27
sS"you'll"
p424
I27
sS'definitely'
p425
I27
sS'blindddd'
p426
I27
sS'enterprise'
p427
I27
sS'wine'
p428
I27
sS'annoyed'
p429
I27
sS'fact'
p430
I27
sS'joining'
p431
I27
sS'survived'
p432
I27
sS'gold'
p433
I27
sS'show'
p434
I26
sS'enjoye'
p435
I27
sS'agreed'
p436
I25
sS'contemporary'
p437
I27
sS'biker'
p438
I27
sS'businesses'
p439
I27
sS'pump'
p440
I27
sS'range'
p441
I27
sS'fine'
p442
I27
sS'find'
p443
I27
sS'ground'
p444
I27
sS'\xe2\x9c\x8c'
p445
I27
sS'busy'
p446
I27
sS'\xe2\x9c\x8a'
p447
I27
sS'('
p448
I27
sS'3'
p449
I27
sS'karizma'
p450
I27
sS'should'
p451
I25
sS'only'
p452
I26
sS'going'
p453
I27
sS'pretty'
p454
I27
sS'wooo'
p455
I26
sS'hope'
p456
I27
sS'porque'
p457
I27
sS'do'
p458
I23
sS'his'
p459
I26
sS'hit'
p460
I25
sS'get'
p461
I24
sS'up:)'
p462
I27
sS'flirting'
p463
I27
sS'stop'
p464
I27
sS'mission'
p465
I27
sS'restocked'
p466
I27
sS'listed'
p467
I27
sS'words'
p468
I27
sS'vistir'
p469
I27
sS'during'
p470
I27
sS'freaking'
p471
I26
sS'prima'
p472
I27
sS'held'
p473
I27
sS'officially'
p474
I27
sS'suarez'
p475
I27
sS'ahhhhhhh'
p476
I27
sS'morninf'
p477
I27
sS'morning'
p478
I25
sS'bad'
p479
I27
sS'tunes'
p480
I27
sS'where'
p481
I26
sS'toe'
p482
I27
sS'btw'
p483
I27
sS'fair'
p484
I27
sS'qusta'
p485
I27
sS'w/'
p486
I27
sS'notice'
p487
I27
sS'see'
p488
I25
sS'defense'
p489
I27
sS'are'
p490
I24
sS'paul'
p491
I27
sS'wonder'
p492
I27
sS'knees'
p493
I27
sS'onto'
p494
I27
sS'bicyclist'
p495
I27
sS'away'
p496
I27
sS'currently'
p497
I27
sS'please'
p498
I27
sS'heading'
p499
I27
sS'meeeeee'
p500
I27
sS'enough'
p501
I26
sS"there's"
p502
I26
sS'neither'
p503
I27
sS'pirate'
p504
I27
sS':('
p505
I27
sS'solo'
p506
I27
sS'we'
p507
I15
sS'loose'
p508
I27
sS'august'
p509
I27
sS'beverages'
p510
I27
sS'weak'
p511
I27
sS'supermarket'
p512
I27
sS'killing'
p513
I27
sS'job'
p514
I25
sS'drink"'
p515
I27
sS'wtf'
p516
I27
sS'hurts'
p517
I26
sS'boss'
p518
I27
sS'come'
p519
I24
sS'staring'
p520
I27
sS'both'
p521
I26
sS'hits'
p522
I27
sS'last'
p523
I22
sS'psssssstt'
p524
I27
sS'many'
p525
I27
sS'ill'
p526
I27
sS'alot'
p527
I27
sS'let'
p528
I24
sS'highland'
p529
I26
sS"can't"
p530
I26
sS'con'
p531
I27
sS'twix'
p532
I27
sS'spliff'
p533
I26
sS'point'
p534
I27
sS'battery'
p535
I27
sS'smith'
p536
I27
sS'community'
p537
I25
sS'sampling'
p538
I27
sS'likes'
p539
I27
sS'kings'
p540
I27
sS'cu'
p541
I27
sS'math'
p542
I27
sS'pr'
p543
I27
sS'late'
p544
I27
sS'strong'
p545
I27
sS'publishing'
p546
I27
sS"it's"
p547
I23
sS'due'
p548
I26
sS'been'
p549
I23
sS'teacher'
p550
I27
sS'taste'
p551
I27
sS'much'
p552
I26
sS'arroyo'
p553
I27
sS'expected'
p554
I27
sS'meeting'
p555
I27
sS'firm'
p556
I27
sS'life'
p557
I23
sS'easy'
p558
I27
sS'caf\xc3\xa9'
p559
I27
sS"what's"
p560
I25
sS'andrew'
p561
I27
sS'haxan'
p562
I27
sS'saturdays'
p563
I27
sS'hmm'
p564
I27
sS'lets'
p565
I27
sS'understand'
p566
I24
sS'catch'
p567
I27
sS'rocking'
p568
I26
sS'spain'
p569
I27
sS'case'
p570
I27
sS'myself'
p571
I27
sS'samanthakhou'
p572
I27
sS'look'
p573
I24
sS'solid'
p574
I26
sS'slept'
p575
I27
sS'air'
p576
I27
sS'ropa'
p577
I27
sS'hahaha'
p578
I26
sS'fun'
p579
I27
sS'taking'
p580
I27
sS'ive'
p581
I27
sS'hatch'
p582
I27
sS'hoping'
p583
I27
sS'twists'
p584
I27
sS'it'
p585
I11
sS'hoax'
p586
I27
sS'someone'
p587
I26
sS'im'
p588
I26
sS'in'
p589
I7
sS'ready'
p590
I27
sS'protein'
p591
I27
sS'fallen'
p592
I27
sS'if'
p593
I21
sS'funny'
p594
I27
sS'shout'
p595
I27
sS'noooo'
p596
I27
sS'perhaps'
p597
I26
sS'media'
p598
I26
sS'make'
p599
I27
sS'check'
p600
I27
sS'pad'
p601
I27
sS'hahah'
p602
I27
sS'party'
p603
I27
sS'naive'
p604
I27
sS'events'
p605
I27
sS'week'
p606
I25
sS'fyi'
p607
I27
sS'lookin'
p608
I27
sS'phc'
p609
I27
sS'drink'
p610
I26
sS'hang'
p611
I27
sS'yesterday'
p612
I27
sS'hand'
p613
I27
sS'ion'
p614
I27
sS'bulshit'
p615
I27
sS'fucked'
p616
I27
sS'kia'
p617
I27
sS'opportunity'
p618
I27
sS'weird'
p619
I27
sS'thoughts'
p620
I26
sS'//'
p621
I27
sS'off'
p622
I27
sS'thx'
p623
I27
sS'i'
p624
I1
sS'congrats'
p625
I27
sS'well'
p626
I26
sS'yhe'
p627
I27
sS'welp'
p628
I27
sS'revising'
p629
I27
sS'the'
p630
I2
sS'camps'
p631
I27
sS'dads'
p632
I27
sS'left'
p633
I27
sS'summer'
p634
I27
sS'they'
p635
I27
sS'just'
p636
I15
sS'cloaky'
p637
I27
sS'true'
p638
I27
sS'money'
p639
I26
sS'sleepy'
p640
I27
sS'boutta'
p641
I27
sS'hahahha'
p642
I27
sS'front'
p643
I27
sS'thanks'
p644
I23
sS'sam'
p645
I27
sS'behind'
p646
I27
sS'smoothies'
p647
I27
sS'enlighten'
p648
I27
sS'rover'
p649
I27
sS'fuuuuuuuuckkkkk'
p650
I27
sS'clueless'
p651
I27
sS'cup'
p652
I27
sS'vida'
p653
I27
sS'drive'
p654
I27
sS'had'
p655
I25
sS'except'
p656
I27
sS'bullshit'
p657
I27
sS'add'
p658
I27
sS'other'
p659
I27
sS'5k'
p660
I27
sS'tell'
p661
I27
sS'has'
p662
I24
sS'skies'
p663
I27
sS'real'
p664
I27
sS'around'
p665
I27
sS'read'
p666
I27
sS'big'
p667
I27
sS"who's"
p668
I26
sS'dreama'
p669
I27
sS'gonna'
p670
I26
sS'early'
p671
I26
sS'game'
p672
I27
sS'know'
p673
I12
sS'mom'
p674
I26
sS'performance'
p675
I27
sS'world'
p676
I27
sS'bit'
p677
I26
sS'burnt'
p678
I27
sS'fools'
p679
I27
sS'd'
p680
I27
sS'like'
p681
I20
sS'pounds'
p682
I27
sS't'
p683
I27
sS'night'
p684
I24
sS'foolish'
p685
I27
sS'samples'
p686
I27
sS'right'
p687
I23
sS'old'
p688
I26
sS'often'
p689
I27
sS'people'
p690
I27
sS'fucking'
p691
I25
sS'twitter'
p692
I27
sS'some'
p693
I21
sS'back'
p694
I24
sS'dead'
p695
I27
sS'almonds'
p696
I27
sS'home'
p697
I26
sS'racial'
p698
I27
sS'ourselves'
p699
I27
sS'happens'
p700
I27
sS'for'
p701
I9
sS'absolutely'
p702
I27
sS'$3500'
p703
I27
sS'everything'
p704
I24
sS'\xe2\x82\xac'
p705
I27
sS'does'
p706
I26
sS'21k+'
p707
I27
sS'hermosura'
p708
I27
sS'speak'
p709
I27
sS'prob'
p710
I27
sS'be'
p711
I18
sS'blowing'
p712
I27
sS'run'
p713
I27
sS'cry'
p714
I27
sS'apostolic'
p715
I27
sS'remembered'
p716
I27
sS'marketing'
p717
I27
sS'tuition'
p718
I27
sS'host'
p719
I27
sS'darkskin'
p720
I27
sS'pasta'
p721
I27
sS'lastnight'
p722
I27
sS'by'
p723
I25
sS'on'
p724
I19
sS'conducting'
p725
I27
sS':-)'
p726
I26
sS'ok'
p727
I27
sS'would'
p728
I26
sS'oh'
p729
I27
sS'of'
p730
I16
sS'lmfao'
p731
I27
sS'angeles'
p732
I27
sS'oneness'
p733
I27
sS'agave'
p734
I27
sS'banker'
p735
I27
sS'curry'
p736
I27
sS'or'
p737
I26
sS'silence'
p738
I27
sS'el'
p739
I27
sS'wasting'
p740
I27
sS'into'
p741
I25
sS'bound'
p742
I27
sS'getting'
p743
I27
sS'down'
p744
I24
sS'thankful'
p745
I27
sS'appropriate'
p746
I27
sS'because'
p747
I27
sS'bitting'
p748
I27
sS'apologize'
p749
I27
sS'next'
p750
I27
sS'forget'
p751
I27
sS'your'
p752
I17
sS'fuuuuuck'
p753
I27
sS'her'
p754
I26
sS'area'
p755
I27
sS'ihad'
p756
I27
sS'weekend'
p757
I27
sS'there'
p758
I26
sS'live'
p759
I27
sS'lol'
p760
I24
sS'start'
p761
I26
sS'mondays'
p762
I27
sS"we're"
p763
I22
sS'way'
p764
I26
sS'<<<<\xe2\x80\x9d'
p765
I27
sS'was'
p766
I19
sS'happy'
p767
I27
sS'philips'
p768
I27
sS'head'
p769
I26
sS'buy'
p770
I27
sS'complete'
p771
I27
sS"i've"
p772
I25
sS'coke'
p773
I27
sS'pitcher'
p774
I27
sS'lmaooo'
p775
I27
sS'but'
p776
I24
sS'sophisticated'
p777
I27
sS'boys'
p778
I27
sS'bygones'
p779
I26
sS'link'
p780
I27
sS'bounce'
p781
I27
sS'courts'
p782
I26
sS'ball'
p783
I27
sS'trying'
p784
I27
sS'with'
p785
I13
sS'he'
p786
I27
sS'made'
p787
I27
sS'austin'
p788
I27
sS'monopoly'
p789
I27
sS'up'
p790
I20
sS'us'
p791
I26
sS'ruined'
p792
I27
sS'crystal'
p793
I27
sS'cruel'
p794
I27
sS'un'
p795
I27
sS'exploration'
p796
I27
sS'problem'
p797
I26
sS'djing'
p798
I27
sS'exhausted'
p799
I27
sS'ah'
p800
I26
sS'am'
p801
I27
sS'an'
p802
I23
sS'as'
p803
I24
sS'at'
p804
I20
sS'pushing'
p805
I27
sS'bob'
p806
I27
sS'blues'
p807
I27
sS'shit'
p808
I26
sS'machine'
p809
I27
sS'e36'
p810
I27
sS'heather'
p811
I27
sS'no'
p812
I24
sS'nah'
p813
I27
sS'frito'
p814
I27
sS'when'
p815
I22
sS'backs'
p816
I27
sS'lately'
p817
I27
sS'howwww'
p818
I27
sS'interested'
p819
I24
sS'5'
p820
I27
sS'es'
p821
I27
sS'test'
p822
I27
sS'you'
p823
I4
sS'really'
p824
I25
sS'smell'
p825
I27
sS'roll'
p826
I27
sS'nice'
p827
I27
sS'picture'
p828
I27
sS'may'
p829
I27
sS'hey'
p830
I25
sS'obsessed'
p831
I27
sS'turnup'
p832
I27
sS'felt'
p833
I27
sS'dayummm'
p834
I27
sS'stay'
p835
I26
sS"let's"
p836
I27
sS'amuthafuckensap'
p837
I27
sS'fresh'
p838
I27
sS'chris'
p839
I27
sS'unless'
p840
I27
sS'died'
p841
I27
sS'network'
p842
I27
sS'ago'
p843
I26
sS'laundromat'
p844
I27
sS'319'
p845
I27
sS'together'
p846
I27
sS'bulletin'
p847
I27
sS'u'
p848
I26
sS'time'
p849
I25
sS'push'
p850
I27
sS'serious'
p851
I27
sS'lineup'
p852
I27
sS'starting'
p853
I27
sS'having'
p854
I26
s.