(dp0
S''
p1
I1
sS'trenton'
p2
I63
sS'personally'
p3
I63
sS'party"'
p4
I63
sS'sleep'
p5
I47
sS'spiders'
p6
I62
sS'hanging'
p7
I63
sS'captain'
p8
I63
sS'hate'
p9
I62
sS'votes'
p10
I63
sS'tweet'
p11
I60
sS'unroll'
p12
I63
sS'swap'
p13
I63
sS'under'
p14
I63
sS'teaching'
p15
I63
sS'sorry'
p16
I61
sS'worth'
p17
I63
sS'hahahah'
p18
I63
sS'battles'
p19
I63
sS'100x'
p20
I63
sS"women's"
p21
I63
sS'every'
p22
I59
sS'affect'
p23
I63
sS'bringing'
p24
I62
sS'tickets'
p25
I63
sS'school'
p26
I59
sS'bugging'
p27
I63
sS'solid'
p28
I63
sS'"don\'t'
p29
I63
sS'enjoy'
p30
I63
sS'tired'
p31
I63
sS'convo'
p32
I63
sS'bacon'
p33
I63
sS'chef'
p34
I63
sS'second'
p35
I63
sS'even'
p36
I47
sS"adventure's"
p37
I63
sS'hide'
p38
I63
sS'christ'
p39
I63
sS'+'
p40
I60
sS'cooking'
p41
I63
sS'bipolar'
p42
I62
sS'new'
p43
I56
sS'hmmm'
p44
I63
sS'ever'
p45
I54
sS'consisting'
p46
I63
sS'told'
p47
I57
sS'kicked'
p48
I62
sS'never'
p49
I44
sS'here'
p50
I52
sS'\xe2\x9d\xa4\xef\xb8\x8f\xe2\x9d\xa4\xef\xb8\x8f\xe2\x9d\xa4\xef\xb8\x8f\xe2\x9d\xa4\xef\xb8\x8f'
p51
I63
sS'\xe2\x9d\xa4\xef\xb8\x8f'
p52
I42
sS'kids'
p53
I62
sS'streaming/playing'
p54
I63
sS'changed'
p55
I62
sS'hooters'
p56
I63
sS'credit'
p57
I63
sS"i'd"
p58
I63
sS'stressed'
p59
I63
sS"i'm"
p60
I13
sS'30min'
p61
I63
sS'joshua'
p62
I63
sS'fantastic'
p63
I63
sS'feelings'
p64
I60
sS'bro'
p65
I62
sS'punching'
p66
I63
sS'rumbos'
p67
I63
sS'bra'
p68
I63
sS'would'
p69
I45
sS'princess'
p70
I63
sS'call'
p71
I60
sS'calm'
p72
I63
sS'spike'
p73
I63
sS'until'
p74
I60
sS'nyquil'
p75
I63
sS'haha'
p76
I57
sS'hurt'
p77
I59
sS'phone'
p78
I60
sS'hold'
p79
I61
sS'must'
p80
I59
sS'me'
p81
I9
sS'bartender'
p82
I63
sS'9-4'
p83
I63
sS'work'
p84
I57
sS'movies'
p85
I63
sS'mr'
p86
I63
sS'my'
p87
I6
sS'give'
p88
I58
sS'"love'
p89
I63
sS'homie'
p90
I63
sS'want'
p91
I46
sS'story'
p92
I62
sS'guarantee'
p93
I60
sS'end'
p94
I58
sS'turn'
p95
I62
sS'very'
p96
I60
sS'hot'
p97
I61
sS'hop'
p98
I61
sS'answer'
p99
I63
sS'oeople'
p100
I63
sS'chase'
p101
I63
sS'beach'
p102
I63
sS'pizza'
p103
I60
sS'funny'
p104
I58
sS'jalen'
p105
I63
sS'after'
p106
I57
sS'lab'
p107
I63
sS'whyyyy'
p108
I63
sS'wrong'
p109
I61
sS'mesa'
p110
I62
sS"they're"
p111
I63
sS'third'
p112
I63
sS'appreciate'
p113
I62
sS'sons'
p114
I63
sS'funniest'
p115
I63
sS'things'
p116
I60
sS'worst'
p117
I61
sS'first'
p118
I61
sS'order'
p119
I63
sS'over'
p120
I57
sS'fam'
p121
I63
sS'seco'
p122
I63
sS'keyboard'
p123
I63
sS'before'
p124
I61
sS'ima'
p125
I62
sS'fit'
p126
I63
sS'puig'
p127
I63
sS'somewhere'
p128
I63
sS'christie'
p129
I63
sS'writing'
p130
I63
sS'better'
p131
I55
sS'complex'
p132
I63
sS'weeks'
p133
I60
sS'carton'
p134
I63
sS'then'
p135
I51
sS'them'
p136
I53
sS'safe'
p137
I63
sS"we'll"
p138
I63
sS'break'
p139
I63
sS'band'
p140
I63
sS'bang'
p141
I62
sS'effects'
p142
I63
sS'they'
p143
I50
sS'yourself'
p144
I63
sS'alex'
p145
I63
sS'ewwww'
p146
I62
sS'each'
p147
I61
sS'went'
p148
I56
sS'jay-z'
p149
I63
sS'side'
p150
I61
sS'carlos'
p151
I61
sS'luck'
p152
I62
sS'gunna'
p153
I55
sS'series'
p154
I63
sS'spider'
p155
I63
sS'carry'
p156
I63
sS'taught'
p157
I63
sS'forgot'
p158
I61
sS'fuck\xe2\x80\x9d'
p159
I63
sS'sounds'
p160
I61
sS'rt'
p161
I49
sS'gon'
p162
I63
sS'driving'
p163
I62
sS'god'
p164
I60
sS'psychic'
p165
I63
sS'smh'
p166
I56
sS'start"'
p167
I63
sS'surprise'
p168
I62
sS'rn'
p169
I63
sS"dino's"
p170
I63
sS'u.s'
p171
I63
sS'cutest'
p172
I63
sS"doesn't"
p173
I59
sS'allllllllllllll'
p174
I63
sS'shriveled'
p175
I63
sS'rain'
p176
I61
sS'wanted'
p177
I60
sS'dammit'
p178
I60
sS'ate'
p179
I62
sS'days'
p180
I53
sS'heck'
p181
I63
sS'"no'
p182
I63
sS"today's"
p183
I63
sS'arrived'
p184
I63
sS'loud'
p185
I63
sS'already'
p186
I60
sS'joseline'
p187
I63
sS'hearing'
p188
I63
sS'shopped'
p189
I63
sS'fantasy'
p190
I63
sS'floors'
p191
I63
sS'another'
p192
I61
sS'sober'
p193
I63
sS'hood'
p194
I62
sS'top'
p195
I62
sS'girls'
p196
I59
sS'needed'
p197
I62
sS'too'
p198
I52
sS'hollywood'
p199
I63
sS'reciprocals'
p200
I63
sS'dogs'
p201
I62
sS'listen'
p202
I62
sS'gym'
p203
I63
sS'leaking'
p204
I62
sS'trippy'
p205
I63
sS'prego'
p206
I61
sS'nail'
p207
I63
sS'anxiety'
p208
I63
sS'aereo'
p209
I63
sS'coward'
p210
I63
sS'shower'
p211
I61
sS'matter'
p212
I63
sS'classes'
p213
I63
sS'williams'
p214
I63
sS'dihhh'
p215
I63
sS'feeling'
p216
I58
sS'fashion'
p217
I63
sS'7:30am'
p218
I63
sS'mind'
p219
I62
sS'mine'
p220
I62
sS'talking'
p221
I61
sS'lbc'
p222
I63
sS'seen'
p223
I62
sS'ohhhh'
p224
I63
sS'"california'
p225
I63
sS'-'
p226
I63
sS'her.i'
p227
I63
sS'chest'
p228
I63
sS'"upskirting"'
p229
I63
sS'doors'
p230
I63
sS'laughed'
p231
I63
sS'though'
p232
I61
sS'doin'
p233
I63
sS'mouth'
p234
I63
sS'plenty'
p235
I63
sS'doh'
p236
I63
sS'episode'
p237
I61
sS'dog'
p238
I63
sS'doe'
p239
I63
sS'judgmental'
p240
I63
sS'definitely'
p241
I63
sS'came'
p242
I63
sS'bomb'
p243
I60
sS'queen'
p244
I63
sS'parolees'
p245
I63
sS'ending'
p246
I63
sS'reschedule'
p247
I63
sS'cousins'
p248
I63
sS'appreciated'
p249
I63
sS'touched'
p250
I63
sS'folks'
p251
I62
sS'wearing'
p252
I62
sS"sayin'"
p253
I63
sS'mulan'
p254
I63
sS'wide'
p255
I61
sS'de'
p256
I61
sS'watch'
p257
I61
sS'dc'
p258
I63
sS'da'
p259
I63
sS'wedding'
p260
I63
sS'nasty'
p261
I61
sS'dr'
p262
I63
sS'lmao'
p263
I63
sS'covering'
p264
I63
sS'nicely'
p265
I63
sS'tights'
p266
I63
sS'bad'
p267
I55
sS'bae'
p268
I63
sS'tbfh'
p269
I63
sS'ruins'
p270
I63
sS'ears'
p271
I63
sS'decides'
p272
I63
sS'w/'
p273
I63
sS'goodnight'
p274
I58
sS'decided'
p275
I63
sS'vented'
p276
I63
sS'best'
p277
I57
sS'said'
p278
I54
sS'away'
p279
I54
sS'orgasmic'
p280
I63
sS"there's"
p281
I54
sS'props'
p282
I63
sS'chode'
p283
I63
sS'lazy'
p284
I62
sS'men'
p285
I61
sS'omg'
p286
I61
sS'handful'
p287
I63
sS'weak'
p288
I63
sS'wear'
p289
I63
sS'wtf'
p290
I60
sS'electing'
p291
I63
sS'protect'
p292
I63
sS'tfti'
p293
I63
sS'cow'
p294
I63
sS'ill'
p295
I63
sS'against'
p296
I63
sS'games'
p297
I59
sS'planned'
p298
I61
sS'asked'
p299
I63
sS'pregnancy'
p300
I61
sS'trust'
p301
I62
sS'speak'
p302
I63
sS'gtfoh'
p303
I63
sS'been'
p304
I47
sS'beer'
p305
I63
sS'much'
p306
I52
sS'stadium'
p307
I63
sS'life'
p308
I42
sS'easy'
p309
I63
sS'ariana'
p310
I63
sS'child'
p311
I63
sS'haters'
p312
I63
sS'chill'
p313
I63
sS'air'
p314
I63
sS'near'
p315
I63
sS'remembering'
p316
I63
sS'played'
p317
I63
sS'is'
p318
I10
sS'krusty'
p319
I63
sS'it'
p320
I11
sS'shame'
p321
I63
sS'cans'
p322
I63
sS'parkway)'
p323
I63
sS'in'
p324
I11
sS'seattle'
p325
I63
sS'ig'
p326
I63
sS'if'
p327
I36
sS'suggest'
p328
I63
sS'make'
p329
I53
sS'muthaaaafuckaaa'
p330
I63
sS'bottled'
p331
I63
sS'twoooooo'
p332
I63
sS'hang'
p333
I63
sS'evil'
p334
I63
sS'lol\xe2\x80\x9d'
p335
I62
sS'jealous'
p336
I63
sS'thoughts'
p337
I63
sS'kid'
p338
I59
sS'unconditionally'
p339
I63
sS'youre'
p340
I63
sS'buuuuurrrrrrrrnn'
p341
I63
sS'tho'
p342
I55
sS'contact'
p343
I63
sS'greatest'
p344
I63
sS'the'
p345
I5
sS'yours'
p346
I63
sS'dads'
p347
I62
sS'left'
p348
I63
sS'trainer'
p349
I63
sS'just'
p350
I27
sS'ca-110'
p351
I63
sS'yea'
p352
I63
sS'photo'
p353
I62
sS'unfollow'
p354
I63
sS'sleepy'
p355
I60
sS'goodtimes'
p356
I63
sS'pujols'
p357
I63
sS'thanks'
p358
I59
sS'yes'
p359
I61
sS'yet'
p360
I60
sS'broncos'
p361
I62
sS"pacquiao's"
p362
I63
sS'cherry'
p363
I63
sS'had'
p364
I47
sS'shout'
p365
I63
sS'5k'
p366
I63
sS'has'
p367
I57
sS'gave'
p368
I62
sS'(pasadena'
p369
I63
sS'boxes'
p370
I63
sS'wanting'
p371
I63
sS'judge'
p372
I62
sS'dreams'
p373
I62
sS'50'
p374
I63
sS'52'
p375
I63
sS'sorvino'
p376
I63
sS'night'
p377
I56
sS'right'
p378
I49
sS'old'
p379
I60
sS'fuuuuuck'
p380
I63
sS'deal'
p381
I62
sS'people'
p382
I49
sS'sends'
p383
I63
sS'idgaf'
p384
I63
sS'jennifer'
p385
I63
sS'multiple'
p386
I63
sS'harassment'
p387
I63
sS'harder"'
p388
I63
sS'toxic'
p389
I63
sS'for'
p390
I17
sS'bottom'
p391
I63
sS'fox'
p392
I63
sS'ice'
p393
I63
sS'witty'
p394
I63
sS'falling!!!"'
p395
I63
sS'christmas'
p396
I63
sS'geez'
p397
I63
sS'mr.amazing'
p398
I63
sS'losing'
p399
I62
sS'post'
p400
I63
sS'super'
p401
I61
sS'months'
p402
I62
sS'dinner'
p403
I63
sS'anime'
p404
I63
sS'stoked'
p405
I63
sS'sob'
p406
I63
sS'whats'
p407
I63
sS'selfie'
p408
I61
sS'bound'
p409
I62
sS'soo'
p410
I63
sS'son'
p411
I63
sS'down'
p412
I51
sS'thankful'
p413
I63
sS'rant'
p414
I63
sS'ahahah'
p415
I63
sS'support'
p416
I63
sS'flying'
p417
I63
sS'fight'
p418
I62
sS'absolutely'
p419
I62
sS'way'
p420
I54
sS'music'
p421
I62
sS'was'
p422
I18
sS'war'
p423
I62
sS'happy'
p424
I47
sS'head'
p425
I63
sS'offer'
p426
I62
sS'batman'
p427
I63
sS'gorgeous'
p428
I63
sS'hear'
p429
I62
sS'true'
p430
I62
sS'reproductive'
p431
I63
sS'tell'
p432
I51
sS"irene's"
p433
I63
sS'"mmmm'
p434
I63
sS'adore'
p435
I63
sS'facetimed'
p436
I63
sS'emotional'
p437
I62
sS'whyd'
p438
I63
sS'daddy'
p439
I63
sS'delete'
p440
I61
sS'separated'
p441
I63
sS'later'
p442
I62
sS'stronger'
p443
I63
sS'hungry'
p444
I57
sS'exist'
p445
I63
sS'annoying'
p446
I63
sS'trip'
p447
I63
sS'shit'
p448
I38
sS'dying'
p449
I62
sS'no'
p450
I29
sS'when'
p451
I26
sS'topped'
p452
I63
sS'tooooo'
p453
I63
sS'pasadena'
p454
I63
sS'role'
p455
I63
sS'roll'
p456
I63
sS'picture'
p457
I60
sS"'s"
p458
I62
sS'brothers'
p459
I63
sS'football'
p460
I63
sS"let's"
p461
I60
sS'fell'
p462
I63
sS'smelling'
p463
I63
sS'weekend'
p464
I62
sS'died'
p465
I61
sS'billion'
p466
I63
sS'apologizing'
p467
I63
sS'longer'
p468
I62
sS'together'
p469
I59
sS'time'
p470
I46
sS'push'
p471
I63
sS'songs'
p472
I62
sS':/'
p473
I63
sS':('
p474
I61
sS':)'
p475
I60
sS'whoever'
p476
I63
sS'dance'
p477
I63
sS'skate'
p478
I63
sS'battle'
p479
I63
sS'shleeeepy'
p480
I63
sS'grape'
p481
I63
sS'zone'
p482
I63
sS'everything'
p483
I56
sS'father'
p484
I63
sS'chances'
p485
I63
sS'finally'
p486
I62
sS'advantage'
p487
I63
sS'choice'
p488
I63
sS'gloomy'
p489
I63
sS'cook'
p490
I63
sS'word'
p491
I62
sS'blast'
p492
I63
sS'brows'
p493
I63
sS'cool'
p494
I62
sS'did'
p495
I50
sS'die'
p496
I62
sS'gun'
p497
I63
sS'leave'
p498
I62
sS'soooo'
p499
I63
sS'team'
p500
I63
sS'quick'
p501
I63
sS'guy'
p502
I61
sS'hollaaaa'
p503
I63
sS'round'
p504
I62
sS"it'll"
p505
I63
sS'prevent'
p506
I63
sS'talked'
p507
I62
sS'sign'
p508
I63
sS'trent'
p509
I63
sS'run'
p510
I63
sS'rough'
p511
I62
sS'bc'
p512
I63
sS'goes'
p513
I63
sS'preachhhhhh'
p514
I63
sS'celebrates'
p515
I63
sS'razska'
p516
I63
sS'2:30'
p517
I63
sS'alone'
p518
I61
sS'along'
p519
I63
sS'change'
p520
I58
sS'wait'
p521
I61
sS'boy'
p522
I61
sS'hbo'
p523
I62
sS'la/oc'
p524
I63
sS'ayyyyyyyyeeeee'
p525
I63
sS'nino'
p526
I63
sS'boo'
p527
I60
sS'usually'
p528
I63
sS'weird'
p529
I58
sS'lmfaoooo'
p530
I63
sS'love'
p531
I36
sS'hiking'
p532
I63
sS'prefer'
p533
I63
sS'bloody'
p534
I63
sS'fake'
p535
I62
sS'everybody'
p536
I56
sS'wealth'
p537
I63
sS'working'
p538
I63
sS'loveeeee'
p539
I63
sS'angry'
p540
I63
sS'visit'
p541
I62
sS'only'
p542
I53
sS'sports'
p543
I63
sS'msn'
p544
I63
sS'live'
p545
I63
sS'wondering'
p546
I63
sS'ahhh'
p547
I63
sS'angels'
p548
I61
sS'today'
p549
I49
sS'loving'
p550
I63
sS'club'
p551
I63
sS'daaa'
p552
I63
sS'chocolate'
p553
I63
sS'\xe2\x9d\xa4\xef\xb8\x8f\xe2\x9d\xa4\xef\xb8\x8f'
p554
I58
sS'easiest'
p555
I62
sS'fly'
p556
I63
sS'niggas'
p557
I62
sS'car'
p558
I61
sS'flaking'
p559
I63
sS'values'
p560
I63
sS'can'
p561
I38
sS'making'
p562
I57
sS"denny's"
p563
I61
sS'heart'
p564
I59
sS'crazy'
p565
I59
sS'valentines'
p566
I62
sS'figure'
p567
I62
sS'awesome'
p568
I60
sS"didn't"
p569
I54
sS'fuck'
p570
I53
sS'heard'
p571
I61
sS'tinted'
p572
I63
sS'reminded'
p573
I63
sS'pink'
p574
I63
sS'means'
p575
I62
sS'1'
p576
I62
sS'till'
p577
I57
sS'sunday'
p578
I62
sS'cocktail'
p579
I63
sS'information'
p580
I63
sS'may'
p581
I62
sS'hell-a'
p582
I63
sS'spot'
p583
I63
sS'birthday'
p584
I51
sS'mad'
p585
I61
sS'such'
p586
I59
sS'guys'
p587
I60
sS'man'
p588
I52
sS'scrambling'
p589
I63
sS'remember'
p590
I60
sS'liquid'
p591
I63
sS'maybe'
p592
I62
sS'so'
p593
I15
sS'talk'
p594
I55
sS'typical'
p595
I62
sS'cute'
p596
I54
sS'acts'
p597
I63
sS'alyssastrongarm'
p598
I63
sS'years'
p599
I62
sS'course'
p600
I62
sS'episodes'
p601
I63
sS'cuts'
p602
I63
sS'kanye'
p603
I63
sS'still'
p604
I37
sS'group'
p605
I63
sS'thank'
p606
I61
sS"he's"
p607
I49
sS'selves'
p608
I63
sS'amazing'
p609
I62
sS'tweets'
p610
I62
sS'main'
p611
I62
sS'happened'
p612
I62
sS'non'
p613
I61
sS'aching'
p614
I63
sS'conversations'
p615
I63
sS'rake'
p616
I63
sS'yaaaaa'
p617
I63
sS'whatver'
p618
I63
sS'subscribers'
p619
I63
sS'half'
p620
I62
sS'not'
p621
I34
sS'now'
p622
I36
sS'ahaha'
p623
I62
sS'bullshit'
p624
I61
sS'name'
p625
I62
sS'concerts'
p626
I63
sS'em'
p627
I63
sS'el'
p628
I63
sS'crushing'
p629
I63
sS'yeah'
p630
I63
sS'krab'
p631
I63
sS'year'
p632
I60
sS'girl'
p633
I52
sS'worried'
p634
I63
sS'pills'
p635
I63
sS'tried'
p636
I61
sS'album'
p637
I63
sS'living'
p638
I61
sS'opened'
p639
I62
sS'jokes'
p640
I63
sS'profit'
p641
I63
sS'imessage<<<<'
p642
I63
sS'looking'
p643
I61
sS'seriously'
p644
I62
sS'opener'
p645
I63
sS'internet'
p646
I62
sS'nudes'
p647
I63
sS'shows'
p648
I62
sS'dodgers'
p649
I62
sS'eddy!?!?!!!!!!!\xe2\x80\x9d'
p650
I63
sS'million'
p651
I63
sS'quite'
p652
I63
sS'california'
p653
I61
sS'besides'
p654
I63
sS'grandma'
p655
I61
sS'care'
p656
I59
sS'language'
p657
I63
sS'yup'
p658
I63
sS'honest'
p659
I63
sS'thing'
p660
I53
sS'place'
p661
I62
sS'router'
p662
I63
sS'think'
p663
I46
sS'1000'
p664
I63
sS'blind'
p665
I62
sS'softball'
p666
I63
sS'flipping'
p667
I63
sS'mucho'
p668
I63
sS'fast'
p669
I63
sS'vote'
p670
I63
sS'message'
p671
I62
sS'open'
p672
I61
sS'tomorrow'
p673
I63
sS'little'
p674
I59
sS'personalities'
p675
I63
sS'virgin'
p676
I63
sS'bite'
p677
I63
sS'slept'
p678
I63
sS'anyone'
p679
I61
sS'2'
p680
I50
sS'friend'
p681
I58
sS'gives'
p682
I63
sS'eyes'
p683
I62
sS'that'
p684
I12
sS'season'
p685
I59
sS'huh'
p686
I63
sS'holder'
p687
I63
sS'than'
p688
I63
sS'boyfriend'
p689
I63
sS'10'
p690
I60
sS'unfortunately'
p691
I63
sS'yayyyy'
p692
I63
sS'gotta'
p693
I61
sS'future'
p694
I62
sS'were'
p695
I59
sS'cards'
p696
I63
sS'asleep'
p697
I61
sS'damned'
p698
I63
sS'and'
p699
I8
sS'greyhound'
p700
I63
sS'slap'
p701
I63
sS'sad'
p702
I62
sS'say'
p703
I56
sS'supervision'
p704
I63
sS'anger'
p705
I63
sS'saw'
p706
I63
sS'superman'
p707
I63
sS'gotham'
p708
I63
sS'take'
p709
I55
sS'online'
p710
I63
sS'performance'
p711
I63
sS'grammys'
p712
I63
sS'channel'
p713
I63
sS'begin'
p714
I63
sS'sure'
p715
I57
sS'pain'
p716
I62
sS'price'
p717
I63
sS'knew'
p718
I58
sS'\xe2\x98\xba\xef\xb8\x8f\xe2\x98\xba\xef\xb8\x8f\xe2\x98\xba\xef\xb8\x8f\xe2\x98\xba\xef\xb8\x8f\xe2\x98\xba\xef\xb8\x8f'
p719
I63
sS'falls'
p720
I63
sS'freshman'
p721
I63
sS'america'
p722
I62
sS'forever'
p723
I61
sS'room'
p724
I61
sS'proud'
p725
I63
sS'steady'
p726
I63
sS'drive'
p727
I63
sS'38-33'
p728
I63
sS'uverse'
p729
I63
sS'show'
p730
I57
sS'corner'
p731
I63
sS'estos'
p732
I63
sS'imagined'
p733
I63
sS'snack'
p734
I63
sS'\xe2\x9c\x8a'
p735
I62
sS'dick'
p736
I61
sS'3'
p737
I59
sS'tears'
p738
I63
sS'going'
p739
I45
sS'pre-fight'
p740
I63
sS'unsure'
p741
I63
sS'get'
p742
I32
sS'pimp'
p743
I63
sS'artist'
p744
I63
sS'morning'
p745
I61
sS'awwwwh'
p746
I63
sS'stupid'
p747
I63
sS"could've"
p748
I63
sS'miley'
p749
I60
sS'where'
p750
I52
sS"y'all"
p751
I60
sS'concert'
p752
I62
sS"hasn't"
p753
I63
sS'college'
p754
I62
sS'anyways'
p755
I63
sS'wonder'
p756
I62
sS'crooked'
p757
I63
sS'amen'
p758
I63
sS'enough'
p759
I63
sS'joy'
p760
I63
sS'reading'
p761
I63
sS'across'
p762
I63
sS'woooooooohhhhoooooo'
p763
I63
sS'legitimacy'
p764
I63
sS'screen'
p765
I63
sS'killing'
p766
I63
sS'como'
p767
I63
sS'hurts'
p768
I60
sS'article'
p769
I63
sS'come'
p770
I58
sS'lopez'
p771
I63
sS'trades'
p772
I63
sS'1:30'
p773
I63
sS'tour'
p774
I62
sS'quien'
p775
I63
sS"can't"
p776
I42
sS'nuedormidonada'
p777
I63
sS'color'
p778
I63
sS'por'
p779
I63
sS'pop'
p780
I63
sS"couldn't"
p781
I61
sS'cramps'
p782
I63
sS'cares'
p783
I63
sS'stretch'
p784
I63
sS'ucla'
p785
I63
sS'breath'
p786
I63
sS'judging'
p787
I62
sS'wants'
p788
I60
sS'shopping'
p789
I63
sS'photog'
p790
I63
sS'wake'
p791
I58
sS'rubs'
p792
I63
sS'former'
p793
I63
sS'those'
p794
I59
sS'sound'
p795
I62
sS'myself'
p796
I55
sS'110%'
p797
I63
sS'these'
p798
I57
sS'\xee\x90\x8e\xe2\x80\x9d'
p799
I63
sS'cash'
p800
I63
sS'ally'
p801
I63
sS'situation'
p802
I63
sS'cock'
p803
I63
sS'sleeping'
p804
I63
sS'strain'
p805
I63
sS'someone'
p806
I57
sS'embrace'
p807
I63
sS'ironic'
p808
I63
sS'everyday'
p809
I62
sS'worry'
p810
I63
sS'different'
p811
I62
sS'pay'
p812
I63
sS'losties'
p813
I63
sS'same'
p814
I61
sS'heartbreak'
p815
I63
sS'emojis'
p816
I63
sS'week'
p817
I63
sS'weed'
p818
I62
sS'running'
p819
I60
sS'fruit'
p820
I63
sS'changing'
p821
I62
sS'costa'
p822
I62
sS'charger'
p823
I63
sS'without'
p824
I60
sS'comes'
p825
I58
sS'grumpy'
p826
I63
sS'\xe2\x98\xba\xef\xb8\x8f'
p827
I60
sS'being'
p828
I57
sS'money'
p829
I63
sS'rest'
p830
I62
sS'touch'
p831
I62
sS'death'
p832
I63
sS'\xe3\x80\xbd\xef\xb8\x8f'
p833
I63
sS'thinking'
p834
I62
sS'rose'
p835
I63
sS'except'
p836
I63
sS'4'
p837
I61
sS'dicks'
p838
I63
sS'real'
p839
I59
sS'around'
p840
I54
sS'rules'
p841
I62
sS'yeah!"'
p842
I63
sS'gonna'
p843
I61
sS'early'
p844
I62
sS'traffic'
p845
I63
sS'seahawks'
p846
I63
sS'mom'
p847
I61
sS'warped'
p848
I63
sS'world'
p849
I61
sS'accepted'
p850
I63
sS'faaaaaaaaaakkkkkeeeee'
p851
I63
sS'kennedy'
p852
I63
sS'pregnant'
p853
I61
sS'promise!!!!\xe2\x80\x9d'
p854
I63
sS'laughing'
p855
I61
sS'freeway/arroyo'
p856
I63
sS'ewww'
p857
I63
sS'pickles'
p858
I63
sS'thinks'
p859
I63
sS'whooo'
p860
I63
sS'mood'
p861
I63
sS'recorded'
p862
I63
sS'legal'
p863
I63
sS'throat'
p864
I63
sS'garret'
p865
I63
sS'ahahahah'
p866
I62
sS'willie'
p867
I63
sS'knife'
p868
I63
sS'felt'
p869
I60
sS'business'
p870
I63
sS'asap'
p871
I61
sS'lmfao'
p872
I46
sS'iconic'
p873
I63
sS'throw'
p874
I63
sS'on'
p875
I30
sS'stone'
p876
I63
sS'ol'
p877
I63
sS'oh'
p878
I59
sS'of'
p879
I14
sS'favorite'
p880
I59
sS'neighbor'
p881
I63
sS'act'
p882
I63
sS'mean'
p883
I63
sS'or'
p884
I47
sS'road'
p885
I63
sS'burning'
p886
I62
sS'snapchat'
p887
I63
sS'cursed'
p888
I63
sS'officially'
p889
I62
sS'freaken'
p890
I62
sS'your'
p891
I46
sS'her'
p892
I45
sS'area'
p893
I63
sS'"plan"'
p894
I63
sS'there'
p895
I46
sS'lol'
p896
I35
sS'los'
p897
I63
sS'lot'
p898
I61
sS'valley'
p899
I63
sS'bubble'
p900
I63
sS'\xe2\x9c\xa8\xe2\x9c\xa8\xe2\x9c\xa8'
p901
I63
sS'uhhhhm'
p902
I63
sS'trying'
p903
I58
sS'with'
p904
I27
sS'belated'
p905
I63
sS'happening'
p906
I61
sS'pull'
p907
I63
sS"wasn't"
p908
I63
sS'dirty'
p909
I63
sS'~lax~\xe2\x9c\x88'
p910
I63
sS'howmmayyyy'
p911
I63
sS'agree'
p912
I63
sS'gone'
p913
I61
sS'ac'
p914
I63
sS'videos'
p915
I63
sS'af'
p916
I63
sS'certain'
p917
I62
sS'am'
p918
I46
sS'an'
p919
I59
sS'as'
p920
I46
sS'\xe2\x9d\xa4\xef\xb8\x8f\xe2\x98\xba\xef\xb8\x8f'
p921
I63
sS'at'
p922
I29
sS'av'
p923
I62
sS'horse'
p924
I63
sS'again'
p925
I59
sS'heather'
p926
I63
sS"luis's"
p927
I63
sS'deserve'
p928
I63
sS'clock\xe2\x8c\x9a\xef\xb8\x8f\xe2\x8c\x9b\xef\xb8\x8f'
p929
I63
sS'saturday'
p930
I63
sS"cynthia's"
p931
I63
sS'twerk'
p932
I63
sS'you'
p933
I4
sS'trash'
p934
I63
sS'poor'
p935
I62
sS'obsessed'
p936
I62
sS'important'
p937
I63
sS'massachusetts'
p938
I63
sS'pood'
p939
I63
sS'fresh'
p940
I63
sS'building'
p941
I63
sS'natalie'
p942
I62
sS'calls'
p943
I63
sS'unsee'
p944
I63
sS'u'
p945
I63
sS'alright'
p946
I61
sS'starting'
p947
I61
sS'growling'
p948
I62
sS'all'
p949
I22
sS'(it'
p950
I63
sS'forget'
p951
I59
sS'month'
p952
I60
sS'talks'
p953
I63
sS'decisions'
p954
I62
sS'children'
p955
I63
sS'improperly'
p956
I63
sS'apartment'
p957
I63
sS'tu'
p958
I63
sS'thursday'
p959
I62
sS'to'
p960
I3
sS'tf'
p961
I63
sS'smile'
p962
I61
sS'te'
p963
I63
sS'longtime'
p964
I63
sS'woman'
p965
I63
sS'appointment'
p966
I63
sS'worse'
p967
I63
sS'song'
p968
I63
sS'far'
p969
I60
sS'..fuck'
p970
I63
sS'fat'
p971
I63
sS'candid'
p972
I63
sS'fan'
p973
I63
sS'fall'
p974
I62
sS'cable'
p975
I62
sS'laying'
p976
I62
sS'reminding'
p977
I63
sS'small'
p978
I63
sS'lisa'
p979
I61
sS'reggeton'
p980
I63
sS"i'll"
p981
I58
sS'neighborhood'
p982
I63
sS'yasssss'
p983
I63
sS'so\xc3\xb1astes'
p984
I63
sS'past'
p985
I63
sS'what'
p986
I28
sS'version'
p987
I63
sS'vamos'
p988
I63
sS'nene'
p989
I63
sS'hours'
p990
I60
sS'free'
p991
I62
sS'strong'
p992
I61
sS'fantasies'
p993
I63
sS'lbms'
p994
I63
sS'jackie'
p995
I63
sS'pics'
p996
I62
sS'airport'
p997
I63
sS'pick'
p998
I63
sS'mentions'
p999
I63
sS'sticking'
p1000
I63
sS'via'
p1001
I63
sS'family'
p1002
I55
sS'ask'
p1003
I59
sS'bruins'
p1004
I63
sS'eye'
p1005
I63
sS'two'
p1006
I60
sS'6'
p1007
I61
sS'shits'
p1008
I63
sS'more'
p1009
I47
sS'linden'
p1010
I62
sS'knows'
p1011
I62
sS'mira'
p1012
I63
sS'"preoccupied"'
p1013
I63
sS"ain't"
p1014
I50
sS'stick'
p1015
I63
sS'broke'
p1016
I62
sS'hurry'
p1017
I61
sS'glad'
p1018
I63
sS'town'
p1019
I62
sS"season's"
p1020
I63
sS'recall'
p1021
I63
sS'levas'
p1022
I63
sS'remain'
p1023
I63
sS'den'
p1024
I63
sS'learn'
p1025
I63
sS'knocked'
p1026
I63
sS'def'
p1027
I63
sS'beautiful'
p1028
I59
sS'stubborn'
p1029
I61
sS'embarrassing'
p1030
I63
sS'share'
p1031
I63
sS'numbers'
p1032
I63
sS'sense'
p1033
I62
sS'huge'
p1034
I63
sS'needs'
p1035
I60
sS'court'
p1036
I62
sS'awkward'
p1037
I63
sS'rather'
p1038
I62
sS'breaking'
p1039
I63
sS'stayed'
p1040
I61
sS'glowing'
p1041
I63
sS'okay'
p1042
I57
sS'plans'
p1043
I63
sS'reflect'
p1044
I63
sS'tries'
p1045
I63
sS'numb'
p1046
I63
sS'coming'
p1047
I56
sS'a'
p1048
I7
sS'short'
p1049
I63
sS'onto'
p1050
I63
sS'bugs'
p1051
I63
sS'stash'
p1052
I63
sS'mislead'
p1053
I63
sS'grande'
p1054
I63
sS'shade'
p1055
I63
sS'egg'
p1056
I63
sS'playing'
p1057
I61
sS"that's"
p1058
I48
sS"hurtin'"
p1059
I63
sS'mexican'
p1060
I63
sS'help'
p1061
I61
sS"don't"
p1062
I24
sS'bowl'
p1063
I63
sS'soon'
p1064
I59
sS':\xe2\x80\xa6'
p1065
I63
sS'held'
p1066
I63
sS'through'
p1067
I58
sS'hell'
p1068
I59
sS'suffer'
p1069
I63
sS'avenue'
p1070
I63
sS'its'
p1071
I60
sS'messed'
p1072
I63
sS'20'
p1073
I63
sS'adios'
p1074
I63
sS'beyonce'
p1075
I63
sS'actually'
p1076
I61
sS'late'
p1077
I63
sS'>>>'
p1078
I63
sS'absence'
p1079
I63
sS'bout'
p1080
I63
sS'might'
p1081
I61
sS"haven't"
p1082
I58
sS'fool'
p1083
I63
sS'uhg'
p1084
I63
sS'hurting'
p1085
I63
sS'good'
p1086
I43
sS'somebody'
p1087
I61
sS'yo'
p1088
I63
sS'ya'
p1089
I62
sS'it"'
p1090
I63
sS'pope?"'
p1091
I63
sS"you've"
p1092
I62
sS'complain'
p1093
I62
sS'easily'
p1094
I63
sS'romanticizing'
p1095
I63
sS'everytime'
p1096
I60
sS'always'
p1097
I53
sS'habits'
p1098
I63
sS'stopped'
p1099
I63
sS'12th'
p1100
I63
sS'shocking'
p1101
I63
sS"isn't"
p1102
I58
sS'flashbacks'
p1103
I63
sS'everyone'
p1104
I62
sS'upstairs'
p1105
I63
sS'house'
p1106
I62
sS'hard'
p1107
I61
sS'brother'
p1108
I63
sS'expect'
p1109
I62
sS'surly'
p1110
I63
sS'ahahha'
p1111
I63
sS'anarchy'
p1112
I63
sS'really'
p1113
I41
sS'me!!\xe2\x9d\xa4\xef\xb8\x8f\xe2\x9d\xa4\xef\xb8\x8f\xe2\x9d\xa4\xef\xb8\x8f'
p1114
I63
sS'since'
p1115
I60
sS'****'
p1116
I63
sS'health'
p1117
I63
sS'hill'
p1118
I63
sS'7'
p1119
I62
sS'quince'
p1120
I63
sS'ass'
p1121
I53
sS'forgive'
p1122
I63
sS'bulls'
p1123
I63
sS'reason'
p1124
I60
sS'cookie'
p1125
I63
sS'disneyland'
p1126
I63
sS'imagine'
p1127
I62
sS'put'
p1128
I55
sS'teach'
p1129
I63
sS'terrible'
p1130
I63
sS'fallen'
p1131
I63
sS'dont'
p1132
I63
sS'feel'
p1133
I45
sS'valentine'
p1134
I62
sS'done'
p1135
I59
sS'miss'
p1136
I51
sS'guess'
p1137
I63
sS'killin'
p1138
I63
sS'ho-oh'
p1139
I63
sS'least'
p1140
I63
sS'eddy'
p1141
I63
sS'wonderful'
p1142
I62
sS'storm'
p1143
I63
sS'mama'
p1144
I63
sS'imperfect'
p1145
I63
sS'relationship'
p1146
I60
sS'hotel'
p1147
I63
sS'park'
p1148
I58
sS'part'
p1149
I61
sS'albums'
p1150
I63
sS'believe'
p1151
I57
sS'mosdef'
p1152
I63
sS'compliments'
p1153
I63
sS'god\xe2\x80\x9d'
p1154
I63
sS'tummy'
p1155
I62
sS'8:30'
p1156
I63
sS'treated'
p1157
I63
sS'swerve'
p1158
I63
sS'basically'
p1159
I63
sS'juice'
p1160
I63
sS'lie'
p1161
I62
sS'speaking'
p1162
I63
sS'para'
p1163
I63
sS'lib'
p1164
I63
sS'lil'
p1165
I61
sS'liz'
p1166
I63
sS'play'
p1167
I54
sS'towards'
p1168
I63
sS'most'
p1169
I59
sS'experiences'
p1170
I63
sS'plan'
p1171
I62
sS'significant'
p1172
I63
sS'nothing'
p1173
I59
sS'seasons'
p1174
I63
sS'gentrification'
p1175
I63
sS'windows'
p1176
I63
sS'...beasty\xe2\x9d\xa4'
p1177
I63
sS'clear'
p1178
I61
sS'sometimes'
p1179
I61
sS'cover'
p1180
I63
sS'prettier'
p1181
I63
sS'lying'
p1182
I63
sS'joining'
p1183
I62
sS'rtd'
p1184
I63
sS'ugh'
p1185
I62
sS'gold'
p1186
I63
sS'headlined'
p1187
I63
sS'stalker'
p1188
I63
sS'carefully'
p1189
I62
sS'cameo'
p1190
I63
sS'broadcasters.\xe2\x80\x9d'
p1191
I63
sS'find'
p1192
I57
sS'zumba'
p1193
I63
sS'waiting'
p1194
I63
sS'pretty'
p1195
I63
sS'8'
p1196
I62
sS"rony's"
p1197
I63
sS'accurate'
p1198
I63
sS'hip'
p1199
I63
sS'woodside'
p1200
I63
sS'his'
p1201
I60
sS'hit'
p1202
I60
sS'beyonc\xc3\xa9'
p1203
I63
sS'distance'
p1204
I63
sS'bug'
p1205
I63
sS'feels'
p1206
I61
sS'during'
p1207
I63
sS'him'
p1208
I55
sS'enemy'
p1209
I63
sS'cry'
p1210
I61
sS'sacrifices'
p1211
I63
sS'relentless'
p1212
I63
sS'insane'
p1213
I63
sS'set'
p1214
I63
sS'jade'
p1215
I63
sS'startup'
p1216
I63
sS'see'
p1217
I42
sS'dumb'
p1218
I63
sS'are'
p1219
I33
sS'close'
p1220
I59
sS'arm'
p1221
I63
sS'theaters\xe2\x80\xa6'
p1222
I63
sS'visiting'
p1223
I62
sS'movie'
p1224
I62
sS'wow'
p1225
I56
sS'please'
p1226
I61
sS'woo'
p1227
I62
sS'won'
p1228
I63
sS'probably'
p1229
I55
sS'piss'
p1230
I63
sS'solo'
p1231
I63
sS'missing'
p1232
I63
sS"'make"
p1233
I63
sS'both'
p1234
I61
sS'last'
p1235
I63
sS"wouldn't"
p1236
I62
sS'shanka'
p1237
I63
sS'whole'
p1238
I61
sS'finds'
p1239
I63
sS'flies'
p1240
I62
sS'headed'
p1241
I62
sS'manners'
p1242
I63
sS'whatever'
p1243
I62
sS'hollow'
p1244
I63
sS'church'
p1245
I61
sS'devil'
p1246
I63
sS'due'
p1247
I63
sS'damn'
p1248
I47
sS'stuntin'
p1249
I63
sS'steph'
p1250
I62
sS'okaaaaay'
p1251
I63
sS'woke'
p1252
I63
sS'vans'
p1253
I63
sS'gay'
p1254
I63
sS"what's"
p1255
I60
sS'else'
p1256
I62
sS'gal'
p1257
I63
sS'understand'
p1258
I62
sS'specifically'
p1259
I63
sS'ohhh'
p1260
I63
sS'look'
p1261
I60
sS'raw'
p1262
I63
sS'frozen'
p1263
I63
sS'straight'
p1264
I63
sS'ahah'
p1265
I63
sS'while'
p1266
I61
sS'fun'
p1267
I63
sS'robin'
p1268
I63
sS'-matthew'
p1269
I63
sS'hoping'
p1270
I63
sS'moth'
p1271
I63
sS'maketheir'
p1272
I63
sS'ready'
p1273
I52
sS'hyperbole'
p1274
I63
sS'aches'
p1275
I63
sS'anymore'
p1276
I61
sS'read'
p1277
I62
sS'9'
p1278
I63
sS'advise'
p1279
I62
sS'spears'
p1280
I63
sS'used'
p1281
I62
sS'yesterday'
p1282
I63
sS'moment'
p1283
I58
sS'nights'
p1284
I63
sS'moving'
p1285
I63
sS'dark'
p1286
I59
sS'stephanie'
p1287
I63
sS'anybody'
p1288
I59
sS'obviously'
p1289
I62
sS'person'
p1290
I61
sS'y'
p1291
I63
sS'spend'
p1292
I61
sS'hotdog'
p1293
I63
sS'simp'
p1294
I63
sS'questions'
p1295
I63
sS'regardless'
p1296
I63
sS'letting'
p1297
I63
sS'cut'
p1298
I63
sS'cup'
p1299
I63
sS'crying'
p1300
I62
sS'excited'
p1301
I61
sS'hates'
p1302
I63
sS'big'
p1303
I59
sS'couple'
p1304
I62
sS'matters'
p1305
I63
sS'game'
p1306
I59
sS'biz'
p1307
I63
sS'moods'
p1308
I63
sS'bit'
p1309
I62
sS'richie'
p1310
I63
sS'shapes'
p1311
I63
sS'foolish'
p1312
I63
sS'fucking'
p1313
I60
sS'goddamn'
p1314
I63
sS'some'
p1315
I53
sS'back'
p1316
I48
sS'theyre'
p1317
I63
sS'added'
p1318
I63
sS'pet'
p1319
I63
sS'religion'
p1320
I63
sS'prom'
p1321
I63
sS'pee'
p1322
I63
sS'dating'
p1323
I63
sS'be'
p1324
I19
sS'eating'
p1325
I63
sS'rum'
p1326
I63
sS'300'
p1327
I63
sS'"lost'
p1328
I63
sS'step'
p1329
I60
sS'chola'
p1330
I63
sS'by'
p1331
I54
sS'faith'
p1332
I63
sS'anything'
p1333
I53
sS'netflix'
p1334
I62
sS'delish'
p1335
I63
sS'idk'
p1336
I62
sS'bish'
p1337
I63
sS'wanna'
p1338
I52
sS'ppl'
p1339
I63
sS'seeing'
p1340
I60
sS'eaten'
p1341
I63
sS'dude'
p1342
I63
sS'into'
p1343
I57
sS'predictions'
p1344
I63
sS'momma'
p1345
I61
sS'nigga'
p1346
I57
sS'smells'
p1347
I63
sS'jalencscott'
p1348
I63
sS'long'
p1349
I57
sS'awks'
p1350
I63
sS'camera'
p1351
I63
sS'lnhs'
p1352
I63
sS'forward'
p1353
I63
sS'bored'
p1354
I63
sS'twitter'
p1355
I60
sS'getto'
p1356
I63
sS'invite'
p1357
I63
sS'singer'
p1358
I63
sS'link'
p1359
I63
sS'pacific'
p1360
I63
sS'._'
p1361
I63
sS'line'
p1362
I63
sS'directed'
p1363
I63
sS'up'
p1364
I19
sS'us'
p1365
I59
sS'ur'
p1366
I63
sS'fried'
p1367
I63
sS'popularity'
p1368
I63
sS'single'
p1369
I63
sS'nah'
p1370
I63
sS'nap'
p1371
I63
sS'nat'
p1372
I58
sS'nice'
p1373
I58
sS'problems'
p1374
I63
sS'clue'
p1375
I63
sS'meals'
p1376
I63
sS'lane'
p1377
I63
sS'texted'
p1378
I63
sS"she'd"
p1379
I63
sS'hella'
p1380
I63
sS"she's"
p1381
I57
sS'svu'
p1382
I63
sS'having'
p1383
I60
sS'once'
p1384
I57
sS'essay'
p1385
I63
sS'cynthia'
p1386
I63
sS'gf'
p1387
I63
sS'go'
p1388
I31
sS'issues'
p1389
I62
sS'-nsn'
p1390
I63
sS'stable'
p1391
I63
sS'dislike'
p1392
I63
sS'include'
p1393
I63
sS'sent'
p1394
I62
sS'random'
p1395
I63
sS'garden'
p1396
I63
sS'telling'
p1397
I63
sS'britney'
p1398
I63
sS'notes'
p1399
I63
sS'shock'
p1400
I63
sS'try'
p1401
I58
sS'congrats'
p1402
I63
sS'obesity'
p1403
I63
sS'joey'
p1404
I63
sS'booty'
p1405
I63
sS'bedliner'
p1406
I63
sS'video'
p1407
I62
sS'reunion'
p1408
I63
sS'ummm'
p1409
I63
sS'odd'
p1410
I63
sS'depression'
p1411
I62
sS'cupcakes'
p1412
I63
sS'power'
p1413
I63
sS'giving'
p1414
I63
sS'anthem'
p1415
I63
sS'think)'
p1416
I63
sS'bestfriends'
p1417
I63
sS'kershaw'
p1418
I63
sS'body'
p1419
I61
sS'lee'
p1420
I63
sS'got'
p1421
I43
sS'pushing'
p1422
I63
sS'punch'
p1423
I62
sS'leo'
p1424
I63
sS'let'
p1425
I49
sS'others'
p1426
I63
sS'luis'
p1427
I63
sS'irritating'
p1428
I63
sS'great'
p1429
I51
sS'fooooooo'
p1430
I63
sS'copyright'
p1431
I63
sS'stupidity'
p1432
I63
sS'"nailed'
p1433
I63
sS"weren't"
p1434
I63
sS'opinion'
p1435
I63
sS'makes'
p1436
I53
sS'thats'
p1437
I63
sS'named'
p1438
I63
sS'win'
p1439
I62
sS'manage'
p1440
I63
sS'scandal'
p1441
I63
sS'use'
p1442
I55
sS'from'
p1443
I48
sS'&'
p1444
I56
sS'doodle'
p1445
I63
sS'cray'
p1446
I63
sS'next'
p1447
I61
sS'few'
p1448
I61
sS'doubt'
p1449
I63
sS'themselves'
p1450
I62
sS'babe'
p1451
I61
sS'started'
p1452
I61
sS'about'
p1453
I41
sS'rabbis'
p1454
I63
sS'train'
p1455
I63
sS'baby'
p1456
I51
sS'pocahontas'
p1457
I63
sS'subscription'
p1458
I63
sS'annoy'
p1459
I63
sS'disneyland???\xe2\x80\x9d'
p1460
I63
sS'salad'
p1461
I62
sS'this'
p1462
I21
sS'ride'
p1463
I63
sS'donut'
p1464
I63
sS'anywhere'
p1465
I62
sS'meet'
p1466
I62
sS'drops'
p1467
I63
sS'point'
p1468
I63
sS'do'
p1469
I27
sS'lock'
p1470
I63
sS'halloween'
p1471
I63
sS'high'
p1472
I62
sS'tag'
p1473
I63
sS'something'
p1474
I57
sS'sis'
p1475
I63
sS'sit'
p1476
I61
sS'yayyyyy'
p1477
I63
sS'instead'
p1478
I62
sS'uhhh'
p1479
I63
sS'stop'
p1480
I57
sS'jonathon'
p1481
I63
sS'bakery'
p1482
I63
sS'honestly'
p1483
I62
sS'normie'
p1484
I63
sS'ha'
p1485
I63
sS'demme'
p1486
I63
sS'macklemore'
p1487
I63
sS"won't"
p1488
I63
sS'looks'
p1489
I59
sS'perfect'
p1490
I59
sS'guy\xe2\x80\x9d'
p1491
I63
sS"'upskirting'"
p1492
I63
sS'la'
p1493
I49
sS'holiday\xe2\x80\xa6'
p1494
I63
sS"gogh's"
p1495
I63
sS'choose'
p1496
I62
sS'covered'
p1497
I63
sS'bye'
p1498
I63
sS"rough'"
p1499
I63
sS'<'
p1500
I63
sS'dad'
p1501
I52
sS'richards'
p1502
I63
sS'practice'
p1503
I63
sS'culebra'
p1504
I61
sS'kiss'
p1505
I63
sS'hands'
p1506
I62
sS'day'
p1507
I39
sS'4:40'
p1508
I63
sS'truth'
p1509
I63
sS'showering'
p1510
I63
sS'gadot'
p1511
I63
sS'pitty'
p1512
I60
sS'doing'
p1513
I60
sS'snapchattttttttttttt'
p1514
I63
sS'our'
p1515
I61
sS'out'
p1516
I33
sS'cause'
p1517
I49
sS'completely'
p1518
I63
sS'anyhow'
p1519
I63
sS'craving'
p1520
I61
sS'scary'
p1521
I63
sS'yard'
p1522
I63
sS'could'
p1523
I61
sS'times'
p1524
I57
sS'\xe2\x9c\xa8\xe2\x98\x80\xef\xb8\x8f\xe2\x9d\xa4\xef\xb8\x8f'
p1525
I63
sS'conversation'
p1526
I61
sS'chills'
p1527
I63
sS'shrek'
p1528
I63
sS'scare'
p1529
I63
sS'ihy'
p1530
I63
sS'blown'
p1531
I63
sS'jesus'
p1532
I63
sS'embarrassed'
p1533
I63
sS'bitch'
p1534
I56
sS'bjork'
p1535
I63
sS'kidding'
p1536
I63
sS'hehe'
p1537
I63
sS"you're"
p1538
I49
sS'start'
p1539
I58
sS'system'
p1540
I63
sS'their'
p1541
I58
sS'noooooo'
p1542
I63
sS'myside'
p1543
I63
sS'wrapped'
p1544
I63
sS'"love"'
p1545
I63
sS'final'
p1546
I59
sS'shell'
p1547
I63
sS'stomach'
p1548
I57
sS'ohhhhhhh'
p1549
I63
sS'nobody'
p1550
I62
sS'putos'
p1551
I63
sS'depressing'
p1552
I62
sS'july'
p1553
I63
sS'ipad'
p1554
I63
sS'loved'
p1555
I62
sS'prune'
p1556
I63
sS'bother'
p1557
I63
sS"rosie's"
p1558
I63
sS'bed'
p1559
I61
sS'loves'
p1560
I62
sS'6th'
p1561
I63
sS'anytime'
p1562
I63
sS'tonight'
p1563
I61
sS'have'
p1564
I25
sS'need'
p1565
I51
sS'meds'
p1566
I63
sS'angle'
p1567
I63
sS'min'
p1568
I63
sS'mid'
p1569
I63
sS'purchasing'
p1570
I63
sS'mix'
p1571
I63
sS'which'
p1572
I63
sS'truck'
p1573
I63
sS'beltr\xc3\xa1n'
p1574
I63
sS'='
p1575
I62
sS'dknt'
p1576
I63
sS'unless'
p1577
I63
sS'flipside'
p1578
I63
sS'who'
p1579
I54
sS"where's"
p1580
I63
sS'**'
p1581
I62
sS'why'
p1582
I40
sS'lames'
p1583
I63
sS'deny'
p1584
I63
sS'upset'
p1585
I63
sS'face'
p1586
I57
sS"you'll"
p1587
I63
sS'obgyn'
p1588
I63
sS'pictures'
p1589
I63
sS'normally'
p1590
I63
sS'fact'
p1591
I63
sS'$$$'
p1592
I63
sS'wifing'
p1593
I63
sS'text'
p1594
I61
sS'anyway'
p1595
I63
sS'bring'
p1596
I62
sS'fear'
p1597
I63
sS'one'
p1598
I40
sS'filmed'
p1599
I63
sS'winner'
p1600
I63
sS'should'
p1601
I56
sS'brighter'
p1602
I61
sS'satan'
p1603
I63
sS'piano'
p1604
I63
sS'hiiiii'
p1605
I63
sS'hope'
p1606
I57
sS'meant'
p1607
I62
sS'count'
p1608
I63
sS'handle'
p1609
I63
sS'watching'
p1610
I59
sS'beat'
p1611
I62
sS'dope'
p1612
I61
sS'hopefully'
p1613
I63
sS'lucky'
p1614
I62
sS'tbh'
p1615
I63
sS'community'
p1616
I63
sS'tierra'
p1617
I61
sS'words'
p1618
I62
sS'timing'
p1619
I63
sS'calling'
p1620
I62
sS'stuff'
p1621
I58
sS'she'
p1622
I49
sS'nightingale'
p1623
I63
sS'grab'
p1624
I63
sS'national'
p1625
I62
sS'we'
p1626
I42
sS'tend'
p1627
I63
sS'horrible'
p1628
I63
sS'pants'
p1629
I63
sS'trynna'
p1630
I63
sS'opening'
p1631
I63
sS'time\xe2\x80\x9d'
p1632
I63
sS'courtyard'
p1633
I63
sS'kicking'
p1634
I62
sS'job'
p1635
I62
sS'selena'
p1636
I62
sS'problem'
p1637
I63
sS'staring'
p1638
I62
sS'hits'
p1639
I63
sS'beer.\xe2\x80\x9d'
p1640
I63
sS'instant'
p1641
I63
sS'joke'
p1642
I61
sS'admit'
p1643
I63
sS'figures'
p1644
I63
sS'atleast'
p1645
I61
sS'passing'
p1646
I62
sS'highland'
p1647
I62
sS'wall'
p1648
I63
sS'walk'
p1649
I60
sS'denise'
p1650
I63
sS'laugh'
p1651
I59
sS'respect'
p1652
I63
sS'pouring'
p1653
I63
sS"it's"
p1654
I23
sS'unspoken'
p1655
I63
sS'slowly'
p1656
I63
sS'yah'
p1657
I63
sS'yaaaaaayayaya'
p1658
I63
sS'feather'
p1659
I63
sS'league'
p1660
I63
sS'painted'
p1661
I63
sS'finished'
p1662
I63
sS'accident'
p1663
I63
sS'-.-'
p1664
I53
sS'restarted/rebooted'
p1665
I63
sS'muthaaaafuckaa'
p1666
I63
sS'moya'
p1667
I63
sS'7-4'
p1668
I63
sS'will'
p1669
I48
sS'hahaha'
p1670
I63
sS'almost'
p1671
I63
sS'walks'
p1672
I63
sS'lust'
p1673
I63
sS'vs'
p1674
I63
sS'ave'
p1675
I63
sS'balloon'
p1676
I63
sS'eugenia'
p1677
I63
sS'gets'
p1678
I62
sS'difficult'
p1679
I63
sS'raymond'
p1680
I63
sS'premiere'
p1681
I63
sS'd2b'
p1682
I63
sS'ion'
p1683
I63
sS'muthaaaaafucka'
p1684
I63
sS'sisters'
p1685
I63
sS'keep'
p1686
I56
sS'off'
p1687
I61
sS'center'
p1688
I63
sS'mention'
p1689
I63
sS'i'
p1690
I2
sS'well'
p1691
I57
sS'fighting'
p1692
I63
sS'oops'
p1693
I63
sS'english'
p1694
I63
sS'newest'
p1695
I63
sS'cried'
p1696
I63
sS"should've"
p1697
I63
sS'griffith'
p1698
I63
sS'happiness'
p1699
I63
sS'photobucket'
p1700
I63
sS'drunk'
p1701
I62
sS'realize'
p1702
I63
sS'attractive'
p1703
I62
sS'5'
p1704
I59
sS'intimated'
p1705
I63
sS'livin'
p1706
I63
sS'checking'
p1707
I63
sS"who's"
p1708
I61
sS'crushed'
p1709
I63
sS'5am'
p1710
I63
sS'know'
p1711
I37
sS'forcing'
p1712
I63
sS'like'
p1713
I16
sS'lost'
p1714
I63
sS'sizes'
p1715
I63
sS'ring'
p1716
I63
sS'lose'
p1717
I62
sS'works'
p1718
I63
sS'because'
p1719
I58
sS'scared'
p1720
I62
sS'alive'
p1721
I63
sS'hair'
p1722
I63
sS'home'
p1723
I61
sS'happens'
p1724
I57
sS'lead'
p1725
I63
sS'literally'
p1726
I63
sS'markers'
p1727
I63
sS'babymama'
p1728
I63
sS'does'
p1729
I59
sS'trout'
p1730
I62
sS'noise'
p1731
I63
sS'how'
p1732
I38
sS"weeknd's"
p1733
I63
sS'hiding'
p1734
I63
sS'sister'
p1735
I51
sS':-)'
p1736
I62
sS'getting'
p1737
I56
sS'universe'
p1738
I63
sS'swear'
p1739
I61
sS'recognizes'
p1740
I63
sS'tongue'
p1741
I63
sS'own'
p1742
I57
sS'letters'
p1743
I63
sS'keeps'
p1744
I63
sS'owe'
p1745
I63
sS'pussy'
p1746
I61
sS'errands'
p1747
I63
sS'weather'
p1748
I63
sS'promise'
p1749
I63
sS'bueno'
p1750
I63
sS'hmmmmm'
p1751
I63
sS'gentrifying'
p1752
I63
sS'van'
p1753
I63
sS'sir_t0n'
p1754
I63
sS'noticed'
p1755
I62
sS'bump'
p1756
I63
sS'inner'
p1757
I63
sS'frustration'
p1758
I63
sS'torch'
p1759
I63
sS'north'
p1760
I63
sS'chatting'
p1761
I63
sS"i've"
p1762
I59
sS'coke'
p1763
I63
sS'bitches'
p1764
I63
sS'but'
p1765
I20
sS'strawberries'
p1766
I63
sS'goals'
p1767
I63
sS'overnight'
p1768
I63
sS'eat'
p1769
I59
sS'he'
p1770
I49
sS'tomorrow\xe2\x9c\xa8'
p1771
I63
sS'made'
p1772
I59
sS'wish'
p1773
I61
sS'flip'
p1774
I63
sS'mcconaughey'
p1775
I63
sS'supreme'
p1776
I63
sS'penny'
p1777
I63
sS'pit'
p1778
I63
sS'happen'
p1779
I62
sS'ingredients'
p1780
I63
sS'boos'
p1781
I63
sS'other'
p1782
I59
sS'boom'
p1783
I61
sS'sick'
p1784
I60
sS'brodel'
p1785
I63
sS'star'
p1786
I63
sS'monday'
p1787
I63
sS'carlitos'
p1788
I63
sS'class'
p1789
I63
sS'stay'
p1790
I61
sS'kinda'
p1791
I62
sS'friends'
p1792
I52
sS'kardashian'
p1793
I63
sS'awake'
p1794
I58
s.