(dp0
S''
p1
I2
sS'all'
p2
I14
sS':/'
p3
I13
sS':)'
p4
I14
sS'hate'
p5
I11
sS'disgusting'
p6
I14
sS'to'
p7
I6
sS'finally'
p8
I14
sS'\xee\x90\x87,90065\n414527597788164096,joey_ducks22,2013-12-21'
p9
I14
sS'worse'
p10
I14
sS'very'
p11
I13
sS'fall'
p12
I14
sS'cool'
p13
I14
sS'school'
p14
I14
sS'did'
p15
I14
sS'try'
p16
I14
sS'this'
p17
I12
sS'mount'
p18
I14
sS'unexpected'
p19
I14
sS'waking'
p20
I14
sS'uncomfortable'
p21
I14
sS',90065\n480761331759341568,drizzypink99,2014-06-22'
p22
I14
sS'even'
p23
I14
sS'what'
p24
I12
sS'mt'
p25
I13
sS'near'
p26
I14
sS'falling'
p27
I14
sS'ever'
p28
I14
sS'told'
p29
I14
sS'feisty'
p30
I14
sS'water'
p31
I14
sS'\xe2\x9d\xa4\xef\xb8\x8f'
p32
I14
sS'busy'
p33
I14
sS'23:12:18.0,34.1050695,-118.223555,1852.04,happy'
p34
I14
sS'wait'
p35
I14
sS'great'
p36
I14
sS"sonia's"
p37
I14
sS"weren't"
p38
I14
sS'boo'
p39
I13
sS"i'm"
p40
I13
sS'makes'
p41
I13
sS'massage'
p42
I14
sS'love'
p43
I11
sS'family'
p44
I13
sS'strap'
p45
I14
sS'bro'
p46
I14
sS'till'
p47
I14
sS',90065\n427503790561198081,babygirl_323,2014-01-26'
p48
I14
sS'overthink'
p49
I14
sS'from'
p50
I14
sS'would'
p51
I13
sS'&'
p52
I14
sS'tell'
p53
I14
sS'more'
p54
I12
sS'babe'
p55
I14
sS'knows'
p56
I14
sS'company'
p57
I14
sS'haha'
p58
I13
sS'sore'
p59
I14
sS'baby'
p60
I13
sS'had'
p61
I14
sS'me'
p62
I9
sS'damien'
p63
I14
sS'work'
p64
I14
sS'movies'
p65
I14
sS'vow'
p66
I14
sS'can'
p67
I13
sS'18:10:20.0,34.103616,-118.2255903,1852.04,perfect'
p68
I14
sS'my'
p69
I7
sS'beautiful'
p70
I14
sS'mehh'
p71
I14
sS'fuck'
p72
I14
sS'high'
p73
I14
sS'want'
p74
I13
sS'awkward'
p75
I14
sS'lame'
p76
I14
sS'get'
p77
I14
sS'struggles'
p78
I14
sS'how'
p79
I14
sS'hot'
p80
I13
sS'fuskies'
p81
I14
sS'beauty'
p82
I14
sS'birthday'
p83
I14
sS'such'
p84
I14
sS'suck'
p85
I14
sS'law'
p86
I14
sS'man'
p87
I12
sS'a'
p88
I3
sS'lost'
p89
I14
sS'harley'
p90
I14
sS'upside'
p91
I14
sS'22:47:35.0,34.10388488,-118.2285485,1852.04,super'
p92
I14
sS'playing'
p93
I14
sS"that's"
p94
I14
sS'replied'
p95
I14
sS'wut'
p96
I14
sS'soon'
p97
I13
sS'course'
p98
I14
sS'cold'
p99
I14
sS'still'
p100
I14
sS'before'
p101
I14
sS'perfect'
p102
I14
sS'la'
p103
I13
sS'avocado'
p104
I14
sS'[pic]'
p105
I14
sS'late'
p106
I14
sS'holiday'
p107
I14
sS'might'
p108
I14
sS"haven't"
p109
I14
sS'good'
p110
I12
sS'yo'
p111
I14
sS'ya'
p112
I14
sS'srsly'
p113
I14
sS'hands'
p114
I14
sS'not'
p115
I13
sS'now'
p116
I13
sS'day'
p117
I11
sS'down'
p118
I14
sS'name'
p119
I14
sS'always'
p120
I13
sS'rocks'
p121
I14
sS'found'
p122
I14
sS"ya'll"
p123
I14
sS'em'
p124
I14
sS'doing'
p125
I14
sS'carry'
p126
I14
sS'our'
p127
I14
sS'saturday'
p128
I14
sS'rt'
p129
I14
sS'living'
p130
I14
sS'matt'
p131
I13
sS'huck'
p132
I14
sS"04:11:33.0,34.10434194,-118.21810196,1852.04,zoey's"
p133
I14
sS'since'
p134
I14
sS'hooked'
p135
I14
sS'nite'
p136
I14
sS'got'
p137
I13
sS'thass'
p138
I14
sS'nudes'
p139
I14
sS'ass'
p140
I14
sS'calming'
p141
I14
sS'care'
p142
I13
sS'scary'
p143
I14
sS'could'
p144
I14
sS'moment'
p145
I14
sS'keep'
p146
I14
sS'thing'
p147
I14
sS'think'
p148
I14
sS'first'
p149
I12
sS'angieb625'
p150
I14
sS'feel'
p151
I14
sS'hearing'
p152
I14
sS'wash'
p153
I14
sS'long'
p154
I14
sS'day\xe2\x80\xa6'
p155
I14
sS'miss'
p156
I12
sS'city'
p157
I14
sS'little'
p158
I13
sS'2'
p159
I14
sS'too'
p160
I14
sS'realization'
p161
I14
sS'final'
p162
I14
sS'stomach'
p163
I14
sS'that'
p164
I10
sS'22:41:22.0,34.10347107,-118.22563191,1852.04,i'
p165
I14
sS'nobody'
p166
I14
sS'park'
p167
I14
sS'kept'
p168
I14
sS'herself'
p169
I14
sS'than'
p170
I13
sS'loved'
p171
I14
sS'lmao'
p172
I13
sS'supposed'
p173
I14
sS'and'
p174
I4
sS'normal'
p175
I14
sS'mine'
p176
I14
sS'have'
p177
I11
sS'cardigan'
p178
I14
sS'self'
p179
I14
sS'so'
p180
I11
sS'asshole'
p181
I14
sS'though'
p182
I14
sS'who'
p183
I14
sS'<3\xe2\x80\xa6'
p184
I14
sS'hungry'
p185
I14
sS'storyline'
p186
I14
sS'ugh'
p187
I14
sS'text'
p188
I14
sS'04:13:32.0,34.10347107,-118.22563191,1852.04,how'
p189
I14
sS'canyon)'
p190
I14
sS'takin'
p191
I14
sS'one'
p192
I13
sS'boundaries'
p193
I14
sS'snack'
p194
I14
sS"don't"
p195
I14
sS'idiots'
p196
I14
sS'black'
p197
I14
sS'do'
p198
I13
sS'watching'
p199
I13
sS'watch'
p200
I14
sS'7-11'
p201
I14
sS'ferret'
p202
I14
sS'fluff'
p203
I14
sS'worried'
p204
I14
sS'she'
p205
I13
sS'greetings'
p206
I14
sS'see'
p207
I14
sS'asleep'
p208
I14
sS'are'
p209
I12
sS'surgery'
p210
I14
sS'best'
p211
I14
sS'wonder'
p212
I14
sS'said'
p213
I14
sS'movie'
p214
I14
sS"father's"
p215
I14
sS'3'
p216
I14
sS'feaver'
p217
I14
sS'knowing'
p218
I14
sS'we'
p219
I14
sS'weak'
p220
I14
sS'both'
p221
I14
sS'mans'
p222
I14
sS"he's"
p223
I14
sS'humnn'
p224
I14
sS"can't"
p225
I14
sS'sweet'
p226
I14
sS'ca'
p227
I14
sS'canyon'
p228
I14
sS"it's"
p229
I14
sS'been'
p230
I13
sS'secret'
p231
I14
sS'much'
p232
I13
sS'damn'
p233
I13
sS'>'
p234
I14
sS'gay'
p235
I14
sS'sooooo'
p236
I14
sS'careful'
p237
I14
sS'chill'
p238
I14
sS'sound'
p239
I14
sS'look'
p240
I14
sS'17:16:48.0,34.0981869,-118.2228821,1852.04,i'
p241
I14
sS'raspy'
p242
I14
sS'will'
p243
I14
sS'while'
p244
I14
sS'cuh'
p245
I14
sS'is'
p246
I10
sS'sanitizer'
p247
I14
sS'it'
p248
I9
sS'couples'
p249
I14
sS'middle'
p250
I14
sS'cant'
p251
I14
sS'someone'
p252
I14
sS'im'
p253
I14
sS'in'
p254
I9
sS'if'
p255
I13
sS'funny'
p256
I13
sS'stealin'
p257
I14
sS'pad'
p258
I14
sS'party'
p259
I14
sS'elyria'
p260
I13
sS'hang'
p261
I14
sS'hand'
p262
I14
sS'cheers'
p263
I14
sS'running'
p264
I14
sS'off'
p265
I14
sS'center'
p266
I14
sS"mother's"
p267
I14
sS'i'
p268
I1
sS'tho'
p269
I14
sS'the'
p270
I5
sS'timberlake'
p271
I14
sS'hotdog'
p272
I14
sS'just'
p273
I14
sS'less'
p274
I14
sS'thanks'
p275
I14
sS'yes'
p276
I14
sS'yet'
p277
I14
sS'halfway'
p278
I14
sS'eli'
p279
I14
sS'hills'
p280
I14
sS'drive'
p281
I13
sS'drbrown440'
p282
I14
sS'east'
p283
I14
sS'celeste'
p284
I14
sS'kick'
p285
I14
sS'hater'
p286
I14
sS'ops'
p287
I14
sS'five'
p288
I14
sS'know'
p289
I14
sS'wings'
p290
I14
sS'like'
p291
I13
sS'gift'
p292
I14
sS'toyota'
p293
I14
sS'night'
p294
I12
sS'right'
p295
I14
sS'people'
p296
I14
sS'twitter'
p297
I14
sS'back'
p298
I14
sS"nothing's"
p299
I14
sS'escape'
p300
I14
sS'home'
p301
I14
sS'for'
p302
I11
sS'leak'
p303
I14
sS'a\xe2\x80\xa6'
p304
I14
sS'be'
p305
I11
sS'bc'
p306
I14
sS'hours,90065\n478314084266303488,actor_bartender,2014-06-15'
p307
I14
sS'about'
p308
I11
sS'justin'
p309
I14
sS'anything'
p310
I14
sS'oh'
p311
I14
sS'of'
p312
I8
sS'angeles'
p313
I14
sS'or'
p314
I14
sS'ice!!wooh!\xe2\x80\x9d'
p315
I14
sS'washington'
p316
I12
sS"00:22:32.0,34.1036739,-118.2253456,1852.04,can't"
p317
I14
sS'momma'
p318
I14
sS'weather'
p319
I14
sS'promise'
p320
I14
sS'parties'
p321
I14
sS'elementary'
p322
I14
sS'your'
p323
I13
sS'buds'
p324
I14
sS'her'
p325
I12
sS'question'
p326
I14
sS'lol'
p327
I13
sS'los'
p328
I14
sS'way'
p329
I13
sS'bruh'
p330
I14
sS'was'
p331
I12
sS'happy'
p332
I13
sS'an'
p333
I14
sS"i've"
p334
I14
sS'but'
p335
I13
sS'uncle'
p336
I14
sS'line'
p337
I14
sS'with'
p338
I12
sS'otter'
p339
I14
sS'right\xe2\x80\x9d'
p340
I14
sS'up'
p341
I12
sS'ur'
p342
I14
sS'taste'
p343
I14
sS'am'
p344
I14
sS'videoz'
p345
I14
sS'again'
p346
I14
sS'arrowhead'
p347
I14
sS'no'
p348
I13
sS'when'
p349
I13
sS'sick'
p350
I13
sS'you'
p351
I3
sS'intend'
p352
I14
sS'time'
p353
I13
sS'papa'
p354
I14
sS'dabulous'
p355
I14
sS'friends'
p356
I14
sS'sounded'
p357
I14
sS'memories'
p358
I13
sS"she's"
p359
I12
sS'accidents'
p360
I14
sS'having'
p361
I14
s.