(dp0
S''
p1
I1
sS'all'
p2
I18
sS'squats'
p3
I20
sS'zine'
p4
I20
sS'sleep'
p5
I20
sS'hanging'
p6
I20
sS'go'
p7
I16
sS'drinkin'
p8
I20
sS'tweet'
p9
I20
sS'tu'
p10
I19
sS'send'
p11
I20
sS'to'
p12
I7
sS'tf'
p13
I19
sS'lord'
p14
I20
sS'td'
p15
I20
sS',90065\n470048493902393344,priiincess_12,2014-05-24'
p16
I20
sS'veterans'
p17
I20
sS'song'
p18
I19
sS'selfies'
p19
I20
sS'smack'
p20
I20
sS"bae's"
p21
I20
sS'exact'
p22
I20
sS'school'
p23
I19
sS'magic'
p24
I20
sS'level'
p25
I20
sS"qb's"
p26
I20
sS'hawaii'
p27
I20
sS'turnt'
p28
I20
sS'round'
p29
I20
sS"i'll"
p30
I19
sS'cookies'
p31
I20
sS'boots'
p32
I20
sS'jump'
p33
I20
sS'"romantic"'
p34
I20
sS'picked'
p35
I20
sS'even'
p36
I20
sS'what'
p37
I19
sS'bb'
p38
I20
sS'giving'
p39
I20
sS'youuu'
p40
I20
sS'crush'
p41
I20
sS'new'
p42
I19
sS'ever'
p43
I20
sS'public'
p44
I20
sS'leg'
p45
I20
sS'never'
p46
I19
sS'here'
p47
I20
sS'civilians'
p48
I20
sS'100'
p49
I20
sS'strong'
p50
I20
sS'shoulda'
p51
I20
sS'wait'
p52
I18
sS"i'm"
p53
I11
sS'makes'
p54
I20
sS'york'
p55
I20
sS'love'
p56
I18
sS'hiking'
p57
I19
sS'win'
p58
I20
sS'coladas'
p59
I19
sS'bro'
p60
I20
sS'buenas'
p61
I20
sS'use'
p62
I20
sS'from'
p63
I18
sS'10hrs'
p64
I20
sS'donuts'
p65
I20
sS'baee'
p66
I20
sS'ca)'
p67
I20
sS'curioso'
p68
I20
sS'ahhh'
p69
I20
sS'thru'
p70
I20
sS'tell'
p71
I20
sS'today'
p72
I20
sS'sort'
p73
I20
sS'haha'
p74
I20
sS'oregon'
p75
I20
sS'chocolate'
p76
I20
sS'phone'
p77
I20
sS"ain't"
p78
I20
sS'me'
p79
I3
sS'this'
p80
I17
sS'work'
p81
I20
sS'can'
p82
I20
sS'praise'
p83
I20
sS'my'
p84
I4
sS'nothing*'
p85
I20
sS'beautiful'
p86
I20
sS'crazy'
p87
I20
sS"didn't"
p88
I20
sS'fuck'
p89
I20
sS'high'
p90
I20
sS'something'
p91
I20
sS'want'
p92
I19
sS'blvd'
p93
I20
sS'ceremony'
p94
I20
sS'needs'
p95
I20
sS'rays'
p96
I19
sS'end'
p97
I19
sS'needa'
p98
I20
sS'hot'
p99
I20
sS'jwoww'
p100
I20
sS'instead'
p101
I20
sS'*bumps'
p102
I20
sS'sandwich'
p103
I20
sS'snooki'
p104
I20
sS'bday'
p105
I19
sS'earlier'
p106
I20
sS'taco'
p107
I20
sS'date'
p108
I19
sS'a'
p109
I5
sS'calves'
p110
I20
sS'fuuuh'
p111
I20
sS'2hrs'
p112
I20
sS'so'
p113
I16
sS'noches'
p114
I20
sS'things'
p115
I20
sS'sc'
p116
I20
sS'playing'
p117
I19
sS'talk'
p118
I20
sS"that's"
p119
I20
sS'salon'
p120
I20
sS'mexican'
p121
I20
sS"don't"
p122
I16
sS'over'
p123
I19
sS'move'
p124
I20
sS'through'
p125
I20
sS'cruise'
p126
I20
sS'cold'
p127
I19
sS'blocked'
p128
I20
sS'la'
p129
I20
sS'bringing'
p130
I20
sS'border'
p131
I20
sS'beyonce'
p132
I20
sS'sunday'
p133
I20
sS'[pic]'
p134
I20
sS'better'
p135
I19
sS'covered'
p136
I20
sS'main'
p137
I20
sS'2011'
p138
I20
sS'selfie'
p139
I19
sS'then'
p140
I14
sS'them'
p141
I20
sS'good'
p142
I19
sS'moms'
p143
I19
sS'dam'
p144
I20
sS'break'
p145
I20
sS'records'
p146
I20
sS'wealthy'
p147
I20
sS'not'
p148
I18
sS'one'
p149
I20
sS'day'
p150
I16
sS'degree"'
p151
I20
sS'went'
p152
I19
sS'side'
p153
I20
sS"isn't"
p154
I20
sS'mean'
p155
I20
sS'weeknd'
p156
I20
sS'idea'
p157
I20
sS'brother'
p158
I20
sS'pupuseria'
p159
I20
sS'our'
p160
I20
sS'girl'
p161
I18
sS'bull"'
p162
I20
sS'out'
p163
I17
sS'album'
p164
I19
sS'driving'
p165
I20
sS'miss'
p166
I19
sS'hmmkay'
p167
I20
sS'seriously'
p168
I20
sS'got'
p169
I20
sS'rn'
p170
I18
sS'cause'
p171
I20
sS'ass'
p172
I20
sS'after'
p173
I19
sS'frank'
p174
I20
sS'little'
p175
I18
sS'mmm'
p176
I20
sS'asf'
p177
I20
sS'favs'
p178
I20
sS'dammit'
p179
I20
sS'ate'
p180
I20
sS'awwwwe'
p181
I20
sS'think'
p182
I19
sS'fuckin'
p183
I20
sS'first'
p184
I20
sS'already'
p185
I20
sS'saving'
p186
I20
sS'feel'
p187
I19
sS'jesus'
p188
I20
sS'lol'
p189
I18
sS'drove'
p190
I20
sS'open'
p191
I20
sS'tomorrow'
p192
I19
sS'hood'
p193
I20
sS"you're"
p194
I17
sS'guess'
p195
I19
sS'toy'
p196
I20
sS'anyone'
p197
I20
sS'strawberrriessss'
p198
I20
sS'2'
p199
I19
sS'too'
p200
I17
sS'legs'
p201
I20
sS'malibu'
p202
I20
sS'relationship'
p203
I20
sS'that'
p204
I13
sS'park'
p205
I19
sS"i'ma"
p206
I20
sS'rsx'
p207
I20
sS'believe'
p208
I20
sS'stairs'
p209
I20
sS'grace'
p210
I20
sS'king'
p211
I20
sS'lmao'
p212
I19
sS'see'
p213
I20
sS'bed'
p214
I20
sS'shower'
p215
I20
sS'were'
p216
I19
sS'toward'
p217
I20
sS'and'
p218
I7
sS'outta'
p219
I20
sS'sam'
p220
I19
sS'mind'
p221
I20
sS'tonight'
p222
I18
sS'have'
p223
I17
sS'seen'
p224
I20
sS'breakfast'
p225
I19
sS'saw'
p226
I20
sS'any'
p227
I20
sS'tho'
p228
I20
sS'offering'
p229
I20
sS'person'
p230
I20
sS'also'
p231
I20
sS'funniest'
p232
I20
sS'='
p233
I20
sS'gumtree'
p234
I20
sS"where's"
p235
I20
sS'mouth'
p236
I20
sS'70'
p237
I20
sS'why'
p238
I20
sS'breh'
p239
I20
sS'nail'
p240
I20
sS'proud'
p241
I20
sS'drive'
p242
I20
sS'face'
p243
I20
sS"you'll"
p244
I20
sS'park)'
p245
I16
sS'ferrara'
p246
I20
sS'+'
p247
I20
sS'pi\xc3\xb1a'
p248
I19
sS'thomas'
p249
I20
sS'bomb'
p250
I20
sS'bring'
p251
I20
sS'fine'
p252
I20
sS'bff'
p253
I20
sS'cousins'
p254
I20
sS'should'
p255
I18
sS'being'
p256
I20
sS'only'
p257
I20
sS'going'
p258
I19
sS'hope'
p259
I20
sS'his'
p260
I19
sS'hit'
p261
I20
sS'uncles'
p262
I20
sS'get'
p263
I15
sS'luke'
p264
I20
sS'dope'
p265
I17
sS'stop'
p266
I20
sS'99%'
p267
I20
sS'feels'
p268
I20
sS'made'
p269
I17
sS'words'
p270
I20
sS'morning'
p271
I19
sS'naked'
p272
I20
sS'bad'
p273
I20
sS'bae'
p274
I19
sS'roger'
p275
I20
sS'release'
p276
I20
sS'taxed'
p277
I20
sS'river'
p278
I20
sS'where'
p279
I19
sS'set'
p280
I20
sS'concert'
p281
I20
sS'throwing'
p282
I20
sS'beasties'
p283
I20
sS'lion'
p284
I20
sS'college'
p285
I19
sS'are'
p286
I16
sS'said'
p287
I19
sS'probably'
p288
I20
sS'before'
p289
I20
sS"brianna's"
p290
I20
sS'piss'
p291
I20
sS'we'
p292
I15
sS'omg'
p293
I20
sS'highlandpark'
p294
I20
sS'(los'
p295
I20
sS'key'
p296
I20
sS'motto'
p297
I20
sS'come'
p298
I18
sS'feeling'
p299
I20
sS'restaurant'
p300
I20
sS'jelly'
p301
I20
sS'against'
p302
I20
sS'lookin'
p303
I20
sS'highland'
p304
I20
sS"can't"
p305
I15
sS'tum'
p306
I20
sS'wall'
p307
I20
sS'trust'
p308
I17
sS'pr'
p309
I20
sS"it's"
p310
I19
sS'been'
p311
I20
sS'damn'
p312
I20
sS'treat'
p313
I20
sS'sesh'
p314
I20
sS'attractive'
p315
I20
sS'mike'
p316
I20
sS'pic'
p317
I20
sS'drugs'
p318
I20
sS'hmu'
p319
I20
sS'cypress'
p320
I15
sS'lift'
p321
I20
sS'dodgers/kings'
p322
I20
sS'catch'
p323
I20
sS'pizzaman'
p324
I20
sS'myself'
p325
I20
sS'handling'
p326
I20
sS'spoon'
p327
I20
sS'these'
p328
I19
sS'ugly'
p329
I20
sS'sleeze'
p330
I20
sS'mexico'
p331
I19
sS'is'
p332
I14
sS'it'
p333
I15
sS'sleeping'
p334
I20
sS'someone'
p335
I20
sS'im'
p336
I20
sS'in'
p337
I12
sS'ready'
p338
I20
sS'if'
p339
I18
sS'nike'
p340
I20
sS'nightingales'
p341
I20
sS'make'
p342
I20
sS"bangin'"
p343
I20
sS'sexican'
p344
I20
sS'speech'
p345
I20
sS'party'
p346
I18
sS'ball'
p347
I20
sS'yesterday'
p348
I20
sS'hand'
p349
I20
sS'sisters'
p350
I20
sS'l.a'
p351
I20
sS'jello'
p352
I20
sS'off'
p353
I20
sS'i'
p354
I2
sS'charger'
p355
I20
sS'ocean'
p356
I20
sS'thought'
p357
I20
sS'"how'
p358
I20
sS'without'
p359
I20
sS'inspirational'
p360
I20
sS'the'
p361
I6
sS'listening'
p362
I20
sS'just'
p363
I16
sS'yea'
p364
I20
sS'letting'
p365
I20
sS'family'
p366
I20
sS'thinking'
p367
I20
sS'had'
p368
I20
sS'realize'
p369
I20
sS'armin'
p370
I20
sS'4'
p371
I20
sS'around'
p372
I20
sS'read'
p373
I20
sS'big'
p374
I20
sS'gonna'
p375
I18
sS'game'
p376
I18
sS'know'
p377
I16
sS'mom'
p378
I20
sS'12:30'
p379
I20
sS'like'
p380
I15
sS'stranger'
p381
I20
sS'unnecessary'
p382
I20
sS'candy'
p383
I20
sS'loses'
p384
I20
sS'gimme'
p385
I20
sS'plebes'
p386
I20
sS'become'
p387
I20
sS'sebastian'
p388
I20
sS'nigga'
p389
I19
sS'people'
p390
I20
sS'fucking'
p391
I18
sS'spring'
p392
I20
sS'some'
p393
I20
sS'back'
p394
I20
sS'for'
p395
I16
sS'memories'
p396
I20
sS'prom'
p397
I20
sS'be'
p398
I18
sS'eating'
p399
I20
sS'business'
p400
I20
sS'rum'
p401
I20
sS'lmfao'
p402
I20
sS"maria's"
p403
I20
sS'schoolyard'
p404
I20
sS'by'
p405
I20
sS'on'
p406
I17
sS'getting'
p407
I20
sS'of'
p408
I9
sS"mcdonald's"
p409
I20
sS'angeles'
p410
I20
sS'dinner'
p411
I20
sS'idk'
p412
I20
sS'wanna'
p413
I20
sS'or'
p414
I20
sS'seeing'
p415
I20
sS'auntie'
p416
I20
sS'image'
p417
I20
sS'down'
p418
I20
sS'because'
p419
I20
sS'raises'
p420
I20
sS'mustaches'
p421
I20
sS'your'
p422
I20
sS'cinderella'
p423
I20
sS'fast'
p424
I19
sS'pages'
p425
I20
sS'low'
p426
I20
sS'bruh'
p427
I20
sS'was'
p428
I14
sS'buy'
p429
I20
sS'pounded'
p430
I20
sS"i've"
p431
I20
sS'bitches'
p432
I20
sS'but'
p433
I16
sS'reminds'
p434
I20
sS'solar'
p435
I20
sS'with'
p436
I10
sS'eat'
p437
I20
sS'he'
p438
I19
sS"they're"
p439
I20
sS'october'
p440
I20
sS'celebrating'
p441
I20
sS'wish'
p442
I20
sS'up'
p443
I17
sS'us'
p444
I20
sS'ur'
p445
I20
sS'sum'
p446
I20
sS'later'
p447
I20
sS'sumos'
p448
I20
sS'dilf'
p449
I20
sS'al'
p450
I20
sS'an'
p451
I20
sS'right'
p452
I20
sS'at'
p453
I16
sS'shit'
p454
I19
sS'no'
p455
I18
sS'nah'
p456
I20
sS'when'
p457
I20
sS'strong!"'
p458
I20
sS'nap'
p459
I18
sS'book'
p460
I20
sS'you'
p461
I8
sS'really'
p462
I19
sS"what's"
p463
I20
sS'sawww'
p464
I20
sS'class'
p465
I20
sS"let's"
p466
I20
sS'happening'
p467
I20
sS"life's"
p468
I20
sS'u'
p469
I20
sS'pues'
p470
I20
sS'"the'
p471
I20
sS'having'
p472
I20
s.