(dp0
S''
p1
I1
sS'all'
p2
I23
sS':)'
p3
I27
sS'dance'
p4
I24
sS'gf'
p5
I27
sS'\xe2\x99\xa1\xe2\x99\xa1'
p6
I27
sS'hanging'
p7
I27
sS'go'
p8
I25
sS'follow'
p9
I26
sS'hate'
p10
I25
sS'monty'
p11
I27
sS'mucho'
p12
I27
sS'zone'
p13
I27
sS'tweet'
p14
I27
sS'81%'
p15
I27
sS'send'
p16
I27
sS'to'
p17
I3
sS'finally'
p18
I27
sS'program'
p19
I27
sS'one!\xe2\x80\xa6'
p20
I27
sS'enjoying'
p21
I27
sS'resources'
p22
I27
sS"shouldn't"
p23
I27
sS'every'
p24
I25
sS'92.3'
p25
I27
sS'yesterday...it'
p26
I27
sS"isn't"
p27
I27
sS'minute'
p28
I27
sS'cool'
p29
I27
sS"we'll"
p30
I27
sS'did'
p31
I27
sS'supports'
p32
I27
sS'wednesday'
p33
I26
sS'leave'
p34
I27
sS'heading'
p35
I27
sS'hour"'
p36
I27
sS'work'
p37
I27
sS'neighborhood'
p38
I15
sS'streets'
p39
I27
sS'sign'
p40
I27
sS'burger'
p41
I27
sS'rate'
p42
I26
sS'street'
p43
I27
sS'saya'
p44
I27
sS'pass'
p45
I27
sS'bloodshot'
p46
I27
sS'querias'
p47
I27
sS'others)'
p48
I27
sS'even'
p49
I27
sS'rumah!)\xe2\x80\xa6'
p50
I27
sS'what'
p51
I27
sS'giving'
p52
I27
sS'waiting'
p53
I27
sS'famosa'
p54
I27
sS'verdugo'
p55
I27
sS'new'
p56
I26
sS'officially'
p57
I27
sS'era'
p58
I27
sS'full'
p59
I26
sS'lee'
p60
I27
sS'beasts'
p61
I27
sS'never'
p62
I27
sS'here'
p63
I25
sS'hb\xe2\x9d\xa4\xef\xb8\x8fcm\xe2\x9d\xa4\xef\xb8\x8fmz\xe2\x9d\xa4\xef\xb8\x8f'
p64
I27
sS'\xe2\x9d\xa4\xef\xb8\x8f'
p65
I27
sS'flores'
p66
I27
sS'others'
p67
I21
sS'chewbacca'
p68
I27
sS'103'
p69
I27
sS'wait'
p70
I24
sS'great'
p71
I26
sS'kids'
p72
I27
sS'healthy'
p73
I27
sS'thriftys'
p74
I27
sS'lakers'
p75
I27
sS"i'd"
p76
I27
sS'livearts'
p77
I25
sS"weren't"
p78
I27
sS'action'
p79
I27
sS'opinion'
p80
I27
sS"i'm"
p81
I7
sS'makes'
p82
I27
sS'named'
p83
I27
sS'love'
p84
I24
sS'family'
p85
I25
sS'tchr'
p86
I27
sS'brought'
p87
I27
sS'wit'
p88
I27
sS"choo-choo's"
p89
I27
sS'market'
p90
I25
sS'use'
p91
I27
sS'from'
p92
I22
sS'working'
p93
I27
sS'&'
p94
I5
sS'dude'
p95
I27
sS'two'
p96
I26
sS'next'
p97
I26
sS'few'
p98
I26
sS'live'
p99
I25
sS'bike'
p100
I27
sS'spike'
p101
I27
sS'25th'
p102
I27
sS'angels'
p103
I27
sS'today'
p104
I24
sS'more'
p105
I26
sS'tryna'
p106
I27
sS'started'
p107
I27
sS'brings'
p108
I27
sS'haha'
p109
I26
sS'about'
p110
I26
sS'validity'
p111
I27
sS'it'
p112
I17
sS'ojai'
p113
I27
sS"ain't"
p114
I27
sS'baby'
p115
I27
sS'hurry'
p116
I27
sS'bonavox'
p117
I27
sS'me'
p118
I19
sS'high'
p119
I27
sS'practicing'
p120
I27
sS'room'
p121
I27
sS'this'
p122
I16
sS'car'
p123
I27
sS'ride'
p124
I27
sS'when'
p125
I26
sS'soul'
p126
I27
sS'mu'
p127
I27
sS'suggestive'
p128
I27
sS'consortia'
p129
I27
sS'fadeaway'
p130
I27
sS'can'
p131
I26
sS'making'
p132
I27
sS'my'
p133
I10
sS'all!\xe2\x80\x9d'
p134
I27
sS'history'
p135
I27
sS'soft'
p136
I27
sS'crazy'
p137
I27
sS'plaza'
p138
I27
sS'la)'
p139
I25
sS'give'
p140
I27
sS'process'
p141
I27
sS"didn't"
p142
I27
sS'agent'
p143
I27
sS'perder'
p144
I27
sS'his'
p145
I26
sS'protects'
p146
I27
sS'veggies'
p147
I27
sS'want'
p148
I24
sS'blvd'
p149
I12
sS'dj'
p150
I27
sS'class-'
p151
I27
sS'awkward'
p152
I27
sS'rather'
p153
I27
sS'di'
p154
I27
sS'how'
p155
I25
sS'hot'
p156
I26
sS'animal'
p157
I27
sS'answer'
p158
I27
sS'mkt)'
p159
I27
sS"vma's"
p160
I27
sS'okay'
p161
I27
sS'deja'
p162
I27
sS'attend'
p163
I27
sS'max'
p164
I27
sS'after'
p165
I26
sS'vicious'
p166
I27
sS'birthday'
p167
I26
sS'blood'
p168
I27
sS'guys'
p169
I26
sS'man'
p170
I25
sS'a'
p171
I8
sS'realized'
p172
I27
sS'moments'
p173
I27
sS'joint'
p174
I27
sS'whattttttttttt'
p175
I27
sS'maybe'
p176
I25
sS'dinners'
p177
I27
sS'si'
p178
I27
sS'so'
p179
I18
sS'alcaraz'
p180
I27
sS'pay'
p181
I27
sS'se'
p182
I27
sS"that's"
p183
I27
sS'cute'
p184
I27
sS'salon'
p185
I25
sS"don't"
p186
I26
sS'over'
p187
I26
sS'mission'
p188
I27
sS'brain'
p189
I27
sS'through'
p190
I27
sS'oven'
p191
I27
sS'still'
p192
I27
sS'its'
p193
I27
sS'galaxy'
p194
I27
sS'before'
p195
I27
sS'limbs'
p196
I27
sS'felicia'
p197
I27
sS'thank'
p198
I27
sS'la'
p199
I24
sS'somewhere'
p200
I27
sS'lo'
p201
I25
sS'sunday'
p202
I25
sS'actually'
p203
I26
sS'better'
p204
I27
sS'hobby'
p205
I27
sS'bye'
p206
I27
sS'sauce'
p207
I27
sS'dad'
p208
I27
sS'then'
p209
I26
sS'them'
p210
I25
sS'good'
p211
I23
sS'return'
p212
I27
sS'woken'
p213
I27
sS'yo'
p214
I27
sS'food'
p215
I26
sS'similar'
p216
I27
sS'school'
p217
I27
sS'break'
p218
I26
sS'mention'
p219
I27
sS'*ice'
p220
I27
sS'starbucks'
p221
I27
sS'they'
p222
I27
sS'hands'
p223
I26
sS'front'
p224
I25
sS'now'
p225
I27
sS'day'
p226
I23
sS'glassel'
p227
I27
sS'down'
p228
I27
sS'always'
p229
I26
sS'tear'
p230
I27
sS'rock'
p231
I10
sS'concerts'
p232
I27
sS"shaw't"
p233
I27
sS'mean'
p234
I27
sS'studios'
p235
I27
sS'everyone'
p236
I27
sS'financial'
p237
I27
sS'lagging'
p238
I27
sS'doing'
p239
I26
sS'house'
p240
I26
sS'hard'
p241
I27
sS'brother'
p242
I27
sS'celebrating'
p243
I27
sS'ball'
p244
I27
sS'jokak'
p245
I27
sS'year'
p246
I27
sS'our'
p247
I26
sS'girl'
p248
I27
sS'really'
p249
I25
sS'rt'
p250
I27
sS'lola'
p251
I25
sS'prolly'
p252
I27
sS'missed'
p253
I27
sS'driving'
p254
I27
sS'god'
p255
I27
sS'surrounded'
p256
I27
sS'eepa'
p257
I27
sS'hill'
p258
I27
sS'nite'
p259
I27
sS'reader'
p260
I27
sS'got'
p261
I23
sS'cause'
p262
I26
sS"kimberyxanne's"
p263
I27
sS'red'
p264
I27
sS"could've"
p265
I27
sS'ass'
p266
I27
sS'eagle'
p267
I10
sS'provide'
p268
I27
sS'lograste'
p269
I27
sS'you.\xe2\x80\x9d'
p270
I27
sS'que'
p271
I26
sS'disneyland'
p272
I27
sS'members'
p273
I27
sS'imagine'
p274
I27
sS'put'
p275
I27
sS'"she'
p276
I27
sS'service'
p277
I27
sS'afternoon'
p278
I27
sS'could'
p279
I27
sS'vam'
p280
I27
sS'days'
p281
I27
sS'keep'
p282
I27
sS'loudalvin'
p283
I27
sS'uncle'
p284
I27
sS'hacerte'
p285
I27
sS'place'
p286
I27
sS'w'
p287
I13
sS'dejo'
p288
I27
sS'(4005'
p289
I27
sS'pilots'
p290
I27
sS'(at'
p291
I27
sS'think'
p292
I26
sS'fuckin'
p293
I27
sS'blind'
p294
I27
sS'hawks'
p295
I27
sS'feel'
p296
I27
sS'narratives/public'
p297
I27
sS'one'
p298
I22
sS'fast'
p299
I27
sS'chevron'
p300
I27
sS'vote'
p301
I27
sS'angeles)'
p302
I27
sS'accountability'
p303
I27
sS'miss'
p304
I26
sS'tomorrow'
p305
I24
sS'blunts'
p306
I27
sS'city'
p307
I26
sS'little'
p308
I25
sS'"'
p309
I26
sS'girly'
p310
I27
sS'start'
p311
I27
sS'mwct'
p312
I27
sS'lawsuits'
p313
I27
sS'kob'
p314
I27
sS'girls'
p315
I27
sS'tradition'
p316
I27
sS'anyone'
p317
I27
sS'game'
p318
I27
sS'2'
p319
I20
sS'too'
p320
I26
sS'tom'
p321
I27
sS'easy)'
p322
I24
sS'farmar'
p323
I27
sS'final'
p324
I24
sS'store'
p325
I27
sS'para'
p326
I27
sS'that'
p327
I21
sS'hotel'
p328
I27
sS'park'
p329
I25
sS'took'
p330
I26
sS'massages'
p331
I27
sS'cops'
p332
I26
sS'assumption'
p333
I27
sS'helen'
p334
I25
sS'than'
p335
I27
sS"here's"
p336
I27
sS'10'
p337
I27
sS'grocery'
p338
I27
sS'b'
p339
I27
sS'mierda'
p340
I27
sS'bed'
p341
I27
sS'tummy'
p342
I27
sS'appealing'
p343
I27
sS'expo'
p344
I26
sS'friend'
p345
I27
sS'dani'
p346
I27
sS'were'
p347
I26
sS'proofread'
p348
I27
sS'season...the'
p349
I27
sS'spurs'
p350
I27
sS'and'
p351
I10
sS"ann's"
p352
I27
sS'open-house'
p353
I27
sS'mind'
p354
I26
sS'tonight'
p355
I25
sS'talking'
p356
I27
sS'say'
p357
I25
sS'have'
p358
I27
sS'need'
p359
I25
sS'sounding'
p360
I27
sS'apparently'
p361
I27
sS'openhouse'
p362
I27
sS'dozen'
p363
I27
sS'nights'
p364
I27
sS'babysit'
p365
I27
sS'lilo'
p366
I27
sS'-'
p367
I23
sS'take'
p368
I26
sS'which'
p369
I27
sS'laughed'
p370
I27
sS'jail'
p371
I27
sS'terjawab'
p372
I27
sS'play'
p373
I26
sS'though'
p374
I27
sS'niggaaaaah'
p375
I27
sS'who'
p376
I25
sS'rehearsal'
p377
I24
sS'courtesy'
p378
I27
sS'72'
p379
I27
sS'voice*'
p380
I27
sS'sandro'
p381
I27
sS'merece'
p382
I27
sS'why'
p383
I25
sS'doa'
p384
I27
sS'dog'
p385
I25
sS'freeway'
p386
I27
sS'park)'
p387
I13
sS'clean'
p388
I26
sS'hear'
p389
I27
sS'typical'
p390
I27
sS'er'
p391
I27
sS'\xe2\x9c\xa8'
p392
I27
sS'show'
p393
I27
sS'text'
p394
I27
sS'doctors'
p395
I27
sS'anyway'
p396
I27
sS'ending'
p397
I27
sS'stfu'
p398
I27
sS'hace'
p399
I27
sS'thicker'
p400
I27
sS'm\xc3\xa9nage'
p401
I27
sS'slop'
p402
I27
sS'cried'
p403
I27
sS'laundry)'
p404
I27
sS'outside'
p405
I27
sS'jugar'
p406
I27
sS'should'
p407
I26
sS'yea'
p408
I27
sS'only'
p409
I25
sS'going'
p410
I27
sS'pretty'
p411
I27
sS'coin-op'
p412
I27
sS'do'
p413
I24
sS'cube'
p414
I27
sS'hit'
p415
I27
sS'get'
p416
I24
sS'de'
p417
I27
sS'watch'
p418
I27
sS'tbh'
p419
I26
sS'wedding'
p420
I27
sS'(glassell'
p421
I26
sS'him'
p422
I26
sS'qt'
p423
I27
sS'versions'
p424
I27
sS'(4211'
p425
I13
sS":'("
p426
I27
sS'bad'
p427
I27
sS'she'
p428
I27
sS'where'
p429
I26
sS'fadeaways'
p430
I27
sS'w/'
p431
I20
sS'massaaaggeee'
p432
I27
sS'we'
p433
I25
sS'see'
p434
I27
sS'asleep'
p435
I27
sS'are'
p436
I25
sS'parking'
p437
I27
sS'best'
p438
I27
sS'guilt'
p439
I27
sS'visiting'
p440
I27
sS'away'
p441
I27
sS'please'
p442
I27
sS'mayor'
p443
I27
sS'3'
p444
I26
sS"there's"
p445
I25
sS'closed'
p446
I27
sS'probably'
p447
I26
sS'rite'
p448
I27
sS'nope'
p449
I27
sS'bought'
p450
I27
sS'notice'
p451
I26
sS'debi'
p452
I27
sS'rasta-dog'
p453
I27
sS'style'
p454
I27
sS'(los'
p455
I26
sS'wtf'
p456
I25
sS'coma'
p457
I27
sS'news'
p458
I27
sS'picking'
p459
I27
sS'last'
p460
I25
sS'joke'
p461
I27
sS"he's"
p462
I27
sS'ahora'
p463
I27
sS'against'
p464
I27
sS'amazing'
p465
I27
sS"today's"
p466
I27
sS'became'
p467
I27
sS'wheels'
p468
I27
sS'whole'
p469
I27
sS"can't"
p470
I24
sS'wear'
p471
I27
sS'simple'
p472
I27
sS'sweet'
p473
I27
sS'gathering'
p474
I27
sS'singers'
p475
I27
sS'leos'
p476
I27
sS'sexy'
p477
I27
sS'arts'
p478
I27
sS'yay'
p479
I27
sS'stretch'
p480
I27
sS"it's"
p481
I25
sS'acceptance'
p482
I27
sS'been'
p483
I26
sS'secret'
p484
I27
sS'much'
p485
I24
sS'damn'
p486
I27
sS'twerkn'
p487
I26
sS'>'
p488
I27
sS'wants'
p489
I27
sS'life'
p490
I25
sS'finished'
p491
I27
sS'evidence'
p492
I27
sS'those'
p493
I26
sS'matter'
p494
I27
sS'case'
p495
I26
sS'casa'
p496
I27
sS'look'
p497
I27
sS'these'
p498
I27
sS'plain'
p499
I27
sS'miles\xe2\x80\xa6'
p500
I27
sS'will'
p501
I26
sS'while'
p502
I27
sS'hahaha'
p503
I27
sS'fun'
p504
I26
sS'aid'
p505
I27
sS'will"'
p506
I27
sS'pack'
p507
I27
sS'goof'
p508
I25
sS'almost'
p509
I25
sS'is'
p510
I14
sS'coffee'
p511
I26
sS'36'
p512
I27
sS'cant'
p513
I26
sS'vs'
p514
I27
sS'in'
p515
I11
sS'ready'
p516
I24
sS'ave'
p517
I13
sS'property'
p518
I27
sS'if'
p519
I27
sS'verified'
p520
I27
sS'open'
p521
I27
sS'media'
p522
I27
sS'make'
p523
I27
sS'bowl'
p524
I27
sS'same'
p525
I27
sS'any'
p526
I27
sS'ya'
p527
I27
sS'another'
p528
I27
sS'parts'
p529
I27
sS'pad'
p530
I27
sS'pag'
p531
I27
sS'party'
p532
I26
sS'exams'
p533
I27
sS'week'
p534
I27
sS'fortress)'
p535
I27
sS'used'
p536
I27
sS'columbia'
p537
I27
sS'moment'
p538
I26
sS'budlight'
p539
I27
sS'uses'
p540
I27
sS'purpose'
p541
I27
sS'(40'
p542
I27
sS'fucked'
p543
I27
sS'changing'
p544
I27
sS'opportunity'
p545
I27
sS'cartoon'
p546
I27
sS'thoughts'
p547
I27
sS'kid'
p548
I27
sS'live\xe2\x80\xa6'
p549
I27
sS'off'
p550
I27
sS'i'
p551
I4
sS'congrats'
p552
I27
sS'well'
p553
I25
sS'whichever'
p554
I27
sS'person'
p555
I27
sS'without'
p556
I26
sS'english'
p557
I27
sS'y'
p558
I27
sS'the'
p559
I2
sS'ily'
p560
I27
sS'corporate'
p561
I27
sS'meet'
p562
I27
sS'summer'
p563
I27
sS'looked'
p564
I27
sS'just'
p565
I19
sS'being'
p566
I26
sS'photo'
p567
I26
sS"should've"
p568
I27
sS'half'
p569
I27
sS'weekend'
p570
I27
sS'rest'
p571
I27
sS'not'
p572
I22
sS'dari'
p573
I27
sS'thanks'
p574
I27
sS'yes'
p575
I27
sS'yet'
p576
I27
sS'tooooo'
p577
I27
sS'seems'
p578
I27
sS'valid'
p579
I27
sS'4'
p580
I27
sS'easy'
p581
I8
sS'easter'
p582
I27
sS'read'
p583
I27
sS"who's"
p584
I27
sS'tiring'
p585
I27
sS'gonna'
p586
I27
sS'early'
p587
I27
sS'~_~'
p588
I27
sS'spittin'
p589
I27
sS'know'
p590
I26
sS'\xe2\x9d\xa4'
p591
I27
sS'fortune'
p592
I27
sS'like'
p593
I25
sS'schools'
p594
I27
sS'honestly'
p595
I27
sS'bun'
p596
I27
sS'audience'
p597
I25
sS'either'
p598
I27
sS'night'
p599
I22
sS'expo)'
p600
I27
sS'page'
p601
I27
sS'hunchback'
p602
I27
sS'right'
p603
I25
sS'old'
p604
I27
sS'whenever'
p605
I27
sS'people'
p606
I26
sS'fucking'
p607
I27
sS'spring'
p608
I27
sS'some'
p609
I23
sS'back'
p610
I24
sS'hair'
p611
I27
sS'glassell'
p612
I13
sS'fuckerrsss'
p613
I27
sS"98'"
p614
I27
sS'brothers'
p615
I27
sS'gross'
p616
I26
sS'for'
p617
I11
sS'contacts'
p618
I27
sS';^'
p619
I27
sS'ice'
p620
I26
sS'everything'
p621
I26
sS'exit'
p622
I27
sS'be'
p623
I20
sS'run'
p624
I27
sS'lmaoooo'
p625
I27
sS'7-eleven'
p626
I27
sS'eye'
p627
I27
sS'by'
p628
I26
sS'on'
p629
I15
sS'sister'
p630
I27
sS'rare'
p631
I27
sS'chocolatte\xe2\x98\x95\xef\xb8\x8f'
p632
I27
sS'oh'
p633
I26
sS'filipina'
p634
I27
sS'of'
p635
I9
sS'months'
p636
I27
sS'favorite'
p637
I26
sS'oatmeal'
p638
I27
sS'mixes'
p639
I27
sS'angeles'
p640
I22
sS'blessings'
p641
I27
sS'idk'
p642
I27
sS'stoked'
p643
I27
sS'or'
p644
I24
sS'seeing'
p645
I27
sS'own'
p646
I27
sS'launderland'
p647
I27
sS'into'
p648
I26
sS'skilled'
p649
I27
sS'nsf'
p650
I27
sS'son'
p651
I27
sS'stop'
p652
I27
sS'google'
p653
I27
sS'homeless'
p654
I27
sS'your'
p655
I26
sS'area'
p656
I27
sS'spending'
p657
I26
sS'empowers'
p658
I27
sS'there'
p659
I27
sS'ca)'
p660
I22
sS'lol'
p661
I21
sS'garrix'
p662
I27
sS'los'
p663
I23
sS'mkt'
p664
I19
sS"we're"
p665
I27
sS'lot'
p666
I25
sS'haircarefairy'
p667
I27
sS'fresh&easy)'
p668
I27
sS'was'
p669
I25
sS'pasadena'
p670
I27
sS'opens'
p671
I27
sS'happy'
p672
I26
sS'boyf'
p673
I27
sS"i've"
p674
I27
sS'something'
p675
I24
sS'poster'
p676
I27
sS'$200'
p677
I27
sS'differences'
p678
I27
sS'but'
p679
I24
sS'bands\xe2\x9c\x94\xef\xb8\x8f'
p680
I27
sS'hi'
p681
I26
sS'understandable'
p682
I27
sS'with'
p683
I18
sS'posted'
p684
I26
sS'kusina'
p685
I27
sS'made'
p686
I26
sS'too:)'
p687
I27
sS'urgent'
p688
I27
sS"wasn't"
p689
I27
sS'fries'
p690
I27
sS'up'
p691
I20
sS'signed'
p692
I27
sS'-spenser'
p693
I27
sS'dirty'
p694
I25
sS'abuses'
p695
I27
sS'dame'
p696
I27
sS'groove'
p697
I27
sS'called'
p698
I27
sS'skating'
p699
I27
sS'phil'
p700
I27
sS'ordered'
p701
I27
sS'raging'
p702
I27
sS'likewise'
p703
I27
sS'pic'
p704
I27
sS'covers'
p705
I27
sS'an'
p706
I22
sS'imagination'
p707
I27
sS'as'
p708
I27
sS'at'
p709
I4
sS'watched'
p710
I27
sS'az'
p711
I27
sS'check'
p712
I27
sS'cream'
p713
I26
sS'again'
p714
I26
sS'tix'
p715
I27
sS'us'
p716
I27
sS'dying'
p717
I27
sS'no'
p718
I23
sS'42'
p719
I13
sS'40'
p720
I27
sS'thinks'
p721
I27
sS'field'
p722
I26
sS'book'
p723
I27
sS'twerk'
p724
I27
sS'snapchat'
p725
I27
sS'you'
p726
I12
sS'out'
p727
I25
sS'hey'
p728
I27
sS'felt'
p729
I27
sS'menit'
p730
I27
sS'notre'
p731
I27
sS"let's"
p732
I27
sS'peak'
p733
I27
sS'eval'
p734
I27
sS'fresh'
p735
I6
sS'funding'
p736
I27
sS'friends'
p737
I27
sS'alcohol'
p738
I27
sS'ago'
p739
I27
sS'validation'
p740
I27
sS'martin'
p741
I27
sS'u'
p742
I26
sS'time'
p743
I25
sS'alright'
p744
I27
sS'everywhere'
p745
I27
sS'"the'
p746
I27
sS'having'
p747
I27
sS'songs'
p748
I27
s.