(dp0
S''
p1
I1
sS'katy'
p2
I35
sS'all'
p3
I24
sS'evidence'
p4
I35
sS':)'
p5
I31
sS'miley'
p6
I35
sS'dance'
p7
I35
sS'caused'
p8
I35
sS'dollar'
p9
I35
sS'farms'
p10
I35
sS'asian'
p11
I35
sS'skin'
p12
I35
sS'go'
p13
I31
sS'follow'
p14
I34
sS'hate'
p15
I28
sS'hmmm'
p16
I34
sS'strangers'
p17
I35
sS'haters'
p18
I35
sS'terms'
p19
I35
sS'ty'
p20
I35
sS'tv'
p21
I31
sS'wassup'
p22
I35
sS'obamacare'
p23
I35
sS'rock'
p24
I35
sS'send'
p25
I35
sS'to'
p26
I3
sS'finally'
p27
I34
sS'walks'
p28
I35
sS'helps'
p29
I35
sS'rest'
p30
I35
sS'leiste'
p31
I35
sS'te'
p32
I34
sS'founding'
p33
I35
sS'me'
p34
I15
sS'woman'
p35
I35
sS'7'
p36
I35
sS'song'
p37
I35
sS':d'
p38
I35
sS'tickets'
p39
I35
sS'reader'
p40
I35
sS'multi'
p41
I35
sS'shoot'
p42
I35
sS'vegas'
p43
I33
sS'every'
p44
I34
sS'jack'
p45
I34
sS'fall'
p46
I34
sS'world...but'
p47
I35
sS'winning'
p48
I35
sS'eats'
p49
I35
sS'condition'
p50
I35
sS'nausea'
p51
I35
sS"lila's"
p52
I35
sS'school'
p53
I33
sS'britney'
p54
I35
sS'did'
p55
I33
sS'positions'
p56
I35
sS'loneliness'
p57
I35
sS'brother'
p58
I34
sS'hooray'
p59
I35
sS'sang'
p60
I35
sS'alessoalessoalesso'
p61
I35
sS'phillip'
p62
I35
sS'employees'
p63
I35
sS'guy'
p64
I35
sS'dodger'
p65
I35
sS'barbara'
p66
I34
sS'round'
p67
I35
sS'blackout'
p68
I33
sS"i'll"
p69
I34
sS'windpocalypse'
p70
I34
sS'advocate'
p71
I35
sS'work'
p72
I23
sS'rents'
p73
I35
sS'tired'
p74
I35
sS'till'
p75
I35
sS'hanging'
p76
I35
sS'boots'
p77
I35
sS'waking'
p78
I35
sS'orgasm'
p79
I35
sS'second'
p80
I35
sS'video'
p81
I35
sS'griego'
p82
I35
sS'earth'
p83
I35
sS'aaaaaaand'
p84
I35
sS'writing'
p85
I35
sS'others)'
p86
I35
sS'even'
p87
I33
sS'everythingmy'
p88
I35
sS'what'
p89
I27
sS'adds'
p90
I35
sS'darkness'
p91
I35
sS'incomplete'
p92
I35
sS'chicago'
p93
I35
sS'saved'
p94
I35
sS'+'
p95
I35
sS'beaten'
p96
I35
sS'\xe2\x98\xba\xef\xb8\x8f'
p97
I35
sS'lights'
p98
I35
sS'waiting'
p99
I35
sS'suspect'
p100
I33
sS'fuckk'
p101
I35
sS'new'
p102
I33
sS'ever'
p103
I34
sS'ahhhhh'
p104
I35
sS'thin'
p105
I35
sS'sandoner'
p106
I35
sS'catholic'
p107
I35
sS'cutesy'
p108
I35
sS'cozy'
p109
I35
sS'ultimatums'
p110
I35
sS'interns'
p111
I35
sS'makeup'
p112
I34
sS'here'
p113
I29
sS'travolta'
p114
I35
sS'water'
p115
I35
sS'tracks'
p116
I35
sS'sorry'
p117
I35
sS'let'
p118
I31
sS'sink'
p119
I35
sS'alone'
p120
I31
sS'along'
p121
I35
sS"aren't"
p122
I35
sS'wait'
p123
I34
sS'dry'
p124
I35
sS'boy'
p125
I34
sS'great'
p126
I34
sS'kids'
p127
I33
sS'teeth'
p128
I35
sS'33'
p129
I35
sS'flooding'
p130
I35
sS'study'
p131
I34
sS'30'
p132
I35
sS'article'
p133
I35
sS'airport'
p134
I35
sS"i'd"
p135
I33
sS'crazies'
p136
I35
sS"i'm"
p137
I16
sS'almost'
p138
I35
sS'3%'
p139
I35
sS'king'
p140
I35
sS'via'
p141
I34
sS'love'
p142
I25
sS'oh.my.god'
p143
I35
sS'family'
p144
I34
sS"hurts'"
p145
I35
sS'compare'
p146
I35
sS'put'
p147
I33
sS'credzzz'
p148
I35
sS'apply'
p149
I35
sS'stand'
p150
I35
sS'singing'
p151
I35
sS'yourself'
p152
I35
sS'wanted'
p153
I35
sS'eye'
p154
I34
sS'takes'
p155
I34
sS'would'
p156
I33
sS'&'
p157
I31
sS'positive'
p158
I35
sS'angry'
p159
I35
sS'hopefully'
p160
I35
sS'two'
p161
I33
sS'army'
p162
I35
sS'craving'
p163
I35
sS'cali'
p164
I35
sS'live'
p165
I29
sS'camera'
p166
I35
sS'call'
p167
I34
sS'conquistador'
p168
I35
sS'ahhh'
p169
I35
sS'until'
p170
I35
sS'today'
p171
I33
sS'more'
p172
I29
sS'breathe'
p173
I35
sS'giovanna'
p174
I35
sS'(maybe'
p175
I35
sS'diamond'
p176
I35
sS'door'
p177
I34
sS'holy'
p178
I35
sS"something's"
p179
I35
sS'hoffman'
p180
I35
sS'haha'
p181
I32
sS'about'
p182
I32
sS'award'
p183
I35
sS'hurt'
p184
I35
sS'"asking'
p185
I35
sS'warm'
p186
I35
sS'beers'
p187
I35
sS'biotin'
p188
I35
sS'broke'
p189
I34
sS'baby'
p190
I35
sS'hurry'
p191
I34
sS'maryland'
p192
I35
sS'glad'
p193
I35
sS'must'
p194
I35
sS'fly'
p195
I34
sS'enjoying'
p196
I35
sS'word'
p197
I35
sS'room'
p198
I35
sS'hour'
p199
I35
sS'myranda'
p200
I35
sS'this'
p201
I18
sS'car'
p202
I31
sS'getting'
p203
I31
sS'abortion'
p204
I35
sS'soul'
p205
I35
sS'donut'
p206
I35
sS'mall'
p207
I35
sS'can'
p208
I26
sS'tagalog'
p209
I35
sS'learn'
p210
I35
sS'following'
p211
I35
sS'meet'
p212
I35
sS'my'
p213
I5
sS'mx'
p214
I35
sS'history'
p215
I35
sS'beautiful'
p216
I35
sS'heart'
p217
I35
sS'crazy'
p218
I35
sS'acapulco'
p219
I35
sS'give'
p220
I30
sS'role'
p221
I35
sS"didn't"
p222
I34
sS'fuck'
p223
I26
sS'high'
p224
I33
sS'heard'
p225
I34
sS'confirmation'
p226
I35
sS'something'
p227
I35
sS'want'
p228
I32
sS'sense'
p229
I35
sS'blvd'
p230
I35
sS'recklessly'
p231
I35
sS'choo'
p232
I34
sS'rape'
p233
I35
sS'pink'
p234
I35
sS'needs'
p235
I35
sS'hoe'
p236
I35
sS'end'
p237
I34
sS'awkward'
p238
I35
sS'snuggle'
p239
I35
sS'rather'
p240
I35
sS'watching'
p241
I28
sS'id'
p242
I35
sS'write'
p243
I34
sS'how'
p244
I27
sS'amazing'
p245
I34
sS'haight'
p246
I35
sS'fourth'
p247
I35
sS'housemates'
p248
I35
sS'nyc'
p249
I35
sS'ordinary'
p250
I35
sS'if'
p251
I27
sS'intelligent'
p252
I35
sS'mormon'
p253
I35
sS'nye'
p254
I35
sS'badly'
p255
I35
sS'fever'
p256
I35
sS'ft'
p257
I35
sS'deja'
p258
I35
sS'haven'
p259
I35
sS'mess'
p260
I35
sS'locked'
p261
I35
sS'after'
p262
I34
sS'fb'
p263
I34
sS'birthday'
p264
I32
sS'lax'
p265
I34
sS'lay'
p266
I35
sS'coming'
p267
I34
sS'date'
p268
I35
sS'suck'
p269
I35
sS'fl'
p270
I35
sS'las'
p271
I35
sS'a'
p272
I8
sS'stress'
p273
I35
sS'remember'
p274
I35
sS'famous'
p275
I35
sS'hahahah'
p276
I34
sS'ana\xc3\xafs'
p277
I35
sS'bean'
p278
I35
sS'st'
p279
I35
sS'sickening'
p280
I35
sS'topangas'
p281
I35
sS"nba's"
p282
I35
sS'so'
p283
I13
sS'things'
p284
I35
sS'sc'
p285
I35
sS'worst'
p286
I35
sS'hold"'
p287
I35
sS'1000'
p288
I35
sS'talk'
p289
I34
sS'mequotes'
p290
I35
sS'infant'
p291
I35
sS'boxing'
p292
I35
sS'mexican'
p293
I34
sS'help'
p294
I33
sS'office'
p295
I34
sS"don't"
p296
I27
sS'glendale/burbank'
p297
I35
sS'over'
p298
I32
sS'move'
p299
I35
sS'wishing'
p300
I35
sS'mission'
p301
I34
sS"o's"
p302
I35
sS'years'
p303
I35
sS'produced'
p304
I35
sS'ended'
p305
I33
sS'through'
p306
I35
sS'looks'
p307
I34
sS'quake'
p308
I35
sS'vastly'
p309
I35
sS'remixxx'
p310
I35
sS'letters'
p311
I35
sS'cold'
p312
I35
sS'still'
p313
I33
sS'its'
p314
I35
sS'unfollowing'
p315
I34
sS'24'
p316
I35
sS'messed'
p317
I35
sS'police'
p318
I34
sS'attractive'
p319
I35
sS'fit'
p320
I35
sS'la'
p321
I32
sS'donald'
p322
I35
sS'trying'
p323
I35
sS'jim'
p324
I35
sS'sunday'
p325
I34
sS'actually'
p326
I33
sS'better'
p327
I33
sS'405'
p328
I35
sS'according'
p329
I35
sS'choose'
p330
I35
sS'hidden'
p331
I35
sS'main'
p332
I35
sS'2011'
p333
I34
sS'spreading'
p334
I34
sS"haven't"
p335
I35
sS'dad'
p336
I31
sS'then'
p337
I33
sS'them'
p338
I31
sS'good'
p339
I31
sS'sucking'
p340
I35
sS'yo'
p341
I35
sS'ya'
p342
I35
sS'dan'
p343
I35
sS'safe'
p344
I35
sS'it"'
p345
I35
sS'earn'
p346
I35
sS'sarcastic'
p347
I33
sS'feelin'
p348
I35
sS'break'
p349
I35
sS'lunch'
p350
I31
sS'hiring'
p351
I35
sS'withdrawal'
p352
I35
sS'they'
p353
I29
sS'hands'
p354
I35
sS'not'
p355
I27
sS'raven'
p356
I35
sS'now'
p357
I27
sS'day'
p358
I27
sS'josh'
p359
I35
sS'wagon'
p360
I35
sS'february'
p361
I35
sS'several'
p362
I35
sS'name'
p363
I35
sS'always'
p364
I34
sS'drake'
p365
I35
sS'reasonable'
p366
I35
sS'die'
p367
I35
sS'found'
p368
I34
sS'went'
p369
I34
sS'pizza'
p370
I35
sS'side'
p371
I35
sS"isn't"
p372
I35
sS'mean'
p373
I31
sS'em'
p374
I35
sS'el'
p375
I35
sS'r'
p376
I35
sS'everyone'
p377
I34
sS'eh'
p378
I35
sS'woes'
p379
I35
sS'doing'
p380
I35
sS'house'
p381
I35
sS'told'
p382
I35
sS'crushing'
p383
I35
sS'fixture'
p384
I35
sS"they've"
p385
I35
sS'taught'
p386
I35
sS'haul'
p387
I35
sS'bernard'
p388
I35
sS'year'
p389
I33
sS'our'
p390
I31
sS'girl'
p391
I32
sS'calling'
p392
I35
sS'sexual'
p393
I35
sS'message'
p394
I35
sS'really'
p395
I27
sS'large'
p396
I35
sS'perry'
p397
I35
sS'missed'
p398
I34
sS'driving'
p399
I34
sS'sluts'
p400
I35
sS'god'
p401
I33
sS'since'
p402
I34
sS'ashbury'
p403
I35
sS'looking'
p404
I33
sS'seriously'
p405
I35
sS'opener'
p406
I35
sS'arrests'
p407
I35
sS'wide'
p408
I35
sS'smh'
p409
I35
sS'hahahha'
p410
I35
sS'got'
p411
I28
sS'intervention'
p412
I35
sS'cause'
p413
I33
sS'shows'
p414
I35
sS'ass'
p415
I32
sS'maneuver'
p416
I35
sS'earlier'
p417
I34
sS'jessica'
p418
I35
sS'cutest'
p419
I35
sS'thong'
p420
I35
sS'cars'
p421
I34
sS'detective'
p422
I35
sS'million'
p423
I34
sS'story'
p424
I35
sS'free'
p425
I35
sS'coachella'
p426
I33
sS'mmm'
p427
I35
sS'easter'
p428
I35
sS'que'
p429
I33
sS'carl'
p430
I35
sS'grandma'
p431
I35
sS'ask'
p432
I34
sS'teach'
p433
I35
sS'cough'
p434
I35
sS'beginning'
p435
I35
sS'princess'
p436
I35
sS'care'
p437
I33
sS'ate'
p438
I35
sS'ms'
p439
I35
sS'yup'
p440
I35
sS'could'
p441
I30
sS'monsignor'
p442
I35
sS'days'
p443
I32
sS'keep'
p444
I34
sS'thing'
p445
I33
sS'jumping'
p446
I35
sS'"no'
p447
I35
sS'w'
p448
I35
sS'stuff'
p449
I35
sS'lighting'
p450
I35
sS'castle'
p451
I35
sS'chills'
p452
I35
sS'think'
p453
I32
sS'surrealists'
p454
I35
sS'first'
p455
I33
sS'major'
p456
I35
sS'already'
p457
I33
sS'saving'
p458
I35
sS'dont'
p459
I34
sS'americana'
p460
I35
sS'gallbaldder'
p461
I35
sS'mcsorley'
p462
I35
sS'kingpin'
p463
I35
sS'taco'
p464
I35
sS'pants'
p465
I35
sS'one'
p466
I26
sS'hahahaha'
p467
I35
sS'spinning'
p468
I35
sS'"all'
p469
I35
sS'done'
p470
I32
sS'long'
p471
I34
sS'another'
p472
I33
sS'art'
p473
I35
sS'blows'
p474
I35
sS'fight'
p475
I35
sS'miss'
p476
I35
sS'pasa'
p477
I35
sS"doesn't"
p478
I34
sS'little'
p479
I32
sS'needed'
p480
I35
sS'bite'
p481
I35
sS'least'
p482
I33
sS'anyone'
p483
I35
sS'their'
p484
I33
sS'2'
p485
I32
sS'too'
p486
I27
sS'white'
p487
I35
sS'john'
p488
I35
sS'lapd'
p489
I35
sS'friend'
p490
I35
sS'vista'
p491
I35
sS'eyes'
p492
I35
sS'paso'
p493
I35
sS'lot'
p494
I35
sS'relationship'
p495
I34
sS'that'
p496
I21
sS'exactly'
p497
I35
sS'took'
p498
I34
sS'outgrown'
p499
I35
sS'part'
p500
I35
sS'nigga'
p501
I35
sS'tampon'
p502
I35
sS'july'
p503
I35
sS'copy'
p504
I35
sS'unrealistic'
p505
I35
sS'than'
p506
I34
sS"lucile's"
p507
I35
sS'boyfriend'
p508
I35
sS'11'
p509
I34
sS'loved'
p510
I32
sS'kind'
p511
I33
sS'legs'
p512
I35
sS'strongerrrr'
p513
I35
sS'19'
p514
I35
sS'hysterical'
p515
I34
sS'roberto'
p516
I35
sS'depends'
p517
I35
sS'bed'
p518
I34
sS'crossroads'
p519
I35
sS'chris\xe2\x80\xa6'
p520
I35
sS'marriage'
p521
I35
sS'supposed'
p522
I35
sS'were'
p523
I31
sS'marines'
p524
I35
sS'listen'
p525
I35
sS'and'
p526
I6
sS'illness'
p527
I35
sS'outta'
p528
I35
sS'outstanding'
p529
I35
sS'hoes'
p530
I35
sS'ages'
p531
I35
sS'curves'
p532
I34
sS'sad'
p533
I33
sS'tonight'
p534
I35
sS'say'
p535
I30
sS'have'
p536
I20
sS'need'
p537
I29
sS'seen'
p538
I35
sS'breakfast'
p539
I34
sS'obviously'
p540
I35
sS'saw'
p541
I34
sS'any'
p542
I34
sS'bros/sis'
p543
I35
sS'lie'
p544
I35
sS'eyeshadow'
p545
I35
sS'bae'
p546
I35
sS'lila'
p547
I34
sS'congrats'
p548
I35
sS'lil'
p549
I34
sS'seymour'
p550
I35
sS'able'
p551
I35
sS'culturally'
p552
I35
sS'anything'
p553
I35
sS'take'
p554
I35
sS'babes'
p555
I35
sS'bus'
p556
I35
sS'squawks'
p557
I35
sS'wanting'
p558
I35
sS'asshole'
p559
I35
sS'many'
p560
I35
sS'real\xe2\x80\xa6'
p561
I35
sS'se'
p562
I35
sS'shitted'
p563
I35
sS'added'
p564
I35
sS'64'
p565
I35
sS'though'
p566
I33
sS'who'
p567
I31
sS'paid'
p568
I34
sS'jessicapasion'
p569
I35
sS'most'
p570
I33
sS'amongst'
p571
I35
sS'significant'
p572
I35
sS'nothing'
p573
I32
sS'awe'
p574
I34
sS'america'
p575
I35
sS'class'
p576
I34
sS"la's"
p577
I35
sS'understands'
p578
I35
sS'performances'
p579
I35
sS'professor'
p580
I34
sS'sometimes'
p581
I33
sS'ko'
p582
I35
sS'spense'
p583
I35
sS'ramirez'
p584
I35
sS'sunset'
p585
I35
sS'me.i'
p586
I35
sS'man'
p587
I35
sS'skinny'
p588
I35
sS'aunt'
p589
I35
sS'essssited'
p590
I35
sS'fact'
p591
I35
sS'stones'
p592
I35
sS'walking'
p593
I35
sS'ugh'
p594
I34
sS'bomb'
p595
I35
sS'show'
p596
I34
sS'tenes'
p597
I35
sS'text'
p598
I34
sS'assholes'
p599
I35
sS'griegos'
p600
I35
sS'ending'
p601
I35
sS'watch'
p602
I35
sS'purely'
p603
I35
sS'bright'
p604
I35
sS'bedroom'
p605
I35
sS'04:48:20.0,34.10597431,-118.23312722,1864.04,you'
p606
I35
sS'corner'
p607
I35
sS'faith'
p608
I35
sS'fine'
p609
I35
sS'find'
p610
I35
sS'aint'
p611
I35
sS'slow'
p612
I35
sS'based'
p613
I35
sS'\xe2\x9c\x8b'
p614
I35
sS'genius'
p615
I35
sS'true'
p616
I34
sS'wut'
p617
I35
sS'state'
p618
I35
sS"won't"
p619
I35
sS'should'
p620
I34
sS'moments'
p621
I35
sS'only'
p622
I33
sS'going'
p623
I35
sS'pretty'
p624
I34
sS'gods'
p625
I35
sS'folks'
p626
I35
sS'wearing'
p627
I35
sS'do'
p628
I27
sS'his'
p629
I31
sS'hit'
p630
I33
sS'get'
p631
I29
sS'goosebumps'
p632
I35
sS'express'
p633
I35
sS'stop'
p634
I32
sS'da'
p635
I35
sS'joint'
p636
I35
sS'feels'
p637
I34
sS'fastest'
p638
I35
sS'cameron'
p639
I35
sS'-lila'
p640
I35
sS'astrological'
p641
I35
sS'him'
p642
I32
sS'celebrate'
p643
I35
sS'freaking'
p644
I35
sS'4.4'
p645
I35
sS'fluff'
p646
I34
sS'bar'
p647
I35
sS'artist'
p648
I35
sS'textbooks'
p649
I34
sS"'itching"
p650
I35
sS'morning'
p651
I35
sS'nickelodeon'
p652
I35
sS'bad'
p653
I33
sS'penguins'
p654
I35
sS'she'
p655
I32
sS'soooooooooo'
p656
I35
sS'isolation'
p657
I35
sS'glendale'
p658
I35
sS'6.3'
p659
I35
sS'grab'
p660
I35
sS'raton'
p661
I35
sS'where'
p662
I35
sS'body'
p663
I35
sS'btw'
p664
I35
sS'set'
p665
I35
sS'decides'
p666
I35
sS'reference'
p667
I35
sS'w/'
p668
I35
sS'"fearless"'
p669
I35
sS'station'
p670
I35
sS'wud'
p671
I35
sS'accord'
p672
I35
sS'fucktard'
p673
I35
sS'sex'
p674
I35
sS'see'
p675
I31
sS'sis'
p676
I35
sS'are'
p677
I23
sS'921'
p678
I35
sS'close'
p679
I34
sS'refuse'
p680
I35
sS'contour'
p681
I35
sS'wonder'
p682
I35
sS'brazil'
p683
I34
sS'suspects'
p684
I35
sS'said'
p685
I33
sS'vitamins'
p686
I35
sS'kl'
p687
I35
sS'away'
p688
I35
sS'missing'
p689
I35
sS'bajajajajajaja'
p690
I35
sS'heading'
p691
I35
sS"father's"
p692
I35
sS'favor'
p693
I35
sS'outside'
p694
I35
sS"there's"
p695
I32
sS'various'
p696
I35
sS'finishing'
p697
I35
sS'between'
p698
I35
sS'yogurt'
p699
I35
sS'puking'
p700
I35
sS'neither'
p701
I35
sS'nope'
p702
I35
sS'email'
p703
I35
sS'discovery'
p704
I35
sS'affordable'
p705
I35
sS'vas'
p706
I35
sS'we'
p707
I28
sS'never'
p708
I33
sS'omg'
p709
I32
sS'opening'
p710
I35
sS'sold'
p711
I35
sS'attention'
p712
I35
sS'deliver'
p713
I35
sS'ignorance'
p714
I35
sS'killing'
p715
I35
sS'job'
p716
I35
sS'coffee'
p717
I35
sS'wtf'
p718
I35
sS'hurts'
p719
I35
sS'hand'
p720
I35
sS'news'
p721
I34
sS'come'
p722
I33
sS'pissed'
p723
I35
sS'784'
p724
I35
sS'league'
p725
I35
sS'tfti'
p726
I35
sS'last'
p727
I29
sS'curly'
p728
I35
sS'mega'
p729
I35
sS'career'
p730
I35
sS'fault'
p731
I34
sS'taking'
p732
I34
sS"he's"
p733
I35
sS'hours'
p734
I35
sS'magi'
p735
I35
sS'drug'
p736
I35
sS'games'
p737
I35
sS'dipshit'
p738
I35
sS'whole'
p739
I35
sS'asked'
p740
I35
sS"can't"
p741
I25
sS'nanny'
p742
I35
sS'liked'
p743
I35
sS'dancin'
p744
I35
sS'co'
p745
I35
sS'key'
p746
I35
sS'headed'
p747
I35
sS'sky'
p748
I35
sS'lv'
p749
I35
sS'ayeee'
p750
I35
sS'walk'
p751
I34
sS'canyon'
p752
I35
sS'non'
p753
I35
sS'routine'
p754
I35
sS"couldn't"
p755
I34
sS'kev'
p756
I35
sS'villains'
p757
I35
sS'[pic]'
p758
I34
sS'batcave'
p759
I33
sS'klondike'
p760
I35
sS'brats'
p761
I35
sS'platinum'
p762
I35
sS'late'
p763
I35
sS'cory'
p764
I35
sS'yay'
p765
I34
sS'pt'
p766
I35
sS"it's"
p767
I24
sS'carey'
p768
I35
sS'been'
p769
I30
sS'quickly'
p770
I35
sS'breath'
p771
I35
sS'secret'
p772
I35
sS'much'
p773
I34
sS'communion'
p774
I35
sS'yah'
p775
I35
sS'interest'
p776
I35
sS'expected'
p777
I35
sS'women'
p778
I35
sS'hottest'
p779
I35
sS'whoa'
p780
I35
sS'bullshit'
p781
I35
sS'>'
p782
I34
sS'remedies'
p783
I35
sS'life'
p784
I30
sS'i\xe2\x80\xa6'
p785
I35
sS'families'
p786
I35
sS'spds'
p787
I35
sS'passengers'
p788
I35
sS'fire'
p789
I35
sS'mind'
p790
I35
sS'face'
p791
I35
sS'apartments'
p792
I35
sS'finale'
p793
I35
sS'haunt'
p794
I35
sS'ravioli'
p795
I35
sS'awake'
p796
I35
sS'chile'
p797
I33
sS'gah'
p798
I35
sS'promethazine'
p799
I35
sS'suspected'
p800
I35
sS'sound\xe2\x80\xa6'
p801
I35
sS'driver'
p802
I34
sS'church)'
p803
I35
sS'those'
p804
I34
sS'lomato"'
p805
I35
sS'sound'
p806
I35
sS'owne'
p807
I35
sS'myself'
p808
I34
sS'license'
p809
I35
sS'these'
p810
I30
sS'leave'
p811
I35
sS'mount'
p812
I35
sS'boyfrannnn'
p813
I35
sS'n'
p814
I35
sS'will'
p815
I33
sS'while'
p816
I34
sS'familar'
p817
I35
sS'leaves'
p818
I35
sS'hahaha'
p819
I33
sS'begin'
p820
I35
sS'drives'
p821
I35
sS'voice'
p822
I32
sS'cock'
p823
I35
sS'eastside'
p824
I34
sS'chilling'
p825
I35
sS'pushin'
p826
I35
sS'understand'
p827
I35
sS'iz'
p828
I35
sS'\xe2\x98\x80hot'
p829
I35
sS'mexico'
p830
I35
sS'resident'
p831
I35
sS'very'
p832
I35
sS'is'
p833
I14
sS'sushi'
p834
I34
sS'it'
p835
I22
sS'rip'
p836
I35
sS'quiet'
p837
I35
sS'player'
p838
I35
sS'someone'
p839
I34
sS'vu'
p840
I35
sS'disney/nickelodeon'
p841
I35
sS'in'
p842
I10
sS'ready'
p843
I33
sS'bucks'
p844
I35
sS'throwing'
p845
I35
sS'everyday'
p846
I35
sS'chase'
p847
I34
sS'funny'
p848
I33
sS'different'
p849
I35
sS'harsh'
p850
I35
sS'cazador'
p851
I35
sS'pay'
p852
I34
sS'make'
p853
I34
sS'mothafuckas'
p854
I35
sS'b/c'
p855
I35
sS'same'
p856
I32
sS'tells'
p857
I35
sS'parts'
p858
I35
sS'pad'
p859
I35
sS'babies'
p860
I35
sS'9'
p861
I35
sS'hahahhahaha'
p862
I35
sS'spears'
p863
I35
sS'events'
p864
I35
sS'difficult'
p865
I35
sS'week'
p866
I34
sS'meets'
p867
I35
sS'used'
p868
I34
sS'nin'
p869
I35
sS'sings'
p870
I35
sS'premiere'
p871
I35
sS'disagree'
p872
I34
sS'yesterday'
p873
I34
sS'weed'
p874
I35
sS'bullying'
p875
I35
sS'moment'
p876
I35
sS'registrars'
p877
I35
sS'advertisement'
p878
I35
sS"would've"
p879
I35
sS'awful'
p880
I35
sS'nickname'
p881
I35
sS'aka'
p882
I35
sS'single'
p883
I35
sS'\xe2\x9c\x8c\xef\xb8\x8f'
p884
I35
sS'off'
p885
I32
sS'older'
p886
I35
sS'i'
p887
I2
sS'humble'
p888
I35
sS'well'
p889
I35
sS'spent'
p890
I35
sS'double'
p891
I35
sS'thought'
p892
I34
sS'without'
p893
I35
sS'babysit'
p894
I35
sS'tellem'
p895
I35
sS'goodnight'
p896
I35
sS'5am'
p897
I35
sS'the'
p898
I4
sS'my\xe2\x80\xa6'
p899
I35
sS'moments.i'
p900
I35
sS'left'
p901
I34
sS'juss'
p902
I35
sS'boos'
p903
I35
sS'birth'
p904
I35
sS'just'
p905
I19
sS'slowly'
p906
I35
sS'being'
p907
I27
sS'money'
p908
I33
sS'alll'
p909
I35
sS'caine'
p910
I35
sS'sleepy'
p911
I34
sS'crew'
p912
I35
sS'surrenders'
p913
I35
sS'front'
p914
I34
sS'thanks'
p915
I34
sS'behind'
p916
I35
sS'laurel'
p917
I35
sS'yes'
p918
I34
sS'yet'
p919
I35
sS'captured'
p920
I35
sS'blow'
p921
I35
sS'fearful'
p922
I35
sS'death'
p923
I34
sS'hills'
p924
I34
sS'fondly'
p925
I35
sS'cup'
p926
I35
sS'thinking'
p927
I34
sS'had'
p928
I28
sS'$2.5'
p929
I35
sS'killed'
p930
I34
sS'lets'
p931
I34
sS'book'
p932
I35
sS'domt'
p933
I35
sS'4'
p934
I35
sS'crying'
p935
I35
sS'sterling'
p936
I35
sS'5'
p937
I35
sS'tell'
p938
I35
sS'save'
p939
I35
sS'mlb\xe2\x9a\xbe\xef\xb8\x8f'
p940
I35
sS'excited'
p941
I35
sS'kick'
p942
I35
sS'niece'
p943
I35
sS'real'
p944
I32
sS'photo'
p945
I35
sS'around'
p946
I35
sS'prevent'
p947
I35
sS'read'
p948
I34
sS'big'
p949
I34
sS'couple'
p950
I35
sS"who's"
p951
I35
sS'possible'
p952
I33
sS'gonna'
p953
I31
sS'yea'
p954
I35
sS'game'
p955
I34
sS'traffic'
p956
I35
sS'know'
p957
I28
sS'mom'
p958
I28
sS'performance'
p959
I35
sS'world'
p960
I34
sS'schoo'
p961
I35
sS'dreams'
p962
I35
sS'puppy'
p963
I34
sS'like'
p964
I23
sS'gift'
p965
I35
sS'marvelous'
p966
I35
sS"ain't"
p967
I35
sS'seek'
p968
I35
sS'heyyyyyy'
p969
I35
sS'51'
p970
I35
sS'oi'
p971
I35
sS'laughing'
p972
I34
sS'night'
p973
I26
sS'become'
p974
I35
sS'security'
p975
I35
sS'introduce'
p976
I35
sS'justincowden'
p977
I35
sS'right'
p978
I32
sS'old'
p979
I34
sS'crowd'
p980
I35
sS'people'
p981
I29
sS'fucking'
p982
I32
sS'scared'
p983
I35
sS'some'
p984
I29
sS'back'
p985
I33
sS'dead'
p986
I34
sS'hair'
p987
I34
sS'streaming'
p988
I29
sS'offer'
p989
I35
sS'growth'
p990
I35
sS'pulls'
p991
I35
sS'-me'
p992
I35
sS'home'
p993
I30
sS'$400'
p994
I35
sS'plowman'
p995
I35
sS'march'
p996
I35
sS'nbc4'
p997
I29
sS'nv'
p998
I35
sS'"deli'
p999
I35
sS'jeeves'
p1000
I35
sS'for'
p1001
I12
sS'objectification'
p1002
I35
sS'memories'
p1003
I34
sS'absolutely'
p1004
I34
sS'ice'
p1005
I34
sS'wrong'
p1006
I34
sS'does'
p1007
I33
sS'chainz'
p1008
I35
sS'three'
p1009
I35
sS'yg'
p1010
I35
sS'hustle'
p1011
I35
sS'be'
p1012
I19
sS'knew'
p1013
I35
sS'weird'
p1014
I35
sS'each'
p1015
I35
sS'laker'
p1016
I34
sS'broken'
p1017
I35
sS'step'
p1018
I34
sS'santa'
p1019
I35
sS'notorious'
p1020
I35
sS'sexism'
p1021
I35
sS'from'
p1022
I28
sS';)'
p1023
I34
sS'thts'
p1024
I35
sS'super'
p1025
I35
sS'by'
p1026
I31
sS'beaches'
p1027
I35
sS'on'
p1028
I11
sS'sister'
p1029
I31
sS'simplest'
p1030
I35
sS'abouta'
p1031
I35
sS'certificate'
p1032
I35
sS'bag?)'
p1033
I35
sS'oh'
p1034
I33
sS'"closets"'
p1035
I35
sS'of'
p1036
I9
sS'mommy'
p1037
I35
sS'fringe'
p1038
I35
sS'favorite'
p1039
I34
sS'truck'
p1040
I35
sS'hot'
p1041
I34
sS'angeles'
p1042
I34
sS'squealed'
p1043
I35
sS'dinner'
p1044
I35
sS'swear'
p1045
I35
sS'repellent'
p1046
I35
sS'it."'
p1047
I35
sS'act'
p1048
I35
sS'dads'
p1049
I35
sS'wanna'
p1050
I33
sS'or'
p1051
I33
sS'tequila-pineapple'
p1052
I35
sS'ladies'
p1053
I35
sS'own'
p1054
I33
sS'dogs'
p1055
I35
sS'kinda'
p1056
I35
sS'caffeine'
p1057
I35
sS'enough'
p1058
I35
sS'pussy'
p1059
I35
sS'into'
p1060
I34
sS'telling'
p1061
I35
sS'chula'
p1062
I35
sS"world's"
p1063
I35
sS'down'
p1064
I32
sS'sedan'
p1065
I35
sS'morir'
p1066
I35
sS'because'
p1067
I34
sS'national'
p1068
I35
sS'start'
p1069
I35
sS'soon'
p1070
I35
sS'your'
p1071
I28
sS'mental'
p1072
I35
sS'oooooo'
p1073
I35
sS'madagascar'
p1074
I35
sS'plots....didnt'
p1075
I35
sS'her'
p1076
I23
sS'few'
p1077
I35
sS'weekend'
p1078
I34
sS'housing'
p1079
I35
sS'there'
p1080
I32
sS'explains'
p1081
I35
sS'lol'
p1082
I25
sS'why'
p1083
I33
sS'swatter'
p1084
I35
sS'los'
p1085
I34
sS'doubt'
p1086
I35
sS"we're"
p1087
I31
sS'stars'
p1088
I33
sS'greatness'
p1089
I35
sS'forward'
p1090
I35
sS'cultures'
p1091
I35
sS'him."'
p1092
I35
sS'was'
p1093
I21
sS'across'
p1094
I35
sS'happy'
p1095
I28
sS'cleaning'
p1096
I35
sS'kane'
p1097
I35
sS'passport'
p1098
I35
sS'popped'
p1099
I35
sS"i've"
p1100
I34
sS'batman'
p1101
I33
sS'believe'
p1102
I35
sS'bitches'
p1103
I35
sS'jackpot'
p1104
I35
sS'forever'
p1105
I35
sS'but'
p1106
I26
sS'searching'
p1107
I35
sS'tutorials'
p1108
I35
sS'uncle'
p1109
I35
sS'fettuccine'
p1110
I35
sS'mugshot'
p1111
I35
sS'line'
p1112
I34
sS'ha'
p1113
I34
sS'with'
p1114
I18
sS'eat'
p1115
I35
sS'he'
p1116
I29
sS'begins'
p1117
I35
sS'congratulations'
p1118
I35
sS'made'
p1119
I35
sS'too:)'
p1120
I35
sS'full'
p1121
I35
sS'born'
p1122
I35
sS'campus'
p1123
I35
sS'wish'
p1124
I34
sS'finals'
p1125
I35
sS'fries'
p1126
I35
sS'up'
p1127
I29
sS'us'
p1128
I35
sS'ur'
p1129
I33
sS'-spenser'
p1130
I35
sS"u's"
p1131
I35
sS'rio'
p1132
I35
sS'highlight'
p1133
I33
sS'cosmos'
p1134
I35
sS'pm'
p1135
I35
sS'minutes'
p1136
I35
sS'called'
p1137
I34
sS'fanfuckingtastic'
p1138
I35
sS'gone'
p1139
I35
sS'promises'
p1140
I35
sS'proud'
p1141
I35
sS'alfredo'
p1142
I35
sS'johnny'
p1143
I33
sS'af'
p1144
I34
sS'stealing'
p1145
I35
sS'am'
p1146
I35
sS'vans'
p1147
I35
sS'an'
p1148
I29
sS'alarm'
p1149
I35
sS'as'
p1150
I31
sS'at'
p1151
I17
sS'goodness'
p1152
I35
sS'adorbs'
p1153
I34
sS'w/non-lethal'
p1154
I35
sS'annoying'
p1155
I33
sS'pit'
p1156
I35
sS'check'
p1157
I35
sS'shit'
p1158
I32
sS'selfish'
p1159
I35
sS'jack-in-the-box'
p1160
I35
sS'maybe'
p1161
I35
sS'leer'
p1162
I35
sS'nm'
p1163
I34
sS'no'
p1164
I29
sS'idiot'
p1165
I35
sS'way'
p1166
I35
sS'nb'
p1167
I35
sS'dvst'
p1168
I35
sS'when'
p1169
I30
sS'40'
p1170
I35
sS'til'
p1171
I35
sS'leed'
p1172
I35
sS'other'
p1173
I31
sS'underdogs'
p1174
I35
sS'ahhhhhh'
p1175
I35
sS'sick'
p1176
I34
sS'hmu'
p1177
I35
sS'mass'
p1178
I35
sS'you'
p1179
I7
sS'out'
p1180
I31
sS'roll'
p1181
I35
sS'realize'
p1182
I35
sS'10'
p1183
I34
sS'picture'
p1184
I35
sS'trip'
p1185
I35
sS'renowned'
p1186
I35
sS'gross'
p1187
I35
sS'students'
p1188
I35
sS'worker'
p1189
I35
sS'time'
p1190
I31
sS'describe'
p1191
I35
sS'dayummm'
p1192
I35
sS'stay'
p1193
I35
sS"let's"
p1194
I34
sS'hahahahahaa'
p1195
I35
sS'coverage'
p1196
I30
sS'bcos'
p1197
I35
sS'cooperate'
p1198
I35
sS'friends'
p1199
I30
sS'desert'
p1200
I34
sS'vein'
p1201
I35
sS'opened'
p1202
I35
sS'miles'
p1203
I35
sS'longer'
p1204
I35
sS'calls'
p1205
I35
sS'phone'
p1206
I35
sS'age'
p1207
I35
sS'jelly'
p1208
I35
sS'together'
p1209
I35
sS'sounded'
p1210
I35
sS'u'
p1211
I33
sS'came'
p1212
I35
sS'literally'
p1213
I33
sS"she's"
p1214
I31
sS'having'
p1215
I31
sS'simpson'
p1216
I35
s.