(dp0
S''
p1
I1
sS'raining'
p2
I62
sS'porquerias'
p3
I63
sS'foul'
p4
I63
sS'sleep'
p5
I60
sS'hanging'
p6
I63
sS'hate'
p7
I61
sS'lace'
p8
I63
sS'otro'
p9
I63
sS'buddy'
p10
I63
sS'\xd0\xb8\xd1\x82\xd0\xbe'
p11
I63
sS'up"'
p12
I63
sS'\xd1\x81\xd0\xbc\xd0\xbe\xd0\xbb'
p13
I63
sS'340'
p14
I63
sS'lord'
p15
I62
sS'sorry'
p16
I60
sS'pride'
p17
I63
sS'worth'
p18
I63
sS'fists'
p19
I63
sS'marissa)'
p20
I63
sS'rescue'
p21
I63
sS'rise'
p22
I63
sS'swerving'
p23
I63
sS'asia)'
p24
I61
sS'every'
p25
I59
sS'stabbed'
p26
I63
sS'bringing'
p27
I63
sS'excited'
p28
I61
sS'school'
p29
I57
sS'prize'
p30
I63
sS'skills'
p31
I62
sS'\xd0\xbf\xd0\xb0\xd1\x80\xd0\xbd\xd0\xb8'
p32
I62
sS'wednesday'
p33
I61
sS"couple's"
p34
I63
sS'glued'
p35
I63
sS'enjoy'
p36
I62
sS'tired'
p37
I62
sS'phones'
p38
I63
sS'bacon'
p39
I61
sS'budget'
p40
I62
sS'second'
p41
I63
sS'kidnap'
p42
I63
sS'others)'
p43
I60
sS'even'
p44
I56
sS't-minus'
p45
I63
sS'christ'
p46
I63
sS"tonight's"
p47
I63
sS'asia'
p48
I56
sS'\xe5\x89\x9b\xe5\x89\x9b\xe7\x99\xbc\xe4\xbd\x88\xe7\x9b\xb8\xe7\x89\x87'
p49
I63
sS'new'
p50
I42
sS'ever'
p51
I54
sS'nes'
p52
I63
sS'disney'
p53
I63
sS'told'
p54
I62
sS'\xd0\x93\xd0\xbe\xd0\xbb\xd0\xb8\xd0\xb2\xd1\x83\xd0\xb4'
p55
I63
sS'festive'
p56
I63
sS'never'
p57
I55
sS'stared'
p58
I63
sS'here'
p59
I42
sS'dopemario'
p60
I63
sS'\xe2\x9d\xa4\xef\xb8\x8f'
p61
I54
sS'hovos'
p62
I63
sS'kovi'
p63
I63
sS'100'
p64
I63
sS"aren't"
p65
I61
sS'\xd0\xbb\xd0\xb0\xd1\x80\xd0\xb4\xd0\xb6'
p66
I63
sS'kids'
p67
I62
sS'k'
p68
I62
sS"i'd"
p69
I62
sS'kidd'
p70
I63
sS'\xe2\x9c\x94\xef\xb8\x8f'
p71
I63
sS"i'm"
p72
I10
sS"someone's"
p73
I63
sS'schooling'
p74
I63
sS'feelings'
p75
I63
sS'bro'
p76
I61
sS'patience'
p77
I63
sS'drowned'
p78
I63
sS'(5429'
p79
I61
sS'<3'
p80
I63
sS'would'
p81
I55
sS'played'
p82
I61
sS"world's"
p83
I63
sS'craving'
p84
I63
sS'cali'
p85
I63
sS'$9988.58'
p86
I63
sS'music'
p87
I55
sS'spike'
p88
I63
sS'\xd0\x9f\xd0\xbe\xd1\x87\xd0\xb5\xd0\xbc\xd1\x83'
p89
I63
sS'type'
p90
I63
sS'until'
p91
I62
sS'breathe'
p92
I61
sS'attractive'
p93
I63
sS'females'
p94
I63
sS'posting'
p95
I63
sS'holy'
p96
I63
sS'ratkiller'
p97
I63
sS'haha'
p98
I62
sS'award'
p99
I63
sS'\xd0\xb3\xd0\xbe\xd0\xb2\xd0\xbe\xd1\x80\xd1\x8f\xd1\x82'
p100
I63
sS'phone'
p101
I62
sS'hold'
p102
I62
sS'must'
p103
I62
sS'shoot'
p104
I62
sS'tnt'
p105
I63
sS'join'
p106
I63
sS'player'
p107
I63
sS'work'
p108
I48
sS'hizo'
p109
I63
sS'\xd0\x91\xd0\xbb\xd1\x8f\xd1\x82\xd1\x8c'
p110
I63
sS'cuddle'
p111
I62
sS'my'
p112
I7
sS'shook'
p113
I63
sS'give'
p114
I52
sS'\xd0\xbd\xd0\xb0\xd0\xbf\xd0\xb8\xd1\x82\xd0\xba\xd0\xb8'
p115
I63
sS'in'
p116
I11
sS'heartless'
p117
I63
sS'ready'
p118
I61
sS'homie'
p119
I63
sS'want'
p120
I49
sS'keep'
p121
I55
sS'end'
p122
I56
sS'turn'
p123
I63
sS'complaining'
p124
I63
sS'sitting'
p125
I62
sS'haircut...me'
p126
I63
sS'damage'
p127
I63
sS'how'
p128
I46
sS'amazing'
p129
I53
sS'hop'
p130
I63
sS'interview'
p131
I62
sS'yum'
p132
I62
sS'beach'
p133
I62
sS'hoy'
p134
I57
sS'badly'
p135
I62
sS'beauty'
p136
I63
sS'funny'
p137
I62
sS'bday'
p138
I63
sS'after'
p139
I58
sS"quizno's"
p140
I63
sS'wrong'
p141
I62
sS'vegans'
p142
I62
sS'summarize'
p143
I63
sS'law'
p144
I62
sS'parallel'
p145
I63
sS'shirt'
p146
I63
sS'elusive'
p147
I63
sS'wins'
p148
I63
sS'wknd'
p149
I63
sS'funniest'
p150
I63
sS'worst'
p151
I63
sS'order'
p152
I62
sS'wind'
p153
I63
sS'wine'
p154
I63
sS'fifa'
p155
I63
sS'wut'
p156
I63
sS'over'
p157
I57
sS'london'
p158
I62
sS'mayor'
p159
I56
sS'before'
p160
I57
sS'\xd0\xba\xd0\xb0\xd0\xba'
p161
I63
sS'personal'
p162
I62
sS'backpack'
p163
I63
sS'better'
p164
I54
sS'\xd8\xa3\xd9\x83\xd8\xab\xd8\xb1'
p165
I63
sS'mistreat'
p166
I63
sS'weeks'
p167
I63
sS'\xd0\xb0\xd0\xb7\xd0\xb8\xd0\xb0\xd1\x82\xd1\x8b'
p168
I63
sS'then'
p169
I52
sS'them'
p170
I54
sS'"new'
p171
I63
sS'"rather'
p172
I63
sS'workout'
p173
I63
sS'break'
p174
I63
sS'bang'
p175
I63
sS'\xe2\x98\xba\xef\xb8\x8f'
p176
I62
sS'schools'
p177
I63
sS'braised'
p178
I63
sS'one'
p179
I41
sS'silver'
p180
I63
sS'bank'
p181
I56
sS'\xd0\xbf\xd0\xbe\xd0\xb5\xd0\xb7\xd0\xb4\xd0\xb8\xd1\x82\xd1\x8c'
p182
I63
sS'meat'
p183
I63
sS'each'
p184
I63
sS'$50'
p185
I63
sS'went'
p186
I60
sS'meal'
p187
I61
sS'mean'
p188
I62
sS'weirdos'
p189
I62
sS'gunna'
p190
I63
sS'quiznos'
p191
I62
sS'bonah'
p192
I63
sS'ghosts'
p193
I63
sS'\xd0\xb1\xd0\xbb\xd0\xb8\xd0\xb7\xd0\xba\xd0\xb8\xd0\xb5'
p194
I63
sS'saturday'
p195
I63
sS'rt'
p196
I63
sS'network'
p197
I63
sS'0_o'
p198
I63
sS'god'
p199
I42
sS'motel'
p200
I59
sS'crucial'
p201
I63
sS'george'
p202
I63
sS'\xd1\x81'
p203
I59
sS're'
p204
I63
sS'\xd1\x83'
p205
I63
sS'daniel'
p206
I63
sS'friend\xe2\x80\xa6'
p207
I63
sS'smh'
p208
I60
sS'got'
p209
I54
sS'rn'
p210
I61
sS'sliding'
p211
I63
sS'\xd1\x8f'
p212
I58
sS'*drew'
p213
I63
sS'arizona'
p214
I62
sS'cutest'
p215
I63
sS"you're"
p216
I55
sS'\xd0\xbd\xd0\xb0\xd1\x83\xd1\x88\xd0\xbd\xd0\xb8\xd0\xba\xd0\xb8'
p217
I63
sS'fave'
p218
I63
sS'sheer'
p219
I63
sS'free'
p220
I58
sS'rain'
p221
I62
sS'returning'
p222
I63
sS'wanted'
p223
I62
sS'ate'
p224
I63
sS'created'
p225
I62
sS'days'
p226
I58
sS'thaitown'
p227
I60
sS'\xd0\xbf\xd0\xbb\xd1\x8e\xd1\x81'
p228
I63
sS'takeout'
p229
I63
sS"'gas"
p230
I63
sS'uses'
p231
I63
sS'(at'
p232
I53
sS'bite'
p233
I63
sS'fuckin'
p234
I61
sS'\xd0\xb2\xd1\x81\xd0\xb5\xd0\xb3\xd0\xb4\xd0\xb0'
p235
I62
sS'already'
p236
I57
sS'wash'
p237
I63
sS'\xd0\xbf\xd0\xbe\xd1\x81\xd0\xbb\xd0\xb5\xd0\xb4\xd0\xbd\xd0\xb8\xd0\xb9'
p238
I63
sS'delicious'
p239
I63
sS'sober'
p240
I58
sS'neighborhood'
p241
I63
sS'thick'
p242
I63
sS'clarity'
p243
I63
sS'\xc3\xa9'
p244
I63
sS'...and'
p245
I63
sS'\xd0\xb1\xd1\x8b\xd1\x81\xd1\x82\xd1\x80\xd0\xbe'
p246
I63
sS'sarcasm'
p247
I63
sS'top'
p248
I60
sS'this....\xe2\x80\xa2'
p249
I63
sS'girls'
p250
I61
sS'blackberry'
p251
I63
sS'needed'
p252
I62
sS'jamba'
p253
I57
sS'too'
p254
I55
sS'tom'
p255
I62
sS'hollywood'
p256
I37
sS'john'
p257
I63
sS'listen'
p258
I63
sS'\xe0\xb9\x84\xe0\xb8\x9b\xe0\xb8\xa5\xe0\xb8\x87\xe0\xb8\x99\xe0\xb8\xa3\xe0\xb8\x81\xe0\xb8\x8b\xe0\xb8\xb0\xe0\xb9\x80\xe0\xb8\x96\xe0\xb8\xb4\xe0\xb8\x94\xe0\xb8\x97\xe0\xb8\xb5\xe0\xb9\x88\xe0\xb8\xa3\xe0\xb8\xb1\xe0\xb8\x81\xe0\xb8\x81\xe0\xb8\x81\xe0\xb8\xad\xe0\xb8\xb1\xe0\xb8\x99\xe0\xb8\x99\xe0\xb8\xb5\xe0\xb9\x89\xe0\xb8\x81\xe0\xb8\xb8\xe0\xb9\x83\xe0\xb8\xab\xe0\xb9\x89\xe0\xb8\x9f\xe0\xb8\xb1\xe0\xb8\x87\xe0\xb8\x97\xe0\xb8\xb3\xe0\xb8\x99\xe0\xb8\xad\xe0\xb8\x87'
p259
I63
sS'floor)'
p260
I63
sS'gym'
p261
I61
sS'2am'
p262
I63
sS'took'
p263
I58
sS'dar\xc3\xa1'
p264
I63
sS'(5453'
p265
I62
sS'noodle'
p266
I59
sS'(5455'
p267
I62
sS'western'
p268
I56
sS'\xe0\xb9\x84\xe0\xb8\xa1\xe0\xb9\x88\xe0\xb9\x84\xe0\xb8\x94\xe0\xb9\x89\xe0\xb9\x81\xe0\xb8\x94\xe0\xb8\x81\xe0\xb8\xa1\xe0\xb8\xb2\xe0\xb8\x99\xe0\xb8\xb2\xe0\xb8\x99\xe0\xb9\x81\xe0\xb8\xaa\xe0\xb8\x99\xe0\xb8\x99\xe0\xb8\x99'
p269
I63
sS'wardrobe'
p270
I62
sS'buckley'
p271
I63
sS'begins'
p272
I63
sS'distance'
p273
I63
sS'target'
p274
I63
sS'hike'
p275
I63
sS'tree'
p276
I63
sS'project'
p277
I63
sS'\xe0\xb8\x82\xe0\xb9\x89\xe0\xb8\xb2\xe0\xb8\xa7\xe0\xb8\xab\xe0\xb8\xa1\xe0\xb8\x81\xe0\xb9\x84\xe0\xb8\x81\xe0\xb9\x88\xef\xbc\x88\xe4\xba\xba\xc2\xb4\xe2\x88\x80`*\xef\xbc\x89lunch'
p278
I63
sS'silly'
p279
I61
sS'speaking'
p280
I63
sS'feeling'
p281
I62
sS'mini'
p282
I63
sS'fashion'
p283
I63
sS'la\xe2\x80\x94where'
p284
I63
sS'esta'
p285
I63
sS'ran'
p286
I63
sS'boston'
p287
I62
sS'mind'
p288
I61
sS'mine'
p289
I63
sS'talking'
p290
I62
sS'\xd0\xbf\xd1\x80\xd0\xbe\xd0\xba\xd1\x80\xd1\x83\xd1\x87\xd0\xb8\xd0\xb2\xd0\xb0\xd1\x8e'
p291
I63
sS'seen'
p292
I61
sS'\xd0\x9b\xd1\x8e\xd0\xb4\xd0\xb8'
p293
I63
sS'picks'
p294
I63
sS'"shadow"'
p295
I63
sS'craziest'
p296
I63
sS'\xd0\x9b\xd1\x8e\xd0\xb1\xd0\xbb\xd1\x8e'
p297
I63
sS'rudolph'
p298
I63
sS'-'
p299
I58
sS'fitting'
p300
I62
sS'grips'
p301
I63
sS'rides'
p302
I63
sS'lugares'
p303
I63
sS'exactly'
p304
I63
sS'though'
p305
I61
sS'nuevos'
p306
I63
sS'mother'
p307
I63
sS'thai-town'
p308
I63
sS'anatomy'
p309
I62
sS'mario'
p310
I63
sS'mouth'
p311
I62
sS'letter'
p312
I63
sS'hollywood/vine'
p313
I63
sS'episode'
p314
I62
sS'flow'
p315
I63
sS'cya'
p316
I63
sS'ussery'
p317
I62
sS'\xd0\xb1\xd1\x8b'
p318
I62
sS'came'
p319
I57
sS'saying'
p320
I62
sS'bomb'
p321
I63
sS'lyrics'
p322
I63
sS'preproduction'
p323
I63
sS'\xd0\xb5\xd0\xb7\xd0\xb4\xd0\xb8\xd0\xbb\xd0\xb0'
p324
I63
sS'meetings'
p325
I63
sS'siccunt'
p326
I63
sS'caffeine'
p327
I63
sS'radio'
p328
I62
sS'stepping'
p329
I63
sS'earth'
p330
I63
sS'lessons'
p331
I63
sS'drew'
p332
I63
sS'busy'
p333
I62
sS'weekends'
p334
I63
sS'commence'
p335
I63
sS'screening'
p336
I63
sS'rich'
p337
I63
sS'fashionphysics'
p338
I63
sS'folks'
p339
I62
sS'rice'
p340
I57
sS'wearing'
p341
I61
sS'do'
p342
I35
sS'dm'
p343
I63
sS'above'
p344
I63
sS'(9th'
p345
I63
sS'de'
p346
I63
sS'stop'
p347
I59
sS'coast'
p348
I62
sS'shutting'
p349
I63
sS'\xd0\xbc\xd0\xbe\xd0\xb5\xd0\xb9'
p350
I63
sS'dr'
p351
I63
sS'bar'
p352
I62
sS'tetweet'
p353
I63
sS'twice'
p354
I63
sS'w/o'
p355
I63
sS'bae'
p356
I63
sS'shots'
p357
I63
sS'steal'
p358
I62
sS'bah'
p359
I63
sS'trick-or-treater'
p360
I63
sS'w/'
p361
I48
sS'lemonade'
p362
I63
sS'\xd0\xb2\xd0\xbc\xd0\xb5\xd1\x81\xd1\x82\xd0\xb5'
p363
I62
sS'resist'
p364
I62
sS'goodnight'
p365
I61
sS'\xd0\xb3\xd0\xbe\xd0\xb2\xd0\xbe\xd1\x80\xd0\xb8\xd0\xbb'
p366
I63
sS'\xd0\xbe\xd0\xbd'
p367
I63
sS'noodles'
p368
I57
sS'best'
p369
I56
sS'brazil'
p370
I63
sS'said'
p371
I63
sS'lots'
p372
I62
sS'away'
p373
I62
sS't-mobile'
p374
I63
sS'r&b'
p375
I63
sS"there's"
p376
I57
sS'finger'
p377
I63
sS'songkran'
p378
I63
sS'college'
p379
I62
sS'spicyyyyy'
p380
I63
sS'omg'
p381
I59
sS'\xd1\x84\xd0\xbe\xd1\x82\xd0\xba\xd1\x83'
p382
I63
sS'vacuuming'
p383
I63
sS'forbthe'
p384
I63
sS"'meredith"
p385
I63
sS'harvard'
p386
I62
sS'(los'
p387
I23
sS'wtf'
p388
I63
sS'picking'
p389
I61
sS'w|'
p390
I63
sS'bras'
p391
I63
sS'cop'
p392
I62
sS'catalano'
p393
I63
sS'met'
p394
I63
sS'ill'
p395
I54
sS'charisma\xe2\x9c\x8c\xef\xb8\x8f'
p396
I63
sS'against'
p397
I63
sS'games'
p398
I62
sS'lookin'
p399
I63
sS'fno'
p400
I63
sS'dopest'
p401
I63
sS'argue'
p402
I63
sS'asked'
p403
I63
sS'con'
p404
I63
sS'pre'
p405
I63
sS'tough'
p406
I63
sS'character'
p407
I63
sS'groupon'
p408
I63
sS'btwit'
p409
I63
sS'pregnancy'
p410
I63
sS'trust'
p411
I62
sS'bathroom'
p412
I63
sS'\xe0\xb8\xad\xe0\xb8\xa2\xe0\xb8\xb2\xe0\xb8\x81\xe0\xb8\x81\xe0\xb8\xb4\xe0\xb8\x99'
p413
I63
sS'sam'
p414
I63
sS'beef'
p415
I62
sS'had\xe2\x80\xa6'
p416
I63
sS'three'
p417
I63
sS'been'
p418
I48
sS'\xe0\xb8\xa7\xe0\xb8\xb1\xe0\xb8\x99\xe0\xb8\x9e\xe0\xb8\xb1\xe0\xb8\x81\xe0\xb8\x9c\xe0\xb9\x88\xe0\xb8\xad\xe0\xb8\x99'
p419
I63
sS'confident'
p420
I63
sS'beer'
p421
I63
sS'much'
p422
I56
sS'lovely'
p423
I62
sS'idol'
p424
I62
sS'website'
p425
I63
sS'life'
p426
I52
sS'yessssss'
p427
I63
sS'relaxing'
p428
I60
sS'hospitalized'
p429
I63
sS'\xd1\x82\xd0\xb0\xd1\x89\xd0\xb0\xd1\x82'
p430
I63
sS'&breakfast'
p431
I63
sS'ariana'
p432
I63
sS'lift'
p433
I63
sS'personally'
p434
I63
sS'catch'
p435
I62
sS'sad'
p436
I63
sS'cunt'
p437
I62
sS'save'
p438
I62
sS'\xd0\xb1\xd0\xb5\xd0\xb7'
p439
I63
sS'n'
p440
I58
sS'depp'
p441
I62
sS'gave'
p442
I63
sS'\xd1\x82\xd0\xb5\xd1\x82\xd0\xba\xd0\xb0'
p443
I63
sS'slc'
p444
I63
sS'stink'
p445
I63
sS'jealous'
p446
I63
sS'\xd0\xba\xd0\xb0\xd0\xba\xd0\xb0\xd1\x8f'
p447
I63
sS'mexico'
p448
I62
sS'is'
p449
I9
sS'sushi'
p450
I58
sS'it'
p451
I17
sS'locksmith'
p452
I63
sS'ii'
p453
I63
sS'ih'
p454
I63
sS'cant'
p455
I52
sS'im'
p456
I40
sS'cans'
p457
I63
sS'(5445'
p458
I62
sS'id'
p459
I59
sS'ig'
p460
I57
sS'if'
p461
I40
sS'grown'
p462
I63
sS'memorial'
p463
I63
sS'\xd1\x82\xd0\xbe\xd0\xbb\xd1\x8c\xd0\xba\xd0\xbe'
p464
I63
sS'things'
p465
I59
sS'make'
p466
I56
sS'jerry'
p467
I63
sS'hahah'
p468
I63
sS'success'
p469
I60
sS'several'
p470
I63
sS'\xd0\xb2\xd1\x81\xd0\xb5\xd0\xb3\xd0\xbe'
p471
I63
sS'nic'
p472
I63
sS'\xe0\xb9\x81\xe0\xb8\x9f\xe0\xb8\x99\xe0\xb8\xab\xe0\xb8\xb2\xe0\xb8\xa2\xe0\xb8\xad\xe0\xb8\xb4\xe0\xb8\x81\xe0\xb9\x81\xe0\xb8\xa5\xe0\xb9\x89\xe0\xb8\x99\xe0\xb8\x99\xe0\xb8\x99'
p473
I63
sS'award\xe2\x80\x9d'
p474
I63
sS'hand'
p475
I63
sS'hanx'
p476
I63
sS'garlic'
p477
I62
sS'supper'
p478
I63
sS'shizzle'
p479
I63
sS'meetn'
p480
I63
sS"he'll"
p481
I63
sS'thoughts'
p482
I62
sS'kid'
p483
I63
sS'butter'
p484
I62
sS'kept'
p485
I62
sS'rufio'
p486
I63
sS'charlie'
p487
I63
sS'zeytun'
p488
I63
sS'kyle'
p489
I62
sS'tho'
p490
I60
sS'epi'
p491
I63
sS'\xd0\xbc\xd0\xbd\xd0\xbe\xd0\xb3\xd0\xbe'
p492
I63
sS'the'
p493
I3
sS'etiquette'
p494
I63
sS'just'
p495
I19
sS'yea'
p496
I63
sS'photo'
p497
I50
sS'unfollow'
p498
I62
sS'sleepy'
p499
I63
sS'greys'
p500
I62
sS'thanks'
p501
I56
sS'\xd0\xbe\xd1\x81\xd1\x82\xd0\xb0\xd0\xb2\xd1\x8c\xd1\x82\xd0\xb5'
p502
I63
sS'yes'
p503
I58
sS'yet'
p504
I59
sS'antes'
p505
I63
sS'ham'
p506
I63
sS'had'
p507
I60
sS'alchemy'
p508
I63
sS'spread'
p509
I63
sS'dreams'
p510
I61
sS'starbucks)'
p511
I60
sS'whatsapp'
p512
I63
sS'east'
p513
I63
sS'hat'
p514
I63
sS'exorcised'
p515
I63
sS'cochella)'
p516
I63
sS'maya'
p517
I63
sS'pants\xe2\x80\x9d'
p518
I63
sS'judge'
p519
I63
sS'retreat'
p520
I63
sS'apart'
p521
I63
sS'county'
p522
I63
sS'\xd0\xbc\xd0\xbe\xd0\xb5'
p523
I63
sS'\xd0\xbb\xd1\x8e\xd0\xb4\xd1\x8c\xd0\xbc\xd0\xb8'
p524
I63
sS'unnecessary'
p525
I63
sS'\xd0\xbf\xd0\xbe\xd0\xbf\xd0\xb8\xd1\x82\xd1\x8c'
p526
I63
sS'steps'
p527
I63
sS'officer'
p528
I63
sS'night'
p529
I42
sS'revisiting'
p530
I63
sS'artrave'
p531
I62
sS'right'
p532
I45
sS'old'
p533
I60
sS'\xd0\xbe\xd0\xbd\xd0\xb8'
p534
I63
sS'deal'
p535
I63
sS'people'
p536
I40
sS'clockers'
p537
I63
sS'\xd0\xbf\xd0\xbe'
p538
I63
sS'idgaf'
p539
I63
sS'wwe'
p540
I63
sS'dear'
p541
I63
sS'...his'
p542
I63
sS'couture-physicist'
p543
I63
sS'2days'
p544
I63
sS'cooper'
p545
I62
sS'for'
p546
I12
sS'a\xe2\x80\xa6'
p547
I63
sS'fox'
p548
I63
sS'405-enstein'
p549
I63
sS'ice'
p550
I62
sS'creative'
p551
I63
sS'everything'
p552
I58
sS'uma'
p553
I63
sS'payed'
p554
I63
sS'\xd0\xb0\xd0\xb9\xd0\xbc\xd0\xb0\xd0\xba\xd0\xb8'
p555
I63
sS'adorable'
p556
I63
sS'christmas'
p557
I61
sS'nwts'
p558
I63
sS'peek'
p559
I63
sS'shakes'
p560
I62
sS'starring'
p561
I62
sS'\xd0\xbd\xd0\xb5\xd0\xbd\xd0\xb0\xd0\xb2\xd0\xb8\xd0\xb4\xd1\x8f'
p562
I63
sS'\xd0\x9d\xd0\xbe\xd1\x80\xd0\xbc'
p563
I63
sS'post'
p564
I61
sS'super'
p565
I61
sS'\xd0\xbe\xd1\x81\xd1\x82\xd0\xb0\xd0\xbb\xd1\x8c\xd0\xbd\xd0\xbe\xd0\xb5'
p566
I63
sS'now...and'
p567
I63
sS'\xd1\x81\xd0\xbe'
p568
I62
sS'coral'
p569
I62
sS'o'
p570
I62
sS'dinner'
p571
I54
sS'plus'
p572
I63
sS'afternoon'
p573
I63
sS'curry'
p574
I62
sS'franjoli'
p575
I63
sS'raised'
p576
I63
sS'whats'
p577
I56
sS'presence'
p578
I63
sS'selfie'
p579
I63
sS'profession'
p580
I63
sS'son'
p581
I63
sS'down'
p582
I53
sS'ppv'
p583
I63
sS'wrap'
p584
I62
sS'rely'
p585
I63
sS'compression'
p586
I63
sS'"beam'
p587
I63
sS'wah'
p588
I63
sS'\xd8\xa5\xd8\xb2\xd8\xb9\xd8\xa7\xd8\xac\xd8\xa7\xd9\x8b'
p589
I63
sS'support'
p590
I61
sS'jealousy'
p591
I63
sS'fight'
p592
I61
sS'absolutely'
p593
I63
sS'way'
p594
I56
sS'gio'
p595
I63
sS'call'
p596
I59
sS'was'
p597
I40
sS'war'
p598
I63
sS'happy'
p599
I49
sS'head'
p600
I62
sS'\xd0\xbc\xd0\xb5\xd1\x87\xd1\x82\xd0\xb0'
p601
I63
sS'offer'
p602
I63
sS'gorgeous'
p603
I62
sS'snows'
p604
I62
sS'taken'
p605
I61
sS"juicin'"
p606
I63
sS'\xd0\xbe\xd0\xb4\xd0\xbd\xd0\xb8\xd0\xbc/\xd0\xbe\xd0\xb4\xd0\xbd\xd0\xbe\xd0\xb9'
p607
I63
sS'hear'
p608
I62
sS'dead'
p609
I63
sS'hwood'
p610
I63
sS'round2'
p611
I63
sS'congratulations'
p612
I63
sS'\xd0\xbb\xd0\xb5\xd1\x81\xd0\xb1\xd0\xb8\xd1\x8f\xd0\xbd\xd0\xba\xd0\xb0\xd0\xbc\xd0\xb8'
p613
I63
sS'devices'
p614
I63
sS'tell'
p615
I58
sS'r.i.p'
p616
I63
sS'daddy'
p617
I60
sS'grid-lock-apalooza'
p618
I63
sS'passenger'
p619
I63
sS'proud'
p620
I61
sS'classic'
p621
I62
sS'mirror'
p622
I63
sS'covers'
p623
I63
sS'hungry'
p624
I61
sS'juice)'
p625
I61
sS'\xd0\x9f\xd0\xb0\xd0\xbf\xd0\xb0'
p626
I63
sS'kha'
p627
I62
sS'trip'
p628
I58
sS'shit'
p629
I56
sS'holla'
p630
I61
sS'floor'
p631
I63
sS'na'
p632
I62
sS'when'
p633
I32
sS'actor'
p634
I59
sS'reality'
p635
I60
sS'til'
p636
I63
sS'ny'
p637
I63
sS'nz'
p638
I63
sS'shrine'
p639
I63
sS'test'
p640
I63
sS'gas-zilla'
p641
I63
sS'picture'
p642
I62
sS'roomies'
p643
I63
sS'qualude'
p644
I63
sS'welcome'
p645
I63
sS'diet'
p646
I63
sS"let's"
p647
I62
sS'fell'
p648
I63
sS'humor'
p649
I62
sS'hurt'
p650
I62
sS'weekend'
p651
I61
sS'died'
p652
I63
sS"bernie's"
p653
I63
sS'happening'
p654
I62
sS'excuse'
p655
I62
sS'\xd1\x88\xd1\x83\xd0\xb1\xd0\xb5'
p656
I63
sS'(5271'
p657
I63
sS'together'
p658
I62
sS'jacket'
p659
I63
sS'jebus'
p660
I63
sS'stripping'
p661
I63
sS'time'
p662
I37
sS'\xd0\xbb\xd1\x8e\xd0\xb1\xd0\xb8\xd1\x82\xd1\x8c'
p663
I63
sS':))'
p664
I63
sS'neighbors'
p665
I63
sS':/'
p666
I63
sS':)'
p667
I56
sS'\xd0\xb4\xd0\xb5\xd1\x80\xd1\x8c\xd0\xbc\xd0\xbe\xd0\xbc'
p668
I63
sS'ruen-pair'
p669
I63
sS'laura'
p670
I63
sS'arnett'
p671
I63
sS'grateful'
p672
I63
sS'skin'
p673
I63
sS':0'
p674
I63
sS'recharge'
p675
I63
sS'yummy'
p676
I58
sS'marissa'
p677
I63
sS'ooooohhh'
p678
I63
sS"shop'n"
p679
I63
sS'father'
p680
I62
sS'disgusting'
p681
I63
sS'tsames'
p682
I63
sS'0'
p683
I63
sS'finally'
p684
I58
sS'negativity'
p685
I63
sS'heart-less'
p686
I63
sS'oversight'
p687
I63
sS'me'
p688
I18
sS'densmore'
p689
I63
sS'gravitate'
p690
I63
sS'\xd1\x82\xd1\x80\xd0\xb0\xd0\xbd\xd1\x81\xd0\xb0\xd0\xbc\xd0\xb8'
p691
I63
sS'vegas'
p692
I61
sS'\xd0\xb5\xd0\xb1\xd0\xb0\xd1\x82\xd1\x8c'
p693
I63
sS'klout'
p694
I63
sS'newww'
p695
I63
sS'cook'
p696
I63
sS'word'
p697
I62
sS'airing'
p698
I63
sS'minute'
p699
I62
sS'cool'
p700
I60
sS'impressive'
p701
I62
sS'did'
p702
I57
sS'turns'
p703
I63
sS'brother'
p704
I59
sS'turnt'
p705
I63
sS'thaing'
p706
I63
sS'leave'
p707
I61
sS'soooo'
p708
I63
sS'subway'
p709
I62
sS'boyyyyy'
p710
I63
sS'team'
p711
I63
sS'quick'
p712
I63
sS'guy'
p713
I58
sS'round'
p714
I63
sS'dis'
p715
I63
sS'shave'
p716
I63
sS'pork'
p717
I48
sS'angeles)'
p718
I50
sS'\xd1\x82\xd1\x8b'
p719
I62
sS'd'
p720
I61
sS'\xd0\xbd\xd0\xb0'
p721
I61
sS'\xd0\xbd\xd0\xb5'
p722
I56
sS'\xd0\xb1\xd1\x80\xd0\xbe\xd0\xb2\xd0\xb8'
p723
I63
sS'eating'
p724
I61
sS'appear'
p725
I63
sS'uniform'
p726
I63
sS'suspect'
p727
I63
sS"pedal'"
p728
I63
sS'goes'
p729
I63
sS'\xd0\xba\xd0\xbe\xd1\x82\xd0\xbe\xd1\x80\xd1\x8b\xd0\xb5'
p730
I63
sS'boost'
p731
I62
sS'oldies'
p732
I63
sS'\xd1\x81\xd1\x82\xd0\xb0\xd1\x80\xd0\xb1\xd0\xb0\xd0\xba\xd1\x81\xd0\xb5'
p733
I60
sS'makeup'
p734
I63
sS'water'
p735
I62
sS'entertain'
p736
I63
sS"jamba...couldn't"
p737
I63
sS'\xd0\xbf\xd1\x80\xd0\xb8\xd1\x88\xd0\xbb\xd0\xb0'
p738
I63
sS'grabbed'
p739
I63
sS'teacher'
p740
I63
sS'change'
p741
I63
sS'wait'
p742
I58
sS'boy'
p743
I57
sS'yessss'
p744
I63
sS'(come'
p745
I63
sS'healthy'
p746
I61
sS'hbd'
p747
I63
sS'lakers'
p748
I63
sS'bow'
p749
I63
sS'cinnamon'
p750
I63
sS'boo'
p751
I62
sS'vartan+ajarski='
p752
I63
sS'priceless'
p753
I63
sS'weird'
p754
I61
sS'\xd1\x83\xd0\xbc\xd0\xb5\xd1\x8e\xd1\x82'
p755
I63
sS'pillow'
p756
I60
sS'massage'
p757
I61
sS'nowhere'
p758
I63
sS'love'
p759
I25
sS'hiking'
p760
I63
sS'tuxedo'
p761
I63
sS'thesbian'
p762
I63
sS'sign'
p763
I63
sS'salto'
p764
I63
sS'hollywoodland'
p765
I63
sS'nman'
p766
I63
sS'1st'
p767
I63
sS'touchdown'
p768
I63
sS'hamburger'
p769
I63
sS'everybody'
p770
I63
sS'\xd1\x87\xd0\xb5\xd1\x82'
p771
I63
sS'wealth'
p772
I62
sS'working'
p773
I57
sS'sake'
p774
I62
sS'positive'
p775
I62
sS'dude'
p776
I59
sS'angela'
p777
I63
sS'croxford'
p778
I63
sS'live'
p779
I61
sS'dreamers'
p780
I63
sS'iphone'
p781
I62
sS'\xd0\x91\xd1\x80\xd0\xb0\xd1\x82\xd0\xb0\xd0\xb0\xd0\xb0\xd0\xbd'
p782
I63
sS'believing'
p783
I63
sS'thru'
p784
I63
sS'angels'
p785
I63
sS'today'
p786
I43
sS'loving'
p787
I61
sS'\xd0\xbd\xd0\xb8\xd0\xba\xd1\x82\xd0\xbe'
p788
I63
sS'club'
p789
I62
sS'acceptable'
p790
I63
sS'ignorant'
p791
I62
sS'far'
p792
I63
sS'cases'
p793
I63
sS'\xd0\xbb\xd1\x83\xd1\x87\xd1\x88\xd0\xb5'
p794
I63
sS'8pm'
p795
I63
sS'car'
p796
I60
sS'(1711'
p797
I63
sS'soul'
p798
I63
sS'\xd0\xb4\xd0\xb5\xd0\xbb\xd0\xb0\xd1\x8e\xd1\x82'
p799
I63
sS'soup'
p800
I61
sS'can'
p801
I39
sS'9th'
p802
I63
sS'cal'
p803
I63
sS'following'
p804
I61
sS'making'
p805
I57
sS'dispute'
p806
I63
sS'hahaha~'
p807
I63
sS'heart'
p808
I60
sS'crazy'
p809
I60
sS'delish'
p810
I63
sS'december'
p811
I63
sS'awesome'
p812
I56
sS'sense'
p813
I63
sS"didn't"
p814
I63
sS'fuck'
p815
I60
sS'agent'
p816
I63
sS'heard'
p817
I63
sS'noite'
p818
I63
sS'clothing'
p819
I63
sS'\xe2\x99\x8c\xef\xb8\x8f\xe2\x99\x93\xef\xb8\x8f'
p820
I63
sS'winter'
p821
I63
sS'un-american'
p822
I63
sS'\xd0\xbe\xd1\x87'
p823
I63
sS'alzheimers'
p824
I63
sS'1'
p825
I59
sS'till'
p826
I62
sS'sunday'
p827
I63
sS'pure'
p828
I63
sS'beau'
p829
I63
sS'nyc'
p830
I61
sS'photography'
p831
I63
sS't-shirts'
p832
I63
sS'$100'
p833
I63
sS'mas'
p834
I63
sS'may'
p835
I63
sS'sacrifice'
p836
I63
sS'spot'
p837
I63
sS'latte'
p838
I63
sS'mac'
p839
I63
sS'birthday'
p840
I58
sS'\xd0\xbf\xd0\xbe\xd1\x87\xd0\xb5\xd0\xbc\xd1\x83'
p841
I63
sS"...drip'n"
p842
I63
sS'date'
p843
I62
sS'such'
p844
I62
sS'guys'
p845
I58
sS'man'
p846
I58
sS'natural'
p847
I63
sS'remember'
p848
I62
sS'wanna'
p849
I51
sS'st'
p850
I63
sS'\xd1\x87\xd0\xb5\xd0\xbb\xd0\xbe\xd0\xb2\xd0\xb5\xd0\xba\xd0\xb0'
p851
I63
sS'mango'
p852
I62
sS'so'
p853
I23
sS'tall'
p854
I62
sS'pulled'
p855
I63
sS'talk'
p856
I60
sS'cute'
p857
I60
sS'shoes'
p858
I61
sS'haircut'
p859
I63
sS'midnight'
p860
I62
sS'\xd1\x82\xd0\xb0\xd0\xba'
p861
I60
sS"o's"
p862
I63
sS'years'
p863
I61
sS'course'
p864
I62
sS'yearn'
p865
I63
sS'shake'
p866
I63
sS'cold'
p867
I63
sS'still'
p868
I54
sS'hollywood/western'
p869
I63
sS'police'
p870
I63
sS'thank'
p871
I50
sS"he's"
p872
I61
sS'smoothie'
p873
I62
sS'interesting'
p874
I63
sS'cheerleaders'
p875
I63
sS'hot'
p876
I63
sS'lent/jesus'
p877
I63
sS'\xd0\xb7\xd0\xb0\xd0\xbc\xd0\xb5\xd1\x82\xd0\xb8\xd0\xbb'
p878
I63
sS'decades'
p879
I63
sS'parades'
p880
I63
sS'texas'
p881
I63
sS'happened'
p882
I63
sS'\xd8\xa7\xd9\x84\xd8\xa3\xd8\xb5\xd9\x88\xd8\xa7\xd8\xaa'
p883
I63
sS'lonely'
p884
I63
sS'3'
p885
I56
sS'conversations'
p886
I63
sS'insomnia'
p887
I63
sS'nation'
p888
I62
sS'lunch'
p889
I59
sS'qualified'
p890
I63
sS'half'
p891
I63
sS'not'
p892
I36
sS'now'
p893
I33
sS'killed'
p894
I63
sS'\xd0\xbc\xd0\xbd\xd0\xbe\xd0\xb9'
p895
I62
sS'josh'
p896
I63
sS'wont'
p897
I62
sS'xtra'
p898
I63
sS'name'
p899
I62
sS'james'
p900
I63
sS'socks/underwear'
p901
I63
sS'drop'
p902
I63
sS'drive?-some'
p903
I63
sS'hashbrowns'
p904
I63
sS'haha!\xe2\x80\xa6'
p905
I63
sS'em'
p906
I62
sS'el'
p907
I63
sS'gaming'
p908
I63
sS'prelims'
p909
I63
sS'yeah'
p910
I61
sS'bizzle'
p911
I63
sS'\xd0\xba\xd0\xb0\xd1\x81\xd1\x81\xd0\xb5'
p912
I63
sS'ey'
p913
I63
sS'ex'
p914
I63
sS'year'
p915
I62
sS'eu'
p916
I63
sS'okay'
p917
I61
sS'girl'
p918
I59
sS'es'
p919
I62
sS'album'
p920
I63
sS'living'
p921
I63
sS'workaholic'
p922
I63
sS'jackson'
p923
I62
sS'\xd1\x81\xd1\x82\xd0\xb0\xd1\x80\xd0\xb1\xd0\xb0\xd0\xba\xd1\x81'
p924
I63
sS'3rd'
p925
I62
sS'kanom'
p926
I58
sS'butthole?\xe2\x80\x9d'
p927
I63
sS'looking'
p928
I57
sS'mess'
p929
I63
sS'seriously'
p930
I63
sS'formula'
p931
I63
sS'100s'
p932
I63
sS'correct'
p933
I63
sS'\xd0\xb2\xd0\xbe\xd0\xbe\xd0\xb1\xd1\x89\xd0\xb5'
p934
I62
sS'dodgers'
p935
I62
sS'brooks'
p936
I63
sS'quite'
p937
I63
sS'disrespect'
p938
I63
sS'crazier'
p939
I61
sS'grandma'
p940
I63
sS'gots'
p941
I63
sS'ord'
p942
I59
sS'card'
p943
I63
sS'care'
p944
I63
sS'oktoberfest'
p945
I63
sS'underwear'
p946
I63
sS'basco'
p947
I63
sS'groundsss'
p948
I63
sS'punk'
p949
I63
sS'british'
p950
I62
sS'honest'
p951
I61
sS'thing'
p952
I58
sS'\xd1\x82\xd0\xbe'
p953
I60
sS'place'
p954
I59
sS'\xd1\x82\xd0\xb5'
p955
I63
sS'promotion'
p956
I63
sS'yess'
p957
I63
sS'think'
p958
I57
sS'first'
p959
I60
sS'blind'
p960
I61
sS'waves'
p961
I63
sS'yourself'
p962
I60
sS'shout'
p963
I63
sS'zav'
p964
I63
sS'sounds'
p965
I60
sS'drove'
p966
I63
sS'open'
p967
I62
sS'tomorrow'
p968
I57
sS'millions'
p969
I63
sS'sheep'
p970
I63
sS'city'
p971
I62
sS'little'
p972
I60
sS'boulevard'
p973
I63
sS'caught'
p974
I63
sS'\xd0\xb2\xd1\x81\xd0\xb5\xd0\xbc'
p975
I61
sS'anyone'
p976
I58
sS'fml'
p977
I63
sS'2'
p978
I49
sS'realization'
p979
I63
sS'white'
p980
I61
sS'parando'
p981
I63
sS'friend'
p982
I61
sS'family.\xe2\x80\x9d'
p983
I63
sS'eyes'
p984
I62
sS'that'
p985
I23
sS'season'
p986
I62
sS'ridiculous'
p987
I63
sS'hard.\xe2\x80\x9d'
p988
I63
sS'thai'
p989
I16
sS'copy'
p990
I63
sS'than'
p991
I56
sS'boyfriend'
p992
I62
sS'10'
p993
I63
sS'12'
p994
I63
sS'lmao'
p995
I55
sS':oh'
p996
I63
sS'18'
p997
I63
sS'gotta'
p998
I62
sS'\xd0\xad\xd1\x82\xd0\xbe\xd1\x82'
p999
I63
sS'r'
p1000
I58
sS'were'
p1001
I59
sS'sickkkk'
p1002
I63
sS'futuro'
p1003
I63
sS'havnt'
p1004
I62
sS'and'
p1005
I5
sS'coconut'
p1006
I62
sS'san'
p1007
I62
sS'angel'
p1008
I63
sS'sal'
p1009
I63
sS'pro'
p1010
I63
sS'post-concert'
p1011
I63
sS'argument'
p1012
I63
sS'slap'
p1013
I63
sS'(and'
p1014
I63
sS'say'
p1015
I55
sS'comedian'
p1016
I63
sS'peanut'
p1017
I63
sS'breakfast'
p1018
I57
sS'saw'
p1019
I59
sS'any'
p1020
I59
sS'marathon'
p1021
I63
sS'maggs('
p1022
I63
sS'form'
p1023
I63
sS'editing'
p1024
I63
sS'take'
p1025
I52
sS'performance'
p1026
I61
sS'teitter'
p1027
I63
sS'damn('
p1028
I63
sS'channel'
p1029
I63
sS'begin'
p1030
I62
sS'sure'
p1031
I58
sS'pain'
p1032
I63
sS'trace'
p1033
I63
sS'tornado'
p1034
I63
sS'\xd1\x85\xd1\x83\xd0\xb5\xd0\xb2\xd0\xbe'
p1035
I63
sS'sherman'
p1036
I63
sS'surprise'
p1037
I63
sS'sickest'
p1038
I63
sS'pair'
p1039
I50
sS'america'
p1040
I63
sS'\xd1\x82\xd0\xb0\xd1\x87\xd0\xba\xd0\xb5'
p1041
I63
sS'\xd0\x9a\xd1\x80\xd0\xb8\xd0\xbc\xd0\xb8\xd0\xbd\xd0\xb0\xd0\xbb\xd1\x8c\xd0\xbd\xd1\x8b\xd0\xb9'
p1042
I63
sS'forever'
p1043
I63
sS'lawd'
p1044
I63
sS'\xd0\xbd\xd0\xb0\xd0\xb4\xd0\xb5\xd0\xb6\xd0\xb4\xd1\x8b'
p1045
I63
sS'later'
p1046
I63
sS'drive'
p1047
I61
sS'retrieving/operating'
p1048
I63
sS'sunset'
p1049
I63
sS'creying'
p1050
I63
sS'senior'
p1051
I63
sS'ferrara'
p1052
I63
sS'\xd0\xa2\xd0\xb0\xd0\xba'
p1053
I63
sS'shop'
p1054
I63
sS'walking'
p1055
I60
sS'shot'
p1056
I63
sS'show'
p1057
I53
sS'german'
p1058
I63
sS'bright'
p1059
I63
sS"joke's"
p1060
I63
sS'hack'
p1061
I62
sS'corner'
p1062
I52
sS'realizing'
p1063
I63
sS'aint'
p1064
I63
sS'snack'
p1065
I63
sS'true'
p1066
I63
sS'dormindo'
p1067
I63
sS'outside'
p1068
I61
sS'vid'
p1069
I63
sS'only'
p1070
I51
sS'going'
p1071
I53
sS'black'
p1072
I60
sS'incredulous'
p1073
I63
sS'\xd0\x9d\xd0\xb8\xd0\xba\xd0\xbe\xd0\xb3\xd0\xb4\xd0\xb0'
p1074
I63
sS'brotha'
p1075
I63
sS'pumpkin'
p1076
I63
sS'\xd0\xbf\xd1\x80\xd0\xbe\xd0\xb5\xd0\xb1\xd0\xb0\xd0\xbb\xd0\xb0'
p1077
I63
sS'get'
p1078
I40
sS'mission'
p1079
I63
sS'routine'
p1080
I63
sS'freezing'
p1081
I63
sS'milkshakes'
p1082
I63
sS'truly'
p1083
I62
sS'nearly'
p1084
I62
sS'cheat'
p1085
I63
sS'celebrate'
p1086
I63
sS'\xd0\xbf\xd0\xbe\xd1\x82\xd0\xbe\xd0\xbc'
p1087
I63
sS'(5253'
p1088
I63
sS'borrow'
p1089
I63
sS'morning'
p1090
I54
sS'naked'
p1091
I63
sS'dough'
p1092
I63
sS'where'
p1093
I53
sS'husband'
p1094
I63
sS"y'all"
p1095
I61
sS'!!!lol'
p1096
I63
sS"hasn't"
p1097
I63
sS'asleep'
p1098
I62
sS'corre'
p1099
I63
sS'parking'
p1100
I61
sS'(like'
p1101
I63
sS'wonder'
p1102
I63
sS'um'
p1103
I63
sS'camping'
p1104
I63
sS'honestly'
p1105
I63
sS'federal'
p1106
I63
sS'jumped'
p1107
I63
sS'enough'
p1108
I61
sS'estar'
p1109
I63
sS'today..check'
p1110
I63
sS'reading'
p1111
I63
sS'jobs'
p1112
I62
sS'august'
p1113
I63
sS'screen'
p1114
I63
sS'supermarket'
p1115
I63
sS'faults'
p1116
I63
sS'jk'
p1117
I63
sS'ahahahahaha'
p1118
I63
sS'come'
p1119
I46
sS'jb'
p1120
I63
sS'\xd0\xbc\xd0\xb5\xd0\xba\xd1\x81\xd0\xb8\xd0\xba\xd0\xb0\xd0\xbd\xd1\x81\xd0\xba\xd0\xb8\xd0\xb5'
p1121
I63
sS'talented'
p1122
I62
sS'avoid'
p1123
I63
sS'many'
p1124
I60
sS'monk'
p1125
I63
sS'pronto'
p1126
I63
sS's'
p1127
I63
sS'buddie'
p1128
I63
sS'noodles)'
p1129
I62
sS'gente'
p1130
I63
sS'comes'
p1131
I59
sS'moly'
p1132
I63
sS'color'
p1133
I63
sS'whyyyyyy'
p1134
I63
sS'por'
p1135
I63
sS'pop'
p1136
I63
sS'k\xe2\x9d\xa4\xef\xb8\x8f'
p1137
I63
sS"couldn't"
p1138
I62
sS'cancel'
p1139
I63
sS'ordered'
p1140
I63
sS'yammouni'
p1141
I63
sS'turkey'
p1142
I63
sS'cycling'
p1143
I63
sS'\xd1\x83\xd1\x8e\xd1\x82\xd0\xbd\xd0\xbe'
p1144
I63
sS'vacation'
p1145
I63
sS'mark'
p1146
I63
sS'breath'
p1147
I63
sS'careful'
p1148
I63
sS'sesh'
p1149
I62
sS'staring'
p1150
I63
sS'\xd0\xb5\xd0\xb1\xd0\xb0\xd0\xbd\xd1\x83\xd0\xbb\xd0\xb8\xd1\x81\xd1\x8c'
p1151
I63
sS'wants'
p1152
I62
sS'shopping'
p1153
I62
sS'frittatas'
p1154
I63
sS'blessing'
p1155
I63
sS'"\xe0\xb8\x97\xe0\xb8\xb2\xe0\xb9\x82\xe0\xb8\x81\xe0\xb8\xb0\xe0\xb8\xa2\xe0\xb8\xb2\xe0\xb8\x81\xe0\xb8\xb4"'
p1156
I63
sS'\xd0\xbf\xd0\xbe\xd0\xb4'
p1157
I62
sS'andrea'
p1158
I63
sS'those'
p1159
I59
sS'sound'
p1160
I63
sS'myself'
p1161
I59
sS'cutie'
p1162
I63
sS'these'
p1163
I60
sS'sauce'
p1164
I63
sS'\xd1\x8d\xd1\x82\xd0\xbe\xd0\xb3\xd0\xbe'
p1165
I63
sS'meow'
p1166
I60
sS'trick'
p1167
I63
sS'cast'
p1168
I63
sS'pacers'
p1169
I63
sS'sometime'
p1170
I63
sS'ratchet'
p1171
I63
sS'pizza'
p1172
I63
sS'scum'
p1173
I63
sS'shops'
p1174
I63
sS'invited'
p1175
I63
sS'\xd0\xbf\xd1\x80\xd0\xb0\xd0\xb2'
p1176
I63
sS'tardy'
p1177
I63
sS'ive'
p1178
I62
sS'baskin-robbins'
p1179
I62
sS'\xd0\x97\xd0\xb0\xd0\xb5\xd0\xb1\xd0\xb8\xd1\x81\xd1\x8c'
p1180
I63
sS'coffee'
p1181
I59
sS'bros'
p1182
I63
sS'blah'
p1183
I61
sS'sudden'
p1184
I62
sS'protein'
p1185
I63
sS'technology'
p1186
I63
sS'fame'
p1187
I63
sS'worry'
p1188
I62
sS'bags'
p1189
I63
sS'different'
p1190
I63
sS'doctor'
p1191
I63
sS'pay'
p1192
I61
sS'same'
p1193
I61
sS'check'
p1194
I55
sS'ya'
p1195
I49
sS'followers'
p1196
I59
sS'catfish'
p1197
I63
sS'coworkers'
p1198
I63
sS'yessir'
p1199
I63
sS'struggling'
p1200
I63
sS'pal'
p1201
I62
sS'mane'
p1202
I63
sS'week'
p1203
I54
sS'ni'
p1204
I63
sS'\xd0\xb2\xd1\x8b\xd0\xbf\xd1\x8c\xd1\x8e'
p1205
I63
sS'duckies'
p1206
I63
sS'mutha'
p1207
I63
sS'\xd0\xbb\xd1\x8e\xd0\xb1\xd0\xb8\xd1\x88\xd1\x8c'
p1208
I63
sS'running'
p1209
I62
sS'fruit'
p1210
I63
sS'uhh'
p1211
I63
sS'statue'
p1212
I63
sS'totally'
p1213
I62
sS'weave'
p1214
I63
sS'\xe2\x9c\x8c\xef\xb8\x8f'
p1215
I56
sS'no'
p1216
I31
sS'without'
p1217
I62
sS"can't"
p1218
I50
sS'summer'
p1219
I61
sS'they'
p1220
I44
sS'being'
p1221
I55
sS'money'
p1222
I62
sS'rest'
p1223
I62
sS'\xd8\xa3\xd9\x86\xd9\x87'
p1224
I63
sS'kill'
p1225
I61
sS'gated'
p1226
I63
sS'ninja'
p1227
I63
sS'touch'
p1228
I63
sS'ps3'
p1229
I62
sS'derecha'
p1230
I63
sS'death'
p1231
I61
sS'boran'
p1232
I63
sS'rose'
p1233
I63
sS'\xd0\xb1\xd1\x8b\xd1\x82\xd1\x8c'
p1234
I63
sS'twit'
p1235
I63
sS'lets'
p1236
I57
sS'9:30'
p1237
I63
sS'4'
p1238
I57
sS'tuesday'
p1239
I61
sS'ross'
p1240
I59
sS'real'
p1241
I55
sS'(9'
p1242
I63
sS'around'
p1243
I62
sS'sticky'
p1244
I63
sS'read'
p1245
I60
sS'fridge'
p1246
I63
sS'gonna'
p1247
I54
sS'early'
p1248
I62
sS'listening'
p1249
I61
sS'world'
p1250
I57
sS'accepted'
p1251
I63
sS'lady'
p1252
I63
sS'dare'
p1253
I63
sS'christina'
p1254
I63
sS'stranger'
p1255
I63
sS'foamposites'
p1256
I63
sS'roll'
p1257
I61
sS'$15.50'
p1258
I63
sS'serious'
p1259
I63
sS'either'
p1260
I59
sS'\xd0\x95\xd1\x81\xd0\xbb\xd0\xb8'
p1261
I62
sS'served'
p1262
I63
sS'reduced'
p1263
I63
sS'\xd1\x87\xd1\x82\xd0\xbe'
p1264
I60
sS'grub'
p1265
I62
sS'polo'
p1266
I63
sS'respect'
p1267
I63
sS'thinks'
p1268
I63
sS'm\xc3\xa1s'
p1269
I63
sS'caribbean'
p1270
I63
sS'mood'
p1271
I63
sS'in\xe2\x80\xa6'
p1272
I62
sS'stops'
p1273
I63
sS'ac3'
p1274
I63
sS'exit'
p1275
I63
sS'911'
p1276
I63
sS'decent'
p1277
I63
sS'hustle'
p1278
I63
sS'power'
p1279
I63
sS'"detachable'
p1280
I63
sS'thailand'
p1281
I61
sS';)'
p1282
I63
sS'earlier'
p1283
I63
sS'keepimg'
p1284
I63
sS'on'
p1285
I14
sS'ok'
p1286
I58
sS'oh'
p1287
I52
sS'of'
p1288
I13
sS'violence'
p1289
I62
sS'oc'
p1290
I62
sS'\xd8\xaa\xd9\x85\xd8\xa7\xd9\x85\xd8\xa7\xd9\x8b'
p1291
I63
sS'side'
p1292
I62
sS'gums'
p1293
I63
sS'wolf'
p1294
I63
sS'trailer'
p1295
I63
sS'act'
p1296
I62
sS'\xd0\xbf\xd0\xb5\xd1\x81\xd0\xbd\xd1\x8e'
p1297
I63
sS'chanteuse'
p1298
I63
sS'or'
p1299
I55
sS'teddy'
p1300
I63
sS'uhaul'
p1301
I63
sS'chivalry'
p1302
I63
sS'burning'
p1303
I62
sS'(but'
p1304
I63
sS'communication'
p1305
I63
sS'image'
p1306
I63
sS'54twenty)'
p1307
I63
sS'\xd1\x80\xd0\xb0\xd0\xb7'
p1308
I62
sS'snapchat'
p1309
I62
sS'*wraps'
p1310
I63
sS'rising'
p1311
I63
sS'homeless'
p1312
I61
sS'strip'
p1313
I63
sS'feeders'
p1314
I63
sS'your'
p1315
I29
sS'technically'
p1316
I63
sS"how's"
p1317
I63
sS'her'
p1318
I55
sS'area'
p1319
I63
sS'there'
p1320
I49
sS'hey'
p1321
I54
sS'lol'
p1322
I40
sS'lmfaooo'
p1323
I63
sS'start'
p1324
I58
sS'low'
p1325
I63
sS'lot'
p1326
I60
sS'\xd0\xb6\xd0\xb5'
p1327
I63
sS'fish'
p1328
I63
sS'jub'
p1329
I63
sS'spicy'
p1330
I62
sS'complete'
p1331
I63
sS'pitches'
p1332
I63
sS'\xd1\x81\xd0\xb0\xd0\xbc\xd1\x8b\xd0\xb9'
p1333
I63
sS'happier'
p1334
I63
sS'\xd0\xb8\xd1\x85'
p1335
I62
sS'trying'
p1336
I59
sS'with'
p1337
I19
sS'buying'
p1338
I63
sS'spice'
p1339
I62
sS"they're"
p1340
I63
sS'rush'
p1341
I63
sS'waste'
p1342
I61
sS"wasn't"
p1343
I62
sS'54twenty'
p1344
I55
sS'eat&shop'
p1345
I63
sS'dirty'
p1346
I63
sS'grass'
p1347
I63
sS'agree'
p1348
I63
sS'gone'
p1349
I63
sS'"un-american."'
p1350
I63
sS'gona'
p1351
I63
sS'johnny'
p1352
I62
sS'af'
p1353
I63
sS'feliz'
p1354
I62
sS'forgot'
p1355
I63
sS'moved'
p1356
I61
sS'deep'
p1357
I63
sS'an'
p1358
I52
sS'as'
p1359
I44
sS'at'
p1360
I8
sS'\xd1\x81\xd1\x82\xd0\xbe\xd1\x8f\xd0\xbb\xd0\xb0'
p1361
I63
sS'malibu'
p1362
I61
sS'film'
p1363
I61
sS'hwood/wstrn'
p1364
I63
sS'again'
p1365
I54
sS'byeeee'
p1366
I63
sS'\xd1\x81\xd0\xbe\xd1\x80\xd1\x80\xd1\x8c\xd0\xba\xd0\xb8'
p1367
I63
sS'graduate'
p1368
I63
sS'valid'
p1369
I63
sS'5'
p1370
I57
sS'you'
p1371
I6
sS'trash'
p1372
I63
sS'homeys'
p1373
I63
sS'\xd0\x94\xd0\xb0'
p1374
I63
sS'h)'
p1375
I63
sS'finale'
p1376
I63
sS'drift'
p1377
I63
sS'seriousness'
p1378
I63
sS'track'
p1379
I63
sS'peak'
p1380
I63
sS'fresh'
p1381
I61
sS'tendencies'
p1382
I63
sS'pool'
p1383
I62
sS'booked'
p1384
I63
sS'srry'
p1385
I63
sS'driving'
p1386
I61
sS'calls'
p1387
I63
sS'having'
p1388
I59
sS'wrote!?\xe2\x80\x9dummmm'
p1389
I63
sS'mass'
p1390
I62
sS'\xd0\xba\xd0\xbe\xd0\xb3\xd0\xbe'
p1391
I63
sS'alright'
p1392
I63
sS'deluxe'
p1393
I63
sS'starting'
p1394
I61
sS'all'
p1395
I34
sS'liar'
p1396
I63
sS'forget'
p1397
I62
sS'\xd0\xbf\xd1\x80\xd1\x8f\xd0\xbc'
p1398
I63
sS'splitting'
p1399
I63
sS'month'
p1400
I62
sS'coach'
p1401
I63
sS'follow'
p1402
I21
sS'carpet'
p1403
I63
sS'apartment'
p1404
I63
sS'hunting'
p1405
I63
sS'patricks'
p1406
I63
sS'lining'
p1407
I63
sS'laughing'
p1408
I63
sS'to'
p1409
I4
sS'tj'
p1410
I63
sS'smile'
p1411
I62
sS'ta'
p1412
I63
sS'yr'
p1413
I63
sS'premium'
p1414
I63
sS'worse'
p1415
I63
sS'insults'
p1416
I63
sS'song'
p1417
I60
sS'very'
p1418
I60
sS'horror'
p1419
I63
sS'fat'
p1420
I61
sS'skit'
p1421
I63
sS'\xd0\xb2\xd0\xb5\xd1\x87\xd0\xb5\xd1\x80'
p1422
I63
sS'fan'
p1423
I59
sS'offal'
p1424
I63
sS'fam'
p1425
I63
sS'fab'
p1426
I63
sS'ticket'
p1427
I63
sS'\xd0\xbf\xd0\xb8\xd0\xb7\xd0\xb4\xd0\xb5\xd1\x86'
p1428
I63
sS'cable'
p1429
I63
sS'list'
p1430
I62
sS'small'
p1431
I63
sS'->'
p1432
I63
sS'align'
p1433
I63
sS"i'll"
p1434
I58
sS'entourage'
p1435
I63
sS'rats'
p1436
I63
sS'instagram'
p1437
I61
sS'tea'
p1438
I60
sS'streets'
p1439
I63
sS'cash'
p1440
I63
sS'a-mazing'
p1441
I63
sS'daaaviiiddddd'
p1442
I63
sS'casual'
p1443
I63
sS'jesus'
p1444
I63
sS'what'
p1445
I35
sS'imported'
p1446
I63
sS'\xd0\xbc\xd0\xb5\xd1\x81\xd1\x8f\xd1\x86'
p1447
I63
sS'\xd0\xbb\xd0\xb0'
p1448
I63
sS'sun'
p1449
I61
sS'anniversary'
p1450
I63
sS'abs'
p1451
I63
sS'sus'
p1452
I63
sS'sur'
p1453
I63
sS'sup'
p1454
I59
sS'learned'
p1455
I63
sS'public'
p1456
I63
sS'feeder)'
p1457
I63
sS'\xe0\xb8\xad\xe0\xb8\xb2\xe0\xb8\xab\xe0\xb8\xb2\xe0\xb8\xa3\xe0\xb9\x84\xe0\xb8\x97\xe0\xb8\xa2\xe0\xb8\x88\xe0\xb8\x99\xe0\xb8\x84\xe0\xb8\xb4\xe0\xb8\x94\xe0\xb8\xa7\xe0\xb9\x88\xe0\xb8\xb2\xe0\xb8\xad\xe0\xb8\xa2\xe0\xb8\xb9\xe0\xb9\x88\xe0\xb9\x84\xe0\xb8\x97\xe0\xb8\xa25555555555'
p1458
I63
sS"lol'd"
p1459
I63
sS'full'
p1460
I60
sS'christian'
p1461
I62
sS"c'mon"
p1462
I61
sS'ma'
p1463
I63
sS'bldg'
p1464
I63
sS'hours'
p1465
I63
sS'ganda'
p1466
I60
sS'hour~'
p1467
I63
sS'mmm'
p1468
I63
sS'nd'
p1469
I63
sS'pics'
p1470
I62
sS'amount'
p1471
I63
sS'pick'
p1472
I61
sS'struggle'
p1473
I63
sS"day's"
p1474
I63
sS'via'
p1475
I58
sS'followed'
p1476
I63
sS'family'
p1477
I57
sS'\xd0\xbc\xd0\xbe\xd0\xb3\xd0\xbb\xd0\xb0'
p1478
I63
sS'jailbreak'
p1479
I63
sS'\xc3\xa9l'
p1480
I63
sS'put'
p1481
I62
sS'follower'
p1482
I63
sS'carmageddon'
p1483
I63
sS'actress'
p1484
I63
sS'\xd0\xbc\xd0\xbe\xd0\xb8'
p1485
I63
sS'\xd0\xbc\xd0\xbe\xd0\xb9'
p1486
I62
sS'emoji'
p1487
I63
sS'munchies'
p1488
I63
sS'\xd0\xbc\xd0\xbe\xd0\xbb\xd1\x87\xd0\xb0'
p1489
I63
sS'eye'
p1490
I62
sS'\xd0\x92\xd0\xbe\xd0\xb1\xd1\x89\xd0\xb5\xd0\xbc'
p1491
I63
sS'texting'
p1492
I62
sS'two'
p1493
I62
sS'mmmmmmmmmmm'
p1494
I63
sS'6'
p1495
I61
sS'\xd0\xa2\xd0\xbe\xd0\xbb\xd1\x8c\xd0\xba\xd0\xbe'
p1496
I63
sS'\xd0\xb7\xd0\xb0'
p1497
I62
sS'autographs'
p1498
I63
sS'achieving'
p1499
I63
sS'more'
p1500
I55
sS'tryna'
p1501
I63
sS'door'
p1502
I63
sS'knows'
p1503
I62
sS'company'
p1504
I63
sS'fredo'
p1505
I63
sS'\xd0\xb4\xd0\xb5\xd0\xbf\xd1\x80\xd0\xb5\xd1\x81\xd1\x81\xd0\xb8\xd0\xb2\xd0\xbd\xd1\x8b\xd0\xb9/\xd1\x82\xd1\x80\xd0\xb5\xd0\xb7\xd0\xb2\xd1\x8b\xd0\xb9'
p1506
I63
sS'tested'
p1507
I63
sS'flag'
p1508
I63
sS"ain't"
p1509
I60
sS'broke'
p1510
I62
sS"who'll"
p1511
I63
sS'hurry'
p1512
I62
sS'lemme'
p1513
I63
sS'karaoke'
p1514
I63
sS'glad'
p1515
I61
sS'town'
p1516
I44
sS'grill'
p1517
I51
sS'none'
p1518
I63
sS'hour'
p1519
I63
sS'middle'
p1520
I63
sS'mall'
p1521
I62
sS'\xd0\x95\xd0\xb1\xd0\xb0\xd1\x82\xd1\x8c'
p1522
I63
sS'morgan'
p1523
I63
sS'knocked'
p1524
I63
sS'history'
p1525
I63
sS'beautiful'
p1526
I60
sS'compare'
p1527
I62
sS'embarrassing'
p1528
I63
sS'fatally'
p1529
I63
sS'brown'
p1530
I63
sS'share'
p1531
I60
sS'accept'
p1532
I63
sS'seth/adam'
p1533
I63
sS'hours)'
p1534
I63
sS'\xd0\xb1\xd0\xbe\xd0\xbb\xd1\x8c\xd1\x88\xd0\xb5'
p1535
I62
sS'\xe2\x98\x95\xef\xb8\x8f'
p1536
I62
sS'purchased'
p1537
I63
sS'partner'
p1538
I63
sS'dress'
p1539
I59
sS'\xd1\x85\xd0\xbe\xd1\x87\xd0\xb5\xd1\x82\xd1\x81\xd1\x8f'
p1540
I63
sS'huge'
p1541
I58
sS'bank)'
p1542
I63
sS'awkward'
p1543
I63
sS'rather'
p1544
I62
sS'mcds'
p1545
I63
sS'hugs'
p1546
I63
sS'me....fuck'
p1547
I63
sS'creature'
p1548
I63
sS'ft'
p1549
I61
sS'plans'
p1550
I63
sS'notre'
p1551
I62
sS'advice'
p1552
I63
sS'\xd0\x98\xd1\x82\xd0\xb0\xd0\xba'
p1553
I63
sS'sneak'
p1554
I63
sS'soundtrack'
p1555
I63
sS'fb'
p1556
I61
sS'blood'
p1557
I63
sS'ff'
p1558
I63
sS'coming'
p1559
I61
sS'then.\xe2\x80\x9d'
p1560
I63
sS'plank'
p1561
I63
sS'fo'
p1562
I63
sS'a'
p1563
I4
sS'\xe0\xb8\xad\xe0\xb8\xad\xe0\xb8\x81\xe0\xb9\x80\xe0\xb8\x94\xe0\xb8\x97\xe0\xb8\x81\xe0\xb9\x88\xe0\xb8\xad\xe0\xb8\x99\xe0\xb9\x80\xe0\xb8\x82\xe0\xb9\x89\xe0\xb8\xb2\xe0\xb8\x87\xe0\xb8\xb2\xe0\xb8\x99'
p1564
I63
sS'\xd0\xbc\xd0\xbd\xd0\xbe\xd0\xb3\xd0\xbe-\xd0\xbc\xd0\xbd\xd0\xbe\xd0\xb3\xd0\xbe'
p1565
I63
sS'loud'
p1566
I63
sS'\xd1\x81\xd0\xb4\xd0\xb0\xd1\x8e\xd1\x82\xd1\x81\xd1\x8f'
p1567
I63
sS'django'
p1568
I63
sS'gloomy'
p1569
I63
sS'shade'
p1570
I63
sS'dream'
p1571
I63
sS'playing'
p1572
I62
sS'patio'
p1573
I45
sS"that's"
p1574
I61
sS'replied'
p1575
I63
sS'dmace9'
p1576
I63
sS'help'
p1577
I61
sS"don't"
p1578
I44
sS'september'
p1579
I63
sS'flowers'
p1580
I63
sS'sooo'
p1581
I63
sS'soon'
p1582
I52
sS'"turtle"'
p1583
I63
sS'isnt'
p1584
I62
sS'through'
p1585
I61
sS'pane'
p1586
I63
sS'hell'
p1587
I61
sS'cheated'
p1588
I63
sS'its'
p1589
I50
sS'24'
p1590
I63
sS'25'
p1591
I62
sS'20'
p1592
I62
sS'pray'
p1593
I60
sS'thnx'
p1594
I63
sS'28'
p1595
I63
sS'29'
p1596
I63
sS'actually'
p1597
I62
sS'late'
p1598
I54
sS'>>>'
p1599
I63
sS'shuddering'
p1600
I63
sS'pad'
p1601
I63
sS'bout'
p1602
I61
sS'soccer'
p1603
I63
sS'might'
p1604
I62
sS'urself'
p1605
I63
sS'good'
p1606
I30
sS'yo'
p1607
I52
sS'food'
p1608
I53
sS'socially'
p1609
I63
sS'wasabi'
p1610
I63
sS'ralphs'
p1611
I54
sS'\xd1\x85\xd0\xbe\xd0\xb1\xd0\xb1\xd0\xb8'
p1612
I63
sS'pegasus'
p1613
I63
sS'hahahahahaha'
p1614
I63
sS'starbucks'
p1615
I45
sS'signing'
p1616
I63
sS'\xd0\xbe\xd1\x82\xd0\xbd\xd1\x8f\xd0\xbb'
p1617
I63
sS'\xd0\xbb\xd1\x8e\xd0\xb1\xd0\xbe\xd0\xb2\xd1\x8c'
p1618
I63
sS'aka'
p1619
I61
sS'50f\xe2\x80\xa6'
p1620
I63
sS'grubbin'
p1621
I63
sS'hook'
p1622
I63
sS'always'
p1623
I51
sS'\xd1\x80\xd0\xb0\xd0\xb7\xd0\xbe\xd1\x87\xd0\xb0\xd1\x80\xd0\xbe\xd0\xb2\xd0\xb0\xd0\xbb\xd0\xb8'
p1624
I63
sS'\xd1\x81\xd0\xb0\xd0\xbc\xd0\xbe\xd0\xb5'
p1625
I63
sS'bless'
p1626
I54
sS'someone'
p1627
I49
sS'piping'
p1628
I63
sS'sato'
p1629
I63
sS'found'
p1630
I63
sS"isn't"
p1631
I62
sS'defs'
p1632
I63
sS'everyone'
p1633
I53
sS'weeknd'
p1634
I63
sS'another'
p1635
I60
sS'house'
p1636
I62
sS'energy'
p1637
I63
sS'hard'
p1638
I59
sS'idea'
p1639
I61
sS'dia'
p1640
I63
sS'\xd0\xbf\xd0\xb5\xd1\x80\xd0\xb5\xd0\xb4\xd0\xbe'
p1641
I63
sS'\xd0\xbf\xd1\x80\xd0\xbe\xd1\x81\xd1\x82\xd0\xbe'
p1642
I62
sS'beyond'
p1643
I63
sS'really'
p1644
I52
sS'magnet'
p1645
I63
sS'plzzzz'
p1646
I63
sS'flower'
p1647
I63
sS'\xd0\xb2\xd1\x81\xd0\xb5'
p1648
I63
sS'scoops'
p1649
I63
sS'childish'
p1650
I63
sS'since'
p1651
I60
sS'acting'
p1652
I63
sS'health'
p1653
I62
sS'7'
p1654
I62
sS'lolz'
p1655
I63
sS'issue'
p1656
I63
sS'fled'
p1657
I63
sS'ass'
p1658
I62
sS'pathetic'
p1659
I63
sS'friday'
p1660
I59
sS'story'
p1661
I63
sS"uc's"
p1662
I63
sS'effect'
p1663
I63
sS'tractors'
p1664
I63
sS'forcefully'
p1665
I63
sS'imagine'
p1666
I63
sS'ask'
p1667
I60
sS'beginning'
p1668
I63
sS'sidewalk'
p1669
I63
sS'thrown'
p1670
I63
sS'deer'
p1671
I63
sS'\xd1\x81\xd0\xbe\xd0\xb1\xd0\xbe\xd0\xb9'
p1672
I63
sS'lol)'
p1673
I63
sS'terrible'
p1674
I62
sS'\xd0\xb1\xd0\xb5\xd1\x81\xd0\xbf\xd0\xbb\xd0\xb0\xd1\x82\xd0\xbd\xd1\x8b\xd0\xb5'
p1675
I63
sS'terribly'
p1676
I63
sS'american'
p1677
I62
sS'w'
p1678
I60
sS'scouts'
p1679
I63
sS"it'll"
p1680
I63
sS'fallen'
p1681
I63
sS'major'
p1682
I63
sS'superbowl'
p1683
I63
sS'dont'
p1684
I53
sS'feel'
p1685
I58
sS'bhan'
p1686
I58
sS'hucherson'
p1687
I63
sS'valentine'
p1688
I62
sS'dust'
p1689
I63
sS'done'
p1690
I62
sS'colombia'
p1691
I63
sS'miss'
p1692
I54
sS'guay'
p1693
I63
sS'guess'
p1694
I60
sS'script'
p1695
I63
sS'5th'
p1696
I63
sS'noms'
p1697
I63
sS'wonderful'
p1698
I63
sS'statement'
p1699
I63
sS'dealing'
p1700
I63
sS'thankful!!!\xe2\x9d\xa4\xef\xb8\x8f\xe2\x80\x9d'
p1701
I63
sS'headache'
p1702
I62
sS'relationship'
p1703
I63
sS'behind'
p1704
I62
sS'you\xe2\x80\x9d'
p1705
I62
sS'\xd0\xb1\xd0\xbe\xd0\xbc\xd0\xb6\xd0\xb8'
p1706
I63
sS'park'
p1707
I63
sS'mmmm'
p1708
I62
sS'dentist'
p1709
I63
sS'part'
p1710
I56
sS'jordan'
p1711
I63
sS'albums'
p1712
I63
sS'believe'
p1713
I60
sS'swingers'
p1714
I63
sS'serene'
p1715
I63
sS'ste'
p1716
I62
sS'kind'
p1717
I62
sS'b'
p1718
I62
sS'double'
p1719
I63
sS"bizkit's"
p1720
I63
sS'\xd0\xbc\xd0\xbe\xd1\x8f'
p1721
I63
sS'ousted'
p1722
I58
sS'dana'
p1723
I61
sS'outta'
p1724
I62
sS'huh"'
p1725
I63
sS'7k'
p1726
I62
sS'lmaooooo'
p1727
I63
sS'fridge)'
p1728
I63
sS'juice'
p1729
I59
sS'garfield'
p1730
I63
sS'douchebags'
p1731
I63
sS'lie'
p1732
I61
sS'nights'
p1733
I62
sS'para'
p1734
I63
sS'dancing'
p1735
I63
sS'self'
p1736
I62
sS'reliance'
p1737
I63
sS'also'
p1738
I62
sS'tool'
p1739
I63
sS'eff'
p1740
I63
sS'play'
p1741
I62
sS'needle'
p1742
I63
sS'\xd1\x82\xd0\xb5\xd0\xbf\xd0\xb5\xd1\x80\xd1\x8c'
p1743
I63
sS'eggs'
p1744
I62
sS'much.\xe2\x80\x9d'
p1745
I63
sS'promenade'
p1746
I62
sS'most'
p1747
I61
sS'\xe0\xb8\x97\xe0\xb8\xb0\xe0\xb9\x80\xe0\xb8\xa5\xe0\xb9\x8a'
p1748
I63
sS'70'
p1749
I63
sS'nothing'
p1750
I59
sS'ka'
p1751
I57
sS'v\xc3\xa1rios'
p1752
I63
sS'5-0'
p1753
I63
sS'kk'
p1754
I63
sS'clear'
p1755
I63
sS'sometimes'
p1756
I60
sS'\xd1\x87\xd1\x82\xd0\xbe-\xd1\x82\xd0\xbe'
p1757
I63
sS'them.\xe2\x80\x9d'
p1758
I63
sS'\xe2\x9c\x8c\xef\xb8\x8f\xe2\x9c\x8c\xef\xb8\x8f'
p1759
I63
sS'\xd0\xbd\xd0\xb0\xd0\xb5\xd0\xb4\xd0\xb8\xd0\xbd\xd0\xb5.\xe2\x9c\x8b'
p1760
I63
sS'(5454'
p1761
I63
sS'stones'
p1762
I63
sS'ugh'
p1763
I62
sS'okcupid'
p1764
I63
sS'wasted'
p1765
I63
sS'stfu'
p1766
I62
sS'bro\xe2\x9d\xa4\xef\xb8\x8f'
p1767
I63
sS'\xd0\x92\xd0\xbe\xd0\xba\xd1\x80\xd1\x83\xd0\xb3'
p1768
I63
sS"(can't"
p1769
I63
sS'fine'
p1770
I63
sS'find'
p1771
I59
sS'"we\'re'
p1772
I63
sS'flattery'
p1773
I63
sS'restaurant)'
p1774
I62
sS'justice'
p1775
I63
sS'exquisiteconnoisseur'
p1776
I63
sS"reese's"
p1777
I63
sS'pretty'
p1778
I59
sS'factor'
p1779
I63
sS'8'
p1780
I62
sS'porque'
p1781
I63
sS'his'
p1782
I52
sS'hit'
p1783
I63
sS'beyonc\xc3\xa9'
p1784
I62
sS'king'
p1785
I63
sS'banned'
p1786
I63
sS'famous'
p1787
I63
sS'feels'
p1788
I59
sS'grew'
p1789
I63
sS'218'
p1790
I63
sS'\xd0\xb2\xd1\x81\xd0\xb5-\xd1\x82\xd0\xb0\xd0\xba\xd0\xb8'
p1791
I63
sS'him'
p1792
I61
sS'ummmm'
p1793
I63
sS'dante'
p1794
I63
sS'(\xe0\xb9\x81\xe0\xb8\x81\xe0\xb9\x8a\xe0\xb8\x87\xe0\xb8\x84\xe0\xb9\x8c\xe0\xb8\xab\xe0\xb8\xa1\xe0\xb8\xb9\xe0\xb8\x81\xe0\xb8\xa3\xe0\xb8\xad\xe0\xb8\x9a))'
p1795
I59
sS"dog'"
p1796
I63
sS'x'
p1797
I63
sS'creates'
p1798
I63
sS'wrote'
p1799
I63
sS'fledged'
p1800
I63
sS'set'
p1801
I61
sS'art'
p1802
I63
sS'motivates'
p1803
I63
sS'throwing'
p1804
I63
sS":'("
p1805
I63
sS'sipn'
p1806
I63
sS'culture'
p1807
I63
sS'see'
p1808
I42
sS'dume'
p1809
I62
sS'are'
p1810
I28
sS'close'
p1811
I63
sS'sh*t'
p1812
I63
sS'arm'
p1813
I62
sS'sahyounie'
p1814
I63
sS'wkend'
p1815
I63
sS'movie'
p1816
I55
sS'positivity'
p1817
I63
sS'currently'
p1818
I63
sS'please'
p1819
I51
sS'fans'
p1820
I63
sS'won'
p1821
I63
sS'soulmate'
p1822
I63
sS'\xd0\x97\xd0\xb0\xd0\xba\xd0\xb0\xd0\xb7\xd1\x8b\xd0\xb2\xd0\xb0\xd1\x8e'
p1823
I63
sS'wa-ant'
p1824
I63
sS'knowing'
p1825
I63
sS'missing'
p1826
I63
sS'sold'
p1827
I63
sS'outfit'
p1828
I63
sS'both'
p1829
I61
sS'c'
p1830
I59
sS'last'
p1831
I58
sS'restaurant'
p1832
I46
sS'thot'
p1833
I63
sS"wouldn't"
p1834
I63
sS'became'
p1835
I62
sS'go\xe2\x9c\x8c\xef\xb8\x8f'
p1836
I63
sS'sext'
p1837
I61
sS'whole'
p1838
I63
sS'town)'
p1839
I63
sS'point'
p1840
I61
sS'simple'
p1841
I63
sS'sweet'
p1842
I62
sS'dudes'
p1843
I62
sS'rofl'
p1844
I63
sS'pamphlet'
p1845
I63
sS'unsuccessful'
p1846
I62
sS'swimmingly-i'
p1847
I63
sS'bench'
p1848
I63
sS'crispy'
p1849
I51
sS'expensive'
p1850
I63
sS'belt'
p1851
I63
sS"ralph's"
p1852
I62
sS'naps'
p1853
I63
sS'raise'
p1854
I63
sS'\xd0\xbc\xd0\xbd\xd0\xb5'
p1855
I61
sS'\xe2\x98\x95'
p1856
I63
sS'due'
p1857
I59
sS'whos'
p1858
I58
sS'pa'
p1859
I60
sS'damn'
p1860
I62
sS'stuntin'
p1861
I63
sS'stomping'
p1862
I63
sS'pi'
p1863
I63
sS'meeting'
p1864
I62
sS'dame'
p1865
I62
sS'fights'
p1866
I63
sS'squirrel'
p1867
I63
sS'gay'
p1868
I62
sS'sending'
p1869
I62
sS'fire'
p1870
I62
sS"what's"
p1871
I61
sS'else'
p1872
I59
sS'lives'
p1873
I63
sS'gai'
p1874
I63
sS'demolishing'
p1875
I63
sS'plants'
p1876
I63
sS'look'
p1877
I59
sS'straight'
p1878
I62
sS'mumbling'
p1879
I63
sS'\xe2\xad\x90\xef\xb8\x8f'
p1880
I63
sS'while'
p1881
I61
sS'smart'
p1882
I63
sS'fun'
p1883
I61
sS'fuk'
p1884
I62
sS'pack'
p1885
I63
sS'hoping'
p1886
I63
sS'waist*'
p1887
I63
sS'rip'
p1888
I63
sS'stations'
p1889
I63
sS'vou'
p1890
I62
sS'neurons'
p1891
I63
sS'\xd0\xb8\xd0\xbb\xd0\xb8'
p1892
I63
sS'triple'
p1893
I62
sS'karreno'
p1894
I60
sS'hollywest'
p1895
I62
sS'chase'
p1896
I55
sS'cuisine'
p1897
I63
sS'hahahahha'
p1898
I63
sS'kills'
p1899
I63
sS'mint'
p1900
I62
sS'kirby'
p1901
I63
sS'hedwig'
p1902
I63
sS'\xd1\x8d\xd1\x82\xd0\xbe'
p1903
I61
sS'grand'
p1904
I62
sS'9'
p1905
I63
sS'franklin'
p1906
I63
sS'used'
p1907
I63
sS'co-star'
p1908
I63
sS'dime'
p1909
I62
sS'yesterday'
p1910
I63
sS'alert'
p1911
I63
sS'raccoon'
p1912
I63
sS'moving'
p1913
I63
sS'\xd0\xb3\xd0\xb4\xd0\xb5-\xd1\x82\xd0\xbe'
p1914
I63
sS'infused'
p1915
I63
sS'patio)'
p1916
I62
sS'hows'
p1917
I63
sS'thai-ed'
p1918
I63
sS'makes'
p1919
I63
sS'spent'
p1920
I63
sS'grind'
p1921
I63
sS'cheer'
p1922
I63
sS'\xd1\x82\xd0\xbe\xd0\xb1\xd0\xbe\xd0\xb9'
p1923
I63
sS'y'
p1924
I63
sS'ohh'
p1925
I63
sS'\xd0\xb4\xd0\xb0\xd0\xb6\xd0\xb5'
p1926
I63
sS'dark'
p1927
I63
sS'mom'
p1928
I60
sS'loooud'
p1929
I63
sS'4th'
p1930
I63
sS'suffolk'
p1931
I63
sS'db'
p1932
I60
sS'letting'
p1933
I63
sS'cut'
p1934
I61
sS'tablet'
p1935
I63
sS'cup'
p1936
I63
sS'surprises'
p1937
I63
sS'education'
p1938
I63
sS'cuz'
p1939
I63
sS'exclusively'
p1940
I63
sS'parents'
p1941
I63
sS'crying'
p1942
I63
sS'snap'
p1943
I61
sS'easter'
p1944
I63
sS'colliding!...and'
p1945
I63
sS'hates'
p1946
I63
sS'march'
p1947
I62
sS'lasses'
p1948
I63
sS'big'
p1949
I62
sS'couple'
p1950
I62
sS'dominions'
p1951
I63
sS'matters'
p1952
I63
sS'game'
p1953
I60
sS'private'
p1954
I63
sS'biv'
p1955
I63
sS'tire'
p1956
I63
sS'andddddd'
p1957
I63
sS'follows'
p1958
I62
sS'kickin'
p1959
I63
sS'budging'
p1960
I63
sS'\xd1\x82\xd0\xb0\xd0\xba\xd0\xbe\xd0\xbc'
p1961
I63
sS'donna'
p1962
I63
sS'popular'
p1963
I63
sS'google'
p1964
I63
sS'verge'
p1965
I63
sS'fucking'
p1966
I63
sS'goddamn'
p1967
I63
sS'some'
p1968
I40
sS'back'
p1969
I39
sS'ah'
p1970
I63
sS'sight'
p1971
I63
sS'greener'
p1972
I63
sS'reruns'
p1973
I63
sS'contacts'
p1974
I63
sS'pet'
p1975
I63
sS'('
p1976
I63
sS'vendiendo'
p1977
I63
sS't'
p1978
I63
sS'be'
p1979
I20
sS'run'
p1980
I62
sS'wilson..on'
p1981
I63
sS'continuing'
p1982
I63
sS'beverly'
p1983
I63
sS'step'
p1984
I62
sS'stew'
p1985
I63
sS'everyday'
p1986
I63
sS'crap'
p1987
I63
sS'by'
p1988
I48
sS'nueva'
p1989
I63
sS'shine'
p1990
I63
sS'anything'
p1991
I61
sS'netflix'
p1992
I62
sS'yeahhhhhh'
p1993
I63
sS'plaza'
p1994
I60
sS'idk'
p1995
I63
sS'germany'
p1996
I62
sS'kombucha'
p1997
I63
sS'\xd1\x82\xd0\xb0\xd0\xba\xd1\x83\xd1\x8e'
p1998
I63
sS'\xd0\xb6\xd0\xb8\xd0\xb7\xd0\xbd\xd0\xb8'
p1999
I63
sS'72'
p2000
I63
sS'ppl'
p2001
I56
sS'seeing'
p2002
I60
sS'visit'
p2003
I63
sS'into'
p2004
I58
sS'within'
p2005
I63
sS'nigga'
p2006
I63
sS'ayyy'
p2007
I63
sS'lebron'
p2008
I63
sS'smells'
p2009
I63
sS'figurative'
p2010
I63
sS'\xd0\xb2\xd1\x8b\xd1\x8f\xd1\x81\xd0\xbd\xd1\x8f\xd0\xb9\xd1\x82\xd0\xb5'
p2011
I63
sS'\xd0\xb0\xd1\x85\xd0\xb0\xd1\x85'
p2012
I63
sS'kyank'
p2013
I63
sS'stylin'
p2014
I63
sS'ca)'
p2015
I23
sS'long'
p2016
I60
sS'\xe0\xb8\x9a\xe0\xb9\x89\xe0\xb8\xb2\xe0\xb8\x99\xe0\xb8\x99\xe0\xb9\x89\xe0\xb8\xad\xe0\xb8\x87\xe0\xb8\xa1\xe0\xb8\xb9\xe0\xb8\xa1\xe0\xb8\xb9\xe0\xb9\x88\xe0\xb8\x81\xe0\xb8\xb0\xe0\xb8\xa1\xe0\xb8\xb4\xe0\xb8\xa7\xe0\xb8\xa1\xe0\xb8\xb4\xe0\xb8\xa7'
p2017
I63
sS"we're"
p2018
I61
sS'forward'
p2019
I61
sS'bored'
p2020
I62
sS'\xd0\xbf\xd0\xb5\xd1\x80\xd0\xb2\xd1\x8b\xd0\xbc\xd0\xb8'
p2021
I63
sS'mountains'
p2022
I63
sS'lonchiando'
p2023
I63
sS'\xe2\x9c\x96\xef\xb8\x8f'
p2024
I63
sS'boys'
p2025
I60
sS'yesssss'
p2026
I63
sS'link'
p2027
I62
sS'\xe2\x99\xab'
p2028
I63
sS'newer'
p2029
I63
sS'line'
p2030
I60
sS'posted'
p2031
I51
sS'\xd0\xb7\xd0\xb0\xd0\xbf\xd0\xbe\xd0\xbc\xd0\xb8\xd0\xbd\xd0\xb0\xd1\x8e'
p2032
I63
sS'...&'
p2033
I63
sS'biggie'
p2034
I63
sS'up'
p2035
I24
sS'us'
p2036
I58
sS'ur'
p2037
I52
sS'planet'
p2038
I63
sS"tomorrow's"
p2039
I63
sS'un'
p2040
I63
sS'fried'
p2041
I63
sS'called'
p2042
I63
sS'bell'
p2043
I63
sS'freak'
p2044
I62
sS'defined'
p2045
I63
sS'chai'
p2046
I63
sS'metrololo'
p2047
I63
sS'e-mails'
p2048
I63
sS'chat'
p2049
I63
sS'\xd0\xb1\xd1\x8b\xd0\xbb\xd0\xbe'
p2050
I63
sS'hail'
p2051
I63
sS'rainy'
p2052
I63
sS'codes'
p2053
I63
sS'nah'
p2054
I63
sS'backs'
p2055
I63
sS'\xd8\xb5\xd9\x88\xd8\xaa'
p2056
I63
sS'pedicures'
p2057
I63
sS'swirl'
p2058
I63
sS'\xd0\xb2\xd0\xb5\xd1\x80\xd0\xb8\xd1\x82\xd1\x8c'
p2059
I63
sS'wishing'
p2060
I63
sS'nice'
p2061
I59
sS'\xd8\xa8\xd8\xa7\xd9\x84\xd8\xb1\xd8\xba\xd9\x85'
p2062
I63
sS'draw'
p2063
I63
sS'papi'
p2064
I63
sS'favourite'
p2065
I63
sS'means...rriiiggggghhhhht'
p2066
I63
sS'$10000'
p2067
I63
sS'problems'
p2068
I63
sS'posters'
p2069
I63
sS'ago'
p2070
I63
sS'remix'
p2071
I62
sS'e'
p2072
I61
sS'cooker'
p2073
I63
sS'southie'
p2074
I58
sS'walked'
p2075
I62
sS'hella'
p2076
I63
sS'predictable'
p2077
I63
sS"she's"
p2078
I62
sS'hello'
p2079
I61
sS'once'
p2080
I61
sS'it!\xd0\x98'
p2081
I63
sS'\xe0\xb8\x9a\xe0\xb9\x89\xe0\xb8\xb2\xe0\xb8\x99\xe0\xb8\x82\xe0\xb8\x99\xe0\xb8\xa1\xe0\xb9\x84\xe0\xb8\x97\xe0\xb8\xa2'
p2082
I59
sS'isbthe'
p2083
I63
sS'gang'
p2084
I49
sS'go'
p2085
I39
sS'chillin'
p2086
I63
sS'issues'
p2087
I63
sS'\xd0\x94\xd0\xb0\xd0\xb2\xd0\xb0\xd1\x82\xd1\x8c'
p2088
I63
sS'\xd0\xa1\xd0\xbe\xd0\xb2\xd1\x81\xd0\xb5\xd0\xbc'
p2089
I63
sS'itll'
p2090
I63
sS'young'
p2091
I63
sS'send'
p2092
I61
sS'nose'
p2093
I63
sS'\xd0\xb4\xd0\xb5\xd0\xbd\xd1\x8c'
p2094
I63
sS'retweets'
p2095
I63
sS'\xd0\xb2\xd0\xbe\xd0\xb4\xd0\xb8\xd1\x82\xd1\x8c'
p2096
I63
sS'suite'
p2097
I62
sS'1992\xe2\x80\x94over'
p2098
I63
sS'sent'
p2099
I62
sS"show's"
p2100
I63
sS'\xd1\x8f\xd0\xb2\xd0\xbd\xd0\xbe'
p2101
I63
sS'craaaaazy'
p2102
I63
sS'parentals'
p2103
I63
sS'\xd1\x85\xd1\x83\xd0\xb9\xd0\xbd\xd1\x8f'
p2104
I63
sS'michael'
p2105
I63
sS'eve'
p2106
I62
sS'ryan'
p2107
I63
sS'try'
p2108
I60
sS"week's"
p2109
I63
sS'congrats'
p2110
I62
sS'ball-gag'
p2111
I63
sS'\xd0\xa2\xd0\xb5\xd0\xbf\xd0\xb5\xd1\x80\xd1\x8c'
p2112
I63
sS'fold'
p2113
I63
sS'blowing'
p2114
I63
sS'video'
p2115
I61
sS'yayyy'
p2116
I63
sS'\xd0\xb3\xd0\xbe\xd1\x80\xd0\xbe\xd0\xb4'
p2117
I63
sS'sausage'
p2118
I63
sS'cupcakes'
p2119
I63
sS'essss'
p2120
I63
sS'waiting'
p2121
I59
sS'away\xe2\x9d\xa4\xef\xb8\x8f'
p2122
I63
sS'bird'
p2123
I63
sS'lee'
p2124
I63
sS'\xd0\xbe\xd0\xbf\xd0\xb0\xd0\xb7\xd0\xb4\xd1\x8b\xd0\xb2\xd0\xb0\xd1\x8e'
p2125
I63
sS'let'
p2126
I58
sS'healing'
p2127
I63
sS'others'
p2128
I57
sS'hobart'
p2129
I62
sS'sexy'
p2130
I63
sS'\xd0\xbe\xd1\x87\xd0\xb5\xd1\x80\xd0\xb5\xd0\xb4\xd0\xb8'
p2131
I63
sS'great'
p2132
I48
sS'metro'
p2133
I63
sS'receive'
p2134
I63
sS'didnt'
p2135
I63
sS'casino'
p2136
I63
sS'leaving'
p2137
I61
sS'3)'
p2138
I63
sS'ralphs)'
p2139
I62
sS'\xd0\xbf\xd1\x80\xd0\xbe\xd0\xb1\xd0\xbb\xd0\xb5\xd0\xbc'
p2140
I63
sS'salvation'
p2141
I63
sS'thats'
p2142
I62
sS'\xd0\x90\xd0\xbc\xd0\xb5\xd1\x80\xd0\xb8\xd0\xba\xd1\x83'
p2143
I63
sS'apple'
p2144
I63
sS'miscreant'
p2145
I63
sS'win'
p2146
I62
sS'limp'
p2147
I63
sS'apt'
p2148
I62
sS'wit'
p2149
I62
sS'dumbest'
p2150
I63
sS'singing'
p2151
I63
sS'egg'
p2152
I63
sS'cha'
p2153
I63
sS'use'
p2154
I61
sS'from'
p2155
I44
sS'usa'
p2156
I62
sS'&'
p2157
I26
sS'doodle'
p2158
I63
sS'jer!\xe2\x80\x9dthanks'
p2159
I63
sS'flat'
p2160
I63
sS'next'
p2161
I57
sS'pleaseeee'
p2162
I63
sS'few'
p2163
I62
sS'doubt'
p2164
I63
sS'themselves'
p2165
I63
sS'chip'
p2166
I63
sS'possession'
p2167
I63
sS'started'
p2168
I63
sS'sister'
p2169
I63
sS'babo'
p2170
I63
sS'confused'
p2171
I63
sS'symbolizing'
p2172
I63
sS'train'
p2173
I63
sS'ashamed'
p2174
I63
sS'baby'
p2175
I61
sS'rare'
p2176
I63
sS'broth'
p2177
I63
sS'women'
p2178
I61
sS'animals'
p2179
I63
sS'f'
p2180
I63
sS'this'
p2181
I15
sS'challenge'
p2182
I63
sS'kazoku'
p2183
I61
sS'wii'
p2184
I63
sS'praise'
p2185
I63
sS'meet'
p2186
I63
sS'lollollol'
p2187
I63
sS'drops'
p2188
I63
sS'tampoco'
p2189
I63
sS"be's"
p2190
I62
sS'control'
p2191
I63
sS'hip'
p2192
I63
sS'perfecting'
p2193
I63
sS'tap'
p2194
I63
sS'plate'
p2195
I63
sS'favorite'
p2196
I59
sS'high'
p2197
I61
sS'something'
p2198
I60
sS'blvd'
p2199
I47
sS'onions'
p2200
I63
sS'\xd0\xbe\xd1\x82\xd0\xbd\xd0\xbe\xd1\x88\xd0\xb5\xd0\xbd\xd0\xb8\xd1\x8f'
p2201
I63
sS'\xd0\xb4\xd0\xb5\xd0\xbb\xd0\xb8\xd1\x82\xd1\x8c'
p2202
I63
sS'sit'
p2203
I63
sS'turnstiles'
p2204
I63
sS'brian'
p2205
I63
sS'blessings'
p2206
I63
sS'bigeyedweirdo'
p2207
I63
sS'instead'
p2208
I62
sS'toddler'
p2209
I63
sS'sim'
p2210
I63
sS'fare'
p2211
I63
sS'\xd0\xbe\xd1\x82\xd1\x82\xd1\x83\xd0\xb4\xd0\xb0'
p2212
I63
sS'\xd0\xb1\xd1\x8b\xd0\xbb'
p2213
I63
sS'locked'
p2214
I63
sS'kyanqssss'
p2215
I63
sS'thunderstorm'
p2216
I63
sS'men'
p2217
I63
sS'taco'
p2218
I63
sS'hahahaha'
p2219
I63
sS'\xd0\xbf\xd0\xbb\xd0\xbe\xd1\x85\xd0\xbe'
p2220
I63
sS'da'
p2221
I63
sS'nukka'
p2222
I63
sS'cuddling'
p2223
I62
sS'\xd0\xb5\xd0\xb1\xd0\xb0\xd0\xbd\xd1\x83\xd1\x82\xd0\xb0\xd1\x8f'
p2224
I63
sS'poached'
p2225
I63
sS'light'
p2226
I63
sS'\xd1\x87\xd0\xb5\xd1\x80\xd0\xbd\xd1\x8b\xd0\xb5'
p2227
I63
sS'lines'
p2228
I63
sS'serrano'
p2229
I63
sS'laurie'
p2230
I63
sS'addiction'
p2231
I63
sS'\xd1\x81\xd1\x82\xd1\x80\xd0\xb5\xd0\xbc\xd0\xbd\xd0\xbe-\xd1\x81\xd0\xbf\xd0\xbe\xd0\xba\xd1\x83\xd1\x85\xd0\xb0'
p2232
I63
sS'ambition'
p2233
I63
sS'move'
p2234
I61
sS'ladies'
p2235
I63
sS'mojito'
p2236
I63
sS'including'
p2237
I63
sS'looks'
p2238
I61
sS'\xd0\xad\xd1\x82\xd0\xbe'
p2239
I62
sS'perfect'
p2240
I56
sS'lounge'
p2241
I63
sS'le'
p2242
I63
sS'la'
p2243
I33
sS'winning'
p2244
I62
sS'jaygiannone'
p2245
I62
sS'willing'
p2246
I63
sS'degrees'
p2247
I63
sS'(\xe0\xb9\x81\xe0\xb8\x81\xe0\xb9\x8a\xe0\xb8\x87\xe0\xb8\x84\xe0\xb9\x8c\xe0\xb8\xab\xe0\xb8\xa1\xe0\xb8\xb9\xe0\xb8\x81\xe0\xb8\xa3\xe0\xb8\xad\xe0\xb8\x9a)'
p2248
I59
sS'2014'
p2249
I62
sS'holiday'
p2250
I63
sS'crowds'
p2251
I63
sS'dad'
p2252
I57
sS'violating'
p2253
I63
sS'wells'
p2254
I63
sS'blessed'
p2255
I60
sS'dat'
p2256
I62
sS'sweets'
p2257
I63
sS'cutting'
p2258
I63
sS'ruen'
p2259
I51
sS'kiss'
p2260
I63
sS'silom'
p2261
I63
sS'day'
p2262
I45
sS'worlds'
p2263
I62
sS'comedy'
p2264
I63
sS'jazzeve'
p2265
I63
sS'delightful'
p2266
I63
sS'lingerie'
p2267
I63
sS'truth'
p2268
I60
sS'crossing'
p2269
I63
sS'|'
p2270
I63
sS'unwind'
p2271
I63
sS'doing'
p2272
I59
sS'dreaming'
p2273
I63
sS'bluetooth'
p2274
I63
sS'mgd'
p2275
I63
sS'sands'
p2276
I62
sS'tranny'
p2277
I63
sS'exceeded'
p2278
I63
sS'our'
p2279
I55
sS'\xd0\x9f\xd0\xbe\xd0\xb3\xd0\xbe\xd0\xb4\xd0\xba\xd0\xb0'
p2280
I63
sS'special'
p2281
I62
sS'out'
p2282
I29
sS"music's"
p2283
I63
sS'bad'
p2284
I59
sS'mate'
p2285
I63
sS'hilarious'
p2286
I63
sS'lecture'
p2287
I63
sS'\xd8\xb5\xd8\xa7\xd9\x85\xd8\xaa'
p2288
I63
sS'garcetti'
p2289
I63
sS'cause'
p2290
I57
sS'red'
p2291
I49
sS'shut'
p2292
I62
sS'activity'
p2293
I63
sS'jeff'
p2294
I63
sS'yisssss'
p2295
I63
sS'que'
p2296
I62
sS'york'
p2297
I62
sS'princess'
p2298
I62
sS'drowning'
p2299
I63
sS'backwards'
p2300
I63
sS'\xd1\x81\xd1\x82\xd0\xbe\xd1\x8f\xd1\x82'
p2301
I63
sS'\xd0\xbc\xd0\xb5\xd0\xbd\xd1\x8f'
p2302
I62
sS'ruins'
p2303
I63
sS'could'
p2304
I61
sS'times'
p2305
I59
sS'\xd0\xb5\xd0\xb4\xd1\x8b'
p2306
I63
sS'shutout'
p2307
I63
sS'cunts'
p2308
I63
sS'chills'
p2309
I63
sS'south'
p2310
I63
sS'\xd0\xb5\xd1\x89\xd0\xb5'
p2311
I63
sS'yells'
p2312
I63
sS'shelly'
p2313
I63
sS'cardiac'
p2314
I62
sS'"uh'
p2315
I63
sS'bitch'
p2316
I57
sS'-/-'
p2317
I63
sS'mah'
p2318
I63
sS'kidding'
p2319
I62
sS'jasminekwok'
p2320
I63
sS"doesn't"
p2321
I61
sS'los'
p2322
I44
sS'festival'
p2323
I63
sS'accent'
p2324
I63
sS'their'
p2325
I59
sS'vagina'
p2326
I63
sS'opossum'
p2327
I63
sS'\xd0\xb4\xd1\x80\xd1\x83\xd0\xb7\xd1\x8c\xd1\x8f'
p2328
I63
sS'applegate'
p2329
I63
sS'repping'
p2330
I63
sS'gear'
p2331
I62
sS'shorts'
p2332
I63
sS'\xd0\xbd\xd0\xbe\xd1\x87\xd1\x8c'
p2333
I63
sS'doomed'
p2334
I63
sS'nobody'
p2335
I62
sS'\xd0\xb2\xd0\xb0\xd1\x81'
p2336
I63
sS'july'
p2337
I63
sS'botox'
p2338
I63
sS'wishlist'
p2339
I63
sS'neck'
p2340
I63
sS'ipad'
p2341
I63
sS'ben'
p2342
I62
sS'slack'
p2343
I63
sS'boring'
p2344
I62
sS'\xd0\xbf\xd1\x80\xd0\xb5\xd0\xb4\xd0\xb0\xd1\x8e\xd1\x82'
p2345
I63
sS'\xd0\xa1\xd0\xb5\xd0\xb3\xd0\xbe\xd0\xb4\xd0\xbd\xd1\x8f'
p2346
I63
sS'bed'
p2347
I61
sS'\xc2\xa3\xc2\xa3\xc2\xa3'
p2348
I63
sS'bey'
p2349
I63
sS'candles'
p2350
I63
sS'drunk'
p2351
I63
sS'comfortable'
p2352
I63
sS'tonight'
p2353
I52
sS'\xe0\xb8\x99\xe0\xb8\xb4\xe0\xb8\x94\xe0\xb8\x99\xe0\xb8\xb6\xe0\xb8\x87\xe0\xb8\x81\xe0\xb9\x89\xe0\xb9\x80\xe0\xb8\xad\xe0\xb8\xb2'
p2354
I63
sS'have'
p2355
I27
sS'ari'
p2356
I62
sS'need'
p2357
I50
sS'kkahvdkcljd'
p2358
I63
sS'afraid'
p2359
I61
sS'dishes'
p2360
I63
sS'min'
p2361
I62
sS'studying'
p2362
I62
sS'able'
p2363
I63
sS'hangover'
p2364
I63
sS'retweet'
p2365
I31
sS'instangram'
p2366
I63
sS'truck'
p2367
I63
sS'='
p2368
I62
sS';-)'
p2369
I63
sS'girlies'
p2370
I63
sS"freak'n"
p2371
I63
sS'who'
p2372
I48
sS'lmaooo'
p2373
I63
sS'connected'
p2374
I63
sS'hardbody'
p2375
I63
sS'awe'
p2376
I63
sS'alarmed'
p2377
I63
sS'why'
p2378
I49
sS'economy.\xe2\x80\x9d'
p2379
I63
sS'\xd0\xbd\xd0\xb0\xd1\x81\xd1\x82\xd1\x80\xd0\xbe\xd0\xb5\xd0\xbd\xd0\xb8\xd0\xb5'
p2380
I63
sS'gather'
p2381
I63
sS'thanksgiving'
p2382
I62
sS'atwood'
p2383
I63
sS'face'
p2384
I61
sS'looked'
p2385
I62
sS'se'
p2386
I63
sS'urs'
p2387
I63
sS'sexy('
p2388
I63
sS'bret'
p2389
I63
sS'painting'
p2390
I62
sS'fact'
p2391
I63
sS'selection'
p2392
I63
sS'=p'
p2393
I63
sS'text'
p2394
I63
sS'assholes'
p2395
I63
sS'watch'
p2396
I58
sS'bring'
p2397
I62
sS'-\xd0\xb1\xd0\xbb\xd1\x8f\xd1\x82\xd1\x8c'
p2398
I63
sS'planning'
p2399
I63
sS'playbook'
p2400
I63
sS'bedroom'
p2401
I63
sS'chicken'
p2402
I60
sS'longer'
p2403
I63
sS'feat'
p2404
I63
sS'supporter'
p2405
I63
sS'joebro'
p2406
I63
sS'costco'
p2407
I63
sS'based'
p2408
I63
sS'sheriff'
p2409
I63
sS'jay'
p2410
I63
sS'housewives'
p2411
I63
sS'should'
p2412
I56
sS'score'
p2413
I63
sS'\xd1\x82\xd1\x83\xd1\x82'
p2414
I62
sS'tudo'
p2415
I63
sS'tune'
p2416
I63
sS'local'
p2417
I62
sS'hope'
p2418
I57
sS'meant'
p2419
I62
sS'sweetie'
p2420
I62
sS'watching'
p2421
I52
sS'\xd0\xbf\xd0\xbe\xd0\xbd\xd0\xb0\xd0\xbf\xd0\xb8\xd0\xb7\xd0\xb4\xd0\xb5\xd0\xbb\xd0\xb0'
p2422
I63
sS'familiar'
p2423
I63
sS'dope'
p2424
I63
sS'diagnosing'
p2425
I63
sS'coworker'
p2426
I63
sS'awww'
p2427
I63
sS'ones'
p2428
I61
sS'tbm'
p2429
I63
sS'richards'
p2430
I63
sS'striped'
p2431
I63
sS'grrrr'
p2432
I63
sS'ended'
p2433
I63
sS'married'
p2434
I63
sS'episodes'
p2435
I63
sS'plaza"'
p2436
I63
sS'calling'
p2437
I63
sS'default'
p2438
I63
sS'stuff'
p2439
I63
sS'she'
p2440
I55
sS'tunes'
p2441
I63
sS"won't"
p2442
I63
sS'btw'
p2443
I63
sS'official'
p2444
I63
sS'\xd0\x94\xd0\xb5\xd0\xbb\xd0\xb8\xd1\x82\xd1\x8c'
p2445
I63
sS'we'
p2446
I45
sS'whatevs'
p2447
I63
sS'\xd0\xbe\xd0\xb1\xd0\xb8\xd0\xb4\xd0\xbd\xd0\xbe\xd0\xb5'
p2448
I63
sS'kissed'
p2449
I63
sS'flirt'
p2450
I63
sS'cole'
p2451
I63
sS'parenthood'
p2452
I63
sS'closet'
p2453
I61
sS'has'
p2454
I56
sS'genius'
p2455
I63
sS'ralps'
p2456
I63
sS'unshaved'
p2457
I63
sS'email'
p2458
I63
sS'bought'
p2459
I61
sS'opening'
p2460
I63
sS'embarrassment'
p2461
I63
sS'job'
p2462
I60
sS'shittiest'
p2463
I63
sS'nightfall'
p2464
I63
sS'approval'
p2465
I63
sS'legit'
p2466
I62
sS'david'
p2467
I63
sS'piece'
p2468
I63
sS'defense'
p2469
I63
sS'pepper'
p2470
I63
sS'career'
p2471
I63
sS'taking'
p2472
I61
sS'samaritan'
p2473
I63
sS'q\xe2\x9d\xa4\xef\xb8\x8f'
p2474
I63
sS'powerless'
p2475
I63
sS'etc'
p2476
I62
sS'summer/rachel'
p2477
I63
sS'conquered'
p2478
I63
sS'passing'
p2479
I63
sS'yaself'
p2480
I63
sS'comment'
p2481
I61
sS'ca'
p2482
I62
sS'walk'
p2483
I62
sS'packaging'
p2484
I63
sS'laugh'
p2485
I63
sS'\xd0\xbd\xd1\x80\xd0\xb0\xd0\xb2\xd1\x8f\xd1\x82\xd1\x81\xd1\x8f'
p2486
I63
sS'whispering'
p2487
I63
sS'table'
p2488
I62
sS'[pic]'
p2489
I54
sS'pouring'
p2490
I63
sS'yay'
p2491
I62
sS'videos'
p2492
I63
sS'like\xe2\x80\xa6'
p2493
I63
sS"it's"
p2494
I46
sS'window'
p2495
I62
sS'home"'
p2496
I63
sS'literal'
p2497
I63
sS'treat'
p2498
I63
sS'\xd0\x9f\xd1\x80\xd0\xbe\xd1\x81\xd1\x82\xd0\xbe'
p2499
I63
sS'hottest'
p2500
I63
sS'home)'
p2501
I58
sS'am'
p2502
I46
sS'crappy'
p2503
I63
sS'finished'
p2504
I63
sS'kerel'
p2505
I63
sS'brunch'
p2506
I63
sS'fellow'
p2507
I63
sS'homes'
p2508
I63
sS'runway'
p2509
I63
sS'homey'
p2510
I58
sS'matuloy'
p2511
I63
sS'will'
p2512
I52
sS'penis"'
p2513
I63
sS'hahaha'
p2514
I63
sS'\xd1\x80\xd0\xb5\xd1\x84\xd0\xb8\xd0\xbb\xd1\x8b'
p2515
I63
sS've'
p2516
I63
sS'\xd0\x92\xd1\x81\xd0\xb5'
p2517
I63
sS'almost'
p2518
I62
sS'lust'
p2519
I63
sS'\xd8\xa7\xd9\x84\xd8\xb9\xd9\x82\xd9\x84'
p2520
I63
sS'ave'
p2521
I57
sS'days."'
p2522
I63
sS'tattoo'
p2523
I63
sS'\xd1\x81\xd0\xb5\xd1\x80\xd0\xb4\xd1\x86\xd0\xb5\xd0\xbc'
p2524
I63
sS'shooting'
p2525
I63
sS'exhausting'
p2526
I63
sS'cine'
p2527
I63
sS'\xd0\xa1\xd0\xb0\xd0\xbc\xd0\xb0\xd1\x8f'
p2528
I63
sS'digging'
p2529
I63
sS'party'
p2530
I61
sS'difficult'
p2531
I63
sS'ball'
p2532
I62
sS'premiere'
p2533
I61
sS'drink'
p2534
I61
sS'diploma'
p2535
I63
sS'nightly'
p2536
I63
sS'fucked'
p2537
I63
sS'fiat'
p2538
I63
sS'//'
p2539
I63
sS'off'
p2540
I53
sS'center'
p2541
I63
sS'i'
p2542
I2
sS'well'
p2543
I50
sS'\xd1\x80\xd0\xbe\xd0\xb4\xd0\xbd\xd1\x8b\xd0\xb5'
p2544
I63
sS'fighting'
p2545
I63
sS'thought'
p2546
I61
sS'bananas'
p2547
I63
sS'less'
p2548
I58
sS'moments'
p2549
I63
sS'hands'
p2550
I63
sS"prep'n"
p2551
I63
sS'obtain'
p2552
I63
sS'griffith'
p2553
I63
sS'let\xe2\x80\x99s'
p2554
I63
sS'quiere'
p2555
I63
sS'headed'
p2556
I62
sS'knew'
p2557
I63
sS'shoes)'
p2558
I62
sS'\xd1\x81\xd0\xb8\xd0\xb4\xd0\xb8\xd0\xbc'
p2559
I63
sS'arrest'
p2560
I62
sS'other'
p2561
I56
sS'\xd0\x9a\xd0\xb0\xd0\xb6\xd0\xb4\xd1\x8b\xd0\xb9'
p2562
I63
sS"lad's"
p2563
I63
sS'wey'
p2564
I63
sS'amyadams'
p2565
I63
sS'homework'
p2566
I63
sS'details'
p2567
I63
sS'fyf'
p2568
I63
sS"who's"
p2569
I62
sS'five'
p2570
I63
sS'know'
p2571
I49
sS'immediately'
p2572
I63
sS'knox'
p2573
I63
sS'pier'
p2574
I63
sS'boob'
p2575
I63
sS'\xd1\x81\xd0\xb5\xd0\xb3\xd0\xbe\xd0\xb4\xd0\xbd\xd1\x8f'
p2576
I63
sS'dubai'
p2577
I63
sS'like'
p2578
I28
sS'lost'
p2579
I62
sS'miami'
p2580
I63
sS'clown'
p2581
I63
sS'lose'
p2582
I63
sS'become'
p2583
I59
sS'works'
p2584
I63
sS'page'
p2585
I62
sS'wonders'
p2586
I63
sS'because'
p2587
I63
sS'crazily'
p2588
I63
sS'twitter'
p2589
I60
sS'church'
p2590
I63
sS'alive'
p2591
I63
sS'hair'
p2592
I60
sS'proper'
p2593
I62
sS'home'
p2594
I48
sS'liking'
p2595
I63
sS'scares'
p2596
I63
sS'(5321'
p2597
I63
sS'happens'
p2598
I63
sS'leaf'
p2599
I63
sS'literally'
p2600
I58
sS'garrett'
p2601
I63
sS'appreciative'
p2602
I63
sS'ese'
p2603
I63
sS'does'
p2604
I59
sS'passion'
p2605
I63
sS'\xd0\xba\xd0\xbe\xd1\x84\xd0\xb5'
p2606
I63
sS'balboa'
p2607
I63
sS'\xd0\xb2'
p2608
I54
sS'duh'
p2609
I63
sS'\xd0\xb0'
p2610
I63
sS'\xd0\xb1'
p2611
I63
sS'\xd0\xba\xd0\xbe\xd0\xb3\xd0\xb4\xd0\xb0'
p2612
I62
sS'\xd0\xb8'
p2613
I58
sS'waits'
p2614
I63
sS'\xd9\x85\xd9\x86'
p2615
I63
sS'\xd0\xaf'
p2616
I62
sS'about'
p2617
I41
sS':-)'
p2618
I62
sS'bafoonary'
p2619
I63
sS'slayed'
p2620
I63
sS'getting'
p2621
I54
sS'universe'
p2622
I63
sS'angeles'
p2623
I22
sS'mofo'
p2624
I63
sS'swear'
p2625
I62
sS'that\xe2\x80\x99s'
p2626
I63
sS'-yes-damn'
p2627
I63
sS'\xd0\xbf\xd0\xbe\xd0\xba\xd0\xb0'
p2628
I63
sS'documentary'
p2629
I63
sS'own'
p2630
I62
sS'\xd0\x9a\xd0\xb0\xd0\xba'
p2631
I63
sS'herika'
p2632
I63
sS'socks'
p2633
I63
sS'gtfoh'
p2634
I63
sS'weather'
p2635
I59
sS'promise'
p2636
I63
sS'tiny'
p2637
I63
sS'hang'
p2638
I63
sS'mississippi'
p2639
I63
sS'apps'
p2640
I63
sS'charisma'
p2641
I63
sS'\xd0\xa1\xd0\xb8\xd0\xb6\xd1\x83'
p2642
I62
sS'neighbourhood'
p2643
I63
sS'rca'
p2644
I63
sS'beverage'
p2645
I63
sS'buy'
p2646
I63
sS'-do'
p2647
I63
sS"i've"
p2648
I58
sS'hr'
p2649
I63
sS'bus'
p2650
I63
sS'coke'
p2651
I63
sS'bitches'
p2652
I63
sS'but'
p2653
I38
sS'hi'
p2654
I61
sS'beat'
p2655
I63
sS'ha'
p2656
I56
sS'eat'
p2657
I59
sS'hd'
p2658
I63
sS'he'
p2659
I51
sS'count'
p2660
I60
sS'genitals'
p2661
I63
sS'made'
p2662
I61
sS'whether'
p2663
I63
sS'wish'
p2664
I62
sS'j'
p2665
I63
sS'flip'
p2666
I63
sS'record'
p2667
I63
sS'\xd1\x81\xd0\xbe\xd1\x81\xd1\x82\xd0\xbe\xd1\x8f\xd0\xbd\xd0\xb8\xd0\xb8'
p2668
I63
sS'projecting'
p2669
I63
sS'stories'
p2670
I63
sS'"one'
p2671
I63
sS'pumped'
p2672
I63
sS'cake'
p2673
I61
sS'problem'
p2674
I62
sS'\xe2\x98\x86'
p2675
I63
sS'minutes'
p2676
I63
sS"ryan's"
p2677
I63
sS'\xd0\xbf\xd1\x83\xd1\x81\xd1\x82\xd1\x8b\xd0\xb5'
p2678
I63
sS'wauw'
p2679
I63
sS'--9'
p2680
I63
sS'advertisement'
p2681
I63
sS'pic'
p2682
I62
sS'kisses'
p2683
I63
sS'se\xc3\xb1or'
p2684
I63
sS'\xd0\xbd\xd0\xb8\xd1\x89\xd0\xb5\xd0\xbd\xd0\xba\xd0\xb8'
p2685
I63
sS'\xd1\x81\xd0\xbd\xd1\x8b'
p2686
I63
sS'\xd0\xbb\xd1\x8e\xd0\xb1\xd1\x8b\xd0\xb5'
p2687
I63
sS'\xd1\x81\xd0\xb4\xd0\xb5\xd0\xbb\xd0\xb0\xd1\x82\xd1\x8c'
p2688
I63
sS'cpg'
p2689
I63
sS'happen'
p2690
I63
sS'diego'
p2691
I62
sS'ingredients'
p2692
I63
sS'dressed'
p2693
I63
sS'percent'
p2694
I63
sS'detail'
p2695
I63
sS'40'
p2696
I63
sS'surreal'
p2697
I63
sS'book'
p2698
I61
sS'flys'
p2699
I63
sS'sick'
p2700
I61
sS'u'
p2701
I37
sS'acrylic'
p2702
I63
sS'rian'
p2703
I63
sS'monday'
p2704
I59
sS'class'
p2705
I63
sS'truckers'
p2706
I63
sS'june'
p2707
I63
sS'stay'
p2708
I61
sS'kinda'
p2709
I63
sS'nintendo'
p2710
I63
sS'badass'
p2711
I63
sS'gap'
p2712
I63
sS'friends'
p2713
I54
sS'goin'
p2714
I63
sS'\xe2\x80\x93'
p2715
I63
sS'\xe2\x80\x94'
p2716
I60
sS'samsung'
p2717
I63
sS"jammin'"
p2718
I63
sS'space'
p2719
I63
sS'earthquake'
p2720
I63
sS'(=^\xe3\x82\xa7^=)'
p2721
I63
sS'\xd0\xb3\xd0\xbe\xd0\xbb\xd0\xbe\xd0\xb2\xd0\xb5'
p2722
I63
sS'this\xe2\x80\xa6'
p2723
I63
sS'handymen'
p2724
I63
sS'understand'
p2725
I63
sS'baked'
p2726
I63
s.