(dp0
S''
p1
I2
sS'raining'
p2
I91
sS'cussed'
p3
I91
sS'recreate'
p4
I91
sS"jane's"
p5
I91
sS'self.-napoleon'
p6
I91
sS'foul'
p7
I90
sS'chaos'
p8
I91
sS'four'
p9
I90
sS'betch'
p10
I91
sS'coopers'
p11
I91
sS'9/10'
p12
I91
sS'sleep'
p13
I84
sS'asian'
p14
I91
sS'hanging'
p15
I83
sS'mansion'
p16
I88
sS'captain'
p17
I90
sS'hate'
p18
I87
sS'forget'
p19
I90
sS'relationships'
p20
I91
sS'...all'
p21
I91
sS'"at'
p22
I91
sS'canes'
p23
I91
sS'buddy'
p24
I87
sS'paris'
p25
I87
sS'spew'
p26
I91
sS'tweet'
p27
I85
sS'swan'
p28
I91
sS'sweetest'
p29
I90
sS'presents'
p30
I90
sS'edward'
p31
I91
sS'cactus'
p32
I91
sS'under'
p33
I88
sS'*dope*'
p34
I91
sS'teaching'
p35
I78
sS'sorry'
p36
I82
sS'wildcat'
p37
I91
sS'worth'
p38
I89
sS"subway's"
p39
I91
sS'updated'
p40
I91
sS'avril'
p41
I90
sS'cruising'
p42
I90
sS'rescue'
p43
I90
sS'dynamic'
p44
I91
sS'rise'
p45
I90
sS'03:26:08.0,34.09808341,-118.36532543,1942,?!fiske'
p46
I91
sS'cracked\xe2\x80\xa6'
p47
I91
sS'smack'
p48
I91
sS'every'
p49
I78
sS'jack'
p50
I90
sS'sohani'
p51
I91
sS"hangin'"
p52
I91
sS'stabbed'
p53
I91
sS'seals'
p54
I91
sS'bringing'
p55
I91
sS'encounter'
p56
I91
sS'tickets'
p57
I88
sS'school'
p58
I90
sS'refollow'
p59
I91
sS'prize'
p60
I91
sS'parrot'
p61
I91
sS'ref'
p62
I91
sS'wednesday'
p63
I91
sS'frozen'
p64
I91
sS'flashy'
p65
I91
sS'geeked'
p66
I91
sS'"do'
p67
I91
sS'jeff'
p68
I90
sS'joys.nnj,90069\n448846023457120256,ashleylayogini,2014-03-26'
p69
I91
sS'"all'
p70
I91
sS'tired'
p71
I88
sS'awake'
p72
I91
sS'miller'
p73
I90
sS'consistent'
p74
I91
sS'direct'
p75
I89
sS'chef'
p76
I91
sS'talks'
p77
I91
sS'second'
p78
I87
sS'street'
p79
I88
sS'janice'
p80
I91
sS'(8160'
p81
I90
sS'n'
p82
I85
sS'others)'
p83
I78
sS'oscar'
p84
I91
sS'shining'
p85
I90
sS'even'
p86
I69
sS'guarantees'
p87
I91
sS'gratata'
p88
I91
sS"tonight's"
p89
I90
sS'+'
p90
I76
sS'fingers'
p91
I91
sS'f*ck'
p92
I91
sS'instatann'
p93
I91
sS'haze'
p94
I91
sS'h&m'
p95
I91
sS'above'
p96
I88
sS'blur'
p97
I91
sS'new'
p98
I56
sS'emily'
p99
I91
sS'ever'
p100
I72
sS'told'
p101
I88
sS'textures'
p102
I91
sS'introd'
p103
I91
sS'pats'
p104
I91
sS'kicked'
p105
I89
sS'hero'
p106
I91
sS'loo'
p107
I91
sS'chins'
p108
I91
sS'pancakes'
p109
I91
sS'hashgramapp'
p110
I91
sS'never'
p111
I72
sS'(los'
p112
I82
sS'hundreds'
p113
I91
sS'\xe2\x9d\xa4\xef\xb8\x8f'
p114
I84
sS'studio'
p115
I90
sS'07:04:03.0,34.10238,-118.37673167,1942,oofff'
p116
I91
sS'path'
p117
I91
sS'100'
p118
I91
sS"aren't"
p119
I88
sS'106'
p120
I91
sS'celebration'
p121
I91
sS'dry'
p122
I91
sS'kids'
p123
I88
sS'daughter'
p124
I90
sS'oozes'
p125
I91
sS'buckled'
p126
I91
sS'k'
p127
I90
sS'economics'
p128
I91
sS'glendale'
p129
I91
sS'robin'
p130
I91
sS'imma'
p131
I91
sS"i'd"
p132
I85
sS'smoke'
p133
I90
sS'browsing'
p134
I91
sS'"bless'
p135
I91
sS'chateau'
p136
I22
sS"someone's"
p137
I91
sS'changes'
p138
I91
sS'york'
p139
I91
sS'industries)'
p140
I91
sS'golden'
p141
I90
sS'fantastic'
p142
I89
sS'campaign'
p143
I90
sS'cuisine\xe2\x80\x9d'
p144
I91
sS'spooky'
p145
I91
sS'immie'
p146
I91
sS'capricecrane\xe2\x80\xa6'
p147
I91
sS'feelings'
p148
I90
sS'bro'
p149
I90
sS'patience'
p150
I91
sS'deal..25%'
p151
I91
sS'insta'
p152
I89
sS'meats'
p153
I91
sS'jackets'
p154
I91
sS'total'
p155
I91
sS'bra'
p156
I90
sS'asiansdouche'
p157
I91
sS'sarah'
p158
I91
sS'plot'
p159
I91
sS'after\xe2\x80\x9damen'
p160
I91
sS'cheating'
p161
I91
sS'would'
p162
I69
sS'marmont'
p163
I8
sS'gloss'
p164
I91
sS'manicure'
p165
I91
sS'negative'
p166
I89
sS'inevitable'
p167
I91
sS'cali'
p168
I90
sS'12/25'
p169
I91
sS'music'
p170
I82
sS'survive'
p171
I91
sS'preview'
p172
I90
sS'attempts'
p173
I91
sS'until'
p174
I86
sS'breathe'
p175
I90
sS'snowden'
p176
I91
sS'speaking'
p177
I91
sS'mrboroberts'
p178
I91
sS'holy'
p179
I86
sS'relax'
p180
I88
sS'brings'
p181
I90
sS'laurensessa'
p182
I91
sS'haha'
p183
I88
sS'subtweet'
p184
I91
sS'award'
p185
I91
sS'it'
p186
I14
sS'phone'
p187
I88
sS"5'9"
p188
I91
sS'semi-apologize'
p189
I91
sS'excellent'
p190
I90
sS'hole'
p191
I91
sS'hold'
p192
I91
sS'craziest'
p193
I91
sS'04:08:02.0,34.09557826,-118.37293433,1942,katana'
p194
I91
sS'must'
p195
I84
sS'shoot'
p196
I86
sS'feenin'
p197
I91
sS'dalyalovy\xe2\x80\xa6'
p198
I91
sS'join'
p199
I89
sS'room'
p200
I80
sS'mc'
p201
I88
sS'cheapest'
p202
I91
sS'work'
p203
I66
sS'mi'
p204
I91
sS'cant'
p205
I91
sS'roof'
p206
I91
sS'movies'
p207
I87
sS'locker'
p208
I91
sS'bungalow'
p209
I87
sS'tinder'
p210
I88
sS'solitaire'
p211
I91
sS'mr'
p212
I90
sS'exhale'
p213
I88
sS'my'
p214
I11
sS'47958'
p215
I91
sS'shook'
p216
I91
sS'vodka'
p217
I91
sS'100$'
p218
I91
sS'estate'
p219
I90
sS'give'
p220
I82
sS'climax'
p221
I91
sS'dolphin'
p222
I91
sS'laughs'
p223
I90
sS'paparazzi'
p224
I91
sS'-me:)'
p225
I91
sS'honey'
p226
I91
sS'foods'
p227
I90
sS'homie'
p228
I90
sS'want'
p229
I72
sS'keep'
p230
I84
sS'dumb)'
p231
I91
sS'seacrest'
p232
I91
sS'absolute'
p233
I90
sS'aging'
p234
I91
sS'hoe'
p235
I91
sS'end'
p236
I79
sS'trill'
p237
I91
sS'intoxicated'
p238
I91
sS'song'
p239
I89
sS'zzzz'
p240
I91
sS'funky'
p241
I91
sS'comedians'
p242
I91
sS'stills'
p243
I91
sS'machine'
p244
I90
sS'how'
p245
I43
sS'hot'
p246
I78
sS"tonite's"
p247
I91
sS'ig'
p248
I91
sS'hop'
p249
I91
sS'answer'
p250
I86
sS'beach'
p251
I90
sS'horror'
p252
I91
sS'pizza'
p253
I91
sS'content\xe2\x80\x9d-asher'
p254
I91
sS'poker'
p255
I90
sS'madden'
p256
I91
sS'beauty'
p257
I89
sS'hunnypot'
p258
I91
sS'bday'
p259
I88
sS'pokey'
p260
I91
sS'after'
p261
I64
sS'flick'
p262
I91
sS'shores'
p263
I91
sS'wrong'
p264
I84
sS'jumping'
p265
I91
sS'lay'
p266
I91
sS'"live'
p267
I91
sS'law'
p268
I91
sS'shayna_terese'
p269
I91
sS'tonight:)'
p270
I91
sS'las'
p271
I90
sS'chilled'
p272
I90
sS'third'
p273
I91
sS'sets'
p274
I91
sS'amid'
p275
I91
sS'g-eazy'
p276
I91
sS'appreciate'
p277
I87
sS'greet'
p278
I91
sS'emotions'
p279
I91
sS'baggage'
p280
I91
sS'green'
p281
I84
sS'worst'
p282
I86
sS"saved.i'll"
p283
I91
sS'romper'
p284
I89
sS'wind'
p285
I91
sS'wine'
p286
I88
sS'tooooo'
p287
I91
sS'dreamed'
p288
I91
sS'over'
p289
I70
sS"doesn't..but"
p290
I91
sS'zen'
p291
I91
sS'bubbles'
p292
I91
sS'ma\xc3\xb1ana'
p293
I91
sS'natter'
p294
I91
sS'down"'
p295
I90
sS'mayor'
p296
I91
sS'digest'
p297
I91
sS'before'
p298
I86
sS'ima'
p299
I90
sS'accepted'
p300
I91
sS'shoutout'
p301
I91
sS'gallon'
p302
I91
sS'reflection'
p303
I91
sS'fiz'
p304
I91
sS'del'
p305
I91
sS'backpack'
p306
I91
sS'soon?\xe2\x80\x9d'
p307
I91
sS'writing'
p308
I90
sS'better'
p309
I79
sS'405'
p310
I91
sS"lenny's"
p311
I91
sS'weeks'
p312
I89
sS'cred'
p313
I91
sS'easier'
p314
I91
sS'fil'
p315
I91
sS'harmony'
p316
I90
sS'then'
p317
I65
sS'them'
p318
I76
sS'woken'
p319
I91
sS'combination'
p320
I91
sS'leighcollier3'
p321
I91
sS'prevented'
p322
I91
sS'thee'
p323
I91
sS'safe'
p324
I91
sS"we'll"
p325
I91
sS'\xd8\xa8\xd8\xb9\xd9\x8a\xd9\x86\xd9\x83'
p326
I91
sS'break'
p327
I90
sS'band'
p328
I91
sS'roommate'
p329
I91
sS'warmups'
p330
I91
sS'they'
p331
I67
sS'meaningless'
p332
I91
sS'one'
p333
I53
sS'bank'
p334
I91
sS'bread'
p335
I91
sS'nozawa'
p336
I91
sS'whoop'
p337
I91
sS'kunis'
p338
I91
sS'tupac'
p339
I91
sS'kicking'
p340
I91
sS'fonts'
p341
I91
sS'l'
p342
I91
sS'--'
p343
I91
sS'reasonable'
p344
I91
sS'each'
p345
I90
sS'acoustic'
p346
I91
sS'went'
p347
I88
sS'cooler...\xe2\x80\x9d'
p348
I91
sS'bong'
p349
I91
sS'side'
p350
I88
sS'bone'
p351
I91
sS'mean'
p352
I83
sS'blinded'
p353
I91
sS'candy'
p354
I90
sS'signing'
p355
I91
sS'roxy'
p356
I91
sS'\xe2\x9d\x84\xef\xb8\x8f\xe2\x9b\x84\xef\xb8\x8f'
p357
I91
sS"hasn't"
p358
I91
sS'list'
p359
I90
sS'spider'
p360
I91
sS'celebrating'
p361
I88
sS'was.\xe2\x80\xa6'
p362
I91
sS'strips'
p363
I91
sS'dubstep'
p364
I91
sS'forgot'
p365
I89
sS'navy'
p366
I91
sS'-brent'
p367
I91
sS'message'
p368
I90
sS'swagger"'
p369
I91
sS'fuss'
p370
I91
sS'rt'
p371
I82
sS'\xe2\x80\x9ctraitor\xe2\x80\x9d'
p372
I91
sS'drove'
p373
I91
sS'rp'
p374
I91
sS'dating'
p375
I91
sS'driving'
p376
I86
sS'oprah'
p377
I91
sS'god'
p378
I80
sS'motel'
p379
I91
sS'waive'
p380
I91
sS'hooked'
p381
I91
sS'sparkly'
p382
I90
sS'cool:)'
p383
I91
sS'tomorrow'
p384
I78
sS'cuteeeee'
p385
I91
sS'rare'
p386
I91
sS'smh'
p387
I91
sS'medicine'
p388
I91
sS'got'
p389
I68
sS'rn'
p390
I89
sS'tmz'
p391
I91
sS'independence'
p392
I91
sS'foundation'
p393
I91
sS'(8154'
p394
I90
sS'cutest'
p395
I91
sS"you're"
p396
I69
sS"20's"
p397
I91
sS'leftovers'
p398
I91
sS'vivaluxuryblog'
p399
I91
sS'free'
p400
I80
sS'coachella'
p401
I91
sS'masterpiece'
p402
I90
sS'evil'
p403
I89
sS'sandra'
p404
I91
sS'clarity'
p405
I91
sS'dissing'
p406
I91
sS'wanted'
p407
I89
sS'metallica'
p408
I91
sS'run-throughs'
p409
I91
sS'mvp'
p410
I91
sS'bavid'
p411
I91
sS'ate'
p412
I91
sS'birdie'
p413
I91
sS'recovering'
p414
I91
sS'starts'
p415
I90
sS'professions'
p416
I91
sS'marmont\xe2\x80\xa6'
p417
I91
sS'days'
p418
I88
sS'creates'
p419
I91
sS'flawless'
p420
I91
sS'shipped'
p421
I90
sS"today's"
p422
I90
sS'unknown'
p423
I91
sS'cucumber'
p424
I91
sS'(at'
p425
I86
sS'bite'
p426
I91
sS'"overdose'
p427
I91
sS'enjoy'
p428
I91
sS'already'
p429
I80
sS'hd'
p430
I91
sS'three...was'
p431
I91
sS'unfollowed'
p432
I91
sS'coding'
p433
I91
sS'sign/poster'
p434
I91
sS'perkins'
p435
I91
sS'mid-court'
p436
I91
sS'spinning'
p437
I91
sS'delicious'
p438
I90
sS'comin'
p439
I91
sS'sober'
p440
I91
sS'sixers'
p441
I90
sS'haybaybay'
p442
I91
sS'"damn'
p443
I91
sS'hood'
p444
I91
sS'00:44:00.0,34.10356107,-118.36828526,1942,this'
p445
I91
sS'basketball'
p446
I90
sS'malick'
p447
I91
sS'service'
p448
I91
sS'~the'
p449
I91
sS'top'
p450
I85
sS'crunches'
p451
I91
sS'girls'
p452
I84
sS'twisted'
p453
I91
sS'heights'
p454
I87
sS'needed'
p455
I90
sS'hbackus88'
p456
I91
sS'rates'
p457
I91
sS'too'
p458
I75
sS'xiv'
p459
I81
sS'phones'
p460
I91
sS"minaj's"
p461
I91
sS'hollywood'
p462
I37
sS'john'
p463
I90
sS'40th'
p464
I91
sS'dogs'
p465
I89
sS'listen'
p466
I90
sS'kiwi'
p467
I91
sS'ceiling'
p468
I91
sS'murder'
p469
I91
sS'gr8'
p470
I91
sS'munnerlyn'
p471
I91
sS'predictably'
p472
I91
sS'gym'
p473
I87
sS'2am'
p474
I90
sS'took'
p475
I81
sS'wastes'
p476
I91
sS'babydaggers'
p477
I91
sS'sweets'
p478
I91
sS'hills/sunset'
p479
I91
sS'wasted'
p480
I91
sS'buckley'
p481
I91
sS'postre'
p482
I91
sS'crawl'
p483
I90
sS'begins'
p484
I90
sS'tires'
p485
I91
sS'anxiety'
p486
I91
sS'scenario'
p487
I90
sS'showed'
p488
I89
sS'is\xe2\x80\xa6'
p489
I91
sS'strenght'
p490
I91
sS'tree'
p491
I90
sS'scenes'
p492
I91
sS'tourists'
p493
I91
sS'shower'
p494
I90
sS'matter'
p495
I89
sS'classes'
p496
I90
sS'williams'
p497
I90
sS'ahead\xe2\x80\x9d'
p498
I91
sS'hottie'
p499
I90
sS"neeson's"
p500
I91
sS'feeling'
p501
I79
sS'powers'
p502
I91
sS"oscar's"
p503
I91
sS'mini'
p504
I90
sS'rad'
p505
I90
sS'lbr'
p506
I90
sS'tannehil'
p507
I91
sS'raspberries'
p508
I91
sS'ran'
p509
I88
sS'boston'
p510
I90
sS'mastros'
p511
I91
sS'modern'
p512
I91
sS'mind'
p513
I89
sS'product/ux'
p514
I91
sS'ginger'
p515
I90
sS'anybody'
p516
I87
sS'marlay'
p517
I91
sS'talking'
p518
I89
sS'rat'
p519
I91
sS'shrubs'
p520
I91
sS'seen'
p521
I77
sS'seem'
p522
I90
sS'lbj'
p523
I90
sS'_graceh'
p524
I91
sS'trenier'
p525
I91
sS'ray'
p526
I90
sS'forced'
p527
I91
sS'up!"'
p528
I91
sS'strength'
p529
I89
sS'genuine'
p530
I91
sS'post-football'
p531
I91
sS'15:23:50.0,34.09862356,-118.36794622,1942,few'
p532
I91
sS'ohhhhh'
p533
I91
sS'neck'
p534
I91
sS'-'
p535
I76
sS'snow'
p536
I87
sS'brandon'
p537
I91
sS'moby'
p538
I91
sS'derek'
p539
I91
sS'luxury'
p540
I91
sS'laughed'
p541
I91
sS'xivsummersessions'
p542
I91
sS'panties'
p543
I91
sS'blouse'
p544
I91
sS'nobody'
p545
I89
sS'though'
p546
I87
sS'bst'
p547
I91
sS'rappers'
p548
I91
sS'mistakened'
p549
I91
sS'cassettes'
p550
I91
sS'victoria'
p551
I91
sS'audition'
p552
I90
sS'regular'
p553
I90
sS'germany'
p554
I90
sS'timquinnbeauty'
p555
I91
sS'fam,90046\n485662270525939713,partouchette,2014-07-06'
p556
I91
sS'unfamous'
p557
I91
sS'manifested'
p558
I91
sS'doi'
p559
I91
sS'episode'
p560
I85
sS'citywalk'
p561
I91
sS'hanna'
p562
I91
sS'emailing'
p563
I91
sS'alarm'
p564
I91
sS'camp'
p565
I91
sS'flow'
p566
I91
sS'dog'
p567
I90
sS'pms-ing'
p568
I91
sS'cami'
p569
I91
sS'points'
p570
I88
sS'ch\xc3\xa2teau'
p571
I17
sS'women'
p572
I91
sS'tigger'
p573
I91
sS'entertaining'
p574
I91
sS'doesn\xe2\x80\x99t'
p575
I91
sS'scream'
p576
I91
sS'came'
p577
I85
sS'saying'
p578
I89
sS'bomb'
p579
I90
sS'stud'
p580
I91
sS'kickn'
p581
I91
sS'tequila'
p582
I91
sS'random'
p583
I90
sS'pauly\xe2\x80\xa6'
p584
I91
sS'krispin'
p585
I91
sS'pops'
p586
I91
sS'gawking/screeching'
p587
I91
sS'colors'
p588
I89
sS'radio'
p589
I90
sS':),90069\n447053651379355648,ashleylayogini,2014-03-21'
p590
I91
sS'stepping'
p591
I91
sS'icicles'
p592
I91
sS'earth'
p593
I89
sS'speech'
p594
I91
sS'unattached'
p595
I91
sS'enjoyed'
p596
I91
sS'you:)'
p597
I89
sS'sharks'
p598
I90
sS'someplace'
p599
I91
sS'copy'
p600
I91
sS'layout'
p601
I90
sS'btw'
p602
I91
sS'ayyyy'
p603
I91
sS'menu'
p604
I89
sS'weekends'
p605
I91
sS'asian-related'
p606
I91
sS"baby's"
p607
I91
sS'coasters'
p608
I91
sS'bust'
p609
I90
sS'than'
p610
I77
sS'rico'
p611
I90
sS'bush'
p612
I90
sS'screening'
p613
I91
sS'rich'
p614
I91
sS'folks'
p615
I91
sS'hyde-away)'
p616
I91
sS'personality'
p617
I91
sS'wearing'
p618
I87
sS'monica'
p619
I88
sS'\xe2\x9c\x8c\xef\xb8\x8fthe'
p620
I91
sS'dm'
p621
I90
sS'sunglasses'
p622
I90
sS'10'
p623
I87
sS'de'
p624
I89
sS'stop'
p625
I87
sS'13'
p626
I90
sS'da'
p627
I89
sS'shutting'
p628
I91
sS'haunted'
p629
I90
sS'report'
p630
I91
sS'knocks'
p631
I91
sS'tribute'
p632
I90
sS'hermano'
p633
I91
sS'bat'
p634
I90
sS'bar'
p635
I29
sS'greens'
p636
I91
sS'introduced'
p637
I91
sS'racing'
p638
I91
sS'\xd8\xa7\xd9\x84\xd8\xaa\xd9\x8a'
p639
I91
sS'bag'
p640
I90
sS'bad'
p641
I75
sS'bae'
p642
I89
sS'sloppy/obligatory'
p643
I91
sS'grilled'
p644
I91
sS'steal'
p645
I91
sS'denying'
p646
I91
sS'ears'
p647
I91
sS'headed'
p648
I90
sS'momentos'
p649
I91
sS'decides'
p650
I91
sS'fair'
p651
I91
sS'w/'
p652
I54
sS'nut'
p653
I91
sS'lemonade'
p654
I91
sS'"hulk"'
p655
I91
sS'kkpall'
p656
I91
sS'penn'
p657
I91
sS'nun'
p658
I91
sS'decided'
p659
I90
sS',90046\n469522991957942272,thexavierowens,2014-05-22'
p660
I91
sS'for\xe2\x80\xa6'
p661
I90
sS'chicas'
p662
I91
sS'fail'
p663
I91
sS'miserable'
p664
I91
sS'best'
p665
I65
sS'brazil'
p666
I91
sS'r&r'
p667
I91
sS'said'
p668
I84
sS'draws'
p669
I91
sS'duff'
p670
I91
sS'sorta'
p671
I91
sS'15:50:28.0,34.09873738,-118.3677006,1942'
p672
I91
sS'away'
p673
I83
sS'interviewing'
p674
I91
sS'gentleman'
p675
I91
sS'ringo'
p676
I91
sS'score'
p677
I90
sS'dtla\xe2\x98\x81\xef\xb8\x8f'
p678
I91
sS'kikibartek'
p679
I91
sS'drawn'
p680
I90
sS'repost'
p681
I91
sS'above\xe2\x80\xa6'
p682
I91
sS'warrior'
p683
I91
sS'we'
p684
I34
sS'men'
p685
I90
sS'omg'
p686
I70
sS'nationwide'
p687
I91
sS'however'
p688
I91
sS'religious'
p689
I91
sS'boss'
p690
I89
sS'vinyasa'
p691
I91
sS'halloween'
p692
I91
sS'wu'
p693
I91
sS'wt'
p694
I91
sS'bosh'
p695
I90
sS'here'
p696
I67
sS'wtf'
p697
I86
sS'wth'
p698
I91
sS'cousin'
p699
I91
sS'basssst'
p700
I91
sS'sista'
p701
I91
sS'roller'
p702
I91
sS'hills'
p703
I72
sS'durty'
p704
I91
sS'pyscho'
p705
I91
sS'pukeliterson'
p706
I91
sS'met'
p707
I86
sS'fault'
p708
I90
sS'ill'
p709
I86
sS'vibration'
p710
I91
sS'ahora'
p711
I91
sS'heating'
p712
I91
sS'against'
p713
I87
sS'players'
p714
I88
sS'm\xc3\xbcller'
p715
I91
sS'games'
p716
I88
sS'mildly'
p717
I90
sS'instabrand'
p718
I90
sS'brad'
p719
I91
sS'uni'
p720
I91
sS'ski'
p721
I91
sS'asked'
p722
I88
sS'sweetie'
p723
I91
sS'ily'
p724
I89
sS'pre'
p725
I90
sS'15:36:45.0,34.09876212,-118.36736368,1942,seize'
p726
I91
sS'tough'
p727
I91
sS'pose'
p728
I91
sS"ball's"
p729
I91
sS'heighs'
p730
I90
sS'had'
p731
I71
sS'2013you'
p732
I91
sS'gathering'
p733
I91
sS'2nd'
p734
I91
sS'flames'
p735
I91
sS'canyon'
p736
I65
sS'tony'
p737
I91
sS'loaded'
p738
I90
sS'trust'
p739
I90
sS'speak'
p740
I89
sS'xe'
p741
I91
sS'bathroom'
p742
I84
sS'101'
p743
I91
sS'bikinis'
p744
I91
sS'lehner'
p745
I91
sS'three'
p746
I88
sS'been'
p747
I76
sS'drafting'
p748
I91
sS'confident'
p749
I91
sS'beer'
p750
I90
sS'much'
p751
I71
sS'stadium'
p752
I91
sS'privilege'
p753
I89
sS'parents'
p754
I91
sS'lovely'
p755
I86
sS'tashadye'
p756
I90
sS'threw'
p757
I90
sS'life'
p758
I63
sS'goatwhore'
p759
I91
sS'drugs'
p760
I90
sS'(case'
p761
I91
sS'gurrfran'
p762
I91
sS'xxx'
p763
I91
sS'ariana'
p764
I91
sS'spade...buh'
p765
I91
sS'lauren'
p766
I91
sS'personally'
p767
I91
sS'catch'
p768
I89
sS'worked'
p769
I91
sS'haters'
p770
I91
sS'spin'
p771
I89
sS'cunt'
p772
I90
sS'chill'
p773
I88
sS'gracias'
p774
I90
sS'tank'
p775
I88
sS'ahead'
p776
I91
sS'publicly'
p777
I91
sS'qgtahaw'
p778
I91
sS'jams'
p779
I91
sS'air'
p780
I86
sS'strangest'
p781
I91
sS'ugly'
p782
I90
sS'evening'
p783
I87
sS'gna'
p784
I91
sS'neat'
p785
I89
sS'b-day'
p786
I91
sS'forget;)'
p787
I91
sS'stopping'
p788
I91
sS'cracked'
p789
I91
sS'voice'
p790
I90
sS'study'
p791
I91
sS'chilling'
p792
I89
sS'cab'
p793
I91
sS'burratta'
p794
I91
sS'eden'
p795
I91
sS'vogel'
p796
I91
sS'played'
p797
I90
sS'fill'
p798
I91
sS'is'
p799
I9
sS'sushi'
p800
I86
sS'"i'
p801
I90
sS'07:41:29.0,34.09774957,-118.3728885,1942,um'
p802
I91
sS'shame'
p803
I91
sS'said"'
p804
I91
sS'dizzy'
p805
I91
sS'im'
p806
I77
sS'in'
p807
I10
sS'maya'
p808
I91
sS'primanti'
p809
I91
sS'id'
p810
I91
sS'disappear'
p811
I91
sS'if'
p812
I40
sS'bottles'
p813
I90
sS'7:30-'
p814
I91
sS'things'
p815
I80
sS'make'
p816
I75
sS'niki'
p817
I91
sS'sav'
p818
I91
sS'dean'
p819
I91
sS'complex'
p820
I91
sS'belly'
p821
I90
sS'babies'
p822
I91
sS'viewing'
p823
I91
sS':(('
p824
I91
sS'several'
p825
I91
sS'undrafted'
p826
I91
sS'yung'
p827
I91
sS'wheel'
p828
I91
sS'meets'
p829
I91
sS'nin'
p830
I91
sS"chris'"
p831
I91
sS'blue'
p832
I91
sS'hang'
p833
I89
sS'nig'
p834
I91
sS'rain'
p835
I89
sS'hand'
p836
I80
sS'delight'
p837
I91
sS'photographers'
p838
I91
sS'characters'
p839
I91
sS'jealous'
p840
I91
sS'garlin'
p841
I91
sS'opportunity'
p842
I91
sS"i'm"
p843
I19
sS'thoughts'
p844
I87
sS'kid'
p845
I88
sS'france...i'
p846
I91
sS'kept'
p847
I90
sS'smokey'
p848
I90
sS'thx'
p849
I91
sS'lillieyouknow'
p850
I91
sS'unconditionally'
p851
I91
sS'youre'
p852
I87
sS'redeem'
p853
I91
sS'ocean'
p854
I90
sS'tho'
p855
I80
sS'savings'
p856
I91
sS'rome'
p857
I91
sS'greatest'
p858
I85
sS'mother'
p859
I90
sS'jeal'
p860
I91
sS'echoes'
p861
I91
sS'the'
p862
I1
sS'smoked'
p863
I91
sS'corporate'
p864
I91
sS'yours'
p865
I91
sS'left'
p866
I88
sS'westbrook'
p867
I91
sS'hahha'
p868
I91
sS'kale'
p869
I91
sS'just'
p870
I20
sS'sentence'
p871
I91
sS'yea'
p872
I90
sS'photo'
p873
I51
sS'laptop'
p874
I90
sS'sleepy'
p875
I91
sS'greys'
p876
I91
sS'silverman'
p877
I91
sS'keliantos'
p878
I91
sS'thanks'
p879
I63
sS'human'
p880
I86
sS'ciara'
p881
I91
sS'yep'
p882
I91
sS'yes'
p883
I77
sS'32'
p884
I91
sS'yet'
p885
I89
sS'yew'
p886
I91
sS'previous'
p887
I88
sS'hal'
p888
I91
sS'vid'
p889
I89
sS'candidate'
p890
I91
sS'omfg'
p891
I90
sS'27th'
p892
I91
sS'character'
p893
I89
sS'hay'
p894
I91
sS'shout'
p895
I89
sS'spread'
p896
I91
sS'asteroids'
p897
I91
sS'easy'
p898
I89
sS'whatsapp'
p899
I91
sS'has'
p900
I60
sS'hat'
p901
I89
sS'villaway'
p902
I91
sS'gave'
p903
I91
sS'casting'
p904
I91
sS'team...can'
p905
I91
sS'casually'
p906
I91
sS'...yip'
p907
I91
sS'bird\xe2\x80\x9d'
p908
I91
sS'caps'
p909
I91
sS'arab'
p910
I91
sS'possibly'
p911
I90
sS'background'
p912
I90
sS'judge'
p913
I89
sS'roach'
p914
I91
sS'unique'
p915
I89
sS'dreams'
p916
I91
sS'apart'
p917
I91
sS'brought'
p918
I91
sS'ditto'
p919
I91
sS'gift'
p920
I91
sS'texts'
p921
I91
sS'54'
p922
I90
sS'performing'
p923
I91
sS'alice'
p924
I91
sS'53'
p925
I91
sS'replug'
p926
I91
sS'pavement'
p927
I91
sS'steps'
p928
I91
sS'up-ing'
p929
I91
sS'night'
p930
I42
sS'libramax'
p931
I91
sS'matchup'
p932
I91
sS'right'
p933
I67
sS'old'
p934
I81
sS'deal'
p935
I87
sS'people'
p936
I67
sS'successfully'
p937
I91
sS'lizzy23'
p938
I91
sS'somehow'
p939
I91
sS'dead'
p940
I90
sS'50'
p941
I91
sS'born'
p942
I91
sS'intern'
p943
I91
sS'hassle'
p944
I91
sS'poolside'
p945
I91
sS'dear'
p946
I91
sS'emrhys'
p947
I91
sS'guess'
p948
I88
sS'chasse'
p949
I91
sS'creep'
p950
I91
sS'norman'
p951
I91
sS'temp'
p952
I91
sS'cocaine'
p953
I91
sS'cooper'
p954
I90
sS'for'
p955
I15
sS'bottom'
p956
I89
sS'closing'
p957
I91
sS'phenomenal'
p958
I91
sS"been'pard"
p959
I91
sS'ice'
p960
I89
sS'tickets.....you'
p961
I91
sS'filming'
p962
I90
sS'asking'
p963
I90
sS'material\xe2\x9c\xa8'
p964
I91
sS'scarier'
p965
I91
sS'denied'
p966
I91
sS'umm'
p967
I91
sS'flowscarried'
p968
I91
sS'foh'
p969
I91
sS'christmas'
p970
I85
sS'world\xe2\x80\x99s'
p971
I91
sS"hal's"
p972
I91
sS'pls'
p973
I90
sS'peel'
p974
I91
sS'deleted'
p975
I91
sS'corn'
p976
I91
sS'trampoline'
p977
I91
sS'peed'
p978
I91
sS"wk's"
p979
I91
sS'caffeine'
p980
I91
sS'-krishnamachayra'
p981
I91
sS'starring'
p982
I91
sS'pinches'
p983
I83
sS'losing'
p984
I90
sS'post'
p985
I86
sS'super'
p986
I80
sS'fierce'
p987
I91
sS'oreo'
p988
I91
sS'diner'
p989
I91
sS'cowboy'
p990
I91
sS'me\xe2\x80\x9d'
p991
I91
sS'dollars'
p992
I91
sS'valentines'
p993
I91
sS'ups.....how'
p994
I91
sS'o'
p995
I91
sS'kathybaaden'
p996
I91
sS'tell\xe2\x80\xa6'
p997
I91
sS';-)'
p998
I91
sS'magazine'
p999
I90
sS'nolan'
p1000
I91
sS'plus'
p1001
I88
sS'afternoon'
p1002
I89
sS'stoked'
p1003
I90
sS'forthcoming'
p1004
I91
sS'book'
p1005
I91
sS'part\xe2\x80\xa6'
p1006
I91
sS'facetime'
p1007
I91
sS'duke'
p1008
I91
sS'raised'
p1009
I89
sS'aha'
p1010
I91
sS'tyrell'
p1011
I91
sS'subs'
p1012
I91
sS'presence'
p1013
I91
sS'civil'
p1014
I90
sS'material'
p1015
I91
sS'selfie'
p1016
I88
sS'livelike'
p1017
I91
sS'bound'
p1018
I90
sS'two'
p1019
I84
sS'down'
p1020
I70
sS'thankful'
p1021
I91
sS'juicing'
p1022
I91
sS'.500'
p1023
I91
sS'magazines'
p1024
I91
sS'soy'
p1025
I91
sS'sox'
p1026
I90
sS'snowpiercer'
p1027
I91
sS'federal'
p1028
I91
sS'cones'
p1029
I90
sS'east'
p1030
I91
sS'art'
p1031
I91
sS'alarmed'
p1032
I91
sS'crowd'
p1033
I89
sS'rockstar!\xe2\x80\x9d'
p1034
I91
sS'amazingly'
p1035
I91
sS'support'
p1036
I89
sS'constantly'
p1037
I90
sS'illustrious'
p1038
I91
sS'kikimorris'
p1039
I91
sS'class'
p1040
I83
sS'absolutely'
p1041
I88
sS'fought'
p1042
I91
sS'boring'
p1043
I91
sS'way'
p1044
I78
sS'goddamn'
p1045
I91
sS'call'
p1046
I87
sS'was'
p1047
I25
sS'war'
p1048
I90
sS'happy'
p1049
I45
sS'fork'
p1050
I91
sS'head'
p1051
I87
sS'medium'
p1052
I91
sS'offer'
p1053
I91
sS'gorgeous'
p1054
I87
sS'thepotbelleez'
p1055
I91
sS'failure'
p1056
I91
sS'heat'
p1057
I88
sS'hear'
p1058
I87
sS'zoom'
p1059
I91
sS'\xc3\xa9crite'
p1060
I91
sS'sustained'
p1061
I91
sS'manziel'
p1062
I91
sS'true'
p1063
I81
sS'wow\xe2\x80\x9d'
p1064
I91
sS'coaching'
p1065
I91
sS'gaza'
p1066
I91
sS'injury'
p1067
I91
sS'treasures\xe2\x80\xa6'
p1068
I91
sS'urgent'
p1069
I91
sS'inside'
p1070
I89
sS'maximum'
p1071
I91
sS'devices'
p1072
I91
sS'ruined'
p1073
I90
sS'bowery'
p1074
I91
sS'considered'
p1075
I91
sS'maximus'
p1076
I91
sS'adore'
p1077
I90
sS'know:('
p1078
I91
sS'cross'
p1079
I91
sS'wilhelmina'
p1080
I91
sS'usher'
p1081
I91
sS'reminiscing'
p1082
I91
sS'mtg'
p1083
I91
sS'leaf'
p1084
I91
sS'150'
p1085
I91
sS'proud'
p1086
I88
sS'hotter'
p1087
I91
sS'"dat'
p1088
I91
sS'peruvian'
p1089
I91
sS'jnoellehacket'
p1090
I91
sS'escape'
p1091
I91
sS'flaw'
p1092
I91
sS'covers'
p1093
I91
sS'drive'
p1094
I85
sS'wonderland'
p1095
I91
sS'sometime'
p1096
I91
sS'exist'
p1097
I91
sS'remixes'
p1098
I91
sS'ship'
p1099
I90
sS'annoying'
p1100
I89
sS'check'
p1101
I83
sS'shit'
p1102
I75
sS'palm*'
p1103
I91
sS'pipe'
p1104
I91
sS'relay'
p1105
I91
sS'no'
p1106
I44
sS'commercials'
p1107
I90
sS'substances'
p1108
I91
sS'when'
p1109
I51
sS'....they'
p1110
I91
sS'actor'
p1111
I90
sS'til'
p1112
I91
sS'ny'
p1113
I90
sS'setting'
p1114
I91
sS'adventure'
p1115
I91
sS'digital'
p1116
I90
sS'test'
p1117
I91
sS'tie'
p1118
I90
sS'smell'
p1119
I88
sS'roll'
p1120
I87
sS'realize'
p1121
I89
sS'map/blueprint'
p1122
I91
sS'eternity'
p1123
I90
sS'picture'
p1124
I89
sS'brothers'
p1125
I91
sS'surprise'
p1126
I90
sS'felt'
p1127
I89
sS'yardage'
p1128
I90
sS"let's"
p1129
I82
sS'fell'
p1130
I90
sS'angie'
p1131
I91
sS'and/or'
p1132
I91
sS'ribbing'
p1133
I91
sS'hurt'
p1134
I91
sS'weekend'
p1135
I85
sS'died'
p1136
I90
sS'pre-party'
p1137
I91
sS'younger'
p1138
I91
sS'yummy!!!\xe2\x80\xa6'
p1139
I91
sS'longer'
p1140
I91
sS'apology'
p1141
I91
sS'glass'
p1142
I91
sS'painting'
p1143
I91
sS'sage\xe2\x80\xa6'
p1144
I91
sS'changed'
p1145
I91
sS'daily'
p1146
I89
sS'3.9.14'
p1147
I91
sS'jacket'
p1148
I90
sS'bball'
p1149
I91
sS'rough'
p1150
I91
sS'personal'
p1151
I91
sS'trakeen'
p1152
I91
sS'time'
p1153
I48
sS'push'
p1154
I90
sS'serious'
p1155
I90
sS'lineup'
p1156
I90
sS'funemploymed'
p1157
I91
sS':))'
p1158
I90
sS'peacock'
p1159
I91
sS'coach'
p1160
I90
sS':('
p1161
I87
sS':)'
p1162
I57
sS'drained'
p1163
I91
sS'dance'
p1164
I90
sS'pros'
p1165
I91
sS'celebs'
p1166
I91
sS'souls'
p1167
I91
sS'dpatrick2012'
p1168
I91
sS'manager'
p1169
I91
sS'lannister'
p1170
I91
sS'/'
p1171
I88
sS'grateful'
p1172
I91
sS'mila'
p1173
I91
sS'battle'
p1174
I91
sS'remarkably'
p1175
I91
sS'muppet'
p1176
I91
sS'row'
p1177
I91
sS'certainly'
p1178
I91
sS'yummy'
p1179
I90
sS'zone'
p1180
I90
sS'everything'
p1181
I86
sS'technique'
p1182
I91
sS'father'
p1183
I90
sS'environment'
p1184
I91
sS'answered'
p1185
I91
sS'finally'
p1186
I79
sS'grindr'
p1187
I91
sS'negativity'
p1188
I91
sS'devotes'
p1189
I91
sS'bests'
p1190
I91
sS'screen'
p1191
I91
sS'lime)'
p1192
I91
sS'pei'
p1193
I91
sS'me'
p1194
I22
sS'supported'
p1195
I91
sS'string'
p1196
I91
sS'treadmill'
p1197
I91
sS'that\xe2\x80\xa6'
p1198
I91
sS'tacos'
p1199
I87
sS':}'
p1200
I91
sS'vegas'
p1201
I85
sS'mourn'
p1202
I91
sS'pee'
p1203
I90
sS'locked'
p1204
I90
sS'trouble'
p1205
I91
sS'blast'
p1206
I91
sS'minute'
p1207
I91
sS'cool'
p1208
I77
sS'nowhere'
p1209
I91
sS'hoorah'
p1210
I91
sS'din'
p1211
I90
sS'sbe_nightlife\xe2\x80\xa6'
p1212
I91
sS'clouds'
p1213
I90
sS'impressive'
p1214
I90
sS'level'
p1215
I91
sS'did'
p1216
I75
sS'die'
p1217
I88
sS'fragile'
p1218
I91
sS'peeps'
p1219
I91
sS'brother'
p1220
I85
sS'turnt'
p1221
I90
sS'leave'
p1222
I88
sS'p'
p1223
I91
sS'soooo'
p1224
I90
sS'belushi'
p1225
I90
sS'excellence'
p1226
I91
sS'subway'
p1227
I90
sS'hbackus'
p1228
I91
sS'team'
p1229
I88
sS'quick'
p1230
I91
sS'guy'
p1231
I79
sS'shooters'
p1232
I91
sS'round'
p1233
I90
sS'dis'
p1234
I91
sS'shave'
p1235
I91
sS'spiritual'
p1236
I88
sS'brave'
p1237
I91
sS'angeles)'
p1238
I87
sS'regret'
p1239
I91
sS'porn'
p1240
I91
sS'repetitive'
p1241
I91
sS'parisianattitude'
p1242
I91
sS'sign'
p1243
I88
sS'(disclosure'
p1244
I91
sS'crescent'
p1245
I86
sS'comforting'
p1246
I91
sS'danity'
p1247
I91
sS'run'
p1248
I81
sS'6:15'
p1249
I91
sS"birthday's"
p1250
I91
sS'chicken'
p1251
I90
sS'gnocchi'
p1252
I91
sS'drinks'
p1253
I88
sS'prayers."'
p1254
I91
sS'tca/sdcc'
p1255
I91
sS'lavigne'
p1256
I90
sS'2:30am'
p1257
I91
sS'doug'
p1258
I91
sS'disease'
p1259
I91
sS'\xe2\x98\xba\xef\xb8\x8f'
p1260
I91
sS'pleased'
p1261
I91
sS'current'
p1262
I90
sS'(aka\xe2\x80\xa6'
p1263
I91
sS'cuddle'
p1264
I91
sS'"duh"'
p1265
I91
sS'goes'
p1266
I88
sS'00:58:53.0,34.09836455,-118.37086243,1942,seeing'
p1267
I91
sS'beasley'
p1268
I91
sS'anti-aging'
p1269
I91
sS'falling'
p1270
I90
sS'freaky'
p1271
I91
sS'dental'
p1272
I91
sS'8516'
p1273
I91
sS'supporting'
p1274
I91
sS'burn'
p1275
I91
sS'chateu'
p1276
I91
sS'learn'
p1277
I90
sS'songs'
p1278
I91
sS'french'
p1279
I90
sS'water'
p1280
I87
sS'melchior'
p1281
I91
sS'baseball'
p1282
I89
sS'address'
p1283
I90
sS'alone'
p1284
I90
sS'style.....oui'
p1285
I91
sS'along'
p1286
I90
sS'lambeau'
p1287
I90
sS'earthquake'
p1288
I90
sS'change'
p1289
I85
sS'wait'
p1290
I81
sS'box'
p1291
I91
sS'boy'
p1292
I90
sS'hbo'
p1293
I89
sS'condoms'
p1294
I91
sS'noticeable'
p1295
I91
sS'hotties'
p1296
I91
sS'healthy'
p1297
I90
sS'spotify'
p1298
I91
sS'brazilian'
p1299
I90
sS'honda'
p1300
I91
sS'assists'
p1301
I91
sS'boo'
p1302
I91
sS'usually'
p1303
I91
sS"d'angelo"
p1304
I91
sS'weird'
p1305
I87
sS"frank's"
p1306
I91
sS'massage'
p1307
I91
sS'xoxo,90046\n305941140140605441,gmechrisasher,2013-02-25'
p1308
I91
sS'teenage'
p1309
I91
sS'love'
p1310
I23
sS'that...kinda'
p1311
I91
sS'extra'
p1312
I90
sS'colbert'
p1313
I91
sS"ca's"
p1314
I89
sS'bullock'
p1315
I91
sS"local's"
p1316
I91
sS'peer'
p1317
I91
sS'italians'
p1318
I90
sS'1st'
p1319
I90
sS'touchdown'
p1320
I91
sS'njeim'
p1321
I91
sS'crime'
p1322
I91
sS'reflective'
p1323
I91
sS'market'
p1324
I91
sS'challenging'
p1325
I91
sS'everybody'
p1326
I90
sS'vamps'
p1327
I91
sS'voices'
p1328
I91
sS'franco'
p1329
I91
sS'working'
p1330
I86
sS'pree'
p1331
I90
sS'positive'
p1332
I91
sS'angry'
p1333
I90
sS'lp'
p1334
I91
sS'dude'
p1335
I85
sS'tears'
p1336
I91
sS'france'
p1337
I91
sS'live'
p1338
I79
sS'arabian'
p1339
I91
sS'andy'
p1340
I90
sS'iphone'
p1341
I89
sS'wondering'
p1342
I87
sS'ahhh'
p1343
I91
sS'films'
p1344
I91
sS'nutellington'
p1345
I91
sS'australian'
p1346
I91
sS'thru'
p1347
I90
sS'angels'
p1348
I91
sS'today'
p1349
I47
sS'loving'
p1350
I89
sS'bellini'
p1351
I91
sS'hotel)'
p1352
I91
sS'sessions'
p1353
I87
sS'club'
p1354
I88
sS'mode_pr'
p1355
I91
sS'subway)'
p1356
I91
sS'chocolate'
p1357
I90
sS'downtown'
p1358
I91
sS"they're"
p1359
I91
sS'teaser'
p1360
I91
sS'dunking'
p1361
I91
sS'stanhope'
p1362
I91
sS'wait!\xe2\x80\x9d'
p1363
I91
sS'\xe2\x9d\xa4\xef\xb8\x8f\xe2\x9d\xa4\xef\xb8\x8f'
p1364
I90
sS'vanessamodern'
p1365
I91
sS'effort'
p1366
I91
sS'easiest'
p1367
I91
sS'douche'
p1368
I91
sS'8pm'
p1369
I91
sS'*face'
p1370
I91
sS'car'
p1371
I87
sS'pretend'
p1372
I91
sS'soul'
p1373
I89
sS'reviews'
p1374
I91
sS'hardest'
p1375
I90
sS'gathers'
p1376
I91
sS'can'
p1377
I68
sS'growing'
p1378
I91
sS'making'
p1379
I79
sS'tune'
p1380
I91
sS'sunset\xe2\x80\xa6'
p1381
I90
sS'bites'
p1382
I91
sS'spy'
p1383
I89
sS'crazy'
p1384
I82
sS'desks'
p1385
I91
sS'semi-luxury'
p1386
I91
sS'muah'
p1387
I91
sS'awesome'
p1388
I74
sS"didn't"
p1389
I80
sS'fuck'
p1390
I77
sS'blogging'
p1391
I91
sS'sample'
p1392
I91
sS'heard'
p1393
I88
sS'chin'
p1394
I91
sS'pass...make'
p1395
I91
sS'phrase'
p1396
I91
sS'spa'
p1397
I91
sS'clothing'
p1398
I91
sS'cardio'
p1399
I90
sS'breaking'
p1400
I90
sS'listens'
p1401
I91
sS'rays'
p1402
I91
sS'winter'
p1403
I90
sS'deserves'
p1404
I91
sS'coyotes'
p1405
I91
sS'\xd8\xaa\xd9\x86\xd8\xa7\xd9\x85'
p1406
I91
sS'watching'
p1407
I75
sS'ping'
p1408
I91
sS'dinner'
p1409
I78
sS'pine'
p1410
I91
sS'en'
p1411
I91
sS'1'
p1412
I85
sS'till'
p1413
I91
sS'sunday'
p1414
I80
sS'cardinal'
p1415
I91
sS'fourth'
p1416
I91
sS'nyc'
p1417
I90
sS'far:)'
p1418
I91
sS'pounders'
p1419
I91
sS'economy'
p1420
I91
sS'$100'
p1421
I90
sS'unbelievable'
p1422
I90
sS'way:)'
p1423
I91
sS'mat'
p1424
I90
sS'cocktail'
p1425
I89
sS'mystique'
p1426
I91
sS'may'
p1427
I87
sS'blasting'
p1428
I91
sS'spot'
p1429
I89
sS'needs'
p1430
I89
sS'lucky'
p1431
I91
sS'secluded'
p1432
I91
sS'crashed'
p1433
I91
sS'levi'
p1434
I90
sS'birthday'
p1435
I61
sS'mad'
p1436
I90
sS'06:16:17.0,34.09564431,-118.37306253,1942,i'
p1437
I91
sS'date'
p1438
I89
sS'such'
p1439
I76
sS'suck'
p1440
I88
sS'guys'
p1441
I69
sS'mal'
p1442
I91
sS'man'
p1443
I78
sS'values\xe2\x9d\xa4\xef\xb8\x8f'
p1444
I91
sS'crepe'
p1445
I90
sS'thedeanmay'
p1446
I91
sS'whenever'
p1447
I90
sS'maybe'
p1448
I85
sS'rejoices'
p1449
I91
sS'su'
p1450
I91
sS'kura'
p1451
I87
sS'tale'
p1452
I91
sS'inform'
p1453
I91
sS'si'
p1454
I91
sS'ones'
p1455
I91
sS'so'
p1456
I23
sS'automatically'
p1457
I91
sS'chavez'
p1458
I91
sS'april'
p1459
I91
sS'increase'
p1460
I91
sS'pulled'
p1461
I89
sS'talk'
p1462
I81
sS'cute'
p1463
I88
sS'marmont)'
p1464
I82
sS'shoes'
p1465
I88
sS'you?"'
p1466
I91
sS'longing'
p1467
I91
sS'midnight'
p1468
I89
sS'unacceptable'
p1469
I91
sS'sublime'
p1470
I91
sS'years'
p1471
I86
sS"mcdonald's)"
p1472
I91
sS'brain'
p1473
I90
sS'nov.6th'
p1474
I91
sS'why?,90046\n498001745877168129,flyingbassist,2014-08-09'
p1475
I91
sS'something......but'
p1476
I91
sS'neighborhoods'
p1477
I91
sS'cold'
p1478
I88
sS'still'
p1479
I68
sS'irene'
p1480
I91
sS'sassy'
p1481
I91
sS'froze'
p1482
I91
sS'tore'
p1483
I91
sS's2'
p1484
I91
sS"ka's"
p1485
I91
sS'rooftop'
p1486
I88
sS'thank'
p1487
I65
sS'curly'
p1488
I91
sS"he's"
p1489
I79
sS'smoothie'
p1490
I91
sS'interesting'
p1491
I90
sS'jim'
p1492
I91
sS'amazing'
p1493
I76
sS'faves'
p1494
I90
sS'birthdayyyy'
p1495
I91
sS'window'
p1496
I90
sS'lead'
p1497
I91
sS'time!\xe2\x80\xa6'
p1498
I91
sS'stroll'
p1499
I91
sS'hometown'
p1500
I91
sS'tweets'
p1501
I88
sS'a.k.a'
p1502
I91
sS'main'
p1503
I91
sS'marshall'
p1504
I91
sS'happened'
p1505
I88
sS'nom'
p1506
I90
sS'johns'
p1507
I91
sS'buenos'
p1508
I91
sS'views'
p1509
I90
sS'nod'
p1510
I91
sS'killer'
p1511
I91
sS"party...it's"
p1512
I91
sS'tucker'
p1513
I91
sS'lunch'
p1514
I82
sS'adrenaline'
p1515
I91
sS'conquer'
p1516
I90
sS'half'
p1517
I89
sS'not'
p1518
I27
sS'now'
p1519
I45
sS'twilight'
p1520
I91
sS'bullshit'
p1521
I90
sS'nor'
p1522
I91
sS'pommes'
p1523
I91
sS'name'
p1524
I86
sS'stahl'
p1525
I90
sS'this.)'
p1526
I91
sS'james'
p1527
I90
sS'drop'
p1528
I91
sS'beings'
p1529
I91
sS'debating'
p1530
I91
sS'fizdale'
p1531
I91
sS'lynmae23'
p1532
I91
sS'fisherman'
p1533
I91
sS'rock'
p1534
I86
sS'stays'
p1535
I91
sS'quarter'
p1536
I89
sS'black-ish'
p1537
I91
sS'em'
p1538
I90
sS'el'
p1539
I87
sS'square'
p1540
I89
sS'fired'
p1541
I91
sS"another's"
p1542
I91
sS'inhale/'
p1543
I91
sS'hiccups'
p1544
I91
sS'ed'
p1545
I91
sS'<just'
p1546
I91
sS'heart:)'
p1547
I91
sS'yeah'
p1548
I81
sS'bradley'
p1549
I90
sS'balanced'
p1550
I91
sS'fires'
p1551
I91
sS'manifesto'
p1552
I91
sS'prostitute"'
p1553
I91
sS'year'
p1554
I81
sS'got2'
p1555
I91
sS'territory'
p1556
I91
sS'girl'
p1557
I75
sS'avoided'
p1558
I90
sS'illusional'
p1559
I91
sS'ep'
p1560
I90
sS'sunrise'
p1561
I91
sS'plans'
p1562
I91
sS'album'
p1563
I89
sS'living'
p1564
I83
sS'jackson'
p1565
I89
sS'3rd'
p1566
I89
sS'space'
p1567
I90
sS'herself'
p1568
I91
sS'irony'
p1569
I91
sS'horoscope'
p1570
I91
sS'interference'
p1571
I91
sS'looking'
p1572
I84
sS'mess'
p1573
I89
sS'seriously'
p1574
I91
sS'miles'
p1575
I91
sS'imperative'
p1576
I91
sS'smells'
p1577
I90
sS'20:20:38.0,34.09891803,-118.36525297,1942,my'
p1578
I91
sS'internet'
p1579
I88
sS'hahaahahahahhahahahhahaha'
p1580
I91
sS'showroom'
p1581
I90
sS'nudes'
p1582
I91
sS'correct'
p1583
I90
sS'sentences.\xe2\x80\x9d'
p1584
I91
sS'shows'
p1585
I90
sS'quendi'
p1586
I91
sS'dodgers'
p1587
I91
sS'"noah'
p1588
I91
sS'always\xe2\x80\xa6'
p1589
I91
sS'cars'
p1590
I90
sS'sona_melk'
p1591
I91
sS'cart'
p1592
I91
sS'quite'
p1593
I91
sS'darlingface'
p1594
I91
sS'oasis'
p1595
I90
sS'dig'
p1596
I91
sS'rly'
p1597
I91
sS'success'
p1598
I91
sS'miley'
p1599
I91
sS'happen....some'
p1600
I91
sS'ominous'
p1601
I91
sS'keith'
p1602
I91
sS'clown'
p1603
I90
sS'card'
p1604
I90
sS'care'
p1605
I88
sS'eskimos'
p1606
I91
sS'...on'
p1607
I91
sS'training'
p1608
I90
sS'paulallison3'
p1609
I91
sS'language'
p1610
I90
sS'happening)'
p1611
I91
sS'100%'
p1612
I91
sS'waits'
p1613
I91
sS'\xd9\x88\xd8\xac\xd9\x88\xd8\xaf\xd9\x87\xd8\xa7'
p1614
I91
sS'pok\xc3\xa9'
p1615
I91
sS'motion'
p1616
I91
sS'thing'
p1617
I79
sS'butterflies'
p1618
I91
sS'place'
p1619
I86
sS'2pm'
p1620
I91
sS'west\xe2\x80\xa6'
p1621
I91
sS'think'
p1622
I59
sS'waited'
p1623
I91
sS'first'
p1624
I72
sS'cheese'
p1625
I89
sS'intuition'
p1626
I91
sS'zzzzzzzzz'
p1627
I91
sS'xo'
p1628
I89
sS'minseize'
p1629
I91
sS'guessing'
p1630
I91
sS'grrrrr'
p1631
I91
sS'xoxo'
p1632
I90
sS'dog."'
p1633
I91
sS'zac'
p1634
I91
sS'yourself'
p1635
I85
sS'nativity'
p1636
I91
sS'xx'
p1637
I91
sS'long'
p1638
I80
sS"nickster's"
p1639
I91
sS'vote'
p1640
I91
sS'xs'
p1641
I90
sS'sounds'
p1642
I89
sS'weds'
p1643
I91
sS'open'
p1644
I88
sS'george'
p1645
I90
sS"'em"
p1646
I89
sS'city'
p1647
I87
sS'little'
p1648
I65
sS'boulevard'
p1649
I88
sS'checked'
p1650
I91
sS'district'
p1651
I89
sS'rancho'
p1652
I91
sS'caught'
p1653
I87
sS'slept'
p1654
I91
sS'designer'
p1655
I91
sS'plastic'
p1656
I91
sS'anyone'
p1657
I89
sS'juiced'
p1658
I91
sS'2'
p1659
I66
sS'draft'
p1660
I89
sS'tell'
p1661
I87
sS'white'
p1662
I85
sS'wore'
p1663
I91
sS'friend'
p1664
I80
sS'gives'
p1665
I91
sS'16:54:31.0,34.09891079,-118.36759302,1942,the'
p1666
I91
sS'eyes'
p1667
I85
sS'gia'
p1668
I91
sS'hub'
p1669
I91
sS'that'
p1670
I21
sS'season'
p1671
I86
sS'moscow'
p1672
I90
sS'bruh'
p1673
I91
sS'huh'
p1674
I89
sS'massages'
p1675
I91
sS'cops'
p1676
I91
sS'dudes'
p1677
I91
sS'eyed'
p1678
I91
sS'deckham'
p1679
I91
sS'occurring'
p1680
I91
sS'flowers'
p1681
I91
sS'ftww'
p1682
I91
sS"mel's"
p1683
I90
sS"here's"
p1684
I91
sS'11'
p1685
I82
sS'wide'
p1686
I90
sS'television'
p1687
I90
sS'12'
p1688
I90
sS'15'
p1689
I90
sS'lmao'
p1690
I88
sS'17'
p1691
I91
sS'16'
p1692
I90
sS'favors'
p1693
I91
sS'gotta'
p1694
I81
sS'10:00'
p1695
I91
sS'metabolism'
p1696
I91
sS'karate'
p1697
I91
sS'r'
p1698
I87
sS'vocals'
p1699
I91
sS'apples'
p1700
I91
sS'venture'
p1701
I90
sS'were'
p1702
I76
sS'cards'
p1703
I91
sS'college'
p1704
I91
sS'sophie'
p1705
I91
sS'now...made'
p1706
I91
sS'russia'
p1707
I91
sS'mommie'
p1708
I91
sS'anyways'
p1709
I91
sS'and'
p1710
I7
sS'coconut'
p1711
I91
sS'....hollywood'
p1712
I91
sS'juiceskwad'
p1713
I91
sS'san'
p1714
I91
sS'chloe'
p1715
I90
sS'parking'
p1716
I88
sS'turned'
p1717
I89
sS'jaden'
p1718
I91
sS'sad'
p1719
I86
sS'say'
p1720
I77
sS'himself'
p1721
I91
sS'rent'
p1722
I91
sS'allen'
p1723
I89
sS'breakfast'
p1724
I89
sS'j/k'
p1725
I91
sS'saw'
p1726
I84
sS'any'
p1727
I82
sS'marathon'
p1728
I91
sS'sat'
p1729
I90
sS'bash'
p1730
I91
sS'blvds'
p1731
I91
sS'-sunset'
p1732
I91
sS'hoosiers'
p1733
I90
sS'greek'
p1734
I91
sS'olenna'
p1735
I91
sS'veteran'
p1736
I91
sS'sending'
p1737
I91
sS'downwards'
p1738
I91
sS'ideas'
p1739
I91
sS'\xd9\x8a\xd8\xa7\xd8\xb1\xd8\xa8'
p1740
I91
sS'note'
p1741
I91
sS'dining'
p1742
I89
sS'squad'
p1743
I90
sS'take'
p1744
I72
sS'online'
p1745
I91
sS'performance'
p1746
I90
sS'blunt'
p1747
I91
sS'luckiest'
p1748
I91
sS'begin'
p1749
I91
sS'sure'
p1750
I81
sS'wooot'
p1751
I91
sS'normal'
p1752
I90
sS'track'
p1753
I91
sS'price'
p1754
I91
sS'knew'
p1755
I85
sS'inspirin'
p1756
I91
sS'mattwessels'
p1757
I91
sS'paid'
p1758
I90
sS'netflix'
p1759
I91
sS'"loss'
p1760
I91
sS'pakistan...i'
p1761
I91
sS'nutella'
p1762
I90
sS'editing'
p1763
I91
sS'voice)'
p1764
I91
sS'nadine'
p1765
I91
sS'freshman'
p1766
I91
sS'cleared'
p1767
I91
sS'nice)'
p1768
I91
sS'cc'
p1769
I91
sS'msg'
p1770
I91
sS'michelle'
p1771
I91
sS'forever'
p1772
I90
sS'especially'
p1773
I91
sS'surprising'
p1774
I91
sS'sources"'
p1775
I91
sS'john\xe2\x80\xa6'
p1776
I91
sS'average'
p1777
I90
sS'later'
p1778
I90
sS'steady'
p1779
I91
sS'hungry'
p1780
I90
sS"charlie's"
p1781
I90
sS'24/7'
p1782
I91
sS'sunset'
p1783
I51
sS'refining'
p1784
I91
sS'bye,90069\n530990793113088000,gurrruohm,2014-11-08'
p1785
I91
sS'professional'
p1786
I91
sS"80's"
p1787
I91
sS'7:30'
p1788
I90
sS'pi\xc3\xb1a'
p1789
I91
sS'detective'
p1790
I91
sS'walking'
p1791
I91
sS'shot'
p1792
I87
sS'\xe2\x9c\xa8'
p1793
I90
sS'beckham'
p1794
I91
sS'show'
p1795
I75
sS'cheat'
p1796
I91
sS'mains'
p1797
I91
sS'cheap'
p1798
I91
sS'fifty'
p1799
I91
sS'lwrenscott'
p1800
I90
sS'bright'
p1801
I89
sS'spaces'
p1802
I91
sS'\xe2\x9c\xb9'
p1803
I91
sS'shoe'
p1804
I91
sS'allthe'
p1805
I91
sS'corner'
p1806
I91
sS'-santa'
p1807
I91
sS'broach'
p1808
I91
sS'calamari'
p1809
I91
sS'line'
p1810
I88
sS'\xe2\x9c\x8c'
p1811
I90
sS'slow'
p1812
I91
sS'dice'
p1813
I91
sS'\xe2\x9c\x8b'
p1814
I91
sS'\xe2\x9c\x8a'
p1815
I91
sS'dick'
p1816
I89
sS'3'
p1817
I71
sS'shimmer'
p1818
I91
sS'skotter'
p1819
I91
sS'to\xe2\x80\xa6'
p1820
I91
sS'liberation'
p1821
I91
sS'only'
p1822
I66
sS'going'
p1823
I67
sS'black'
p1824
I86
sS'hockey'
p1825
I91
sS'lime.\xe2\x80\xa6'
p1826
I91
sS'awareness'
p1827
I88
sS'dispute'
p1828
I91
sS'[chateau'
p1829
I91
sS'f*ing'
p1830
I91
sS'get'
p1831
I41
sS'contracts'
p1832
I91
sS'urine'
p1833
I91
sS'truly'
p1834
I88
sS'indulgences'
p1835
I91
sS'cannot'
p1836
I91
sS'nearly'
p1837
I91
sS'lighter'
p1838
I91
sS'trade'
p1839
I91
sS'celebrate'
p1840
I89
sS'freaking'
p1841
I91
sS'pimp'
p1842
I91
sS'leather'
p1843
I91
sS'bearings'
p1844
I91
sS'xoxoxooommmmm'
p1845
I91
sS'isnt'
p1846
I91
sS'morning'
p1847
I73
sS'skyline'
p1848
I91
sS'stupid'
p1849
I90
sS'bombs'
p1850
I91
sS'amused'
p1851
I91
sS'nantz'
p1852
I91
sS'bought'
p1853
I91
sS'where'
p1854
I74
sS'xmas'
p1855
I91
sS"y'all"
p1856
I88
sS'fittin'
p1857
I91
sS'lyft'
p1858
I91
sS'concert'
p1859
I89
sS'espn'
p1860
I91
sS'bitch...duh'
p1861
I91
sS'mom'
p1862
I87
sS'step"'
p1863
I91
sS'seat'
p1864
I90
sS'welcome'
p1865
I87
sS'gangster'
p1866
I90
sS'meters'
p1867
I91
sS'checkered'
p1868
I91
sS'asleep'
p1869
I89
sS'mamma:)'
p1870
I91
sS'seal'
p1871
I90
sS'blinker'
p1872
I91
sS'calendar'
p1873
I91
sS'(like'
p1874
I91
sS'\xd9\x88\xd8\xa7\xd8\xb3\xd8\xb9\xd8\xaf\xd9\x87\xd8\xa7'
p1875
I91
sS'culver'
p1876
I91
sS'wonder'
p1877
I87
sS'mecca'
p1878
I91
sS'oui_juice'
p1879
I91
sS'palette'
p1880
I91
sS'windshield'
p1881
I91
sS'sombrrerrrrros'
p1882
I91
sS'ways'
p1883
I90
sS'16:51:16.0,34.09825877,-118.36765179,1942,to'
p1884
I91
sS'enough'
p1885
I89
sS'gaga'
p1886
I91
sS'gratitude'
p1887
I91
sS'between'
p1888
I91
sS'evidently'
p1889
I91
sS'reading'
p1890
I91
sS'vandalay'
p1891
I91
sS'across'
p1892
I91
sS'decks'
p1893
I91
sS'kook'
p1894
I91
sS'scoring'
p1895
I91
sS'notice'
p1896
I90
sS'infrastructure'
p1897
I91
sS'nescaf\xc3\xa9'
p1898
I91
sS'parent'
p1899
I91
sS'listing'
p1900
I91
sS'grieves'
p1901
I91
sS'dome'
p1902
I91
sS'jr'
p1903
I91
sS'killing'
p1904
I90
sS'blame'
p1905
I89
sS'awards'
p1906
I89
sS'armenian'
p1907
I91
sS'jk'
p1908
I88
sS'(restaurant'
p1909
I91
sS'20'
p1910
I91
sS'trolling'
p1911
I91
sS'come'
p1912
I71
sS'thanksgiving'
p1913
I91
sS'dates'
p1914
I87
sS'superstar'
p1915
I91
sS'browns...does'
p1916
I91
sS'many'
p1917
I75
sS'stupidest'
p1918
I91
sS'quiet'
p1919
I91
sS'trailers'
p1920
I91
sS'shindig'
p1921
I91
sS'somewhere'
p1922
I91
sS'tour'
p1923
I91
sS'remake'
p1924
I91
sS'a-rod'
p1925
I91
sS'wheels'
p1926
I91
sS'expression'
p1927
I91
sS'pi\xc5\x84eda'
p1928
I91
sS"can't"
p1929
I68
sS'madness'
p1930
I91
sS'barkbuddy'
p1931
I91
sS'gangnam'
p1932
I91
sS'beyonce'
p1933
I91
sS'mandate'
p1934
I91
sS'hurts'
p1935
I90
sS'por'
p1936
I91
sS'"julie"'
p1937
I91
sS'want"'
p1938
I91
sS'pole'
p1939
I91
sS'pom'
p1940
I90
sS"couldn't"
p1941
I91
sS"td's"
p1942
I91
sS'crew'
p1943
I90
sS'wolvesmouth'
p1944
I89
sS'caring'
p1945
I91
sS'now\xe2\x80\x9d'
p1946
I91
sS'arts'
p1947
I90
sS'arrrr'
p1948
I91
sS'grand'
p1949
I91
sS'lioness'
p1950
I91
sS'howard'
p1951
I91
sS'west'
p1952
I69
sS'vinny'
p1953
I91
sS'jessa'
p1954
I91
sS'mark'
p1955
I90
sS'breath'
p1956
I90
sS'performance"'
p1957
I91
sS'peaceful'
p1958
I91
sS'helicopter'
p1959
I91
sS'staring'
p1960
I91
sS'mary'
p1961
I91
sS'dolly'
p1962
I91
sS'wants'
p1963
I89
sS'it...maybe'
p1964
I91
sS'direction'
p1965
I91
sS'i\xe2\x80\xa6'
p1966
I91
sS'matters'
p1967
I91
sS'andr\xc3\xa9'
p1968
I91
sS'alone!"'
p1969
I91
sS'robbed'
p1970
I91
sS'planted'
p1971
I91
sS'blessing'
p1972
I91
sS'andrew'
p1973
I91
sS'photos'
p1974
I90
sS'wake'
p1975
I87
sS'bmw'
p1976
I91
sS'hashtag'
p1977
I90
sS'bonjour'
p1978
I91
sS'careful'
p1979
I90
sS'u/ryan'
p1980
I91
sS'spirit'
p1981
I88
sS'those'
p1982
I81
sS'case'
p1983
I89
sS'myself'
p1984
I87
sS'prehistoric'
p1985
I91
sS'casa'
p1986
I90
sS'turtles'
p1987
I90
sS'these'
p1988
I77
sS'sauce'
p1989
I91
sS'booooooooooooooooo'
p1990
I91
sS'snacks'
p1991
I91
sS'cash'
p1992
I91
sS'resturant'
p1993
I91
sS'cast'
p1994
I91
sS'blinkers'
p1995
I91
sS'ratchet'
p1996
I91
sS'ally'
p1997
I91
sS'pollo'
p1998
I89
sS'situation'
p1999
I91
sS',90046\n504290164076584960,cdilla23,2014-08-26'
p2000
I91
sS'invited'
p2001
I91
sS'coolest'
p2002
I90
sS'online=alive+alright'
p2003
I91
sS'ive'
p2004
I91
sS'vest'
p2005
I91
sS'conferences'
p2006
I91
sS'eventually'
p2007
I91
sS'twists'
p2008
I91
sS'j'
p2009
I90
sS'candace'
p2010
I91
sS'coffee'
p2011
I86
sS'bros'
p2012
I91
sS'sleeping'
p2013
I90
sS'pinky'
p2014
I91
sS'middle'
p2015
I91
sS'good'
p2016
I45
sS"(i'm"
p2017
I90
sS'kitchen\xe2\x80\xa6'
p2018
I91
sS'return'
p2019
I91
sS'restroom'
p2020
I91
sS'awhile'
p2021
I91
sS'worry'
p2022
I91
sS'comments'
p2023
I91
sS'$29'
p2024
I91
sS'bags'
p2025
I90
sS'different'
p2026
I90
sS'develop'
p2027
I90
sS'xivsessions'
p2028
I91
sS'$10'
p2029
I91
sS'pay'
p2030
I87
sS'sproles'
p2031
I91
sS'bowl'
p2032
I87
sS'same'
p2033
I82
sS'trip'
p2034
I91
sS'food'
p2035
I84
sS'pac'
p2036
I91
sS'trap"'
p2037
I91
sS'congress'
p2038
I91
sS'day..\xe2\x80\xa6'
p2039
I91
sS'workout'
p2040
I91
sS'jorts\xe2\x80\x9d'
p2041
I91
sS'week'
p2042
I81
sS'finish'
p2043
I91
sS'closest'
p2044
I91
sS'socially'
p2045
I91
sS'driver'
p2046
I85
sS'weed'
p2047
I90
sS'cheers'
p2048
I91
sS'chateau\xe2\x80\xa6'
p2049
I90
sS'running'
p2050
I87
sS'"fred"'
p2051
I91
sS'delicate'
p2052
I91
sS'conquered'
p2053
I91
sS'unloyal'
p2054
I91
sS'totally'
p2055
I86
sS'cartoon'
p2056
I91
sS'kuba'
p2057
I91
sS'\xe2\x9c\x8c\xef\xb8\x8f'
p2058
I91
sS'fasting'
p2059
I91
sS's+p'
p2060
I91
sS'keeping'
p2061
I91
sS'while\xe2\x80\xa6'
p2062
I91
sS'traded'
p2063
I91
sS'floor'
p2064
I91
sS'okc'
p2065
I91
sS'"courage'
p2066
I91
sS'without'
p2067
I84
sS'comes'
p2068
I91
sS'bottle'
p2069
I91
sS'pitbull'
p2070
I91
sS'bumping'
p2071
I91
sS'whereas'
p2072
I91
sS'muddy'
p2073
I91
sS'summer'
p2074
I84
sS'outdoor'
p2075
I91
sS'frankie'
p2076
I91
sS'object'
p2077
I91
sS'being'
p2078
I74
sS'money'
p2079
I87
sS'guided'
p2080
I91
sS'dancers'
p2081
I91
sS'neon'
p2082
I91
sS'schedule)'
p2083
I91
sS'actions'
p2084
I90
sS'violent'
p2085
I91
sS'(i'
p2086
I90
sS'wifey'
p2087
I90
sS'touch'
p2088
I91
sS'cuh'
p2089
I91
sS'07:24:09.0,34.09814602,-118.36843193,1942,nickymathers'
p2090
I91
sS'zoebowe'
p2091
I90
sS'guides'
p2092
I91
sS'captured'
p2093
I91
sS'rpt'
p2094
I91
sS'blondes'
p2095
I91
sS'nappythoughtz'
p2096
I91
sS'death'
p2097
I89
sS'hint'
p2098
I90
sS'rabiknows.com'
p2099
I90
sS'hopping'
p2100
I91
sS'seems'
p2101
I88
sS'all-around'
p2102
I91
sS'pov'
p2103
I91
sS'4'
p2104
I68
sS'flashing'
p2105
I91
sS'ca'
p2106
I89
sS'whew'
p2107
I91
sS'real'
p2108
I85
sS'orrr'
p2109
I91
sS'around'
p2110
I79
sS'bryan'
p2111
I91
sS'read'
p2112
I89
sS'jeans'
p2113
I91
sS'selma'
p2114
I91
sS'sums'
p2115
I91
sS'gonna'
p2116
I84
sS'early'
p2117
I89
sS'traffic'
p2118
I90
sS'mon'
p2119
I91
sS'\xe2\x9d\xa4'
p2120
I90
sS'world'
p2121
I82
sS'cd'
p2122
I90
sS'lady'
p2123
I88
sS'pst'
p2124
I91
sS'clan'
p2125
I91
sS'christina'
p2126
I91
sS'1988'
p2127
I91
sS'stranger'
p2128
I91
sS'nissan'
p2129
I91
sS'buddies'
p2130
I91
sS'maintained'
p2131
I91
sS'oddly'
p2132
I91
sS'macronutrient'
p2133
I91
sS'oxtail'
p2134
I91
sS'benefit'
p2135
I91
sS'maker'
p2136
I91
sS'laughing'
p2137
I90
sS'fully'
p2138
I90
sS'beverly'
p2139
I87
sS'tower'
p2140
I91
sS'kibitz'
p2141
I91
sS'scored'
p2142
I91
sS'doll'
p2143
I91
sS'boi'
p2144
I91
sS'lebanon'
p2145
I91
sS'appian)'
p2146
I91
sS'japanese'
p2147
I91
sS'oscars'
p2148
I86
sS'lobster'
p2149
I90
sS'cowboys'
p2150
I91
sS'daytime'
p2151
I91
sS'slice'
p2152
I91
sS'you...must'
p2153
I91
sS'memories'
p2154
I87
sS'noon'
p2155
I91
sS'googled'
p2156
I91
sS'jiggle'
p2157
I91
sS'moon'
p2158
I89
sS'throat'
p2159
I91
sS'exit'
p2160
I91
sS'provides'
p2161
I91
sS'aussie'
p2162
I91
sS'granger...o'
p2163
I91
sS'forks'
p2164
I90
sS'tubs'
p2165
I91
sS'wilshire'
p2166
I91
sS'knife'
p2167
I91
sS'mwah'
p2168
I90
sS'metropolis'
p2169
I91
sS'football'
p2170
I87
sS'1yr'
p2171
I91
sS'power'
p2172
I89
sS'asap'
p2173
I89
sS'problems'
p2174
I91
sS'shayne'
p2175
I91
sS'fitness'
p2176
I91
sS'olives'
p2177
I90
sS'broken'
p2178
I90
sS'pooch'
p2179
I91
sS'1930'
p2180
I91
sS'throwback'
p2181
I91
sS'view...court'
p2182
I91
sS';)'
p2183
I77
sS'exciting'
p2184
I91
sS'throw'
p2185
I88
sS'lucy'
p2186
I91
sS'be\xe2\x80\xa6'
p2187
I90
sS'on'
p2188
I15
sS'choc'
p2189
I91
sS'ok'
p2190
I82
sS'oj'
p2191
I91
sS'oh'
p2192
I71
sS'roar'
p2193
I91
sS'of'
p2194
I13
sS'industry'
p2195
I91
sS'unconsciousness'
p2196
I91
sS'favorite'
p2197
I82
sS'(reg'
p2198
I91
sS'mixer'
p2199
I91
sS'meal'
p2200
I90
sS'stand'
p2201
I91
sS'pockets'
p2202
I91
sS'act'
p2203
I91
sS'mixed'
p2204
I91
sS'luck'
p2205
I90
sS'or'
p2206
I62
sS'road'
p2207
I91
sS'ladies'
p2208
I87
sS'dagger'
p2209
I91
sS'2nite'
p2210
I91
sS'(but'
p2211
I91
sS'twister'
p2212
I91
sS'lifted'
p2213
I91
sS'snapchat'
p2214
I90
sS'(76%)'
p2215
I91
sS'fishes'
p2216
I91
sS'brunette'
p2217
I91
sS'references'
p2218
I91
sS'bedtime'
p2219
I91
sS'homeless'
p2220
I91
sS'parties'
p2221
I88
sS'uptown'
p2222
I91
sS'happening'
p2223
I91
sS'nowadays'
p2224
I91
sS'your'
p2225
I38
sS'theoretically'
p2226
I91
sS'oden'
p2227
I89
sS'neymar'
p2228
I91
sS'intense"'
p2229
I91
sS'prepare'
p2230
I90
sS'*forgets'
p2231
I91
sS'well:)'
p2232
I91
sS'laurie'
p2233
I91
sS'there'
p2234
I64
sS'hey'
p2235
I82
sS'lol'
p2236
I66
sS'lounging'
p2237
I91
sS'start'
p2238
I82
sS'cats'
p2239
I91
sS'mondays'
p2240
I91
sS'low'
p2241
I90
sS'lot'
p2242
I85
sS'series'
p2243
I90
sS'hysterical'
p2244
I91
sS'knowledge'
p2245
I91
sS'tight'
p2246
I91
sS'complete'
p2247
I89
sS'tranquility'
p2248
I91
sS'judging'
p2249
I91
sS'delayed'
p2250
I91
sS'jus'
p2251
I91
sS'hiii'
p2252
I91
sS'ended'
p2253
I89
sS'gore'
p2254
I91
sS'cycle'
p2255
I90
sS'sesh'
p2256
I91
sS'xoxoommmm'
p2257
I91
sS'trying'
p2258
I88
sS'with'
p2259
I16
sS'buying'
p2260
I91
sS'handsome'
p2261
I90
sS'pull'
p2262
I90
sS'hire'
p2263
I90
sS'october'
p2264
I91
sS'assume)'
p2265
I91
sS'cohle'
p2266
I91
sS'vaucluse'
p2267
I87
sS'attention."'
p2268
I91
sS"wasn't"
p2269
I88
sS'7160'
p2270
I91
sS'bucket'
p2271
I91
sS'chrissy'
p2272
I91
sS'strawberry'
p2273
I91
sS'dawg'
p2274
I91
sS'dana\xe2\x80\x9d'
p2275
I91
sS'grass'
p2276
I90
sS'agree'
p2277
I89
sS'djing'
p2278
I91
sS'swaggy'
p2279
I91
sS'on\xe2\x80\xa6'
p2280
I90
sS'ruffian'
p2281
I91
sS'gong'
p2282
I91
sS'videos'
p2283
I91
sS'cinema'
p2284
I91
sS'taste'
p2285
I90
sS'ah'
p2286
I90
sS'accents'
p2287
I91
sS'efron'
p2288
I91
sS'am'
p2289
I63
sS'capuchinno'
p2290
I91
sS'deep'
p2291
I90
sS'general'
p2292
I90
sS'2day'
p2293
I91
sS'as'
p2294
I55
sS'intro'
p2295
I91
sS'at'
p2296
I12
sS'aw'
p2297
I90
sS'tang'
p2298
I91
sS'girlfriend'
p2299
I90
sS'watched'
p2300
I87
sS'deed'
p2301
I91
sS'messy'
p2302
I91
sS'film'
p2303
I87
sS'cream'
p2304
I90
sS'again'
p2305
I82
sS'yoga'
p2306
I81
sS'goddam'
p2307
I91
sS'topped'
p2308
I91
sS'deserve'
p2309
I89
sS'drivers'
p2310
I90
sS'yogi'
p2311
I91
sS'chiller'
p2312
I91
sS'saturday'
p2313
I88
sS'rubber'
p2314
I91
sS'field'
p2315
I89
sS'5'
p2316
I84
sS'underwater'
p2317
I91
sS'attractive\xe2\x80\x9d'
p2318
I91
sS'"literally"'
p2319
I91
sS'announcements'
p2320
I91
sS'you'
p2321
I6
sS'puppy'
p2322
I91
sS'immunity'
p2323
I91
sS'poor'
p2324
I90
sS'peddling'
p2325
I91
sS'poop'
p2326
I90
sS'obsessed'
p2327
I90
sS'a+'
p2328
I91
sS'finale'
p2329
I91
sS'day:)'
p2330
I91
sS'important'
p2331
I90
sS'poodle'
p2332
I91
sS'accounts'
p2333
I91
sS'fresh'
p2334
I86
sS'chris'
p2335
I91
sS'\xe2\x99\xa1\xe2\x99\xa1\xe2\x99\xa1\xe2\x99\xa1\xe2\x99\xa1\xe2\x99\xa1\xe2\x99\xa1'
p2336
I91
sS'pooh'
p2337
I91
sS"tom's"
p2338
I91
sS'pool'
p2339
I86
sS'missed'
p2340
I89
sS'&me'
p2341
I91
sS'wife'
p2342
I90
sS'requires'
p2343
I91
sS'mask'
p2344
I88
sS'dominique'
p2345
I91
sS'hello'
p2346
I91
sS'(west'
p2347
I71
sS'u'
p2348
I50
sS',90046\n525155808053456896,ayyemariee,2014-10-23'
p2349
I91
sS'dvr'
p2350
I91
sS'starting'
p2351
I90
sS'ferrari'
p2352
I91
sS'all'
p2353
I28
sS'some\xe2\x80\xa6'
p2354
I91
sS'sushi)'
p2355
I90
sS'chinese'
p2356
I89
sS'edc'
p2357
I91
sS'suns'
p2358
I91
sS'musburger'
p2359
I91
sS'fast.\xe2\x80\xa6'
p2360
I91
sS'durango'
p2361
I91
sS'month'
p2362
I90
sS'cuaron'
p2363
I91
sS'lvannicelli'
p2364
I91
sS'concept'
p2365
I91
sS'parmesan'
p2366
I91
sS'cameron'
p2367
I90
sS'follow'
p2368
I82
sS'liam'
p2369
I91
sS'decisions'
p2370
I90
sS'causes'
p2371
I91
sS'carpet'
p2372
I89
sS'shattered'
p2373
I91
sS'benwolin'
p2374
I91
sS'apartment'
p2375
I90
sS'fits'
p2376
I91
sS'really)'
p2377
I91
sS'cliff'
p2378
I91
sS're'
p2379
I91
sS'tv'
p2380
I86
sS'thursday'
p2381
I88
sS'removal'
p2382
I91
sS'to'
p2383
I5
sS'alvarez'
p2384
I91
sS'skip'
p2385
I91
sS'smile'
p2386
I88
sS'td'
p2387
I91
sS'enjoying'
p2388
I90
sS'rizo'
p2389
I91
sS'"hi'
p2390
I91
sS'sound'
p2391
I90
sS'woman'
p2392
I91
sS'sitting'
p2393
I88
sS'very'
p2394
I82
sS'lazer'
p2395
I91
sS'fav'
p2396
I90
sS'autopia'
p2397
I91
sS'fat'
p2398
I89
sS'focus'
p2399
I91
sS'selfies'
p2400
I90
sS'aware'
p2401
I91
sS'fan'
p2402
I86
sS"we've"
p2403
I91
sS'fall'
p2404
I87
sS'fab'
p2405
I91
sS'ticket'
p2406
I91
sS'difference'
p2407
I91
sS'rebounds'
p2408
I91
sS'washer'
p2409
I91
sS'tipsydiaries'
p2410
I91
sS'highways'
p2411
I91
sS'heaven'
p2412
I89
sS'17th'
p2413
I91
sS'cable'
p2414
I91
sS'shenanigans'
p2415
I90
sS'laying'
p2416
I89
sS'melanie'
p2417
I91
sS'plotting'
p2418
I91
sS'l.o.b'
p2419
I91
sS'vibes'
p2420
I91
sS'steakhouse'
p2421
I91
sS'liars'
p2422
I91
sS'airbox'
p2423
I91
sS'small'
p2424
I91
sS'anal'
p2425
I91
sS'smith'
p2426
I91
sS'fashion'
p2427
I91
sS'20th'
p2428
I91
sS'"on'
p2429
I91
sS"i'll"
p2430
I78
sS'benjamin'
p2431
I91
sS'tej'
p2432
I91
sS'instagram'
p2433
I85
sS'ten'
p2434
I91
sS'wmag'
p2435
I91
sS'tea'
p2436
I91
sS'500x'
p2437
I91
sS'ted'
p2438
I91
sS'lack'
p2439
I91
sS'past'
p2440
I87
sS'zero'
p2441
I90
sS'arizona'
p2442
I91
sS'design'
p2443
I91
sS'nba'
p2444
I87
sS'appreciating'
p2445
I90
sS'mastery'
p2446
I91
sS'casual'
p2447
I91
sS'what'
p2448
I31
sS'downing'
p2449
I91
sS'miami)'
p2450
I91
sS'sun'
p2451
I89
sS'time.\xe2\x80\x9d'
p2452
I91
sS'everything.already'
p2453
I91
sS'stool'
p2454
I91
sS'anniversary'
p2455
I89
sS'sui'
p2456
I91
sS"westbrook's"
p2457
I91
sS'hannersnine'
p2458
I91
sS'suv'
p2459
I91
sS'cleopatraaaaa'
p2460
I91
sS"kookooi've"
p2461
I91
sS'diaz'
p2462
I91
sS'grove...i'
p2463
I91
sS'learned'
p2464
I89
sS'advance'
p2465
I91
sS'cinemax'
p2466
I90
sS'public'
p2467
I91
sS'movement'
p2468
I90
sS'dwells'
p2469
I91
sS'videogame'
p2470
I91
sS'full'
p2471
I88
sS'hash'
p2472
I91
sS'savvy'
p2473
I91
sS'loose'
p2474
I91
sS'bojanglesfratnbo'
p2475
I90
sS'answers'
p2476
I91
sS'motherfucker'
p2477
I91
sS'hours'
p2478
I89
sS'christy'
p2479
I91
sS'biebs'
p2480
I91
sS'christinamartininc'
p2481
I91
sS"levi's"
p2482
I89
sS'strong'
p2483
I91
sS'newish'
p2484
I91
sS'legend'
p2485
I91
sS'arena'
p2486
I91
sS'publisher'
p2487
I91
sS'search'
p2488
I90
sS'bible'
p2489
I91
sS'colored'
p2490
I91
sS'14'
p2491
I91
sS'reena'
p2492
I91
sS'whine'
p2493
I91
sS'(see'
p2494
I91
sS'experience'
p2495
I90
sS'pics'
p2496
I88
sS'mac'
p2497
I91
sS'amount'
p2498
I90
sS'base'
p2499
I91
sS'pick'
p2500
I91
sS'meatless'
p2501
I91
sS'sunburned'
p2502
I91
sS'roomie'
p2503
I91
sS'point'
p2504
I87
sS'brights'
p2505
I91
sS'via'
p2506
I88
sS'"cool'
p2507
I91
sS'guacamole'
p2508
I91
sS'family'
p2509
I89
sS'vie'
p2510
I91
sS'huxch'
p2511
I89
sS'vin'
p2512
I91
sS'put'
p2513
I88
sS'follower'
p2514
I90
sS'viv'
p2515
I91
sS'toys'
p2516
I90
sS'globes'
p2517
I91
sS'actress'
p2518
I91
sS'gosh'
p2519
I91
sS'mustache-twirling'
p2520
I91
sS'targaryen'
p2521
I91
sS'readily'
p2522
I91
sS'discuss'
p2523
I91
sS'-la'
p2524
I91
sS'eye'
p2525
I91
sS'takes'
p2526
I91
sS'0'
p2527
I91
sS'distinct'
p2528
I91
sS'etc'
p2529
I91
sS'puke'
p2530
I90
sS'shite'
p2531
I91
sS'zedd'
p2532
I91
sS'kane'
p2533
I91
sS'today...2'
p2534
I91
sS'6'
p2535
I73
sS'taken'
p2536
I89
sS'dunks'
p2537
I91
sS'kick'
p2538
I91
sS'more'
p2539
I59
sS'teen'
p2540
I91
sS'israel'
p2541
I91
sS'hoping'
p2542
I91
sS'door'
p2543
I90
sS'knows'
p2544
I88
sS'vining'
p2545
I91
sS'idealizing'
p2546
I91
sS'company'
p2547
I90
sS'(not'
p2548
I91
sS'melon'
p2549
I91
sS'floyd'
p2550
I91
sS"ain't"
p2551
I88
sS'particular'
p2552
I91
sS'known'
p2553
I91
sS'flan'
p2554
I91
sS'thud;)'
p2555
I91
sS'glad'
p2556
I88
sS'town'
p2557
I91
sS'none'
p2558
I91
sS'lovestreetfestival'
p2559
I91
sS'omgdjsk'
p2560
I91
sS'hour'
p2561
I88
sS'recall'
p2562
I91
sS'sucks'
p2563
I91
sS'installing'
p2564
I91
sS'dev'
p2565
I91
sS'remain'
p2566
I91
sS'nine'
p2567
I89
sS'dem'
p2568
I91
sS'v'
p2569
I88
sS'amchd'
p2570
I91
sS'oblivion...jamie'
p2571
I91
sS'def'
p2572
I90
sS'history'
p2573
I90
sS'beautiful'
p2574
I70
sS'"day"'
p2575
I91
sS'dafuq'
p2576
I91
sS'brown'
p2577
I91
sS'snuck'
p2578
I90
sS'share'
p2579
I89
sS'accept'
p2580
I90
sS'sunscreen'
p2581
I91
sS'sphere'
p2582
I91
sS'sense'
p2583
I88
sS'station'
p2584
I90
sS'pong'
p2585
I91
sS'hits'
p2586
I91
sS'charged'
p2587
I91
sS'huge'
p2588
I87
sS'bank)'
p2589
I85
sS'confus'
p2590
I91
sS'awkward'
p2591
I90
sS'"lebanese/jordanian'
p2592
I91
sS'rather'
p2593
I89
sS'hugo'
p2594
I90
sS'amistad'
p2595
I91
sS'everyday'
p2596
I91
sS'needa'
p2597
I91
sS'cult"'
p2598
I91
sS'venting'
p2599
I91
sS'influences'
p2600
I91
sS'taxting'
p2601
I91
sS'prejudice'
p2602
I91
sS'pirlo'
p2603
I91
sS'rooting'
p2604
I91
sS'wigs'
p2605
I91
sS'creature'
p2606
I91
sS'(laurel'
p2607
I91
sS'cop/skater'
p2608
I91
sS'okay'
p2609
I90
sS'tried'
p2610
I89
sS'rude'
p2611
I90
sS'sneak'
p2612
I90
sS'soundtrack'
p2613
I91
sS'westwood'
p2614
I91
sS'denial'
p2615
I91
sS'lighting'
p2616
I91
sS'blood'
p2617
I90
sS'selfies.\xe2\x80\xa6'
p2618
I91
sS'coming'
p2619
I83
sS'verified'
p2620
I91
sS'choice'
p2621
I90
sS'kinney'
p2622
I91
sS'libertine)'
p2623
I91
sS'xxyyxx'
p2624
I91
sS'a'
p2625
I3
sS'vauclusecalifornia'
p2626
I81
sS'short'
p2627
I89
sS'funday'
p2628
I91
sS'brown"'
p2629
I91
sS'loud'
p2630
I88
sS'la,90069\n429399033518383104,ddanielle7,2014-01-31'
p2631
I91
sS'anytime'
p2632
I91
sS'buns'
p2633
I91
sS'ego'
p2634
I91
sS'grande'
p2635
I91
sS'shade'
p2636
I91
sS'profiter'
p2637
I91
sS'banks'
p2638
I90
sS'pleasure'
p2639
I91
sS'dream'
p2640
I88
sS'playing'
p2641
I87
sS'patio'
p2642
I89
sS"that's"
p2643
I74
sS'help'
p2644
I90
sS'adult'
p2645
I91
sS"don't"
p2646
I52
sS'"if'
p2647
I91
sS'reminded'
p2648
I90
sS'itd'
p2649
I91
sS'artwork'
p2650
I91
sS'sooo'
p2651
I91
sS'soon'
p2652
I86
sS'brit'
p2653
I91
sS'held'
p2654
I91
sS'attitude'
p2655
I90
sS'paper'
p2656
I90
sS'through'
p2657
I84
sS'allure_magazine'
p2658
I90
sS'shit\xe2\x80\x9d'
p2659
I91
sS'refried'
p2660
I91
sS'hell'
p2661
I90
sS'mcdonalds'
p2662
I89
sS'christengerhart'
p2663
I91
sS'its'
p2664
I84
sS'24'
p2665
I91
sS'messed'
p2666
I91
sS'style'
p2667
I90
sS'magnum.\xe2\x80\x9d'
p2668
I91
sS'b0red'
p2669
I91
sS'thnx'
p2670
I91
sS'gazelle'
p2671
I91
sS'28'
p2672
I91
sS'scully'
p2673
I90
sS'actually'
p2674
I85
sS'late'
p2675
I85
sS'fisher'
p2676
I91
sS'laces'
p2677
I90
sS'bummer'
p2678
I90
sS'like...danny'
p2679
I91
sS'thnk'
p2680
I90
sS'bout'
p2681
I91
sS'soccer'
p2682
I91
sS'might'
p2683
I86
sS"haven't"
p2684
I90
sS'lookout'
p2685
I91
sS'someone'
p2686
I83
sS'motivated'
p2687
I91
sS'yo'
p2688
I88
sS'seeking'
p2689
I91
sS'ya'
p2690
I80
sS'uhm'
p2691
I91
sS'impossible'
p2692
I90
sS'clippers'
p2693
I90
sS'speechless'
p2694
I91
sS'laist'
p2695
I90
sS'olivia'
p2696
I90
sS"you've"
p2697
I89
sS"penalties'"
p2698
I91
sS'yr'
p2699
I85
sS'staples'
p2700
I91
sS'feet'
p2701
I91
sS'05:24:36.0,34.09797569,-118.36580303,1942,,90046\n402194742798082048,latottenhamfan,2013-11-17'
p2702
I91
sS'fantasy'
p2703
I91
sS'sundays'
p2704
I91
sS'always'
p2705
I72
sS'nauseous'
p2706
I91
sS'pam'
p2707
I91
sS'stopped'
p2708
I90
sS'xoxoommmmm'
p2709
I91
sS'turns'
p2710
I91
sS'1am'
p2711
I91
sS'found'
p2712
I85
sS'fairy'
p2713
I91
sS'friendship'
p2714
I91
sS'button'
p2715
I91
sS"isn't"
p2716
I87
sS'aroundparis'
p2717
I91
sS'heavy'
p2718
I90
sS'defs'
p2719
I90
sS'everyone'
p2720
I82
sS'another'
p2721
I81
sS'it!!!\xe2\x80\xa6'
p2722
I91
sS'generation'
p2723
I91
sS'house'
p2724
I63
sS'energy'
p2725
I89
sS'hard'
p2726
I88
sS'world...until'
p2727
I91
sS'idea'
p2728
I88
sS'hawaii'
p2729
I91
sS'though?\xe2\x80\x9d'
p2730
I91
sS'pirated'
p2731
I91
sS'tonite'
p2732
I91
sS'gum'
p2733
I90
sS'fist'
p2734
I91
sS'todd'
p2735
I91
sS'blues'
p2736
I89
sS'inverted'
p2737
I91
sS'event'
p2738
I86
sS'really'
p2739
I71
sS'maxmuller'
p2740
I91
sS'$32000'
p2741
I91
sS'lipstick'
p2742
I90
sS'since'
p2743
I87
sS'douglas'
p2744
I91
sS'research'
p2745
I91
sS'hayden'
p2746
I91
sS'acting'
p2747
I89
sS'adoption'
p2748
I91
sS'hill'
p2749
I89
sS"they'll"
p2750
I91
sS'drakes'
p2751
I91
sS'rhought'
p2752
I91
sS'issue'
p2753
I91
sS'occurs'
p2754
I91
sS'guv'
p2755
I91
sS'ass'
p2756
I83
sS'craving'
p2757
I91
sS'right...spiritual\xe2\x80\xa6'
p2758
I91
sS'friday'
p2759
I83
sS'forgive'
p2760
I90
sS'04:34:09.0,34.1020824,-118.3692075,1942,ugh'
p2761
I91
sS'05:51:23.0,34.09793431,-118.36569968,1942,soir\xc3\xa9e,90046\n485662225378451457,partouchette,2014-07-06'
p2762
I91
sS'reason'
p2763
I90
sS'bro&discussing'
p2764
I91
sS'cookie'
p2765
I90
sS'disneyland'
p2766
I86
sS'fatass'
p2767
I91
sS'imagine'
p2768
I90
sS'ask'
p2769
I90
sS'teach'
p2770
I91
sS'nanosecond'
p2771
I91
sS'pup'
p2772
I90
sS'algae'
p2773
I91
sS'heroic'
p2774
I90
sS'cookin'
p2775
I91
sS'definition'
p2776
I91
sS'pairs'
p2777
I91
sS'launch'
p2778
I91
sS'spinach'
p2779
I91
sS'terrible'
p2780
I89
sS'xd\xe2\x80\x9d'
p2781
I91
sS'american'
p2782
I91
sS'"f***'
p2783
I91
sS'expecting'
p2784
I91
sS'including'
p2785
I91
sS'w'
p2786
I77
sS'castle'
p2787
I89
sS'biancaespada'
p2788
I91
sS'agreed:)rt'
p2789
I91
sS'ding'
p2790
I91
sS'major'
p2791
I91
sS'\xc3\xa0'
p2792
I91
sS'superbowl'
p2793
I90
sS'dont'
p2794
I86
sS'forwards'
p2795
I91
sS'feel'
p2796
I83
sS'cinderella'
p2797
I91
sS'"so'
p2798
I91
sS'number'
p2799
I86
sS'fancy'
p2800
I89
sS'celeb'
p2801
I90
sS'tedx'
p2802
I91
sS'pop'
p2803
I91
sS"themaskedcomedian's"
p2804
I91
sS'done'
p2805
I85
sS'blank'
p2806
I91
sS'mixing'
p2807
I91
sS'fiction'
p2808
I91
sS'miss'
p2809
I77
sS'maple'
p2810
I91
sS'blanc'
p2811
I91
sS'passes'
p2812
I91
sS'story'
p2813
I86
sS'"'
p2814
I91
sS'jet'
p2815
I91
sS'\xe2\x80\x98twinkies\xe2\x80\x99'
p2816
I91
sS'blossom'
p2817
I91
sS'twenty'
p2818
I90
sS'internal'
p2819
I91
sS'least'
p2820
I87
sS'qb'
p2821
I91
sS'8000'
p2822
I91
sS'wonderful'
p2823
I88
sS'noticed'
p2824
I91
sS'passed'
p2825
I90
sS'mama'
p2826
I90
sS'ton'
p2827
I91
sS'hundred'
p2828
I90
sS'syrup'
p2829
I91
sS'banana'
p2830
I91
sS'store'
p2831
I90
sS'larkin'
p2832
I91
sS'selling'
p2833
I90
sS'relationship'
p2834
I91
sS'behind'
p2835
I89
sS'$$'
p2836
I91
sS'hotel'
p2837
I82
sS'park'
p2838
I90
sS'appreciation'
p2839
I90
sS'blondie'
p2840
I90
sS'part'
p2841
I86
sS'jordan'
p2842
I91
sS'boots'
p2843
I91
sS'northbound'
p2844
I91
sS'believe'
p2845
I87
sS'convinced'
p2846
I91
sS'$1'
p2847
I91
sS'(!)'
p2848
I91
sS'kind'
p2849
I87
sS'b'
p2850
I89
sS'double'
p2851
I90
sS'bruh.\xe2\x80\x9d'
p2852
I91
sS'getaway'
p2853
I91
sS'beat-up'
p2854
I91
sS'you\xe2\x80\xa6'
p2855
I91
sS'venice'
p2856
I91
sS'stall'
p2857
I91
sS'supposed'
p2858
I90
sS'dani'
p2859
I90
sS'hyde'
p2860
I88
sS'treated'
p2861
I91
sS'dana'
p2862
I90
sS'traveling'
p2863
I91
sS'executioner'
p2864
I91
sS'belated'
p2865
I91
sS'draymond'
p2866
I91
sS'outstanding'
p2867
I91
sS'stories...every'
p2868
I91
sS'joys.,90046\n448480383403696128,ashleylayogini,2014-03-25'
p2869
I91
sS'magical'
p2870
I91
sS'randomly'
p2871
I91
sS'juice'
p2872
I91
sS'gala'
p2873
I90
sS'douchebags'
p2874
I91
sS'admitting'
p2875
I91
sS'lie'
p2876
I89
sS'nights'
p2877
I89
sS'fiji'
p2878
I91
sS'dancing'
p2879
I91
sS'lil'
p2880
I88
sS'self'
p2881
I90
sS'cave'
p2882
I90
sS'couch'
p2883
I91
sS'funnnn'
p2884
I90
sS'costs'
p2885
I91
sS'lip'
p2886
I90
sS'it...happy'
p2887
I91
sS'\xd8\xa7\xd9\x85\xd9\x8a'
p2888
I91
sS'fella'
p2889
I91
sS'play'
p2890
I82
sS'.55'
p2891
I91
sS'godfather'
p2892
I91
sS'serena'
p2893
I90
sS'quote'
p2894
I90
sS'pewter'
p2895
I91
sS'reach'
p2896
I91
sS'(baseball'
p2897
I91
sS'reunited'
p2898
I91
sS'most'
p2899
I80
sS'05:55:18.0,34.10263318,-118.36575564,1942,enjoying'
p2900
I91
sS'experiences'
p2901
I90
sS'plan'
p2902
I91
sS'significant'
p2903
I91
sS'kat'
p2904
I91
sS'nothing'
p2905
I84
sS'extremely'
p2906
I91
sS'oyster'
p2907
I91
sS'________'
p2908
I91
sS'my\xe2\x80\xa6'
p2909
I90
sS'grams'
p2910
I91
sS'clear'
p2911
I91
sS'sometimes'
p2912
I84
sS'cover'
p2913
I91
sS'unreasonable'
p2914
I91
sS'townkeep'
p2915
I91
sS'hints'
p2916
I91
sS'treasures'
p2917
I90
sS'artistic'
p2918
I91
sS'parody'
p2919
I91
sS'une'
p2920
I91
sS'attacking'
p2921
I91
sS'lying'
p2922
I91
sS'hahah'
p2923
I91
sS'sorry\xe2\x80\x9d'
p2924
I91
sS'ugh'
p2925
I86
sS'golf'
p2926
I90
sS'amaze'
p2927
I91
sS'gold'
p2928
I90
sS'sparrow'
p2929
I91
sS'aaaaand'
p2930
I91
sS'me\xe2\x80\xa6'
p2931
I91
sS'disappointed'
p2932
I91
sS'carpets'
p2933
I91
sS'hillside'
p2934
I91
sS'stfu'
p2935
I89
sS'weho'
p2936
I87
sS'rts'
p2937
I90
sS'perched'
p2938
I91
sS'headlines'
p2939
I91
sS'sheepskin'
p2940
I91
sS'fine'
p2941
I90
sS'find'
p2942
I84
sS'nights-'
p2943
I91
sS'impact'
p2944
I91
sS'giant'
p2945
I89
sS'randi'
p2946
I91
sS'try.\xe2\x80\x9d'
p2947
I91
sS'nervous'
p2948
I90
sS'writer'
p2949
I91
sS'fucker.\xe2\x80\xa6'
p2950
I91
sS'07:23:46.0,34.09810245,-118.367405,1942,post'
p2951
I91
sS'medicine)'
p2952
I91
sS'1111'
p2953
I91
sS'randy'
p2954
I91
sS'pretty'
p2955
I78
sS',90069\n429466142441107457,ddanielle7,2014-02-01'
p2956
I91
sS'8'
p2957
I89
sS'circle'
p2958
I88
sS'obama'
p2959
I91
sS'oil'
p2960
I91
sS'reiki'
p2961
I91
sS'hip'
p2962
I91
sS'estyn'
p2963
I90
sS'his'
p2964
I76
sS'hit'
p2965
I89
sS'23:41:22.0,34.09558935,-118.37291926,1942,woke'
p2966
I91
sS'(holiday'
p2967
I91
sS'banned'
p2968
I91
sS'express'
p2969
I90
sS'sunny'
p2970
I91
sS'trees'
p2971
I89
sS"they'd"
p2972
I90
sS'feels'
p2973
I88
sS'rest'
p2974
I91
sS'reporters'
p2975
I91
sS'during'
p2976
I89
sS'him'
p2977
I82
sS'audio'
p2978
I91
sS'shines'
p2979
I91
sS'frickin'
p2980
I91
sS'crx'
p2981
I91
sS'cry'
p2982
I89
sS'(via'
p2983
I91
sS'b%tches'
p2984
I91
sS'gurrrrl'
p2985
I91
sS'common'
p2986
I90
sS'fashionova'
p2987
I91
sS'gotten'
p2988
I91
sS'x'
p2989
I86
sS'vincent'
p2990
I91
sS'river'
p2991
I91
sS'relentless'
p2992
I91
sS'wrote'
p2993
I91
sS'insane'
p2994
I89
sS'cranston'
p2995
I91
sS'bars'
p2996
I91
sS'set'
p2997
I87
sS'equinox'
p2998
I89
sS'detail'
p2999
I91
sS'september'
p3000
I91
sS'backtrack'
p3001
I91
sS'govt'
p3002
I91
sS'time...cam915'
p3003
I91
sS'uses'
p3004
I91
sS'sex'
p3005
I89
sS'plausible'
p3006
I91
sS'tip'
p3007
I91
sS'see'
p3008
I63
sS'dumb'
p3009
I90
sS'are'
p3010
I24
sS'close'
p3011
I90
sS'1v1s'
p3012
I91
sS'kapow'
p3013
I91
sS'!!\xe2\x80\x9d'
p3014
I91
sS'\xd8\xa7\xd8\xae\xd8\xaa'
p3015
I91
sS'allie'
p3016
I91
sS'cozy'
p3017
I91
sS'guys\xe2\x80\x9d'
p3018
I91
sS'knees'
p3019
I91
sS'hibbert'
p3020
I89
sS'toe"'
p3021
I91
sS'visiting'
p3022
I91
sS'movie'
p3023
I80
sS'wow'
p3024
I77
sS'currently'
p3025
I88
sS'please'
p3026
I86
sS'cyn'
p3027
I91
sS'fans'
p3028
I89
sS'won'
p3029
I87
sS'chosen'
p3030
I91
sS'3d'
p3031
I91
sS'probably'
p3032
I91
sS'moving'
p3033
I91
sS'champagne'
p3034
I89
sS"tv's"
p3035
I91
sS'compliment'
p3036
I90
sS'ticket4change'
p3037
I91
sS'available'
p3038
I90
sS'102.7'
p3039
I91
sS'do'
p3040
I32
sS'missing'
p3041
I90
sS'"think'
p3042
I91
sS'sold'
p3043
I90
sS'attention'
p3044
I89
sS'09:34:58.0,34.09785179,-118.36606506,1942,looll'
p3045
I91
sS'mart\xc3\xadnez'
p3046
I91
sS'offense...maybe'
p3047
I91
sS'(especially'
p3048
I91
sS'both'
p3049
I88
sS'c'
p3050
I89
sS'last'
p3051
I65
sS'blazes'
p3052
I91
sS'restaurant'
p3053
I91
sS'ousted'
p3054
I91
sS"wouldn't"
p3055
I87
sS'annual'
p3056
I90
sS'connection'
p3057
I90
sS'annie'
p3058
I89
sS'rose'
p3059
I91
sS'success:)'
p3060
I91
sS'bond'
p3061
I91
sS'whole'
p3062
I83
sS'insurance'
p3063
I91
sS'flies'
p3064
I91
sS'wouldnt'
p3065
I91
sS'danced'
p3066
I90
sS'drunk'
p3067
I87
sS'simple'
p3068
I90
sS'sweet'
p3069
I88
sS'loan'
p3070
I91
sS"jo_moroney's"
p3071
I91
sS'whatever'
p3072
I87
sS'happy:)'
p3073
I91
sS'lulz'
p3074
I91
sS'simply'
p3075
I91
sS'likes'
p3076
I90
sS'(8221'
p3077
I85
sS'raw'
p3078
I91
sS'cbs/fox'
p3079
I91
sS'bench'
p3080
I91
sS'mission'
p3081
I88
sS'duh'
p3082
I91
sS'ps'
p3083
I91
sS'devil'
p3084
I91
sS'15:48:58.0,34.09784625,-118.36595849,1942,,90046\n362813771221176321,alyssalua,2013-08-01'
p3085
I91
sS'create'
p3086
I89
sS'sarena'
p3087
I91
sS'flex'
p3088
I91
sS'teacher'
p3089
I91
sS'hitting'
p3090
I90
sS'secret'
p3091
I89
sS'dropping'
p3092
I91
sS'damn'
p3093
I86
sS'amnesia'
p3094
I89
sS'maintenance'
p3095
I91
sS'dcatoday'
p3096
I91
sS'screener'
p3097
I91
sS'ph'
p3098
I91
sS'pi'
p3099
I91
sS'meeting'
p3100
I84
sS'whoa'
p3101
I90
sS'empty'
p3102
I91
sS'pm'
p3103
I91
sS'blankets'
p3104
I91
sS'dialogue'
p3105
I91
sS'ruckus'
p3106
I91
sS'flight'
p3107
I90
sS'sobriety'
p3108
I91
sS'gay'
p3109
I88
sS'preorder'
p3110
I91
sS'fire'
p3111
I89
sS"what's"
p3112
I81
sS'crack'
p3113
I91
sS'gas'
p3114
I91
sS'saved'
p3115
I91
sS'aye'
p3116
I91
sS'else'
p3117
I87
sS'moment'
p3118
I82
sS'understand'
p3119
I89
sS'specifically'
p3120
I91
sS'revenge'
p3121
I91
sS"what'd"
p3122
I91
sS'mlb'
p3123
I91
sS'bruschetta'
p3124
I91
sS'fur'
p3125
I91
sS'look'
p3126
I74
sS'conspirator'
p3127
I91
sS'solid'
p3128
I89
sS'pickup'
p3129
I91
sS'straight'
p3130
I90
sS'bill'
p3131
I87
sS'brilliant'
p3132
I91
sS'while'
p3133
I86
sS'match'
p3134
I90
sS'mimosas'
p3135
I91
sS'pennywise'
p3136
I91
sS'fun'
p3137
I75
sS'wok"'
p3138
I91
sS'jamierabineau'
p3139
I91
sS'ross'
p3140
I91
sS'guide'
p3141
I91
sS'theres'
p3142
I90
sS'swim'
p3143
I91
sS'smacked'
p3144
I91
sS'10000'
p3145
I91
sS'<3'
p3146
I91
sS'century'
p3147
I91
sS'cents'
p3148
I91
sS'violently'
p3149
I91
sS'von'
p3150
I91
sS'demon'
p3151
I91
sS'rip'
p3152
I89
sS'\xd8\xaa\xd8\xad\xd8\xb1\xd9\x85\xd9\x86\xd9\x8a'
p3153
I91
sS'sugarfish'
p3154
I91
sS'rim'
p3155
I91
sS'triple'
p3156
I91
sS'skype'
p3157
I91
sS'ready'
p3158
I81
sS'whatxthe'
p3159
I91
sS'jean/belt/shoe'
p3160
I91
sS'chase'
p3161
I84
sS'funny'
p3162
I88
sS'regulate'
p3163
I91
sS'italy'
p3164
I91
sS'baseline'
p3165
I91
sS'anymore'
p3166
I91
sS'noooo'
p3167
I91
sS'belong'
p3168
I91
sS'some1'
p3169
I91
sS'stomachs'
p3170
I91
sS'waaaayy.gone.but'
p3171
I91
sS'rules'
p3172
I88
sS'truly\xe2\x80\xa6'
p3173
I91
sS'twit'
p3174
I91
sS'marcella'
p3175
I91
sS'peoples'
p3176
I90
sS'9'
p3177
I87
sS"'straight"
p3178
I91
sS'05:20:19.0,34.09894336,-118.36770609,1942,teaching'
p3179
I91
sS'forgiveness'
p3180
I90
sS'g.o'
p3181
I91
sS'toddies'
p3182
I91
sS'used'
p3183
I88
sS'temporary'
p3184
I91
sS'fatty'
p3185
I91
sS'mountain'
p3186
I90
sS'(austin'
p3187
I91
sS'leopard'
p3188
I91
sS'yesterday'
p3189
I87
sS'cement'
p3190
I90
sS'holidays'
p3191
I90
sS'at:)'
p3192
I91
sS'flurry'
p3193
I90
sS'levels'
p3194
I91
sS'arrived'
p3195
I89
sS'purpose'
p3196
I90
sS'cunt.,90046\n402193103747956736,latottenhamfan,2013-11-17'
p3197
I91
sS'attractive'
p3198
I91
sS'bob'
p3199
I91
sS'infamous'
p3200
I91
sS'recent'
p3201
I91
sS'idve'
p3202
I91
sS'dark'
p3203
I90
sS'beanie'
p3204
I91
sS'sally"'
p3205
I91
sS'spent'
p3206
I89
sS'shuttles'
p3207
I91
sS'"california'
p3208
I91
sS'person'
p3209
I81
sS'cheer'
p3210
I91
sS'edge'
p3211
I90
sS'flags'
p3212
I91
sS'itttttt'
p3213
I91
sS'cannes'
p3214
I91
sS'y'
p3215
I88
sS'entry'
p3216
I91
sS'initials'
p3217
I91
sS'spend'
p3218
I89
sS'yankees'
p3219
I91
sS'i\xe2\x80\x99m'
p3220
I91
sS'tim'
p3221
I91
sS'listening'
p3222
I88
sS'labeouf'
p3223
I91
sS'felled'
p3224
I91
sS'(8171'
p3225
I90
sS'hercules'
p3226
I91
sS'questions'
p3227
I90
sS'using'
p3228
I90
sS'useful'
p3229
I91
sS'birtdayyyy'
p3230
I91
sS'praying'
p3231
I91
sS'gems'
p3232
I91
sS'schopenhauer'
p3233
I91
sS'cut'
p3234
I90
sS'helping'
p3235
I91
sS'$'
p3236
I91
sS'jersey'
p3237
I91
sS'also'
p3238
I85
sS'&nice'
p3239
I91
sS'siri'
p3240
I91
sS'alternate'
p3241
I91
sS'argentina'
p3242
I91
sS'cuz'
p3243
I91
sS'source'
p3244
I89
sS'weirder'
p3245
I91
sS'beautius'
p3246
I91
sS'location'
p3247
I90
sS'crying'
p3248
I90
sS'homies'
p3249
I91
sS'snap'
p3250
I89
sS'desk'
p3251
I91
sS'mavs'
p3252
I91
sS'easter'
p3253
I91
sS'excited'
p3254
I82
sS'surprised'
p3255
I91
sS'sprinted'
p3256
I91
sS'bio'
p3257
I91
sS'customers'
p3258
I91
sS'clutches'
p3259
I91
sS'complains'
p3260
I91
sS'emergency'
p3261
I91
sS'demands'
p3262
I91
sS'big'
p3263
I69
sS'couple'
p3264
I88
sS'sittin'
p3265
I91
sS'mins'
p3266
I91
sS'\xc3\xbcber'
p3267
I91
sS'lovin'
p3268
I91
sS'judgement'
p3269
I91
sS'shitty'
p3270
I91
sS'game'
p3271
I73
sS'biz'
p3272
I91
sS'apt'
p3273
I90
sS'bit'
p3274
I90
sS'bloody'
p3275
I91
sS'el\xc3\xadas'
p3276
I91
sS'helpful'
p3277
I91
sS'knock'
p3278
I91
sS'd'
p3279
I88
sS'flappy'
p3280
I91
sS'love!\xe2\x9d\xa4\xef\xb8\x8f'
p3281
I91
sS'ahh'
p3282
I91
sS'whoa...who'
p3283
I91
sS'manifest'
p3284
I91
sS'ignore'
p3285
I90
sS'passengers'
p3286
I91
sS'continue'
p3287
I91
sS'gq"'
p3288
I91
sS'transformation'
p3289
I91
sS'bump'
p3290
I91
sS'gq'
p3291
I91
sS'joel'
p3292
I91
sS'rots'
p3293
I91
sS'shoshanarama'
p3294
I91
sS'google'
p3295
I89
sS'33rd'
p3296
I88
sS'often'
p3297
I89
sS'way...some'
p3298
I91
sS'fucking'
p3299
I78
sS'spring'
p3300
I91
sS'sorbet'
p3301
I91
sS'some'
p3302
I68
sS'back'
p3303
I56
sS'bounce'
p3304
I91
sS'*goes'
p3305
I91
sS'martial'
p3306
I90
sS'lips'
p3307
I91
sS'pack'
p3308
I91
sS'"we'
p3309
I90
sS'rssns'
p3310
I91
sS'celebratory'
p3311
I91
sS'published>'
p3312
I91
sS'"sources'
p3313
I91
sS'qatar'
p3314
I91
sS'newyorker'
p3315
I91
sS'jewelry'
p3316
I91
sS'gangsters'
p3317
I91
sS'business,90046\n300776739976642564,lmendoza2012,2013-02-11'
p3318
I91
sS'singing'
p3319
I91
sS'decision'
p3320
I91
sS'chronique'
p3321
I91
sS'novelty'
p3322
I90
sS'integration'
p3323
I91
sS'arrived...to'
p3324
I91
sS'id*'
p3325
I91
sS'eliminate'
p3326
I90
sS'medz'
p3327
I91
sS'prof'
p3328
I89
sS'vogue'
p3329
I91
sS'epic'
p3330
I90
sS'prob'
p3331
I91
sS'apathetic'
p3332
I91
sS'either'
p3333
I90
sS'yg'
p3334
I91
sS'be'
p3335
I26
sS'missu2'
p3336
I91
sS'eating'
p3337
I85
sS'bb'
p3338
I91
sS'bc'
p3339
I91
sS'remembered'
p3340
I91
sS'word'
p3341
I91
sS'whatcha'
p3342
I91
sS'bh'
p3343
I91
sS'confidence'
p3344
I91
sS'sweeps!!,90069\n429498420399591424,ddanielle7,2014-02-01'
p3345
I91
sS'step'
p3346
I90
sS'leibovitz'
p3347
I89
sS'hahahahhahahgagahhaahhahahahhahahahaahhahahahahahahahahha'
p3348
I91
sS'mashed'
p3349
I91
sS'santa'
p3350
I88
sS'chick'
p3351
I91
sS'yaaassss'
p3352
I91
sS'crap'
p3353
I91
sS'carol'
p3354
I91
sS'baskets'
p3355
I91
sS'by'
p3356
I62
sS'07:50:45.0,34.09807865,-118.36629186,1942,do'
p3357
I91
sS'shine'
p3358
I91
sS'anything'
p3359
I86
sS'$13.50'
p3360
I91
sS'plaza'
p3361
I88
sS"mcdonald's"
p3362
I89
sS'chico'
p3363
I91
sS'iniciando'
p3364
I91
sS'sake'
p3365
I91
sS'range'
p3366
I91
sS'dodger'
p3367
I91
sS'beans'
p3368
I91
sS'idk'
p3369
I90
sS'alert'
p3370
I91
sS'together'
p3371
I87
sS'sponsored'
p3372
I91
sS'livingsocial'
p3373
I91
sS'chevron'
p3374
I91
sS'hahahah'
p3375
I90
sS'mayyyybee'
p3376
I91
sS'seeing'
p3377
I81
sS'namaste'
p3378
I91
sS'jimmy'
p3379
I91
sS'unnoticed'
p3380
I91
sS'visit'
p3381
I89
sS'into'
p3382
I79
sS'within'
p3383
I90
sS'nonsense'
p3384
I91
sS'6am'
p3385
I91
sS'd\xc3\xa9j\xc3\xa0'
p3386
I91
sS'because'
p3387
I83
sS'master'
p3388
I91
sS'dead.stopped.traffic'
p3389
I91
sS'mustaches'
p3390
I91
sS'\xe2\x9d\xa4\xef\xb8\x8f\xe2\x80\x9d'
p3391
I91
sS'lebron'
p3392
I87
sS'rolls'
p3393
I91
sS'risk'
p3394
I90
sS'soundcloud'
p3395
I91
sS'impressed'
p3396
I89
sS'...a'
p3397
I91
sS'time:)'
p3398
I91
sS'famous'
p3399
I91
sS'sneaky'
p3400
I90
sS'spending'
p3401
I91
sS'image\xe2\x80\xa6'
p3402
I91
sS'placing'
p3403
I91
sS'question'
p3404
I88
sS'ca)'
p3405
I60
sS'fast'
p3406
I89
sS'marrying'
p3407
I91
sS'camera'
p3408
I91
sS"we're"
p3409
I89
sS'homemade'
p3410
I91
sS'suit'
p3411
I89
sS'forward'
p3412
I86
sS'bored'
p3413
I90
sS'footage'
p3414
I91
sS'in.funny'
p3415
I91
sS'b+w'
p3416
I91
sS'know,90046\n476166576555565057,emmawrayne,2014-06-10'
p3417
I91
sS'luckily'
p3418
I91
sS'you.,90046\n445225596767834112,ashleylayogini,2014-03-16'
p3419
I91
sS'appian'
p3420
I59
sS'boys'
p3421
I89
sS'larry'
p3422
I91
sS'crank'
p3423
I91
sS'authority'
p3424
I91
sS'corinamalcolm'
p3425
I89
sS'outpost'
p3426
I91
sS'raising'
p3427
I91
sS'posted'
p3428
I58
sS'info'
p3429
I91
sS'12pm'
p3430
I91
sS'spa)'
p3431
I91
sS'05:51:12.0,34.09793431,-118.36569968,1942,hyde,90046\n432447521617489922,partouchette,2014-02-09'
p3432
I91
sS'blige'
p3433
I91
sS'"too'
p3434
I91
sS'loveclayboy'
p3435
I91
sS'selects'
p3436
I91
sS'fries'
p3437
I90
sS'up'
p3438
I33
sS'us'
p3439
I78
sS'ur'
p3440
I85
sS'um'
p3441
I90
sS'slow/big'
p3442
I91
sS'uh'
p3443
I91
sS'uk'
p3444
I91
sS'similar'
p3445
I91
sS'called'
p3446
I90
sS'yelled'
p3447
I90
sS'uber'
p3448
I88
sS'hangry'
p3449
I91
sS'constant'
p3450
I91
sS'showtime'
p3451
I91
sS'brits'
p3452
I91
sS'influence'
p3453
I91
sS'3/10'
p3454
I91
sS'single'
p3455
I90
sS'cure'
p3456
I91
sS'crepes'
p3457
I91
sS'stoppppppppp'
p3458
I91
sS'living)'
p3459
I91
sS'!!\xe2\x80\x9dthanks'
p3460
I91
sS'cotton'
p3461
I91
sS'lemon'
p3462
I90
sS'peach'
p3463
I91
sS'fixing'
p3464
I91
sS'nah'
p3465
I90
sS'peace'
p3466
I86
sS'fears'
p3467
I91
sS'nick'
p3468
I88
sS'nap'
p3469
I91
sS'definitely'
p3470
I90
sS'pour'
p3471
I91
sS'tars'
p3472
I90
sS'manhattan'
p3473
I91
sS'mock'
p3474
I91
sS'nice'
p3475
I85
sS'raped'
p3476
I91
sS'draw'
p3477
I91
sS"taylor's"
p3478
I91
sS'scrub'
p3479
I91
sS'users'
p3480
I91
sS'papa'
p3481
I91
sS'disneylandtoday'
p3482
I91
sS'replace'
p3483
I91
sS'meaning'
p3484
I91
sS'hostnames'
p3485
I91
sS'lent'
p3486
I91
sS"client's"
p3487
I91
sS'"lane'
p3488
I91
sS'unplug'
p3489
I91
sS'\xe2\x8c\x9b\xef\xb8\x8f\xe2\x8c\x9a\xef\xb8\x8f\xe2\x8f\xb0'
p3490
I91
sS'kors'
p3491
I91
sS'ago'
p3492
I90
sS'land'
p3493
I91
sS'e'
p3494
I90
sS'13/17'
p3495
I91
sS'overlooking'
p3496
I91
sS'practically'
p3497
I91
sS'dvd'
p3498
I90
sS'rescued'
p3499
I91
sS'required'
p3500
I91
sS'youtube'
p3501
I90
sS'visual'
p3502
I91
sS'walked'
p3503
I90
sS'annoyed'
p3504
I91
sS'reconnected'
p3505
I91
sS'zestaz77'
p3506
I91
sS'much:)'
p3507
I91
sS'hella'
p3508
I90
sS'one:)'
p3509
I91
sS'far'
p3510
I88
sS"she's"
p3511
I88
sS'delicioso'
p3512
I91
sS'intentional'
p3513
I91
sS'having'
p3514
I80
sS'out...surprised'
p3515
I91
sS'once'
p3516
I87
sS'aguilera'
p3517
I91
sS'locomotive.,90046\n476028184442716162,cdilla23,2014-06-09'
p3518
I91
sS'code'
p3519
I90
sS're-opened'
p3520
I91
sS'05:06:49.0,34.09507365,-118.38091644,1942,explains'
p3521
I91
sS'thomas'
p3522
I91
sS'steve'
p3523
I91
sS'laurel\xe2\x80\xa6'
p3524
I91
sS'gc'
p3525
I91
sS'legal'
p3526
I91
sS'4am'
p3527
I91
sS'go'
p3528
I63
sS'psycho'
p3529
I90
sS'chillin'
p3530
I90
sS'kate'
p3531
I90
sS'baaaaby'
p3532
I91
sS'cody'
p3533
I91
sS'compact'
p3534
I91
sS'terms'
p3535
I91
sS'asphalt'
p3536
I91
sS'such...but'
p3537
I91
sS'young'
p3538
I91
sS'send'
p3539
I89
sS'maintaining'
p3540
I91
sS'babes'
p3541
I91
sS'suite'
p3542
I90
sS'enlightenment'
p3543
I91
sS'stocked'
p3544
I91
sS'breathing'
p3545
I90
sS'ginn'
p3546
I91
sS'garden'
p3547
I91
sS'outside'
p3548
I91
sS'dessert'
p3549
I91
sS'continues'
p3550
I91
sS'conditions'
p3551
I91
sS'larakronfeld'
p3552
I91
sS'vibrator'
p3553
I91
sS'putting'
p3554
I90
sS'earrings'
p3555
I91
sS'telling'
p3556
I90
sS'drinking'
p3557
I91
sS'road/hollywood'
p3558
I91
sS'exhaling'
p3559
I91
sS'legos'
p3560
I91
sS'entire'
p3561
I90
sS'magic'
p3562
I91
sS'salad'
p3563
I91
sS'life\xe2\x80\xa6'
p3564
I91
sS'transmission'
p3565
I91
sS'center)'
p3566
I91
sS'fml'
p3567
I91
sS'gettin'
p3568
I90
sS'michael'
p3569
I89
sS'booze'
p3570
I91
sS'ryan'
p3571
I88
sS'try'
p3572
I86
sS'race'
p3573
I91
sS'min'
p3574
I91
sS'kit'
p3575
I90
sS'havent'
p3576
I90
sS'hustle'
p3577
I91
sS'tru'
p3578
I91
sS'regain'
p3579
I91
sS'cap'
p3580
I91
sS'booty'
p3581
I91
sS"you'd"
p3582
I90
sS'rolo'
p3583
I91
sS'shia'
p3584
I91
sS'copter'
p3585
I91
sS'claudio'
p3586
I91
sS'waking'
p3587
I91
sS'jump'
p3588
I89
sS'personally.,90046\n447603728925736961,ashleylayogini,2014-03-23'
p3589
I91
sS'incognito'
p3590
I91
sS'video'
p3591
I81
sS'booth'
p3592
I90
sS'ummm'
p3593
I91
sS'clever'
p3594
I91
sS'odd'
p3595
I91
sS'depression'
p3596
I91
sS'with\xe2\x80\xa6'
p3597
I91
sS'plays'
p3598
I89
sS'business'
p3599
I90
sS'paintings'
p3600
I91
sS'giving'
p3601
I88
sS'tuesdays'
p3602
I91
sS'vampire'
p3603
I91
sS'the...look'
p3604
I91
sS'it;)'
p3605
I91
sS'paying'
p3606
I91
sS'waiting'
p3607
I90
sS'kristin;)'
p3608
I91
sS'twins'
p3609
I91
sS'referees'
p3610
I91
sS'blender'
p3611
I91
sS'bird'
p3612
I89
sS'exercise'
p3613
I91
sS'refilled'
p3614
I91
sS'body'
p3615
I90
sS'lessons'
p3616
I91
sS'bioch'
p3617
I91
sS'chose'
p3618
I91
sS'leg'
p3619
I91
sS"suv's"
p3620
I91
sS'pushing'
p3621
I91
sS'commercial'
p3622
I91
sS'punch'
p3623
I89
sS',90046\n486031690197110784,elahehnejat,2014-07-07'
p3624
I91
sS'following'
p3625
I91
sS'gm'
p3626
I91
sS'twoo'
p3627
I91
sS'let'
p3628
I79
sS'healing'
p3629
I91
sS'euro'
p3630
I91
sS'others'
p3631
I77
sS'sexy'
p3632
I90
sS'entry)'
p3633
I91
sS'kidnapped'
p3634
I91
sS'make\xe2\x80\xa6'
p3635
I91
sS'stellar'
p3636
I91
sS'great'
p3637
I46
sS'lillard'
p3638
I91
sS'receive'
p3639
I90
sS'00:51:14.0,34.10258052,-118.36886757,1942,they'
p3640
I91
sS'tinyweirdo'
p3641
I91
sS'30'
p3642
I90
sS'leaving'
p3643
I90
sS'red\xe2\x80\xa6'
p3644
I91
sS'products'
p3645
I91
sS'defeat'
p3646
I91
sS'popcorn'
p3647
I91
sS'opinion'
p3648
I91
sS'makes'
p3649
I82
sS'occ'
p3650
I91
sS'thats'
p3651
I90
sS'fake'
p3652
I91
sS'named'
p3653
I89
sS'apple'
p3654
I91
sS'heart'
p3655
I84
sS'suburbs"'
p3656
I91
sS'win'
p3657
I90
sS'app'
p3658
I87
sS'karmically'
p3659
I91
sS'dedicated'
p3660
I91
sS'private'
p3661
I90
sS'expect'
p3662
I91
sS'gallooooooo'
p3663
I91
sS'names'
p3664
I91
sS'motor'
p3665
I90
sS'dumbest'
p3666
I90
sS'sugar'
p3667
I91
sS'tools'
p3668
I91
sS'cloud'
p3669
I90
sS'use'
p3670
I82
sS'\xd9\x85\xd9\x86'
p3671
I91
sS'from'
p3672
I39
sS'certificate'
p3673
I91
sS'&'
p3674
I56
sS'laaaaahhve'
p3675
I91
sS'illegal'
p3676
I91
sS'kique'
p3677
I91
sS"cruise's"
p3678
I91
sS'jamoul'
p3679
I91
sS'next'
p3680
I75
sS'few'
p3681
I88
sS'doubt'
p3682
I90
sS'floating'
p3683
I91
sS'save'
p3684
I91
sS'bottomless'
p3685
I91
sS'eagles'
p3686
I91
sS'themselves'
p3687
I91
sS'her.,90069\n446675842337218560,ashleylayogini,2014-03-20'
p3688
I91
sS'family.,90046\n402193602572320768,latottenhamfan,2013-11-17'
p3689
I91
sS'touched'
p3690
I91
sS'sort'
p3691
I90
sS'$18.00)+free'
p3692
I91
sS'somethin??\xe2\x80\x9d'
p3693
I91
sS'babe'
p3694
I90
sS'1/2'
p3695
I91
sS'upcoming'
p3696
I91
sS'started'
p3697
I88
sS'becomes'
p3698
I91
sS'inclined'
p3699
I91
sS'bungalows'
p3700
I91
sS'confused'
p3701
I90
sS'funny.\xe2\x80\x9d'
p3702
I91
sS'train'
p3703
I90
sS'rabbit'
p3704
I91
sS'invasion'
p3705
I91
sS'baby'
p3706
I84
sS'roar!!!!,90069\n446328060195794944,ashleylayogini,2014-03-19'
p3707
I91
sS'potential'
p3708
I91
sS"'twin'-kies"
p3709
I91
sS'charity'
p3710
I91
sS'customer'
p3711
I90
sS'stevenlira'
p3712
I91
sS'balls'
p3713
I87
sS'animals'
p3714
I90
sS'britney'
p3715
I91
sS'f'
p3716
I91
sS'this'
p3717
I18
sS'ride'
p3718
I90
sS'package'
p3719
I90
sS'chief'
p3720
I91
sS'3pm-9pm'
p3721
I91
sS'phins'
p3722
I91
sS'shoulda'
p3723
I91
sS'unreal'
p3724
I91
sS'snowing'
p3725
I91
sS'client'
p3726
I91
sS'universe'
p3727
I90
sS'meet'
p3728
I86
sS'lollollol'
p3729
I91
sS'didnt'
p3730
I89
sS'control'
p3731
I89
sS'borrowed'
p3732
I90
sS'distractions'
p3733
I91
sS'patrol'
p3734
I91
sS'bent'
p3735
I91
sS'tar'
p3736
I91
sS'geez'
p3737
I90
sS'process'
p3738
I91
sS'lock'
p3739
I91
sS'allowed'
p3740
I91
sS'rode'
p3741
I91
sS'loco'
p3742
I89
sS'high'
p3743
I88
sS'bones'
p3744
I91
sS'villain'
p3745
I91
sS'nylonmag'
p3746
I91
sS'something'
p3747
I84
sS'bed-head\xe2\x98\xba\xef\xb8\x8f'
p3748
I91
sS'offense'
p3749
I91
sS'blvd'
p3750
I72
sS'dj'
p3751
I91
sS'standard'
p3752
I91
sS'$25'
p3753
I91
sS'trumpet'
p3754
I91
sS'come...for'
p3755
I91
sS'lamb'
p3756
I91
sS'sir'
p3757
I90
sS'yielded'
p3758
I91
sS'orson'
p3759
I90
sS'verbs'
p3760
I91
sS'sit'
p3761
I89
sS'vibe'
p3762
I89
sS'onions'
p3763
I91
sS'permission'
p3764
I91
sS'afc'
p3765
I91
sS'kaching'
p3766
I91
sS'blessings'
p3767
I91
sS'beams'
p3768
I91
sS'comedy'
p3769
I90
sS'competition...but'
p3770
I91
sS'fanciness'
p3771
I91
sS'attend'
p3772
I91
sS'04:51:44.0,34.09826573,-118.36556129,1942,we'
p3773
I91
sS'easily'
p3774
I91
sS'watch'
p3775
I77
sS'mjnos'
p3776
I91
sS'"wiggle"'
p3777
I91
sS'collection'
p3778
I89
sS'dc'
p3779
I91
sS'notebook'
p3780
I91
sS'taco'
p3781
I89
sS'hahahaha'
p3782
I89
sS'reggie'
p3783
I91
sS'marrow'
p3784
I91
sS'coast'
p3785
I90
sS'racks'
p3786
I91
sS'skateland'
p3787
I91
sS'realized'
p3788
I89
sS'ot'
p3789
I91
sS'...\xe2\x80\xa6'
p3790
I91
sS'22nd'
p3791
I91
sS'whistle'
p3792
I91
sS'light'
p3793
I91
sS'guru'
p3794
I91
sS'robot'
p3795
I90
sS'irishman'
p3796
I91
sS'dinners'
p3797
I91
sS',90069\n325510180286656513,sulemcitalove,2013-04-20'
p3798
I91
sS'honestly'
p3799
I90
sS'scoot'
p3800
I90
sS'gundy'
p3801
I91
sS'classy'
p3802
I90
sS'(celery'
p3803
I91
sS'addiction'
p3804
I91
sS'martini'
p3805
I91
sS'preparing'
p3806
I91
sS'six'
p3807
I91
sS'sinus...watching'
p3808
I91
sS'hotnesses'
p3809
I91
sS'move'
p3810
I89
sS'mina)'
p3811
I91
sS'vma'
p3812
I91
sS'produced'
p3813
I91
sS'illusions'
p3814
I91
sS"won't"
p3815
I90
sS'looks'
p3816
I83
sS'fuccin'
p3817
I91
sS'shreds'
p3818
I91
sS'denim'
p3819
I90
sS'galaxy'
p3820
I91
sS'bunch'
p3821
I90
sS'perfect'
p3822
I83
sS'lounge'
p3823
I89
sS':^o'
p3824
I91
sS'hollsiesholder'
p3825
I91
sS'creeped'
p3826
I91
sS'la'
p3827
I50
sS'ln'
p3828
I86
sS'lo'
p3829
I88
sS'fansters'
p3830
I91
sS'[pic]'
p3831
I83
sS'decal'
p3832
I91
sS'degrees'
p3833
I91
sS'choose'
p3834
I88
sS'stiff'
p3835
I91
sS'shy'
p3836
I91
sS'orange'
p3837
I91
sS'2014'
p3838
I87
sS'bye'
p3839
I84
sS'15:53:14.0,34.09885898,-118.36771498,1942,you'
p3840
I91
sS'dad'
p3841
I90
sS'federica'
p3842
I91
sS'crash'
p3843
I90
sS'hurns'
p3844
I90
sS'killjoy'
p3845
I91
sS'dan'
p3846
I91
sS'practice'
p3847
I91
sS'dah'
p3848
I90
sS'runs'
p3849
I91
sS'salm\xc3\xb3n'
p3850
I91
sS'16:59:39.0,34.0980542,-118.36740834,1942,commercial'
p3851
I91
sS'legendary'
p3852
I91
sS'hands'
p3853
I90
sS'front'
p3854
I89
sS"owner's"
p3855
I91
sS'announcers'
p3856
I91
sS'kindness'
p3857
I91
sS'day'
p3858
I53
sS'10pm'
p3859
I91
sS"pennicake's"
p3860
I91
sS'damian'
p3861
I91
sS'risotto'
p3862
I91
sS'edit'
p3863
I91
sS'warned'
p3864
I91
sS'university'
p3865
I91
sS'nfl'
p3866
I90
sS'beer&burrata'
p3867
I91
sS'-lady'
p3868
I91
sS'billy'
p3869
I90
sS'delightful'
p3870
I91
sS':)/'
p3871
I91
sS'mode'
p3872
I91
sS'truth'
p3873
I90
sS'interview'
p3874
I90
sS'wilde'
p3875
I91
sS'sneezes'
p3876
I91
sS'bills'
p3877
I91
sS'$4.65'
p3878
I91
sS'glasses'
p3879
I90
sS'boggling'
p3880
I91
sS'map'
p3881
I91
sS'doing'
p3882
I78
sS'density'
p3883
I91
sS'globe'
p3884
I90
sS'strip'
p3885
I88
sS'darth'
p3886
I91
sS'product'
p3887
I90
sS'bluetooth'
p3888
I91
sS'junkie'
p3889
I91
sS'"early."'
p3890
I91
sS'b*tch'
p3891
I91
sS'measure'
p3892
I90
sS'our'
p3893
I74
sS'hour*'
p3894
I91
sS'special'
p3895
I90
sS'out'
p3896
I31
sS'respects'
p3897
I91
sS'matt'
p3898
I91
sS'\xe2\x9b\x85\xef\xb8\x8f'
p3899
I91
sS'140'
p3900
I91
sS"'"
p3901
I91
sS'twice'
p3902
I91
sS'rep'
p3903
I90
sS'reboot'
p3904
I91
sS'mate'
p3905
I91
sS'salvaged'
p3906
I91
sS'hilarious'
p3907
I89
sS'autopilot'
p3908
I91
sS'cause'
p3909
I85
sS'red'
p3910
I83
sS"one's"
p3911
I91
sS'shut'
p3912
I90
sS'frank'
p3913
I89
sS'activity'
p3914
I91
sS'\xe2\x80\x9csometimes'
p3915
I91
sS"amy's"
p3916
I91
sS'inhaling'
p3917
I91
sS'release'
p3918
I91
sS'completely'
p3919
I89
sS',90069\n444935752372072448,emmawrayne,2014-03-15'
p3920
I91
sS'oblivion'
p3921
I91
sS'embarrass'
p3922
I91
sS'princess'
p3923
I91
sS'additional'
p3924
I91
sS'scary'
p3925
I89
sS'backwards'
p3926
I90
sS'tweeting'
p3927
I91
sS'her'
p3928
I78
sS'could'
p3929
I73
sS'angelapalmierisc'
p3930
I91
sS'membership'
p3931
I90
sS'times'
p3932
I84
sS'freeeezing'
p3933
I91
sS'conversation'
p3934
I89
sS'4th'
p3935
I89
sS'hence'
p3936
I90
sS'cain'
p3937
I91
sS'emmahollyjones'
p3938
I91
sS'austin'
p3939
I91
sS'emani'
p3940
I85
sS'strippers'
p3941
I91
sS'1349'
p3942
I91
sS'ihy'
p3943
I91
sS'undie'
p3944
I91
sS'rothstein'
p3945
I91
sS'blown'
p3946
I90
sS'katastro'
p3947
I91
sS'(right\xe2\x80\xa6'
p3948
I91
sS"wifi's"
p3949
I91
sS'gang'
p3950
I91
sS'scene'
p3951
I90
sS'456'
p3952
I91
sS'jesus'
p3953
I89
sS'microscopes'
p3954
I91
sS'surpriseof'
p3955
I91
sS'phil'
p3956
I91
sS'bitch'
p3957
I90
sS'mah'
p3958
I91
sS'owner'
p3959
I90
sS'besties'
p3960
I91
sS'ass"'
p3961
I91
sS'quality'
p3962
I91
sS'heroes'
p3963
I91
sS"doesn't"
p3964
I84
sS'beloved'
p3965
I91
sS'hawk'
p3966
I91
sS'smaller'
p3967
I91
sS'reference'
p3968
I91
sS'retweet'
p3969
I91
sS'los'
p3970
I81
sS'festival'
p3971
I90
sS'filthy'
p3972
I90
sS'"unnamed'
p3973
I91
sS'achieved'
p3974
I91
sS'marebearrrr'
p3975
I91
sS'hilary'
p3976
I91
sS"\xe2\x98\x81\xef\xb8\x8f's"
p3977
I91
sS'their'
p3978
I76
sS'wrapped'
p3979
I91
sS'(note'
p3980
I91
sS'perfectly'
p3981
I91
sS'final'
p3982
I89
sS'amen'
p3983
I91
sS'misunderstood'
p3984
I91
sS'stars'
p3985
I91
sS'shorts'
p3986
I91
sS'exactly'
p3987
I89
sS'motorcycle'
p3988
I91
sS'\xd9\x84\xd9\x8a'
p3989
I91
sS'/clips'
p3990
I91
sS'kday'
p3991
I91
sS'alfonso'
p3992
I91
sS'july'
p3993
I88
sS'elite'
p3994
I91
sS"20:38:44.0,34.09848102,-118.37116174,1942,today's"
p3995
I91
sS'gotchu'
p3996
I90
sS'remember'
p3997
I91
sS'ipad'
p3998
I91
sS'loved'
p3999
I81
sS'heckers'
p4000
I91
sS'slack'
p4001
I91
sS'blew'
p4002
I91
sS"dante's"
p4003
I91
sS'bean73'
p4004
I91
sS"spo's"
p4005
I91
sS'infectious'
p4006
I91
sS'bed'
p4007
I89
sS'tortured'
p4008
I91
sS'\xe2\x80\xbc\xef\xb8\x8f\xe2\x80\x9d'
p4009
I91
sS'loves'
p4010
I89
sS'lover'
p4011
I91
sS'bare'
p4012
I91
sS'india'
p4013
I91
sS'country'
p4014
I91
sS'spurs'
p4015
I90
sS'result'
p4016
I90
sS'1.5'
p4017
I91
sS'meeting\xe2\x80\xa6'
p4018
I91
sS'fowl'
p4019
I91
sS'deodorant'
p4020
I91
sS'spelled'
p4021
I90
sS'liner'
p4022
I91
sS'tonight'
p4023
I36
sS'tom'
p4024
I91
sS'buy'
p4025
I91
sS'raffle'
p4026
I91
sS'defending'
p4027
I91
sS'have'
p4028
I35
sS'cienega'
p4029
I91
sS'need'
p4030
I80
sS'apparently'
p4031
I91
sS'clearly'
p4032
I89
sS'screw'
p4033
I91
sS'microphone'
p4034
I91
sS'afraid'
p4035
I91
sS'...laughs'
p4036
I91
sS'congrats'
p4037
I86
sS'mia'
p4038
I91
sS'mic'
p4039
I91
sS'swervin'
p4040
I91
sS'able'
p4041
I90
sS'gravity'
p4042
I91
sS'incentive'
p4043
I91
sS'thermometer)'
p4044
I91
sS'bagel'
p4045
I91
sS'mix'
p4046
I91
sS'ex-nsa'
p4047
I91
sS'which'
p4048
I82
sS'truck'
p4049
I89
sS'='
p4050
I83
sS'youuuu'
p4051
I91
sS'paths'
p4052
I91
sS'kelly'
p4053
I91
sS'02:43:54.0,34.10300108,-118.37453541,1942,jus'
p4054
I91
sS'manos'
p4055
I91
sS'aww'
p4056
I91
sS'hahahhaahahahahahahahahaha'
p4057
I91
sS'who'
p4058
I49
sS'mandatory'
p4059
I91
sS"where's"
p4060
I89
sS'intentions'
p4061
I91
sS'degrees.also'
p4062
I91
sS'hoodrats)'
p4063
I91
sS'awh'
p4064
I91
sS'romaine'
p4065
I91
sS'johnstamos'
p4066
I91
sS'awe'
p4067
I91
sS'future'
p4068
I89
sS'sally'
p4069
I91
sS'why'
p4070
I65
sS'police'
p4071
I91
sS'mup'
p4072
I91
sS'cellphone'
p4073
I91
sS'polyester'
p4074
I91
sS'ptrique?)'
p4075
I91
sS'know"'
p4076
I91
sS'stranded'
p4077
I91
sS'upset'
p4078
I90
sS'ballsack'
p4079
I91
sS'face'
p4080
I85
sS'looked'
p4081
I86
sS'lots'
p4082
I91
sS"you'll"
p4083
I89
sS'strawberries'
p4084
I90
sS'pictures'
p4085
I91
sS'skunk'
p4086
I91
sS'normally'
p4087
I91
sS'outlive'
p4088
I91
sS'fact'
p4089
I89
sS'kodaline'
p4090
I91
sS'goonin'
p4091
I91
sS'mrtattoomodel'
p4092
I91
sS'hurricanes'
p4093
I91
sS'exclusive'
p4094
I90
sS'text'
p4095
I90
sS'indoor'
p4096
I91
sS'photobombing'
p4097
I91
sS'bring'
p4098
I89
sS'canyon)'
p4099
I91
sS'bedroom'
p4100
I91
sS'large'
p4101
I91
sS'fear'
p4102
I86
sS'chateau"'
p4103
I91
sS'posing:)'
p4104
I91
sS'many"'
p4105
I91
sS'grandmother'
p4106
I91
sS'durant'
p4107
I91
sS'\xd9\x81\xd9\x8a'
p4108
I91
sS'based'
p4109
I90
sS'food)'
p4110
I91
sS'inspiration'
p4111
I91
sS'jay'
p4112
I91
sS'trxtinf'
p4113
I91
sS'('
p4114
I89
sS'jar'
p4115
I91
sS'fumbles'
p4116
I91
sS'should'
p4117
I73
sS'betsy'
p4118
I91
sS'advil'
p4119
I91
sS"there's"
p4120
I84
sS'tape'
p4121
I91
sS'lemme'
p4122
I91
sS'arm'
p4123
I91
sS'experimenting'
p4124
I91
sS'riding'
p4125
I91
sS'margo'
p4126
I91
sS'local'
p4127
I90
sS'hope'
p4128
I88
sS'brat'
p4129
I91
sS'meant'
p4130
I90
sS'jacqueline'
p4131
I91
sS'fabulous'
p4132
I90
sS'cooperation'
p4133
I91
sS'means'
p4134
I86
sS'fellow'
p4135
I90
sS'grey'
p4136
I91
sS'dope'
p4137
I91
sS'indirects'
p4138
I90
sS'19-0'
p4139
I91
sS'15+'
p4140
I91
sS'likely'
p4141
I91
sS'abundance'
p4142
I91
sS'awww'
p4143
I91
sS'maaan'
p4144
I91
sS'levis'
p4145
I91
sS'words'
p4146
I86
sS'bluray'
p4147
I91
sS'timing'
p4148
I91
sS'wise'
p4149
I91
sS'striped'
p4150
I91
sS'sinus'
p4151
I91
sS'romantic'
p4152
I91
sS'directv'
p4153
I91
sS'fran'
p4154
I91
sS'donate'
p4155
I91
sS'katyperry'
p4156
I91
sS'behemoth'
p4157
I91
sS'trucks'
p4158
I90
sS'course'
p4159
I88
sS'h'
p4160
I89
sS'rage'
p4161
I91
sS'lala'
p4162
I91
sS'mom)'
p4163
I91
sS'bar\xe2\x80\xa6'
p4164
I91
sS'stuff'
p4165
I86
sS'hosed'
p4166
I91
sS'she'
p4167
I82
sS'basking'
p4168
I91
sS'ohio'
p4169
I91
sS'hollywood)'
p4170
I83
sS'view'
p4171
I75
sS'spotted'
p4172
I91
sS'knowing'
p4173
I90
sS'requirement'
p4174
I91
sS'temporarily'
p4175
I90
sS'exists'
p4176
I91
sS'daveedmoon'
p4177
I91
sS'cuts'
p4178
I91
sS'humans'
p4179
I91
sS'lazy'
p4180
I90
sS'sessy'
p4181
I91
sS'more\xe2\x9c\xa8'
p4182
I91
sS'edition'
p4183
I91
sS'\xd8\xaa\xd9\x84\xd8\xaf\xd9\x87\xd8\xa7'
p4184
I91
sS'buzzed'
p4185
I91
sS'violet'
p4186
I90
sS'paulsinhere'
p4187
I91
sS'working.this'
p4188
I91
sS':/'
p4189
I91
sS'welles'
p4190
I90
sS'cole'
p4191
I90
sS'stats'
p4192
I91
sS'encore'
p4193
I90
sS'luv'
p4194
I88
sS'record'
p4195
I91
sS'genius'
p4196
I91
sS'nightmare'
p4197
I90
sS'segment'
p4198
I91
sS'below'
p4199
I91
sS'tend'
p4200
I91
sS'favor'
p4201
I91
sS'state'
p4202
I88
sS'quickest'
p4203
I91
sS'melrose'
p4204
I90
sS'routing'
p4205
I91
sS'gym...then'
p4206
I91
sS'lug'
p4207
I91
sS'carpaccio'
p4208
I91
sS'flicks'
p4209
I91
sS'blocked'
p4210
I91
sS'email'
p4211
I91
sS'speed'
p4212
I91
sS'pants'
p4213
I89
sS'ends'
p4214
I91
sS'explosive'
p4215
I91
sS'philbin'
p4216
I91
sS'opening'
p4217
I91
sS'joy'
p4218
I87
sS'troubleshoots'
p4219
I91
sS'ros\xc3\xa9'
p4220
I91
sS'(positive'
p4221
I91
sS'the\xe2\x80\xa6'
p4222
I90
sS'job'
p4223
I89
sS'joe'
p4224
I91
sS'merry'
p4225
I89
sS'probing'
p4226
I91
sS'group'
p4227
I90
sS'precious'
p4228
I91
sS'optional'
p4229
I91
sS'(somebody'
p4230
I91
sS'david'
p4231
I89
sS"griffin's"
p4232
I91
sS'2002'
p4233
I91
sS'career'
p4234
I91
sS'joke'
p4235
I86
sS'taking'
p4236
I85
sS'antisocial'
p4237
I91
sS'gingers'
p4238
I91
sS'fleecing'
p4239
I91
sS'drug'
p4240
I91
sS'pulp'
p4241
I91
sS'paulandwilliams'
p4242
I91
sS'insidious'
p4243
I91
sS'harvard'
p4244
I91
sS'01:22:17.0,34.10070419,-118.3687806,1942,he'
p4245
I91
sS'trumps'
p4246
I91
sS"-i'm"
p4247
I91
sS'inspired'
p4248
I91
sS'passing'
p4249
I91
sS'toasting'
p4250
I91
sS'glorious'
p4251
I91
sS'wear'
p4252
I89
sS'comment'
p4253
I91
sS'teresapulver'
p4254
I91
sS'relevant'
p4255
I91
sS'co'
p4256
I91
sS'author'
p4257
I91
sS'agents'
p4258
I91
sS'gone'
p4259
I91
sS'wall'
p4260
I91
sS'tuesday'
p4261
I90
sS'makin'
p4262
I91
sS'ce'
p4263
I91
sS'walk'
p4264
I84
sS'greg'
p4265
I91
sS'laugh'
p4266
I91
sS'news'
p4267
I91
sS'ffs'
p4268
I91
sS'kings'
p4269
I88
sS'luna'
p4270
I91
sS'winning'
p4271
I90
sS'immeds'
p4272
I91
sS'inhale'
p4273
I90
sS'yay'
p4274
I85
sS'johnny'
p4275
I91
sS'acts'
p4276
I91
sS"it's"
p4277
I30
sS'hyde-away'
p4278
I90
sS'broadcasts'
p4279
I91
sS'tr\xc3\xa8s'
p4280
I91
sS'apologize'
p4281
I91
sS'immense'
p4282
I91
sS'literal'
p4283
I91
sS'drank'
p4284
I91
sS'split"'
p4285
I91
sS'bby'
p4286
I91
sS'certain'
p4287
I90
sS'natashadye'
p4288
I91
sS'quick/small'
p4289
I91
sS'>'
p4290
I90
sS'07:18:22.0,34.09803078,-118.36568257,1942,i'
p4291
I91
sS'mike'
p4292
I91
sS'wanna'
p4293
I80
sS'cop'
p4294
I91
sS'deer'
p4295
I91
sS'mcflurrys'
p4296
I91
sS'chic'
p4297
I91
sS'10years'
p4298
I91
sS'crappy'
p4299
I91
sS'bulk'
p4300
I91
sS'finished'
p4301
I90
sS'angles'
p4302
I90
sS'bull'
p4303
I90
sS'smoking'
p4304
I89
sS'brunch'
p4305
I90
sS'an'
p4306
I58
sS'brooklynweaver'
p4307
I91
sS'present'
p4308
I90
sS'callers'
p4309
I91
sS'carter'
p4310
I91
sS'holiday'
p4311
I90
sS'cbs'
p4312
I91
sS'dodge'
p4313
I91
sS'xoxoxo'
p4314
I89
sS'wiki'
p4315
I91
sS'hills\xe2\x80\xa6'
p4316
I91
sS'will'
p4317
I59
sS'shoooo'
p4318
I91
sS'iamwill'
p4319
I91
sS'bounds'
p4320
I91
sS'hahaha'
p4321
I86
sS'wild'
p4322
I91
sS'biologically'
p4323
I91
sS'~'
p4324
I86
sS'summer\xe2\x80\xa6'
p4325
I91
sS've'
p4326
I91
sS"hills'"
p4327
I91
sS'almost'
p4328
I84
sS'refs'
p4329
I91
sS'adorbs'
p4330
I91
sS'thus'
p4331
I91
sS'fan.""'
p4332
I91
sS'surface'
p4333
I91
sS'todaymonday'
p4334
I91
sS'conditioning'
p4335
I91
sS'vs'
p4336
I88
sS'aesthetically'
p4337
I91
sS'avi'
p4338
I91
sS'lifetime'
p4339
I90
sS'daddy"'
p4340
I91
sS'bucks'
p4341
I91
sS'somwhere'
p4342
I91
sS'thud'
p4343
I91
sS'geth'
p4344
I91
sS'az'
p4345
I91
sS'pauly'
p4346
I91
sS'stadiums'
p4347
I91
sS'bestfriends'
p4348
I91
sS'upside'
p4349
I91
sS'underwhelmed'
p4350
I91
sS'bump??"'
p4351
I91
sS'matches'
p4352
I91
sS'strange'
p4353
I91
sS'inch'
p4354
I91
sS'party'
p4355
I58
sS'gets'
p4356
I88
sS'microsoft'
p4357
I91
sS'hideous/hilarious'
p4358
I91
sS"vogel's"
p4359
I91
sS'gonna\xe2\x80\xa6'
p4360
I91
sS'ball'
p4361
I87
sS'columbia'
p4362
I91
sS'alot'
p4363
I91
sS'\xd9\x84\xd9\x85'
p4364
I91
sS'selfish'
p4365
I91
sS'premiere'
p4366
I87
sS'drink'
p4367
I87
sS'ios'
p4368
I90
sS'beast'
p4369
I91
sS'"turf'
p4370
I91
sS'painful'
p4371
I91
sS'fucked'
p4372
I91
sS'l.a'
p4373
I91
sS'broccoli'
p4374
I91
sS'steals'
p4375
I91
sS'clips'
p4376
I91
sS'geniuses'
p4377
I91
sS'off'
p4378
I66
sS'center'
p4379
I91
sS'mention'
p4380
I91
sS'i'
p4381
I4
sS"darlin'"
p4382
I91
sS'well'
p4383
I80
sS'fighting'
p4384
I90
sS'antonio'
p4385
I90
sS'thought'
p4386
I83
sS'mixers'
p4387
I91
sS'oops'
p4388
I91
sS'vinaigrette'
p4389
I91
sS'partner'
p4390
I91
sS'mules'
p4391
I91
sS'con'
p4392
I90
sS'oooooooh'
p4393
I91
sS'woot'
p4394
I91
sS'believe"'
p4395
I91
sS'newest'
p4396
I91
sS'moment-to-'
p4397
I91
sS'camel'
p4398
I91
sS'insinuating'
p4399
I91
sS'upton'
p4400
I91
sS"should've"
p4401
I91
sS'wealthy'
p4402
I91
sS'liked'
p4403
I91
sS'zelda'
p4404
I91
sS'arriving'
p4405
I91
sS'(oscar)'
p4406
I91
sS'underlying'
p4407
I91
sS'seats'
p4408
I90
sS'laurel'
p4409
I64
sS'scooters'
p4410
I91
sS'griffith'
p4411
I91
sS'happiness'
p4412
I91
sS'sickened'
p4413
I91
sS'web'
p4414
I89
sS'upswing'
p4415
I91
sS'cd/dvd'
p4416
I91
sS'ads'
p4417
I90
sS'effin'
p4418
I89
sS'wei'
p4419
I91
sS'andaz'
p4420
I84
sS'sky'
p4421
I91
sS'lake'
p4422
I91
sS'killed'
p4423
I87
sS'wes'
p4424
I91
sS"hilton's"
p4425
I91
sS'add'
p4426
I89
sS'nicki'
p4427
I91
sS'cup'
p4428
I91
sS'halo'
p4429
I91
sS'wet'
p4430
I89
sS'vids'
p4431
I91
sS'grow'
p4432
I91
sS'balloons'
p4433
I91
sS'earthquakes'
p4434
I91
sS'smart'
p4435
I88
sS'boom'
p4436
I91
sS'partying'
p4437
I91
sS'increased'
p4438
I90
sS'artforum)'
p4439
I91
sS'government'
p4440
I91
sS'checking'
p4441
I91
sS"who's"
p4442
I87
sS'haus'
p4443
I89
sS'fats'
p4444
I91
sS'whispers'
p4445
I91
sS'eggplant'
p4446
I91
sS'5am'
p4447
I91
sS'know'
p4448
I58
sS'bartender'
p4449
I91
sS'wed'
p4450
I91
sS'press'
p4451
I89
sS'immediately'
p4452
I91
sS'bloom'
p4453
I91
sS'cups'
p4454
I91
sS'store)'
p4455
I91
sS'lincoln'
p4456
I91
sS'3-d'
p4457
I91
sS'pure'
p4458
I91
sS'like'
p4459
I25
sS'lost'
p4460
I82
sS'miami'
p4461
I88
sS'starry'
p4462
I91
sS'aches'
p4463
I91
sS'bigotry'
p4464
I91
sS'"hashtag'
p4465
I90
sS'sized'
p4466
I90
sS'roth'
p4467
I91
sS'around.keep'
p4468
I91
sS'journalist'
p4469
I91
sS'lose'
p4470
I91
sS'become'
p4471
I87
sS'works'
p4472
I88
sS'page'
p4473
I91
sS'accessible'
p4474
I91
sS'motorcyclists'
p4475
I91
sS'"hollywood"'
p4476
I91
sS'nigga'
p4477
I89
sS'homy'
p4478
I91
sS'thefashionadroit'
p4479
I91
sS'twitter'
p4480
I86
sS'flagrant'
p4481
I91
sS'huggys'
p4482
I91
sS'searching'
p4483
I91
sS'alive'
p4484
I87
sS'"johnny'
p4485
I91
sS'hair'
p4486
I87
sS'darlin'
p4487
I91
sS'repeat'
p4488
I91
sS'shes'
p4489
I91
sS'cleveland'
p4490
I88
sS'proper'
p4491
I91
sS'home'
p4492
I78
sS'liking'
p4493
I91
sS'peter'
p4494
I91
sS'so..sister'
p4495
I91
sS'sammy'
p4496
I91
sS'happens'
p4497
I89
sS'recognize)'
p4498
I91
sS"chris's"
p4499
I91
sS'bet'
p4500
I90
sS'befitting'
p4501
I91
sS'merge'
p4502
I91
sS'literally'
p4503
I84
sS'avoid'
p4504
I89
sS'bunnies'
p4505
I91
sS'lean'
p4506
I91
sS'merch'
p4507
I91
sS'groomed'
p4508
I91
sS'away\xe2\x80\x9d'
p4509
I91
sS'does'
p4510
I74
sS'contact'
p4511
I91
sS'wendy'
p4512
I91
sS'truffle'
p4513
I91
sS'\xd9\x84\xd8\xa7'
p4514
I91
sS'filters'
p4515
I91
sS'betty'
p4516
I91
sS'mulstay'
p4517
I91
sS'penalize'
p4518
I91
sS'pepper'
p4519
I91
sS'noise'
p4520
I91
sS'infuses'
p4521
I91
sS'then...i'
p4522
I91
sS'marmont]'
p4523
I91
sS'drop.,90069\n446483557498617857,ashleylayogini,2014-03-20'
p4524
I91
sS'ch\xc3\xa2teau\xe2\x80\xa6'
p4525
I87
sS'pressure'
p4526
I91
sS'host'
p4527
I90
sS'primetime'
p4528
I91
sS'although'
p4529
I91
sS'worthy'
p4530
I91
sS"weeknd's"
p4531
I91
sS'imaginary'
p4532
I91
sS'baronandre'
p4533
I91
sS'stage'
p4534
I88
sS'about'
p4535
I55
sS':-)'
p4536
I87
sS'emails'
p4537
I91
sS'justin'
p4538
I89
sS'extension'
p4539
I91
sS'getting'
p4540
I73
sS'freedom'
p4541
I90
sS'certainty'
p4542
I91
sS'partyyyy'
p4543
I91
sS'shipping'
p4544
I90
sS'louisville'
p4545
I91
sS'angeles'
p4546
I75
sS'ahhhhh'
p4547
I91
sS'swear'
p4548
I86
sS'henchman'
p4549
I91
sS'sweat'
p4550
I91
sS'tongue'
p4551
I91
sS'liberating'
p4552
I91
sS'documentary'
p4553
I91
sS'chonacas'
p4554
I91
sS'peak'
p4555
I91
sS'own'
p4556
I87
sS'letters'
p4557
I91
sS'carolyn'
p4558
I91
sS'renibaitenmann'
p4559
I91
sS'owe'
p4560
I91
sS'15:31:59.0,34.09882096,-118.36643593,1942,i'
p4561
I91
sS"l'chaim"
p4562
I91
sS'errands'
p4563
I91
sS'parsley'
p4564
I91
sS'malcolm'
p4565
I91
sS'playoff'
p4566
I90
sS'par'
p4567
I91
sS'promise'
p4568
I91
sS'artists'
p4569
I91
sS'crooked'
p4570
I91
sS'shanoaaaaa'
p4571
I91
sS'\xd8\xa7\xd8\xad\xd9\x81\xd8\xb8\xd9\x87\xd8\xa7'
p4572
I91
sS'ssssshh'
p4573
I91
sS'van'
p4574
I91
sS'shake'
p4575
I91
sS'hehe'
p4576
I91
sS'brides'
p4577
I91
sS'another,90069\n475147785872756736,chrispiliguian,2014-06-07'
p4578
I91
sS'apps'
p4579
I91
sS'reduction'
p4580
I91
sS'spots'
p4581
I91
sS'imperial'
p4582
I91
sS'intention'
p4583
I91
sS'posters'
p4584
I91
sS'thirteeth'
p4585
I91
sS'maze'
p4586
I91
sS'yrs'
p4587
I91
sS'lambos'
p4588
I91
sS'there\xe2\x80\x9d'
p4589
I91
sS"janna's"
p4590
I91
sS'mowed'
p4591
I91
sS'yellow'
p4592
I91
sS'cricket'
p4593
I91
sS'crushing'
p4594
I91
sS'tina'
p4595
I91
sS'chatting'
p4596
I91
sS"i've"
p4597
I70
sS'shane'
p4598
I91
sS'bus'
p4599
I88
sS'brand'
p4600
I91
sS'vieille'
p4601
I91
sS'but'
p4602
I35
sS'game."really'
p4603
I91
sS'delivery'
p4604
I90
sS'expected'
p4605
I91
sS'hi'
p4606
I87
sS'ho'
p4607
I91
sS'courts'
p4608
I91
sS'dirtys'
p4609
I91
sS'ear'
p4610
I91
sS'memphis'
p4611
I91
sS'eat'
p4612
I85
sS'bud'
p4613
I88
sS'he'
p4614
I59
sS'count'
p4615
I91
sS'unfollow'
p4616
I91
sS'made'
p4617
I81
sS'too:)'
p4618
I91
sS'birthday\xe2\x80\xa6'
p4619
I91
sS'places'
p4620
I90
sS'whether'
p4621
I90
sS'wish'
p4622
I84
sS'official'
p4623
I89
sS'hosting'
p4624
I91
sS'signed'
p4625
I91
sS'fight'
p4626
I91
sS'tacos)'
p4627
I89
sS'garbage'
p4628
I91
sS'stories'
p4629
I91
sS'woke'
p4630
I91
sS'pumped'
p4631
I91
sS'cake'
p4632
I91
sS'hillarious/brilliant/amazing'
p4633
I91
sS'problem'
p4634
I90
sS'piece'
p4635
I87
sS'minutes'
p4636
I88
sS'frat'
p4637
I91
sS'unfolding'
p4638
I91
sS'cmon'
p4639
I91
sS'replying'
p4640
I91
sS'entering'
p4641
I91
sS'nyc"'
p4642
I91
sS'recognize'
p4643
I91
sS'universal'
p4644
I91
sS'pic'
p4645
I88
sS'kisses'
p4646
I91
sS'vu'
p4647
I91
sS'roadmap...dm'
p4648
I91
sS'twist'
p4649
I91
sS'boardwalk'
p4650
I91
sS'lived'
p4651
I91
sS'abbot'
p4652
I91
sS'goodness'
p4653
I91
sS'ink'
p4654
I91
sS'shooting'
p4655
I88
sS'pit'
p4656
I91
sS'happen'
p4657
I87
sS'champion'
p4658
I91
sS'exhausting'
p4659
I91
sS'spell'
p4660
I91
sS'incredible'
p4661
I88
sS'switch'
p4662
I91
sS'dressed'
p4663
I90
sS'45'
p4664
I91
sS'percent'
p4665
I91
sS'\xd9\x88\xd9\x84\xd8\xa7'
p4666
I91
sS'thang'
p4667
I91
sS'deserved'
p4668
I91
sS'other'
p4669
I77
sS'legally\xe2\x80\xa6'
p4670
I91
sS'sandy'
p4671
I91
sS'sick'
p4672
I89
sS'wheres'
p4673
I91
sS'honorary'
p4674
I91
sS'stat'
p4675
I90
sS'crushin'
p4676
I91
sS'star'
p4677
I91
sS'monday'
p4678
I90
sS'goalllllllllll'
p4679
I91
sS'vega'
p4680
I91
sS'inescapable'
p4681
I91
sS'pacers'
p4682
I91
sS'2n'
p4683
I91
sS'stay'
p4684
I86
sS'chance'
p4685
I89
sS'\xe2\x80\xa2'
p4686
I72
sS'kinda'
p4687
I83
sS'boyband'
p4688
I91
sS'badass'
p4689
I91
sS'friends'
p4690
I76
sS'dolphins'
p4691
I86
sS'\xe2\x80\x93'
p4692
I91
sS'balcony'
p4693
I91
sS'hiked'
p4694
I91
sS'lyon'
p4695
I91
sS'processed'
p4696
I91
sS'\xe2\x80\x9c'
p4697
I91
sS'original'
p4698
I91
sS'vauclusecalifornia\xe2\x80\xa6'
p4699
I91
sS'write'
p4700
I90
sS"baba's"
p4701
I91
sS'situations'
p4702
I91
sS'diagnosis'
p4703
I91
sS'lives'
p4704
I90
sS'yell'
p4705
I90
sS'"the'
p4706
I90
s.