(dp0
S''
p1
I2
sS'raining'
p2
I105
sS'four'
p3
I102
sS'betch'
p4
I105
sS'woods'
p5
I105
sS'hanging'
p6
I101
sS'lievre'
p7
I105
sS'tashakimiyaki'
p8
I105
sS'lord'
p9
I102
sS'shaving'
p10
I105
sS'"breakthrough'
p11
I105
sS'crackin'
p12
I105
sS'storytime'
p13
I105
sS'anoraak'
p14
I105
sS'stabbed'
p15
I105
sS'bringing'
p16
I104
sS'prize'
p17
I104
sS'fuq'
p18
I105
sS'wednesday'
p19
I103
sS'yvonee'
p20
I105
sS'tired'
p21
I103
sS'miller'
p22
I105
sS'bacon'
p23
I105
sS'smfh'
p24
I105
sS'elegant'
p25
I105
sS'second'
p26
I103
sS'theory'
p27
I102
sS'boogie'
p28
I105
sS'fingers'
p29
I105
sS'saludos'
p30
I105
sS'hero'
p31
I105
sS'interrupting'
p32
I105
sS'here'
p33
I51
sS'\xe2\x9a\xa0\xef\xb8\x8ffundraiser'
p34
I105
sS'\xe2\x9d\xa4\xef\xb8\x8f'
p35
I101
sS'kids'
p36
I101
sS'k'
p37
I104
sS"i'd"
p38
I99
sS'\xe2\x9c\x94\xef\xb8\x8f'
p39
I105
sS'lml'
p40
I105
sS"i'm"
p41
I15
sS'golden'
p42
I101
sS'hamas'
p43
I105
sS'brought'
p44
I99
sS'cocaine'
p45
I105
sS'<3'
p46
I102
sS'cheating'
p47
I105
sS'brownstopher\xe2\x80\xa6'
p48
I105
sS'dnt'
p49
I105
sS'dnv'
p50
I105
sS'music'
p51
I76
sS'therefore'
p52
I105
sS'until'
p53
I99
sS'females'
p54
I105
sS'holy'
p55
I100
sS'relax'
p56
I104
sS'brings'
p57
I101
sS'hurt'
p58
I105
sS'hole'
p59
I105
sS'hold'
p60
I103
sS'94'
p61
I105
sS'morally'
p62
I105
sS'locked'
p63
I105
sS'.rain'
p64
I105
sS'grimes'
p65
I105
sS'pints'
p66
I105
sS'julissa'
p67
I105
sS'want'
p68
I81
sS'w/posse'
p69
I105
sS'dyke'
p70
I105
sS'travel'
p71
I95
sS'dish!!!!\xe2\x80\xa6'
p72
I105
sS'machine'
p73
I104
sS'how'
p74
I66
sS'hot'
p75
I94
sS'yum'
p76
I103
sS'cadence'
p77
I105
sS'hoy'
p78
I105
sS'gaming'
p79
I104
sS'beauty'
p80
I103
sS'...on'
p81
I105
sS'dinosaurs'
p82
I104
sS'wrong'
p83
I101
sS'turd'
p84
I105
sS'wins'
p85
I104
sS'headquarters'
p86
I105
sS'fictional'
p87
I103
sS'sickening'
p88
I105
sS'baggage'
p89
I105
sS'barnes'
p90
I105
sS'backdrop'
p91
I105
sS'wine'
p92
I101
sS'(us)'
p93
I105
sS'virgen'
p94
I105
sS'belissima'
p95
I105
sS'raveonettes'
p96
I105
sS'u.not'
p97
I105
sS'thrones'
p98
I105
sS'good?"'
p99
I105
sS'silver'
p100
I103
sS'merchandise/ducktails'
p101
I105
sS'debut'
p102
I104
sS'spotless'
p103
I105
sS'turnin'
p104
I105
sS'allan'
p105
I104
sS'cathedral'
p106
I100
sS'rt'
p107
I101
sS'neila333'
p108
I104
sS'rn'
p109
I100
sS'mcclean'
p110
I105
sS'cobartle'
p111
I105
sS'shauny-kins'
p112
I105
sS'metallica'
p113
I105
sS'enormous'
p114
I104
sS'ate'
p115
I103
sS'atm'
p116
I105
sS'ups'
p117
I105
sS'musicians'
p118
I105
sS'vegan\xe2\x80\xa6'
p119
I105
sS"today's"
p120
I103
sS'subtlety'
p121
I105
sS'channels'
p122
I105
sS'wash'
p123
I105
sS'kfc'
p124
I105
sS"there's"
p125
I96
sS'service'
p126
I103
sS'traumatize'
p127
I105
sS'needed'
p128
I104
sS'legs'
p129
I105
sS'listen'
p130
I101
sS'1more'
p131
I105
sS'nirvana'
p132
I105
sS"spinnin'"
p133
I105
sS'crawl'
p134
I105
sS'tree'
p135
I103
sS'shower'
p136
I104
sS'tres'
p137
I105
sS'feeling'
p138
I99
sS'spiciness...but'
p139
I105
sS'esta'
p140
I105
sS'broods'
p141
I105
sS'rasputin'
p142
I105
sS'post-punk'
p143
I105
sS'doors'
p144
I105
sS'grips'
p145
I105
sS'soaker'
p146
I105
sS'shall'
p147
I105
sS'reflekt'
p148
I105
sS'doin'
p149
I105
sS'mystique'
p150
I105
sS'kelly'
p151
I105
sS'organization'
p152
I105
sS'singer'
p153
I103
sS'episode'
p154
I105
sS'professor'
p155
I105
sS'camp'
p156
I105
sS'tech'
p157
I105
sS'came'
p158
I101
sS'saying'
p159
I101
sS'cooking'
p160
I105
sS'bomb'
p161
I105
sS'tequila'
p162
I100
sS'bonnie'
p163
I105
sS'lessons'
p164
I105
sS'orleans'
p165
I103
sS'touches'
p166
I105
sS'busy'
p167
I104
sS'ment'
p168
I105
sS'menu'
p169
I104
sS'than'
p170
I92
sS'bliss'
p171
I104
sS'touched'
p172
I105
sS'rich'
p173
I105
sS'rice'
p174
I105
sS'boathouse'
p175
I99
sS'jaguar'
p176
I105
sS'grubbbbb'
p177
I105
sS'release'
p178
I101
sS'respond'
p179
I105
sS'goodnight'
p180
I105
sS'for\xe2\x80\xa6'
p181
I104
sS'skulls'
p182
I105
sS'best'
p183
I74
sS'karate'
p184
I105
sS'lots'
p185
I100
sS'score'
p186
I105
sS'irl'
p187
I105
sS'melissa'
p188
I105
sS'prada'
p189
I105
sS'montanarocky'
p190
I105
sS'prado'
p191
I105
sS'pirate'
p192
I104
sS'men'
p193
I105
sS'cymbals'
p194
I102
sS'badreligion'
p195
I105
sS'rolled'
p196
I105
sS'drew'
p197
I105
sS'wtf'
p198
I102
sS'herd'
p199
I105
sS'accident'
p200
I104
sS'miyaki'
p201
I103
sS'country'
p202
I104
sS'pits'
p203
I105
sS'pitt'
p204
I105
sS'planned'
p205
I105
sS'surprises'
p206
I105
sS'argue'
p207
I105
sS'asked'
p208
I104
sS'and'
p209
I8
sS'groupon'
p210
I105
sS'2nd'
p211
I101
sS'blonde'
p212
I105
sS"aren't"
p213
I104
sS'chrome'
p214
I105
sS'park\xe2\x80\xa6'
p215
I105
sS'much'
p216
I86
sS'stadium'
p217
I101
sS'dots'
p218
I105
sS'life'
p219
I80
sS'spit'
p220
I105
sS"'young"
p221
I105
sS'dave'
p222
I103
sS'jackfm'
p223
I105
sS'child'
p224
I104
sS'tip-'
p225
I105
sS'chili'
p226
I104
sS'spin'
p227
I105
sS'wildcat'
p228
I105
sS'played'
p229
I98
sS'conditioner'
p230
I103
sS'low-rumble'
p231
I105
sS'memorial'
p232
I102
sS'tm_presley'
p233
I105
sS'things'
p234
I91
sS'toaster'
p235
I104
sS'split'
p236
I105
sS'babies'
p237
I104
sS'shnapp'
p238
I105
sS'issac'
p239
I105
sS'next!\xe2\x80\x9d'
p240
I105
sS'photographers'
p241
I104
sS'preachy'
p242
I105
sS'pullin'
p243
I105
sS'tune'
p244
I105
sS'july}'
p245
I105
sS'origamivinyl'
p246
I105
sS'melodics'
p247
I105
sS'burgers'
p248
I105
sS'<3333'
p249
I105
sS'veils'
p250
I105
sS'opinions'
p251
I105
sS'capitol'
p252
I105
sS'sleepy'
p253
I105
sS'butchering'
p254
I105
sS'(belgian-style'
p255
I104
sS'things...lots'
p256
I105
sS'had'
p257
I70
sS'advancement'
p258
I105
sS'beloved'
p259
I105
sS'has'
p260
I75
sS'hat'
p261
I102
sS'municipal'
p262
I105
sS'possible'
p263
I104
sS'birth'
p264
I104
sS"grey'"
p265
I105
sS'poses'
p266
I105
sS'alice'
p267
I105
sS'remind'
p268
I103
sS'right'
p269
I65
sS'old'
p270
I87
sS'ole'
p271
I100
sS'crowd'
p272
I96
sS'people'
p273
I81
sS'crown'
p274
I105
sS'begin'
p275
I101
sS'hemsworth'
p276
I105
sS'for'
p277
I9
sS'bottom'
p278
I105
sS'soto'
p279
I105
sS'witte'
p280
I105
sS'creative'
p281
I105
sS'fog'
p282
I105
sS'umm'
p283
I105
sS'stefan'
p284
I105
sS'defensive'
p285
I105
sS'memorable'
p286
I105
sS'dollars'
p287
I104
sS'citizens'
p288
I105
sS'o'
p289
I95
sS'stoked'
p290
I104
sS'slightly'
p291
I105
sS'raised'
p292
I104
sS'cals'
p293
I105
sS'honeymoon'
p294
I105
sS'son'
p295
I104
sS'sos'
p296
I105
sS'magazines'
p297
I105
sS'wrap'
p298
I104
sS'often'
p299
I105
sS'\xe2\x98\x81\xef\xb8\x8f\xe2\x98\x81\xef\xb8\x8f\xe2\x98\x81\xef\xb8\x8f'
p300
I105
sS'support'
p301
I105
sS'tame'
p302
I105
sS'tele'
p303
I105
sS'happy'
p304
I69
sS'offer'
p305
I105
sS'mothaf**ka'
p306
I105
sS'notifications'
p307
I105
sS'congratulations'
p308
I100
sS"else's"
p309
I105
sS'inside'
p310
I98
sS'cale'
p311
I105
sS'nicest'
p312
I105
sS'smashed'
p313
I105
sS'mighty'
p314
I104
sS'dues'
p315
I105
sS'later'
p316
I100
sS'liberal'
p317
I105
sS'minaj'
p318
I105
sS'hungry'
p319
I101
sS'gemini'
p320
I102
sS'exist'
p321
I105
sS'negotiations'
p322
I105
sS'dotted'
p323
I105
sS'floor'
p324
I105
sS'verona'
p325
I103
sS'smell'
p326
I105
sS'roll'
p327
I105
sS'reggae'
p328
I104
sS"'s"
p329
I105
sS'palms'
p330
I105
sS'rollins'
p331
I105
sS'deathbed'
p332
I105
sS'palma'
p333
I102
sS'rolling'
p334
I105
sS"80's"
p335
I105
sS'nxt'
p336
I105
sS'goth/post-punk'
p337
I105
sS'rockers'
p338
I105
sS'chipppotleeeee'
p339
I105
sS'catwings'
p340
I105
sS'time'
p341
I43
sS'push'
p342
I102
sS'frenzy'
p343
I105
sS'peacock'
p344
I105
sS':/'
p345
I103
sS':('
p346
I103
sS':)'
p347
I88
sS'chain'
p348
I105
sS'reviewers'
p349
I105
sS'\xe2\x9c\x8bthanks'
p350
I105
sS"film's"
p351
I105
sS'skate'
p352
I105
sS'they\xe2\x80\xa6'
p353
I105
sS'ver'
p354
I105
sS'vex'
p355
I105
sS'misophonia'
p356
I105
sS'yerp'
p357
I105
sS':o'
p358
I105
sS'jerk'
p359
I104
sS':d'
p360
I105
sS'choice'
p361
I104
sS':x'
p362
I105
sS'92.3'
p363
I105
sS"stacy's"
p364
I105
sS'solver'
p365
I105
sS'tear'
p366
I105
sS'kelela'
p367
I104
sS'skewed'
p368
I105
sS'leave'
p369
I102
sS':]'
p370
I105
sS'settle'
p371
I105
sS'team'
p372
I101
sS'sigh'
p373
I105
sS'sign'
p374
I101
sS'shirts'
p375
I105
sS'adultbooks'
p376
I105
sS'melt'
p377
I105
sS'axel'
p378
I105
sS'echo\xe2\x80\xa6'
p379
I104
sS'(1572'
p380
I105
sS'jury'
p381
I105
sS'grandparents'
p382
I105
sS'understanding'
p383
I105
sS'riskin'
p384
I105
sS'alone'
p385
I103
sS'along'
p386
I101
sS'crumbles'
p387
I105
sS'brilliant'
p388
I105
sS'myers'
p389
I104
sS'mockasin'
p390
I105
sS'ipa'
p391
I104
sS'love'
p392
I38
sS'melodious'
p393
I105
sS'bloody'
p394
I104
sS'ips'
p395
I105
sS'qunqband'
p396
I105
sS'sleeplots'
p397
I105
sS'sky'
p398
I104
sS'sunbathing'
p399
I105
sS'working'
p400
I99
sS'amazeballs'
p401
I105
sS'positive'
p402
I104
sS'angry'
p403
I105
sS'dangle'
p404
I105
sS'films'
p405
I104
sS'smiths/morrissey'
p406
I105
sS'loving'
p407
I104
sS'visual'
p408
I105
sS'everywhere'
p409
I96
sS'\xe2\x9d\xa4\xef\xb8\x8f\xe2\x9d\xa4\xef\xb8\x8f'
p410
I105
sS'youngandsick'
p411
I105
sS'epitaph'
p412
I105
sS'anything'
p413
I102
sS'originally'
p414
I105
sS'vega'
p415
I105
sS'following'
p416
I98
sS"lovin'"
p417
I105
sS'zvuloon'
p418
I105
sS'awesome'
p419
I85
sS'stepkids'
p420
I105
sS'gza'
p421
I104
sS'de-stressing'
p422
I105
sS'stole'
p423
I105
sS'winter'
p424
I102
sS'$7.50'
p425
I105
sS'catnip'
p426
I104
sS'poetique'
p427
I105
sS't-shirts'
p428
I105
sS'spot'
p429
I103
sS'echo)'
p430
I103
sS'latte'
p431
I105
sS'date'
p432
I98
sS'such'
p433
I95
sS'suck'
p434
I102
sS'\xe0\xa5\x90'
p435
I105
sS'shockingly'
p436
I105
sS'stress'
p437
I105
sS'surfing'
p438
I103
sS'natural'
p439
I105
sS'conscious'
p440
I104
sS'st'
p441
I94
sS'mango'
p442
I105
sS'so'
p443
I27
sS'sb'
p444
I105
sS'tutoring'
p445
I105
sS'se'
p446
I105
sS'flips'
p447
I105
sS'years'
p448
I98
sS'course'
p449
I105
sS'kanye'
p450
I105
sS'$hit'
p451
I105
sS'tore'
p452
I105
sS'djs'
p453
I103
sS'manor)'
p454
I104
sS'stupidity'
p455
I105
sS'faves'
p456
I105
sS'aviv'
p457
I105
sS'celebrate'
p458
I102
sS'civilian'
p459
I105
sS'insomnia'
p460
I105
sS'jalape\xc3\xb1o'
p461
I105
sS'records'
p462
I102
sS'runners'
p463
I105
sS'&'
p464
I19
sS'lidell'
p465
I105
sS'turtle'
p466
I104
sS'square'
p467
I104
sS'retrieve'
p468
I105
sS'trannyshack'
p469
I105
sS'echoplex)'
p470
I104
sS'mitchka'
p471
I105
sS'blu'
p472
I105
sS'seriously'
p473
I97
sS'internet'
p474
I101
sS'fashionnnn'
p475
I105
sS'dodgers'
p476
I105
sS'possibility'
p477
I105
sS'quite'
p478
I104
sS'recordings'
p479
I105
sS'grandma'
p480
I103
sS'mimi'
p481
I103
sS'backside'
p482
I104
sS'dunno'
p483
I105
sS'punk'
p484
I103
sS'silhouettes'
p485
I105
sS'18:19'
p486
I105
sS'he\xe2\x80\xa6'
p487
I105
sS'emotion'
p488
I105
sS'henry'
p489
I105
sS'one'
p490
I56
sS'cloakroom'
p491
I105
sS'punishable'
p492
I105
sS'vote'
p493
I104
sS'open'
p494
I98
sS'city'
p495
I94
sS'conny'
p496
I105
sS'2'
p497
I56
sS'fmi'
p498
I105
sS'williams'
p499
I101
sS'much"'
p500
I105
sS'on"'
p501
I105
sS'flatscreen'
p502
I105
sS'ridiculous'
p503
I104
sS'boyfriend'
p504
I105
sS'crossroads'
p505
I105
sS'future'
p506
I99
sS'rivas'
p507
I105
sS'green\xe2\x98\x80'
p508
I105
sS'sickkkk'
p509
I105
sS'winkle'
p510
I105
sS'damned'
p511
I104
sS'addressing'
p512
I105
sS'san'
p513
I101
sS'polemic'
p514
I105
sS'(we'
p515
I105
sS'turned'
p516
I105
sS'sad'
p517
I100
sS'woah'
p518
I103
sS'tastes'
p519
I105
sS'allen'
p520
I104
sS'turner'
p521
I105
sS'saw'
p522
I94
sS'sat'
p523
I105
sS'zoe'
p524
I105
sS'alias'
p525
I105
sS'instructed'
p526
I105
sS'note'
p527
I103
sS'omfg'
p528
I103
sS'jefferson'
p529
I105
sS'take'
p530
I99
sS'wanting'
p531
I105
sS'knew'
p532
I101
sS'buffet'
p533
I103
sS'butterz'
p534
I105
sS'panocha'
p535
I105
sS'budos'
p536
I100
sS'stilts'
p537
I105
sS'drive'
p538
I100
sS'funk?!"'
p539
I105
sS'walking'
p540
I102
sS'\xe2\x9c\xa8'
p541
I96
sS'lotus'
p542
I101
sS'tashaki'
p543
I103
sS'juiceboxxx'
p544
I105
sS'sahhhh'
p545
I105
sS'slot'
p546
I105
sS'\xe2\x9c\x8c'
p547
I103
sS'slow'
p548
I104
sS'\xe2\x9c\x8b'
p549
I105
sS'otis'
p550
I105
sS'tears'
p551
I102
sS'going'
p552
I76
sS'nononoofficial'
p553
I105
sS'superhumanoids'
p554
I105
sS'dispute'
p555
I105
sS'hermanos'
p556
I105
sS"walkin'"
p557
I105
sS'freezing'
p558
I105
sS'artist'
p559
I104
sS'worried'
p560
I104
sS'skyline'
p561
I105
sS'roger'
p562
I103
sS'where'
p563
I85
sS'16th'
p564
I101
sS'vision'
p565
I103
sS'dived'
p566
I105
sS'diver'
p567
I104
sS'dexter'
p568
I105
sS'harvey'
p569
I105
sS'bootleg'
p570
I105
sS'edamame'
p571
I104
sS'1:45-3pm'
p572
I105
sS'many'
p573
I91
sS'flipped'
p574
I105
sS's'
p575
I105
sS'mane'
p576
I104
sS'mang'
p577
I105
sS'motherfucker\xe2\x80\x9d'
p578
I105
sS'expression'
p579
I105
sS"can't"
p580
I78
sS'lemoyne'
p581
I104
sS'donoghue'
p582
I105
sS'twin'
p583
I103
sS'anti'
p584
I105
sS'extinct'
p585
I105
sS'boat'
p586
I103
sS'teddy'
p587
I105
sS'stretch'
p588
I105
sS'west'
p589
I104
sS'airlines'
p590
I105
sS'$8.50'
p591
I105
sS'wants'
p592
I101
sS'lanes'
p593
I105
sS'chan'
p594
I104
sS'photos'
p595
I104
sS'former'
p596
I105
sS'wanders'
p597
I105
sS'runnin'
p598
I105
sS'overcome'
p599
I105
sS'squeezed'
p600
I105
sS'situation'
p601
I105
sS'penthouse'
p602
I104
sS'shepard'
p603
I105
sS'canoe'
p604
I96
sS'fams'
p605
I105
sS'"gross"'
p606
I105
sS'lovers'
p607
I104
sS'hhaha'
p608
I105
sS'cheers'
p609
I102
sS'lullaby-'
p610
I105
sS'nothin'
p611
I104
sS'"how'
p612
I105
sS'sense...the'
p613
I105
sS'hubby'
p614
I105
sS'summer'
p615
I101
sS'vamo'
p616
I105
sS'being'
p617
I82
sS'rest'
p618
I103
sS'tiron'
p619
I105
sS'hayley'
p620
I105
sS'"meeting"'
p621
I105
sS'skies'
p622
I104
sS'badassdadass'
p623
I105
sS'crusty'
p624
I105
sS'around'
p625
I93
sS'tiron&ayomari'
p626
I105
sS"bein'"
p627
I105
sS'traffic'
p628
I103
sS'pangea'
p629
I104
sS'world'
p630
I89
sS'dare'
p631
I105
sS'clan'
p632
I105
sS'fossils'
p633
I100
sS'lalnla'
p634
I105
sS'taco\xe2\x80\xa6'
p635
I105
sS'gimme'
p636
I105
sS'seating'
p637
I105
sS'grub'
p638
I104
sS'britt'
p639
I103
sS'lobster'
p640
I105
sS'diving'
p641
I102
sS'divine'
p642
I103
sS'thinks'
p643
I104
sS'memories'
p644
I104
sS'noon'
p645
I103
sS'nooo'
p646
I105
sS';]'
p647
I105
sS'"much'
p648
I105
sS'power'
p649
I103
sS'throwback'
p650
I105
sS';)'
p651
I104
sS'josie'
p652
I104
sS'palmdale'
p653
I103
sS'be\xe2\x80\xa6'
p654
I105
sS'stone'
p655
I102
sS'y2k'
p656
I105
sS'rosemary'
p657
I105
sS'favorite'
p658
I91
sS'side'
p659
I104
sS'neighbor'
p660
I104
sS'act'
p661
I104
sS'luck'
p662
I105
sS'other'
p663
I102
sS'burning'
p664
I105
sS'jasper'
p665
I105
sS'apologize'
p666
I104
sS'het'
p667
I105
sS'her'
p668
I88
sS'hey'
p669
I84
sS'lounging'
p670
I105
sS'lmfaooo'
p671
I105
sS"how'd"
p672
I105
sS'asfuck'
p673
I105
sS'project'
p674
I105
sS'bundt'
p675
I105
sS'with'
p676
I18
sS"they're"
p677
I94
sS'october'
p678
I105
sS'rage'
p679
I104
sS'jamaican'
p680
I105
sS'dirty'
p681
I105
sS'girl."'
p682
I105
sS'agree'
p683
I104
sS'darker'
p684
I105
sS'gone'
p685
I102
sS'ab'
p686
I105
sS'af'
p687
I104
sS'am'
p688
I86
sS'an'
p689
I60
sS'as'
p690
I69
sS'ar'
p691
I105
sS'at'
p692
I6
sS'aw'
p693
I105
sS'pwetty'
p694
I105
sS'watched'
p695
I103
sS'az'
p696
I105
sS'cream'
p697
I105
sS'tight'
p698
I103
sS'hella'
p699
I104
sS'shazaam'
p700
I105
sS'a+'
p701
I105
sS'madlib'
p702
I105
sS'gifts'
p703
I105
sS'5:45'
p704
I105
sS'persimmons'
p705
I105
sS'masa'
p706
I89
sS'natalia'
p707
I105
sS'hello'
p708
I102
sS'nelson'
p709
I105
sS'waiver'
p710
I105
sS'consider'
p711
I105
sS'baconnnnnnnnnnnnnn'
p712
I105
sS'(in'
p713
I105
sS'hunting'
p714
I104
sS'ty'
p715
I98
sS"katherine's"
p716
I105
sS'tu'
p717
I105
sS'to'
p718
I7
sS'incan'
p719
I105
sS'smile'
p720
I102
sS'te'
p721
I105
sS'paying'
p722
I105
sS'checkin'
p723
I105
sS'faaaavs'
p724
I105
sS'strand'
p725
I104
sS'broken"'
p726
I105
sS'hooking'
p727
I104
sS'sans'
p728
I105
sS'pbr'
p729
I105
sS'laying'
p730
I105
sS'small'
p731
I105
sS'dodger'
p732
I100
sS'sync'
p733
I105
sS'past'
p734
I97
sS'richard'
p735
I104
sS'clock'
p736
I105
sS'section'
p737
I104
sS'fucks'
p738
I105
sS'method'
p739
I104
sS'full'
p740
I98
sS'thanggggg'
p741
I105
sS'hours'
p742
I98
sS'legend'
p743
I104
sS'experience'
p744
I103
sS'pics'
p745
I105
sS'winkd'
p746
I105
sS'pick'
p747
I105
sS'action'
p748
I105
sS'via'
p749
I100
sS'vid'
p750
I104
sS'reclaimed'
p751
I105
sS'strolling'
p752
I105
sS'young'
p753
I99
sS'gosh'
p754
I105
sS'show\xe2\x80\xa6'
p755
I105
sS'gorgeous'
p756
I102
sS'more'
p757
I73
sS'teen'
p758
I104
sS'door'
p759
I104
sS'teef'
p760
I105
sS'company'
p761
I76
sS'evolves'
p762
I105
sS'keeping'
p763
I105
sS'morgan'
p764
I105
sS'mali'
p765
I105
sS'plex\xe2\x80\xa6'
p766
I105
sS'scramble'
p767
I105
sS'beautiful'
p768
I81
sS'generalhospital'
p769
I105
sS'accept'
p770
I105
sS'fiving'
p771
I105
sS'autumn'
p772
I105
sS'dress'
p773
I98
sS"'98"
p774
I105
sS'today\xe2\x9a\xa0\xef\xb8\x8fat'
p775
I105
sS'crowdfund'
p776
I105
sS'plans'
p777
I104
sS'brett'
p778
I105
sS'plane'
p779
I105
sS'director'
p780
I105
sS'waves'
p781
I105
sS'nitemoves'
p782
I105
sS'(7-16-14)\xe2\x80\xa6'
p783
I105
sS'rowdy'
p784
I105
sS'broadcasting'
p785
I105
sS'patio'
p786
I99
sS'mexican'
p787
I101
sS'cockiness'
p788
I104
sS'attitude'
p789
I105
sS'paper'
p790
I105
sS'scott'
p791
I103
sS'mingmingcastillo'
p792
I104
sS'its'
p793
I91
sS'bummed'
p794
I105
sS'nifty'
p795
I105
sS'isaac'
p796
I105
sS'sauce'
p797
I105
sS'\xe2\x98\x81\xef\xb8\x8f\xe2\x98\x81\xef\xb8\x8f'
p798
I105
sS'it"'
p799
I105
sS'shemar'
p800
I105
sS'olivia'
p801
I105
sS'know...now'
p802
I105
sS'pbrs'
p803
I105
sS'subtitles'
p804
I104
sS'sucked'
p805
I105
sS'always'
p806
I87
sS'found'
p807
I96
sS'embarass'
p808
I105
sS'weeknd'
p809
I105
sS'card!\xe2\x80\xa6'
p810
I105
sS'olmeca'
p811
I105
sS'tonite'
p812
I103
sS'really'
p813
I79
sS'lipstick'
p814
I105
sS'vandervelde'
p815
I105
sS'jessefff'
p816
I105
sS'highway'
p817
I105
sS'dreams...risky'
p818
I105
sS'fatass'
p819
I105
sS'imagine'
p820
I105
sS'definition'
p821
I105
sS'japandroids'
p822
I103
sS'w'
p823
I93
sS'bumper'
p824
I104
sS'castle'
p825
I105
sS'rooted'
p826
I105
sS'number'
p827
I105
sS'shui-ed'
p828
I105
sS'them\xe2\x80\xa6'
p829
I104
sS'guess'
p830
I98
sS'heads'
p831
I104
sS'guest'
p832
I104
sS'tate'
p833
I105
sS'checkpoint'
p834
I105
sS'noms'
p835
I105
sS'typhoon'
p836
I105
sS'zeppelin'
p837
I105
sS'400-800'
p838
I105
sS'aaa'
p839
I105
sS'hot"'
p840
I105
sS'gulnatron'
p841
I105
sS'blond'
p842
I105
sS'sell'
p843
I105
sS'self'
p844
I102
sS'sherwood'
p845
I105
sS'also'
p846
I95
sS'internal'
p847
I105
sS'play'
p848
I93
sS'singles'
p849
I105
sS'plan'
p850
I104
sS'sometimes'
p851
I100
sS'cover'
p852
I102
sS"funkle's"
p853
I105
sS'despise'
p854
I105
sS'ugh'
p855
I104
sS'wiliams'
p856
I105
sS'gold'
p857
I55
sS'burzum'
p858
I105
sS'dicaprio'
p859
I105
sS'session'
p860
I103
sS'goofballs'
p861
I105
sS'sayin'
p862
I105
sS'happen...am'
p863
I105
sS'writer'
p864
I105
sS'nenas'
p865
I105
sS"cessna's"
p866
I105
sS'bahahaha'
p867
I105
sS'frightening'
p868
I105
sS'dustin'
p869
I105
sS'progressive'
p870
I105
sS'bird'
p871
I105
sS'insane'
p872
I103
sS'brookswheelan'
p873
I105
sS'set'
p874
I89
sS'jade'
p875
I105
sS'see'
p876
I64
sS'sea'
p877
I104
sS'origami'
p878
I95
sS'knees'
p879
I105
sS'movie'
p880
I91
sS'currently'
p881
I104
sS'nope'
p882
I103
sS'compliment'
p883
I105
sS'knowing'
p884
I105
sS"restless'"
p885
I105
sS'day.\xe2\x80\xa6'
p886
I105
sS'cafe\xe2\x80\xa6'
p887
I105
sS'last'
p888
I61
sS'thou'
p889
I105
sS'hint'
p890
I105
sS'connection'
p891
I105
sS"we've"
p892
I104
sS'whole'
p893
I100
sS'load'
p894
I105
sS'majesty'
p895
I105
sS'drunk'
p896
I98
sS'community'
p897
I102
sS'church'
p898
I101
sS'belt'
p899
I105
sS'mndsgn'
p900
I105
sS'\xe2\x98\x80'
p901
I103
sS'downtonabby'
p902
I105
sS'nugent'
p903
I105
sS'champion'
p904
I105
sS'silenced'
p905
I105
sS'fire'
p906
I104
sS'caleb'
p907
I104
sS"what's"
p908
I105
sS'awake'
p909
I105
sS"'mozzarella'\xe2\x80\xa6"
p910
I105
sS'08/06/13'
p911
I105
sS'funk'
p912
I97
sS'dwyer'
p913
I105
sS'straight'
p914
I101
sS'budget'
p915
I105
sS'hilariously'
p916
I105
sS'forgetting'
p917
I104
sS'robin'
p918
I103
sS'hoping'
p919
I105
sS'moth'
p920
I101
sS'belmont'
p921
I105
sS'ducks'
p922
I105
sS'vou'
p923
I104
sS'triple'
p924
I105
sS'vox'
p925
I105
sS'funny'
p926
I103
sS'decor'
p927
I105
sS'sounding'
p928
I105
sS'oshelly13'
p929
I103
sS'stacy'
p930
I105
sS'mavis'
p931
I105
sS'person'
p932
I99
sS'theatres'
p933
I105
sS'11:20'
p934
I104
sS'la...big'
p935
I105
sS'named'
p936
I105
sS'cuffs'
p937
I105
sS'lady'
p938
I97
sS"ladies'"
p939
I105
sS'parents'
p940
I105
sS'crying'
p941
I103
sS'submissions'
p942
I105
sS'squareone'
p943
I104
sS'couple'
p944
I104
sS'shitty'
p945
I105
sS'suffering'
p946
I105
sS'quest'
p947
I105
sS'gordito'
p948
I105
sS'vday'
p949
I105
sS'd'
p950
I101
sS'continue'
p951
I102
sS'disorder'
p952
I105
sS'porras'
p953
I105
sS'guide2happiness:1'
p954
I105
sS'partying'
p955
I105
sS'goddamn'
p956
I104
sS'pals'
p957
I104
sS'bounce'
p958
I105
sS'disfrutes'
p959
I105
sS'molina'
p960
I105
sS'sight'
p961
I103
sS'curious'
p962
I105
sS'pale'
p963
I104
sS'goldstarmusic'
p964
I105
sS'encinitas'
p965
I104
sS'temple'
p966
I95
sS'bd'
p967
I104
sS'be'
p968
I39
sS'bf'
p969
I103
sS'bb'
p970
I105
sS'bp'
p971
I105
sS'bs'
p972
I105
sS'beaverton'
p973
I105
sS'by'
p974
I45
sS'deserved'
p975
I105
sS'netflix'
p976
I103
sS'mayberry'
p977
I105
sS'garbage'
p978
I105
sS'hometown'
p979
I105
sS'into'
p980
I84
sS'jonna'
p981
I105
sS'person/1930\xe2\x80\x99s'
p982
I105
sS'city\xe2\x80\xa6'
p983
I105
sS'much\xe2\x80\xa6'
p984
I105
sS'atrak'
p985
I105
sS'spending'
p986
I104
sS'sock'
p987
I105
sS'brookecandy'
p988
I105
sS'filthy'
p989
I105
sS'aussie\xe2\x80\xa6'
p990
I105
sS'opens'
p991
I103
sS'inches'
p992
I105
sS'poster'
p993
I105
sS'pastor'
p994
I103
sS"duffy's"
p995
I105
sS't-shirt'
p996
I105
sS'line'
p997
I97
sS'posted'
p998
I79
sS'cig'
p999
I105
sS'up'
p1000
I37
sS'us'
p1001
I75
sS'ur'
p1002
I85
sS'um'
p1003
I105
sS'paired'
p1004
I105
sS'ebonics'
p1005
I105
sS'ni\xc3\xb1os'
p1006
I105
sS'(633'
p1007
I105
sS'yelled'
p1008
I105
sS'showtime'
p1009
I105
sS'estilo'
p1010
I105
sS'chat'
p1011
I105
sS'codes'
p1012
I105
sS'tuff'
p1013
I105
sS'camo'
p1014
I105
sS'robots'
p1015
I105
sS'lucia'
p1016
I105
sS'awwwwkward'
p1017
I105
sS'2014)'
p1018
I103
sS'meals'
p1019
I104
sS'ago'
p1020
I105
sS'lane'
p1021
I105
sS'miles'
p1022
I102
sS'rescued'
p1023
I105
sS'walked'
p1024
I104
sS'feud'
p1025
I105
sS'summit'
p1026
I105
sS'peek-a-boo'
p1027
I105
sS'fresh'
p1028
I105
sS'having'
p1029
I92
sS'code'
p1030
I105
sS'scratch'
p1031
I104
sS'results'
p1032
I105
sS'flashback'
p1033
I105
sS'resonate'
p1034
I105
sS'chillin'
p1035
I105
sS'iii'
p1036
I104
sS'crossfitters'
p1037
I105
sS'send'
p1038
I104
sS'(not'
p1039
I105
sS'meetings'
p1040
I105
sS'sent'
p1041
I103
sS'garden'
p1042
I105
sS'center)'
p1043
I101
sS'continues'
p1044
I104
sS'reopened'
p1045
I105
sS'mixing'
p1046
I105
sS'timely'
p1047
I105
sS'magic'
p1048
I105
sS'quiz"'
p1049
I105
sS'transmission'
p1050
I105
sS'marry'
p1051
I105
sS'gettin'
p1052
I105
sS'magik'
p1053
I105
sS'eve'
p1054
I105
sS'fewer'
p1055
I105
sS'try'
p1056
I98
sS'race'
p1057
I105
sS'(usa)'
p1058
I105
sS'leonardo'
p1059
I105
sS'video'
p1060
I93
sS'spaghetti'
p1061
I105
sS'graduating'
p1062
I105
sS'shivers'
p1063
I105
sS'bestfriends'
p1064
I105
sS'indian'
p1065
I105
sS'twinz'
p1066
I105
sS'led'
p1067
I104
sS'lee'
p1068
I99
sS'deejay'
p1069
I105
sS'punch'
p1070
I105
sS'let'
p1071
I90
sS'great'
p1072
I74
sS'fiyah'
p1073
I104
sS'involved'
p1074
I105
sS'eastside'
p1075
I105
sS'beaucoup'
p1076
I105
sS'derby'
p1077
I104
sS'makes'
p1078
I96
sS'thats'
p1079
I105
sS'(my'
p1080
I105
sS'siri'
p1081
I105
sS'sirs'
p1082
I105
sS'"mndr"'
p1083
I105
sS'standing'
p1084
I104
sS'confidence'
p1085
I103
sS'illegal'
p1086
I105
sS'whipping'
p1087
I105
sS'se\xc3\xb1orita'
p1088
I105
sS'next'
p1089
I83
sS'zig'
p1090
I105
sS'blsht'
p1091
I105
sS'etta'
p1092
I105
sS'babe'
p1093
I104
sS'bobbing'
p1094
I105
sS'ol'
p1095
I105
sS'baby'
p1096
I97
sS'charity'
p1097
I105
sS'balls'
p1098
I101
sS'animals'
p1099
I105
sS'beautiful*~'
p1100
I105
sS'this'
p1101
I22
sS'challenge'
p1102
I105
sS'benefitting'
p1103
I105
sS'5sos"'
p1104
I105
sS'pre-order'
p1105
I105
sS'fulfill'
p1106
I105
sS'coolness'
p1107
I105
sS'slim'
p1108
I105
sS'rode'
p1109
I105
sS'pieces'
p1110
I105
sS'high'
p1111
I101
sS'blvd'
p1112
I89
sS'trumpet'
p1113
I105
sS'destroying'
p1114
I105
sS'tune-in'
p1115
I105
sS'(psalms'
p1116
I105
sS'animal'
p1117
I105
sS'comedy'
p1118
I105
sS'blocks'
p1119
I105
sS'gardner'
p1120
I105
sS'fits'
p1121
I104
sS'reggie'
p1122
I105
sS'cabbage'
p1123
I105
sS'realized'
p1124
I104
sS'classy'
p1125
I105
sS'shanpels'
p1126
I105
sS'volunteers'
p1127
I105
sS'producer'
p1128
I105
sS'bitty'
p1129
I105
sS'move'
p1130
I101
sS'fashawn'
p1131
I105
sS'artichoke'
p1132
I105
sS"player's"
p1133
I105
sS'seutrinh'
p1134
I105
sS'perfect'
p1135
I100
sS'redcat'
p1136
I105
sS'degrees'
p1137
I104
sS'myraanderson'
p1138
I104
sS'2014'
p1139
I100
sS'2011'
p1140
I105
sS'2012'
p1141
I104
sS'designs'
p1142
I105
sS"patra's"
p1143
I105
sS'bacc'
p1144
I104
sS'kiss'
p1145
I105
sS'\xe2\x98\x81\xe2\x98\x81'
p1146
I105
sS'realize'
p1147
I102
sS'hollie'
p1148
I104
sS'denzel'
p1149
I105
sS'truth'
p1150
I104
sS'glasses'
p1151
I104
sS'doing'
p1152
I95
sS'jagger'
p1153
I105
sS'society'
p1154
I105
sS'books'
p1155
I94
sS'hawt'
p1156
I105
sS'bay'
p1157
I104
sS':1\xe2\x83\xa3'
p1158
I105
sS"'"
p1159
I105
sS"echo's"
p1160
I104
sS'elote'
p1161
I105
sS'hilarious'
p1162
I104
sS'shut'
p1163
I105
sS'uppp'
p1164
I105
sS'tempe'
p1165
I105
sS"doin'"
p1166
I104
sS'font'
p1167
I104
sS'craving'
p1168
I104
sS'scary'
p1169
I104
sS'geographer'
p1170
I105
sS'could'
p1171
I83
sS'david'
p1172
I105
sS'pudding'
p1173
I105
sS'chills'
p1174
I105
sS'blown'
p1175
I102
sS'scene'
p1176
I97
sS'globelamp'
p1177
I105
sS'blows'
p1178
I105
sS'sharon'
p1179
I105
sS'los'
p1180
I41
sS'festival'
p1181
I101
sS'system'
p1182
I103
sS'bartend'
p1183
I105
sS'low'
p1184
I101
sS'shorts'
p1185
I104
sS'twon'
p1186
I105
sS'bother'
p1187
I105
sS'pads'
p1188
I105
sS'halliwell'
p1189
I102
sS'gunnar'
p1190
I105
sS'briefing'
p1191
I105
sS'twos'
p1192
I105
sS'chicago-style'
p1193
I105
sS'\\m/'
p1194
I104
sS'billinda'
p1195
I105
sS'tonight'
p1196
I42
sS'gentle'
p1197
I105
sS'blockbuster'
p1198
I105
sS'clearly'
p1199
I105
sS'babes'
p1200
I103
sS'soap'
p1201
I105
sS';-)'
p1202
I105
sS'manor'
p1203
I101
sS'socializing'
p1204
I105
sS'thanksgiving'
p1205
I104
sS'face'
p1206
I98
sS"you'll"
p1207
I102
sS'bins'
p1208
I105
sS'brew'
p1209
I103
sS'painting'
p1210
I105
sS'fact'
p1211
I102
sS'kweli'
p1212
I104
sS'assholes'
p1213
I105
sS'bring'
p1214
I101
sS"90's"
p1215
I102
sS'bedroom'
p1216
I105
sS'rough'
p1217
I105
sS'noir'
p1218
I105
sS'jar'
p1219
I105
sS'should'
p1220
I93
sS'buttons'
p1221
I105
sS'jam'
p1222
I104
sS'whatdafack'
p1223
I105
sS'jai'
p1224
I105
sS'hope'
p1225
I99
sS'insight'
p1226
I105
sS'handle'
p1227
I105
sS'listened'
p1228
I105
sS'70\xe2\x98\x80\xef\xb8\x8f'
p1229
I105
sS'leithauser'
p1230
I105
sS'lucky'
p1231
I105
sS'wiggle'
p1232
I104
sS'=)'
p1233
I105
sS'abby'
p1234
I105
sS'smash'
p1235
I104
sS'h'
p1236
I104
sS'stuff'
p1237
I102
sS'basking'
p1238
I105
sS"ridin'"
p1239
I105
sS'motorcycle'
p1240
I105
sS'bts'
p1241
I105
sS'frame'
p1242
I105
sS'travis'
p1243
I105
sS'packed'
p1244
I103
sS'wire'
p1245
I102
sS'flyrite'
p1246
I105
sS'out.\xe2\x80\xa6'
p1247
I105
sS'staring'
p1248
I105
sS'tlr'
p1249
I105
sS'drum'
p1250
I103
sS'galore'
p1251
I105
sS'lionkngs'
p1252
I105
sS'co'
p1253
I105
sS'cc'
p1254
I103
sS'malcolm'
p1255
I105
sS'cd'
p1256
I105
sS'indict'
p1257
I105
sS'labor'
p1258
I104
sS'gondola'
p1259
I96
sS'drank'
p1260
I105
sS'waste'
p1261
I104
sS'>'
p1262
I96
sS'salvaje'
p1263
I105
sS'tycho'
p1264
I105
sS'pretentious'
p1265
I105
sS'hahaha'
p1266
I102
sS'eastbound'
p1267
I105
sS'lawerence'
p1268
I105
sS'insanely'
p1269
I105
sS'surprisingly'
p1270
I104
sS'=15%sam'
p1271
I105
sS'vs'
p1272
I95
sS'maaajor'
p1273
I105
sS'tattoo'
p1274
I105
sS'juan'
p1275
I105
sS'gibbs'
p1276
I105
sS'dustiiiin'
p1277
I105
sS'pickin'
p1278
I105
sS'ball'
p1279
I105
sS'bald'
p1280
I104
sS'upon'
p1281
I105
sS'colta'
p1282
I105
sS'infinite'
p1283
I105
sS'newman'
p1284
I104
sS'bassrush'
p1285
I105
sS'off'
p1286
I70
sS'a-trak'
p1287
I105
sS'paul)'
p1288
I105
sS'lest'
p1289
I105
sS'legendary'
p1290
I105
sS'less'
p1291
I101
sS"checkin'"
p1292
I105
sS'rooms'
p1293
I105
sS'paul'
p1294
I93
sS'generous'
p1295
I105
sS'wes'
p1296
I105
sS'guy\xe2\x80\xa6'
p1297
I105
sS'wet'
p1298
I105
sS'wintersleep'
p1299
I105
sS'checking'
p1300
I103
sS'february'
p1301
I105
sS'room)'
p1302
I97
sS'san\xe2\x80\xa6'
p1303
I105
sS'haul'
p1304
I105
sS'headlining'
p1305
I105
sS'five'
p1306
I105
sS'bigharpband'
p1307
I105
sS'anasolis2'
p1308
I105
sS'trash'
p1309
I103
sS'emma'
p1310
I105
sS'rhettmatic'
p1311
I105
sS'buttwarmers'
p1312
I105
sS'become'
p1313
I104
sS'emmy'
p1314
I104
sS'daylight'
p1315
I104
sS'almonds'
p1316
I105
sS'flush'
p1317
I105
sS'"what'
p1318
I104
sS'hipsters'
p1319
I101
sS'pre-dodger'
p1320
I105
sS'literally'
p1321
I98
sS'quiltmusic'
p1322
I105
sS'does'
p1323
I102
sS'passion'
p1324
I105
sS'blurry'
p1325
I105
sS"neil's"
p1326
I105
sS'blowing'
p1327
I103
sS'pressure'
p1328
I104
sS'm\xc3\x98'
p1329
I105
sS'lastnight'
p1330
I105
sS'stage'
p1331
I92
sS'sister'
p1332
I102
sS'unkle'
p1333
I105
sS'angeles'
p1334
I20
sS'union'
p1335
I105
sS'hipster)'
p1336
I105
sS'documentary'
p1337
I105
sS'swimming'
p1338
I105
sS'letters'
p1339
I105
sS'joyce'
p1340
I104
sS'housing'
p1341
I105
sS'sir_t0n'
p1342
I105
sS'metz'
p1343
I104
sS'h.a.g'
p1344
I105
sS'kooks'
p1345
I105
sS'yrs'
p1346
I105
sS'sponges'
p1347
I105
sS'count'
p1348
I105
sS'behemoth'
p1349
I105
sS'excitement'
p1350
I105
sS'nominations'
p1351
I105
sS'recognize'
p1352
I105
sS"cousin's"
p1353
I105
sS'ink'
p1354
I105
sS'ing'
p1355
I105
sS'jesse'
p1356
I105
sS'pumped/emotional'
p1357
I105
sS'pollsam'
p1358
I105
sS'lately'
p1359
I104
sS'details'
p1360
I104
sS'ponytail'
p1361
I103
sS'repeat'
p1362
I105
sS'monday'
p1363
I103
sS'again"'
p1364
I105
sS'class'
p1365
I104
sS'chance'
p1366
I103
sS'badass'
p1367
I103
sS'inspiration'
p1368
I103
sS'ghost'
p1369
I105
sS'rule'
p1370
I105
sS'compete'
p1371
I105
sS'd\xc3\xada'
p1372
I105
sS'mastercat'
p1373
I105
sS'cian'
p1374
I105
sS'saver'
p1375
I104
sS'beach4'
p1376
I105
sS'mansion'
p1377
I105
sS'stinks'
p1378
I105
sS'voter'
p1379
I105
sS'bike'
p1380
I105
sS'voted'
p1381
I105
sS'daze'
p1382
I105
sS'chill'
p1383
I104
sS'worth'
p1384
I102
sS'vicrozvillar'
p1385
I105
sS'ale'
p1386
I105
sS'blanket'
p1387
I105
sS"women's"
p1388
I105
sS'egrets'
p1389
I105
sS'special'
p1390
I98
sS'tickets'
p1391
I104
sS"we'll"
p1392
I103
sS"yesterday's"
p1393
I105
sS'triumph'
p1394
I105
sS'chew'
p1395
I105
sS'cameron'
p1396
I105
sS'zander'
p1397
I105
sS'tonight...the'
p1398
I105
sS"l.a's"
p1399
I105
sS'others)'
p1400
I53
sS'+'
p1401
I97
sS'codiilo'
p1402
I105
sS'officially'
p1403
I103
sS'told'
p1404
I100
sS'stob_eht'
p1405
I105
sS'echo-park/downtown'
p1406
I92
sS'kudos'
p1407
I105
sS'employees'
p1408
I105
sS'walkin'
p1409
I105
sS'smoke'
p1410
I104
sS'aka'
p1411
I105
sS'secure'
p1412
I105
sS'bro'
p1413
I103
sS'insta'
p1414
I105
sS'thursday'
p1415
I104
sS'total'
p1416
I104
sS'canoe\xe2\x80\xa6'
p1417
I105
sS'oldangelmidnite'
p1418
I105
sS'haha'
p1419
I97
sS'award'
p1420
I105
sS"must've"
p1421
I104
sS'boobies'
p1422
I104
sS'wildca'
p1423
I105
sS'old-man'
p1424
I105
sS'word'
p1425
I102
sS'ers'
p1426
I105
sS'1998'
p1427
I105
sS'work'
p1428
I89
sS'cuddle'
p1429
I103
sS'|all*star|'
p1430
I105
sS'im'
p1431
I101
sS'la)'
p1432
I103
sS'veggies'
p1433
I105
sS'violin'
p1434
I104
sS'shmiggah'
p1435
I105
sS'str8'
p1436
I105
sS'inhabitants'
p1437
I105
sS'boats'
p1438
I93
sS'beach'
p1439
I93
sS'pizza'
p1440
I62
sS'plant-based'
p1441
I105
sS'bday'
p1442
I102
sS'after'
p1443
I73
sS"killers'"
p1444
I105
sS'lay'
p1445
I105
sS'lau'
p1446
I105
sS'law'
p1447
I105
sS'chilled'
p1448
I105
sS'appreciate'
p1449
I105
sS'supermarkets'
p1450
I105
sS'green'
p1451
I100
sS'fan'
p1452
I101
sS'order'
p1453
I99
sS'office'
p1454
I104
sS'consent'
p1455
I105
sS'modesto'
p1456
I105
sS'mayor'
p1457
I104
sS'highlights'
p1458
I87
sS'avocado'
p1459
I105
sS'denver'
p1460
I104
sS'then'
p1461
I92
sS'them'
p1462
I86
sS'franki'
p1463
I104
sS'woken'
p1464
I105
sS'thee'
p1465
I103
sS'safe'
p1466
I104
sS'collide'
p1467
I105
sS'cuties'
p1468
I105
sS'bane'
p1469
I105
sS'band'
p1470
I83
sS'roommate'
p1471
I104
sS'they'
p1472
I72
sS'bank'
p1473
I105
sS'bread'
p1474
I105
sS'routines'
p1475
I105
sS'l'
p1476
I102
sS'rocks'
p1477
I104
sS'smexy'
p1478
I105
sS'hosted'
p1479
I105
sS'_van__van_'
p1480
I105
sS'caveman'
p1481
I105
sS'strangers'
p1482
I105
sS'raffled'
p1483
I105
sS'daniel'
p1484
I105
sS'medicine'
p1485
I105
sS'hooker'
p1486
I105
sS'forth'
p1487
I105
sS'standard'
p1488
I105
sS'admits'
p1489
I105
sS'dammit'
p1490
I105
sS'rarity'
p1491
I105
sS'created'
p1492
I104
sS'appendages'
p1493
I105
sS'alfex'
p1494
I105
sS'(at'
p1495
I78
sS'kivel'
p1496
I104
sS'katetims'
p1497
I105
sS'another'
p1498
I101
sS'comin'
p1499
I105
sS'$130'
p1500
I105
sS'comic'
p1501
I105
sS'rbsoundselect'
p1502
I105
sS'elevator'
p1503
I104
sS'john'
p1504
I102
sS'dogs'
p1505
I102
sS'refraining'
p1506
I105
sS'albert'
p1507
I104
sS'cereal'
p1508
I105
sS'target'
p1509
I105
sS'citibank'
p1510
I105
sS'xanadu'
p1511
I105
sS'scenes'
p1512
I105
sS'merch'
p1513
I104
sS'guilt'
p1514
I105
sS'minus'
p1515
I105
sS'nicholerae326'
p1516
I105
sS'lulu'
p1517
I105
sS'realm'
p1518
I105
sS'subjects'
p1519
I105
sS'mondays...my'
p1520
I105
sS'bruce'
p1521
I105
sS'hammond'
p1522
I105
sS'katieaseltonduplass'
p1523
I105
sS'aunt'
p1524
I103
sS'voting'
p1525
I105
sS'snowpuncher'
p1526
I105
sS'enjoyed'
p1527
I103
sS'toast'
p1528
I103
sS'week!\xe2\x80\xa6'
p1529
I105
sS'just'
p1530
I25
sS'guidance'
p1531
I105
sS'screening'
p1532
I104
sS'do'
p1533
I70
sS'dj'
p1534
I81
sS'de'
p1535
I101
sS'dc'
p1536
I105
sS'leisure'
p1537
I105
sS'da'
p1538
I98
sS'shadowplay'
p1539
I104
sS'haunted'
p1540
I103
sS'runs'
p1541
I103
sS'covering'
p1542
I103
sS'gunn.\xe2\x80\xa6'
p1543
I105
sS'steal'
p1544
I105
sS'steam'
p1545
I105
sS'miserably'
p1546
I105
sS'w/'
p1547
I23
sS'depends'
p1548
I105
sS'inna'
p1549
I105
sS'horrendous'
p1550
I105
sS'miserable'
p1551
I105
sS'away'
p1552
I93
sS'props'
p1553
I104
sS'we'
p1554
I54
sS'jaaaaaagwaaaaar'
p1555
I105
sS'o_0'
p1556
I105
sS'gays'
p1557
I105
sS'kitchen'
p1558
I103
sS'tfti'
p1559
I105
sS'ill'
p1560
I105
sS'mariachi'
p1561
I105
sS'brag'
p1562
I105
sS'cod'
p1563
I105
sS'exceeds'
p1564
I105
sS'com'
p1565
I104
sS'con'
p1566
I103
sS'lovely\xe2\x80\xa6'
p1567
I105
sS'tony'
p1568
I103
sS'speak'
p1569
I103
sS'50shadesofblack'
p1570
I105
sS'bearracuda'
p1571
I105
sS'charisma'
p1572
I105
sS'$300'
p1573
I105
sS'families'
p1574
I103
sS'easy'
p1575
I105
sS'relaxing'
p1576
I104
sS'cosmetology'
p1577
I105
sS'fest'
p1578
I104
sS'east'
p1579
I102
sS'guadalupana'
p1580
I105
sS'air'
p1581
I103
sS'4:08pm'
p1582
I105
sS'voice'
p1583
I103
sS'aawwwww'
p1584
I105
sS'dumped'
p1585
I105
sS'audrey'
p1586
I105
sS'exile'
p1587
I105
sS'wooing'
p1588
I105
sS'confirmed'
p1589
I105
sS'cherrytreerec'
p1590
I105
sS'perform'
p1591
I104
sS'jerry'
p1592
I103
sS'plates'
p1593
I105
sS'bunny'
p1594
I104
sS'independent'
p1595
I103
sS'hang'
p1596
I103
sS'evil'
p1597
I103
sS'hand'
p1598
I103
sS'alums'
p1599
I105
sS'kept'
p1600
I104
sS'episodic'
p1601
I104
sS'benedek'
p1602
I105
sS'lillieyouknow'
p1603
I105
sS'1974'
p1604
I105
sS'thr'
p1605
I105
sS'tho'
p1606
I98
sS'the'
p1607
I1
sS'sticking'
p1608
I105
sS'kale'
p1609
I104
sS'gods'
p1610
I104
sS'thanks'
p1611
I68
sS'jose'
p1612
I105
sS'photographer'
p1613
I105
sS'josh'
p1614
I105
sS'theater'
p1615
I105
sS'$50000'
p1616
I105
sS'shout'
p1617
I103
sS'spread'
p1618
I105
sS'transformed'
p1619
I105
sS'board'
p1620
I103
sS'"dark'
p1621
I105
sS'quote)'
p1622
I105
sS'bastards'
p1623
I105
sS'bpa'
p1624
I104
sS'owntown'
p1625
I105
sS'cooler'
p1626
I105
sS'theyre'
p1627
I105
sS'night'
p1628
I40
sS'security'
p1629
I105
sS'honored'
p1630
I105
sS'\xe2\x8f\xb0'
p1631
I105
sS'born'
p1632
I105
sS'stardust'
p1633
I105
sS'diggs)'
p1634
I105
sS'town...the'
p1635
I105
sS'phenomenal'
p1636
I104
sS'/'
p1637
I100
sS'filming'
p1638
I104
sS'asking'
p1639
I104
sS'4/20'
p1640
I104
sS'adorable'
p1641
I103
sS'peek'
p1642
I104
sS'pls'
p1643
I105
sS'marketing'
p1644
I105
sS'pose'
p1645
I105
sS'plz'
p1646
I104
sS'dominoefarrisgilbert'
p1647
I105
sS'phew'
p1648
I104
sS'post'
p1649
I104
sS'theirs'
p1650
I105
sS'months'
p1651
I105
sS'horizon'
p1652
I105
sS'pays'
p1653
I104
sS'delighted'
p1654
I105
sS'snowpiercer'
p1655
I105
sS'fight'
p1656
I103
sS'waz'
p1657
I105
sS'way'
p1658
I86
sS'was'
p1659
I34
sS'war'
p1660
I104
sS'snowy'
p1661
I105
sS'bravooo'
p1662
I105
sS'becoming'
p1663
I105
sS'needles'
p1664
I105
sS'pre-set'
p1665
I105
sS'true'
p1666
I97
sS'cdyer4'
p1667
I105
sS'(denmark)'
p1668
I104
sS'maximum'
p1669
I103
sS'st\xc3\xbcssy'
p1670
I105
sS'crystal'
p1671
I105
sS'prayed'
p1672
I105
sS'medication'
p1673
I105
sS'moore'
p1674
I104
sS'mole'
p1675
I104
sS'dying'
p1676
I105
sS'\xe2\x9a\x93\xef\xb8\x8f'
p1677
I105
sS'handmade'
p1678
I105
sS'topped'
p1679
I105
sS'holding'
p1680
I104
sS'test'
p1681
I105
sS'talyy'
p1682
I105
sS'brothers'
p1683
I105
sS"o'clock"
p1684
I105
sS'welcome'
p1685
I102
sS'weirdest'
p1686
I105
sS"let's"
p1687
I96
sS'(san'
p1688
I105
sS'together'
p1689
I99
sS'reception'
p1690
I105
sS'songs'
p1691
I103
sS'dance'
p1692
I90
sS'global'
p1693
I105
sS'grateful'
p1694
I105
sS'battle'
p1695
I104
sS'zone'
p1696
I104
sS'jogger'
p1697
I105
sS'hump'
p1698
I105
sS'flash'
p1699
I104
sS'gigs'
p1700
I105
sS'rhythm'
p1701
I104
sS'shmoney'
p1702
I105
sS'division'
p1703
I95
sS'vegan'
p1704
I63
sS'vegas'
p1705
I104
sS'kitten'
p1706
I105
sS'trouble'
p1707
I105
sS'blast'
p1708
I102
sS"'j-patt'"
p1709
I105
sS'margarita'
p1710
I105
sS'presented'
p1711
I105
sS'turns'
p1712
I104
sS'gum'
p1713
I104
sS'p'
p1714
I103
sS'soooo'
p1715
I105
sS'guitars'
p1716
I105
sS'guy'
p1717
I89
sS'lloyd'
p1718
I105
sS'upper'
p1719
I105
sS'discover'
p1720
I103
sS'rapist'
p1721
I105
sS'appear'
p1722
I105
sS'oaks'
p1723
I104
sS'supporting'
p1724
I105
sS'chicano'
p1725
I105
sS'electrica'
p1726
I105
sS'downloaded'
p1727
I105
sS'spinna'
p1728
I104
sS"cupcake'n"
p1729
I105
sS'teaches'
p1730
I105
sS'change'
p1731
I102
sS'2yr'
p1732
I105
sS'triad'
p1733
I105
sS'regardless'
p1734
I105
sS'starring'
p1735
I105
sS'order/joy'
p1736
I105
sS'extra'
p1737
I105
sS'retires'
p1738
I105
sS'rarely'
p1739
I105
sS'market'
p1740
I105
sS'flavors'
p1741
I105
sS'prove'
p1742
I105
sS'bury'
p1743
I105
sS'angela'
p1744
I105
sS'fairfield'
p1745
I105
sS'live'
p1746
I75
sS'cuter'
p1747
I105
sS'tape'
p1748
I105
sS'angels'
p1749
I104
sS'club'
p1750
I79
sS'graphic'
p1751
I105
sS'niggas'
p1752
I105
sS'car'
p1753
I98
sS'cat'
p1754
I96
sS'can'
p1755
I79
sS'cam'
p1756
I105
sS'natasha'
p1757
I104
sS'heart'
p1758
I95
sS'december'
p1759
I104
sS"didn't"
p1760
I94
sS'heard'
p1761
I102
sS'posing'
p1762
I105
sS'chia'
p1763
I105
sS'cardio'
p1764
I105
sS'occur'
p1765
I105
sS'fortunately'
p1766
I105
sS'means'
p1767
I102
sS'freezer'
p1768
I105
sS'lounge'
p1769
I101
sS'dive'
p1770
I105
sS'southern'
p1771
I105
sS'diva'
p1772
I104
sS'disgusted'
p1773
I105
sS'heroes'
p1774
I105
sS'remember'
p1775
I101
sS'whenever'
p1776
I105
sS'trumpets'
p1777
I105
sS'corona'
p1778
I105
sS'kurt'
p1779
I104
sS'fireball'
p1780
I105
sS'sweatin'
p1781
I105
sS'serving'
p1782
I102
sS'pipe'
p1783
I105
sS'indeed'
p1784
I105
sS'haircut'
p1785
I105
sS'oneohtrix'
p1786
I104
sS'brain'
p1787
I103
sS'cold'
p1788
I104
sS'still'
p1789
I87
sS'grandslam'
p1790
I104
sS'rosetta'
p1791
I105
sS'willow'
p1792
I105
sS"amazon's"
p1793
I105
sS'birthdays'
p1794
I105
sS'window'
p1795
I102
sS'spacious'
p1796
I105
sS"servin'"
p1797
I105
sS'fling'
p1798
I105
sS'dickpuncher'
p1799
I105
sS'half'
p1800
I98
sS'not'
p1801
I46
sS'now'
p1802
I53
sS'discuss'
p1803
I105
sS'nor'
p1804
I105
sS'james'
p1805
I100
sS'drop'
p1806
I105
sS'fela\xe2\x80\xa6'
p1807
I105
sS'(1818'
p1808
I105
sS'springbreakers'
p1809
I105
sS'cliffs'
p1810
I105
sS'concerts'
p1811
I105
sS'em'
p1812
I105
sS'el'
p1813
I101
sS'en'
p1814
I104
sS'yeah'
p1815
I96
sS'ex'
p1816
I104
sS'year'
p1817
I98
sS'ft'
p1818
I104
sS'happen'
p1819
I103
sS'calling'
p1820
I103
sS'album'
p1821
I101
sS'space'
p1822
I104
sS'looking'
p1823
I101
sS'opener'
p1824
I105
sS'receiving'
p1825
I104
sS'shows'
p1826
I102
sS'bynes'
p1827
I105
sS'pinchers'
p1828
I105
sS'cars'
p1829
I105
sS'punks'
p1830
I99
sS'argh'
p1831
I105
sS"t'aime"
p1832
I105
sS'rly'
p1833
I104
sS'carl'
p1834
I105
sS'ohio'
p1835
I105
sS'prospector'
p1836
I105
sS'care'
p1837
I103
sS"show'"
p1838
I105
sS'honest'
p1839
I104
sS'lindsey'
p1840
I105
sS"jr's"
p1841
I105
sS'tennis'
p1842
I105
sS'xo'
p1843
I105
sS'amazing\xe2\x80\xa6'
p1844
I105
sS'dibia$e'
p1845
I105
sS'xd'
p1846
I105
sS'yourself'
p1847
I104
sS'your\xe2\x80\xa6'
p1848
I105
sS'message'
p1849
I103
sS'tomorrow'
p1850
I97
sS"'em"
p1851
I99
sS'size'
p1852
I105
sS'sheer'
p1853
I104
sS'checked'
p1854
I105
sS"valentine's"
p1855
I105
sS'caught'
p1856
I104
sS'friend'
p1857
I93
sS'that'
p1858
I29
sS'nobunny'
p1859
I105
sS'tarde.\xe2\x80\x9d'
p1860
I105
sS'baldy'
p1861
I105
sS'cobiansuelo'
p1862
I105
sS'thai'
p1863
I105
sS'did\xe2\x80\xa6'
p1864
I105
sS'norcal'
p1865
I104
sS'$15'
p1866
I105
sS'$10'
p1867
I105
sS'edition'
p1868
I104
sS'glazerr'
p1869
I105
sS'"found'
p1870
I105
sS'mylets'
p1871
I105
sS"club's"
p1872
I105
sS'angel'
p1873
I104
sS'slap'
p1874
I103
sS'(and'
p1875
I105
sS'chels-'
p1876
I105
sS'slam'
p1877
I104
sS'anger'
p1878
I105
sS'breakfast'
p1879
I98
sS'now!"'
p1880
I105
sS'wristband...sorry'
p1881
I105
sS'terrific'
p1882
I105
sS'arugula\xe2\x80\xa6'
p1883
I105
sS'online'
p1884
I104
sS'santiago'
p1885
I105
sS'america'
p1886
I105
sS'forever'
p1887
I101
sS'bishops'
p1888
I105
sS'acceptable"'
p1889
I105
sS'ferraro'
p1890
I105
sS'sunset'
p1891
I59
sS'bops'
p1892
I105
sS'abraham'
p1893
I105
sS'ordination'
p1894
I104
sS'7:30'
p1895
I105
sS'directed'
p1896
I105
sS'german'
p1897
I104
sS'6/22'
p1898
I105
sS'discovered'
p1899
I105
sS'ground'
p1900
I105
sS'title'
p1901
I105
sS'only'
p1902
I82
sS'pumpkin'
p1903
I105
sS'pastrami'
p1904
I105
sS'routine'
p1905
I104
sS'but...but...jackets'
p1906
I105
sS'truly'
p1907
I103
sS'cannot'
p1908
I104
sS'kiki'
p1909
I105
sS'stroll'
p1910
I102
sS'lovebirds'
p1911
I105
sS'amanda'
p1912
I105
sS"everything's"
p1913
I105
sS'concert'
p1914
I100
sS'asleep'
p1915
I104
sS'janet'
p1916
I105
sS'firestone'
p1917
I105
sS'3'
p1918
I83
sS'from\xe2\x80\xa6'
p1919
I105
sS'between'
p1920
I103
sS'nathaniel'
p1921
I105
sS'whipped'
p1922
I105
sS'hurts'
p1923
I105
sS'article'
p1924
I105
sS'talented'
p1925
I102
sS'buddie'
p1926
I105
sS'aura'
p1927
I105
sS'comes'
p1928
I100
sS'madness'
p1929
I104
sS'damas'
p1930
I104
sS"couldn't"
p1931
I102
sS'hcsb)'
p1932
I105
sS'\xe2\x80\xbc\xef\xb8\x8f'
p1933
I105
sS'gayborhood'
p1934
I103
sS'sesh'
p1935
I105
sS'jerky'
p1936
I105
sS'i\xe2\x80\xa6'
p1937
I104
sS'b-sides'
p1938
I105
sS'these'
p1939
I94
sS'roughing'
p1940
I105
sS'2\xe2\x83\xa3'
p1941
I105
sS'coolest'
p1942
I102
sS'alcoholic'
p1943
I105
sS'drug'
p1944
I104
sS'heels'
p1945
I105
sS'develop'
p1946
I105
sS'media'
p1947
I104
sS'macadam'
p1948
I105
sS'food'
p1949
I101
sS'followers'
p1950
I103
sS'document'
p1951
I105
sS'finish'
p1952
I102
sS'closest'
p1953
I105
sS'guns"'
p1954
I105
sS'fruit'
p1955
I105
sS'favorites'
p1956
I105
sS'tradition'
p1957
I105
sS'\xe2\x9c\x8c\xef\xb8\x8f'
p1958
I103
sS'burrito'
p1959
I105
sS'awesome.\xe2\x80\xa6'
p1960
I105
sS'dancers'
p1961
I103
sS'ergot'
p1962
I105
sS'actually)'
p1963
I105
sS'ounces'
p1964
I105
sS'touch'
p1965
I103
sS'speed'
p1966
I104
sS'death'
p1967
I100
sS'thinking'
p1968
I102
sS'xeno'
p1969
I105
sS'halftime'
p1970
I105
sS'\xe2\x86\x97\xef\xb8\x8fin'
p1971
I105
sS'ca'
p1972
I91
sS'real'
p1973
I87
sS'boyfrann'
p1974
I105
sS'read'
p1975
I102
sS'ruler'
p1976
I105
sS'gonna'
p1977
I93
sS'early'
p1978
I100
sS'listening'
p1979
I105
sS'using'
p1980
I105
sS'rebecca'
p1981
I105
sS'fryer'
p1982
I105
sS'whatchu'
p1983
I105
sS'pounds'
p1984
I105
sS'benefit'
p1985
I103
sS'cx'
p1986
I105
sS't'
p1987
I101
sS'daughn'
p1988
I105
sS'cisco'
p1989
I105
sS'hacky'
p1990
I105
sS'eddie'
p1991
I105
sS'passions'
p1992
I105
sS'oakland'
p1993
I104
sS'willis'
p1994
I105
sS'h.j'
p1995
I105
sS'ethos'
p1996
I105
sS'business'
p1997
I105
sS'asap'
p1998
I104
sS'surfboard'
p1999
I104
sS'(already'
p2000
I105
sS'exciting'
p2001
I105
sS'throw'
p2002
I104
sS'central'
p2003
I103
sS'ideology'
p2004
I105
sS'wolf'
p2005
I104
sS'trailer'
p2006
I105
sS'sunriver'
p2007
I105
sS'backup'
p2008
I105
sS'heater'
p2009
I105
sS'storiesbooksandcafe'
p2010
I105
sS"tryin'"
p2011
I105
sS'yous'
p2012
I105
sS'your'
p2013
I44
sS'log'
p2014
I105
sS'area'
p2015
I104
sS'lol'
p2016
I76
sS'start'
p2017
I96
sS'cats'
p2018
I103
sS'died'
p2019
I103
sS'lot'
p2020
I68
sS'$12\xe2\x80\xa6'
p2021
I105
sS'cottage'
p2022
I105
sS'trying'
p2023
I103
sS'happening'
p2024
I99
sS'lionsgate'
p2025
I105
sS'comics'
p2026
I105
sS'receptive'
p2027
I105
sS'bucket'
p2028
I105
sS"rt's"
p2029
I104
sS'courtelizz'
p2030
I105
sS'expect'
p2031
I105
sS'describe'
p2032
I104
sS'moved'
p2033
I105
sS'bootie'
p2034
I80
sS'salem'
p2035
I105
sS'moves'
p2036
I104
sS'nerd'
p2037
I105
sS'video!\xe2\x80\x9d'
p2038
I105
sS'jeromelol'
p2039
I105
sS'foolz'
p2040
I105
sS'you'
p2041
I16
sS'poor'
p2042
I104
sS'pear'
p2043
I105
sS'peas'
p2044
I105
sS'coverage'
p2045
I105
sS'jam//'
p2046
I105
sS'pool'
p2047
I105
sS'building'
p2048
I103
sS'controlled'
p2049
I105
sS'youngblood'
p2050
I105
sS'tomorrows'
p2051
I104
sS'correr'
p2052
I105
sS'month'
p2053
I100
sS'thoughtful'
p2054
I105
sS'messy'
p2055
I104
sS'antoinette'
p2056
I105
sS'foster'
p2057
I105
sS'danielle'
p2058
I105
sS'f\xc3\xa5b'
p2059
I105
sS'very'
p2060
I91
sS'horror'
p2061
I104
sS'skit'
p2062
I105
sS'selfies'
p2063
I105
sS'me'
p2064
I26
sS'heaven'
p2065
I101
sS'--'
p2066
I101
sS'thetwinshadow'
p2067
I105
sS"i'll"
p2068
I89
sS'cookies'
p2069
I105
sS'instagram'
p2070
I105
sS'fence'
p2071
I100
sS'bertalcorn'
p2072
I105
sS'jointing'
p2073
I105
sS'oaklander'
p2074
I105
sS'94.7'
p2075
I105
sS'jedi'
p2076
I105
sS'learned'
p2077
I105
sS'answers'
p2078
I105
sS'tracks'
p2079
I104
sS'selective'
p2080
I105
sS'strong'
p2081
I103
sS'ahead'
p2082
I104
sS'creepy'
p2083
I105
sS'amount'
p2084
I103
sS'activision'
p2085
I105
sS'musically'
p2086
I105
sS'inspires'
p2087
I105
sS"'twas"
p2088
I105
sS'family'
p2089
I94
sS'put'
p2090
I99
sS'aimee'
p2091
I105
sS'\xe2\x9c\xa8\xe2\x9c\xa8\xe2\x9c\xa8\xe2\x80\xa6'
p2092
I105
sS'ash'
p2093
I98
sS'takes'
p2094
I101
sS'dunkleman'
p2095
I105
sS'geetar'
p2096
I104
sS'turbo'
p2097
I105
sS'delusion'
p2098
I105
sS'yuck'
p2099
I105
sS'site'
p2100
I103
sS'excuse'
p2101
I105
sS'dios'
p2102
I103
sS'mounted'
p2103
I105
sS'grill'
p2104
I100
sS'stupid.dad'
p2105
I105
sS'pre-party'
p2106
I105
sS'spontaneous'
p2107
I105
sS'history'
p2108
I104
sS'celine'
p2109
I105
sS'propagandhi'
p2110
I105
sS'phrase'
p2111
I105
sS'stayed'
p2112
I103
sS'djsloepoke'
p2113
I105
sS'up\xe2\x80\xa6'
p2114
I105
sS'tried'
p2115
I105
sS'fb'
p2116
I104
sS'ff'
p2117
I105
sS'invasion'
p2118
I105
sS'tacos'
p2119
I101
sS'a'
p2120
I4
sS'funked'
p2121
I105
sS'dream'
p2122
I97
sS'chicks'
p2123
I104
sS'help'
p2124
I100
sS'reservoir'
p2125
I105
sS'soon'
p2126
I98
sS'held'
p2127
I105
sS'wiener'
p2128
I105
sS'bullpen'
p2129
I105
sS'hell'
p2130
I100
sS'nikstar07'
p2131
I105
sS'actually'
p2132
I102
sS'peanuts'
p2133
I105
sS'(can'
p2134
I105
sS'cutie'
p2135
I105
sS"haven't"
p2136
I103
sS'evening'
p2137
I100
sS'digging'
p2138
I104
sS'yo'
p2139
I99
sS'ya'
p2140
I101
sS'petted'
p2141
I105
sS'yg'
p2142
I105
sS"you've"
p2143
I101
sS'foot'
p2144
I105
sS'themmmm'
p2145
I105
sS'yr'
p2146
I105
sS'sundays'
p2147
I104
sS'tricycle'
p2148
I105
sS'stopped'
p2149
I103
sS"isn't"
p2150
I98
sS'referred'
p2151
I105
sS'heavy'
p2152
I105
sS'restless'
p2153
I105
sS'dichotomy'
p2154
I105
sS'beyond'
p2155
I105
sS'event'
p2156
I103
sS'dominates'
p2157
I105
sS'since'
p2158
I99
sS'douglas'
p2159
I105
sS'tremendo'
p2160
I105
sS'7'
p2161
I99
sS'issue'
p2162
I104
sS'ass'
p2163
I96
sS'drink'
p2164
I97
sS'bass'
p2165
I98
sS'pua'
p2166
I105
sS'houses'
p2167
I105
sS'reason'
p2168
I103
sS'base'
p2169
I105
sS'aziz'
p2170
I105
sS'exhoplex'
p2171
I105
sS'unresolved'
p2172
I105
sS'terrible'
p2173
I104
sS'caption'
p2174
I105
sS'american'
p2175
I105
sS'daisy'
p2176
I105
sS'bbygirl'
p2177
I105
sS'\xc2\xaf\\_(\xe3\x83\x84)_/\xc2\xaf'
p2178
I104
sS'fucked'
p2179
I105
sS'"tonight'
p2180
I105
sS'miss'
p2181
I92
sS'horse'
p2182
I105
sS'shancrafted'
p2183
I104
sS'station'
p2184
I105
sS'banana'
p2185
I105
sS'selling'
p2186
I105
sS'trapped'
p2187
I105
sS'jamie'
p2188
I105
sS'bisexual.hardly'
p2189
I105
sS'kwantan'
p2190
I105
sS'jordan'
p2191
I105
sS'grocery'
p2192
I105
sS'kindly'
p2193
I105
sS'janoski'
p2194
I105
sS'sockpuppetsitcomtheater'
p2195
I105
sS'greg'
p2196
I105
sS'berrics'
p2197
I105
sS'guacala'
p2198
I105
sS'aussi'
p2199
I105
sS'juicy'
p2200
I103
sS'committment'
p2201
I105
sS'randomly'
p2202
I105
sS'juice'
p2203
I104
sS'jaxkatz'
p2204
I105
sS'lil'
p2205
I100
sS'trance'
p2206
I105
sS'hopsauce'
p2207
I105
sS'henna'
p2208
I105
sS'lit'
p2209
I105
sS'lip'
p2210
I105
sS'useless'
p2211
I105
sS'sneakin'
p2212
I105
sS'liz'
p2213
I105
sS'hotel'
p2214
I103
sS'quote'
p2215
I105
sS'sets'
p2216
I105
sS'kar'
p2217
I105
sS'sponsored'
p2218
I105
sS"'cause"
p2219
I105
sS'kat'
p2220
I103
sS'kay'
p2221
I105
sS'fvcking'
p2222
I105
sS'eeekk'
p2223
I105
sS'clear'
p2224
I105
sS'snowcruiser'
p2225
I105
sS'part-time'
p2226
I105
sS'clean'
p2227
I100
sS'\xe2\x98\x80\xef\xb8\x8f'
p2228
I105
sS'usual'
p2229
I105
sS'shoutout'
p2230
I105
sS"'everyone"
p2231
I105
sS'booze'
p2232
I105
sS'weho'
p2233
I104
sS'crayon'
p2234
I105
sS'hyped'
p2235
I105
sS'krystofer'
p2236
I103
sS'justice'
p2237
I105
sS'slvrhnds\xe2\x80\xa6'
p2238
I105
sS'moments'
p2239
I105
sS'randy'
p2240
I105
sS'pretty'
p2241
I92
sS'\xe2\x99\xa0\xef\xb8\x8f'
p2242
I105
sS"'fuck"
p2243
I105
sS"barragan's"
p2244
I102
sS'famous'
p2245
I104
sS'feels'
p2246
I101
sS'basement'
p2247
I102
sS'during'
p2248
I101
sS'imitating'
p2249
I105
sS'workouts'
p2250
I105
sS'falling'
p2251
I103
sS'diggin'
p2252
I105
sS'x'
p2253
I100
sS'culture'
p2254
I105
sS'horoscopes'
p2255
I105
sS'close'
p2256
I102
sS'constellation'
p2257
I103
sS'hibiscus'
p2258
I105
sS'wow'
p2259
I96
sS'woo'
p2260
I104
sS'won'
p2261
I105
sS'probably'
p2262
I103
sS'pictured'
p2263
I105
sS'piss'
p2264
I105
sS'missing'
p2265
I100
sS'mentoring'
p2266
I105
sS'both'
p2267
I104
sS'mega'
p2268
I105
sS'keaton'
p2269
I105
sS'natarajasana'
p2270
I105
sS'canadians'
p2271
I105
sS'bots'
p2272
I104
sS'liked'
p2273
I104
sS'headed'
p2274
I104
sS'manners'
p2275
I105
sS'whatever'
p2276
I103
sS'cillie'
p2277
I105
sS'spotting'
p2278
I105
sS'likes'
p2279
I104
sS'catwalk'
p2280
I104
sS'described'
p2281
I105
sS'mr.terry'
p2282
I105
sS'damn'
p2283
I96
sS'territory'
p2284
I105
sS'walter'
p2285
I104
sS'lived'
p2286
I103
sS'consume'
p2287
I105
sS'else'
p2288
I104
sS'lives'
p2289
I105
sS'morrissey'
p2290
I105
sS'dialing'
p2291
I105
sS'look'
p2292
I86
sS'wyatt'
p2293
I105
sS'while'
p2294
I89
sS'1000%'
p2295
I105
sS'fairey'
p2296
I105
sS'ready'
p2297
I91
sS'anymore'
p2298
I104
sS'grant'
p2299
I105
sS'belong'
p2300
I105
sS'yaaaaaaaaas'
p2301
I105
sS'slurp-ee'
p2302
I105
sS'grand'
p2303
I98
sS'the_echo\xe2\x80\xa6'
p2304
I105
sS'used'
p2305
I103
sS'fatty'
p2306
I105
sS'camera'
p2307
I105
sS'burnley'
p2308
I105
sS'cleaning'
p2309
I105
sS'klaws'
p2310
I105
sS'older'
p2311
I105
sS'obviously'
p2312
I104
sS'empowered'
p2313
I105
sS'overflows'
p2314
I105
sS'quarters'
p2315
I104
sS'cocky'
p2316
I105
sS'roasted'
p2317
I105
sS'praying'
p2318
I104
sS'tick'
p2319
I102
sS'nikki'
p2320
I105
sS'teamsupreme'
p2321
I105
sS'soooooo'
p2322
I105
sS'los\xe2\x80\xa6'
p2323
I105
sS'remaining'
p2324
I105
sS'sprinted'
p2325
I105
sS'showing'
p2326
I105
sS'"mawma"'
p2327
I105
sS'game'
p2328
I94
sS'planetrocc'
p2329
I105
sS'like'
p2330
I39
sS'gathered\xe2\x80\xa6'
p2331
I105
sS'mndr'
p2332
I104
sS'popular'
p2333
I105
sS"bar's"
p2334
I105
sS'r.i'
p2335
I105
sS'saturdays'
p2336
I105
sS'some'
p2337
I64
sS'lips'
p2338
I104
sS'towards'
p2339
I105
sS'lake)'
p2340
I99
sS"'charmed'"
p2341
I104
sS'electric'
p2342
I104
sS'delivered'
p2343
I105
sS'debra'
p2344
I105
sS'run'
p2345
I94
sS'goldroom'
p2346
I105
sS'step'
p2347
I103
sS'viewpoints'
p2348
I105
sS'lasts'
p2349
I104
sS'(venue)'
p2350
I48
sS'shine'
p2351
I103
sS'faith'
p2352
I105
sS'conrad'
p2353
I105
sS'gnome'
p2354
I105
sS'"new"'
p2355
I105
sS'idk'
p2356
I104
sS'classics'
p2357
I104
sS'shiny'
p2358
I102
sS'silence'
p2359
I105
sS'seeing'
p2360
I100
sS'visit'
p2361
I103
sS'ahmadinejad'
p2362
I105
sS'over-sharing'
p2363
I105
sS'smells'
p2364
I103
sS'himself'
p2365
I104
sS'early\xe2\x80\x9d'
p2366
I105
sS"dion's"
p2367
I105
sS'larry'
p2368
I104
sS'selah'
p2369
I105
sS'russian'
p2370
I105
sS'dull'
p2371
I105
sS'info'
p2372
I104
sS'hair'
p2373
I86
sS'skull'
p2374
I105
sS"'fistful"
p2375
I105
sS'similar'
p2376
I105
sS'uber'
p2377
I105
sS'ordered'
p2378
I104
sS"ta'night"
p2379
I105
sS'samosoundboy'
p2380
I105
sS'apropos'
p2381
I105
sS'phillytodallas'
p2382
I105
sS'nap'
p2383
I103
sS'tits'
p2384
I105
sS'gowen'
p2385
I104
sS'\xe2\x9c\x8bi'
p2386
I105
sS'l\xc3\xb6fgren'
p2387
I105
sS'f/11'
p2388
I105
sS'visits'
p2389
I104
sS'quinoa'
p2390
I104
sS'drab'
p2391
I105
sS'revamped'
p2392
I105
sS'e'
p2393
I101
sS'dva'
p2394
I104
sS'"rebel'
p2395
I105
sS"she's"
p2396
I100
sS'sounded'
p2397
I105
sS'...ca....alllldayyyy'
p2398
I105
sS're-opened'
p2399
I105
sS'driving/travelinglots'
p2400
I105
sS'go'
p2401
I57
sS'psycho'
p2402
I105
sS'tweeted'
p2403
I105
sS'kate'
p2404
I105
sS'gh'
p2405
I105
sS'shack'
p2406
I105
sS'friendly'
p2407
I105
sS'end'
p2408
I97
sS'facebook'
p2409
I104
sS'telling'
p2410
I104
sS'more)'
p2411
I104
sS'excruciating'
p2412
I105
sS'button'
p2413
I104
sS'michael'
p2414
I102
sS'ryan'
p2415
I103
sS'cute?"'
p2416
I105
sS'mcdaniels'
p2417
I105
sS'booty'
p2418
I104
sS'carter'
p2419
I105
sS's.k'
p2420
I105
sS'boots'
p2421
I83
sS'waking'
p2422
I104
sS'jump'
p2423
I104
sS'picked'
p2424
I105
sS'cupcakes'
p2425
I105
sS'plays'
p2426
I102
sS'vampire'
p2427
I105
sS'catholic'
p2428
I105
sS'songme'
p2429
I105
sS'weirdo'
p2430
I105
sS'mccrae'
p2431
I105
sS'aaww'
p2432
I105
sS'vacay'
p2433
I105
sS'haunts'
p2434
I105
sS"weren't"
p2435
I105
sS'rateliff'
p2436
I105
sS'danger'
p2437
I104
sS'win'
p2438
I102
sS'clara'
p2439
I105
sS'wit'
p2440
I104
sS'all-white'
p2441
I105
sS'singing'
p2442
I105
sS'cloud'
p2443
I105
sS'crap'
p2444
I105
sS'remains'
p2445
I105
sS'hellllll\xe2\x80\xa6'
p2446
I105
sS'crag'
p2447
I105
sS'popped'
p2448
I105
sS'1/2'
p2449
I105
sS'started'
p2450
I99
sS'becomes'
p2451
I105
sS'about'
p2452
I59
sS'1/8'
p2453
I105
sS'moses'
p2454
I105
sS'salad'
p2455
I104
sS'ride'
p2456
I103
sS'archer'
p2457
I104
sS'meet'
p2458
I104
sS'drops'
p2459
I105
sS'control'
p2460
I100
sS'kenny'
p2461
I105
sS'links'
p2462
I105
sS'fam.\xe2\x80\xa6'
p2463
I105
sS'wowww'
p2464
I105
sS'wonderful'
p2465
I100
sS'disfrutando'
p2466
I105
sS'vibe'
p2467
I104
sS'alvarado'
p2468
I105
sS'ferdinand'
p2469
I104
sS'fare'
p2470
I105
sS'trees'
p2471
I104
sS'spelling'
p2472
I105
sS'prayi'
p2473
I105
sS'scoop'
p2474
I105
sS'bakery'
p2475
I83
sS'w/sly'
p2476
I105
sS'bathing'
p2477
I105
sS'a/c'
p2478
I105
sS'ticket'
p2479
I103
sS'cruise'
p2480
I105
sS'maaaaa'
p2481
I105
sS'subversive'
p2482
I105
sS'brood'
p2483
I105
sS'dancin'
p2484
I105
sS'housewife'
p2485
I105
sS'[pic]'
p2486
I82
sS'e-validate'
p2487
I105
sS'auto'
p2488
I105
sS'stout'
p2489
I104
sS'hands'
p2490
I103
sS'front'
p2491
I98
sS'masters'
p2492
I105
sS'shaking'
p2493
I105
sS'|'
p2494
I104
sS'wrkshp'
p2495
I105
sS'(the'
p2496
I103
sS'globe'
p2497
I105
sS'yesssssss'
p2498
I105
sS'proofreader'
p2499
I105
sS'secretly'
p2500
I105
sS'activist'
p2501
I105
sS'cause'
p2502
I102
sS'sneek'
p2503
I105
sS'ech'
p2504
I105
sS'attending'
p2505
I104
sS'completely'
p2506
I105
sS'princess'
p2507
I105
sS'playoffs'
p2508
I105
sS'timey'
p2509
I105
sS'ask'
p2510
I103
sS'keep'
p2511
I104
sS'intoxicated'
p2512
I105
sS'fashion\xe2\x80\xa6'
p2513
I105
sS'margaritas'
p2514
I105
sS'\xe2\x9d\xa4\xe2\x9d\xa4'
p2515
I105
sS'guyz'
p2516
I105
sS'theechola'
p2517
I100
sS'confuse'
p2518
I105
sS'anamanaguchi'
p2519
I105
sS'bitch'
p2520
I98
sS'mah'
p2521
I104
sS'rother'
p2522
I105
sS"you're"
p2523
I88
sS'revealed'
p2524
I105
sS'attack'
p2525
I103
sS'ankle'
p2526
I105
sS'perfectly'
p2527
I105
sS'final'
p2528
I105
sS'beard'
p2529
I105
sS'2-3'
p2530
I105
sS'dtla'
p2531
I105
sS'junioroxoa'
p2532
I105
sS'bassist'
p2533
I105
sS'fuzzy'
p2534
I105
sS'hollywoodjesus'
p2535
I105
sS'bed'
p2536
I100
sS'bet'
p2537
I103
sS'carrots'
p2538
I105
sS'bertha'
p2539
I105
sS'need'
p2540
I85
sS'tale'
p2541
I105
sS'ark'
p2542
I104
sS'cranes'
p2543
I105
sS'able'
p2544
I103
sS'makeover'
p2545
I105
sS'clubs/events'
p2546
I105
sS'truck'
p2547
I100
sS'aww'
p2548
I103
sS'mimosa'
p2549
I105
sS'awe'
p2550
I105
sS'gallery'
p2551
I103
sS'"cheerfully'
p2552
I105
sS'prickly'
p2553
I105
sS'parker'
p2554
I105
sS"sippin'"
p2555
I104
sS'parked'
p2556
I105
sS'tire'
p2557
I105
sS'2013we'
p2558
I105
sS'('
p2559
I104
sS'wreak'
p2560
I105
sS'dreamers'
p2561
I105
sS'cameos'
p2562
I105
sS'fuel'
p2563
I104
sS'truck)'
p2564
I104
sS'misty'
p2565
I105
sS'tbh'
p2566
I105
sS'same\xe2\x80\xa6'
p2567
I105
sS'endless'
p2568
I105
sS'places'
p2569
I102
sS'she'
p2570
I94
sS'tunes'
p2571
I105
sS'grab'
p2572
I105
sS'spotted'
p2573
I103
sS'netflix-'
p2574
I105
sS'computer'
p2575
I105
sS'haiyan'
p2576
I105
sS'luv'
p2577
I103
sS'nightmare'
p2578
I105
sS'state'
p2579
I103
sS'beautify'
p2580
I105
sS'neither'
p2581
I105
sS'keg'
p2582
I105
sS'avid'
p2583
I105
sS'kicking'
p2584
I100
sS'key'
p2585
I105
sS'police'
p2586
I104
sS'monitor'
p2587
I104
sS'hits'
p2588
I104
sS'aqui'
p2589
I105
sS'mais'
p2590
I105
sS'minutes'
p2591
I101
sS'aqua'
p2592
I105
sS'minds'
p2593
I104
sS'grandma/homeless'
p2594
I105
sS'tuesday'
p2595
I102
sS'kings'
p2596
I105
sS'quit'
p2597
I105
sS'yay'
p2598
I105
sS'p!ay'
p2599
I104
sS'cent'
p2600
I105
sS'slowly'
p2601
I105
sS'treat'
p2602
I103
sS'hernandez'
p2603
I105
sS'pic'
p2604
I99
sS'tapa421'
p2605
I104
sS'policy'
p2606
I105
sS'mail'
p2607
I104
sS'smoking'
p2608
I104
sS'brunch'
p2609
I100
sS'ages\xe2\x80\xa6'
p2610
I105
sS'chalk'
p2611
I105
sS'gucci'
p2612
I105
sS'cornering'
p2613
I105
sS"wouldn't"
p2614
I105
sS'fummer'
p2615
I105
sS'demi'
p2616
I105
sS'bucks'
p2617
I104
sS'balloon'
p2618
I105
sS'parts'
p2619
I105
sS'eclectic'
p2620
I105
sS'party'
p2621
I76
sS'\xe2\x9c\xa8\xe2\x9c\xa8'
p2622
I105
sS'effect'
p2623
I104
sS'"turn'
p2624
I105
sS'feelin'
p2625
I105
sS'endearing'
p2626
I105
sS'//'
p2627
I102
sS'ashley'
p2628
I105
sS'reflection'
p2629
I105
sS'lunch'
p2630
I95
sS'i'
p2631
I5
sS'modeled'
p2632
I105
sS'well'
p2633
I85
sS'welp'
p2634
I105
sS'flexing'
p2635
I105
sS'diggs'
p2636
I105
sS'mistaken'
p2637
I105
sS'dose'
p2638
I105
sS'palm'
p2639
I104
sS'lauren'
p2640
I105
sS'spells'
p2641
I105
sS'nate'
p2642
I105
sS'austerities'
p2643
I105
sS'5am'
p2644
I105
sS'necessary'
p2645
I105
sS'lost'
p2646
I98
sS'candy'
p2647
I105
sS'taping'
p2648
I105
sS'martin'
p2649
I105
sS'page'
p2650
I105
sS'matthewdavid'
p2651
I105
sS'coathangers'
p2652
I104
sS'twitter'
p2653
I103
sS'homo'
p2654
I105
sS'home'
p2655
I81
sS'peter'
p2656
I103
sS'blast!my'
p2657
I105
sS'grinding'
p2658
I105
sS'mccartney'
p2659
I105
sS'diiv'
p2660
I105
sS'duh'
p2661
I105
sS'coated'
p2662
I105
sS'parents:)'
p2663
I105
sS'phantoms'
p2664
I105
sS'poignant'
p2665
I105
sS'mondale'
p2666
I105
sS'tweeters'
p2667
I103
sS'freedom'
p2668
I103
sS'consciousness'
p2669
I105
sS'sinister'
p2670
I105
sS'rodeo'
p2671
I105
sS'cranberry'
p2672
I105
sS'h8'
p2673
I105
sS'washington'
p2674
I105
sS'brrrrr'
p2675
I105
sS'theecho'
p2676
I105
sS'dolores'
p2677
I105
sS'imperial'
p2678
I105
sS'delusions'
p2679
I105
sS'chaneling'
p2680
I105
sS'hz'
p2681
I105
sS'strawberries'
p2682
I105
sS'jbell'
p2683
I105
sS'ho'
p2684
I105
sS'ha'
p2685
I95
sS'eat'
p2686
I98
sS'he'
p2687
I79
sS'prisms'
p2688
I105
sS'signed'
p2689
I104
sS'stories'
p2690
I95
sS'pl'
p2691
I105
sS'dmv'
p2692
I105
sS'pumped'
p2693
I103
sS'metronomy'
p2694
I105
sS'piece'
p2695
I105
sS'display'
p2696
I103
sS'universal'
p2697
I105
sS'penny'
p2698
I104
sS'beats'
p2699
I104
sS'conan'
p2700
I105
sS'eric'
p2701
I102
sS'balcony'
p2702
I105
sS'diego'
p2703
I104
sS'rumors'
p2704
I105
sS'contest'
p2705
I105
sS'lakai'
p2706
I105
sS'smallpools'
p2707
I105
sS'jamming'
p2708
I102
sS'talkin'
p2709
I105
sS'star'
p2710
I101
sS'stay'
p2711
I103
sS'knxwledge'
p2712
I105
sS'backstage'
p2713
I105
sS'friends'
p2714
I92
sS'broncho'
p2715
I105
sS'watercolors'
p2716
I104
sS'imani'
p2717
I105
sS'"the'
p2718
I105
sS'chvrches'
p2719
I103
sS'pardon'
p2720
I105
sS'similarity'
p2721
I105
sS'andre'
p2722
I103
sS'consists'
p2723
I105
sS'breasties'
p2724
I105
sS'whose'
p2725
I105
sS'buddy'
p2726
I102
sS'aug'
p2727
I103
sS'sweetest'
p2728
I105
sS'mexico68'
p2729
I105
sS'sorry'
p2730
I92
sS'onstage'
p2731
I105
sS'cruising'
p2732
I104
sS'activation'
p2733
I105
sS'smack'
p2734
I105
sS'wilfred'
p2735
I105
sS"jason's"
p2736
I104
sS'today-'
p2737
I105
sS'skillz'
p2738
I105
sS'30ish'
p2739
I105
sS'baking'
p2740
I104
sS'heading'
p2741
I103
sS'clothes'
p2742
I105
sS'10k'
p2743
I105
sS'force'
p2744
I105
sS'quilt'
p2745
I104
sS'whinti'
p2746
I105
sS'me-'
p2747
I105
sS'japanese'
p2748
I105
sS'crave'
p2749
I105
sS'even'
p2750
I88
sS"tonight's"
p2751
I105
sS'bikini'
p2752
I105
sS'lights'
p2753
I101
sS'haze'
p2754
I105
sS'sundet'
p2755
I105
sS'new'
p2756
I57
sS'ever'
p2757
I91
sS'meg'
p2758
I104
sS'never'
p2759
I73
sS'(los'
p2760
I31
sS'met'
p2761
I99
sS'100'
p2762
I104
sS'101'
p2763
I101
sS'allah-las'
p2764
I104
sS'jamz'
p2765
I104
sS'omar'
p2766
I103
sS'fantastic'
p2767
I105
sS'campaign'
p2768
I104
sS'slices'
p2769
I102
sS'county'
p2770
I104
sS'counts'
p2771
I105
sS'coone'
p2772
I105
sS'arms'
p2773
I103
sS'cali'
p2774
I105
sS'call'
p2775
I100
sS'calm'
p2776
I105
sS'type'
p2777
I105
sS'tell'
p2778
I98
sS"guest'"
p2779
I105
sS'posting'
p2780
I105
sS'warm'
p2781
I104
sS'pecan'
p2782
I105
sS'adult'
p2783
I103
sS'fidlar'
p2784
I105
sS'blindfold'
p2785
I105
sS'room'
p2786
I58
sS'roof'
p2787
I104
sS'ilysm'
p2788
I104
sS'movies'
p2789
I103
sS'root'
p2790
I105
sS'vodka'
p2791
I105
sS'give'
p2792
I98
sS'laughs'
p2793
I105
sS'homie'
p2794
I103
sS'tweets.hmm'
p2795
I105
sS'the\xe2\x80\xa6'
p2796
I101
sS'amazing'
p2797
I77
sS'answer'
p2798
I104
sS'5-8-6'
p2799
I105
sS'thankyou'
p2800
I105
sS'food3'
p2801
I105
sS'president'
p2802
I105
sS'shirt'
p2803
I102
sS'guerilla'
p2804
I105
sS'attempt'
p2805
I105
sS'prudence"'
p2806
I105
sS'goodbye'
p2807
I103
sS'leggings'
p2808
I105
sS'687'
p2809
I105
sS'banger'
p2810
I105
sS'trashtalk'
p2811
I105
sS'pianos'
p2812
I105
sS'murray'
p2813
I103
sS'keyboard'
p2814
I105
sS'before'
p2815
I92
sS'stopover'
p2816
I105
sS'crew'
p2817
I102
sS'better'
p2818
I91
sS'weeks'
p2819
I102
sS'prius'
p2820
I104
sS'\xe2\x98\xba\xef\xb8\x8f'
p2821
I103
sS'indulge'
p2822
I105
sS'meat'
p2823
I105
sS'sleepless'
p2824
I104
sS'lucy'
p2825
I105
sS'went'
p2826
I101
sS'bong'
p2827
I105
sS'meal'
p2828
I103
sS'bone'
p2829
I105
sS'mean'
p2830
I104
sS'fav)'
p2831
I105
sS'myraanderson\xe2\x80\xa6'
p2832
I105
sS'skins'
p2833
I105
sS'dawg'
p2834
I105
sS'forgot'
p2835
I104
sS'aids'
p2836
I105
sS'dawn'
p2837
I104
sS'tales'
p2838
I105
sS"gilliam's"
p2839
I105
sS'angelus'
p2840
I94
sS'turning'
p2841
I102
sS'cutest'
p2842
I104
sS'fave'
p2843
I105
sS'revenge'
p2844
I105
sS'struggle'
p2845
I104
sS'favs'
p2846
I103
sS'starts'
p2847
I103
sS'ish'
p2848
I105
sS'moving'
p2849
I104
sS'loud'
p2850
I105
sS'fuckin'
p2851
I105
sS'features'
p2852
I105
sS'shot...best'
p2853
I105
sS'grade'
p2854
I105
sS'hoot'
p2855
I105
sS'vivids'
p2856
I105
sS'hood'
p2857
I99
sS'longboarding'
p2858
I105
sS'girlz'
p2859
I105
sS'spinach'
p2860
I105
sS'knight"'
p2861
I105
sS'girls'
p2862
I92
sS'boating'
p2863
I102
sS'belson)'
p2864
I105
sS'witnessing'
p2865
I105
sS'hollywood'
p2866
I101
sS'twister'
p2867
I105
sS'hawke'
p2868
I105
sS'almond'
p2869
I105
sS'wieners'
p2870
I105
sS'gym'
p2871
I105
sS'typing'
p2872
I105
sS'7pm\xe2\x80\xa6'
p2873
I105
sS'powerwalk'
p2874
I105
sS'distance'
p2875
I105
sS'nikletts'
p2876
I105
sS'bitterness'
p2877
I105
sS"boatin'"
p2878
I105
sS'santorosband'
p2879
I105
sS'fabulous'
p2880
I105
sS'mermaid'
p2881
I105
sS'mini'
p2882
I103
sS'sees'
p2883
I103
sS'mind'
p2884
I102
sS'mine'
p2885
I103
sS'ginger'
p2886
I104
sS'lotus\xe2\x99\x8e\xef\xb8\x8f'
p2887
I105
sS'all-time'
p2888
I105
sS'seed'
p2889
I105
sS'seen'
p2890
I103
sS'seem'
p2891
I105
sS'mins'
p2892
I105
sS'mint'
p2893
I105
sS'moanin'
p2894
I105
sS'davidson'
p2895
I105
sS'dessa'
p2896
I105
sS'ackin'
p2897
I105
sS'heyman'
p2898
I105
sS'marie'
p2899
I105
sS'maria'
p2900
I105
sS'alarm'
p2901
I105
sS'm'
p2902
I105
sS'dog'
p2903
I100
sS'doe'
p2904
I105
sS'definitely'
p2905
I102
sS'thenewclassic'
p2906
I100
sS'lyrics'
p2907
I104
sS'hunger'
p2908
I105
sS'folks'
p2909
I104
sS'gangsta'
p2910
I105
sS'wearing'
p2911
I99
sS'stop'
p2912
I90
sS'coast'
p2913
I101
sS'nigguh'
p2914
I105
sS'sandy'
p2915
I104
sS'earl'
p2916
I105
sS'bar'
p2917
I97
sS'fields'
p2918
I104
sS'disco'
p2919
I103
sS'bag'
p2920
I105
sS'bad'
p2921
I93
sS'carter-hair'
p2922
I105
sS'ears'
p2923
I105
sS'edwin:)'
p2924
I105
sS'decided'
p2925
I101
sS'juliet'
p2926
I105
sS'brazil'
p2927
I105
sS'said'
p2928
I105
sS'inappropriate'
p2929
I105
sS'...and'
p2930
I104
sS'lazy'
p2931
I105
sS'omg'
p2932
I98
sS'lotion'
p2933
I105
sS"'that"
p2934
I105
sS'cousin'
p2935
I103
sS'picking'
p2936
I103
sS'against'
p2937
I104
sS'sai'
p2938
I105
sS'maldonado'
p2939
I105
sS'hygiene'
p2940
I104
sS'boys)'
p2941
I105
sS'workplace'
p2942
I105
sS'basis'
p2943
I105
sS'three'
p2944
I100
sS'tiny'
p2945
I104
sS'lovely'
p2946
I97
sS"chillin'"
p2947
I105
sS'threw'
p2948
I103
sS'laurenriesgo'
p2949
I105
sS'sunshine'
p2950
I104
sS'sooooo'
p2951
I104
sS"swinton's"
p2952
I105
sS'tapping'
p2953
I105
sS'personally'
p2954
I105
sS'sound\xe2\x80\xa6'
p2955
I105
sS'exception'
p2956
I105
sS'gracias'
p2957
I105
sS'sly'
p2958
I100
sS'say'
p2959
I93
sS'transformation'
p2960
I105
sS'ugly'
p2961
I105
sS'melted'
p2962
I105
sS'suppose'
p2963
I105
sS'seven'
p2964
I105
sS'iz'
p2965
I105
sS'ip'
p2966
I105
sS'is'
p2967
I17
sS'sushi'
p2968
I103
sS'it'
p2969
I24
sS'defeated'
p2970
I105
sS'homedawgs'
p2971
I105
sS'io'
p2972
I105
sS'in'
p2973
I11
sS'seattle'
p2974
I104
sS'id'
p2975
I105
sS'disappear'
p2976
I105
sS'if'
p2977
I61
sS'grown'
p2978
I105
sS'belle'
p2979
I104
sS'make'
p2980
I90
sS'(mostly'
p2981
I105
sS'belly'
p2982
I105
sS'unfortunate'
p2983
I104
sS'80s'
p2984
I105
sS'hahaa'
p2985
I105
sS'meets'
p2986
I100
sS'dillinger'
p2987
I101
sS'garlic'
p2988
I104
sS'kim'
p2989
I104
sS'jealous'
p2990
I105
sS'overs'
p2991
I104
sS'thoughts'
p2992
I105
sS'kid'
p2993
I102
sS'butter'
p2994
I103
sS'youre'
p2995
I105
sS'808'
p2996
I105
sS'okgo'
p2997
I104
sS'yours'
p2998
I105
sS'left'
p2999
I98
sS'meet-up'
p3000
I105
sS'yea'
p3001
I104
sS'yey'
p3002
I105
sS'psych'
p3003
I104
sS'human'
p3004
I104
sS'facts'
p3005
I105
sS'yes'
p3006
I95
sS'yet'
p3007
I103
sS'character'
p3008
I104
sS'jeweler'
p3009
I105
sS'save'
p3010
I105
sS'ops'
p3011
I105
sS'vanessa'
p3012
I105
sS'dreamy'
p3013
I104
sS'photobooth'
p3014
I104
sS'dreams'
p3015
I104
sS'janks'
p3016
I105
sS'performing'
p3017
I105
sS'maxie'
p3018
I105
sS'deal'
p3019
I101
sS'gave\xe2\x80\xa6'
p3020
I105
sS'somehow'
p3021
I105
sS'dead'
p3022
I105
sS'intern'
p3023
I105
sS'kbbq'
p3024
I105
sS'dear'
p3025
I104
sS'dense'
p3026
I105
sS'snapchatted'
p3027
I105
sS'a\xe2\x80\xa6'
p3028
I105
sS'daytime'
p3029
I105
sS'glowin'
p3030
I105
sS'burn'
p3031
I100
sS'with\xe2\x80\xa6'
p3032
I105
sS'super'
p3033
I99
sS'yelling'
p3034
I105
sS'valentines'
p3035
I105
sS'afternoon'
p3036
I99
sS"sach's"
p3037
I105
sS'selfie'
p3038
I104
sS'skatalites'
p3039
I105
sS'mhmm-'
p3040
I105
sS'down'
p3041
I80
sS'shortstop'
p3042
I103
sS"c'est"
p3043
I105
sS'form'
p3044
I104
sS'batman'
p3045
I105
sS'fireworks'
p3046
I105
sS'failure'
p3047
I105
sS'what"'
p3048
I105
sS'thecoathangers'
p3049
I105
sS'attached'
p3050
I105
sS'whiskey'
p3051
I101
sS'daddy'
p3052
I104
sS'"we'
p3053
I104
sS'pizza)'
p3054
I101
sS'classic'
p3055
I105
sS'tijoux'
p3056
I105
sS'shit'
p3057
I83
sS'holla'
p3058
I104
sS'\xe2\x9b\xba\xef\xb8\x8f'
p3059
I105
sS'digital'
p3060
I105
sS'2500'
p3061
I105
sS'felt'
p3062
I105
sS'diet'
p3063
I105
sS'fell'
p3064
I104
sS'weekend'
p3065
I95
sS'fela'
p3066
I105
sS'jones'
p3067
I105
sS'expanders'
p3068
I105
sS'daily'
p3069
I105
sS'jacket'
p3070
I104
sS'fun!!!!\xe2\x80\xa6'
p3071
I105
sS'(norway)'
p3072
I105
sS'restored'
p3073
I105
sS'themed'
p3074
I104
sS'souls'
p3075
I105
sS'laura'
p3076
I105
sS'mile'
p3077
I104
sS'skin'
p3078
I103
sS'milo'
p3079
I104
sS'10th"'
p3080
I105
sS'milk'
p3081
I105
sS'swoon'
p3082
I105
sS'father'
p3083
I105
sS'amaze'
p3084
I104
sS'finally'
p3085
I87
sS'foursquare'
p3086
I102
sS'^.^'
p3087
I105
sS'lovelife'
p3088
I105
sS'poli\xc4\x87ia'
p3089
I105
sS'soul-'
p3090
I105
sS'ma'
p3091
I102
sS'1s'
p3092
I105
sS'dim'
p3093
I105
sS'did'
p3094
I86
sS'die'
p3095
I105
sS'accidentally'
p3096
I105
sS'days:no'
p3097
I105
sS'round'
p3098
I98
sS'dis'
p3099
I104
sS'shave'
p3100
I102
sS'talked'
p3101
I105
sS'angeles)'
p3102
I92
sS"running'"
p3103
I105
sS'corner'
p3104
I104
sS'eating'
p3105
I101
sS'encrusted'
p3106
I105
sS'international'
p3107
I103
sS'makeup'
p3108
I105
sS'ridin'
p3109
I105
sS'french'
p3110
I100
sS'earthquake'
p3111
I105
sS'wait'
p3112
I92
sS'box'
p3113
I105
sS'boy'
p3114
I88
sS'hotties'
p3115
I105
sS'bow'
p3116
I105
sS'pogoing'
p3117
I105
sS'bom'
p3118
I104
sS'boo'
p3119
I102
sS'priceless'
p3120
I104
sS'bob'
p3121
I104
sS'massage'
p3122
I105
sS'chasteen'
p3123
I104
sS'everybody'
p3124
I104
sS'franco'
p3125
I104
sS'pere'
p3126
I105
sS'aye'
p3127
I103
sS'dude'
p3128
I92
sS'sweg'
p3129
I105
sS'france'
p3130
I105
sS'ahhh'
p3131
I105
sS'thru'
p3132
I105
sS'checkout'
p3133
I105
sS'"gatz"'
p3134
I105
sS'sharing'
p3135
I100
sS'pollyn'
p3136
I105
sS'ohmeredith'
p3137
I105
sS'labyrinth'
p3138
I105
sS'downtown'
p3139
I101
sS'downing'
p3140
I105
sS'olive'
p3141
I105
sS'fly'
p3142
I105
sS'tokyo'
p3143
I104
sS'cream"'
p3144
I105
sS'(1716'
p3145
I105
sS'soul'
p3146
I101
sS'growing'
p3147
I105
sS'making'
p3148
I95
sS'mentee'
p3149
I105
sS'crazy'
p3150
I93
sS'kenneth'
p3151
I104
sS'fuck'
p3152
I85
sS'drawer'
p3153
I105
sS'lorde'
p3154
I104
sS'pink'
p3155
I103
sS'ceschi'
p3156
I105
sS'steve'
p3157
I100
sS'till'
p3158
I102
sS'sunday'
p3159
I85
sS'pure'
p3160
I105
sS'maestro'
p3161
I105
sS'nyc'
p3162
I104
sS'staying'
p3163
I104
sS'may'
p3164
I101
sS'max'
p3165
I105
sS'snl'
p3166
I105
sS'accessory'
p3167
I105
sS'mad'
p3168
I96
sS'left.\xe2\x80\xa6'
p3169
I105
sS'guys'
p3170
I98
sS'grow'
p3171
I103
sS'man'
p3172
I82
sS'neck'
p3173
I105
sS'dashes.\xe2\x80\x9d'
p3174
I105
sS'maybe'
p3175
I101
sS'q'
p3176
I105
sS'block'
p3177
I104
sS'tall'
p3178
I105
sS'talk'
p3179
I96
sS'cute'
p3180
I102
sS'shoes'
p3181
I103
sS'shaky'
p3182
I105
sS'wishing'
p3183
I105
sS'shake'
p3184
I105
sS'molodic'
p3185
I105
sS'serenades'
p3186
I105
sS'group'
p3187
I104
sS'thank'
p3188
I81
sS'krates'
p3189
I105
sS'smoothie'
p3190
I105
sS'interesting'
p3191
I103
sS'maid'
p3192
I105
sS'writers'
p3193
I105
sS'thanx'
p3194
I102
sS'tweets'
p3195
I101
sS'ours'
p3196
I105
sS'main'
p3197
I105
sS'texas'
p3198
I103
sS'killer'
p3199
I103
sS'interview'
p3200
I105
sS'killem'
p3201
I105
sS'killed'
p3202
I97
sS'fudge'
p3203
I104
sS'arrows'
p3204
I105
sS'olin'
p3205
I105
sS'rock'
p3206
I100
sS'elephante'
p3207
I105
sS'preaching'
p3208
I105
sS'girl'
p3209
I82
sS'living'
p3210
I102
sS'and\xe2\x80\xa6'
p3211
I101
sS'jackson'
p3212
I105
sS'pedophile'
p3213
I105
sS'phuc'
p3214
I105
sS'mess'
p3215
I105
sS'freedia'
p3216
I104
sS'tecate'
p3217
I105
sS'earlier'
p3218
I103
sS'pumping'
p3219
I105
sS'california'
p3220
I99
sS'vinyl'
p3221
I93
sS'gasping...lecherous'
p3222
I105
sS'gots'
p3223
I105
sS'amigos'
p3224
I105
sS'watts'
p3225
I105
sS'language'
p3226
I105
sS'ministry'
p3227
I105
sS'thing'
p3228
I94
sS'funky'
p3229
I94
sS'jumping'
p3230
I105
sS'"we\'re'
p3231
I105
sS'yess'
p3232
I105
sS'think'
p3233
I79
sS'waited'
p3234
I104
sS'first'
p3235
I83
sS'cheese'
p3236
I101
sS'hoppin'
p3237
I105
sS'xoxo'
p3238
I103
sS'crib'
p3239
I105
sS'long'
p3240
I93
sS'suspended'
p3241
I105
sS'carry'
p3242
I105
sS'sounds'
p3243
I101
sS'little'
p3244
I87
sS'~*hello'
p3245
I105
sS'anyone'
p3246
I101
sS'escort'
p3247
I104
sS'speaking'
p3248
I105
sS"we're"
p3249
I91
sS'subplot'
p3250
I105
sS'eyes'
p3251
I103
sS'vibe\xe2\x80\xa6'
p3252
I105
sS'prty'
p3253
I105
sS'therookeryalehouse'
p3254
I105
sS'"talk'
p3255
I105
sS'butt'
p3256
I102
sS"here's"
p3257
I98
sS'11'
p3258
I103
sS'10'
p3259
I99
sS'13'
p3260
I103
sS'12'
p3261
I97
sS'15'
p3262
I100
sS'14'
p3263
I105
sS'17'
p3264
I102
sS'16'
p3265
I102
sS'18'
p3266
I104
sS'gotta'
p3267
I102
sS'austra'
p3268
I104
sS'were'
p3269
I88
sS'crackk'
p3270
I105
sS'coconut'
p3271
I104
sS'talib'
p3272
I104
sS'dash'
p3273
I105
sS'kevin'
p3274
I105
sS'shocked'
p3275
I105
sS'potential'
p3276
I105
sS'performance'
p3277
I98
sS'flattered'
p3278
I105
sS'popin'
p3279
I105
sS'pain'
p3280
I104
sS'theatre'
p3281
I105
sS'normal'
p3282
I104
sS'paid'
p3283
I104
sS'rehearsal'
p3284
I104
sS'pair'
p3285
I105
sS'nu-jason'
p3286
I105
sS'woooo'
p3287
I105
sS'jumped'
p3288
I104
sS'shop'
p3289
I105
sS'shot'
p3290
I98
sS'thebandtoy'
p3291
I105
sS'show'
p3292
I46
sS'reblog'
p3293
I105
sS'shoe'
p3294
I105
sS"segel's"
p3295
I105
sS'feng'
p3296
I105
sS'dick'
p3297
I104
sS'cheeseburger'
p3298
I105
sS'behind'
p3299
I98
sS'black'
p3300
I97
sS'walgreens'
p3301
I105
sS'blacc'
p3302
I105
sS'plump'
p3303
I105
sS'get'
p3304
I64
sS'hostage'
p3305
I105
sS'spraying'
p3306
I105
sS'unimportant'
p3307
I105
sS'killers'
p3308
I105
sS'nearly'
p3309
I105
sS'malaysian'
p3310
I105
sS'morning'
p3311
I68
sS'stupid'
p3312
I100
sS'freedie'
p3313
I105
sS'lake\xe2\x80\xa6'
p3314
I104
sS'funky"'
p3315
I105
sS"killin'"
p3316
I105
sS'sean'
p3317
I104
sS'boooootie'
p3318
I105
sS'wonder'
p3319
I102
sS'camping'
p3320
I105
sS'monalisa'
p3321
I105
sS'enough'
p3322
I100
sS'reading'
p3323
I98
sS'across'
p3324
I105
sS'august'
p3325
I104
sS'jr'
p3326
I105
sS'killing'
p3327
I101
sS'whisperer'
p3328
I105
sS'jk'
p3329
I101
sS'jd'
p3330
I105
sS'je'
p3331
I105
sS'julissaah'
p3332
I105
sS'dates'
p3333
I104
sS'chelsea'
p3334
I105
sS'according'
p3335
I105
sS'restroom'
p3336
I105
sS'tour'
p3337
I105
sS'improv'
p3338
I105
sS'cancer'
p3339
I104
sS'(below'
p3340
I105
sS'pyles'
p3341
I105
sS'arts'
p3342
I105
sS'pretty\xe2\x80\xa6'
p3343
I105
sS'mark'
p3344
I104
sS'mart'
p3345
I98
sS'workshop'
p3346
I102
sS'mars'
p3347
I103
sS'qu\xc3\xa9'
p3348
I105
sS'shopping'
p3349
I104
sS'squash'
p3350
I104
sS'wake'
p3351
I102
sS'hardcore'
p3352
I105
sS'3000+'
p3353
I105
sS'those'
p3354
I98
sS'sound'
p3355
I103
sS'sloooooooaaaannnnnnchella'
p3356
I105
sS'coffee'
p3357
I102
sS'marcel'
p3358
I105
sS'sleeping'
p3359
I105
sS'middle'
p3360
I102
sS'dreyah_'
p3361
I105
sS'dangerously'
p3362
I105
sS'baths'
p3363
I105
sS'pre-show'
p3364
I105
sS'breton'
p3365
I99
sS'movements'
p3366
I105
sS'different'
p3367
I101
sS'pay'
p3368
I102
sS'same'
p3369
I96
sS'speech'
p3370
I104
sS'urself'
p3371
I105
sS'pal'
p3372
I104
sS'residency'
p3373
I105
sS'rainbow'
p3374
I105
sS'running'
p3375
I101
sS'totally'
p3376
I101
sS'break'
p3377
I105
sS'lemoncito!\xe2\x80\xa6'
p3378
I105
sS'lillylil'
p3379
I105
sS'bumping'
p3380
I105
sS'tragicthrills'
p3381
I105
sS'karin-chan'
p3382
I105
sS'time!)'
p3383
I105
sS'money'
p3384
I103
sS'ickarus'
p3385
I105
sS'4'
p3386
I69
sS'colbalt'
p3387
I105
sS'swooning'
p3388
I105
sS'pill'
p3389
I105
sS'chugged\xe2\x80\xa6'
p3390
I105
sS'jake'
p3391
I104
sS'mos'
p3392
I105
sS'moi'
p3393
I104
sS'moo'
p3394
I102
sS'\xe2\x9d\xa4'
p3395
I102
sS'mod'
p3396
I105
sS'audience'
p3397
I104
sS'nose'
p3398
I104
sS'served'
p3399
I105
sS'passionate'
p3400
I105
sS'second-'
p3401
I105
sS'gross'
p3402
I105
sS'outs'
p3403
I105
sS'lotta'
p3404
I104
sS'in\xe2\x80\xa6'
p3405
I104
sS'drenched'
p3406
I105
sS'overly'
p3407
I105
sS'seconds'
p3408
I105
sS'each'
p3409
I104
sS'drums'
p3410
I102
sS'violence'
p3411
I104
sS'mixer'
p3412
I105
sS'out"'
p3413
I105
sS'road'
p3414
I104
sS'two-day'
p3415
I105
sS'blessed'
p3416
I103
sS'vacation'
p3417
I105
sS'lifers'
p3418
I105
sS'dreaming'
p3419
I105
sS'"rocking'
p3420
I105
sS'styling'
p3421
I105
sS'jae_gee_'
p3422
I105
sS'lions'
p3423
I104
sS'mornings'
p3424
I105
sS'hacienda'
p3425
I105
sS'judging'
p3426
I105
sS'happen.but'
p3427
I105
sS'strikes'
p3428
I105
sS'sophisticated'
p3429
I105
sS'laing'
p3430
I105
sS'walkway'
p3431
I105
sS'downstairs'
p3432
I105
sS'belated'
p3433
I105
sS'dubbbb'
p3434
I105
sS'romantic'
p3435
I104
sS"wasn't"
p3436
I104
sS'strawberry'
p3437
I105
sS'(echo'
p3438
I104
sS'dubbing'
p3439
I105
sS'videos'
p3440
I103
sS'rapids'
p3441
I105
sS'deer'
p3442
I101
sS'deep'
p3443
I96
sS'fellow'
p3444
I105
sS'girlfriend'
p3445
I102
sS'film'
p3446
I103
sS'fill'
p3447
I105
sS'again'
p3448
I91
sS'field'
p3449
I103
sS'twerk'
p3450
I105
sS"smith's"
p3451
I105
sS'brandi'
p3452
I105
sS'students'
p3453
I105
sS'kang-ho'
p3454
I105
sS'chosenofcourage'
p3455
I105
sS'keepin'
p3456
I105
sS'acid\xe2\x80\xa6'
p3457
I105
sS'of\xe2\x80\xa6'
p3458
I102
sS'dunked'
p3459
I105
sS'finnaticz'
p3460
I105
sS'u'
p3461
I61
sS'alright'
p3462
I105
sS'starting'
p3463
I103
sS'represent'
p3464
I105
sS'shazam'
p3465
I104
sS'forget'
p3466
I103
sS'vile'
p3467
I105
sS"others---it's"
p3468
I105
sS'suns'
p3469
I105
sS'allergy'
p3470
I105
sS'talks'
p3471
I104
sS'expressions'
p3472
I104
sS'briefcases'
p3473
I105
sS'woooow'
p3474
I105
sS"45's"
p3475
I104
sS'wunder'
p3476
I104
sS'viator'
p3477
I104
sS"'fifty"
p3478
I105
sS'enjoying'
p3479
I100
sS'mandela'
p3480
I105
sS'sitting'
p3481
I105
sS'lianne'
p3482
I105
sS'bestie'
p3483
I105
sS'fall'
p3484
I103
sS'difference'
p3485
I102
sS'lail'
p3486
I105
sS'elated'
p3487
I105
sS'celebrity'
p3488
I105
sS'donovan'
p3489
I105
sS'j-rocc'
p3490
I105
sS'abyssinians'
p3491
I105
sS'neighborhood'
p3492
I104
sS'ritter'
p3493
I105
sS'burger'
p3494
I102
sS'zero'
p3495
I104
sS'further'
p3496
I104
sS'90s'
p3497
I104
sS'stood'
p3498
I105
sS'sooooooo'
p3499
I105
sS'"super'
p3500
I105
sS'dias'
p3501
I104
sS'movement'
p3502
I102
sS'wu-tang'
p3503
I105
sS'surfer'
p3504
I105
sS'beacon'
p3505
I104
sS'jonas'
p3506
I105
sS'search'
p3507
I105
sS'novella'
p3508
I105
sS'stella'
p3509
I105
sS'must-see'
p3510
I105
sS'transit'
p3511
I105
sS'eye'
p3512
I105
sS'texting'
p3513
I104
sS'two'
p3514
I66
sS'e-cig'
p3515
I105
sS'splash'
p3516
I104
sS'astr'
p3517
I102
sS'kamasi'
p3518
I105
sS"ain't"
p3519
I100
sS'town'
p3520
I103
sS'hour'
p3521
I100
sS'maniac'
p3522
I105
sS'sucks'
p3523
I102
sS'roosevelt'
p3524
I105
sS'guards'
p3525
I105
sS'huge'
p3526
I102
sS'deb'
p3527
I105
sS'dee'
p3528
I104
sS'def'
p3529
I105
sS'winkie'
p3530
I105
sS'shark'
p3531
I104
sS'onslaught'
p3532
I105
sS"derulo's"
p3533
I105
sS'share'
p3534
I104
sS'aggrolites'
p3535
I105
sS'lolol'
p3536
I105
sS'purchased'
p3537
I105
sS'biography'
p3538
I105
sS'needs'
p3539
I104
sS'awkward'
p3540
I103
sS'sunset.happy'
p3541
I105
sS'quesadilla'
p3542
I103
sS'ucla'
p3543
I105
sS'newman(seinfeld'
p3544
I105
sS'bloop'
p3545
I105
sS'advice'
p3546
I105
sS'questioning'
p3547
I105
sS'"meetings."'
p3548
I105
sS'blood'
p3549
I103
sS'coming'
p3550
I91
sS'tweeting'
p3551
I104
sS'eats'
p3552
I105
sS'playing'
p3553
I82
sS"that's"
p3554
I88
sS'r.a.i.d'
p3555
I105
sS'through'
p3556
I92
sS'filters'
p3557
I105
sS'bluebeat'
p3558
I105
sS'24'
p3559
I105
sS'25'
p3560
I103
sS'26'
p3561
I105
sS'20'
p3562
I102
sS'21'
p3563
I103
sS'22'
p3564
I103
sS'adios'
p3565
I105
sS'28'
p3566
I105
sS'late'
p3567
I100
sS'pesto'
p3568
I105
sS'at\xe2\x80\xa6'
p3569
I103
sS'here\xe2\x80\xa6'
p3570
I105
sS'good'
p3571
I35
sS'detour'
p3572
I105
sS'mystery'
p3573
I103
sS'robbie'
p3574
I105
sS'pregnant'
p3575
I105
sS'habits'
p3576
I105
sS'2m'
p3577
I105
sS'everyone'
p3578
I97
sS'delicious'
p3579
I103
sS'house'
p3580
I84
sS'energy'
p3581
I103
sS'(ireland)'
p3582
I105
sS'monks'
p3583
I105
sS'swoooon'
p3584
I105
sS'fist'
p3585
I105
sS'portland'
p3586
I104
sS'harp'
p3587
I105
sS'flower'
p3588
I105
sS'krokodil'
p3589
I105
sS'acting'
p3590
I104
sS'granola'
p3591
I105
sS'perro'
p3592
I105
sS're-united'
p3593
I105
sS'bistro'
p3594
I80
sS'circumstance'
p3595
I105
sS"brutalia's"
p3596
I105
sS'motherfucker'
p3597
I105
sS'mmm'
p3598
I104
sS'extraordinary'
p3599
I105
sS'"redankulous"'
p3600
I105
sS'disneyland'
p3601
I105
sS'members'
p3602
I104
sS'backed'
p3603
I105
sS'audacity'
p3604
I105
sS'dont'
p3605
I103
sS'tolzien'
p3606
I105
sS'{1pm}'
p3607
I105
sS'done'
p3608
I97
sS'going&that'
p3609
I105
sS'killin'
p3610
I101
sS'merde'
p3611
I105
sS'twenty'
p3612
I103
sS'5th'
p3613
I103
sS'batwings'
p3614
I105
sS'merda'
p3615
I105
sS'construct'
p3616
I105
sS'obligatory'
p3617
I105
sS'mama'
p3618
I102
sS'para'
p3619
I105
sS'you\xe2\x80\x9d'
p3620
I105
sS'needle'
p3621
I105
sS'park'
p3622
I12
sS'part'
p3623
I93
sS'doctors'
p3624
I105
sS'believe'
p3625
I99
sS'carnage'
p3626
I105
sS'b'
p3627
I99
sS'conhecer'
p3628
I105
sS'gotten'
p3629
I105
sS'pc'
p3630
I105
sS'youth'
p3631
I105
sS'you\xe2\x80\xa6'
p3632
I105
sS're-bound'
p3633
I105
sS'murder'
p3634
I105
sS'surprise\xe2\x80\xa6'
p3635
I105
sS'meltdown'
p3636
I105
sS'merking'
p3637
I105
sS'mountain'
p3638
I104
sS'hellotoshiko'
p3639
I105
sS'dancing'
p3640
I93
sS'couch'
p3641
I104
sS'augh'
p3642
I105
sS'reeeeellllaaaxxxxx'
p3643
I105
sS'mosh'
p3644
I105
sS'most'
p3645
I96
sS'extremely'
p3646
I104
sS'amazed'
p3647
I105
sS'joining'
p3648
I105
sS"plays'"
p3649
I105
sS'headlined'
p3650
I105
sS'hopped'
p3651
I105
sS'fine'
p3652
I102
sS'find'
p3653
I99
sS'22%sam'
p3654
I105
sS'giant'
p3655
I105
sS'restaurant)'
p3656
I105
sS'nervous'
p3657
I105
sS'ruin'
p3658
I105
sS'waiting'
p3659
I92
sS'idiots'
p3660
I104
sS'8'
p3661
I98
sS'riddim'
p3662
I105
sS'express'
p3663
I105
sS'courage'
p3664
I105
sS'rebel"'
p3665
I105
sS'geoffboxjames'
p3666
I105
sS'do\xe2\x80\xa6'
p3667
I105
sS'caballeros'
p3668
I105
sS'dante'
p3669
I105
sS'witches'
p3670
I105
sS'hike'
p3671
I105
sS'tender'
p3672
I105
sS'retweet'
p3673
I105
sS'fang'
p3674
I103
sS'visiting'
p3675
I105
sS'please'
p3676
I89
sS'fans'
p3677
I96
sS'champagne'
p3678
I103
sS'"not'
p3679
I104
sS'fuckas'
p3680
I105
sS'marilyn'
p3681
I105
sS'aloe'
p3682
I105
sS'annual'
p3683
I105
sS'focused'
p3684
I105
sS'faggots'
p3685
I105
sS'elliot'
p3686
I105
sS'point'
p3687
I101
sS'simple'
p3688
I105
sS'donkey'
p3689
I103
sS'dancer'
p3690
I103
sS'simply'
p3691
I105
sS'throughout'
p3692
I105
sS'raise'
p3693
I105
sS'tgif'
p3694
I105
sS'secret'
p3695
I102
sS'dropping'
p3696
I105
sS"indie's"
p3697
I105
sS'peppers'
p3698
I105
sS'meeting'
p3699
I102
sS'ansari'
p3700
I105
sS'vans'
p3701
I105
sS'gaberdine'
p3702
I105
sS'gay'
p3703
I104
sS'gap'
p3704
I105
sS'\xe2\x80\x9casphyxia'
p3705
I105
sS'understand'
p3706
I101
sS'jell-o'
p3707
I105
sS'pierce'
p3708
I105
sS'raw'
p3709
I105
sS'solid'
p3710
I105
sS"f'n"
p3711
I105
sS'made\xe2\x80\xa6'
p3712
I105
sS'onuinu'
p3713
I105
sS'indulging'
p3714
I105
sS'portugal'
p3715
I105
sS'oversold'
p3716
I105
sS'starving'
p3717
I105
sS"pilgrims'"
p3718
I105
sS'rocks-'
p3719
I105
sS'ewk'
p3720
I105
sS'"michael'
p3721
I105
sS'keys'
p3722
I105
sS'margieoctober'
p3723
I105
sS'yesterday'
p3724
I104
sS'moment'
p3725
I97
sS'purpose'
p3726
I105
sS'wookey'
p3727
I105
sS'pc:\xe2\x80\xa6'
p3728
I105
sS'spent'
p3729
I101
sS'y'
p3730
I104
sS'entry'
p3731
I105
sS'spend'
p3732
I104
sS"david's"
p3733
I105
sS'mom'
p3734
I93
sS'dublab'
p3735
I105
sS'12:45'
p3736
I105
sS'atomic'
p3737
I105
sS'jumpsuit'
p3738
I105
sS'letting'
p3739
I105
sS'cut'
p3740
I103
sS'cup'
p3741
I104
sS'hated'
p3742
I105
sS'cuz'
p3743
I104
sS'shouting'
p3744
I104
sS'homies'
p3745
I104
sS'snap'
p3746
I104
sS'easter'
p3747
I104
sS'excited'
p3748
I92
sS'big'
p3749
I93
sS'8:30pm'
p3750
I105
sS'matters'
p3751
I105
sS'bit'
p3752
I98
sS'knock'
p3753
I105
sS'follows'
p3754
I105
sS'disko'
p3755
I105
sS'budget/complicated-fuck-setup'
p3756
I105
sS'google'
p3757
I105
sS'"frederick'
p3758
I105
sS'absolutely'
p3759
I104
sS'back'
p3760
I71
sS'strongest'
p3761
I105
sS'yuuuuuuup'
p3762
I105
sS'scale'
p3763
I105
sS'pet'
p3764
I105
sS'pen'
p3765
I105
sS'sneakers'
p3766
I105
sS'portlandia'
p3767
I104
sS'epic'
p3768
I101
sS'continuing'
p3769
I105
sS'30+'
p3770
I105
sS'from'
p3771
I48
sS'dale\xee\x90\x8e'
p3772
I105
sS'graduation'
p3773
I105
sS'drama'
p3774
I105
sS'ounce'
p3775
I105
sS'beans'
p3776
I103
sS'hahahah'
p3777
I105
sS'ayyy'
p3778
I105
sS'tothepointhardcore'
p3779
I105
sS'shot...monday'
p3780
I105
sS'fives'
p3781
I105
sS'kyra'
p3782
I105
sS'mkt'
p3783
I105
sS'ouchhh'
p3784
I105
sS'forward'
p3785
I103
sS'invite'
p3786
I105
sS'boyd'
p3787
I105
sS'murphy'
p3788
I105
sS'boys'
p3789
I97
sS'\xe2\x99\xab'
p3790
I103
sS'\xe2\x99\xa5'
p3791
I105
sS'groovy'
p3792
I105
sS'driveways'
p3793
I105
sS'planet'
p3794
I102
sS"tomorrow's"
p3795
I105
sS'exploration'
p3796
I105
sS'groove'
p3797
I104
sS'constant'
p3798
I104
sS'(outside)'
p3799
I105
sS'lyd'
p3800
I105
sS'single'
p3801
I105
sS'curb'
p3802
I105
sS'playin'
p3803
I105
sS'echoplex'
p3804
I10
sS'cafe'
p3805
I81
sS'stripper'
p3806
I105
sS'truuu'
p3807
I105
sS'boathouse)'
p3808
I105
sS'chuckpalahniuk'
p3809
I105
sS'utterly'
p3810
I104
sS'desert'
p3811
I104
sS'conversations"'
p3812
I105
sS'zags'
p3813
I105
sS'2006'
p3814
I105
sS'2005'
p3815
I105
sS'2008'
p3816
I105
sS'kickin'
p3817
I104
sS'portraying'
p3818
I105
sS'jason'
p3819
I101
sS'groceries'
p3820
I105
sS'peanut'
p3821
I104
sS'/wyatt'
p3822
I105
sS'lilly'
p3823
I105
sS'brigade'
p3824
I105
sS'dessert'
p3825
I105
sS'putting'
p3826
I103
sS'entire'
p3827
I103
sS'recreation'
p3828
I101
sS'choppa'
p3829
I105
sS'joel'
p3830
I104
sS'(moving'
p3831
I105
sS'bleeding'
p3832
I105
sS'carly'
p3833
I102
sS'uncomfortable'
p3834
I104
sS'ayomari'
p3835
I105
sS'hemmings'
p3836
I105
sS"regramin'\xe2\x80\xa6"
p3837
I105
sS'chicago'
p3838
I103
sS'giving'
p3839
I102
sS'paddle'
p3840
I100
sS'is...finger'
p3841
I105
sS'body'
p3842
I102
sS'steinmoney'
p3843
I105
sS'kanwakan'
p3844
I105
sS'others'
p3845
I50
sS'sing'
p3846
I102
sS'talent'
p3847
I104
sS'skool'
p3848
I105
sS'30'
p3849
I105
sS'34'
p3850
I105
sS'honor'
p3851
I104
sS'audrey_arndt'
p3852
I105
sS'limp'
p3853
I105
sS'truise'
p3854
I105
sS'cha'
p3855
I103
sS'cho'
p3856
I105
sS'debbie'
p3857
I105
sS'butler'
p3858
I105
sS'themselves'
p3859
I105
sS'upcoming'
p3860
I105
sS'ashamed'
p3861
I105
sS'4am'
p3862
I105
sS'tearing'
p3863
I104
sS'harvest'
p3864
I105
sS'britney'
p3865
I105
sS'f'
p3866
I102
sS'alie'
p3867
I105
sS'obvious'
p3868
I105
sS'closing'
p3869
I103
sS'bouncer'
p3870
I105
sS'high)'
p3871
I105
sS'tal'
p3872
I105
sS'bones'
p3873
I105
sS'sunglasses'
p3874
I105
sS'native'
p3875
I105
sS'psyched'
p3876
I104
sS'lame'
p3877
I105
sS'stock'
p3878
I105
sS'kickstarter'
p3879
I105
sS'fran'
p3880
I104
sS'waters'
p3881
I105
sS'collection'
p3882
I104
sS"jill's"
p3883
I105
sS'cuddling'
p3884
I105
sS'ambiguous'
p3885
I105
sS'lucinda'
p3886
I102
sS'metaphors'
p3887
I105
sS'dz'
p3888
I105
sS'lined'
p3889
I105
sS'mustache'
p3890
I105
sS'"oral"'
p3891
I105
sS'horns'
p3892
I104
sS'gramps'
p3893
I105
sS'butternut'
p3894
I105
sS'bunch'
p3895
I101
sS'le'
p3896
I105
sS'la'
p3897
I33
sS'winning'
p3898
I105
sS'age'
p3899
I101
sS'lu'
p3900
I105
sS'lp'
p3901
I104
sS'criminal'
p3902
I104
sS'ly'
p3903
I105
sS'dad'
p3904
I96
sS'greater'
p3905
I104
sS'dan'
p3906
I104
sS'wows'
p3907
I105
sS'mention'
p3908
I104
sS'cutting'
p3909
I105
sS'insisting'
p3910
I105
sS'day'
p3911
I46
sS'10pm'
p3912
I105
sS'cider'
p3913
I105
sS'blazing'
p3914
I104
sS'morris'
p3915
I105
sS'latham'
p3916
I105
sS'helluvit'
p3917
I105
sS"ya'll"
p3918
I105
sS'lively'
p3919
I104
sS'bueno'
p3920
I105
sS'junkie'
p3921
I105
sS'sexual'
p3922
I105
sS'popping'
p3923
I105
sS'matt'
p3924
I104
sS'red'
p3925
I104
sS'jessica'
p3926
I105
sS'frank'
p3927
I105
sS'que'
p3928
I103
sS'franz'
p3929
I104
sS'echo~\xe2\x80\xa6'
p3930
I105
sS'afterward'
p3931
I105
sS'backwards'
p3932
I105
sS'yard'
p3933
I104
sS'midi'
p3934
I104
sS'snapchats'
p3935
I105
sS'deprived'
p3936
I105
sS'skateboard'
p3937
I105
sS'waitress'
p3938
I105
sS'unextinct'
p3939
I105
sS'sack'
p3940
I105
sS'whoop'
p3941
I105
sS'{enjoying'
p3942
I105
sS'braces'
p3943
I105
sS'pots'
p3944
I105
sS'b-side'
p3945
I105
sS'mondays'
p3946
I105
sS'flume'
p3947
I105
sS'gear'
p3948
I105
sS'nobody'
p3949
I104
sS'ratzlaff'
p3950
I105
sS'loved'
p3951
I101
sS'loves'
p3952
I105
sS'saudades'
p3953
I105
sS'2/15'
p3954
I105
sS'impala'
p3955
I105
sS'shuggie'
p3956
I105
sS'comfortable'
p3957
I105
sS'have'
p3958
I49
sS'apparently'
p3959
I103
sS'timelet'
p3960
I105
sS'sidecar'
p3961
I105
sS'congrats'
p3962
I104
sS'mic'
p3963
I105
sS'mix'
p3964
I101
sS'unless'
p3965
I105
sS"where's"
p3966
I103
sS'arghcollins'
p3967
I104
sS'phyllis'
p3968
I105
sS'park)'
p3969
I104
sS'kite'
p3970
I105
sS'text'
p3971
I105
sS'\xe2\x98\x80\xef\xb8\x8f\xe2\x98\xba\xef\xb8\x8f'
p3972
I105
sS'industrialist'
p3973
I105
sS'inspiring'
p3974
I105
sS'sparks'
p3975
I105
sS'guenveur'
p3976
I105
sS'loafers'
p3977
I103
sS'satan'
p3978
I104
sS'in-n-out2'
p3979
I105
sS'soulection'
p3980
I102
sS'regularly'
p3981
I105
sS'pull'
p3982
I103
sS'beat'
p3983
I100
sS'photography'
p3984
I104
sS'bear'
p3985
I99
sS"californian's"
p3986
I105
sS'beal'
p3987
I105
sS'bean'
p3988
I105
sS'occupant'
p3989
I105
sS'diplo'
p3990
I104
sS'subways'
p3991
I105
sS'hoodboi'
p3992
I105
sS'hanging\xe2\x80\x9d'
p3993
I105
sS'mercedes'
p3994
I105
sS"won't"
p3995
I103
sS'gibson'
p3996
I105
sS'baker-asiddao'
p3997
I105
sS'greece'
p3998
I105
sS'phaser'
p3999
I105
sS'attempting'
p4000
I105
sS'clearing'
p4001
I105
sS"takin'"
p4002
I105
sS'bruno'
p4003
I105
sS'playboys'
p4004
I105
sS'&wyatt'
p4005
I105
sS'junkies'
p4006
I105
sS'monarchy'
p4007
I104
sS'deliver'
p4008
I105
sS'realization'
p4009
I105
sS'2pm'
p4010
I104
sS'legit'
p4011
I105
sS'buster'
p4012
I105
sS'joke'
p4013
I103
sS'taking'
p4014
I100
sS'time\xe2\x80\xa6'
p4015
I105
sS'passing'
p4016
I105
sS'guy!\xe2\x80\xa6'
p4017
I104
sS'glorious'
p4018
I105
sS'portrait."'
p4019
I105
sS'statues'
p4020
I105
sS'denim'
p4021
I105
sS'laugh'
p4022
I105
sS'punchdrunklovesick321'
p4023
I105
sS"it's"
p4024
I49
sS'ska...what'
p4025
I105
sS"it'd"
p4026
I104
sS'gliss'
p4027
I105
sS'n\xe2\x80\xa6'
p4028
I105
sS'finished'
p4029
I105
sS'holiday'
p4030
I103
sS'welcoming'
p4031
I105
sS'appearance'
p4032
I105
sS'today...\xe2\x80\xa6'
p4033
I105
sS'value'
p4034
I105
sS'ysd'
p4035
I105
sS'almost'
p4036
I98
sS'walks'
p4037
I103
sS')'
p4038
I105
sS'shuttle'
p4039
I105
sS'whirr'
p4040
I104
sS'injured'
p4041
I105
sS'clique'
p4042
I105
sS'tambien'
p4043
I105
sS'sisters'
p4044
I105
sS'francisco'
p4045
I104
sS'center'
p4046
I97
sS'weapon'
p4047
I105
sS'thought'
p4048
I99
sS'oops'
p4049
I103
sS'wya'
p4050
I105
sS'interpol'
p4051
I105
sS'latest'
p4052
I105
sS'deltas'
p4053
I105
sS'stored'
p4054
I105
sS'demographic'
p4055
I105
sS'lake'
p4056
I28
sS'add'
p4057
I104
sS'progressforscience'
p4058
I105
sS'match'
p4059
I105
sS'royalty'
p4060
I105
sS'.but'
p4061
I105
sS'pizzzaaa'
p4062
I105
sS'sofi'
p4063
I105
sS'cafes)'
p4064
I105
sS'11pm'
p4065
I105
sS'discostan'
p4066
I105
sS'armani'
p4067
I105
sS'onra'
p4068
I105
sS'works'
p4069
I105
sS'soft'
p4070
I103
sS'holier'
p4071
I105
sS'ideals'
p4072
I105
sS'proper'
p4073
I105
sS'happens'
p4074
I105
sS'est'
p4075
I105
sS'garrett'
p4076
I105
sS'hurricane'
p4077
I105
sS'layin'
p4078
I105
sS'himself\xe2\x80\xa6'
p4079
I105
sS'pepper'
p4080
I104
sS'sasha'
p4081
I105
sS'although'
p4082
I104
sS'snapped'
p4083
I104
sS'artois'
p4084
I105
sS'rexarrow'
p4085
I105
sS':-('
p4086
I105
sS':-)'
p4087
I104
sS'boards'
p4088
I105
sS'flake'
p4089
I105
sS"me---it's"
p4090
I105
sS'unreleased'
p4091
I105
sS'socks'
p4092
I105
sS'chris'
p4093
I100
sS'1985'
p4094
I105
sS'legends'
p4095
I105
sS'biggest'
p4096
I104
sS'portl-and-ia'
p4097
I105
sS'buy'
p4098
I104
sS'chatting'
p4099
I105
sS'coke'
p4100
I105
sS'but'
p4101
I52
sS'reminds'
p4102
I104
sS'bum'
p4103
I105
sS'editing'
p4104
I105
sS'56%'
p4105
I105
sS'lynn'
p4106
I105
sS'wish'
p4107
I88
sS'j'
p4108
I102
sS'flip'
p4109
I105
sS'farrar'
p4110
I105
sS'supreme'
p4111
I103
sS'circus'
p4112
I104
sS'romney'
p4113
I104
sS'pig'
p4114
I105
sS'pix'
p4115
I105
sS'our'
p4116
I72
sS'shooting'
p4117
I103
sS'pit'
p4118
I105
sS"bay's"
p4119
I105
sS'souleyman'
p4120
I104
sS'dressed'
p4121
I103
sS'45'
p4122
I104
sS'40'
p4123
I104
sS'baaaaaad'
p4124
I105
sS'flys'
p4125
I104
sS'ledge'
p4126
I105
sS'dresser'
p4127
I105
sS'ubu'
p4128
I105
sS'\xe2\x80\xa2'
p4129
I104
sS'\xe2\x80\xa6'
p4130
I105
sS'jamthis'
p4131
I105
sS'christians'
p4132
I105
sS'goin'
p4133
I103
sS'philips'
p4134
I105
sS'\xe2\x80\x94'
p4135
I80
sS'oral'
p4136
I105
sS'bakes'
p4137
I105
sS'8th'
p4138
I105
sS"sean's"
p4139
I105
sS'sleep'
p4140
I98
sS'hate'
p4141
I103
sS'poorly'
p4142
I104
sS"(it's"
p4143
I105
sS'nigglezdaelf'
p4144
I105
sS'feeding'
p4145
I105
sS'paris'
p4146
I105
sS'tweet'
p4147
I101
sS'under'
p4148
I105
sS'pinchy&friends'
p4149
I105
sS'pride'
p4150
I105
sS'rise'
p4151
I104
sS'every'
p4152
I90
sS'jack'
p4153
I104
sS'school'
p4154
I101
sS'venue'
p4155
I103
sS'venus'
p4156
I105
sS'enjoy'
p4157
I103
sS'bicycle'
p4158
I105
sS'weddings'
p4159
I105
sS'feathers'
p4160
I105
sS'direct'
p4161
I105
sS'surrounding'
p4162
I105
sS'street'
p4163
I103
sS'shining'
p4164
I103
sS'blue'
p4165
I100
sS'dictionary'
p4166
I105
sS'beaten'
p4167
I105
sS'poison'
p4168
I105
sS'abides'
p4169
I105
sS"grandma's"
p4170
I105
sS'kicked'
p4171
I102
sS'zach'
p4172
I104
sS'hundreds'
p4173
I105
sS'smokin'
p4174
I104
sS'represented'
p4175
I105
sS'$140'
p4176
I105
sS'bloomed'
p4177
I105
sS'tv'
p4178
I101
sS"cassie's"
p4179
I105
sS'make-upless'
p4180
I105
sS'"shiny'
p4181
I105
sS'resurrected'
p4182
I105
sS'breath/'
p4183
I105
sS'punching'
p4184
I105
sS'would'
p4185
I82
sS'preview'
p4186
I103
sS'aielo'
p4187
I105
sS'breathe'
p4188
I105
sS'naive'
p4189
I105
sS'superrrrr'
p4190
I105
sS'phone'
p4191
I101
sS'thejacksontanner'
p4192
I105
sS'varsity'
p4193
I105
sS'four-year-old'
p4194
I105
sS'casualties'
p4195
I105
sS'must'
p4196
I103
sS'shoot'
p4197
I103
sS'join'
p4198
I104
sS'mo'
p4199
I105
sS'mi'
p4200
I105
sS'daft'
p4201
I105
sS'mr'
p4202
I104
sS'hobos'
p4203
I105
sS'betches'
p4204
I105
sS'my'
p4205
I14
sS'estate'
p4206
I105
sS'miracle_days'
p4207
I105
sS'paparazzi'
p4208
I105
sS'times'
p4209
I99
sS'attract'
p4210
I105
sS'guarantee'
p4211
I105
sS'iggy'
p4212
I100
sS'conversation'
p4213
I105
sS'drummer'
p4214
I102
sS'gate'
p4215
I105
sS'cyberspace'
p4216
I105
sS'it!"'
p4217
I105
sS'scion'
p4218
I105
sS'horoscope'
p4219
I105
sS'bound:)'
p4220
I105
sS'demanding'
p4221
I105
sS'mesh'
p4222
I105
sS'parallel'
p4223
I105
sS'harley'
p4224
I105
sS'ultimate'
p4225
I104
sS'enter'
p4226
I105
sS'over'
p4227
I91
sS'ima'
p4228
I104
sS'expectations'
p4229
I105
sS'writing'
p4230
I104
sS'destroyed'
p4231
I105
sS'ale)'
p4232
I104
sS'fade'
p4233
I105
sS'trippin'
p4234
I105
sS'gloom'
p4235
I105
sS'filling'
p4236
I105
sS'fitness'
p4237
I105
sS'signing'
p4238
I105
sS'diana'
p4239
I105
sS'waffle'
p4240
I105
sS'pompadours'
p4241
I105
sS'celebrating'
p4242
I103
sS'ghosts'
p4243
I105
sS'saturday'
p4244
I96
sS'driving'
p4245
I104
sS'2song'
p4246
I105
sS'god'
p4247
I97
sS'mujuice'
p4248
I105
sS'nite'
p4249
I104
sS'heavenly'
p4250
I104
sS'got'
p4251
I67
sS'newly'
p4252
I104
sS'merchandising'
p4253
I105
sS'free'
p4254
I90
sS'rain'
p4255
I103
sS'wanted'
p4256
I101
sS'turntables'
p4257
I105
sS'days'
p4258
I99
sS'outfits'
p4259
I105
sS'filter'
p4260
I105
sS'onto'
p4261
I104
sS'rang'
p4262
I105
sS'already'
p4263
I96
sS'pedal\xe2\x80\xa6'
p4264
I105
sS'hearing'
p4265
I104
sS'sober'
p4266
I105
sS'reggaerog'
p4267
I105
sS'toy'
p4268
I100
sS'top'
p4269
I100
sS'scenes/monologues'
p4270
I105
sS'too'
p4271
I70
sS'tom'
p4272
I99
sS'rockin'
p4273
I103
sS'curtains'
p4274
I105
sS'hangout'
p4275
I104
sS'took'
p4276
I100
sS'important\xef\xbc\x9f\xe3\x80\x8d'
p4277
I105
sS'western'
p4278
I105
sS'postcards'
p4279
I105
sS'"good'
p4280
I105
sS'"make'
p4281
I105
sS':+)'
p4282
I105
sS'thx'
p4283
I103
sS'1977'
p4284
I105
sS'classes'
p4285
I105
sS'paved'
p4286
I105
sS'bridge'
p4287
I104
sS'rad'
p4288
I102
sS'rab'
p4289
I105
sS'ran'
p4290
I104
sS'cayla'
p4291
I105
sS'talking'
p4292
I100
sS'rat'
p4293
I104
sS'rap'
p4294
I105
sS'seminar'
p4295
I105
sS'harper'
p4296
I105
sS'1965'
p4297
I105
sS'-'
p4298
I47
sS'rides'
p4299
I105
sS'though'
p4300
I96
sS'rumble'
p4301
I104
sS'smooches'
p4302
I105
sS'prostituta'
p4303
I105
sS'rogers'
p4304
I105
sS'metal'
p4305
I105
sS'freeway'
p4306
I103
sS'silencing'
p4307
I105
sS'inspire'
p4308
I105
sS'random'
p4309
I104
sS'sage'
p4310
I71
sS'colors'
p4311
I105
sS'radio'
p4312
I103
sS'earth'
p4313
I103
sS'traditions'
p4314
I105
sS'sunsets'
p4315
I104
sS"1960's"
p4316
I105
sS'minnesota'
p4317
I105
sS"lickin'"
p4318
I105
sS'spits'
p4319
I105
sS'photo'
p4320
I75
sS'tropic'
p4321
I103
sS'geez'
p4322
I104
sS'wallie'
p4323
I105
sS'watch'
p4324
I98
sS'shutting'
p4325
I104
sS'wedding'
p4326
I105
sS'sabrina'
p4327
I105
sS'1your'
p4328
I104
sS'(september'
p4329
I105
sS'public'
p4330
I104
sS'twice'
p4331
I105
sS'shots'
p4332
I101
sS'swept'
p4333
I105
sS'robby'
p4334
I105
sS'tommy'
p4335
I105
sS'hopefully'
p4336
I105
sS'approach'
p4337
I105
sS'confusion'
p4338
I105
sS'weak'
p4339
I105
sS'however'
p4340
I105
sS'boss'
p4341
I105
sS'wear'
p4342
I103
sS'news'
p4343
I104
sS'improve'
p4344
I105
sS'protect'
p4345
I105
sS'gawddaam'
p4346
I105
sS'fault'
p4347
I104
sS'"cheeeessssseee'
p4348
I105
sS'players'
p4349
I105
sS'games'
p4350
I105
sS'kitties'
p4351
I105
sS'faces'
p4352
I104
sS'betting'
p4353
I105
sS'2013you'
p4354
I104
sS'trust'
p4355
I104
sS'conference'
p4356
I105
sS'bathroom'
p4357
I104
sS'pedaling'
p4358
I105
sS'beef'
p4359
I105
sS'cockroaches'
p4360
I105
sS'been'
p4361
I81
sS'confident'
p4362
I105
sS'beer'
p4363
I70
sS'beet'
p4364
I105
sS'expected'
p4365
I104
sS'loft'
p4366
I105
sS'tokyo_gomi'
p4367
I105
sS'drugs'
p4368
I104
sS'craft'
p4369
I103
sS'catch'
p4370
I101
sS'n'
p4371
I98
sS'pt.2'
p4372
I105
sS'dept'
p4373
I105
sS'teachers'
p4374
I104
sS'-ay'
p4375
I105
sS'"i'
p4376
I104
sS'down\xe2\x80\xa6'
p4377
I105
sS'nike'
p4378
I105
sS'yung'
p4379
I104
sS'sings'
p4380
I105
sS'coachella'
p4381
I105
sS'characters'
p4382
I105
sS'stoney\xe2\x80\xa6'
p4383
I105
sS'cycle'
p4384
I105
sS"mother's"
p4385
I105
sS'charlie'
p4386
I105
sS'ocean'
p4387
I105
sS'greatest'
p4388
I105
sS'mother'
p4389
I103
sS'ephiney'
p4390
I105
sS'dads'
p4391
I105
sS'campbell'
p4392
I105
sS"aielo's"
p4393
I105
sS'hellerie'
p4394
I105
sS'laughing."'
p4395
I105
sS'elo'
p4396
I105
sS'cherry'
p4397
I105
sS'elf'
p4398
I105
sS'ely'
p4399
I105
sS'gave'
p4400
I104
sS'bands'
p4401
I100
sS'breaks'
p4402
I104
sS'judge'
p4403
I105
sS'apart'
p4404
I103
sS'gift'
p4405
I104
sS'not\xe2\x80\xa6'
p4406
I105
sS'50'
p4407
I105
sS'offices'
p4408
I103
sS'successfully'
p4409
I105
sS'jennifer'
p4410
I104
sS'escape'
p4411
I104
sS'contests'
p4412
I105
sS'cooper'
p4413
I105
sS'ice'
p4414
I104
sS'gymboree'
p4415
I105
sS'everything'
p4416
I101
sS'3:30'
p4417
I105
sS'christmas'
p4418
I103
sS'club)'
p4419
I104
sS'corn'
p4420
I101
sS'olsen'
p4421
I104
sS'campesinos'
p4422
I105
sS'hbogo'
p4423
I105
sS'cowboy'
p4424
I105
sS'dinner'
p4425
I94
sS'plus'
p4426
I104
sS'efforts'
p4427
I105
sS'curry'
p4428
I104
sS'facetime'
p4429
I105
sS'duke'
p4430
I105
sS'comtruise'
p4431
I105
sS'man\xe2\x80\xa6'
p4432
I105
sS'presence'
p4433
I104
sS'drunkstart'
p4434
I105
sS'ahh'
p4435
I104
sS'ppl'
p4436
I105
sS'donated'
p4437
I105
sS'transform'
p4438
I104
sS'dreamin'
p4439
I105
sS'gig'
p4440
I105
sS'stuck'
p4441
I104
sS'anderson'
p4442
I105
sS'head'
p4443
I95
sS'heal'
p4444
I105
sS'6'
p4445
I100
sS'kindkreme(not'
p4446
I105
sS'heat'
p4447
I105
sS'hear'
p4448
I98
sS'adore'
p4449
I105
sS'attn'
p4450
I105
sS'sometime'
p4451
I105
sS'annoying'
p4452
I105
sS'check'
p4453
I101
sS'waldorf'
p4454
I105
sS'tix'
p4455
I103
sS'no'
p4456
I67
sS'tit'
p4457
I105
sS'na'
p4458
I105
sS'mashup'
p4459
I102
sS'when'
p4460
I64
sS'til'
p4461
I105
sS'ny'
p4462
I104
sS'setting'
p4463
I104
sS'papers'
p4464
I105
sS'picture'
p4465
I97
sS'football'
p4466
I105
sS'dark)'
p4467
I105
sS'letterssssss'
p4468
I105
sS'jail\xe2\x80\xa6'
p4469
I105
sS'longer'
p4470
I104
sS'yacht'
p4471
I105
sS'ryder'
p4472
I105
sS'serious'
p4473
I105
sS'neighbors'
p4474
I105
sS'remarkable'
p4475
I105
sS'focus'
p4476
I105
sS"see'n"
p4477
I105
sS'row'
p4478
I104
sS'santee'
p4479
I105
sS'keyboardist'
p4480
I105
sS':(((('
p4481
I105
sS'tanks'
p4482
I105
sS'cook'
p4483
I103
sS'cool'
p4484
I94
sS'tortillas'
p4485
I105
sS'clouds'
p4486
I105
sS'impressive'
p4487
I105
sS'level'
p4488
I105
sS'peeps'
p4489
I105
sS'hawaii'
p4490
I105
sS'cloudy'
p4491
I105
sS'standards'
p4492
I105
sS'thelionsreggae'
p4493
I105
sS'quick'
p4494
I104
sS'farren'
p4495
I105
sS'says'
p4496
I100
sS'porn'
p4497
I105
sS'drinks'
p4498
I105
sS'goes'
p4499
I103
sS'goer'
p4500
I104
sS'angelina'
p4501
I105
sS'(m|o|d)'
p4502
I104
sS'slaying'
p4503
I104
sS'learn'
p4504
I102
sS'angelino'
p4505
I105
sS'water'
p4506
I101
sS'witch'
p4507
I104
sS'boogaloo'
p4508
I105
sS'confused'
p4509
I103
sS'healthy'
p4510
I103
sS'guilty'
p4511
I105
sS'weird'
p4512
I103
sS'rafael'
p4513
I103
sS'1st'
p4514
I104
sS'"my'
p4515
I105
sS'(with'
p4516
I101
sS'sarah\xe2\x80\x9d'
p4517
I105
sS'vivid'
p4518
I105
sS'covergirl'
p4519
I105
sS'sports'
p4520
I105
sS'iphone'
p4521
I104
sS'memory'
p4522
I105
sS'today'
p4523
I65
sS'chapels'
p4524
I105
sS'sessions'
p4525
I105
sS'combo'
p4526
I105
sS'cashier'
p4527
I105
sS'chocolate'
p4528
I104
sS'beers'
p4529
I105
sS'socal'
p4530
I105
sS'dialed'
p4531
I105
sS'dialer'
p4532
I105
sS"seatonsmith's"
p4533
I105
sS'overpass'
p4534
I105
sS'pleeaaaasse"'
p4535
I105
sS'dropped'
p4536
I101
sS'requirements'
p4537
I105
sS'1'
p4538
I67
sS'unbelievable'
p4539
I105
sS'teleport'
p4540
I105
sS'digesting'
p4541
I105
sS'grooving'
p4542
I100
sS'stil'
p4543
I105
sS'crashed'
p4544
I104
sS'levi'
p4545
I104
sS'birthday'
p4546
I77
sS'renovation'
p4547
I105
sS'sept'
p4548
I105
sS'smellin'
p4549
I105
sS'representation'
p4550
I105
sS'scoop\xe2\x80\xa6'
p4551
I105
sS'bakery\xe2\x80\xa6'
p4552
I105
sS'midnight'
p4553
I104
sS'roses!\xe2\x80\xa6'
p4554
I105
sS'ducklings'
p4555
I105
sS'worship'
p4556
I104
sS'blocked'
p4557
I105
sS'gta'
p4558
I105
sS'maps'
p4559
I105
sS'leggo'
p4560
I105
sS'happened'
p4561
I104
sS'lonely'
p4562
I102
sS"'special"
p4563
I105
sS'underneath'
p4564
I104
sS'hamilton'
p4565
I105
sS'26.2'
p4566
I105
sS'name'
p4567
I96
sS'corners'
p4568
I104
sS'possibilities'
p4569
I105
sS'viggo'
p4570
I105
sS'muchas'
p4571
I105
sS"parent's"
p4572
I105
sS'wahooooo'
p4573
I104
sS'catching'
p4574
I103
sS'farewell'
p4575
I105
sS'begun'
p4576
I104
sS'suzanne'
p4577
I105
sS'concur'
p4578
I105
sS'tho!....but'
p4579
I105
sS'tulips'
p4580
I103
sS'stomach-in'
p4581
I105
sS'factory'
p4582
I105
sS'deradoorian'
p4583
I105
sS'beer...good'
p4584
I105
sS'eagle'
p4585
I105
sS'burps'
p4586
I105
sS'hulk'
p4587
I105
sS'glendale'
p4588
I100
sS'flyer'
p4589
I103
sS'wearing."'
p4590
I105
sS'yup'
p4591
I104
sS'burgerama'
p4592
I105
sS'turn'
p4593
I98
sS"lucie's"
p4594
I105
sS'place'
p4595
I89
sS'swing'
p4596
I105
sS'view'
p4597
I101
sS'childhood'
p4598
I105
sS'sanchez'
p4599
I105
sS'predictive'
p4600
I105
sS'budweiser'
p4601
I105
sS'backyard'
p4602
I105
sS"event!it's"
p4603
I105
sS'george'
p4604
I105
sS'given'
p4605
I105
sS'necessarily'
p4606
I105
sS'plastic'
p4607
I104
sS'returns'
p4608
I105
sS'chastity'
p4609
I105
sS'white'
p4610
I92
sS'neistat'
p4611
I105
sS'exploring'
p4612
I105
sS'o-clock'
p4613
I105
sS'huh'
p4614
I104
sS'japanese/jamaican'
p4615
I105
sS'cops'
p4616
I105
sS'alas'
p4617
I105
sS'wide'
p4618
I105
sS'nathan'
p4619
I105
sS'lmao'
p4620
I101
sS'ice\xe2\x80\xa6'
p4621
I105
sS'r'
p4622
I95
sS'schooled'
p4623
I105
sS'pre'
p4624
I104
sS'ana'
p4625
I105
sS'froth'
p4626
I105
sS'brudda'
p4627
I105
sS'pro'
p4628
I104
sS'missjen1luv'
p4629
I105
sS'mates'
p4630
I105
sS'j/k'
p4631
I105
sS'any'
p4632
I90
sS'marathon'
p4633
I105
sS'fighter-a'
p4634
I105
sS"farmer's"
p4635
I105
sS'dining'
p4636
I104
sS'arclight'
p4637
I105
sS'lock-up'
p4638
I105
sS'blunt'
p4639
I105
sS'sure'
p4640
I97
sS'multiple'
p4641
I105
sS'fun\xe2\x9a\xa1\xef\xb8\x8f//'
p4642
I105
sS'donation'
p4643
I105
sS'iheartcomix'
p4644
I104
sS'saunter'
p4645
I105
sS'seafood'
p4646
I105
sS'proud'
p4647
I104
sS'hands"'
p4648
I104
sS'uncle'
p4649
I105
sS'senior'
p4650
I105
sS'shrieking'
p4651
I105
sS'tron'
p4652
I105
sS'cheat'
p4653
I104
sS'cheap'
p4654
I102
sS'convos'
p4655
I105
sS'tauniaf'
p4656
I105
sS'woot'
p4657
I104
sS'time?how'
p4658
I105
sS'to\xe2\x80\xa6'
p4659
I103
sS'wood'
p4660
I105
sS'believing'
p4661
I103
sS'strangeheart'
p4662
I105
sS'narrows'
p4663
I105
sS'jazz'
p4664
I105
sS'lighter'
p4665
I105
sS'"stutter"'
p4666
I105
sS'freaking'
p4667
I103
sS'nakey'
p4668
I105
sS'naked'
p4669
I102
sS":')"
p4670
I105
sS'todaythursday'
p4671
I105
sS'bought'
p4672
I103
sS'discussing'
p4673
I105
sS"y'all"
p4674
I104
sS'picnic'
p4675
I105
sS'encourages'
p4676
I105
sS'connections'
p4677
I105
sS'college'
p4678
I103
sS'parking'
p4679
I105
sS"cat's"
p4680
I105
sS'fails'
p4681
I105
sS'crooked'
p4682
I105
sS'opening'
p4683
I94
sS'cafe)'
p4684
I98
sS'outside'
p4685
I102
sS'saucy'
p4686
I105
sS'bassists'
p4687
I105
sS'shooooot'
p4688
I105
sS'guitar'
p4689
I102
sS'cities'
p4690
I104
sS'come'
p4691
I72
sS'byes'
p4692
I105
sS'missions'
p4693
I104
sS'cafes'
p4694
I105
sS'quiet'
p4695
I105
sS'contract'
p4696
I104
sS'duty'
p4697
I104
sS'merry'
p4698
I105
sS'color'
p4699
I104
sS'pow'
p4700
I105
sS'pop'
p4701
I105
sS'pabst'
p4702
I105
sS'pole'
p4703
I105
sS'65'
p4704
I105
sS'reworded'
p4705
I105
sS'nicole'
p4706
I104
sS'turkey'
p4707
I105
sS'lifer'
p4708
I105
sS'howard'
p4709
I105
sS'life~'
p4710
I105
sS'treat...grand'
p4711
I104
sS'elijo)'
p4712
I105
sS'peaking'
p4713
I105
sS'andres'
p4714
I105
sS'designed'
p4715
I105
sS'saison'
p4716
I105
sS'andrea'
p4717
I105
sS'grandslam)'
p4718
I105
sS'spirit'
p4719
I104
sS'case'
p4720
I105
sS'myself'
p4721
I98
sS'casa'
p4722
I105
sS'mount'
p4723
I105
sS'cast'
p4724
I105
sS'shops'
p4725
I105
sS'telephone'
p4726
I105
sS'couples'
p4727
I105
sS'someone'
p4728
I88
sS'ironic'
p4729
I105
sS'10:30'
p4730
I105
sS'bowl'
p4731
I100
sS'trip'
p4732
I102
sS'macaroni'
p4733
I105
sS'catfish'
p4734
I105
sS'reminder'
p4735
I105
sS'week'
p4736
I94
sS'barefoot'
p4737
I105
sS'(august'
p4738
I104
sS'driver'
p4739
I104
sS'drives'
p4740
I105
sS'mutha'
p4741
I105
sS'weed'
p4742
I105
sS'producers'
p4743
I105
sS'puke'
p4744
I105
sS'atkins'
p4745
I105
sS'without'
p4746
I100
sS'panam'
p4747
I105
sS'sinner'
p4748
I105
sS'tip'
p4749
I104
sS'kinglic23'
p4750
I105
sS'kill'
p4751
I103
sS'captured'
p4752
I103
sS'socialite'
p4753
I105
sS'feminist'
p4754
I102
sS'rose'
p4755
I105
sS"everyone's"
p4756
I105
sS'seems'
p4757
I105
sS'except'
p4758
I102
sS'blog'
p4759
I104
sS'lets'
p4760
I105
sS'it...the'
p4761
I105
sS'feminism'
p4762
I105
sS'kingdom'
p4763
I105
sS'kills'
p4764
I104
sS'virginia'
p4765
I105
sS'killa'
p4766
I104
sS'patrick'
p4767
I104
sS'2s'
p4768
I105
sS'bracelet'
p4769
I105
sS'donations'
p4770
I105
sS'joking'
p4771
I105
sS'competition'
p4772
I105
sS'slice'
p4773
I105
sS'mood'
p4774
I104
sS"o'"
p4775
I105
sS'slick'
p4776
I105
sS'stops'
p4777
I104
sS'moon'
p4778
I102
sS'hipster'
p4779
I102
sS'terrifies'
p4780
I105
sS'lmfao'
p4781
I104
sS'nails'
p4782
I105
sS'falkner'
p4783
I104
sS'skrillex'
p4784
I103
sS'on'
p4785
I21
sS'gloriouswondour'
p4786
I105
sS'ok'
p4787
I103
sS'oh'
p4788
I81
sS'jeep'
p4789
I105
sS'of'
p4790
I13
sS'stand'
p4791
I104
sS'baffles'
p4792
I105
sS'or'
p4793
I79
sS'op'
p4794
I105
sS'tribe'
p4795
I103
sS'ladies'
p4796
I100
sS'communication'
p4797
I105
sS'rising'
p4798
I102
sS'harrell'
p4799
I105
sS'mental'
p4800
I105
sS'buds'
p4801
I105
sS're-hash'
p4802
I105
sS'crunk'
p4803
I105
sS'there'
p4804
I86
sS'valley'
p4805
I103
sS'fish'
p4806
I101
sS'hard'
p4807
I98
sS'amongst'
p4808
I105
sS'idea'
p4809
I105
sS'jus'
p4810
I105
sS'"what\'s'
p4811
I105
sS'faster'
p4812
I105
sS'anchovies'
p4813
I105
sS'grasp'
p4814
I105
sS'grass'
p4815
I105
sS'usted'
p4816
I105
sS'djing'
p4817
I104
sS'cinema'
p4818
I104
sS'feliz'
p4819
I105
sS'will\xe2\x80\xa6'
p4820
I105
sS'politics'
p4821
I105
sS'oralgasmic'
p4822
I105
sS'bishop'
p4823
I105
sS'hit'
p4824
I98
sS'idiot'
p4825
I105
sS'deserve'
p4826
I103
sS'roses'
p4827
I104
sS'5'
p4828
I91
sS'ides'
p4829
I105
sS'championship'
p4830
I105
sS'collaborative'
p4831
I105
sS'finale'
p4832
I105
sS'perry'
p4833
I104
sS'missed'
p4834
I103
sS'assassins'
p4835
I105
sS'calls'
p4836
I105
sS'wife'
p4837
I103
sS'invest'
p4838
I105
sS'odds'
p4839
I105
sS'veamos'
p4840
I105
sS'all'
p4841
I32
sS'(uk)'
p4842
I105
sS'lack'
p4843
I105
sS'fuego'
p4844
I105
sS'dish'
p4845
I101
sS'follow'
p4846
I93
sS'lagirlfriend'
p4847
I105
sS'als'
p4848
I105
sS'jerome'
p4849
I104
sS'hmmm'
p4850
I105
sS'apartment'
p4851
I105
sS'lining'
p4852
I105
sS'opportunities'
p4853
I105
sS'aaron'
p4854
I104
sS'activities'
p4855
I105
sS'woman'
p4856
I101
sS'worse'
p4857
I104
sS'song'
p4858
I98
sS'far'
p4859
I104
sS'hopped\xe2\x80\xa6'
p4860
I105
sS'grindr'
p4861
I105
sS'fav'
p4862
I105
sS'fat'
p4863
I103
sS'print'
p4864
I105
sS'worst'
p4865
I102
sS'fam'
p4866
I104
sS'fab'
p4867
I105
sS'fac'
p4868
I105
sS'dapper'
p4869
I105
sS'vibed'
p4870
I105
sS'list'
p4871
I101
sS'vibes'
p4872
I105
sS'salute'
p4873
I105
sS'vs.\xe2\x80\xa6'
p4874
I105
sS'flick'
p4875
I105
sS'ten'
p4876
I103
sS'tea'
p4877
I102
sS'bergmann'
p4878
I105
sS'invention'
p4879
I105
sS'brodus_1'
p4880
I105
sS'plex'
p4881
I100
sS'gunn'
p4882
I103
sS'what'
p4883
I49
sS'sun'
p4884
I102
sS'sum'
p4885
I104
sS'lawrence'
p4886
I104
sS'anniversary'
p4887
I102
sS'crush'
p4888
I101
sS'version'
p4889
I104
sS'sus'
p4890
I105
sS'frightens'
p4891
I105
sS'guns'
p4892
I102
sS'hungover'
p4893
I104
sS'dirrty'
p4894
I105
sS'shoulda'
p4895
I105
sS'thrift'
p4896
I104
sS'eudaemonia'
p4897
I105
sS'flask'
p4898
I105
sS'(russia)'
p4899
I105
sS'place?wrong'
p4900
I105
sS'straitjackets'
p4901
I105
sS'protrait'
p4902
I105
sS'commandments'
p4903
I105
sS'texts'
p4904
I105
sS'(1822'
p4905
I98
sS'"bootie"'
p4906
I105
sS'knows'
p4907
I101
sS'bumped'
p4908
I104
sS'mira'
p4909
I105
sS'brothas'
p4910
I105
sS'floyd'
p4911
I105
sS'stick'
p4912
I104
sS'mellow'
p4913
I104
sS'flan'
p4914
I105
sS'biram'
p4915
I105
sS'glad'
p4916
I102
sS'azaleaaaa'
p4917
I105
sS'tough"'
p4918
I105
sS'shit"'
p4919
I105
sS'omggggggg'
p4920
I105
sS'v'
p4921
I104
sS'dirtysnapshots'
p4922
I105
sS'pony'
p4923
I105
sS'brown'
p4924
I100
sS'cachorra'
p4925
I105
sS'who\xe2\x80\xa6'
p4926
I105
sS'buenos'
p4927
I104
sS'goat'
p4928
I105
sS'sandwich'
p4929
I103
sS'okay'
p4930
I105
sS'gocitizens'
p4931
I105
sS'7/20/14'
p4932
I105
sS'7/20/13'
p4933
I105
sS'echoplex\xe2\x80\xa6'
p4934
I100
sS'catalog'
p4935
I105
sS'short'
p4936
I105
sS'bizness'
p4937
I105
sS'cancer-free'
p4938
I105
sS'stash'
p4939
I105
sS"rafa's"
p4940
I103
sS'grande'
p4941
I104
sS"don't"
p4942
I56
sS'september'
p4943
I105
sS'brotha'
p4944
I105
sS'mission'
p4945
I105
sS'manilla'
p4946
I105
sS'logan'
p4947
I104
sS'style'
p4948
I103
sS'_astronautica'
p4949
I105
sS'nice\xe2\x80\x9d'
p4950
I105
sS'strange'
p4951
I104
sS'=7%sam'
p4952
I105
sS'stephen'
p4953
I105
sS'might'
p4954
I105
sS'return'
p4955
I105
sS'clippers'
p4956
I104
sS'inch'
p4957
I105
sS'milestone'
p4958
I105
sS'ohhhhhohhhhhh'
p4959
I105
sS'12th'
p4960
I104
sS'shigeto'
p4961
I105
sS'weight'
p4962
I105
sS'generation'
p4963
I105
sS'\xe2\x9c\xa8\xe2\x9c\xa8\xe2\x9c\xa8'
p4964
I105
sS'brother'
p4965
I101
sS'turnt'
p4966
I104
sS"nature's"
p4967
I105
sS'lola'
p4968
I105
sS'dubclubla'
p4969
I105
sS'paradiso'
p4970
I105
sS'friday'
p4971
I100
sS'randall'
p4972
I105
sS'cookin'
p4973
I105
sS'infantree'
p4974
I105
sS'18+'
p4975
I105
sS'feel'
p4976
I89
sS'fancy'
p4977
I105
sS'ymusic'
p4978
I105
sS'least'
p4979
I98
sS'soaps'
p4980
I105
sS'downnnn'
p4981
I105
sS'story'
p4982
I102
sS'script'
p4983
I105
sS'interviews'
p4984
I105
sS'tougher'
p4985
I105
sS'passed'
p4986
I105
sS'store'
p4987
I103
sS'gps'
p4988
I105
sS'$$'
p4989
I105
sS'convinces'
p4990
I105
sS'k.flay'
p4991
I105
sS'luckily'
p4992
I104
sS'$4'
p4993
I103
sS'$5'
p4994
I105
sS'$2'
p4995
I105
sS'$3'
p4996
I104
sS'reliever'
p4997
I105
sS'$1'
p4998
I105
sS'king'
p4999
I103
sS'kind'
p5000
I97
sS'double'
p5001
I100
sS'zachary'
p5002
I105
sS'outdoors'
p5003
I105
sS'risky'
p5004
I105
sS'storytelling'
p5005
I104
sS'gals'
p5006
I105
sS'wolfpup'
p5007
I105
sS'djemba'
p5008
I102
sS'woodelijah'
p5009
I105
sS'wilson'
p5010
I104
sS'nights'
p5011
I97
sS'efi'
p5012
I103
sS'finding'
p5013
I104
sS'banjo'
p5014
I105
sS'eff'
p5015
I105
sS'unremarkable'
p5016
I105
sS'added'
p5017
I105
sS'7"'
p5018
I103
sS'reach'
p5019
I105
sS'reunited'
p5020
I104
sS'nothing'
p5021
I96
sS'lying'
p5022
I105
sS'stones'
p5023
I105
sS'sleepovers'
p5024
I105
sS'grandmas'
p5025
I104
sS'sspu'
p5026
I105
sS'bff'
p5027
I105
sS'off!\xe2\x80\xa6'
p5028
I105
sS'blynn'
p5029
I105
sS'his'
p5030
I82
sS'writegirls'
p5031
I105
sS'jenanahata'
p5032
I105
sS'fastest'
p5033
I105
sS'him'
p5034
I94
sS'typos'
p5035
I105
sS'wrote'
p5036
I105
sS'bars'
p5037
I104
sS'woman-and'
p5038
I105
sS'art'
p5039
I99
sS'dump'
p5040
I105
sS'tarps'
p5041
I105
sS'dumb'
p5042
I104
sS'are'
p5043
I36
sS'arg'
p5044
I105
sS'2.0'
p5045
I105
sS'arm'
p5046
I105
sS'2.5'
p5047
I104
sS'afters'
p5048
I105
sS'recording'
p5049
I104
sS'nailed'
p5050
I105
sS'azalea'
p5051
I104
sS'(sunset)'
p5052
I105
sS'solo'
p5053
I103
sS'know\xe2\x80\x9d'
p5054
I105
sS'recently'
p5055
I105
sS'sold'
p5056
I95
sS'sole'
p5057
I95
sS'outfit'
p5058
I105
sS'relying'
p5059
I105
sS'c'
p5060
I102
sS'license'
p5061
I104
sS'sweet'
p5062
I100
sS'dudes'
p5063
I99
sS'every_pizza'
p5064
I105
sS"rockin'"
p5065
I100
sS'redbulllavida'
p5066
I103
sS'dum'
p5067
I102
sS'dub'
p5068
I86
sS'political'
p5069
I105
sS'due'
p5070
I102
sS'dug'
p5071
I105
sS"funkin'"
p5072
I105
sS'pa'
p5073
I105
sS'make-up'
p5074
I105
sS'deathrays'
p5075
I105
sS'whoa'
p5076
I101
sS'woke'
p5077
I105
sS'dip/bowl'
p5078
I105
sS'...second'
p5079
I105
sS'togo'
p5080
I105
sS'passin..in'
p5081
I105
sS'rocking'
p5082
I103
sS'plants'
p5083
I105
sS'tweaking'
p5084
I105
sS'kick'
p5085
I103
sS'ohmygod'
p5086
I103
sS'thoes'
p5087
I105
sS'rip'
p5088
I102
sS'rid'
p5089
I105
sS'ric'
p5090
I105
sS'santos'
p5091
I105
sS'\xe2\x99\xa1\xe2\x99\xa1\xe2\x99\xa1'
p5092
I104
sS'downs!work'
p5093
I105
sS'9'
p5094
I99
sS'spears'
p5095
I105
sS'higher'
p5096
I105
sS'kreyshawn'
p5097
I105
sS'"ice'
p5098
I105
sS'holidays'
p5099
I105
sS'arrived'
p5100
I105
sS'aggro'
p5101
I105
sS'anybody'
p5102
I105
sS'cheer'
p5103
I102
sS'abilities'
p5104
I104
sS'prettay'
p5105
I105
sS'///'
p5106
I105
sS'reincarnated'
p5107
I105
sS'prince'
p5108
I105
sS'tables'
p5109
I105
sS'observant'
p5110
I105
sS'yeeeesssss'
p5111
I105
sS'exhibition'
p5112
I105
sS'me\xe2\x80\xa6'
p5113
I104
sS'sightings'
p5114
I105
sS'spittin'
p5115
I105
sS'mariah'
p5116
I104
sS'hahha'
p5117
I105
sS'videoshoot'
p5118
I105
sS'fucking'
p5119
I88
sS'nuggie'
p5120
I105
sS'pros'
p5121
I105
sS'prom'
p5122
I104
sS'yoooo'
p5123
I105
sS"gordon's"
p5124
I105
sS"fuckin'"
p5125
I105
sS'bartender'
p5126
I103
sS'lose'
p5127
I104
sS's/o'
p5128
I105
sS'savoir'
p5129
I105
sS'refuses'
p5130
I105
sS"turn't"
p5131
I105
sS'russell'
p5132
I105
sS'violins'
p5133
I105
sS'wanna'
p5134
I98
sS'mommy'
p5135
I105
sS'momma'
p5136
I104
sS'nigga'
p5137
I100
sS'impressed'
p5138
I104
sS'sonny'
p5139
I103
sS'jameson'
p5140
I104
sS'question'
p5141
I105
sS'ca)'
p5142
I30
sS'fast'
p5143
I105
sS'prettier'
p5144
I105
sS'melodic'
p5145
I105
sS'santeria'
p5146
I105
sS'familia'
p5147
I104
sS'delta'
p5148
I105
sS'drinkers'
p5149
I105
sS'aug.18'
p5150
I105
sS'fries'
p5151
I105
sS'fick'
p5152
I105
sS'fried'
p5153
I105
sS'called'
p5154
I99
sS'worthwhile'
p5155
I105
sS'huron'
p5156
I104
sS'graham'
p5157
I105
sS'disappoints'
p5158
I105
sS'peach'
p5159
I104
sS'peace'
p5160
I103
sS'backs'
p5161
I105
sS'nick'
p5162
I105
sS'thank\xe2\x80\xa6'
p5163
I104
sS'nice'
p5164
I91
sS'noche'
p5165
I105
sS'mustard'
p5166
I105
sS'understatement'
p5167
I105
sS'posters'
p5168
I105
sS'sprints'
p5169
I105
sS'rightful'
p5170
I105
sS'remix'
p5171
I103
sS'happier'
p5172
I104
sS'cadillacs'
p5173
I105
sS'buffalo'
p5174
I105
sS'once'
p5175
I102
sS'edc'
p5176
I105
sS'bosstones'
p5177
I105
sS'thomas'
p5178
I105
sS'alien'
p5179
I105
sS'eds'
p5180
I105
sS'gang'
p5181
I104
sS'lolipop'
p5182
I102
sS'bistro)'
p5183
I103
sS'breathing'
p5184
I105
sS'srotv'
p5185
I105
sS'wishes'
p5186
I105
sS'drinking'
p5187
I87
sS"week's"
p5188
I105
sS'politicking'
p5189
I105
sS"you'd"
p5190
I105
sS'sundaze'
p5191
I105
sS'keyboardists'
p5192
I105
sS'traveling'
p5193
I105
sS'reunion'
p5194
I103
sS'acid'
p5195
I105
sS'showcase'
p5196
I104
sS'19th'
p5197
I105
sS'gluten-free'
p5198
I104
sS'explore'
p5199
I104
sS'sexy'
p5200
I104
sS'tinytom22'
p5201
I104
sS'metro'
p5202
I105
sS'cleopatra'
p5203
I105
sS'shades'
p5204
I105
sS'leaving'
p5205
I104
sS"dad's"
p5206
I105
sS'pajama'
p5207
I105
sS'reds'
p5208
I105
sS'spy'
p5209
I105
sS'app'
p5210
I104
sS'hardy'
p5211
I105
sS'nantucket'
p5212
I105
sS'duck'
p5213
I103
sS'use'
p5214
I101
sS'hahahahaha'
p5215
I104
sS'feb'
p5216
I105
sS'hippie'
p5217
I104
sS'iced'
p5218
I105
sS'daddy-o'
p5219
I104
sS'few'
p5220
I98
sS'beauty/worth/femininity'
p5221
I105
sS'(portugal'
p5222
I105
sS'porch'
p5223
I102
sS'musician'
p5224
I105
sS'women'
p5225
I100
sS'7pm'
p5226
I104
sS'us)'
p5227
I105
sS'aight'
p5228
I105
sS'distractions'
p5229
I105
sS'tap'
p5230
I105
sS'thirsty'
p5231
I105
sS'strongsportsgym'
p5232
I105
sS'tax'
p5233
I105
sS'tag'
p5234
I105
sS'something'
p5235
I103
sS'jeebus'
p5236
I105
sS'tan'
p5237
I105
sS'sir'
p5238
I101
sS'united'
p5239
I105
sS'sit'
p5240
I103
sS'six'
p5241
I105
sS'brian'
p5242
I104
sS'labruja_alabie'
p5243
I104
sS'ruffians'
p5244
I105
sS'instead'
p5245
I103
sS'panic'
p5246
I104
sS'wrist'
p5247
I104
sS'taco'
p5248
I104
sS'niggggga'
p5249
I105
sS'light'
p5250
I103
sS'honestly'
p5251
I103
sS'improvised'
p5252
I105
sS'crawling'
p5253
I105
sS'ainda'
p5254
I105
sS'jolie'
p5255
I105
sS'(australia)'
p5256
I105
sS'baddie'
p5257
I105
sS'mojito'
p5258
I105
sS'looks'
p5259
I99
sS'what\xe2\x80\xa6'
p5260
I105
sS'tyler'
p5261
I105
sS'choose'
p5262
I105
sS'orange'
p5263
I104
sS'linings'
p5264
I105
sS'bye'
p5265
I99
sS'thing_onee'
p5266
I105
sS'practice'
p5267
I104
sS'flew'
p5268
I104
sS'ferguson'
p5269
I105
sS'salads)'
p5270
I104
sS"night's"
p5271
I104
sS'nfl'
p5272
I105
sS'j.rocc'
p5273
I105
sS'dogmatic'
p5274
I105
sS'pieces!!\xe2\x80\xa6'
p5275
I105
sS'83'
p5276
I105
sS'80'
p5277
I104
sS'couldnt'
p5278
I105
sS'out'
p5279
I32
sS'ashofficial'
p5280
I103
sS'&\xe2\x80\xa6'
p5281
I105
sS'thrifty'
p5282
I105
sS'misstfair'
p5283
I105
sS'fun'
p5284
I89
sS'outkast'
p5285
I105
sS'ipod'
p5286
I105
sS'molly'
p5287
I104
sS'york'
p5288
I103
sS'hunny'
p5289
I105
sS'organic'
p5290
I77
sS'g'
p5291
I104
sS'illicit'
p5292
I105
sS'4th'
p5293
I105
sS'adrian'
p5294
I105
sS'segall'
p5295
I102
sS'throating'
p5296
I105
sS'echo'
p5297
I3
sS'steamy'
p5298
I105
sS'effervescent'
p5299
I105
sS'noticed'
p5300
I105
sS"doesn't"
p5301
I99
sS'accent'
p5302
I104
sS'their'
p5303
I83
sS'airplants'
p5304
I105
sS'boil'
p5305
I105
sS'celibate'
p5306
I105
sS'reflecting'
p5307
I105
sS'deniro'
p5308
I105
sS'july'
p5309
I102
sS'goblin'
p5310
I105
sS'holland'
p5311
I105
sS'boring'
p5312
I104
sS'suffragan'
p5313
I105
sS'lucius'
p5314
I104
sS'(not)'
p5315
I105
sS'violets'
p5316
I102
sS'hardknocks'
p5317
I105
sS'faux'
p5318
I105
sS'20s'
p5319
I105
sS'unbearable'
p5320
I105
sS'bagel'
p5321
I105
sS'which'
p5322
I103
sS'='
p5323
I98
sS'feelsso'
p5324
I105
sS'who'
p5325
I79
sS'"battlefield"'
p5326
I105
sS'why'
p5327
I86
sS'deeng'
p5328
I105
sS'madurandos'
p5329
I105
sS'refreshing'
p5330
I105
sS'mascis'
p5331
I105
sS'looked'
p5332
I105
sS'hi'
p5333
I93
sS'iamsu'
p5334
I105
sS'playbook'
p5335
I105
sS'chicken'
p5336
I104
sS'darkest'
p5337
I105
sS'feat'
p5338
I105
sS'pleased'
p5339
I105
sS'craziness'
p5340
I105
sS'lemme'
p5341
I105
sS'noonan/mcgill'
p5342
I105
sS'local'
p5343
I102
sS'agree-'
p5344
I105
sS'workin'
p5345
I105
sS'watching'
p5346
I89
sS'silas'
p5347
I105
sS'dope'
p5348
I105
sS'awww'
p5349
I105
sS'ones'
p5350
I102
sS'words'
p5351
I104
sS'ghetto'
p5352
I105
sS'qr'
p5353
I105
sS'ended'
p5354
I105
sS'married'
p5355
I102
sS'ripley'
p5356
I105
sS'15th'
p5357
I105
sS'generations'
p5358
I105
sS'"dreaming"'
p5359
I105
sS'available'
p5360
I104
sS'buzzed'
p5361
I105
sS'closer'
p5362
I104
sS'closet'
p5363
I105
sS'meatballs'
p5364
I105
sS'closed'
p5365
I105
sS'rendition'
p5366
I105
sS'pants'
p5367
I104
sS'amen'
p5368
I105
sS'joy'
p5369
I99
sS'moshpit'
p5370
I105
sS'job'
p5371
I99
sS'joe'
p5372
I105
sS'jog'
p5373
I104
sS'hobo'
p5374
I105
sS'titties'
p5375
I105
sS'bhirsh'
p5376
I105
sS"he's"
p5377
I100
sS'april'
p5378
I105
sS'rodney'
p5379
I105
sS'wall'
p5380
I105
sS'antioxidant'
p5381
I105
sS'walk'
p5382
I91
sS'table'
p5383
I105
sS'decent'
p5384
I104
sS'forget\xe2\x80\xa6'
p5385
I105
sS'bbq'
p5386
I104
sS'butchers'
p5387
I105
sS'atlases'
p5388
I105
sS'pageants'
p5389
I104
sS'vanilla'
p5390
I105
sS'restaurant'
p5391
I100
sS'choices'
p5392
I105
sS'will'
p5393
I72
sS'stunning'
p5394
I105
sS'wild'
p5395
I100
sS'~'
p5396
I102
sS'layer'
p5397
I105
sS'ringing'
p5398
I105
sS'lakeside'
p5399
I105
sS'\xe3\x80\x8cbetween'
p5400
I105
sS'gothic'
p5401
I105
sS'avi'
p5402
I105
sS'ave'
p5403
I102
sS'perhaps'
p5404
I104
sS'vintage'
p5405
I105
sS'unite'
p5406
I105
sS'member'
p5407
I105
sS'(friendly)'
p5408
I105
sS'units'
p5409
I105
sS'gets'
p5410
I103
sS'tweet.('
p5411
I105
sS'premiere'
p5412
I105
sS'definately'
p5413
I105
sS'romeo'
p5414
I105
sS"out!we'll"
p5415
I105
sS'student'
p5416
I105
sS'pedal'
p5417
I92
sS'l.a'
p5418
I97
sS'collar'
p5419
I105
sS'english'
p5420
I105
sS'sedgwick'
p5421
I105
sS'cameo'
p5422
I105
sS'cried'
p5423
I104
sS'rocked'
p5424
I103
sS'happiness'
p5425
I105
sS'danced'
p5426
I104
sS'smith'
p5427
I105
sS'nicki'
p5428
I105
sS'ska'
p5429
I103
sS'attractive'
p5430
I105
sS"who's"
p5431
I102
sS'onlys'
p5432
I105
sS'know'
p5433
I68
sS'facial'
p5434
I103
sS'press'
p5435
I103
sS'miami'
p5436
I105
sS'clutch'
p5437
I105
sS'because'
p5438
I98
sS'shabby'
p5439
I105
sS"blondfire's"
p5440
I105
sS'scared'
p5441
I103
sS'jumprope'
p5442
I105
sS'shabba'
p5443
I105
sS'lead'
p5444
I105
sS'markers'
p5445
I105
sS'14th'
p5446
I105
sS'debuts'
p5447
I105
sS'pasta'
p5448
I105
sS'throne'
p5449
I105
sS'rare'
p5450
I104
sS'getting'
p5451
I81
sS'universe'
p5452
I105
sS'swear'
p5453
I104
sS'sweat'
p5454
I105
sS'perky'
p5455
I105
sS'own'
p5456
I100
sS'clifton'
p5457
I105
sS'weather'
p5458
I102
sS'promise'
p5459
I105
sS'brush'
p5460
I105
sS'favoritest'
p5461
I105
sS'van'
p5462
I104
sS'uniting'
p5463
I104
sS"i've"
p5464
I86
sS'kinkos'
p5465
I105
sS'bitches'
p5466
I105
sS'volume'
p5467
I105
sS'tonight!\xe2\x80\xa6'
p5468
I105
sS'made'
p5469
I95
sS'whether'
p5470
I104
sS'record'
p5471
I102
sS'cake'
p5472
I104
sS'faggot'
p5473
I105
sS'stirring'
p5474
I105
sS'se\xc3\xb1or'
p5475
I105
sS'"so'
p5476
I105
sS'goodness'
p5477
I105
sS'lanigan'
p5478
I105
sS'sobriety'
p5479
I105
sS'(its'
p5480
I105
sS'incredible'
p5481
I98
sS'boop'
p5482
I105
sS'boot'
p5483
I105
sS'book'
p5484
I100
sS'boom'
p5485
I105
sS'sick'
p5486
I100
sS'incredibly'
p5487
I104
sS'junk'
p5488
I104
sS'fly-rite'
p5489
I105
sS'june'
p5490
I104
sS'kinda'
p5491
I102
sS'priced'
p5492
I105
sS'ranks'
p5493
I105
sS'silverlake'
p5494
I103
s.