(dp0
S''
p1
I1
sS'limited'
p2
I36
sS'all'
p3
I32
sS'pervert'
p4
I36
sS'forget'
p5
I36
sS'sandia'
p6
I36
sS'advisory'
p7
I36
sS'saves'
p8
I35
sS'paintings\xe2\x80\xa6'
p9
I36
sS'nicky'
p10
I36
sS'groceries'
p11
I36
sS'gang'
p12
I36
sS'\xe2\x99\xa5\xe2\x99\xa5'
p13
I36
sS'hanging'
p14
I33
sS'go'
p15
I30
sS'follow'
p16
I36
sS'hate'
p17
I36
sS':)'
p18
I36
sS'whose'
p19
I36
sS'simon'
p20
I36
sS'aug'
p21
I36
sS'tv'
p22
I35
sS'description'
p23
I36
sS'tu'
p24
I36
sS'&\xe2\x80\xa6'
p25
I36
sS'to'
p26
I5
sS'finally'
p27
I34
sS'asking'
p28
I36
sS'squeezing'
p29
I36
sS'under'
p30
I36
sS'sorry'
p31
I36
sS'free\xe2\x80\xa6'
p32
I36
sS'sent'
p33
I36
sS'fly'
p34
I36
sS'worse'
p35
I36
sS'sitting'
p36
I36
sS'7:45'
p37
I36
sS'smh'
p38
I36
sS'schedule'
p39
I36
sS'vegas'
p40
I34
sS'every'
p41
I35
sS'fall'
p42
I36
sS'cook'
p43
I36
sS'lincoln\xe2\x80\xa6'
p44
I34
sS'jynn'
p45
I36
sS'minute'
p46
I36
sS'501(c)(3)'
p47
I36
sS'treating'
p48
I36
sS'school'
p49
I35
sS'heaven'
p50
I36
sS'swapping'
p51
I36
sS'did'
p52
I27
sS'make'
p53
I36
sS'try'
p54
I36
sS'soooo'
p55
I36
sS'sidewalk'
p56
I36
sS'dodger'
p57
I36
sS'clothes'
p58
I36
sS"i'll"
p59
I34
sS'work'
p60
I36
sS'regret'
p61
I36
sS'porn'
p62
I35
sS'attic'
p63
I36
sS'streets'
p64
I36
sS'burger'
p65
I36
sS'click'
p66
I36
sS'virgin'
p67
I36
sS'cigars'
p68
I34
sS'even'
p69
I36
sS'mexico.\xe2\x80\xa6'
p70
I36
sS'what'
p71
I22
sS'paintings'
p72
I36
sS'chicago'
p73
I36
sS'giving'
p74
I36
sS'sun'
p75
I36
sS'cooking'
p76
I36
sS'3t'
p77
I36
sS'lmfao'
p78
I36
sS'waiting'
p79
I34
sS'goes'
p80
I36
sS'new'
p81
I28
sS'contributes'
p82
I36
sS'ever'
p83
I36
sS'told'
p84
I36
sS'tattoos'
p85
I36
sS'full'
p86
I36
sS'ca\xc3\xb1a'
p87
I36
sS'never'
p88
I33
sS'here'
p89
I30
sS'hundreds'
p90
I36
sS'hours'
p91
I36
sS'wild'
p92
I36
sS'packing'
p93
I36
sS'alone'
p94
I36
sS'sexy'
p95
I34
sS'shoulda'
p96
I36
sS'dork'
p97
I36
sS'wait'
p98
I34
sS'sending'
p99
I36
sS'great'
p100
I35
sS'lol'
p101
I19
sS'tx'
p102
I36
sS'ahead'
p103
I36
sS'luggage'
p104
I35
sS'didnt'
p105
I36
sS'airport'
p106
I35
sS"i'd"
p107
I36
sS'omar'
p108
I36
sS'military'
p109
I36
sS"i'm"
p110
I26
sS'male'
p111
I36
sS'makes'
p112
I35
sS'pillow'
p113
I36
sS'eyebrows'
p114
I36
sS'love'
p115
I25
sS'ago'
p116
I36
sS'family'
p117
I36
sS'egypt'
p118
I36
sS'ask'
p119
I36
sS'toys'
p120
I36
sS'405\xe2\x80\xa6'
p121
I36
sS'yourself'
p122
I36
sS'show\xe2\x80\xa6'
p123
I36
sS'casket'
p124
I36
sS'from'
p125
I26
sS'perf'
p126
I36
sS'working'
p127
I35
sS'&'
p128
I31
sS'$300'
p129
I36
sS'10:17'
p130
I36
sS'hungry'
p131
I36
sS'visit'
p132
I36
sS'two'
p133
I33
sS'next'
p134
I36
sS'cali'
p135
I36
sS'ca)'
p136
I34
sS'call'
p137
I33
sS'taken'
p138
I36
sS'tape'
p139
I36
sS'hiding'
p140
I36
sS'type'
p141
I36
sS'tell'
p142
I36
sS'today'
p143
I26
sS'athena'
p144
I34
sS'penn'
p145
I36
sS'faith'
p146
I36
sS'benefiting'
p147
I36
sS'22-24'
p148
I36
sS'site'
p149
I36
sS'downtown'
p150
I36
sS'phone'
p151
I36
sS'baby'
p152
I34
sS'montecito'
p153
I36
sS'glad'
p154
I35
sS'charity'
p155
I36
sS'me'
p156
I16
sS'high'
p157
I36
sS'join'
p158
I36
sS'room'
p159
I35
sS'this'
p160
I17
sS'ride'
p161
I36
sS'oh'
p162
I33
sS'laid'
p163
I36
sS'installing'
p164
I36
sS'worn'
p165
I36
sS'anywhere'
p166
I36
sS'can'
p167
I24
sS'learn'
p168
I36
sS'growing'
p169
I36
sS'making'
p170
I36
sS'arrive'
p171
I36
sS'my'
p172
I9
sS'unpacking'
p173
I36
sS'beautiful'
p174
I35
sS'ford'
p175
I36
sS'give'
p176
I35
sS'favorite'
p177
I36
sS'share'
p178
I36
sS'fuck'
p179
I35
sS'involve'
p180
I36
sS'dm'
p181
I36
sS'gabby'
p182
I36
sS'starbu'
p183
I36
sS'want'
p184
I33
sS'bones'
p185
I36
sS'boner'
p186
I36
sS'story'
p187
I35
sS'rabies\xe2\x80\xa6'
p188
I36
sS'needs'
p189
I36
sS'bibbin'
p190
I36
sS'winter'
p191
I35
sS'awkward'
p192
I36
sS'rather'
p193
I36
sS'means'
p194
I35
sS'casheir'
p195
I36
sS'how'
p196
I33
sS'amazing'
p197
I35
sS'husky'
p198
I36
sS'animal'
p199
I36
sS'answer'
p200
I36
sS'pocus'
p201
I36
sS'beach'
p202
I36
sS'latest\xe2\x80\xa6'
p203
I36
sS'staying'
p204
I36
sS'sandwich'
p205
I35
sS'okay'
p206
I36
sS'plans'
p207
I36
sS'watch'
p208
I34
sS'after'
p209
I35
sS'internet'
p210
I36
sS'collection'
p211
I35
sS'ilyasm'
p212
I36
sS'wrong'
p213
I36
sS'4th'
p214
I36
sS'lax'
p215
I36
sS'hanging\xe2\x80\xa6'
p216
I36
sS'taco'
p217
I35
sS'such'
p218
I35
sS'treatment/script'
p219
I36
sS'arco'
p220
I36
sS'guys'
p221
I35
sS'autograph'
p222
I35
sS'man'
p223
I35
sS'a'
p224
I12
sS'purchase'
p225
I36
sS'visitors'
p226
I36
sS'natural'
p227
I36
sS'killeen'
p228
I36
sS'tweeting'
p229
I36
sS'playmat'
p230
I36
sS'appreciate'
p231
I36
sS'lost'
p232
I36
sS'mango'
p233
I36
sS'so'
p234
I25
sS'athena\xe2\x80\xa6'
p235
I36
sS'pay'
p236
I35
sS'addiction'
p237
I36
sS'cristian'
p238
I36
sS'playing'
p239
I34
sS'talk'
p240
I35
sS"that's"
p241
I34
sS'foshoo'
p242
I36
sS'bathing'
p243
I36
sS'dooms'
p244
I36
sS'help'
p245
I36
sS'office'
p246
I36
sS"don't"
p247
I33
sS'freckles'
p248
I36
sS'over'
p249
I36
sS'move'
p250
I35
sS'charities'
p251
I34
sS'years'
p252
I36
sS'course'
p253
I36
sS'attitude'
p254
I36
sS'looks'
p255
I35
sS'hell'
p256
I36
sS'still'
p257
I36
sS'avenue'
p258
I36
sS'its'
p259
I35
sS'before'
p260
I36
sS'what\xe2\x80\x99s'
p261
I36
sS'police'
p262
I35
sS'thank'
p263
I34
sS'fit'
p264
I36
sS'la'
p265
I33
sS'border'
p266
I36
sS'sale'
p267
I35
sS'sunday'
p268
I35
sS'faves'
p269
I36
sS'[pic]'
p270
I36
sS'tramp'
p271
I36
sS'lu'
p272
I36
sS'argentino'
p273
I36
sS'2014'
p274
I33
sS'holiday'
p275
I36
sS'sauce'
p276
I36
sS"haven't"
p277
I36
sS'where\xe2\x80\xa6'
p278
I36
sS'then'
p279
I32
sS'them'
p280
I34
sS'someone'
p281
I32
sS'crash'
p282
I25
sS'food'
p283
I33
sS'number'
p284
I36
sS'lunch'
p285
I35
sS'tommorrow'
p286
I36
sS'\xe2\x98\xba\xef\xb8\x8f'
p287
I35
sS'not'
p288
I24
sS'now'
p289
I29
sS'day'
p290
I27
sS'bigger'
p291
I36
sS'pregnant'
p292
I36
sS'always'
p293
I36
sS'times'
p294
I36
sS'assistants'
p295
I36
sS'academy'
p296
I36
sS'weather'
p297
I35
sS'*posts'
p298
I36
sS'flyers'
p299
I36
sS'addicted'
p300
I36
sS'found'
p301
I33
sS'went'
p302
I35
sS'side'
p303
I36
sS'getting\xe2\x80\xa6'
p304
I36
sS'luck'
p305
I35
sS'everyone'
p306
I35
sS'knockout'
p307
I36
sS'house'
p308
I33
sS'hard'
p309
I36
sS'chomping'
p310
I35
sS'our'
p311
I28
sS'dawn'
p312
I34
sS'bay'
p313
I36
sS'saturday'
p314
I36
sS'special'
p315
I35
sS'out'
p316
I24
sS'rt'
p317
I36
sS'living'
p318
I36
sS'and\xe2\x80\xa6'
p319
I32
sS'alcohol'
p320
I36
sS'driving'
p321
I35
sS'over\xe2\x80\xa6'
p322
I36
sS'since'
p323
I35
sS'rossi'
p324
I36
sS'looking'
p325
I35
sS'seriously'
p326
I36
sS'bae'
p327
I36
sS'safety'
p328
I36
sS'hacked'
p329
I36
sS'debit'
p330
I36
sS'got'
p331
I32
sS'rn'
p332
I36
sS'm\xc3\xa9xico.\xe2\x80\xa6'
p333
I36
sS'ass'
p334
I35
sS'website'
p335
I36
sS'arizona'
p336
I36
sS'goto'
p337
I36
sS"doesn't"
p338
I36
sS'timeline'
p339
I36
sS'little'
p340
I31
sS'free'
p341
I35
sS'bulls'
p342
I36
sS'california'
p343
I36
sS'demanding'
p344
I36
sS'grandma'
p345
I36
sS'put'
p346
I36
sS'alert'
p347
I36
sS'card'
p348
I36
sS'ate'
p349
I35
sS'yard'
p350
I36
sS'could'
p351
I36
sS'florida'
p352
I36
sS'keep'
p353
I35
sS'thing'
p354
I34
sS'tomorrow.\xe2\x80\xa6'
p355
I36
sS'place'
p356
I36
sS'glasses\xe2\x80\xa6'
p357
I36
sS'arrived'
p358
I35
sS'nonprofit'
p359
I36
sS'think'
p360
I28
sS'first'
p361
I34
sS'feed'
p362
I34
sS'there'
p363
I34
sS'valentino'
p364
I26
sS'feel'
p365
I36
sS'our\xe2\x80\xa6'
p366
I36
sS'coming'
p367
I35
sS'flipping'
p368
I36
sS'xd'
p369
I36
sS'one'
p370
I29
sS'fucked'
p371
I36
sS'done'
p372
I35
sS'bitch'
p373
I31
sS'another'
p374
I34
sS'spanish'
p375
I36
sS'miss'
p376
I36
sS'tomorrow'
p377
I30
sS'hood'
p378
I36
sS'idea'
p379
I36
sS"you're"
p380
I35
sS'guess'
p381
I34
sS'long'
p382
I34
sS'los'
p383
I26
sS'together'
p384
I36
sS'top'
p385
I36
sS'tired'
p386
I36
sS'girls'
p387
I35
sS'heights'
p388
I3
sS'their'
p389
I32
sS'2'
p390
I31
sS'too'
p391
I35
sS'mama'
p392
I36
sS'lov'
p393
I36
sS'las'
p394
I36
sS'really'
p395
I30
sS'dogs'
p396
I32
sS'just\xe2\x80\xa6'
p397
I36
sS'headache'
p398
I36
sS'lot'
p399
I33
sS'that'
p400
I21
sS'pittsburgh'
p401
I36
sS'season'
p402
I36
sS'huh'
p403
I36
sS'shorty'
p404
I27
sS'benevolent\xe2\x80\xa6'
p405
I36
sS'checking'
p406
I36
sS'regards'
p407
I36
sS'hawaii\xe2\x80\xa6'
p408
I36
sS'western'
p409
I36
sS'baja'
p410
I36
sS'fooled'
p411
I36
sS'july'
p412
I36
sS'believe'
p413
I35
sS'boyfriend'
p414
I34
sS'begins'
p415
I36
sS'king'
p416
I34
sS'lmao'
p417
I31
sS'ew'
p418
I36
sS'gotten'
p419
I35
sS'gotta'
p420
I36
sS'friends\xe2\x80\xa6'
p421
I36
sS'wasup'
p422
I36
sS'bed'
p423
I36
sS'shower'
p424
I36
sS'pennsylvania'
p425
I36
sS'expo'
p426
I33
sS'friend'
p427
I36
sS'were'
p428
I36
sS'cards'
p429
I36
sS'college'
p430
I36
sS'me&my'
p431
I36
sS'sophia'
p432
I32
sS'spoiler'
p433
I36
sS'and'
p434
I6
sS'charlotte'
p435
I36
sS'san'
p436
I36
sS'portland'
p437
I36
sS'correction'
p438
I35
sS'modern'
p439
I36
sS'turned'
p440
I36
sS'comfortable'
p441
I36
sS'tonight'
p442
I35
sS'say'
p443
I33
sS'mates'
p444
I35
sS'have'
p445
I24
sS'info.\xe2\x80\xa6'
p446
I36
sS'need'
p447
I30
sS'seen'
p448
I36
sS'breakfast'
p449
I35
sS'mins'
p450
I36
sS'saw'
p451
I35
sS'any'
p452
I36
sS'gear'
p453
I36
sS'tho'
p454
I36
sS"let's"
p455
I36
sS'preppers'
p456
I36
sS'check'
p457
I34
sS'petsana'
p458
I36
sS'-'
p459
I34
sS'note'
p460
I36
sS'omfg'
p461
I36
sS'is\xe2\x80\xa6'
p462
I36
sS'take'
p463
I34
sS'which'
p464
I36
sS'neither'
p465
I36
sS'bailey'
p466
I36
sS'honestly'
p467
I36
sS'has\xe2\x80\xa6'
p468
I36
sS'panties'
p469
I36
sS'play'
p470
I36
sS'sure'
p471
I36
sS'idunnooooooo'
p472
I36
sS'quote'
p473
I36
sS'who'
p474
I29
sS'took'
p475
I34
sS'mario'
p476
I20
sS'73'
p477
I36
sS'nothing'
p478
I36
sS'kay'
p479
I36
sS'cap'
p480
I36
sS'why'
p481
I35
sS'maria'
p482
I36
sS'yp2'
p483
I36
sS'right?\xe2\x80\xa6'
p484
I36
sS'barista'
p485
I36
sS'flor'
p486
I36
sS'showcase'
p487
I36
sS'dog'
p488
I35
sS'order'
p489
I34
sS'pupwatch'
p490
I36
sS'part'
p491
I36
sS'aunt'
p492
I36
sS'pictures'
p493
I36
sS'muscled'
p494
I36
sS'dogo'
p495
I36
sS'boyfriends'
p496
I36
sS'painting'
p497
I35
sS'responded'
p498
I36
sS'came'
p499
I36
sS'saying'
p500
I30
sS'walking'
p501
I36
sS'parker'
p502
I36
sS'bomb'
p503
I33
sS'cute'
p504
I36
sS'help\xe2\x80\xa6'
p505
I36
sS'text'
p506
I36
sS'detriot'
p507
I36
sS'anyway'
p508
I36
sS'ending'
p509
I36
sS'bring'
p510
I34
sS'find'
p511
I35
sS'ground'
p512
I36
sS'aint'
p513
I36
sS'ngl'
p514
I36
sS'true'
p515
I36
sS'outside'
p516
I36
sS'should'
p517
I34
sS'virgo'
p518
I36
sS'failed'
p519
I36
sS'only'
p520
I34
sS'going'
p521
I29
sS'black'
p522
I36
sS'money'
p523
I36
sS'8'
p524
I36
sS'watching'
p525
I32
sS'posted'
p526
I36
sS'hope'
p527
I36
sS'do'
p528
I26
sS'his'
p529
I32
sS'accident'
p530
I36
sS'get'
p531
I24
sS'intresting'
p532
I36
sS'assistant'
p533
I36
sS'de'
p534
I34
sS'stop'
p535
I33
sS'bear'
p536
I36
sS'mission'
p537
I36
sS'feels'
p538
I36
sS'basement'
p539
I35
sS'him'
p540
I35
sS'end'
p541
I36
sS'spots'
p542
I36
sS'brain'
p543
I36
sS'good*\xe2\x81\xb0me'
p544
I36
sS'morning'
p545
I32
sS'bad'
p546
I36
sS'stupid'
p547
I34
sS'she'
p548
I36
sS'shots'
p549
I36
sS'18'
p550
I36
sS'analytical'
p551
I36
sS'where'
p552
I33
sS'view'
p553
I36
sS'bars'
p554
I36
sS'staring'
p555
I36
sS'station'
p556
I36
sS'ends'
p557
I36
sS'shortyrossiinstagram\xe2\x80\xa6'
p558
I36
sS'seat'
p559
I36
sS'see'
p560
I27
sS'asleep'
p561
I36
sS'are'
p562
I16
sS'parking'
p563
I36
sS'calendar'
p564
I33
sS'best'
p565
I35
sS'wonder'
p566
I36
sS'said'
p567
I34
sS'closet'
p568
I36
sS'you\xe2\x80\xa6'
p569
I36
sS'proceeds\xe2\x80\xa6'
p570
I36
sS'movie'
p571
I34
sS'wow'
p572
I36
sS'currently'
p573
I36
sS'sites'
p574
I36
sS'purses'
p575
I36
sS'state'
p576
I36
sS'bruno'
p577
I36
sS'closed'
p578
I36
sS'guilt'
p579
I36
sS'rite'
p580
I35
sS'approach'
p581
I36
sS'pants'
p582
I36
sS'we'
p583
I19
sS'omg'
p584
I32
sS'god'
p585
I36
sS'hdbsysbdjxfe'
p586
I36
sS'"what"'
p587
I36
sS'boss'
p588
I36
sS'job'
p589
I34
sS'enters'
p590
I36
sS'coffee'
p591
I36
sS'(los'
p592
I34
sS'news'
p593
I36
sS'picking'
p594
I36
sS'come'
p595
I29
sS'pissed'
p596
I36
sS'21'
p597
I36
sS'feeling'
p598
I36
sS'last'
p599
I35
sS'many'
p600
I36
sS'taking'
p601
I36
sS'explore'
p602
I36
sS'minds'
p603
I36
sS'shipment'
p604
I36
sS'tour'
p605
I36
sS'lookin'
p606
I36
sS'know\xe2\x80\xa6'
p607
I36
sS'fans'
p608
I36
sS'grooming'
p609
I36
sS'bond'
p610
I36
sS'whole'
p611
I36
sS'asked'
p612
I36
sS"can't"
p613
I33
sS'nicaragua'
p614
I36
sS'am\xe2\x80\xa6'
p615
I36
sS'passenger'
p616
I36
sS'ca'
p617
I36
sS'nicola'
p618
I35
sS'actually'
p619
I36
sS'expensive'
p620
I36
sS'most'
p621
I36
sS'yay'
p622
I36
sS'"you'
p623
I36
sS"it's"
p624
I31
sS'been'
p625
I35
sS'ran'
p626
I36
sS'much'
p627
I33
sS'damn'
p628
I35
sS'stadium'
p629
I36
sS'kitchen'
p630
I36
sS'summary'
p631
I36
sS'wants'
p632
I35
sS'resting'
p633
I36
sS'life'
p634
I30
sS'cal'
p635
I36
sS'flight'
p636
I36
sS"what's"
p637
I33
sS'homies'
p638
I36
sS'search'
p639
I36
sS'photos'
p640
I35
sS'kids'
p641
I36
sS'wake'
p642
I36
sS'morrissey'
p643
I36
sS'travel\xe2\x80\xa6'
p644
I36
sS'atlanta'
p645
I36
sS'sad'
p646
I36
sS'those'
p647
I36
sS'20'
p648
I36
sS'myself'
p649
I35
sS'casa'
p650
I35
sS'look'
p651
I33
sS'38'
p652
I36
sS'these'
p653
I30
sS"shorty's"
p654
I31
sS'repack'
p655
I36
sS'beats'
p656
I36
sS'n'
p657
I34
sS'will'
p658
I34
sS'while'
p659
I36
sS'homework'
p660
I36
sS'joke'
p661
I36
sS'coco'
p662
I36
sS'aid'
p663
I35
sS'happened'
p664
I36
sS'ktla'
p665
I36
sS'spider'
p666
I36
sS'mistake'
p667
I36
sS'mexico'
p668
I25
sS'almost'
p669
I35
sS'is'
p670
I8
sS'it'
p671
I17
sS'sleeping'
p672
I35
sS'ii'
p673
I36
sS'cant'
p674
I36
sS'good'
p675
I33
sS'im'
p676
I34
sS'in'
p677
I11
sS'ready'
p678
I29
sS'>>\xe2\x99\xa5'
p679
I36
sS'lil'
p680
I36
sS'technology'
p681
I36
sS'ship'
p682
I36
sS'if'
p683
I32
sS'memorial'
p684
I36
sS'hocus'
p685
I36
sS'shirt'
p686
I36
sS'anymore'
p687
I36
sS'noooo'
p688
I36
sS'things'
p689
I35
sS'realizing'
p690
I36
sS'siberian'
p691
I36
sS'same'
p692
I36
sS'trip'
p693
I31
sS"didn't"
p694
I36
sS'ya'
p695
I36
sS'on\xe2\x80\xa6\xe2\x80\xa6\xe2\x80\xa6..facebook'
p696
I36
sS'9'
p697
I36
sS'inc'
p698
I36
sS'start'
p699
I36
sS'get\xe2\x80\xa6'
p700
I36
sS'week'
p701
I35
sS'cigar'
p702
I33
sS'hand'
p703
I36
sS'running'
p704
I35
sS'garlic'
p705
I35
sS'kim'
p706
I35
sS'10:00pm'
p707
I36
sS'dust'
p708
I36
sS'luggage?\xe2\x80\xa6'
p709
I36
sS'*ignores'
p710
I36
sS'six'
p711
I36
sS'grumpy'
p712
I36
sS'welder'
p713
I36
sS'off'
p714
I35
sS'i'
p715
I7
sS'changes'
p716
I36
sS'well'
p717
I36
sS'spent'
p718
I36
sS'thought'
p719
I35
sS'person'
p720
I36
sS'practices'
p721
I36
sS'flexing'
p722
I36
sS'wya'
p723
I36
sS'the'
p724
I2
sS'muscle'
p725
I36
sS'yours'
p726
I35
sS'805'
p727
I36
sS'summer'
p728
I36
sS'they'
p729
I24
sS'just'
p730
I20
sS'being'
p731
I33
sS'photo'
p732
I34
sS'gunna'
p733
I36
sS'sleepy'
p734
I36
sS'hercules'
p735
I10
sS'thanks'
p736
I32
sS'roasted'
p737
I36
sS'yes'
p738
I36
sS'yet'
p739
I36
sS'jose'
p740
I36
sS'death'
p741
I36
sS'terrorizing'
p742
I36
sS'danks'
p743
I36
sS'tomorrow\xe2\x80\xa6'
p744
I36
sS'workers'
p745
I36
sS'had'
p746
I32
sS'misi\xc3\xb3n'
p747
I36
sS'lets'
p748
I36
sS'4'
p749
I35
sS'crack'
p750
I35
sS'7'
p751
I36
sS'has'
p752
I32
sS'amtrak\xe2\x80\xa6'
p753
I36
sS'kick'
p754
I36
sS'wahhh'
p755
I36
sS'bank'
p756
I36
sS'around'
p757
I35
sS'read'
p758
I36
sS'online'
p759
I36
sS'whacked'
p760
I36
sS'gonna'
p761
I36
sS'early'
p762
I36
sS'game'
p763
I35
sS'traffic'
p764
I36
sS'know'
p765
I30
sS'mom'
p766
I36
sS'world'
p767
I33
sS'lady'
p768
I35
sS'korean'
p769
I36
sS'lincoln'
p770
I4
sS'stuff'
p771
I36
sS'like'
p772
I27
sS'gift'
p773
I35
sS'eric'
p774
I36
sS'piece'
p775
I36
sS'orlando'
p776
I36
sS'steph'
p777
I36
sS'ignore'
p778
I36
sS'miami'
p779
I36
sS'served'
p780
I35
sS'security'
p781
I36
sS'nice'
p782
I35
sS'shed'
p783
I36
sS'google'
p784
I35
sS'old'
p785
I34
sS'people'
p786
I27
sS'fucking'
p787
I34
sS'scared'
p788
I36
sS'some'
p789
I34
sS'back'
p790
I28
sS'emails'
p791
I36
sS'hair'
p792
I36
sS'webs'
p793
I36
sS'offer'
p794
I36
sS'pack'
p795
I36
sS'mighty'
p796
I36
sS'choosing'
p797
I36
sS'home'
p798
I26
sS'vato'
p799
I36
sS'blonde'
p800
I36
sS'sister'
p801
I36
sS'trust'
p802
I36
sS'for'
p803
I13
sS'pet'
p804
I32
sS'moon'
p805
I36
sS'now.\xe2\x80\xa6'
p806
I36
sS'does'
p807
I35
sS'recorder'
p808
I36
sS'christmas'
p809
I33
sS'be'
p810
I28
sS'felt'
p811
I36
sS'power'
p812
I36
sS'bc'
p813
I36
sS'rub'
p814
I36
sS'crackheads'
p815
I36
sS'leadership'
p816
I36
sS'santa'
p817
I36
sS'become'
p818
I36
sS'graduated'
p819
I36
sS'by'
p820
I30
sS'earlier'
p821
I36
sS'takes'
p822
I36
sS'be\xe2\x80\xa6'
p823
I36
sS'on'
p824
I18
sS'about'
p825
I31
sS'rite-aid'
p826
I36
sS'ok'
p827
I34
sS'anything'
p828
I36
sS'getting'
p829
I32
sS'of'
p830
I14
sS'geisha'
p831
I36
sS"mcdonald's"
p832
I36
sS'hot'
p833
I36
sS'angeles'
p834
I23
sS'dinner'
p835
I34
sS'regretting'
p836
I36
sS'luigi'
p837
I36
sS'puppies'
p838
I33
sS'glasses'
p839
I36
sS'wanna'
p840
I35
sS'or'
p841
I34
sS'road'
p842
I31
sS'boy*\xe2\x81\xb0boy'
p843
I36
sS'stupid!"'
p844
I36
sS'into'
p845
I35
sS'errands'
p846
I35
sS'bound'
p847
I35
sS'snapchat'
p848
I36
sS'ppl'
p849
I36
sS'down'
p850
I35
sS'nigga'
p851
I33
sS'female'
p852
I36
sS'happening'
p853
I36
sS'your'
p854
I23
sS'daum'
p855
I36
sS'holidays.\xe2\x80\xa6'
p856
I36
sS'fast'
p857
I36
sS'supervising'
p858
I36
sS'her'
p859
I34
sS'area'
p860
I35
sS'spending'
p861
I36
sS'daly'
p862
I36
sS'*'
p863
I35
sS'question'
p864
I35
sS'live'
p865
I34
sS'errand'
p866
I35
sS'noticed'
p867
I36
sS'doing'
p868
I35
sS'drank'
p869
I36
sS'visitor'
p870
I36
sS'way'
p871
I30
sS'bruh'
p872
I35
sS'bored'
p873
I34
sS'was'
p874
I27
sS'happy'
p875
I33
sS'confessing'
p876
I36
sS'waze'
p877
I36
sS'enough'
p878
I36
sS'bus'
p879
I35
sS'forever'
p880
I36
sS'but'
p881
I35
sS'yeah'
p882
I34
sS't-shirt'
p883
I35
sS'boys'
p884
I35
sS'heat'
p885
I36
sS'link'
p886
I36
sS'idgaf'
p887
I36
sS'line'
p888
I36
sS'ha'
p889
I36
sS'with'
p890
I15
sS'eat'
p891
I35
sS'he'
p892
I29
sS'pre-sale'
p893
I36
sS'happen'
p894
I36
sS'wish'
p895
I36
sS'annoying'
p896
I36
sS'up'
p897
I29
sS'us'
p898
I31
sS'ur'
p899
I35
sS'planet'
p900
I36
sS'growth'
p901
I36
sS'barbershop'
p902
I36
sS'vick'
p903
I36
sS'more'
p904
I32
sS'nachos'
p905
I36
sS'sometimes'
p906
I36
sS'ordered'
p907
I36
sS'af'
p908
I36
sS'ah'
p909
I36
sS'more\xe2\x80\xa6'
p910
I35
sS'am'
p911
I31
sS'accessvegas\xe2\x80\xa6'
p912
I36
sS'an'
p913
I32
sS'as'
p914
I33
sS'right'
p915
I36
sS'at'
p916
I16
sS'curious'
p917
I36
sS'chub'
p918
I36
sS'deed'
p919
I36
sS'swerved'
p920
I36
sS'pit'
p921
I35
sS'girl'
p922
I34
sS'shit'
p923
I33
sS'fill'
p924
I36
sS'again'
p925
I36
sS'jesus'
p926
I36
sS'no'
p927
I32
sS'deserve'
p928
I36
sS'nah'
p929
I36
sS'peace'
p930
I36
sS'when'
p931
I30
sS'detail'
p932
I36
sS'reality'
p933
I36
sS'til'
p934
I36
sS'ny'
p935
I36
sS'nap'
p936
I36
sS'5'
p937
I33
sS'tarr'
p938
I34
sS'you'
p939
I12
sS'puppy'
p940
I30
sS'shorty\xe2\x80\x99s'
p941
I35
sS'picture'
p942
I35
sS'6k'
p943
I36
sS'star'
p944
I36
sS'hey'
p945
I36
sS'rabies'
p946
I36
sS'tfti'
p947
I36
sS'haircut'
p948
I36
sS'casets'
p949
I36
sS'tyrah'
p950
I36
sS'helping'
p951
I35
sS'fell'
p952
I36
sS';p'
p953
I36
sS'dominick'
p954
I36
sS"she's"
p955
I36
sS'song'
p956
I36
sS'chocolate'
p957
I36
sS'friends'
p958
I34
sS'flags'
p959
I36
sS'building'
p960
I35
sS'younger'
p961
I36
sS'3rd'
p962
I36
sS'spend'
p963
I36
sS'kardashian'
p964
I35
sS'dvd'
p965
I34
sS'rescued'
p966
I36
sS'walked'
p967
I36
sS'u'
p968
I36
sS'fact'
p969
I36
sS'time'
p970
I27
sS'alright'
p971
I35
sS'serious'
p972
I35
sS'starting'
p973
I36
sS'having'
p974
I36
sS'once'
p975
I36
s.