(dp0
S''
p1
I6
sS'inning'
p2
I51
sS'hats'
p3
I51
sS'four'
p4
I50
sS'sleep'
p5
I44
sS'sextile'
p6
I51
sS'hate'
p7
I47
sS'allll'
p8
I51
sS'paris'
p9
I51
sS'tweet'
p10
I51
sS'bike'
p11
I51
sS'how\xe2\x80\xa6'
p12
I51
sS'sin\xe2\x80\xa6'
p13
I51
sS'sorry'
p14
I51
sS'worth'
p15
I49
sS'fohevah'
p16
I51
sS'blanket'
p17
I51
sS'regional'
p18
I46
sS'every'
p19
I49
sS'bringing'
p20
I51
sS'school'
p21
I50
sS'skills'
p22
I51
sS'companies'
p23
I51
sS'red'
p24
I50
sS'heading'
p25
I50
sS'enjoy'
p26
I50
sS'tired'
p27
I49
sS'bacon'
p28
I50
sS'we\xe2\x80\xa6'
p29
I50
sS'crave'
p30
I51
sS'7th'
p31
I51
sS'olvido'
p32
I51
sS'even'
p33
I41
sS'nem'
p34
I51
sS'hide'
p35
I51
sS'kuz'
p36
I51
sS'wreck'
p37
I51
sS'en'
p38
I51
sS'\xe2\x9d\xa4we'
p39
I51
sS'new'
p40
I39
sS'ever'
p41
I47
sS'told'
p42
I50
sS'able\xe2\x80\xa6'
p43
I51
sS'never'
p44
I44
sS'here'
p45
I49
sS'met'
p46
I51
sS'china'
p47
I51
sS'well...dwight'
p48
I51
sS'path'
p49
I51
sS"aren't"
p50
I51
sS'kids'
p51
I50
sS'ventures'
p52
I51
sS'leaves'
p53
I51
sS'imma'
p54
I51
sS"i'd"
p55
I48
sS'"tweet"'
p56
I51
sS'dra'
p57
I51
sS'complicated'
p58
I50
sS"i'm"
p59
I22
sS'fantastic'
p60
I51
sS'darlings'
p61
I51
sS'feelings'
p62
I48
sS'bro'
p63
I51
sS'stern'
p64
I51
sS'landscape'
p65
I51
sS'would'
p66
I47
sS'motivate'
p67
I51
sS'negative'
p68
I50
sS'cali'
p69
I51
sS'asses'
p70
I51
sS'call'
p71
I49
sS'calm'
p72
I51
sS'spike'
p73
I51
sS'strike'
p74
I51
sS'tryin'
p75
I51
sS'type'
p76
I50
sS'until'
p77
I51
sS'sushi'
p78
I51
sS'holy'
p79
I50
sS'brings'
p80
I51
sS'haha'
p81
I48
sS'aware'
p82
I50
sS'phone'
p83
I49
sS'hold'
p84
I51
sS'blocking'
p85
I51
sS'must'
p86
I49
sS'shoot'
p87
I51
sS'te'
p88
I51
sS'room'
p89
I51
sS'err'
p90
I51
sS'work'
p91
I44
sS'mi'
p92
I51
sS'joie'
p93
I51
sS'mu'
p94
I51
sS'concepts'
p95
I51
sS'ernest'
p96
I45
sS'root'
p97
I51
sS'organized'
p98
I51
sS'want'
p99
I46
sS'keep'
p100
I46
sS'end'
p101
I49
sS'thing'
p102
I51
sS'complaining'
p103
I51
sS'bunk'
p104
I51
sS'how'
p105
I40
sS'amazing'
p106
I49
sS'interview'
p107
I51
sS'place'
p108
I50
sS'pizza'
p109
I49
sS'fever'
p110
I51
sS'beauty'
p111
I51
sS'horoscope'
p112
I39
sS'mess'
p113
I51
sS'after'
p114
I47
sS'wrong'
p115
I50
sS'arca'
p116
I51
sS"they're"
p117
I50
sS'nothing\xe2\x9c\x8b'
p118
I51
sS'attempt'
p119
I51
sS'things....shrek'
p120
I51
sS'greek'
p121
I50
sS'green'
p122
I51
sS'keeps'
p123
I51
sS'affecting'
p124
I51
sS'order'
p125
I50
sS'wine'
p126
I50
sS'over'
p127
I46
sS'philadmit'
p128
I51
sS'satisfied'
p129
I51
sS'elena'
p130
I51
sS'before'
p131
I48
sS'personal'
p132
I51
sS'fix'
p133
I51
sS'writing'
p134
I51
sS'destroyed'
p135
I51
sS'shifts'
p136
I51
sS'precipitate'
p137
I51
sS'hidden'
p138
I51
sS'easier'
p139
I50
sS'then'
p140
I48
sS'them'
p141
I47
sS'"win"'
p142
I51
sS'workout'
p143
I51
sS'2013the'
p144
I49
sS'2013oftentimes'
p145
I51
sS'effects'
p146
I50
sS'they'
p147
I45
sS'\xc2\xbbde'
p148
I51
sS'braised'
p149
I51
sS'anit'
p150
I51
sS'one'
p151
I45
sS'bread'
p152
I51
sS'rocky'
p153
I51
sS'l'
p154
I51
sS'each'
p155
I51
sS'went'
p156
I48
sS'side'
p157
I49
sS'carlos'
p158
I51
sS'mean'
p159
I50
sS'roxy'
p160
I51
sS'series'
p161
I51
sS'forgot'
p162
I51
sS'whip'
p163
I51
sS'rt'
p164
I50
sS'so\xe2\x80\xa6'
p165
I51
sS'god'
p166
I50
sS'extra\xe2\x80\xa6'
p167
I51
sS'lurks'
p168
I51
sS'sintra'
p169
I50
sS'content'
p170
I51
sS'got'
p171
I41
sS'rn'
p172
I47
sS'hollerin'
p173
I51
sS"you're"
p174
I40
sS'struggle'
p175
I51
sS"influencesit's"
p176
I51
sS'wanted'
p177
I51
sS'ate'
p178
I51
sS'dayum'
p179
I51
sS'messages'
p180
I51
sS'days'
p181
I51
sS'ups'
p182
I51
sS'sorprindida'
p183
I51
sS'tempting'
p184
I51
sS'arrived'
p185
I51
sS'fuckin'
p186
I48
sS'clarita'
p187
I51
sS'unfollowed'
p188
I51
sS'grade'
p189
I51
sS'\xc3\x80'
p190
I51
sS'primary'
p191
I50
sS'dyiiiiinnn'
p192
I51
sS'wash'
p193
I51
sS'another'
p194
I47
sS'mercury'
p195
I49
sS'\xc3\xa9'
p196
I51
sS'spinach'
p197
I51
sS'top'
p198
I50
sS'engagement'
p199
I51
sS'girls'
p200
I46
sS'heights'
p201
I45
sS'california'
p202
I51
sS'too'
p203
I47
sS'cycle'
p204
I51
sS'dogs'
p205
I50
sS'beyooond'
p206
I51
sS'5-16'
p207
I51
sS'took'
p208
I51
sS'wisdom'
p209
I51
sS'crawl'
p210
I51
sS'begins'
p211
I51
sS'2013taking'
p212
I51
sS'anxiety'
p213
I51
sS'showed'
p214
I50
sS'hike'
p215
I49
sS'up...again'
p216
I51
sS'likely'
p217
I51
sS'project'
p218
I50
sS'matter'
p219
I51
sS'silly'
p220
I51
sS'speaking'
p221
I51
sS'feeling'
p222
I49
sS'recheck'
p223
I51
sS'rad'
p224
I51
sS'esta'
p225
I51
sS'mind'
p226
I47
sS'talking'
p227
I51
sS'leafs'
p228
I51
sS'seem'
p229
I50
sS'tells'
p230
I51
sS'crudge'
p231
I51
sS'kolpachikova'
p232
I51
sS'-'
p233
I48
sS'lagggg'
p234
I51
sS'todaytuesday'
p235
I49
sS'luxury'
p236
I51
sS'rides'
p237
I51
sS'49th'
p238
I51
sS'though'
p239
I51
sS'thrilled'
p240
I51
sS'doin'
p241
I51
sS'visionary'
p242
I51
sS'mouth'
p243
I51
sS'addict'
p244
I51
sS'coin'
p245
I51
sS'glow'
p246
I51
sS'coppa'
p247
I51
sS'm'
p248
I50
sS'doe'
p249
I51
sS'overwhelms\xe2\x80\xa6'
p250
I51
sS'responded'
p251
I51
sS'came'
p252
I50
sS'reserve'
p253
I51
sS'saying'
p254
I51
sS'roaming'
p255
I51
sS'sage'
p256
I51
sS'attempts'
p257
I51
sS'phds'
p258
I51
sS'radio'
p259
I51
sS'pkg'
p260
I50
sS'earth'
p261
I50
sS'tempted'
p262
I51
sS'busy'
p263
I51
sS'clicked'
p264
I51
sS'photobomb'
p265
I51
sS'situations'
p266
I51
sS'bush'
p267
I51
sS'touched'
p268
I51
sS'do'
p269
I36
sS'dm'
p270
I51
sS'di'
p271
I51
sS'de'
p272
I49
sS'stop'
p273
I51
sS'da'
p274
I51
sS'criticized'
p275
I51
sS'todaysunday'
p276
I49
sS'du'
p277
I51
sS'dr'
p278
I51
sS'lmao'
p279
I50
sS'earn'
p280
I51
sS'bay'
p281
I51
sS'twice'
p282
I51
sS'bad'
p283
I50
sS'grilled'
p284
I51
sS'brazy'
p285
I51
sS'blew'
p286
I51
sS'w/'
p287
I51
sS'fail'
p288
I51
sS'best'
p289
I48
sS'subject'
p290
I51
sS'brazil'
p291
I51
sS'said'
p292
I49
sS'away'
p293
I50
sS'salesian'
p294
I51
sS"there's"
p295
I48
sS'hopefully'
p296
I51
sS'yogurt'
p297
I50
sS'approach'
p298
I51
sS'unwavering\xe2\x80\xa6'
p299
I51
sS'we'
p300
I16
sS'dayumm'
p301
I51
sS'omg'
p302
I51
sS'handful'
p303
I50
sS'however'
p304
I48
sS'boss'
p305
I49
sS'(los'
p306
I50
sS'wtf'
p307
I50
sS'news'
p308
I50
sS'debs'
p309
I46
sS'improve'
p310
I51
sS'eeekkkk'
p311
I51
sS'howev'
p312
I51
sS'against'
p313
I51
sS"today's"
p314
I51
sS'jews...we'
p315
I51
sS'threads'
p316
I51
sS'asked'
p317
I51
sS'had'
p318
I41
sS'2013you'
p319
I42
sS'voicemails'
p320
I51
sS'102'
p321
I51
sS'diff'
p322
I51
sS'trust'
p323
I50
sS'eager'
p324
I50
sS'three'
p325
I50
sS'been'
p326
I47
sS'quickly'
p327
I50
sS'confident'
p328
I51
sS'beer'
p329
I51
sS'much'
p330
I43
sS'beet'
p331
I51
sS'interest'
p332
I49
sS'basic'
p333
I51
sS'expected'
p334
I51
sS'life'
p335
I47
sS'victorville'
p336
I51
sS'drugs'
p337
I51
sS'sooooo'
p338
I51
sS'haters'
p339
I51
sS'air'
p340
I49
sS'ugly'
p341
I50
sS'near'
p342
I51
sS'is'
p343
I11
sS'forms\xe2\x80\xa6'
p344
I51
sS'it'
p345
I12
sS'im'
p346
I48
sS'il'
p347
I51
sS'in'
p348
I5
sS'throwing'
p349
I51
sS'if'
p350
I27
sS"hoppin'"
p351
I51
sS'things'
p352
I49
sS'make'
p353
I40
sS'doofus'
p354
I51
sS'unfortunate'
p355
I51
sS'hahaa'
p356
I51
sS'bunny'
p357
I51
sS'entitled'
p358
I51
sS'cindy'
p359
I51
sS'pick'
p360
I51
sS'hand'
p361
I51
sS'fridays'
p362
I51
sS'garlic'
p363
I49
sS'characters'
p364
I51
sS'opportunity'
p365
I51
sS'thoughts'
p366
I51
sS'kid'
p367
I51
sS'butter'
p368
I50
sS'gravalax'
p369
I51
sS'1975'
p370
I51
sS'inspires'
p371
I51
sS'tho'
p372
I50
sS'greatest'
p373
I51
sS'mother'
p374
I51
sS'the'
p375
I1
sS'tha'
p376
I51
sS'mistakeall'
p377
I51
sS'just'
p378
I39
sS'yea'
p379
I51
sS'unfollow'
p380
I51
sS'ideas'
p381
I51
sS'govt'
p382
I51
sS'thanks'
p383
I48
sS'yes'
p384
I49
sS'yer'
p385
I51
sS'yet'
p386
I47
sS'previous'
p387
I51
sS'hike!!!!the'
p388
I51
sS'eli'
p389
I51
sS'hills'
p390
I51
sS'sunflower'
p391
I51
sS'old-fashioned'
p392
I51
sS'elf'
p393
I51
sS'shout'
p394
I51
sS'easy'
p395
I49
sS'has'
p396
I45
sS'hat'
p397
I51
sS'gave'
p398
I51
sS'survival'
p399
I51
sS'dreamy'
p400
I51
sS'judge'
p401
I51
sS'margherita'
p402
I51
sS'vegassss'
p403
I51
sS'12:30'
p404
I51
sS'harmoniously'
p405
I51
sS'melting'
p406
I51
sS'nude'
p407
I51
sS'srink'
p408
I51
sS'lapsed'
p409
I51
sS'remind'
p410
I51
sS'night'
p411
I44
sS"influenceswe're"
p412
I50
sS'right'
p413
I45
sS'old'
p414
I48
sS'deal'
p415
I45
sS'people'
p416
I42
sS'romantically'
p417
I51
sS'begin'
p418
I51
sS'dead'
p419
I50
sS'dorian'
p420
I51
sS'take\xe2\x80\xa6'
p421
I51
sS'jazzy_aji11'
p422
I50
sS'okra'
p423
I51
sS'for'
p424
I10
sS'bottom'
p425
I51
sS'point\xe2\x80\xa6'
p426
I51
sS'a\xe2\x80\xa6'
p427
I50
sS'witty'
p428
I51
sS'everything'
p429
I47
sS'foo'
p430
I51
sS'bold'
p431
I51
sS'shifting'
p432
I51
sS'fureal'
p433
I51
sS'bangalore'
p434
I51
sS'months'
p435
I51
sS'o'
p436
I51
sS'dinner'
p437
I49
sS'plus'
p438
I51
sS'whats'
p439
I51
sS'lied'
p440
I50
sS'tastier'
p441
I51
sS'pays'
p442
I51
sS'selfie'
p443
I51
sS'delighted'
p444
I51
sS'intellectual'
p445
I51
sS'ppl'
p446
I48
sS'down'
p447
I45
sS'loin'
p448
I51
sS'soy'
p449
I51
sS'honored'
p450
I51
sS'soon'
p451
I51
sS'journeying'
p452
I51
sS'spongebob'
p453
I51
sS'justnever'
p454
I51
sS'fight'
p455
I51
sS'stuck'
p456
I51
sS'way'
p457
I47
sS'jane'
p458
I51
sS'was'
p459
I29
sS'launching'
p460
I51
sS'happy'
p461
I46
sS'head'
p462
I51
sS'batman'
p463
I51
sS'fireworks'
p464
I51
sS'failure'
p465
I51
sS'heat'
p466
I51
sS'elderly'
p467
I51
sS'true'
p468
I49
sS'sant\xc3\xa9'
p469
I51
sS'tell'
p470
I51
sS'generosity'
p471
I51
sS'adore'
p472
I51
sS'emotional'
p473
I49
sS'new\xe2\x80\xa6'
p474
I51
sS'drive'
p475
I50
sS'influencesthe'
p476
I50
sS'gemini'
p477
I51
sS'ship'
p478
I51
sS'2013your'
p479
I46
sS'trip'
p480
I51
sS'shit'
p481
I46
sS'discriminate'
p482
I51
sS'no'
p483
I37
sS'todaymonday'
p484
I50
sS'f300'
p485
I51
sS'til'
p486
I51
sS'tim'
p487
I51
sS'interested'
p488
I49
sS'role'
p489
I51
sS'tie'
p490
I51
sS'roll'
p491
I51
sS'notifications'
p492
I51
sS'reconsider'
p493
I51
sS'models'
p494
I51
sS'felt'
p495
I50
sS'genentech'
p496
I51
sS"let's"
p497
I49
sS'fell'
p498
I50
sS'wechat'
p499
I51
sS'weekend'
p500
I51
sS'noviembre'
p501
I51
sS'apito'
p502
I51
sS'glass'
p503
I51
sS'assume'
p504
I51
sS'open-minded'
p505
I51
sS'daily'
p506
I30
sS'withhold'
p507
I51
sS'time'
p508
I40
sS'thought.....boy'
p509
I51
sS':('
p510
I49
sS':)'
p511
I41
sS'sandia'
p512
I51
sS'dance'
p513
I51
sS'leads'
p514
I51
sS'mile'
p515
I51
sS'battle'
p516
I51
sS'shot'
p517
I50
sS'milk'
p518
I51
sS'contributing'
p519
I51
sS'ver'
p520
I51
sS'father'
p521
I51
sS'disgusting'
p522
I51
sS'environment'
p523
I51
sS'finally'
p524
I50
sS'rhythm'
p525
I51
sS'couscous'
p526
I51
sS'me'
p527
I18
sS':d'
p528
I51
sS'vegan'
p529
I51
sS'tacos'
p530
I49
sS'trouble'
p531
I51
sS'brows'
p532
I51
sS'cool'
p533
I50
sS'shawtayyy'
p534
I51
sS'did'
p535
I44
sS'die'
p536
I48
sS'accidentally'
p537
I51
sS'leave'
p538
I50
sS'p'
p539
I51
sS'team'
p540
I47
sS'quick'
p541
I51
sS'guy'
p542
I50
sS'bahia'
p543
I50
sS'says'
p544
I50
sS'seasoning'
p545
I51
sS'bravo'
p546
I51
sS'sign'
p547
I50
sS'shirts'
p548
I51
sS'run'
p549
I50
sS'stressful'
p550
I51
sS'current'
p551
I50
sS'lennon'
p552
I51
sS'tarantula'
p553
I51
sS'filled'
p554
I51
sS'assertive'
p555
I51
sS'water'
p556
I48
sS'alone'
p557
I51
sS'along'
p558
I51
sS'earthquake'
p559
I51
sS'change'
p560
I49
sS'wait'
p561
I46
sS'sending'
p562
I50
sS'-jim'
p563
I51
sS'my'
p564
I9
sS'rethink'
p565
I51
sS'lakers'
p566
I49
sS'accomplished'
p567
I51
sS'aligns\xe2\x80\xa6'
p568
I51
sS'usually'
p569
I51
sS'forever.\xe2\x80\x9d'
p570
I51
sS'love'
p571
I33
sS'hiking'
p572
I49
sS'prefer'
p573
I51
sS'fake'
p574
I50
sS'traversing'
p575
I51
sS'post'
p576
I49
sS'market'
p577
I51
sS'everybody'
p578
I51
sS'buttons'
p579
I51
sS'siempre'
p580
I51
sS'additive'
p581
I51
sS'working'
p582
I51
sS'aye'
p583
I51
sS'pero'
p584
I51
sS'by'
p585
I41
sS'ca)'
p586
I49
sS'wondering'
p587
I51
sS'aries'
p588
I51
sS'prep'
p589
I51
sS'today'
p590
I11
sS'sayto'
p591
I51
sS'sharing'
p592
I50
sS'oooooooh'
p593
I51
sS'club'
p594
I50
sS'acceptable'
p595
I51
sS'chocolate'
p596
I51
sS'visual'
p597
I51
sS'edible'
p598
I51
sS'car'
p599
I48
sS'flu'
p600
I50
sS'duhhhh'
p601
I51
sS'soup'
p602
I49
sS'can'
p603
I38
sS'following'
p604
I50
sS'making'
p605
I47
sS'arrive'
p606
I51
sS'heart'
p607
I50
sS'crazy'
p608
I50
sS'awesome'
p609
I49
sS"didn't"
p610
I48
sS'fuck'
p611
I48
sS'heard'
p612
I50
sS'libra\xe2\x80\xa6'
p613
I51
sS'sun-uranus\xe2\x80\xa6'
p614
I50
sS'counting'
p615
I51
sS'at\xe2\x80\xa6'
p616
I51
sS'pink'
p617
I49
sS'guuuat'
p618
I51
sS'1'
p619
I48
sS'till'
p620
I50
sS'sunday'
p621
I51
sS'facts\xe2\x80\xa6'
p622
I51
sS'\xe2\x9d\xa4\xef\xb8\x8f\xe2\x9d\xa4\xef\xb8\x8f\xe2\x9d\xa4\xef\xb8\x8f'
p623
I51
sS'designer'
p624
I51
sS'laundry'
p625
I50
sS'may'
p626
I21
sS'max'
p627
I51
sS'blasting'
p628
I51
sS'lucky'
p629
I51
sS'applications'
p630
I51
sS'birthday'
p631
I51
sS'mad'
p632
I50
sS'such'
p633
I49
sS'guys'
p634
I48
sS'grow'
p635
I50
sS'lids'
p636
I51
sS'man'
p637
I45
sS'natural'
p638
I51
sS'remember'
p639
I50
sS'ss'
p640
I51
sS'maybe'
p641
I50
sS'bean'
p642
I51
sS'so'
p643
I24
sS'sn'
p644
I51
sS'tall'
p645
I51
sS'okkayyy'
p646
I51
sS'pulled'
p647
I51
sS'talk'
p648
I49
sS'outlet'
p649
I51
sS'cute'
p650
I51
sS'shoes'
p651
I51
sS'food'
p652
I51
sS'indeed'
p653
I51
sS'years'
p654
I51
sS'brain'
p655
I50
sS'still'
p656
I47
sS'tendency'
p657
I51
sS'birthdayy'
p658
I51
sS'police'
p659
I51
sS'thank'
p660
I50
sS'hors'
p661
I51
sS'the\xe2\x80\xa6'
p662
I43
sS'interesting'
p663
I51
sS'coaching'
p664
I51
sS'celebrate'
p665
I51
sS'visiting'
p666
I51
sS'inefficiency'
p667
I51
sS'happened'
p668
I51
sS'influencesthese'
p669
I51
sS'conversations'
p670
I51
sS'feelin'
p671
I50
sS'lunch'
p672
I51
sS'soo'
p673
I51
sS'half'
p674
I49
sS'not'
p675
I23
sS'now'
p676
I32
sS'killed'
p677
I50
sS'developments'
p678
I51
sS'nos'
p679
I51
sS'name'
p680
I51
sS'january'
p681
I51
sS'revert'
p682
I51
sS'conflict\xe2\x80\xa6'
p683
I51
sS'veins'
p684
I51
sS'cett'
p685
I51
sS'el'
p686
I49
sS'nematode'
p687
I51
sS'eh'
p688
I51
sS'wrap'
p689
I51
sS'catching'
p690
I51
sS'year'
p691
I47
sS'up\xe2\x80\xa6'
p692
I51
sS'happen'
p693
I47
sS'intended'
p694
I51
sS'living'
p695
I50
sS'and\xe2\x80\xa6'
p696
I50
sS'3rd'
p697
I51
sS'space'
p698
I51
sS'looking'
p699
I51
sS'attracted'
p700
I51
sS'seriously'
p701
I50
sS'stupid'
p702
I51
sS"shouldn't"
p703
I51
sS'internet'
p704
I51
sS'receiving'
p705
I50
sS'shows'
p706
I51
sS'earlier'
p707
I51
sS"karla's"
p708
I51
sS'million'
p709
I51
sS'quite'
p710
I50
sS'$$$$'
p711
I51
sS'care'
p712
I50
sS'training'
p713
I51
sS'brasil'
p714
I50
sS'100%'
p715
I51
sS'turn'
p716
I45
sS'separator'
p717
I51
sS'think'
p718
I46
sS'he\xe2\x80\xa6'
p719
I51
sS'first'
p720
I47
sS'consider\xe2\x80\xa6'
p721
I51
sS'family.\xe2\x80\xa6'
p722
I51
sS'revenue'
p723
I51
sS'waves'
p724
I51
sS'xd'
p725
I51
sS'yourself'
p726
I50
sS'your\xe2\x80\xa6'
p727
I49
sS'fast'
p728
I51
sS'directly'
p729
I51
sS'petaphils'
p730
I51
sS'impossible'
p731
I48
sS'sounds'
p732
I51
sS'open'
p733
I51
sS'tomorrow'
p734
I50
sS'size'
p735
I51
sS'city'
p736
I51
sS'little'
p737
I42
sS'caught'
p738
I48
sS't'
p739
I51
sS'anyone'
p740
I50
sS'2'
p741
I45
sS'friend'
p742
I48
sS'gives'
p743
I51
sS'eyes'
p744
I50
sS'that'
p745
I15
sS'boba'
p746
I51
sS'hup'
p747
I50
sS'butt'
p748
I51
sS'than'
p749
I44
sS"here's"
p750
I51
sS'boyfriend'
p751
I51
sS'11'
p752
I50
sS'10'
p753
I49
sS'13'
p754
I51
sS'12'
p755
I50
sS'15'
p756
I49
sS'14'
p757
I51
sS'16'
p758
I51
sS'18'
p759
I51
sS'gotta'
p760
I49
sS'1%'
p761
I51
sS'were'
p762
I48
sS'1)'
p763
I51
sS'and'
p764
I8
sS'n\xc3\xa3o'
p765
I51
sS'contentious'
p766
I51
sS'tasted'
p767
I51
sS'turned'
p768
I49
sS'argument'
p769
I51
sS'sad'
p770
I51
sS'say'
p771
I45
sS'although\xe2\x80\xa6'
p772
I50
sS'breakfast'
p773
I51
sS'saw'
p774
I49
sS'any'
p775
I48
sS'netflix...so'
p776
I51
sS'idear'
p777
I51
sS'overcoming'
p778
I51
sS'note'
p779
I51
sS'take'
p780
I44
sS'objective'
p781
I51
sS'performance'
p782
I51
sS'bootyy'
p783
I51
sS'channel'
p784
I51
sS'ironically'
p785
I51
sS'sure'
p786
I49
sS'paid'
p787
I51
sS'woooo'
p788
I50
sS'influenceswe'
p789
I45
sS'especially'
p790
I51
sS'fills'
p791
I51
sS'later'
p792
I50
sS'hungry'
p793
I51
sS'sunset'
p794
I51
sS'dirig\xc3\xadvel'
p795
I51
sS'link'
p796
I48
sS'playoffs'
p797
I51
sS'\xe2\x9c\xa8'
p798
I51
sS'show'
p799
I51
sS'estoy'
p800
I51
sS'shoe'
p801
I51
sS'ground'
p802
I51
sS'woot'
p803
I50
sS'ratio'
p804
I51
sS'media**'
p805
I51
sS'media*'
p806
I51
sS'dick'
p807
I51
sS'outside'
p808
I50
sS'to\xe2\x80\xa6'
p809
I48
sS'only'
p810
I46
sS'going'
p811
I46
sS'believing'
p812
I51
sS'hanley'
p813
I51
sS'stack683'
p814
I51
sS'plump'
p815
I51
sS'non-conformist\xe2\x80\xa6'
p816
I51
sS'get'
p817
I26
sS'freezing'
p818
I51
sS'truly'
p819
I51
sS'bareback'
p820
I51
sS'nearly'
p821
I50
sS'stroll'
p822
I51
sS'prima'
p823
I51
sS'morning'
p824
I49
sS'naked'
p825
I51
sS'experience'
p826
I50
sS'miles'
p827
I51
sS'todaythursday'
p828
I50
sS'worries'
p829
I51
sS'cooky'
p830
I51
sS'finishing'
p831
I51
sS'where'
p832
I49
sS'vision'
p833
I50
sS"y'all"
p834
I50
sS'saut\xc3\xa9ed'
p835
I51
sS'hoes'
p836
I51
sS'today.\xe2\x80\xa6'
p837
I51
sS'pisces'
p838
I51
sS'calendar'
p839
I50
sS'honeydew'
p840
I51
sS"tomorrow's"
p841
I51
sS'ways'
p842
I51
sS'3'
p843
I51
sS'from\xe2\x80\xa6'
p844
I50
sS'between'
p845
I51
sS'herbal'
p846
I51
sS'reading'
p847
I50
sS'august'
p848
I51
sS'900+'
p849
I51
sS'blame'
p850
I51
sS'jk'
p851
I51
sS'comeback'
p852
I51
sS'tub'
p853
I13
sS'trolling'
p854
I51
sS'impromptu'
p855
I51
sS'dates'
p856
I51
sS'many'
p857
I48
sS'restroom'
p858
I51
sS'enabling'
p859
I51
sS'somewhere'
p860
I51
sS's'
p861
I50
sS'chorizo'
p862
I51
sS'comes'
p863
I49
sS'yearly'
p864
I51
sS'guts'
p865
I51
sS'solving'
p866
I51
sS'color'
p867
I50
sS'witjane'
p868
I51
sS'por'
p869
I51
sS"couldn't"
p870
I51
sS'now\xe2\x80\xa6'
p871
I51
sS'better'
p872
I46
sS'olives'
p873
I51
sS'howard'
p874
I51
sS'barry'
p875
I51
sS'overrrrr'
p876
I51
sS'subscriber'
p877
I51
sS'combined'
p878
I51
sS'room...god'
p879
I51
sS'ravioli'
p880
I51
sS'qu\xc3\xa9'
p881
I51
sS'on\xe2\x80\xa6'
p882
I51
sS'shopping'
p883
I51
sS'neverrrrrr'
p884
I51
sS'photos'
p885
I51
sS'wake'
p886
I51
sS'yuuuuuuup!!!\xe2\x9c\x8f'
p887
I51
sS'lively\xe2\x80\xa6'
p888
I51
sS'former'
p889
I51
sS'those'
p890
I47
sS'runnin'
p891
I51
sS'myself'
p892
I51
sS'these'
p893
I47
sS'sauce'
p894
I51
sS'mount'
p895
I51
sS'ongoing'
p896
I51
sS'knuckifubuck'
p897
I51
sS"n'y"
p898
I51
sS'coffee'
p899
I51
sS'middle'
p900
I51
sS'good'
p901
I43
sS'debs\xe2\x80\xa6'
p902
I51
sS'pas'
p903
I51
sS'pau'
p904
I50
sS'media'
p905
I50
sS'thinkin'
p906
I51
sS'10:30'
p907
I51
sS'tour'
p908
I50
sS'same'
p909
I49
sS'check'
p910
I50
sS'ya'
p911
I51
sS'followers'
p912
I49
sS'events'
p913
I49
sS'week'
p914
I47
sS'oil'
p915
I51
sS'drives'
p916
I51
sS'cheers'
p917
I51
sS'lute'
p918
I51
sS'changing'
p919
I49
sS'nothin'
p920
I51
sS'without'
p921
I51
sS"can't"
p922
I39
sS'model'
p923
I51
sS'reward'
p924
I51
sS'wednesdays'
p925
I51
sS'taxi'
p926
I51
sS'summer'
p927
I50
sS'(x'
p928
I51
sS'steamed'
p929
I51
sS'being'
p930
I46
sS'money'
p931
I49
sS'fueling'
p932
I51
sS'blow'
p933
I51
sS'death'
p934
I51
sS'hint'
p935
I51
sS'thinking'
p936
I51
sS"we've"
p937
I50
sS'seems'
p938
I51
sS'blog'
p939
I51
sS'lets'
p940
I51
sS'4'
p941
I49
sS'stagnant'
p942
I51
sS'heyyyy'
p943
I51
sS'managing\xe2\x80\xa6'
p944
I51
sS'swim'
p945
I51
sS'around'
p946
I49
sS'porto'
p947
I50
sS'rules'
p948
I51
sS'1:1'
p949
I51
sS'delhi'
p950
I51
sS'gonna'
p951
I46
sS'bill."'
p952
I51
sS'early'
p953
I48
sS'traffic'
p954
I51
sS'mom'
p955
I49
sS'pangea'
p956
I51
sS'world'
p957
I48
sS'dare'
p958
I51
sS'heightened'
p959
I51
sS'laughing'
p960
I51
sS'voam'
p961
I51
sS'grub'
p962
I51
sS'hahhaha'
p963
I50
sS'ewww'
p964
I51
sS'thinks'
p965
I51
sS'in\xe2\x80\xa6'
p966
I51
sS'micro'
p967
I51
sS'hoje'
p968
I51
sS'literaly'
p969
I51
sS'moon'
p970
I46
sS'exit'
p971
I51
sS'refer'
p972
I51
sS'//engineer'
p973
I51
sS'power'
p974
I51
sS'seconds'
p975
I51
sS'broken'
p976
I51
sS'^_^'
p977
I51
sS'leadership'
p978
I51
sS';)'
p979
I49
sS'exciting'
p980
I51
sS'palmdale'
p981
I51
sS'throw'
p982
I51
sS'acc'
p983
I51
sS'on'
p984
I16
sS'om'
p985
I51
sS'ok'
p986
I51
sS'oh'
p987
I49
sS'of'
p988
I10
sS'favorite'
p989
I51
sS'meaning'
p990
I51
sS'meal'
p991
I51
sS'practical'
p992
I51
sS'stand'
p993
I51
sS'mixed'
p994
I51
sS'intent'
p995
I50
sS'luck'
p996
I51
sS'backup'
p997
I51
sS'or'
p998
I42
sS'ladies'
p999
I51
sS'parties'
p1000
I51
sS'elementary'
p1001
I51
sS'exhilarated'
p1002
I51
sS'youu'
p1003
I51
sS'your'
p1004
I14
sS'cared'
p1005
I51
sS'her'
p1006
I47
sS'removing'
p1007
I51
sS'there'
p1008
I43
sS'lol'
p1009
I40
sS'los'
p1010
I50
sS'low'
p1011
I51
sS'lot'
p1012
I50
sS'4:30'
p1013
I51
sS"bites..can't"
p1014
I51
sS'fish'
p1015
I51
sS'"experience."'
p1016
I51
sS'spicy'
p1017
I50
sS'complete'
p1018
I51
sS'enough'
p1019
I48
sS'eyeliner'
p1020
I51
sS'jus'
p1021
I44
sS'trying'
p1022
I50
sS'with'
p1023
I14
sS'buying'
p1024
I51
sS'handsome'
p1025
I51
sS'pull'
p1026
I50
sS'applying'
p1027
I51
sS"wasn't"
p1028
I51
sS'tellin'
p1029
I51
sS'rewire'
p1030
I51
sS'"things"'
p1031
I51
sS"2000's"
p1032
I51
sS'age'
p1033
I51
sS'connect'
p1034
I51
sS'wants'
p1035
I51
sS'ohh'
p1036
I51
sS'fascinating\xe2\x80\xa6'
p1037
I51
sS'af'
p1038
I51
sS'am'
p1039
I50
sS'deep'
p1040
I51
sS'an'
p1041
I29
sS'as'
p1042
I17
sS'at'
p1043
I24
sS'watched'
p1044
I51
sS'moves'
p1045
I50
sS'film'
p1046
I51
sS'again'
p1047
I51
sS'roses'
p1048
I51
sS'5'
p1049
I50
sS'you'
p1050
I7
sS"gon'"
p1051
I51
sS'separate'
p1052
I51
sS'2013stand'
p1053
I51
sS'herbs'
p1054
I50
sS'important'
p1055
I51
sS'wordsi'
p1056
I51
sS"she's"
p1057
I50
sS'of\xe2\x80\xa6'
p1058
I50
sS'tricky'
p1059
I50
sS'booked'
p1060
I49
sS'wife'
p1061
I50
sS'having'
p1062
I50
sS'u'
p1063
I48
sS'alright'
p1064
I51
sS'starting'
p1065
I50
sS'original'
p1066
I51
sS"ballin'who"
p1067
I51
sS'all'
p1068
I31
sS'dist'
p1069
I51
sS'forget'
p1070
I51
sS'founder'
p1071
I51
sS'month'
p1072
I48
sS'follow'
p1073
I51
sS'resol'
p1074
I51
sS'engi-preneurs'
p1075
I51
sS'apartment'
p1076
I51
sS'tv'
p1077
I50
sS'tu'
p1078
I51
sS'thursday'
p1079
I50
sS'to'
p1080
I3
sS'th'
p1081
I50
sS'dressing'
p1082
I51
sS'even\xe2\x80\xa6'
p1083
I50
sS'onlocation'
p1084
I51
sS'sound'
p1085
I51
sS'woman'
p1086
I51
sS'appointment'
p1087
I51
sS'7'
p1088
I50
sS'very'
p1089
I47
sS'horror'
p1090
I51
sS'fav'
p1091
I51
sS'"every'
p1092
I51
sS'worst'
p1093
I51
sS'fall'
p1094
I50
sS'ticket'
p1095
I50
sS'heaven'
p1096
I13
sS'hooking'
p1097
I51
sS'sans'
p1098
I51
sS'--'
p1099
I35
sS'list'
p1100
I49
sS'menos'
p1101
I51
sS'small'
p1102
I51
sS"i'll"
p1103
I48
sS'neighborhood'
p1104
I51
sS'instagram'
p1105
I51
sS'louvre'
p1106
I51
sS'tea'
p1107
I51
sS'past'
p1108
I50
sS'titles'
p1109
I51
sS'perspective'
p1110
I51
sS'pass'
p1111
I51
sS'nba'
p1112
I51
sS'casual'
p1113
I51
sS'what'
p1114
I40
sS'sun'
p1115
I48
sS'emotions'
p1116
I51
sS'abo'
p1117
I51
sS"cabinet...that's"
p1118
I51
sS'sus'
p1119
I50
sS'sur'
p1120
I51
sS'ratchet'
p1121
I51
sS'learned'
p1122
I51
sS'method'
p1123
I51
sS'lesbos'
p1124
I51
sS'vamos'
p1125
I51
sS'full'
p1126
I50
sS"c'mon"
p1127
I51
sS'bizdev'
p1128
I51
sS'hours'
p1129
I50
sS'operating'
p1130
I51
sS'tolerance'
p1131
I51
sS'relaxation'
p1132
I51
sS'transformation'
p1133
I51
sS'fantasies'
p1134
I51
sS'ahead'
p1135
I51
sS'cucumbers'
p1136
I51
sS'lasagna'
p1137
I51
sS'social'
p1138
I49
sS'options'
p1139
I51
sS'sticking'
p1140
I51
sS'conoci\xc3\xb3'
p1141
I51
sS'family'
p1142
I50
sS'vin'
p1143
I51
sS'loves...i'
p1144
I51
sS'by\xe2\x80\xa6'
p1145
I51
sS'gosh'
p1146
I51
sS'eye'
p1147
I49
sS'takes'
p1148
I50
sS'asta'
p1149
I51
sS'two'
p1150
I50
sS'shits'
p1151
I51
sS'more'
p1152
I42
sS'fellow'
p1153
I51
sS'2013a'
p1154
I51
sS'telephone'
p1155
I51
sS'tested'
p1156
I51
sS"ain't"
p1157
I48
sS'basically'
p1158
I51
sS'hour'
p1159
I49
sS'sa'
p1160
I51
sS'sucks'
p1161
I51
sS'pepino'
p1162
I51
sS'remain'
p1163
I51
sS'learn'
p1164
I51
sS'knocked'
p1165
I51
sS'beautiful'
p1166
I50
sS'prompt'
p1167
I50
sS'challenging'
p1168
I49
sS'brown'
p1169
I51
sS'share'
p1170
I50
sS'womaninyour'
p1171
I51
sS'lolol'
p1172
I51
sS'pond'
p1173
I51
sS'outfits'
p1174
I51
sS'creates'
p1175
I50
sS'needs'
p1176
I51
sS'goal'
p1177
I51
sS'awkward'
p1178
I51
sS'desperation'
p1179
I51
sS'rather'
p1180
I49
sS'into\xe2\x80\xa6'
p1181
I49
sS'jessg_3'
p1182
I51
sS'influences'
p1183
I50
sS'sandwich'
p1184
I51
sS'okay'
p1185
I51
sS'plans'
p1186
I49
sS'fb'
p1187
I51
sS'coming'
p1188
I50
sS'backyard'
p1189
I51
sS'a'
p1190
I2
sS'crowded'
p1191
I51
sS'generic'
p1192
I51
sS'pay'
p1193
I51
sS'dream'
p1194
I51
sS'playing'
p1195
I51
sS"that's"
p1196
I48
sS'riddle'
p1197
I51
sS'mexican'
p1198
I50
sS'help'
p1199
I47
sS"don't"
p1200
I34
sS'sooo'
p1201
I51
sS'mission'
p1202
I50
sS'wiener'
p1203
I50
sS'organize'
p1204
I51
sS'through'
p1205
I46
sS'hell'
p1206
I50
sS"((:don't"
p1207
I51
sS'astrology'
p1208
I51
sS'24'
p1209
I51
sS'25'
p1210
I51
sS'26'
p1211
I51
sS'27'
p1212
I51
sS'20'
p1213
I51
sS'21'
p1214
I51
sS'22'
p1215
I50
sS'23'
p1216
I49
sS'energies'
p1217
I51
sS'sale'
p1218
I51
sS'28'
p1219
I51
sS'actually'
p1220
I49
sS'late'
p1221
I49
sS'bout'
p1222
I47
sS'might'
p1223
I38
sS"haven't"
p1224
I51
sS'evening'
p1225
I51
sS'ceo'
p1226
I50
sS'fee'
p1227
I51
sS'sucked'
p1228
I51
sS'easily'
p1229
I49
sS'pregnant'
p1230
I51
sS'always'
p1231
I46
sS'asparagus'
p1232
I50
sS'someone'
p1233
I49
sS'turns'
p1234
I51
sS'aligns'
p1235
I51
sS'found'
p1236
I49
sS'shocking'
p1237
I51
sS"isn't"
p1238
I51
sS'everyone'
p1239
I51
sS'delicious'
p1240
I48
sS'accelerator'
p1241
I51
sS'house'
p1242
I51
sS'energy'
p1243
I49
sS'hard'
p1244
I49
sS'dia'
p1245
I51
sS'expect'
p1246
I51
sS'event'
p1247
I51
sS'really'
p1248
I47
sS'funding'
p1249
I50
sS'missed'
p1250
I50
sS'"post"'
p1251
I51
sS'since'
p1252
I50
sS'health'
p1253
I51
sS'hill'
p1254
I51
sS"they'll"
p1255
I50
sS'highway'
p1256
I51
sS'ass'
p1257
I49
sS'lulled'
p1258
I51
sS'belief'
p1259
I50
sS'friday'
p1260
I51
sS'guess'
p1261
I50
sS'pub'
p1262
I51
sS'put'
p1263
I51
sS'turnout'
p1264
I51
sS'cookin'
p1265
I51
sS'todaywednesday'
p1266
I51
sS'terrible'
p1267
I50
sS'american'
p1268
I51
sS'twenty'
p1269
I51
sS'undergo'
p1270
I51
sS'major'
p1271
I51
sS'\xc3\xa0'
p1272
I51
sS'dont'
p1273
I50
sS'cupo'
p1274
I51
sS'feel'
p1275
I37
sS'fancy'
p1276
I51
sS'feet'
p1277
I51
sS'done'
p1278
I48
sS'miss'
p1279
I50
sS'story'
p1280
I48
sS'heads'
p1281
I51
sS'together'
p1282
I49
sS'least'
p1283
I50
sS'scallion'
p1284
I51
sS'statement'
p1285
I51
sS'selling'
p1286
I51
sS'relationship'
p1287
I51
sS'behind'
p1288
I50
sS'relieved'
p1289
I51
sS'park'
p1290
I41
sS'thangbring'
p1291
I51
sS'part'
p1292
I51
sS'boots'
p1293
I51
sS'believe'
p1294
I49
sS'king'
p1295
I51
sS'kind'
p1296
I51
sS'b'
p1297
I50
sS'thingsyou'
p1298
I51
sS'condolences'
p1299
I51
sS'double'
p1300
I50
sS'grey'
p1301
I50
sS'you\xe2\x80\xa6'
p1302
I50
sS'supposed'
p1303
I51
sS'dang'
p1304
I51
sS'toward'
p1305
I50
sS'interactive'
p1306
I51
sS'deciding'
p1307
I51
sS'~~'
p1308
I51
sS'p"a"rk'
p1309
I51
sS'lie'
p1310
I50
sS'todaysaturday'
p1311
I49
sS'para'
p1312
I51
sS'lil'
p1313
I51
sS'2013this'
p1314
I50
sS'couch'
p1315
I51
sS'also'
p1316
I50
sS'breeze'
p1317
I51
sS'los\xe2\x80\xa6'
p1318
I51
sS'build'
p1319
I51
sS'play'
p1320
I51
sS'16hrs'
p1321
I51
sS'hires'
p1322
I51
sS'reunited'
p1323
I51
sS'most'
p1324
I51
sS'plan'
p1325
I50
sS'significant'
p1326
I51
sS'nothing'
p1327
I50
sS'extremely'
p1328
I50
sS'sagittarius\xe2\x80\xa6'
p1329
I51
sS'clear'
p1330
I51
sS'sometimes'
p1331
I48
sS'clean'
p1332
I51
sS'blend'
p1333
I51
sS'lying'
p1334
I51
sS'corgis'
p1335
I51
sS'thomas'
p1336
I51
sS'hillside'
p1337
I51
sS'vaginatarian'
p1338
I51
sS'(~'
p1339
I51
sS'with\xe2\x80\xa6'
p1340
I50
sS'fine'
p1341
I50
sS'find'
p1342
I47
sS'[+]'
p1343
I51
sS'quer'
p1344
I51
sS'pretty'
p1345
I51
sS'8'
p1346
I49
sS'hit'
p1347
I49
sS'express'
p1348
I51
sS'funghi'
p1349
I51
sS'feels'
p1350
I50
sS'during'
p1351
I51
sS'him'
p1352
I46
sS'resolve'
p1353
I51
sS'sustainably'
p1354
I51
sS'progressive'
p1355
I51
sS'is\xe2\x80\xa6'
p1356
I50
sS'hype'
p1357
I51
sS'insane'
p1358
I51
sS'set'
p1359
I51
sS'art'
p1360
I51
sS'overwhelm'
p1361
I51
sS'see'
p1362
I45
sS'defense'
p1363
I51
sS'reba'
p1364
I51
sS'are'
p1365
I18
sS'close'
p1366
I51
sS'forthcoming'
p1367
I51
sS'crunching'
p1368
I51
sS'shower'
p1369
I51
sS'unsettling'
p1370
I51
sS'movie'
p1371
I51
sS'currently'
p1372
I51
sS'please'
p1373
I48
sS'fans'
p1374
I51
sS'until\xe2\x80\xa6'
p1375
I51
sS'nope'
p1376
I51
sS'knowing'
p1377
I50
sS'latin'
p1378
I51
sS'creating'
p1379
I50
sS'amused'
p1380
I51
sS'cacique'
p1381
I51
sS'opposition'
p1382
I51
sS'c'
p1383
I51
sS'enables'
p1384
I51
sS'last'
p1385
I47
sS'restaurant'
p1386
I50
sS'secrets'
p1387
I51
sS'thot'
p1388
I51
sS"wouldn't"
p1389
I51
sS'barely'
p1390
I51
sS'sensitive'
p1391
I51
sS'rose'
p1392
I51
sS'cuben'
p1393
I51
sS'\xe2\x98\xba'
p1394
I51
sS'point'
p1395
I50
sS'simple'
p1396
I51
sS'sweet'
p1397
I51
sS'wen'
p1398
I51
sS'guzman'
p1399
I51
sS'changers'
p1400
I51
sS'monthly'
p1401
I51
sS'create'
p1402
I51
sS'thesunsetsasthepillowtalks'
p1403
I51
sS'creativity'
p1404
I51
sS'due'
p1405
I51
sS'hitting'
p1406
I51
sS'rivals'
p1407
I51
sS'secret'
p1408
I51
sS'dropping'
p1409
I51
sS'damn'
p1410
I50
sS'maintenance'
p1411
I51
sS't\xc3\xb3mate'
p1412
I51
sS'woke'
p1413
I50
sS'pm'
p1414
I51
sS"dance'"
p1415
I51
sS'boy'
p1416
I51
sS'fire'
p1417
I49
sS"what's"
p1418
I50
sS'lezzie'
p1419
I51
sS'else'
p1420
I50
sS'fund'
p1421
I50
sS'understand'
p1422
I49
sS'towns'
p1423
I51
sS'bruschetta'
p1424
I51
sS'look'
p1425
I45
sS'straight'
p1426
I51
sS'expanded'
p1427
I51
sS'tolerate'
p1428
I51
sS'while'
p1429
I50
sS'fun'
p1430
I50
sS'pack'
p1431
I51
sS'real'
p1432
I49
sS'portugal'
p1433
I50
sS'rip'
p1434
I51
sS'todayfriday'
p1435
I50
sS'influencesour'
p1436
I48
sS"movin'"
p1437
I51
sS'ready'
p1438
I47
sS'rid'
p1439
I51
sS'currents'
p1440
I51
sS'stimulates'
p1441
I51
sS'anymore'
p1442
I51
sS'commune'
p1443
I51
sS'mountain'
p1444
I51
sS'cigar'
p1445
I51
sS'yesterday'
p1446
I51
sS'flows'
p1447
I51
sS'moving'
p1448
I51
sS'recent'
p1449
I50
sS'listo"'
p1450
I51
sS'ooopps'
p1451
I51
sS'chickens'
p1452
I51
sS'anybody'
p1453
I51
sS'obviously'
p1454
I51
sS'person'
p1455
I50
sS'y'
p1456
I50
sS'spend'
p1457
I51
sS'\xe2\x9d\xa4'
p1458
I51
sS'2013even'
p1459
I51
sS'influencesinformation'
p1460
I51
sS'hurryyy'
p1461
I51
sS'regardless'
p1462
I51
sS'letting'
p1463
I51
sS'cut'
p1464
I51
sS'cup'
p1465
I51
sS'$500m'
p1466
I51
sS'cuz'
p1467
I51
sS'source'
p1468
I51
sS'grapefruit'
p1469
I51
sS'parents'
p1470
I51
sS'directives'
p1471
I51
sS'excited'
p1472
I49
sS'chairman'
p1473
I51
sS'big'
p1474
I50
sS'couple'
p1475
I51
sS'angel-backed'
p1476
I51
sS'matters'
p1477
I51
sS'game'
p1478
I49
sS'bit'
p1479
I49
sS'projects'
p1480
I51
sS'd'
p1481
I51
sS'pesakhim'
p1482
I51
sS'alisonfrancine'
p1483
I51
sS'often'
p1484
I51
sS'fucking'
p1485
I46
sS'spring'
p1486
I51
sS'some'
p1487
I45
sS'back'
p1488
I45
sS'experienced'
p1489
I51
sS'scale'
p1490
I51
sS'absolutely'
p1491
I51
sS'connecting'
p1492
I50
sS'dating'
p1493
I51
sS'misint'
p1494
I51
sS'either'
p1495
I50
sS'be'
p1496
I20
sS'bf'
p1497
I51
sS'eating'
p1498
I50
sS'bc'
p1499
I51
sS'laker'
p1500
I51
sS'hahahahaha'
p1501
I51
sS'santa'
p1502
I51
sS'chick'
p1503
I51
sS'feb'
p1504
I51
sS'intense'
p1505
I51
sS'anything'
p1506
I49
sS'delish'
p1507
I51
sS'no\xc3\xa9'
p1508
I51
sS'"yo'
p1509
I51
sS'follow-back'
p1510
I51
sS'idk'
p1511
I50
sS'high-heeled'
p1512
I51
sS'wanna'
p1513
I49
sS'dwight'
p1514
I51
sS'seeing'
p1515
I51
sS'into'
p1516
I41
sS'within'
p1517
I51
sS'folsom'
p1518
I51
sS'because'
p1519
I42
sS'lesson'
p1520
I51
sS'cho'
p1521
I51
sS'much\xe2\x80\xa6'
p1522
I51
sS'spicessss'
p1523
I51
sS'long'
p1524
I50
sS"we're"
p1525
I45
sS'forward'
p1526
I51
sS'invite'
p1527
I50
sS'hawaiian'
p1528
I51
sS'prez'
p1529
I51
sS'5ifty'
p1530
I51
sS'line'
p1531
I49
sS'biggie'
p1532
I51
sS'paola'
p1533
I51
sS'up'
p1534
I27
sS'us'
p1535
I45
sS'ur'
p1536
I50
sS'planet'
p1537
I51
sS'paired'
p1538
I51
sS'highlight'
p1539
I51
sS'today\xe2\x80\xa6'
p1540
I49
sS'chad'
p1541
I51
sS'likewise'
p1542
I51
sS"freeway'"
p1543
I51
sS'moon\xe2\x80\xa6'
p1544
I49
sS'evocative'
p1545
I51
sS'corners'
p1546
I51
sS'nah'
p1547
I51
sS'peace'
p1548
I51
sS'nick'
p1549
I49
sS'nap'
p1550
I50
sS'dry.\xe2\x80\x9d'
p1551
I51
sS'nice'
p1552
I49
sS'lend'
p1553
I51
sS'u-turn'
p1554
I51
sS'giiibaaaaaaaayyyyy'
p1555
I51
sS'helping'
p1556
I51
sS'rise'
p1557
I51
sS'reservation'
p1558
I50
sS'ago'
p1559
I49
sS'land'
p1560
I51
sS'e'
p1561
I44
sS'practically'
p1562
I51
sS'rescued'
p1563
I51
sS'annoyed'
p1564
I51
sS'fresh'
p1565
I51
sS'kickin'
p1566
I51
sS'once'
p1567
I49
sS'code'
p1568
I51
sS'gr'
p1569
I51
sS'skammin'
p1570
I51
sS'wrangle'
p1571
I51
sS'windy'
p1572
I51
sS'go'
p1573
I39
sS'rhonda'
p1574
I51
sS'peanut'
p1575
I49
sS'concerned'
p1576
I50
sS'migh'
p1577
I51
sS'young'
p1578
I51
sS'send'
p1579
I49
sS'helps'
p1580
I51
sS'stable'
p1581
I51
sS'women'
p1582
I51
sS'breathing'
p1583
I51
sS'center)'
p1584
I51
sS'continues'
p1585
I50
sS'hurts....i'
p1586
I51
sS'wave'
p1587
I51
sS'putting'
p1588
I51
sS'recreation'
p1589
I50
sS'announcing'
p1590
I51
sS'evo'
p1591
I51
sS'harbor'
p1592
I51
sS'gettin'
p1593
I49
sS'try'
p1594
I49
sS'reich'
p1595
I51
sS'rabbit'
p1596
I51
sS'bernie'
p1597
I51
sS'clients'
p1598
I51
sS'an\xe2\x80\xa6'
p1599
I51
sS'jump'
p1600
I51
sS'picked'
p1601
I50
sS'dynamics'
p1602
I51
sS'fermenting'
p1603
I51
sS'makers'
p1604
I51
sS'\xc3\x8dndio'
p1605
I51
sS'business'
p1606
I51
sS'overwhelmed'
p1607
I51
sS'access'
p1608
I51
sS'lmfao'
p1609
I51
sS'waiting'
p1610
I51
sS'bird'
p1611
I51
sS'body'
p1612
I51
sS'stance'
p1613
I51
sS'sinuses'
p1614
I51
sS'leo'
p1615
I51
sS'highly'
p1616
I51
sS'growing'
p1617
I51
sS'packing'
p1618
I50
sS'let'
p1619
I43
sS'others'
p1620
I51
sS'great'
p1621
I42
sS'engage'
p1622
I51
sS'talent'
p1623
I51
sS'receive'
p1624
I51
sS'31'
p1625
I51
sS'alaska'
p1626
I51
sS'leaving'
p1627
I50
sS'eatin'
p1628
I51
sS'makes'
p1629
I50
sS'honor'
p1630
I51
sS'named'
p1631
I51
sS'$99'
p1632
I51
sS'win'
p1633
I50
sS'manage'
p1634
I50
sS'kristine'
p1635
I51
sS'combat'
p1636
I51
sS'marlinnssss'
p1637
I51
sS'use'
p1638
I51
sS'refers'
p1639
I51
sS'from'
p1640
I29
sS'&'
p1641
I46
sS'remains'
p1642
I51
sS'next'
p1643
I46
sS'few'
p1644
I51
sS'cb400f'
p1645
I51
sS'babe'
p1646
I51
sS'started'
p1647
I51
sS'inclined'
p1648
I51
sS'about'
p1649
I39
sS'confused'
p1650
I51
sS'trail'
p1651
I50
sS'carrying'
p1652
I51
sS'k++'
p1653
I51
sS'baby'
p1654
I46
sS'montecito'
p1655
I43
sS'charity'
p1656
I51
sS'salad'
p1657
I51
sS'f'
p1658
I51
sS'this'
p1659
I19
sS'when'
p1660
I32
sS'prompts'
p1661
I51
sS'meet'
p1662
I50
sS'spyder'
p1663
I51
sS'sabe'
p1664
I51
sS'control'
p1665
I51
sS'wed'
p1666
I51
sS'halloween'
p1667
I50
sS'pieces'
p1668
I51
sS'effectively'
p1669
I51
sS'assumptions'
p1670
I51
sS'something'
p1671
I47
sS'slip'
p1672
I51
sS'influencesirrepressible'
p1673
I51
sS'lamb'
p1674
I51
sS'reason\xe2\x80\xa6'
p1675
I51
sS'chia'
p1676
I51
sS'today!!and'
p1677
I51
sS'feta'
p1678
I51
sS'instead'
p1679
I51
sS'gallo'
p1680
I51
sS'tension'
p1681
I50
sS'honda'
p1682
I51
sS'farm'
p1683
I51
sS'watch'
p1684
I50
sS'tied'
p1685
I51
sS'taco'
p1686
I50
sS'fray'
p1687
I51
sS'realized'
p1688
I50
sS'honestly'
p1689
I51
sS'normie'
p1690
I51
sS'unsolved'
p1691
I51
sS"won't"
p1692
I51
sS'looks'
p1693
I51
sS'le'
p1694
I51
sS'la'
p1695
I46
sS'lo'
p1696
I51
sS"pj's"
p1697
I51
sS'degrees'
p1698
I51
sS"2013it's"
p1699
I50
sS'dad'
p1700
I49
sS'practice'
p1701
I50
sS'youththis'
p1702
I51
sS'kiss'
p1703
I51
sS'front'
p1704
I51
sS'kindness'
p1705
I51
sS'day'
p1706
I25
sS'isn\xe2\x80\x99t'
p1707
I51
sS'tisk'
p1708
I49
sS'moda'
p1709
I51
sS'slide'
p1710
I51
sS'vibrations'
p1711
I51
sS'as\xe2\x80\xa6'
p1712
I50
sS'doing'
p1713
I49
sS'overwhelming'
p1714
I51
sS'our'
p1715
I20
sS'out'
p1716
I37
sS'cerebral'
p1717
I51
sS'rec'
p1718
I51
sS'cause'
p1719
I51
sS'announced'
p1720
I51
sS'bww'
p1721
I51
sS'bam'
p1722
I51
sS'could'
p1723
I46
sS'times'
p1724
I49
sS'audubon'
p1725
I49
sS'lesbians...but'
p1726
I51
sS'retain'
p1727
I51
sS'south'
p1728
I51
sS'designed'
p1729
I51
sS'distracted'
p1730
I51
sS'coachdo'
p1731
I51
sS'powerful'
p1732
I50
sS'bitch'
p1733
I49
sS'reached'
p1734
I51
sS"doesn't"
p1735
I50
sS'start'
p1736
I44
sS'chased'
p1737
I51
sS'system'
p1738
I51
sS'mal'
p1739
I51
sS'priority'
p1740
I51
sS'their'
p1741
I45
sS'cabin'
p1742
I51
sS'exactly'
p1743
I51
sS'but\xe2\x80\xa6'
p1744
I51
sS'july'
p1745
I51
sS'botox'
p1746
I51
sS'ramalho'
p1747
I51
sS'holland'
p1748
I50
sS'morph'
p1749
I51
sS'bed'
p1750
I48
sS'loves'
p1751
I49
sS'candles'
p1752
I51
sS'morrison'
p1753
I51
sS'are\xe2\x80\xa6'
p1754
I51
sS'tonight'
p1755
I50
sS'puttblug'
p1756
I51
sS'have'
p1757
I22
sS'need'
p1758
I45
sS'afraid\xe2\x80\xa6'
p1759
I51
sS'border'
p1760
I51
sS'clearly'
p1761
I51
sS'mini-lake.\xe2\x80\xa6'
p1762
I51
sS'boyyy'
p1763
I51
sS'afraid'
p1764
I51
sS'mix'
p1765
I50
sS'concerns'
p1766
I51
sS'cheatsheet'
p1767
I51
sS'which'
p1768
I50
sS'willful'
p1769
I51
sS'='
p1770
I51
sS'unless'
p1771
I51
sS'manor'
p1772
I51
sS'passionately'
p1773
I51
sS'who'
p1774
I41
sS"where's"
p1775
I51
sS'connected'
p1776
I50
sS'why'
p1777
I44
sS'[+]extrait'
p1778
I51
sS'seguro'
p1779
I49
sS'stronger'
p1780
I51
sS'face'
p1781
I48
sS'se'
p1782
I51
sS'pictures'
p1783
I51
sS'baaallin'
p1784
I51
sS'fact'
p1785
I49
sS'gain'
p1786
I51
sS'son'
p1787
I51
sS'impression'
p1788
I51
sS'agreed'
p1789
I51
sS'charles'
p1790
I51
sS'anyway'
p1791
I51
sS"90's"
p1792
I51
sS'portfolio'
p1793
I51
sS'chicken'
p1794
I50
sS'promote'
p1795
I51
sS'('
p1796
I50
sS'should'
p1797
I43
sS'jan'
p1798
I51
sS'satan'
p1799
I51
sS'bogged'
p1800
I51
sS'riding'
p1801
I51
sS'local'
p1802
I51
sS'hope'
p1803
I49
sS'handle'
p1804
I51
sS'sagittarius'
p1805
I51
sS'abba'
p1806
I51
sS'watching'
p1807
I49
sS'beat'
p1808
I50
sS'tbt'
p1809
I50
sS'bear'
p1810
I49
sS'tbh'
p1811
I49
sS'burglars'
p1812
I51
sS'cavalier'
p1813
I51
sS'perfection'
p1814
I51
sS'words'
p1815
I51
sS'course'
p1816
I51
sS'numerous'
p1817
I51
sS'gracious--this'
p1818
I51
sS'teams'
p1819
I51
sS'she'
p1820
I48
sS'portarnos'
p1821
I51
sS'grab'
p1822
I51
sS'nl'
p1823
I50
sS'artichoke'
p1824
I51
sS'btw'
p1825
I51
sS'trixs'
p1826
I51
sS'angry\xe2\x80\xa6'
p1827
I51
sS'terrain'
p1828
I51
sS'travis'
p1829
I51
sS'intensity'
p1830
I51
sS'losangeles'
p1831
I51
sS'westsidegermanshepherdrescue'
p1832
I51
sS'written'
p1833
I51
sS'juggle'
p1834
I51
sS'influencesexpressing'
p1835
I51
sS'email'
p1836
I51
sS'bought'
p1837
I51
sS'ends'
p1838
I51
sS'tripas'
p1839
I51
sS'key'
p1840
I50
sS'group'
p1841
I51
sS'dobe'
p1842
I51
sS'instant'
p1843
I51
sS'career'
p1844
I51
sS'taking'
p1845
I50
sS'conmigo'
p1846
I51
sS'drug'
p1847
I50
sS'atleast'
p1848
I51
sS'puff'
p1849
I51
sS'wear'
p1850
I51
sS'ch'
p1851
I51
sS'co'
p1852
I51
sS'ucr'
p1853
I51
sS'ca'
p1854
I48
sS'makin'
p1855
I51
sS'walk'
p1856
I47
sS'arugula'
p1857
I51
sS'modeling'
p1858
I51
sS'poem'
p1859
I51
sS'"happiness'
p1860
I51
sS"it's"
p1861
I30
sS'cent'
p1862
I51
sS'poet'
p1863
I51
sS'>'
p1864
I51
sS'--6'
p1865
I51
sS'hmu'
p1866
I51
sS'releasing'
p1867
I51
sS'-.-'
p1868
I50
sS'general'
p1869
I37
sS'spain'
p1870
I51
sS'self-esteem'
p1871
I51
sS'align'
p1872
I51
sS'value'
p1873
I51
sS'will'
p1874
I48
sS'hahaha'
p1875
I51
sS'wild'
p1876
I51
sS'supply'
p1877
I51
sS'almost'
p1878
I49
sS'linkedin'
p1879
I51
sS'partner'
p1880
I51
sS')'
p1881
I51
sS'member'
p1882
I51
sS'digging'
p1883
I51
sS'inch'
p1884
I51
sS'party'
p1885
I50
sS'gets'
p1886
I50
sS'difficult'
p1887
I48
sS'ball'
p1888
I49
sS'emotionally'
p1889
I51
sS'collab'
p1890
I51
sS'llaaaayyyyyyy'
p1891
I51
sS'fierce'
p1892
I51
sS'broccoli'
p1893
I51
sS'//'
p1894
I45
sS'off'
p1895
I45
sS'center'
p1896
I47
sS'masochist'
p1897
I51
sS'i'
p1898
I4
sS'well'
p1899
I46
sS'fighting'
p1900
I51
sS'thought'
p1901
I49
sS'stores'
p1902
I51
sS'less'
p1903
I48
sS"should've"
p1904
I51
sS'6am'
p1905
I51
sS'skill'
p1906
I51
sS'happiness'
p1907
I49
sS'taken'
p1908
I51
sS'web'
p1909
I51
sS'quiero'
p1910
I51
sS'field'
p1911
I51
sS'vida'
p1912
I51
sS'bell'
p1913
I51
sS"we're\xe2\x80\xa6"
p1914
I51
sS'lake'
p1915
I50
sS'realize'
p1916
I51
sS'add'
p1917
I49
sS'other'
p1918
I51
sS'kick'
p1919
I51
sS'livin'
p1920
I51
sS"who's"
p1921
I51
sS'five'
p1922
I51
sS'know'
p1923
I37
sS'loss'
p1924
I51
sS'lincoln'
p1925
I51
sS'mhm'
p1926
I51
sS'like'
p1927
I28
sS'lost'
p1928
I50
sS'understandbut'
p1929
I51
sS'hair\xe2\x80\xa6'
p1930
I51
sS'fianc\xc3\xa9'
p1931
I51
sS'clutch'
p1932
I51
sS'become'
p1933
I49
sS'works'
p1934
I51
sS'sourdough'
p1935
I51
sS'italian'
p1936
I51
sS'scale-up'
p1937
I51
sS'shed'
p1938
I51
sS'nigga'
p1939
I47
sS'propel'
p1940
I51
sS'smoothly'
p1941
I51
sS'away\xe2\x80\xa6'
p1942
I51
sS'footage'
p1943
I51
sS'self'
p1944
I51
sS'hair'
p1945
I50
sS'convey'
p1946
I51
sS'home'
p1947
I47
sS'supportive'
p1948
I51
sS'lead'
p1949
I51
sS'literally'
p1950
I47
sS'lean'
p1951
I51
sS'esy'
p1952
I51
sS'now.\xe2\x80\xa6'
p1953
I51
sS'rewarding'
p1954
I51
sS'does'
p1955
I49
sS'under\xe2\x80\xa6'
p1956
I51
sS'pepper'
p1957
I51
sS'important...way'
p1958
I51
sS'schedule'
p1959
I51
sS'pressure'
p1960
I50
sS'although'
p1961
I43
sS'stage'
p1962
I51
sS'throne'
p1963
I51
sS'sister'
p1964
I49
sS':-)'
p1965
I51
sS'actual'
p1966
I51
sS'trines'
p1967
I51
sS'getting'
p1968
I50
sS'certainty'
p1969
I51
sS'angeles'
p1970
I48
sS'carries'
p1971
I51
sS'swear'
p1972
I51
sS'own'
p1973
I45
sS'weather'
p1974
I51
sS'ms.duran'
p1975
I51
sS'yrs'
p1976
I51
sS'function'
p1977
I51
sS'buy'
p1978
I50
sS'tenemos'
p1979
I51
sS'hr'
p1980
I51
sS'funds'
p1981
I51
sS'coke'
p1982
I51
sS'bitches'
p1983
I51
sS'but'
p1984
I29
sS'delivery'
p1985
I51
sS'reminds'
p1986
I50
sS'hi'
p1987
I51
sS'ho'
p1988
I51
sS'>>>>>'
p1989
I51
sS'eat'
p1990
I50
sS'he'
p1991
I46
sS'made'
p1992
I51
sS'ooooooooooooh'
p1993
I51
sS'wish'
p1994
I50
sS'\xc2\xab'
p1995
I51
sS'excitement'
p1996
I51
sS'demonstrate'
p1997
I51
sS'problem'
p1998
I50
sS'piece'
p1999
I51
sS'minutes'
p2000
I51
sS'worryin'
p2001
I51
sS'eagerness'
p2002
I51
sS'pin'
p2003
I51
sS'contribute'
p2004
I51
sS'pie'
p2005
I51
sS'beats'
p2006
I51
sS'goodness'
p2007
I51
sS'shooting'
p2008
I51
sS'pit'
p2009
I51
sS'girl'
p2010
I49
sS'talmud'
p2011
I51
sS"alone's"
p2012
I51
sS'gay'
p2013
I51
sS'48'
p2014
I51
sS'lately'
p2015
I51
sS'book'
p2016
I49
sS'class'
p2017
I50
sS'june'
p2018
I50
sS"d'oeuvres"
p2019
I51
sS'accomplish'
p2020
I51
sS'kinda'
p2021
I51
sS'friends'
p2022
I50
sS'goin'
p2023
I51
sS'ghost'
p2024
I51
sS'pode'
p2025
I51
sS'workkkk'
p2026
I51
sS"it's\xe2\x80\xa6"
p2027
I51
sS'preggo'
p2028
I51
sS'lives'
p2029
I51
sS'expands'
p2030
I51
s.