(dp0
S''
p1
I1
sS'cheetos'
p2
I32
sS'all'
p3
I23
sS'forget'
p4
I32
sS'dance'
p5
I31
sS'hint'
p6
I32
sS'tweeter'
p7
I32
sS'month'
p8
I32
sS'betch'
p9
I32
sS'disc'
p10
I32
sS'sleep'
p11
I28
sS'thirst'
p12
I32
sS'go'
p13
I25
sS'follow'
p14
I32
sS'ddt'
p15
I32
sS'hate'
p16
I32
sS'issues'
p17
I32
sS'row'
p18
I32
sS'jesar'
p19
I32
sS'imma'
p20
I31
sS'\xe2\x98\xba\xef\xb8\x8f'
p21
I32
sS'send'
p22
I30
sS'to'
p23
I4
sS'finally'
p24
I32
sS'tf'
p25
I32
sS'aux'
p26
I32
sS'sorry'
p27
I31
sS'sent'
p28
I31
sS'division'
p29
I32
sS'song'
p30
I32
sS'far'
p31
I32
sS'continues'
p32
I32
sS'fat'
p33
I31
sS'me'
p34
I10
sS'every'
p35
I32
sS'fam'
p36
I32
sS'telling'
p37
I32
sS'join'
p38
I32
sS'blast'
p39
I31
sS'strand'
p40
I32
sS'cool'
p41
I31
sS'school'
p42
I27
sS'mc'
p43
I31
sS'skills'
p44
I32
sS'mireya'
p45
I32
sS'laying'
p46
I32
sS'eve'
p47
I32
sS'try'
p48
I30
sS'assignments'
p49
I32
sS'soooo'
p50
I32
sS'team'
p51
I32
sS'quick'
p52
I31
sS'guy'
p53
I32
sS'ups'
p54
I32
sS'clothes'
p55
I32
sS"i'll"
p56
I28
sS'work'
p57
I30
sS'booty'
p58
I30
sS'regret'
p59
I32
sS'sign'
p60
I32
sS'download'
p61
I32
sS'n'
p62
I32
sS'trash'
p63
I32
sS'irritated'
p64
I31
sS'even'
p65
I29
sS'what'
p66
I23
sS'giving'
p67
I31
sS'me.\xe2\x80\x9dokay'
p68
I32
sS'emotions'
p69
I32
sS'18'
p70
I32
sS'deleted'
p71
I32
sS'sus'
p72
I32
sS'goes'
p73
I32
sS'new'
p74
I31
sS'learned'
p75
I32
sS'ahhhhh'
p76
I32
sS'vamos'
p77
I32
sS'body'
p78
I32
sS'meg'
p79
I32
sS'full'
p80
I31
sS'lammeeeeeee'
p81
I32
sS'never'
p82
I31
sS'chang'
p83
I32
sS'here'
p84
I32
sS'chemtrails'
p85
I32
sS'knocked'
p86
I32
sS'entertain'
p87
I32
sS'let'
p88
I30
sS'conceited'
p89
I32
sS'address'
p90
I32
sS'alone'
p91
I32
sS'luis'
p92
I32
sS"aren't"
p93
I31
sS'teacher'
p94
I32
sS'wait'
p95
I30
sS'great'
p96
I31
sS'lol'
p97
I7
sS'items'
p98
I32
sS'supppp'
p99
I32
sS'leaving'
p100
I32
sS'tv'
p101
I32
sS'smoke'
p102
I32
sS'usually'
p103
I32
sS'breatheeeeeeeeeee'
p104
I32
sS'weird'
p105
I30
sS"dad's"
p106
I32
sS'rafael'
p107
I32
sS'genuinely'
p108
I32
sS'control'
p109
I32
sS'love'
p110
I14
sS'hiking'
p111
I31
sS'niggas\xe2\x98\x80\xef\xb8\x8f'
p112
I32
sS'win'
p113
I32
sS'feelings'
p114
I32
sS'till'
p115
I32
sS'fake'
p116
I32
sS'madres'
p117
I32
sS'everybody'
p118
I32
sS'from'
p119
I32
sS'takes'
p120
I32
sS'working'
p121
I32
sS'&'
p122
I27
sS'positive'
p123
I32
sS'angry'
p124
I32
sS'faint'
p125
I32
sS'texting'
p126
I32
sS'two'
p127
I31
sS'irritate'
p128
I32
sS'libra'
p129
I32
sS'music'
p130
I31
sS'taken'
p131
I32
sS'buttbutt'
p132
I32
sS'type'
p133
I30
sS'tell'
p134
I30
sS'today'
p135
I27
sS'more'
p136
I29
sS'tryna'
p137
I30
sS'sharing'
p138
I32
sS'babe'
p139
I32
sS'posting'
p140
I32
sS'started'
p141
I32
sS'share'
p142
I32
sS'haha'
p143
I31
sS'sister'
p144
I32
sS'hurt'
p145
I31
sS'sore'
p146
I30
sS"ain't"
p147
I30
sS'tying'
p148
I32
sS'baby'
p149
I29
sS'youuuuu'
p150
I32
sS'shoot'
p151
I32
sS'yves'
p152
I32
sS'none'
p153
I30
sS'practicing'
p154
I32
sS'room'
p155
I32
sS'hour'
p156
I32
sS'this'
p157
I15
sS'getting'
p158
I31
sS'sucks'
p159
I32
sS'wallet'
p160
I32
sS'backwards.\xe2\x80\x9d'
p161
I32
sS'cuddle'
p162
I32
sS'can'
p163
I26
sS'ragrets'
p164
I32
sS'elbow'
p165
I32
sS'making'
p166
I32
sS'my'
p167
I6
sS'complain'
p168
I32
sS'history'
p169
I32
sS'beautiful'
p170
I32
sS'heart'
p171
I30
sS'crazy'
p172
I32
sS'embarrassing'
p173
I32
sS'soooooo'
p174
I32
sS'awesome'
p175
I32
sS"didn't"
p176
I32
sS'fuck'
p177
I28
sS'vent\xe2\x80\x9d'
p178
I32
sS'high'
p179
I31
sS'something'
p180
I29
sS'want'
p181
I28
sS'sense'
p182
I32
sS'handle'
p183
I32
sS'pong'
p184
I32
sS'keep'
p185
I30
sS'needs'
p186
I32
sS'end'
p187
I32
sS'awkward'
p188
I32
sS'means'
p189
I32
sS'1'
p190
I32
sS'how'
p191
I24
sS'hot'
p192
I31
sS'heck'
p193
I32
sS'elephant'
p194
I32
sS'answer'
p195
I32
sS'pizza'
p196
I32
sS'okay'
p197
I31
sS'plans'
p198
I32
sS'rude'
p199
I30
sS'replacing'
p200
I32
sS'watch'
p201
I30
sS'advice'
p202
I32
sS'after'
p203
I31
sS'lump'
p204
I32
sS'fb'
p205
I32
sS'birthday'
p206
I29
sS'mad'
p207
I32
sS'opening'
p208
I32
sS'coming'
p209
I31
sS'date'
p210
I32
sS'such'
p211
I30
sS'guys'
p212
I32
sS'man'
p213
I29
sS'a'
p214
I8
sS'neck'
p215
I32
sS'jersery'
p216
I32
sS'wins'
p217
I32
sS'appreciate'
p218
I32
sS'slacking'
p219
I32
sS'so'
p220
I13
sS'k.t'
p221
I32
sS'orby'
p222
I32
sS'dream'
p223
I32
sS'playing'
p224
I32
sS'talk'
p225
I31
sS"that's"
p226
I28
sS'replied'
p227
I32
sS'cute'
p228
I32
sS'breaking'
p229
I32
sS"don't"
p230
I13
sS'over'
p231
I30
sS'fall'
p232
I32
sS'sooo'
p233
I32
sS'course'
p234
I32
sS'attitude'
p235
I30
sS'finest'
p236
I32
sS'through'
p237
I30
sS'looks'
p238
I32
sS'hell'
p239
I31
sS'cold'
p240
I32
sS'still'
p241
I26
sS'its'
p242
I32
sS'before'
p243
I31
sS'ima'
p244
I31
sS'needa'
p245
I32
sS'group'
p246
I32
sS'thank'
p247
I30
sS"he's"
p248
I31
sS'selves'
p249
I32
sS'broom'
p250
I31
sS'sunday'
p251
I31
sS'>>>'
p252
I32
sS'imy'
p253
I32
sS'covered'
p254
I32
sS'gahhhhd'
p255
I32
sS'might'
p256
I32
sS'into'
p257
I32
sS"haven't"
p258
I32
sS'happened'
p259
I32
sS'dad'
p260
I32
sS'then'
p261
I26
sS'them'
p262
I30
sS'good'
p263
I29
sS'unplanned'
p264
I32
sS'yo'
p265
I32
sS'food'
p266
I32
sS'thee'
p267
I32
sS'safe'
p268
I32
sS'uhh'
p269
I32
sS'feelin'
p270
I32
sS'dat'
p271
I32
sS'interview'
p272
I32
sS'soa'
p273
I32
sS'they'
p274
I26
sS'not'
p275
I23
sS'now'
p276
I26
sS'ahaha'
p277
I32
sS'day'
p278
I25
sS'nor'
p279
I32
sS'bread'
p280
I32
sS'wash'
p281
I32
sS'always'
p282
I23
sS'"k."'
p283
I32
sS'did'
p284
I32
sS'mode'
p285
I32
sS'truth'
p286
I32
sS'each'
p287
I32
sS'went'
p288
I31
sS'shaking'
p289
I32
sS'bone'
p290
I31
sS'doing'
p291
I31
sS'stressing'
p292
I32
sS'hard'
p293
I31
sS'yeah'
p294
I29
sS'brother'
p295
I32
sS'finish'
p296
I32
sS'do.\xe2\x80\x9d'
p297
I32
sS'lmfao.\xe2\x80\x9d'
p298
I32
sS'year'
p299
I32
sS'our'
p300
I32
sS'girl'
p301
I28
sS'saturday'
p302
I32
sS'out'
p303
I23
sS'album'
p304
I32
sS'leave'
p305
I31
sS'crashes'
p306
I32
sS'<<<'
p307
I32
sS'open'
p308
I32
sS'crucial'
p309
I32
sS'laix'
p310
I32
sS'looking'
p311
I31
sS'seriously'
p312
I31
sS'hilarious'
p313
I32
sS'got'
p314
I20
sS'rn'
p315
I32
sS'cause'
p316
I31
sS'ass'
p317
I26
sS'shut'
p318
I29
sS'dodgers'
p319
I32
sS'likeeee'
p320
I32
sS'boobs'
p321
I32
sS'complicated'
p322
I32
sS'struggle'
p323
I31
sS'checked'
p324
I32
sS'care'
p325
I29
sS'ate'
p326
I32
sS'starts'
p327
I30
sS'messages'
p328
I32
sS'moment'
p329
I32
sS'times'
p330
I31
sS'turn'
p331
I32
sS'ish'
p332
I32
sS'place'
p333
I31
sS'potions'
p334
I32
sS'loud'
p335
I32
sS'think'
p336
I25
sS'fuckin'
p337
I32
sS'first'
p338
I32
sS'already'
p339
I31
sS'lagger'
p340
I32
sS'feel'
p341
I26
sS'one'
p342
I27
sS'feet'
p343
I32
sS'ios8'
p344
I32
sS'done'
p345
I32
sS'bitch'
p346
I22
sS'spanish'
p347
I32
sS'message'
p348
I29
sS'miss'
p349
I27
sS'tomorrow'
p350
I30
sS"you're"
p351
I29
sS'little'
p352
I32
sS'sadly'
p353
I32
sS'caught'
p354
I32
sS'girls'
p355
I32
sS'collar'
p356
I32
sS'anyone'
p357
I32
sS'their'
p358
I31
sS'attack'
p359
I32
sS'noooooo'
p360
I32
sS'notice'
p361
I32
sS'too'
p362
I26
sS'bite'
p363
I32
sS'friend'
p364
I32
sS'headache'
p365
I32
sS'eyes'
p366
I32
sS'that'
p367
I10
sS'park'
p368
I32
sS'took'
p369
I32
sS'nirvana'
p370
I32
sS'dentist'
p371
I32
sS'part'
p372
I30
sS'goks'
p373
I32
sS'tampons'
p374
I32
sS'cyn'
p375
I29
sS'whyyyyy'
p376
I32
sS'nathan'
p377
I31
sS'lmao'
p378
I19
sS'gangster'
p379
I32
sS'vines'
p380
I32
sS'coward'
p381
I32
sS'tree'
p382
I32
sS'bed'
p383
I32
sS'shower'
p384
I32
sS'loves'
p385
I32
sS'snitches'
p386
I32
sS'toe'
p387
I32
sS'bet'
p388
I32
sS'and'
p389
I12
sS'mini'
p390
I32
sS'outta'
p391
I32
sS'san'
p392
I32
sS'gals'
p393
I32
sS'ran'
p394
I32
sS'mine:-d'
p395
I32
sS'turned'
p396
I31
sS'mine'
p397
I32
sS'sad'
p398
I31
sS'randomly'
p399
I32
sS'talking'
p400
I31
sS'say'
p401
I32
sS'have'
p402
I25
sS'close'
p403
I32
sS'need'
p404
I28
sS'seen'
p405
I32
sS'youuuuuuu'
p406
I32
sS'saw'
p407
I30
sS'any'
p408
I31
sS'it\xe2\x80\x9d'
p409
I32
sS'lie'
p410
I32
sS'mic'
p411
I32
sS'-'
p412
I31
sS'omfg'
p413
I32
sS'recommended'
p414
I32
sS'take'
p415
I29
sS'online'
p416
I32
sS'finding'
p417
I32
sS'honestly'
p418
I32
sS'many'
p419
I32
sS'"help"'
p420
I32
sS'buff'
p421
I32
sS'pain'
p422
I32
sS'though'
p423
I29
sS'koko'
p424
I32
sS'trap'
p425
I32
sS'who'
p426
I28
sS'forreal'
p427
I32
sS'nothing'
p428
I30
sS'why'
p429
I27
sS'moolah'
p430
I32
sS'putas'
p431
I32
sS'sometimes'
p432
I32
sS'looked'
p433
I32
sS'clean'
p434
I32
sS'movie'
p435
I32
sS'\xe2\x98\x80\xef\xb8\x8f'
p436
I32
sS'yessssssss'
p437
I32
sS'away'
p438
I31
sS'came'
p439
I31
sS'ughhh'
p440
I32
sS'saying'
p441
I32
sS'walking'
p442
I32
sS'ugh'
p443
I30
sS'show'
p444
I32
sS'text'
p445
I30
sS'random'
p446
I31
sS'sweeeggggg'
p447
I32
sS'bring'
p448
I32
sS'>.<'
p449
I32
sS'parked'
p450
I32
sS'sneaking'
p451
I32
sS'corner'
p452
I32
sS'fine'
p453
I31
sS'burnnnnnn'
p454
I32
sS'busy'
p455
I32
sS'\xe2\x9c\x8b'
p456
I30
sS'paranoid'
p457
I32
sS'nervous'
p458
I32
sS'poppin'
p459
I32
sS'should'
p460
I28
sS'yea'
p461
I32
sS'only'
p462
I31
sS'going'
p463
I27
sS'gotchaaaaa\xe2\x80\x9d\xe2\x98\xba\xef\xb8\x8f'
p464
I32
sS'pretty'
p465
I32
sS'photo'
p466
I32
sS'alone\xe2\x80\xbc\xef\xb8\x8f\xe2\x80\xbc\xef\xb8\x8f\xe2\x80\xbc\xef\xb8\x8f\xe2\x80\xbc\xef\xb8\x8f\xe2\x80\xbc\xef\xb8\x8f'
p467
I32
sS'8'
p468
I32
sS'watching'
p469
I32
sS'do'
p470
I20
sS'dl'
p471
I32
sS'his'
p472
I29
sS'hit'
p473
I32
sS'get'
p474
I23
sS'beat'
p475
I32
sS'dope'
p476
I32
sS'stop'
p477
I27
sS'feels'
p478
I32
sS'cannot'
p479
I32
sS'gee'
p480
I32
sS'during'
p481
I32
sS'him'
p482
I32
sS'freaking'
p483
I31
sS'regarding'
p484
I32
sS'nicely'
p485
I32
sS'morning'
p486
I32
sS'sacrifices'
p487
I32
sS'jokes'
p488
I32
sS'bad'
p489
I28
sS'paper'
p490
I32
sS'she'
p491
I25
sS'boring'
p492
I32
sS'told'
p493
I32
sS'where'
p494
I31
sS'gotta'
p495
I32
sS"y'all"
p496
I30
sS'physically'
p497
I32
sS'naked'
p498
I32
sS'vine'
p499
I32
sS'lazy'
p500
I31
sS'tooooooooo'
p501
I32
sS'see'
p502
I32
sS'kicked'
p503
I32
sS'are'
p504
I23
sS'hoes'
p505
I31
sS'stanley'
p506
I32
sS'best'
p507
I30
sS'wonder'
p508
I32
sS'said'
p509
I32
sS'pictures'
p510
I30
sS'wow'
p511
I31
sS'missing'
p512
I32
sS'please'
p513
I30
sS'shaved'
p514
I32
sS'3'
p515
I31
sS"there's"
p516
I32
sS'-______-'
p517
I32
sS'simplest'
p518
I32
sS'probably'
p519
I32
sS'rite'
p520
I29
sS'tolerance'
p521
I32
sS'watchin'
p522
I32
sS'perfect'
p523
I32
sS'we'
p524
I27
sS'pushing'
p525
I32
sS'omg'
p526
I28
sS'august'
p527
I32
sS'god'
p528
I32
sS'lexi'
p529
I32
sS'killing'
p530
I32
sS'awards'
p531
I32
sS'hurts'
p532
I30
sS'police'
p533
I32
sS'come'
p534
I29
sS'kitchen'
p535
I32
sS'both'
p536
I30
sS'accident'
p537
I32
sS'last'
p538
I27
sS'joke'
p539
I30
sS'taking'
p540
I31
sS'barely'
p541
I31
sS'movement'
p542
I32
sS'gotten'
p543
I32
sS'games'
p544
I32
sS'dopest'
p545
I32
sS'whole'
p546
I31
sS"can't"
p547
I23
sS'loaf'
p548
I32
sS'drunk'
p549
I31
sS'simple'
p550
I32
sS'tuesday'
p551
I32
sS'others'
p552
I32
sS'period'
p553
I32
sS'insist'
p554
I32
sS'cuz'
p555
I32
sS'laugh'
p556
I32
sS'rave'
p557
I32
sS'trust'
p558
I31
sS'speak'
p559
I32
sS'cramps'
p560
I32
sS'snapchat'
p561
I32
sS'naps'
p562
I32
sS'asks'
p563
I32
sS'cares'
p564
I32
sS"it's"
p565
I24
sS'three'
p566
I32
sS'been'
p567
I29
sS'beer'
p568
I32
sS'much'
p569
I27
sS'damn'
p570
I28
sS'expected'
p571
I32
sS'sesh'
p572
I32
sS'waste'
p573
I32
sS'amazing'
p574
I32
sS'woke'
p575
I31
sS'threw'
p576
I32
sS'wants'
p577
I32
sS'life'
p578
I30
sS'wish'
p579
I32
sS'crying'
p580
I32
sS'mind'
p581
I32
sS"what's"
p582
I32
sS'homies'
p583
I32
sS'else'
p584
I31
sS'whatever'
p585
I32
sS'wake'
p586
I32
sS'legends'
p587
I32
sS'bull'
p588
I32
sS'irrelevant'
p589
I32
sS'chill'
p590
I32
sS'case'
p591
I32
sS'myself'
p592
I30
sS'leyi'
p593
I32
sS'these'
p594
I31
sS'straight'
p595
I30
sS'convo'
p596
I32
sS'<'
p597
I32
sS'will'
p598
I27
sS'ugly'
p599
I32
sS'while'
p600
I32
sS'hahaha'
p601
I31
sS'fun'
p602
I32
sS'situation'
p603
I32
sS"wouldn't"
p604
I32
sS'mistake'
p605
I32
sS'almost'
p606
I32
sS'io6'
p607
I32
sS'is'
p608
I9
sS'it'
p609
I21
sS'rip'
p610
I31
sS'sleeping'
p611
I32
sS'middle'
p612
I32
sS'someone'
p613
I30
sS'swinging'
p614
I32
sS'in'
p615
I18
sS'ready'
p616
I30
sS'ig'
p617
I32
sS'if'
p618
I26
sS'grown'
p619
I32
sS'funny'
p620
I29
sS'different'
p621
I32
sS'bottles'
p622
I32
sS'anymore'
p623
I32
sS'things'
p624
I29
sS'make'
p625
I30
sS'same'
p626
I32
sS'trip'
p627
I32
sS'"i'
p628
I32
sS'party'
p629
I32
sS'gets'
p630
I32
sS'workout'
p631
I32
sS'week'
p632
I32
sS'practice'
p633
I32
sS'screenshot'
p634
I32
sS'aww'
p635
I32
sS'hang'
p636
I32
sS'hand'
p637
I32
sS'fucken'
p638
I31
sS'moving'
p639
I32
sS'yg'
p640
I32
sS'lol\xe2\x80\x9d'
p641
I32
sS'fucked'
p642
I32
sS'totally'
p643
I32
sS"i'm"
p644
I11
sS'mentally'
p645
I32
sS'lower'
p646
I32
sS'noodle'
p647
I32
sS'off'
p648
I31
sS'i'
p649
I2
sS'well'
p650
I30
sS'magical'
p651
I32
sS'tho'
p652
I32
sS'person'
p653
I31
sS'wyd'
p654
I32
sS'oveerrrrrrrrr'
p655
I32
sS'comes'
p656
I30
sS'nomore'
p657
I32
sS'the'
p658
I5
sS'at\xe2\x80\x9dhome'
p659
I32
sS'left'
p660
I31
sS'summer'
p661
I32
sS"she'll"
p662
I31
sS'listening'
p663
I31
sS'just'
p664
I14
sS'being'
p665
I30
sS'sound'
p666
I32
sS'wednesday'
p667
I32
sS'unfair'
p668
I32
sS'kill'
p669
I32
sS'thanks'
p670
I29
sS'followed'
p671
I32
sS'yes'
p672
I26
sS"dm's"
p673
I32
sS'yet'
p674
I32
sS'procrastinating'
p675
I32
sS'move'
p676
I32
sS'jose'
p677
I32
sS'cut'
p678
I31
sS'helping'
p679
I32
sS'cup'
p680
I32
sS'thinking'
p681
I30
sS'point'
p682
I32
sS'had'
p683
I30
sS'except'
p684
I31
sS'bullshit'
p685
I31
sS'wall'
p686
I32
sS'lets'
p687
I31
sS'interested'
p688
I32
sS'parents'
p689
I32
sS'4'
p690
I31
sS'pedriits'
p691
I32
sS'crack'
p692
I32
sS'has'
p693
I31
sS'excited'
p694
I31
sS'homework'
p695
I28
sS'cuh'
p696
I32
sS'real'
p697
I30
sS'around'
p698
I32
sS'government'
p699
I32
sS'checking'
p700
I32
sS'big'
p701
I29
sS'fridge'
p702
I32
sS'gonna'
p703
I28
sS'early'
p704
I30
sS'game'
p705
I32
sS'life.\xe2\x80\x9d'
p706
I32
sS'know'
p707
I19
sS'mom'
p708
I30
sS'world'
p709
I31
sS'"but'
p710
I32
sS'lady'
p711
I32
sS'girl\xe2\x80\x9d'
p712
I32
sS'tl'
p713
I32
sS'like'
p714
I13
sS'tryouts'
p715
I32
sS'everytime'
p716
I32
sS'night'
p717
I25
sS'become'
p718
I32
sS'fault'
p719
I32
sS'accidentally'
p720
I32
sS'poor'
p721
I32
sS'right'
p722
I27
sS'old'
p723
I31
sS"couldn't"
p724
I32
sS'people'
p725
I25
sS'understand'
p726
I32
sS'twitter'
p727
I29
sS'some'
p728
I29
sS'back'
p729
I22
sS'jennifer'
p730
I32
sS'hair'
p731
I29
sS'erase'
p732
I32
sS'cruz'
p733
I32
sS'smh'
p734
I32
sS'home'
p735
I32
sS'thinks'
p736
I32
sS'creep'
p737
I32
sS'jgh'
p738
I32
sS'vs'
p739
I32
sS'mood'
p740
I31
sS'for'
p741
I16
sS'literally'
p742
I32
sS'pros'
p743
I32
sS'azusa'
p744
I32
sS'moon'
p745
I31
sS'everything'
p746
I28
sS'throat'
p747
I32
sS'foo'
p748
I32
sS'betty'
p749
I32
sS'cord'
p750
I32
sS'be'
p751
I21
sS'knew'
p752
I32
sS'business'
p753
I32
sS'bc'
p754
I32
sS'lmfao'
p755
I30
sS'bm'
p756
I32
sS'tde'
p757
I32
sS'dropped'
p758
I32
sS'nowhere'
p759
I32
sS'fractured'
p760
I31
sS'ache'
p761
I32
sS'super'
p762
I32
sS'by'
p763
I32
sS'on'
p764
I21
sS'about'
p765
I18
sS'ok'
p766
I30
sS'anything'
p767
I32
sS'oh'
p768
I29
sS'of'
p769
I10
sS"donald's"
p770
I31
sS'assssssss'
p771
I32
sS'swear'
p772
I32
sS'bish'
p773
I32
sS'act'
p774
I32
sS'mixed'
p775
I31
sS'wanna'
p776
I28
sS'or'
p777
I29
sS'facetime'
p778
I32
sS'aha'
p779
I31
sS'selfie'
p780
I31
sS'bcos'
p781
I32
sS'soo'
p782
I32
sS'down'
p783
I27
sS"ex's"
p784
I32
sS'because'
p785
I30
sS'bats'
p786
I32
sS'yas'
p787
I32
sS'caring\xe2\x80\x9d'
p788
I32
sS'your'
p789
I18
sS'fast'
p790
I32
sS'oonir'
p791
I32
sS'brownies'
p792
I32
sS'her'
p793
I28
sS'support'
p794
I32
sS'there'
p795
I32
sS'long'
p796
I29
sS'fight'
p797
I32
sS'absolutely'
p798
I32
sS'camera'
p799
I32
sS'died'
p800
I31
sS'lot'
p801
I32
sS'4:30'
p802
I32
sS'biggest'
p803
I32
sS'call'
p804
I29
sS'was'
p805
I23
sS'happy'
p806
I31
sS'function'
p807
I32
sS'head'
p808
I31
sS'buy'
p809
I32
sS"i've"
p810
I31
sS'downstairs'
p811
I32
sS'bus'
p812
I32
sS'real."\xe2\x80\x9d'
p813
I32
sS'bitches'
p814
I30
sS'sickest'
p815
I32
sS'but'
p816
I17
sS"party's"
p817
I32
sS'shits'
p818
I32
sS'hi'
p819
I32
sS'hear'
p820
I32
sS'ho'
p821
I32
sS'hopes'
p822
I32
sS'line'
p823
I32
sS'ear'
p824
I32
sS'with'
p825
I15
sS'eat'
p826
I30
sS'he'
p827
I31
sS'pull'
p828
I32
sS'made'
p829
I32
sS"wasn't"
p830
I32
sS'la'
p831
I31
sS'inside'
p832
I32
sS'j'
p833
I32
sS'dangling'
p834
I32
sS'up'
p835
I13
sS'us'
p836
I30
sS'2'
p837
I32
sS'stories'
p838
I32
sS'just...ugh'
p839
I32
sS'lysa'
p840
I32
sS'rankers'
p841
I32
sS'loving'
p842
I32
sS'called'
p843
I32
sS'delete'
p844
I32
sS'skating'
p845
I32
sS'gone'
p846
I32
sS'constant'
p847
I32
sS'videos'
p848
I32
sS'exhausted'
p849
I32
sS'tissues'
p850
I32
sS'am'
p851
I28
sS'shoulders'
p852
I32
sS'an'
p853
I29
sS'as'
p854
I30
sS'at'
p855
I23
sS'aw'
p856
I32
sS'annoying'
p857
I30
sS'ew'
p858
I32
sS'shit'
p859
I25
sS'fill'
p860
I32
sS'again'
p861
I32
sS'no'
p862
I24
sS'nah'
p863
I32
sS'when'
p864
I19
sS'arri'
p865
I32
sS'lately'
p866
I31
sS'ny'
p867
I32
sS'other'
p868
I31
sS'sick'
p869
I31
sS'you'
p870
I3
sS'really'
p871
I24
sS'smell'
p872
I32
sS'realize'
p873
I32
sS'nice'
p874
I31
sS'pills'
p875
I32
sS'rt'
p876
I32
sS'monday'
p877
I32
sS'bruhhhhhhh'
p878
I32
sS'class'
p879
I32
sS'haircut'
p880
I32
sS'stay'
p881
I31
sS"let's"
p882
I31
sS'important'
p883
I32
sS'kinda'
p884
I32
sS'serious'
p885
I32
sS'score'
p886
I32
sS'friends'
p887
I31
sS'sugarontopp'
p888
I32
sS'pool'
p889
I31
sS'ago'
p890
I32
sS'happening'
p891
I32
sS'phone'
p892
I32
sS'voicemail'
p893
I32
sS'persistent'
p894
I32
sS'together'
p895
I30
sS'hello'
p896
I32
sS'fresh'
p897
I32
sS'u'
p898
I32
sS'lying'
p899
I32
sS'time'
p900
I26
sS"she's"
p901
I30
sS'starting'
p902
I32
sS'having'
p903
I31
sS'cruisin'
p904
I32
sS'once'
p905
I32
s.