(dp0
S''
p1
I1
sS"adrauh's"
p2
I27
sS'all'
p3
I20
sS':/'
p4
I26
sS'forget'
p5
I27
sS'switched'
p6
I27
sS'dance'
p7
I27
sS'many,90032\n492191935180726272,_drealafeaa,2014-07-24'
p8
I27
sS'cynthia'
p9
I27
sS'focus'
p10
I27
sS'month'
p11
I26
sS'steve'
p12
I21
sS'manager'
p13
I27
sS'sleep'
p14
I26
sS'go'
p15
I17
sS'hate'
p16
I23
sS'milk'
p17
I27
sS'mucho'
p18
I27
sS'filming'
p19
I27
sS'lort'
p20
I27
sS'tweet'
p21
I24
sS'disgusting'
p22
I27
sS'suits'
p23
I27
sS'hurtin'
p24
I27
sS'to'
p25
I3
sS'finally'
p26
I27
sS'lord'
p27
I27
sS'center)'
p28
I27
sS'far'
p29
I27
sS'horror'
p30
I26
sS'every'
p31
I24
sS'jack'
p32
I27
sS'got'
p33
I23
sS'cook'
p34
I27
sS'drinking'
p35
I27
sS':p'
p36
I27
sS'minute'
p37
I26
sS'edible'
p38
I27
sS'school'
p39
I25
sS'mc'
p40
I27
sS'did'
p41
I27
sS'try'
p42
I26
sS'guy'
p43
I27
sS'open'
p44
I27
sS'wilw'
p45
I27
sS'booty'
p46
I27
sS'tired'
p47
I26
sS'phones'
p48
I27
sS'reacted'
p49
I27
sS'\xe2\x9d\xa4'
p50
I27
sS'her&'
p51
I27
sS'waking'
p52
I27
sS'past'
p53
I27
sS'ill'
p54
I27
sS'spaghetti'
p55
I27
sS'even'
p56
I23
sS'what'
p57
I20
sS'sub'
p58
I27
sS'giving'
p59
I27
sS'caffeine'
p60
I27
sS'uniform'
p61
I27
sS'lights'
p62
I27
sS'run'
p63
I27
sS'goes'
p64
I27
sS'movement'
p65
I27
sS'hash'
p66
I27
sS'never'
p67
I26
sS'here'
p68
I22
sS'hours'
p69
I26
sS'cancelled'
p70
I27
sS'witch'
p71
I27
sS'alone'
p72
I26
sS'change'
p73
I27
sS'wait'
p74
I25
sS'bob'
p75
I27
sS'great'
p76
I27
sS'kudos'
p77
I27
sS'daughter'
p78
I27
sS'(supervisor)'
p79
I27
sS'shift'
p80
I27
sS'30'
p81
I25
sS'alaska'
p82
I27
sS'35'
p83
I26
sS'later'
p84
I27
sS'action'
p85
I27
sS'weird'
p86
I25
sS'makes'
p87
I26
sS'love'
p88
I25
sS'family'
p89
I27
sS'win'
p90
I27
sS'gabbo'
p91
I25
sS'county'
p92
I27
sS"niece's"
p93
I27
sS'fake'
p94
I26
sS'festivals'
p95
I27
sS'wantto'
p96
I27
sS'use'
p97
I26
sS'crap'
p98
I27
sS'would'
p99
I24
sS'&'
p100
I25
sS'dude'
p101
I26
sS'barrio'
p102
I27
sS'dnt'
p103
I27
sS'gabrielleuh'
p104
I27
sS'calm'
p105
I27
sS'seriously'
p106
I26
sS'shits'
p107
I27
sS'preview'
p108
I27
sS'type'
p109
I27
sS'until'
p110
I27
sS'minor'
p111
I27
sS'more'
p112
I26
sS"love's"
p113
I27
sS'box)'
p114
I27
sS'1/2'
p115
I27
sS'holy'
p116
I27
sS'brings'
p117
I27
sS'getting'
p118
I27
sS'haha'
p119
I24
sS'surprisingly'
p120
I27
sS"ain't"
p121
I27
sS'stick'
p122
I27
sS'broke'
p123
I27
sS'baby'
p124
I26
sS'ok'
p125
I27
sS'me'
p126
I7
sS'account'
p127
I27
sS'ma'
p128
I27
sS'room'
p129
I27
sS'hour'
p130
I26
sS'niggas'
p131
I27
sS'this'
p132
I17
sS'work'
p133
I13
sS'can'
p134
I24
sS'learn'
p135
I27
sS'making'
p136
I27
sS'my'
p137
I6
sS'crazy'
p138
I27
sS'give'
p139
I25
sS'awesome'
p140
I27
sS'fuck'
p141
I17
sS',90032\n492192258830376960,_drealafeaa,2014-07-24'
p142
I27
sS'something'
p143
I27
sS'want'
p144
I26
sS'braincells'
p145
I27
sS'dress'
p146
I27
sS'needs'
p147
I27
sS'end'
p148
I27
sS'awkward'
p149
I27
sS'egyptian'
p150
I26
sS'freezer'
p151
I26
sS'1'
p152
I27
sS'how'
p153
I22
sS'amazing'
p154
I25
sS'browns'
p155
I27
sS'chase'
p156
I27
sS'bombbb'
p157
I27
sS'plans'
p158
I27
sS'monica'
p159
I26
sS'mess'
p160
I27
sS'stop'
p161
I27
sS'tied'
p162
I27
sS'fart'
p163
I27
sS'tries'
p164
I27
sS'birthday'
p165
I27
sS'mad'
p166
I25
sS'such'
p167
I27
sS'guys'
p168
I27
sS'man'
p169
I26
sS'a'
p170
I5
sS'anymore'
p171
I26
sS'tweeting'
p172
I26
sS'pucker'
p173
I27
sS'st'
p174
I27
sS'slacking'
p175
I27
sS'greek'
p176
I27
sS'so'
p177
I10
sS'sb'
p178
I27
sS'first'
p179
I27
sS'talk'
p180
I25
sS"that's"
p181
I23
sS'cute'
p182
I27
sS'boxing'
p183
I27
sS'help'
p184
I25
sS"don't"
p185
I15
sS'dreamed'
p186
I27
sS'over'
p187
I26
sS'soon'
p188
I27
sS'bcuz'
p189
I27
sS'course'
p190
I27
sS'looks'
p191
I26
sS'shake'
p192
I27
sS'hell'
p193
I26
sS'mcdonalds'
p194
I27
sS'still'
p195
I23
sS'its'
p196
I27
sS'before'
p197
I26
sS'thank'
p198
I27
sS'till'
p199
I27
sS'[pic]'
p200
I27
sS'late'
p201
I25
sS'tweets'
p202
I27
sS'covered'
p203
I27
sS'dork!:-*'
p204
I27
sS'!._'
p205
I27
sS"haven't"
p206
I27
sS'dad'
p207
I27
sS'tellem'
p208
I27
sS'them'
p209
I26
sS'someone'
p210
I23
sS'yo'
p211
I27
sS'twerkin'
p212
I27
sS'food'
p213
I26
sS'workout'
p214
I27
sS'practice'
p215
I26
sS'introduce'
p216
I27
sS'break'
p217
I21
sS"you've"
p218
I27
sS'they'
p219
I23
sS'half'
p220
I26
sS'not'
p221
I25
sS'anit'
p222
I27
sS'now'
p223
I13
sS'day'
p224
I25
sS'bank'
p225
I27
sS'josh'
p226
I27
sS'alex'
p227
I26
sS'name'
p228
I26
sS'always'
p229
I24
sS'tere'
p230
I26
sS'routines'
p231
I27
sS'each'
p232
I27
sS'found'
p233
I27
sS'went'
p234
I25
sS'trailer'
p235
I27
sS'lantern'
p236
I27
sS'turtle'
p237
I27
sS'el'
p238
I27
sS'everyone'
p239
I27
sS'challenged'
p240
I27
sS'hiccups'
p241
I27
sS'hard'
p242
I26
sS'staying'
p243
I27
sS'celebrating'
p244
I27
sS'weave'
p245
I27
sS'forgot'
p246
I27
sS'our'
p247
I26
sS'girl'
p248
I24
sS'morning'
p249
I26
sS'marley'
p250
I27
sS'saturday'
p251
I27
sS'special'
p252
I27
sS'out'
p253
I18
sS'album'
p254
I27
sS'leave'
p255
I27
sS'god'
p256
I27
sS'looking'
p257
I27
sS'bday'
p258
I27
sS'acting'
p259
I27
sS'nite'
p260
I24
sS'smh'
p261
I27
sS'lecture'
p262
I27
sS'correct'
p263
I27
sS'ass'
p264
I24
sS'monster'
p265
I27
sS'city'
p266
I27
sS'friday'
p267
I27
sS'story'
p268
I26
sS'reason'
p269
I26
sS'flyer'
p270
I27
sS'conditioning'
p271
I27
sS'ask'
p272
I26
sS'care'
p273
I26
sS'language'
p274
I27
sS'deck'
p275
I27
sS'could'
p276
I26
sS'headphones'
p277
I27
sS'days'
p278
I27
sS'keep'
p279
I26
sS'american'
p280
I27
sS'fruit'
p281
I27
sS'threat'
p282
I27
sS'(at'
p283
I27
sS'think'
p284
I25
sS'adventure'
p285
I27
sS'already'
p286
I26
sS'feel'
p287
I15
sS'number'
p288
I27
sS'one'
p289
I24
sS'wash'
p290
I27
sS'done'
p291
I27
sS'bitch'
p292
I23
sS'mcflurry'
p293
I27
sS'impossible'
p294
I27
sS'sounds'
p295
I27
sS'miss'
p296
I26
sS'tomorrow'
p297
I26
sS"you're"
p298
I26
sS'little'
p299
I26
sS"there's"
p300
I27
sS'bite'
p301
I27
sS'least'
p302
I27
sS'collar'
p303
I27
sS'mami'
p304
I27
sS'bum'
p305
I27
sS'2'
p306
I27
sS'too'
p307
I24
sS'white'
p308
I26
sS'lol'
p309
I6
sS'low'
p310
I26
sS'urban'
p311
I27
sS'eyes'
p312
I27
sS'stomach'
p313
I25
sS'relationship'
p314
I26
sS'that'
p315
I14
sS'season'
p316
I27
sS'grandpa'
p317
I27
sS'theater'
p318
I26
sS'than'
p319
I27
sS'remember'
p320
I27
sS'10'
p321
I26
sS'wat'
p322
I27
sS'lmao'
p323
I26
sS'kickback'
p324
I27
sS'boring'
p325
I26
sS'gotta'
p326
I26
sS'grey'
p327
I27
sS'youth'
p328
I27
sS'r'
p329
I27
sS'supposed'
p330
I27
sS'were'
p331
I25
sS'leslie'
p332
I27
sS'feeling'
p333
I27
sS'bet'
p334
I26
sS'and'
p335
I8
sS'uniforms'
p336
I27
sS'outta'
p337
I27
sS'sad'
p338
I27
sS'tonight'
p339
I26
sS'say'
p340
I26
sS'contest'
p341
I27
sS'have'
p342
I19
sS'need'
p343
I23
sS'marathon'
p344
I27
sS'nights'
p345
I27
sS'!!-.-'
p346
I27
sS'lil'
p347
I25
sS'lattes'
p348
I27
sS'-'
p349
I27
sS'shocked'
p350
I27
sS'take'
p351
I27
sS'which'
p352
I26
sS'green'
p353
I27
sS'='
p354
I26
sS'blue'
p355
I27
sS'play'
p356
I27
sS'opposite'
p357
I27
sS'sereno'
p358
I27
sS'who'
p359
I27
sS'edison'
p360
I27
sS'paid'
p361
I27
sS'victoria'
p362
I27
sS'most'
p363
I27
sS'mouth'
p364
I27
sS"noggin'"
p365
I27
sS'nothing'
p366
I26
sS'why'
p367
I24
sS'sometimes'
p368
I26
sS'hungry'
p369
I27
sS'face'
p370
I27
sS'dawgs'
p371
I27
sS'painting'
p372
I27
sS'shoutout'
p373
I27
sS'came'
p374
I25
sS'saying'
p375
I27
sS'walking'
p376
I27
sS'ugh'
p377
I27
sS'bomb'
p378
I27
sS'queen'
p379
I27
sS'bring'
p380
I27
sS"she'll"
p381
I27
sS'fine'
p382
I27
sS'dice'
p383
I27
sS'('
p384
I23
sS'dick'
p385
I27
sS'3'
p386
I27
sS'should'
p387
I27
sS'being'
p388
I27
sS'only'
p389
I26
sS'going'
p390
I16
sS'watching'
p391
I27
sS'boyfriend'
p392
I27
sS'indifference'
p393
I27
sS'hope'
p394
I26
sS'loved'
p395
I27
sS'do'
p396
I22
sS'get'
p397
I13
sS'watch'
p398
I26
sS'made'
p399
I27
sS'nearly'
p400
I27
sS'yvonne'
p401
I27
sS'ghetto'
p402
I27
sS'sleeve'
p403
I27
sS'borrow'
p404
I27
sS'calling'
p405
I26
sS'naked'
p406
I27
sS'bad'
p407
I25
sS'she'
p408
I25
sS'x'
p409
I27
sS'told'
p410
I27
sS'bother'
p411
I27
sS'art'
p412
I26
sS'notice'
p413
I27
sS'sex'
p414
I27
sS'see'
p415
I27
sS'dumb'
p416
I26
sS'are'
p417
I26
sS'orgullo'
p418
I27
sS'jobs'
p419
I27
sS'bark'
p420
I27
sS'sport'
p421
I27
sS'purest'
p422
I27
sS'best'
p423
I27
sS'wonder'
p424
I26
sS'said'
p425
I24
sS'wow'
p426
I26
sS'please'
p427
I26
sS'willamette'
p428
I27
sS'tend'
p429
I27
sS'enough'
p430
I27
sS'future'
p431
I27
sS'finger'
p432
I27
sS'pictured'
p433
I27
sS'dirty'
p434
I27
sS'we'
p435
I20
sS'omg'
p436
I25
sS'sausage'
p437
I27
sS'joe'
p438
I27
sS'jk'
p439
I25
sS'cousin'
p440
I26
sS'come'
p441
I22
sS'last'
p442
I22
sS'many'
p443
I26
sS'taking'
p444
I24
sS'restroom'
p445
I27
sS'!!(x'
p446
I27
sS'buzz'
p447
I27
sS'studio'
p448
I27
sS'kinds'
p449
I27
sS'asked'
p450
I27
sS"can't"
p451
I23
sS'ily'
p452
I27
sS'comadre'
p453
I27
sS'point'
p454
I27
sS'cc'
p455
I27
sS'seems'
p456
I27
sS'period'
p457
I27
sS'nooooo'
p458
I27
sS'cried'
p459
I27
sS'likes'
p460
I27
sS"couldn't"
p461
I27
sS'away'
p462
I27
sS'kings'
p463
I27
sS'blonde'
p464
I27
sS'beats'
p465
I27
sS'quit'
p466
I27
sS'"you'
p467
I27
sS"it's"
p468
I18
sS'silvia'
p469
I27
sS'been'
p470
I24
sS'ballgame!\xe2\x80\x9d'
p471
I27
sS'much'
p472
I24
sS'damn'
p473
I27
sS'combined'
p474
I27
sS'waste'
p475
I27
sS'mary'
p476
I27
sS'woke'
p477
I27
sS'life'
p478
I25
sS'huuunggrryy'
p479
I27
sS'worker'
p480
I27
sS'fest'
p481
I27
sS'-.-'
p482
I21
sS'smoking'
p483
I27
sS'haters'
p484
I27
sS'those'
p485
I26
sS'myself'
p486
I27
sS'lurkin'
p487
I27
sS'these'
p488
I26
sS'bill'
p489
I27
sS'rat'
p490
I27
sS'4836'
p491
I27
sS'will'
p492
I26
sS'pollo'
p493
I27
sS'fun'
p494
I26
sS'frustrating'
p495
I27
sS"wouldn't"
p496
I27
sS'cigarette....this'
p497
I27
sS'<3'
p498
I27
sS'almost'
p499
I27
sS'evelyn'
p500
I27
sS'is'
p501
I13
sS'thus'
p502
I27
sS'it'
p503
I19
sS'titanic'
p504
I27
sS'hoax'
p505
I27
sS'blah'
p506
I26
sS'good'
p507
I25
sS'in'
p508
I11
sS'!(x'
p509
I27
sS'if'
p510
I23
sS'-___-'
p511
I26
sS'perform'
p512
I27
sS'things'
p513
I26
sS'make'
p514
I24
sS'locking'
p515
I27
sS'same'
p516
I27
sS'ya'
p517
I27
sS'parts'
p518
I27
sS'fo'
p519
I27
sS'mcmuffins'
p520
I27
sS'alot'
p521
I27
sS'keys'
p522
I27
sS'yesterday'
p523
I27
sS'fucker'
p524
I27
sS'snitches'
p525
I27
sS'running'
p526
I26
sS'strength'
p527
I27
sS'jealous'
p528
I27
sS'totally'
p529
I26
sS"i'm"
p530
I17
sS'kid'
p531
I27
sS'retard'
p532
I27
sS'off'
p533
I26
sS'older'
p534
I26
sS'i'
p535
I2
sS'dre'
p536
I27
sS'youre'
p537
I27
sS'!:d'
p538
I27
sS'tho'
p539
I25
sS'person'
p540
I26
sS'solve'
p541
I27
sS'comes'
p542
I27
sS'mother'
p543
I27
sS'very'
p544
I26
sS'the'
p545
I4
sS'bumping'
p546
I27
sS'(x'
p547
I23
sS'>.<'
p548
I22
sS'(~'
p549
I27
sS'frankie'
p550
I27
sS'just'
p551
I17
sS'lottery'
p552
I27
sS'yea'
p553
I26
sS'money'
p554
I27
sS'gunna'
p555
I27
sS'hands'
p556
I27
sS'violent'
p557
I27
sS'thanks'
p558
I27
sS'questions'
p559
I27
sS'yes'
p560
I26
sS'cus'
p561
I26
sS'wee'
p562
I27
sS'thinking'
p563
I26
sS'hated'
p564
I27
sS'drive'
p565
I27
sS'had'
p566
I24
sS'cuz'
p567
I27
sS'it\xe2\x80\x99s'
p568
I27
sS'4'
p569
I26
sS'snap'
p570
I26
sS'has'
p571
I25
sS'excited'
p572
I27
sS'work-.-'
p573
I27
sS'customers'
p574
I27
sS'around'
p575
I27
sS'breaks'
p576
I26
sS'possible'
p577
I27
sS'gonna'
p578
I26
sS'early'
p579
I24
sS'game'
p580
I27
sS'glinda'
p581
I27
sS'5am'
p582
I27
sS'know'
p583
I22
sS'mom'
p584
I27
sS'lady'
p585
I26
sS"('"
p586
I27
sS'dreams'
p587
I27
sS'knock'
p588
I27
sS'like'
p589
I12
sS'lost'
p590
I26
sS'toyota'
p591
I27
sS'sk8'
p592
I27
sS'homegirl'
p593
I27
sS'ignore'
p594
I27
sS'laughing'
p595
I27
sS'night'
p596
I24
sS'right'
p597
I21
sS'old'
p598
I27
sS'people'
p599
I26
sS'fucking'
p600
I24
sS'twitter'
p601
I27
sS'confused'
p602
I27
sS'some'
p603
I22
sS'back'
p604
I20
sS'dead'
p605
I27
sS'oh'
p606
I27
sS'tooken'
p607
I27
sS'respect'
p608
I27
sS'home'
p609
I21
sS'mustang'
p610
I27
sS'favoriting'
p611
I27
sS'thinks'
p612
I27
sS'creep'
p613
I27
sS'happens'
p614
I27
sS'gross'
p615
I27
sS'!-.-'
p616
I26
sS'for'
p617
I15
sS'memories'
p618
I27
sS'everything'
p619
I27
sS'asking'
p620
I27
sS'catsavetes'
p621
I21
sS'warned'
p622
I27
sS'knife'
p623
I27
sS'alrite'
p624
I27
sS'be'
p625
I16
sS'bf'
p626
I27
sS'eating'
p627
I27
sS'power'
p628
I27
sS'schedule'
p629
I27
sS'themhoes'
p630
I27
sS'think"'
p631
I27
sS'from'
p632
I25
sS';)'
p633
I27
sS'by'
p634
I24
sS'on'
p635
I19
sS'about'
p636
I22
sS'actual'
p637
I27
sS'working'
p638
I24
sS'jinxed'
p639
I27
sS'of'
p640
I10
sS"donald's"
p641
I27
sS'months'
p642
I26
sS'swear'
p643
I27
sS'idk'
p644
I27
sS'wanna'
p645
I24
sS'or'
p646
I26
sS'flying'
p647
I27
sS'seeing'
p648
I27
sS'texting'
p649
I27
sS'into'
p650
I25
sS'soo'
p651
I27
sS'son'
p652
I26
sS'down'
p653
I27
sS"ex's"
p654
I27
sS'momma'
p655
I27
sS'duarte'
p656
I27
sS'mikey'
p657
I27
sS'elementary'
p658
I27
sS'annoys'
p659
I27
sS'your'
p660
I20
sS'her'
p661
I25
sS'few'
p662
I27
sS'there'
p663
I21
sS'question'
p664
I27
sS'hey'
p665
I27
sS'long'
p666
I25
sS'kidding'
p667
I27
sS'start'
p668
I26
sS'workshop'
p669
I27
sS"we're"
p670
I26
sS'way'
p671
I26
sS'whores'
p672
I27
sS'bored'
p673
I26
sS'was'
p674
I22
sS'happy'
p675
I27
sS'jacked'
p676
I27
sS'head'
p677
I27
sS'mornings'
p678
I27
sS'north'
p679
I27
sS'inches'
p680
I27
sS'6'
p681
I27
sS'but'
p682
I22
sS'idea'
p683
I27
sS'hi'
p684
I27
sS'._'
p685
I25
sS'loco'
p686
I27
sS'trying'
p687
I26
sS'with'
p688
I20
sS'bug'
p689
I27
sS'he'
p690
I25
sS'thru'
p691
I25
sS'heeeyyyy'
p692
I27
sS'wish'
p693
I26
sS'inside'
p694
I27
sS'up'
p695
I23
sS'us'
p696
I27
sS'ur'
p697
I27
sS'today'
p698
I15
sS'problem'
p699
I27
sS'daddy'
p700
I27
sS'minutes'
p701
I27
sS'toilet'
p702
I27
sS'proud'
p703
I27
sS'ohh'
p704
I27
sS'fright'
p705
I27
sS'am'
p706
I20
sS'an'
p707
I26
sS'as'
p708
I23
sS'tasty'
p709
I27
sS'at'
p710
I15
sS'aw'
p711
I27
sS'logo'
p712
I27
sS'babe'
p713
I26
sS'awhile'
p714
I27
sS'annoying'
p715
I25
sS'happen'
p716
I27
sS'shit'
p717
I26
sS'again'
p718
I25
sS'jesus'
p719
I26
sS'dying'
p720
I27
sS'no'
p721
I22
sS'sexual'
p722
I27
sS'when'
p723
I19
sS'lately'
p724
I27
sS'ny'
p725
I27
sS'other'
p726
I27
sS'5'
p727
I25
sS'test'
p728
I27
sS'tie'
p729
I27
sS'you'
p730
I9
sS'really'
p731
I23
sS'talkin'
p732
I27
sS'poor'
p733
I27
sS'edson'
p734
I27
sS'stoner'
p735
I27
sS'welcome'
p736
I27
sS'stay'
p737
I26
sS'important'
p738
I27
sS'kinda'
p739
I27
sS'serious'
p740
I27
sS'spenca'
p741
I27
sS'hurt'
p742
I27
sS'mood'
p743
I27
sS'ago'
p744
I27
sS'annoyed'
p745
I27
sS'u'
p746
I21
sS'lying'
p747
I27
sS'time'
p748
I16
sS"she's"
p749
I24
sS'starting'
p750
I25
sS'gardens'
p751
I27
sS'bitch."'
p752
I27
s.