(dp0
S''
p1
I9
sS'jaja'
p2
I31
sS'all'
p3
I22
sS':('
p4
I30
sS':)'
p5
I28
sS'suburban'
p6
I31
sS'focus'
p7
I28
sS'tratar'
p8
I31
sS'four'
p9
I30
sS'\xee\x84\x85'
p10
I31
sS'avalanche'
p11
I29
sS'sleep'
p12
I31
sS'go'
p13
I28
sS'climb'
p14
I31
sS'hate'
p15
I31
sS'hmmm'
p16
I31
sS'strangers'
p17
I31
sS'\xee\x90\x98\xee\x90\x98'
p18
I31
sS'ver'
p19
I31
sS'filming'
p20
I31
sS'chinos'
p21
I31
sS'thursday'
p22
I31
sS'to'
p23
I10
sS'finally'
p24
I30
sS'sorry'
p25
I31
sS'pride'
p26
I31
sS'ilysm'
p27
I31
sS'g6'
p28
I25
sS':o'
p29
I31
sS'rescue'
p30
I31
sS'3am'
p31
I31
sS'sitting'
p32
I31
sS'horror'
p33
I31
sS'fat'
p34
I31
sS'durango'
p35
I30
sS'vegas'
p36
I28
sS'worst'
p37
I31
sS'fam'
p38
I28
sS'traer'
p39
I31
sS':p'
p40
I31
sS'wipe'
p41
I31
sS'school'
p42
I31
sS'level'
p43
I31
sS'did'
p44
I30
sS'leave'
p45
I31
sS'meses'
p46
I31
sS'guy'
p47
I31
sS'joey'
p48
I31
sS"i'll"
p49
I30
sS'htc'
p50
I31
sS'pasa'
p51
I31
sS'pms'
p52
I31
sS'\xee\x90\x85'
p53
I31
sS'bway'
p54
I31
sS'past'
p55
I31
sS'second'
p56
I31
sS'street'
p57
I30
sS'video'
p58
I31
sS'pass'
p59
I31
sS'blue'
p60
I31
sS'cargo'
p61
I27
sS'what'
p62
I27
sS'movies'
p63
I31
sS'fuckn'
p64
I31
sS'waiting'
p65
I31
sS'minty'
p66
I31
sS'supplier'
p67
I31
sS'new'
p68
I31
sS'appeal'
p69
I31
sS'ever'
p70
I31
sS'sux'
p71
I31
sS'hummer'
p72
I28
sS'agosto'
p73
I31
sS'mensajes'
p74
I31
sS'makeup'
p75
I31
sS'alhambra'
p76
I31
sS'here'
p77
I31
sS'hours'
p78
I31
sS'chassis'
p79
I30
sS'&&'
p80
I31
sS'trunk'
p81
I31
sS'sexy'
p82
I31
sS'droppingsoon'
p83
I31
sS'wait'
p84
I29
sS'box'
p85
I31
sS'kids'
p86
I31
sS'daughter'
p87
I31
sS'metro'
p88
I31
sS'healthy'
p89
I31
sS'k'
p90
I30
sS'honda'
p91
I31
sS"i'd"
p92
I31
sS'smoke'
p93
I30
sS'nervous'
p94
I31
sS'hospitality'
p95
I31
sS'weird'
p96
I30
sS'pack'
p97
I31
sS'makes'
p98
I31
sS'massage'
p99
I31
sS'thats'
p100
I29
sS'love'
p101
I27
sS'ive'
p102
I31
sS'caravan'
p103
I30
sS'barbers'
p104
I29
sS'patience'
p105
I31
sS'sugar'
p106
I31
sS'now..so'
p107
I31
sS'goood'
p108
I31
sS'yourself'
p109
I31
sS'use'
p110
I31
sS'from'
p111
I31
sS'working'
p112
I30
sS'&'
p113
I30
sS'pero'
p114
I31
sS'm\xc3\xa9xico'
p115
I31
sS'dnt'
p116
I31
sS'live'
p117
I31
sS'call'
p118
I31
sS'tahoe'
p119
I31
sS'thru'
p120
I31
sS'tell'
p121
I29
sS'today'
p122
I30
sS'more'
p123
I27
sS'nigggaaas'
p124
I31
sS'haha'
p125
I27
sS'chocolate'
p126
I31
sS'phone'
p127
I31
sS'flag'
p128
I31
sS'baby'
p129
I31
sS'must'
p130
I31
sS'me'
p131
I13
sS'te'
p132
I31
sS'room'
p133
I31
sS'this'
p134
I28
sS'car'
p135
I31
sS'work'
p136
I26
sS'mi'
p137
I31
sS'fast'
p138
I31
sS'donut'
p139
I31
sS'\xee\x84\x86\xee\x90\x98'
p140
I31
sS'can'
p141
I26
sS'ms'
p142
I31
sS'my'
p143
I12
sS'def'
p144
I31
sS'beautiful'
p145
I31
sS'hhr'
p146
I30
sS'novia'
p147
I31
sS'condon?\xe2\x80\x94no'
p148
I31
sS'give'
p149
I31
sS'\xe2\x9a\xbe'
p150
I31
sS'muahh'
p151
I31
sS'\xe2\x80\x94amor'
p152
I31
sS'fuck'
p153
I25
sS'goooo'
p154
I31
sS'high'
p155
I31
sS'homie'
p156
I31
sS'something'
p157
I31
sS'want'
p158
I29
sS't.v'
p159
I31
sS'clint'
p160
I31
sS'sit'
p161
I31
sS'rather'
p162
I31
sS'chevrolet'
p163
I11
sS'nuts'
p164
I31
sS'sundae'
p165
I31
sS'id'
p166
I31
sS'how'
p167
I28
sS'amazing'
p168
I29
sS'swear'
p169
I31
sS'llego'
p170
I31
sS'goat'
p171
I31
sS'8-9'
p172
I31
sS'express'
p173
I30
sS'okay'
p174
I31
sS'explorer'
p175
I24
sS'waters'
p176
I31
sS'after'
p177
I31
sS'spot'
p178
I31
sS'taco'
p179
I31
sS'hahahaha'
p180
I31
sS'president'
p181
I31
sS'tacos'
p182
I31
sS'tongue'
p183
I31
sS'man'
p184
I28
sS'a'
p185
I1
sS'remember'
p186
I28
sS'light'
p187
I31
sS'corona'
p188
I31
sS'si'
p189
I30
sS'wishes'
p190
I31
sS'so'
p191
I27
sS'grande'
p192
I30
sS'make'
p193
I31
sS'se'
p194
I30
sS"that's"
p195
I31
sS'cute'
p196
I31
sS'help'
p197
I31
sS"don't"
p198
I27
sS'over'
p199
I31
sS'com\xc3\xa8'
p200
I31
sS'maaaas'
p201
I31
sS'bitof'
p202
I31
sS'course'
p203
I31
sS'paper'
p204
I31
sS'letters'
p205
I31
sS'cold'
p206
I31
sS'still'
p207
I31
sS'its'
p208
I28
sS'llegando'
p209
I31
sS'before'
p210
I30
sS'ima'
p211
I31
sS'la'
p212
I31
sS'lo'
p213
I31
sS'jugando'
p214
I31
sS'eua'
p215
I31
sS'botas'
p216
I31
sS'late'
p217
I31
sS'it....when'
p218
I31
sS'\xee\x90\x82\xee\x90\x98\xee\x8c\x9canyone'
p219
I31
sS'tweets'
p220
I31
sS'bout'
p221
I31
sS'2011'
p222
I15
sS'2010'
p223
I18
sS'2013'
p224
I30
sS'2012'
p225
I28
sS'dad'
p226
I31
sS'then'
p227
I29
sS'good'
p228
I28
sS'yo'
p229
I30
sS'90032'
p230
I5
sS'ya'
p231
I30
sS'yeahhh'
p232
I31
sS'dat'
p233
I31
sS'lunch'
p234
I31
sS'cutting'
p235
I31
sS'smarty'
p236
I31
sS'they'
p237
I29
sS'not'
p238
I30
sS'now'
p239
I26
sS'day'
p240
I30
sS'ktown'
p241
I31
sS'gregorio'
p242
I31
sS'wagon'
p243
I28
sS'trac'
p244
I31
sS'everytime'
p245
I31
sS'always'
p246
I30
sS'drop'
p247
I31
sS'pobre'
p248
I31
sS'rocks'
p249
I31
sS'2g'
p250
I31
sS'follow'
p251
I31
sS'\xee\x8c\xa9'
p252
I31
sS'went'
p253
I31
sS'higher'
p254
I31
sS'luck'
p255
I31
sS'el'
p256
I26
sS'en'
p257
I29
sS'house'
p258
I29
sS'fish'
p259
I31
sS'yeah'
p260
I29
sS'bowls'
p261
I31
sS'used'
p262
I31
sS'hanged'
p263
I31
sS'forgot'
p264
I31
sS'our'
p265
I31
sS'maguel'
p266
I31
sS'todo'
p267
I31
sS'es'
p268
I30
sS'out'
p269
I30
sS'lola'
p270
I31
sS'oprah'
p271
I31
sS'medicure'
p272
I31
sS'god'
p273
I31
sS'hooked'
p274
I30
sS'as\xc3\xad'
p275
I31
sS'seriously'
p276
I30
sS'stupid'
p277
I31
sS'smh'
p278
I30
sS'got'
p279
I26
sS'rn'
p280
I31
sS'cause'
p281
I31
sS'cabitole'
p282
I31
sS'ass'
p283
I30
sS"doesn't"
p284
I31
sS'bitches'
p285
I31
sS'r\xc3\xa1pido'
p286
I31
sS'forgive'
p287
I31
sS'free'
p288
I31
sS'negocio'
p289
I31
sS'que'
p290
I24
sS'put'
p291
I31
sS'tienes'
p292
I30
sS'wanted'
p293
I31
sS'craving'
p294
I31
sS'it:)'
p295
I31
sS'grad'
p296
I31
sS'could'
p297
I31
sS'norte\xc3\xb1o'
p298
I31
sS'times'
p299
I31
sS'thing'
p300
I29
sS'american'
p301
I31
sS'haaaa'
p302
I31
sS'place'
p303
I31
sS'gordon'
p304
I31
sS'think'
p305
I31
sS'logistics'
p306
I31
sS'already'
p307
I29
sS'onn'
p308
I31
sS'dont'
p309
I31
sS'feel'
p310
I31
sS'misplace'
p311
I31
sS'mucho'
p312
I31
sS'clear'
p313
I31
sS'done'
p314
I30
sS'bitch'
p315
I30
sS'lucerne'
p316
I30
sS'miss'
p317
I29
sS'tomorrow'
p318
I30
sS"you're"
p319
I29
sS'story'
p320
I30
sS'long'
p321
I30
sS'their'
p322
I31
sS'top'
p323
I31
sS'tired'
p324
I31
sS'girls'
p325
I30
sS'anyone'
p326
I31
sS'contra'
p327
I31
sS'1500'
p328
I30
sS'2'
p329
I28
sS'modric'
p330
I31
sS'too'
p331
I22
sS'passed'
p332
I31
sS'silverado'
p333
I26
sS'las'
p334
I31
sS'banana'
p335
I31
sS'urban'
p336
I31
sS'malibu'
p337
I28
sS'way'
p338
I30
sS'that'
p339
I16
sS'gym'
p340
I29
sS'park'
p341
I30
sS'took'
p342
I31
sS'trippn'
p343
I31
sS'believe'
p344
I31
sS'loved'
p345
I30
sS':)....keep'
p346
I31
sS'barss'
p347
I31
sS'lmao'
p348
I25
sS'2500hd'
p349
I28
sS'nononono'
p350
I31
sS'r'
p351
I31
sS'silly'
p352
I31
sS'loves'
p353
I31
sS'maybe'
p354
I31
sS'impala'
p355
I25
sS'and'
p356
I21
sS'este'
p357
I30
sS'ram'
p358
I30
sS'mind'
p359
I30
sS'eyes'
p360
I31
sS'sae'
p361
I31
sS'tonight'
p362
I29
sS'talking'
p363
I31
sS'say'
p364
I30
sS'have'
p365
I26
sS'need'
p366
I27
sS'larguisimos'
p367
I31
sS'omgsshhh'
p368
I31
sS'cheerios'
p369
I31
sS'kobe'
p370
I31
sS'strength'
p371
I31
sS'blanco'
p372
I31
sS'cherokee'
p373
I29
sS'buggin'
p374
I31
sS'sexier'
p375
I31
sS'acuerdan'
p376
I31
sS'take'
p377
I29
sS'which'
p378
I31
sS'bus'
p379
I31
sS'truck'
p380
I31
sS'memo'
p381
I31
sS'youuuu'
p382
I31
sS'even'
p383
I31
sS'play'
p384
I31
sS'sure'
p385
I31
sS'f/\\m'
p386
I31
sS'gram...get'
p387
I31
sS'who'
p388
I30
sS'encantan'
p389
I31
sS'victoria'
p390
I31
sS'3500'
p391
I31
sS'piso'
p392
I31
sS'mouth'
p393
I31
sS'accepting'
p394
I31
sS'ford'
p395
I8
sS'why'
p396
I27
sS'lindos'
p397
I31
sS'especially'
p398
I31
sS'dom'
p399
I31
sS'alarm'
p400
I31
sS'drive'
p401
I30
sS'doe'
p402
I31
sS'pipe'
p403
I31
sS'almanza'
p404
I31
sS'xo'
p405
I31
sS'armalo'
p406
I31
sS'night-'
p407
I31
sS'came'
p408
I31
sS'shop'
p409
I31
sS'shot'
p410
I31
sS'show'
p411
I30
sS'text'
p412
I31
sS'random'
p413
I31
sS'prix'
p414
I31
sS'sereno'
p415
I31
sS'king'
p416
I31
sS'bail'
p417
I31
sS'one'
p418
I27
sS'lesabre'
p419
I31
sS'busy'
p420
I31
sS'pinche'
p421
I31
sS'('
p422
I29
sS'pickup'
p423
I31
sS'should'
p424
I29
sS'see.....me'
p425
I31
sS'only'
p426
I30
sS'going'
p427
I27
sS'pretty'
p428
I31
sS'money'
p429
I31
sS'8'
p430
I31
sS'he'
p431
I31
sS'dodge'
p432
I18
sS'do'
p433
I28
sS'his'
p434
I31
sS'hit'
p435
I28
sS'asians'
p436
I31
sS'get'
p437
I25
sS'de'
p438
I27
sS'kind'
p439
I31
sS'truly'
p440
I31
sS'gogo'
p441
I31
sS'awww'
p442
I31
sS'him'
p443
I30
sS'celebrate'
p444
I31
sS'warfare'
p445
I31
sS'bar'
p446
I31
sS'avenger'
p447
I26
sS'shiieet'
p448
I31
sS'morning'
p449
I30
sS'felipe'
p450
I31
sS'bad'
p451
I30
sS'miles'
p452
I31
sS'she'
p453
I28
sS'dangerous'
p454
I31
sS'where'
p455
I29
sS'xmas'
p456
I29
sS'mee'
p457
I31
sS'art'
p458
I31
sS'lazy'
p459
I31
sS'touch'
p460
I31
sS'see'
p461
I31
sS'sipp'
p462
I31
sS'are'
p463
I27
sS'hell'
p464
I31
sS"troy's"
p465
I31
sS'sport'
p466
I31
sS'best'
p467
I27
sS'eres'
p468
I30
sS'said'
p469
I29
sS'luv'
p470
I31
sS'away'
p471
I31
sS'fans'
p472
I30
sS"there's"
p473
I31
sS'estas'
p474
I31
sS'hopefully'
p475
I29
sS'blancas'
p476
I31
sS'youll'
p477
I31
sS'we'
p478
I25
sS'men'
p479
I30
sS'recently'
p480
I31
sS'smelled'
p481
I31
sS'weak'
p482
I31
sS'jr'
p483
I31
sS'killing'
p484
I31
sS'mazda'
p485
I31
sS'quiero'
p486
I31
sS'(los'
p487
I31
sS'como'
p488
I30
sS'muletas'
p489
I31
sS'come'
p490
I29
sS'accident'
p491
I31
sS'last'
p492
I29
sS'signed'
p493
I31
sS'aguachiles'
p494
I31
sS'ill'
p495
I30
sS'ahora'
p496
I30
sS'pcs'
p497
I31
sS'puff'
p498
I31
sS'asked'
p499
I31
sS"can't"
p500
I31
sS'juanito'
p501
I30
sS'merry'
p502
I31
sS'homies'
p503
I31
sS'drunk'
p504
I31
sS'elf'
p505
I31
sS'ca'
p506
I5
sS'por'
p507
I30
sS'pop'
p508
I31
sS'walk'
p509
I31
sS'reupping'
p510
I31
sS'laugh'
p511
I31
sS'tanisha'
p512
I31
sS'charlamos'
p513
I31
sS"it's"
p514
I29
sS'muddy'
p515
I31
sS'af'
p516
I31
sS'con'
p517
I31
sS'been'
p518
I27
sS'breath'
p519
I31
sS'beer'
p520
I31
sS'much'
p521
I30
sS'damn'
p522
I30
sS'crawford'
p523
I31
sS'woke'
p524
I31
sS'wtf'
p525
I31
sS'conte'
p526
I31
sS'life'
p527
I30
sS'nada.\xe2\x80\x9d'
p528
I31
sS'hmu'
p529
I31
sS'pontiac'
p530
I24
sS'crack'
p531
I31
sS'hmm'
p532
I31
sS'whatever'
p533
I31
sS'frustration'
p534
I31
sS'jueves'
p535
I31
sS'catch'
p536
I31
sS'gueritas'
p537
I31
sS'an'
p538
I31
sS'those'
p539
I31
sS'chill'
p540
I30
sS'dash'
p541
I31
sS'east'
p542
I31
sS'look'
p543
I31
sS'these'
p544
I25
sS'straight'
p545
I31
sS'nd'
p546
I31
sS'harder'
p547
I31
sS'as'
p548
I31
sS'will'
p549
I29
sS'near'
p550
I5
sS'coca'
p551
I31
sS'hahaha'
p552
I31
sS'happened'
p553
I30
sS'widdit'
p554
I31
sS'erik'
p555
I31
sS'va'
p556
I31
sS'rap'
p557
I31
sS'almost'
p558
I31
sS'is'
p559
I14
sS'ir'
p560
I31
sS'it'
p561
I22
sS'mazda6'
p562
I31
sS'anger'
p563
I31
sS'cant'
p564
I30
sS'someone'
p565
I31
sS'im'
p566
I30
sS'in'
p567
I21
sS'ready'
p568
I31
sS'voy'
p569
I31
sS'worry'
p570
I31
sS'if'
p571
I28
sS'az'
p572
I31
sS'damos'
p573
I31
sS'james'
p574
I31
sS')'
p575
I30
sS'things'
p576
I30
sS'juan'
p577
I31
sS'bowl'
p578
I31
sS'honk'
p579
I31
sS'food'
p580
I30
sS'nopales'
p581
I31
sS'hey'
p582
I31
sS'babies'
p583
I31
sS'grand'
p584
I26
sS'hahaa'
p585
I31
sS'ochoa'
p586
I29
sS'week'
p587
I31
sS'tiempo'
p588
I31
sS'ball'
p589
I30
sS'chrysler'
p590
I30
sS'again'
p591
I31
sS'falta'
p592
I31
sS'bale'
p593
I31
sS'tomarrow'
p594
I31
sS'driver'
p595
I31
sS'<3'
p596
I31
sS'weed'
p597
I31
sS'cheers'
p598
I31
sS'cleaning'
p599
I31
sS'sisters'
p600
I31
sS"i'm"
p601
I27
sS'lacrosse'
p602
I31
sS'off'
p603
I31
sS'older'
p604
I31
sS'i'
p605
I6
sS'charger'
p606
I30
sS'well'
p607
I30
sS'fusion'
p608
I30
sS'tho'
p609
I29
sS'lil'
p610
I31
sS'contact'
p611
I31
sS'wya'
p612
I31
sS'mother'
p613
I31
sS'y'
p614
I31
sS'the'
p615
I7
sS'ily'
p616
I31
sS'yours'
p617
I31
sS'(x'
p618
I31
sS'>.<'
p619
I31
sS'kiss'
p620
I31
sS'just'
p621
I2
sS'true'
p622
I31
sS'when'
p623
I24
sS'kill'
p624
I31
sS'thanks'
p625
I31
sS'dakota'
p626
I30
sS'talk'
p627
I31
sS'yes'
p628
I31
sS'!haha'
p629
I31
sS'gustan'
p630
I31
sS'hah'
p631
I31
sS'cut'
p632
I31
sS'\xee\x90\x92\xee\x90\x98'
p633
I31
sS'$'
p634
I31
sS'wed'
p635
I31
sS'surprises'
p636
I31
sS'had'
p637
I28
sS'wen'
p638
I31
sS'weenie'
p639
I31
sS'4'
p640
I31
sS'crying'
p641
I31
sS'win'
p642
I31
sS'31'
p643
I31
sS'has'
p644
I30
sS'excited'
p645
I31
sS'kick'
p646
I30
sS'niece'
p647
I31
sS'amo'
p648
I31
sS'couple'
p649
I30
sS'gonna'
p650
I31
sS'early'
p651
I31
sS'game'
p652
I29
sS'know'
p653
I27
sS'mom'
p654
I31
sS'bit'
p655
I30
sS'lady'
p656
I31
sS'wings'
p657
I31
sS'thugisshh'
p658
I31
sS'701'
p659
I31
sS'like'
p660
I19
sS'da'
p661
I31
sS'honestly'
p662
I31
sS'loses'
p663
I31
sS'burgers'
p664
I31
sS'either'
p665
I31
sS'night'
p666
I27
sS'amor'
p667
I31
sS'awesome'
p668
I31
sS'cagan'
p669
I31
sS';q'
p670
I31
sS'right'
p671
I26
sS'often'
p672
I31
sS'joking'
p673
I31
sS'simulator'
p674
I31
sS'fucking'
p675
I30
sS'some'
p676
I27
sS'e-series'
p677
I22
sS'10'
p678
I31
sS'l'
p679
I31
sS'escape'
p680
I25
sS'home'
p681
I30
sS'mustang'
p682
I30
sS'finna'
p683
I31
sS'criminology'
p684
I31
sS'cnt'
p685
I31
sS'scale'
p686
I31
sS'for'
p687
I24
sS'literally'
p688
I31
sS'absolutely'
p689
I31
sS'lean'
p690
I31
sS'/'
p691
I31
sS'moon'
p692
I31
sS'everything'
p693
I31
sS'does'
p694
I31
sS'esoooo'
p695
I31
sS'treadmill'
p696
I31
sS'eso'
p697
I30
sS'bruhhh'
p698
I31
sS'bigote'
p699
I31
sS'be'
p700
I24
sS'7up'
p701
I31
sS'300'
p702
I30
sS'pues'
p703
I31
sS'nails'
p704
I31
sS'withdrawals'
p705
I31
sS'pinches'
p706
I31
sS'eye'
p707
I31
sS';)'
p708
I31
sS'super'
p709
I31
sS'by'
p710
I30
sS'on'
p711
I17
sS'about'
p712
I31
sS'ok'
p713
I31
sS'would'
p714
I29
sS'getting'
p715
I31
sS'jeep'
p716
I29
sS'of'
p717
I23
sS'o'
p718
I30
sS'angeles'
p719
I4
sS'regular'
p720
I31
sS'idk'
p721
I30
sS'applications"'
p722
I31
sS'stank'
p723
I31
sS'wanna'
p724
I30
sS'or'
p725
I29
sS'tonights'
p726
I31
sS'ppl'
p727
I31
sS'jimmy'
p728
I31
sS'whats'
p729
I29
sS'colorado'
p730
I31
sS'civic'
p731
I31
sS'h3'
p732
I28
sS'ahh'
p733
I31
sS'snapchat'
p734
I31
sS'son'
p735
I30
sS'down'
p736
I28
sS'momma'
p737
I31
sS'champ'
p738
I31
sS'buick'
p739
I28
sS'your'
p740
I24
sS'annoyance'
p741
I31
sS'neymar'
p742
I31
sS'...a'
p743
I31
sS'all\xc3\xa1'
p744
I31
sS'siento'
p745
I31
sS'there'
p746
I31
sS'jealousy'
p747
I31
sS'ca)'
p748
I31
sS'lol'
p749
I15
sS'los'
p750
I3
sS'pa'
p751
I31
sS'low'
p752
I31
sS'lot'
p753
I30
sS'thuggish'
p754
I31
sS'was'
p755
I3
sS'0-4'
p756
I31
sS'head'
p757
I31
sS'buy'
p758
I30
sS'traidor'
p759
I31
sS"i've"
p760
I31
sS'crown'
p761
I31
sS'coke'
p762
I31
sS'fireworks'
p763
I30
sS'hw'
p764
I31
sS'but'
p765
I27
sS'back'
p766
I29
sS'trying'
p767
I31
sS'with'
p768
I22
sS'eat'
p769
I29
sS'posted'
p770
I30
sS'seis'
p771
I31
sS'throw'
p772
I31
sS'made'
p773
I31
sS'kemp'
p774
I31
sS'arnt'
p775
I31
sS'wish'
p776
I29
sS'up'
p777
I20
sS'us'
p778
I28
sS'churro'
p779
I31
sS'un'
p780
I31
sS'dirty'
p781
I31
sS'daddy'
p782
I31
sS'called'
p783
I31
sS'tostadas'
p784
I31
sS'expedition'
p785
I28
sS'aj'
p786
I31
sS'ferrell'
p787
I31
sS'tengo'
p788
I31
sS'scanned'
p789
I5
sS'at'
p790
I20
sS'mejor'
p791
I31
sS'face'
p792
I31
sS'tenga'
p793
I31
sS'check'
p794
I31
sS'ni'
p795
I31
sS'theyll'
p796
I31
sS'no'
p797
I25
sS'nah'
p798
I31
sS'hybrid'
p799
I24
sS'lonngg'
p800
I31
sS'tight'
p801
I31
sS'other'
p802
I31
sS'5'
p803
I30
sS'sick'
p804
I31
sS'u'
p805
I22
sS'you'
p806
I14
sS'nice'
p807
I30
sS'papi'
p808
I31
sS'brothers'
p809
I30
sS'lol...who'
p810
I31
sS'time'
p811
I25
sS'matt'
p812
I31
sS"let's"
p813
I31
sS'modelo'
p814
I31
sS'kinda'
p815
I31
sS'fresh'
p816
I31
sS'friends'
p817
I30
sS'crybaby'
p818
I31
sS'land'
p819
I31
sS'mente'
p820
I31
sS'f-150'
p821
I22
sS'potato'
p822
I31
sS'dvd'
p823
I31
sS'together'
p824
I31
sS'having'
p825
I31
sS'2003'
p826
I31
sS'algo'
p827
I31
sS'2006'
p828
I14
sS'2007'
p829
I15
sS'2004'
p830
I31
sS'2005'
p831
I24
sS'understand'
p832
I31
sS'2008'
p833
I23
sS'2009'
p834
I13
sS'stacks'
p835
I30
s.