(dp0
S''
p1
I1
sS'all'
p2
I24
sS':/'
p3
I30
sS'forget'
p4
I30
sS'pros'
p5
I30
sS'tepeyac'
p6
I6
sS'burritos'
p7
I30
sS'taquitos'
p8
I30
sS'go'
p9
I23
sS'follow'
p10
I22
sS'wromg'
p11
I30
sS'hate'
p12
I29
sS'chili'
p13
I30
sS'row'
p14
I30
sS'hearing'
p15
I30
sS'special"'
p16
I28
sS'simon'
p17
I30
sS'tv'
p18
I30
sS'tweet'
p19
I27
sS'to'
p20
I3
sS'finally'
p21
I29
sS'lmaoo'
p22
I30
sS'te'
p23
I29
sS'woman'
p24
I30
sS'song'
p25
I29
sS':d'
p26
I30
sS'blanket'
p27
I30
sS'lurk'
p28
I30
sS'fat'
p29
I30
sS'jacon'
p30
I30
sS'jack'
p31
I29
sS'fam'
p32
I30
sS'jacob'
p33
I29
sS'cool'
p34
I30
sS'school'
p35
I28
sS'tear'
p36
I30
sS'leave'
p37
I30
sS'liars'
p38
I30
sS'quick'
p39
I30
sS'guy'
p40
I30
sS'"i\'ll'
p41
I30
sS"i'll"
p42
I29
sS'stussy'
p43
I30
sS'angeles)'
p44
I26
sS'instagram'
p45
I29
sS'tired'
p46
I29
sS'..\xe2\x80\x9dsame'
p47
I30
sS'foto'
p48
I30
sS'waking'
p49
I29
sS'surrounding'
p50
I30
sS'second'
p51
I30
sS'street'
p52
I30
sS'video'
p53
I30
sS'link'
p54
I30
sS'n'
p55
I26
sS'even'
p56
I29
sS'purge'
p57
I30
sS'what'
p58
I26
sS'decisions'
p59
I30
sS'enchiladas'
p60
I30
sS'fought.i'
p61
I30
sS'enjoyed'
p62
I30
sS'waiting'
p63
I29
sS'goes'
p64
I30
sS'new'
p65
I28
sS'ever'
p66
I27
sS'told'
p67
I30
sS'lee'
p68
I30
sS'never'
p69
I27
sS'meh'
p70
I30
sS'(los'
p71
I27
sS'\xe2\x9d\xa4\xef\xb8\x8f'
p72
I30
sS'let'
p73
I30
sS'trunk'
p74
I30
sS"hadn't"
p75
I30
sS"aren't"
p76
I30
sS'legend'
p77
I29
sS'change'
p78
I30
sS'celebration'
p79
I30
sS'boy'
p80
I30
sS'great'
p81
I28
sS'ahead'
p82
I30
sS'my'
p83
I7
sS'iloveyousm'
p84
I30
sS"i'd"
p85
I30
sS'jillianmisity'
p86
I30
sS'3hrs'
p87
I29
sS"i'm"
p88
I13
sS'makes'
p89
I29
sS'roomie'
p90
I30
sS'massage'
p91
I30
sS'love'
p92
I16
sS'guacamole'
p93
I30
sS'family'
p94
I28
sS'bro'
p95
I30
sS'till'
p96
I30
sS'wit'
p97
I30
sS'duck'
p98
I30
sS"you're*"
p99
I30
sS'emoji'
p100
I30
sS'from'
p101
I29
sS'working'
p102
I29
sS'&'
p103
I23
sS'mexico'
p104
I29
sS'dude'
p105
I29
sS'aaron'
p106
I30
sS'ca)'
p107
I26
sS'jam'
p108
I30
sS'call'
p109
I29
sS'memory'
p110
I30
sS'tell'
p111
I30
sS'today'
p112
I29
sS'more'
p113
I28
sS'grier'
p114
I28
sS'laughs'
p115
I30
sS'haha'
p116
I29
sS'hurt'
p117
I30
sS'phone'
p118
I30
sS'adult'
p119
I30
sS'baby'
p120
I28
sS'hold'
p121
I30
sS'hola'
p122
I30
sS'me'
p123
I8
sS'account'
p124
I30
sS'this'
p125
I21
sS'car'
p126
I30
sS'work'
p127
I30
sS'valla'
p128
I30
sS'nina'
p129
I30
sS'movies'
p130
I30
sS'sudden'
p131
I30
sS'can'
p132
I25
sS'cam'
p133
I30
sS'choi'
p134
I30
sS'growing'
p135
I30
sS'meet'
p136
I28
sS'didnt'
p137
I30
sS'beautiful'
p138
I29
sS'give'
p139
I30
sS'introduces'
p140
I30
sS'awesome'
p141
I30
sS"didn't"
p142
I28
sS'fuck'
p143
I26
sS'manuels'
p144
I28
sS':o'
p145
I30
sS'something'
p146
I29
sS'want'
p147
I24
sS'lmaoooooooooo'
p148
I30
sS'sir'
p149
I30
sS'needs'
p150
I28
sS'hoe'
p151
I30
sS'end'
p152
I30
sS'vibe'
p153
I30
sS'ping'
p154
I30
sS'1'
p155
I28
sS'how'
p156
I24
sS'sunday'
p157
I30
sS'place'
p158
I30
sS'mas'
p159
I30
sS'becky'
p160
I30
sS'okay'
p161
I30
sS'"home'
p162
I27
sS'ordenar'
p163
I30
sS'birthday'
p164
I30
sS'mad'
p165
I30
sS'hahahaha'
p166
I30
sS'pino'
p167
I30
sS'mal'
p168
I30
sS'autograph'
p169
I30
sS'man'
p170
I28
sS'a'
p171
I9
sS'brady'
p172
I30
sS'tbh'
p173
I30
sS'onto'
p174
I30
sS'aram'
p175
I30
sS'kiko'
p176
I30
sS'st'
p177
I30
sS'so'
p178
I23
sS'\xc3\xb3rale'
p179
I30
sS'playing'
p180
I30
sS'talk'
p181
I30
sS"that's"
p182
I28
sS'school)'
p183
I30
sS'mexican'
p184
I28
sS"don't"
p185
I29
sS'over'
p186
I28
sS'move'
p187
I29
sS'flips'
p188
I30
sS'unofficially'
p189
I30
sS"won't"
p190
I30
sS'shake'
p191
I30
sS'carnal'
p192
I30
sS'still'
p193
I30
sS'its'
p194
I30
sS'before'
p195
I30
sS'perfect'
p196
I30
sS'thank'
p197
I30
sS'la'
p198
I24
sS'muerde'
p199
I30
sS'[pic]'
p200
I28
sS'better'
p201
I28
sS'drumline'
p202
I30
sS'pays'
p203
I30
sS'tweets'
p204
I30
sS'aceptar'
p205
I30
sS'sauce'
p206
I30
sS'goodmorning'
p207
I30
sS'2012'
p208
I30
sS'dad'
p209
I27
sS'then'
p210
I27
sS'them'
p211
I28
sS'good'
p212
I25
sS'it*'
p213
I30
sS'food'
p214
I29
sS'practice'
p215
I30
sS'break'
p216
I30
sS'lunch'
p217
I28
sS'them.\xe2\x80\x9drft'
p218
I30
sS'they'
p219
I27
sS'huskies'
p220
I30
sS'not'
p221
I25
sS'now'
p222
I25
sS'day'
p223
I25
sS'alex'
p224
I30
sS'everytime'
p225
I30
sS'always'
p226
I26
sS'feast'
p227
I30
sS'lucy'
p228
I30
sS'murals'
p229
I30
sS'bless'
p230
I30
sS'slide'
p231
I29
sS'weather'
p232
I30
sS'ya'
p233
I30
sS'each'
p234
I30
sS'found'
p235
I29
sS'bitch'
p236
I30
sS'el'
p237
I5
sS'everyone'
p238
I28
sS'doing'
p239
I30
sS'house'
p240
I29
sS'youhim'
p241
I30
sS'h00d'
p242
I30
sS'life\xe2\x80\x9domg'
p243
I30
sS'ex'
p244
I30
sS'year'
p245
I29
sS'our'
p246
I30
sS'girl'
p247
I27
sS'out'
p248
I26
sS'try'
p249
I30
sS'matt'
p250
I13
sS'lovers'
p251
I30
sS'missed'
p252
I30
sS'god'
p253
I29
sS'irony'
p254
I30
sS'since'
p255
I29
sS'manuels\xe2\x80\xa6'
p256
I30
sS'seriously'
p257
I30
sS'stupid'
p258
I30
sS'health'
p259
I30
sS'perro'
p260
I30
sS'7'
p261
I29
sS'got'
p262
I28
sS'rn'
p263
I30
sS'day"'
p264
I30
sS'shut'
p265
I30
sS'drink'
p266
I30
sS'interactions'
p267
I30
sS'huevos'
p268
I30
sS'timeline'
p269
I30
sS'throwbacks'
p270
I30
sS'friday'
p271
I29
sS'small'
p272
I30
sS'please'
p273
I30
sS'que'
p274
I28
sS'asf'
p275
I29
sS'lmn'
p276
I30
sS'scarred'
p277
I30
sS'care'
p278
I29
sS'allergic'
p279
I30
sS'g'
p280
I30
sS'could'
p281
I28
sS'stampede'
p282
I30
sS'espinosa'
p283
I27
sS'wrong'
p284
I30
sS'david'
p285
I28
sS'thing'
p286
I30
sS'walmart'
p287
I30
sS'yum'
p288
I30
sS'soda'
p289
I30
sS'dis'
p290
I30
sS'8-0'
p291
I30
sS'malabar'
p292
I29
sS'first'
p293
I29
sS'feed'
p294
I30
sS'already'
p295
I29
sS'dont'
p296
I29
sS'feel'
p297
I30
sS'one'
p298
I25
sS'feet'
p299
I30
sS'sisters'
p300
I30
sS'done'
p301
I29
sS'lol'
p302
I23
sS'miss'
p303
I30
sS'tomorrow'
p304
I28
sS'noo!!!him'
p305
I30
sS"doesn't"
p306
I28
sS'little'
p307
I25
sS'"'
p308
I30
sS'together'
p309
I30
sS'bite'
p310
I30
sS'girls'
p311
I30
sS'anyone'
p312
I30
sS'their'
p313
I30
sS'graciaaas'
p314
I30
sS'too'
p315
I27
sS'hollywood'
p316
I30
sS'john'
p317
I30
sS'mermaid'
p318
I29
sS'listen'
p319
I30
sS'exploring'
p320
I30
sS'staaaaarving'
p321
I30
sS'hug'
p322
I30
sS'that'
p323
I17
sS'shawn'
p324
I30
sS'huh'
p325
I30
sS'<3!\xe2\x80\x9dfor'
p326
I30
sS'trippy'
p327
I30
sS'mmmm'
p328
I30
sS'part'
p329
I30
sS'off'
p330
I30
sS'sign'
p331
I30
sS'than'
p332
I29
sS'obama'
p333
I26
sS'loved'
p334
I30
sS'15'
p335
I29
sS'target'
p336
I29
sS'ew'
p337
I30
sS'ghs'
p338
I30
sS'see'
p339
I28
sS'bed'
p340
I30
sS'bee'
p341
I30
sS'silly'
p342
I30
sS'were'
p343
I27
sS'tfti\xe2\x80\x9dshut'
p344
I30
sS'bet'
p345
I30
sS'and'
p346
I14
sS'este'
p347
I30
sS'sees'
p348
I29
sS'20x'
p349
I30
sS'official'
p350
I30
sS'mind'
p351
I30
sS'tonight'
p352
I30
sS'woah'
p353
I30
sS'say'
p354
I30
sS'murder'
p355
I30
sS'have'
p356
I25
sS'truancy'
p357
I30
sS'need'
p358
I29
sS'breakfast'
p359
I30
sS'saw'
p360
I28
sS'hood'
p361
I30
sS'aladdin'
p362
I30
sS'-'
p363
I19
sS'okie'
p364
I30
sS'matthew'
p365
I26
sS'channel'
p366
I30
sS'rn\xe2\x80\x9dok'
p367
I30
sS'sure'
p368
I29
sS'though'
p369
I29
sS'quote'
p370
I30
sS'eggs'
p371
I30
sS'knew'
p372
I29
sS'hw'
p373
I29
sS"where's"
p374
I29
sS'duele'
p375
I30
sS'awk'
p376
I30
sS'why'
p377
I29
sS'2'
p378
I30
sS'michelle'
p379
I30
sS'forever'
p380
I27
sS'feasting'
p381
I29
sS'hungry'
p382
I29
sS'order'
p383
I30
sS'ashley'
p384
I30
sS"you'll"
p385
I30
sS'hi'
p386
I30
sS'nzjshshshhx'
p387
I30
sS'voting'
p388
I30
sS'laws'
p389
I30
sS'show'
p390
I30
sS'text'
p391
I29
sS'able'
p392
I30
sS'with\xe2\x80\xa6'
p393
I30
sS'find'
p394
I30
sS'\xe2\x9c\x8c'
p395
I30
sS'slow'
p396
I30
sS'..i'
p397
I30
sS'favor'
p398
I30
sS'('
p399
I29
sS'dick'
p400
I29
sS'man"'
p401
I30
sS'only'
p402
I28
sS'going'
p403
I25
sS'black'
p404
I29
sS'\xe2\x99\xa1'
p405
I30
sS'thankful'
p406
I30
sS'hope'
p407
I30
sS'meant'
p408
I30
sS'do'
p409
I29
sS'his'
p410
I29
sS'get'
p411
I26
sS'de'
p412
I29
sS'stop'
p413
I30
sS'lucky'
p414
I30
sS'da'
p415
I29
sS'joint'
p416
I30
sS'feels'
p417
I30
sS'ones'
p418
I30
sS'christopher'
p419
I30
sS'cameron'
p420
I30
sS'hii'
p421
I30
sS'happiest'
p422
I30
sS'him'
p423
I25
sS'celebrate'
p424
I30
sS'lmao'
p425
I28
sS'devoured'
p426
I30
sS":'("
p427
I29
sS'bae'
p428
I29
sS'she'
p429
I28
sS'x'
p430
I30
sS'where'
p431
I30
sS'insane'
p432
I30
sS'learn'
p433
I30
sS'hagan'
p434
I30
sS'tiiime'
p435
I30
sS'w/'
p436
I29
sS'we'
p437
I19
sS'flip'
p438
I30
sS'goodnight'
p439
I28
sS'are'
p440
I24
sS'24/7\xe2\x80\x9dsame'
p441
I30
sS'hoes'
p442
I30
sS'close'
p443
I30
sS'arm'
p444
I30
sS'best'
p445
I25
sS'wonder'
p446
I29
sS'fails'
p447
I30
sS'said'
p448
I29
sS'channel*me'
p449
I30
sS'movie'
p450
I29
sS'wow'
p451
I30
sS'currently'
p452
I30
sS'gentleman'
p453
I30
sS'cafe)'
p454
I29
sS'3'
p455
I29
sS'weird'
p456
I30
sS'probably'
p457
I30
sS'monsters'
p458
I30
sS'way\xe2\x80\x9d'
p459
I30
sS'ima'
p460
I30
sS'notice'
p461
I29
sS'oomf'
p462
I29
sS'omg'
p463
I29
sS'boss'
p464
I30
sS'job'
p465
I30
sS'here'
p466
I27
sS'wtf'
p467
I30
sS'cousin'
p468
I30
sS'cities'
p469
I30
sS'come'
p470
I28
sS'instagrams'
p471
I30
sS'aliyah\xe2\x80\x9d'
p472
I30
sS'last'
p473
I30
sS'thot'
p474
I30
sS'taking'
p475
I30
sS's'
p476
I30
sS'starting"'
p477
I30
sS'highland'
p478
I30
sS"can't"
p479
I29
sS'con'
p480
I30
sS'\xe2\x98\xba'
p481
I30
sS'ca'
p482
I30
sS'address'
p483
I30
sS'por'
p484
I30
sS'dudes'
p485
I30
sS'header'
p486
I30
sS'ranchera'
p487
I30
sS'laugh'
p488
I30
sS'lar'
p489
I30
sS'trust'
p490
I30
sS'beef'
p491
I30
sS'would'
p492
I30
sS"it's"
p493
I25
sS'been'
p494
I27
sS'beer'
p495
I30
sS'much'
p496
I27
sS'damn'
p497
I28
sS'sesh'
p498
I30
sS'pi'
p499
I30
sS'woke'
p500
I30
sS'wants'
p501
I29
sS'life'
p502
I29
sS'circus'
p503
I30
sS'neck\xe2\x80\x9dfront'
p504
I30
sS'attacked'
p505
I30
sS"what's"
p506
I27
sS'sunshine'
p507
I30
sS'homie'
p508
I30
sS'finished'
p509
I30
sS'chile'
p510
I30
sS'deport'
p511
I30
sS'andrea'
p512
I30
sS'those'
p513
I30
sS'chill'
p514
I30
sS'case'
p515
I29
sS'has'
p516
I30
sS'these'
p517
I30
sS'might'
p518
I30
sS'famous'
p519
I30
sS'weres'
p520
I28
sS'will'
p521
I29
sS'ugly'
p522
I30
sS'while'
p523
I30
sS'kick'
p524
I30
sS'hahaha'
p525
I30
sS'fun'
p526
I30
sS'hmmmm'
p527
I30
sS'larry'
p528
I30
sS'happened'
p529
I30
sS'mistake'
p530
I30
sS"ben's"
p531
I30
sS'fool'
p532
I30
sS'cons'
p533
I30
sS'<3'
p534
I30
sS'o.p.m'
p535
I30
sS'is'
p536
I12
sS'it'
p537
I15
sS'someone'
p538
I28
sS'im'
p539
I28
sS'avi'
p540
I30
sS'partynextdoor'
p541
I29
sS'in'
p542
I14
sS'ironic'
p543
I30
sS'ave'
p544
I26
sS'voy'
p545
I30
sS'worry'
p546
I30
sS'if'
p547
I23
sS'tattoo'
p548
I29
sS'shirt'
p549
I30
sS')'
p550
I28
sS'make'
p551
I27
sS'ok\xe2\x80\x9d'
p552
I30
sS'party'
p553
I28
sS'week'
p554
I30
sS'reunions'
p555
I30
sS'hang'
p556
I30
sS'yesterday'
p557
I29
sS'fucken'
p558
I30
sS'harris'
p559
I30
sS'deff'
p560
I30
sS'mentions'
p561
I30
sS'fucked'
p562
I30
sS'ladra'
p563
I30
sS'kid'
p564
I30
sS'\xe2\x9c\x8c\xef\xb8\x8f'
p565
I30
sS'posted'
p566
I30
sS'burrito'
p567
I26
sS'i'
p568
I2
sS'changes'
p569
I30
sS'tepayac'
p570
I30
sS'well'
p571
I30
sS'options'
p572
I30
sS'the'
p573
I4
sS'usual'
p574
I30
sS'summer'
p575
I30
sS'just'
p576
I17
sS'being'
p577
I29
sS'money'
p578
I29
sS'sleepy'
p579
I30
sS'w.o'
p580
I30
sS'front'
p581
I30
sS'kill'
p582
I30
sS'yes'
p583
I29
sS'anymoreme'
p584
I30
sS'tapeyac'
p585
I30
sS'had'
p586
I27
sS'cuz'
p587
I30
sS'barack'
p588
I27
sS'other'
p589
I30
sS'parents'
p590
I30
sS'easy'
p591
I30
sS'wet'
p592
I29
sS'east'
p593
I29
sS'homework'
p594
I30
sS'today/night'
p595
I30
sS'real'
p596
I30
sS'livin'
p597
I30
sS'couple'
p598
I30
sS'gonna'
p599
I29
sS"haven't"
p600
I30
sS'know'
p601
I26
sS'coshaaaaaa'
p602
I30
sS'world'
p603
I30
sS'correcting'
p604
I30
sS'whitesides'
p605
I30
sS'handicapping'
p606
I30
sS'like'
p607
I21
sS'*uncles'
p608
I30
sS'cooler'
p609
I30
sS'clown'
p610
I30
sS'true'
p611
I30
sS'labrea'
p612
I30
sS'nice'
p613
I30
sS'making'
p614
I30
sS'dale'
p615
I30
sS'because'
p616
I27
sS'm\xc3\xada'
p617
I30
sS'people'
p618
I28
sS'fucking'
p619
I30
sS'twitter'
p620
I30
sS'some'
p621
I29
sS'back'
p622
I26
sS'usher'
p623
I30
sS'proper'
p624
I30
sS'home'
p625
I30
sS'98%'
p626
I30
sS'for'
p627
I19
sS'literally'
p628
I29
sS"manuel's"
p629
I10
sS'carte'
p630
I30
sS'be'
p631
I20
sS'who'
p632
I26
sS'pls'
p633
I30
sS'remembered'
p634
I30
sS'night'
p635
I30
sS'verdad'
p636
I30
sS'robin\xe2\x80\x9d'
p637
I30
sS'super'
p638
I30
sS'by'
p639
I30
sS'chapter'
p640
I30
sS'on'
p641
I22
sS'about'
p642
I23
sS'ok'
p643
I29
sS'justin'
p644
I30
sS'oh'
p645
I30
sS'of'
p646
I15
sS'favorite'
p647
I28
sS"la's"
p648
I30
sS'angeles'
p649
I24
sS'wanna'
p650
I28
sS'or'
p651
I29
sS'block'
p652
I30
sS'ppl'
p653
I30
sS'seeing'
p654
I30
sS'ladies'
p655
I30
sS'own'
p656
I30
sS'whats'
p657
I30
sS'reactions'
p658
I30
sS'enough'
p659
I30
sS'pussy'
p660
I30
sS'selfie'
p661
I30
sS'bound'
p662
I30
sS'son'
p663
I30
sS'down'
p664
I28
sS'chronic'
p665
I30
sS'momma'
p666
I30
sS'right'
p667
I28
sS'promise'
p668
I29
sS'elementary'
p669
I29
sS'actually'
p670
I30
sS'your'
p671
I28
sS'(812'
p672
I26
sS'her'
p673
I29
sS'transfer'
p674
I30
sS'support'
p675
I30
sS'there'
p676
I30
sS'hey'
p677
I29
sS'long'
p678
I29
sS'fight'
p679
I30
sS'los'
p680
I21
sS'dropping'
p681
I30
sS'way'
p682
I29
sS'dom'
p683
I30
sS'bored'
p684
I29
sS'was'
p685
I20
sS'war'
p686
I30
sS'happy'
p687
I29
sS'cleaning'
p688
I30
sS'liars\xe2\x80\x9d'
p689
I30
sS"i've"
p690
I30
sS"matt's"
p691
I30
sS'you"'
p692
I30
sS'but'
p693
I26
sS'boys'
p694
I30
sS'verde'
p695
I29
sS'uncle'
p696
I30
sS'ha'
p697
I30
sS'with'
p698
I17
sS'eat'
p699
I29
sS'he'
p700
I29
sS'physicality'
p701
I30
sS'made'
p702
I30
sS"wasn't"
p703
I29
sS'wish'
p704
I27
sS'inside'
p705
I29
sS'j'
p706
I29
sS'up'
p707
I24
sS'ur'
p708
I29
sS"don't\xe2\x80\xa6"
p709
I30
sS'uh'
p710
I30
sS'problem'
p711
I30
sS'called'
p712
I30
sS'delete'
p713
I30
sS'gone'
p714
I30
sS'forgot'
p715
I30
sS'am'
p716
I30
sS'general'
p717
I30
sS'dear'
p718
I30
sS'as'
p719
I28
sS'ojala'
p720
I30
sS'at'
p721
I15
sS'babe'
p722
I30
sS'cafe'
p723
I12
sS'happen'
p724
I30
sS'shit'
p725
I29
sS'again'
p726
I30
sS'special:two'
p727
I30
sS'hasnt'
p728
I30
sS'deporting'
p729
I30
sS'no'
p730
I20
sS'deserve'
p731
I30
sS'when'
p732
I24
sS'topped'
p733
I30
sS'definitely'
p734
I30
sS'you'
p735
I16
sS'forcing'
p736
I30
sS'smell'
p737
I30
sS"you're"
p738
I29
sS'notifications'
p739
I30
sS"c'mon"
p740
I30
sS'evergreen'
p741
I26
sS'stat'
p742
I30
sS'sufrir'
p743
I30
sS'obsessed'
p744
I30
sS'secretly'
p745
I30
sS'rancheros'
p746
I30
sS'initiatives'
p747
I30
sS'aware'
p748
I30
sS'friends'
p749
I28
sS'worked'
p750
I30
sS'having'
p751
I30
sS'u'
p752
I18
sS'misses\xe2\x80\x9dmrs'
p753
I30
sS'time'
p754
I25
sS'nash'
p755
I25
sS'"the'
p756
I30
sS'original'
p757
I11
sS'others'
p758
I30
s.