(dp0
S''
p1
I1
sS'precise'
p2
I9
sS'just'
p3
I9
sS"don't"
p4
I8
sS'being'
p5
I9
sS'when'
p6
I9
sS'whoops'
p7
I9
sS'grandmas'
p8
I9
sS'go'
p9
I8
sS'yes'
p10
I9
sS'imagined'
p11
I9
sS'probs'
p12
I9
sS'now'
p13
I9
sS'cup'
p14
I9
sS'imma'
p15
I9
sS'trying'
p16
I9
sS'than'
p17
I8
sS'to'
p18
I3
sS'only'
p19
I9
sS'going'
p20
I9
sS'worth'
p21
I9
sS'goodmorning'
p22
I9
sS'me'
p23
I4
sS'good'
p24
I9
sS'worse'
p25
I9
sS'watching'
p26
I9
sS'far'
p27
I9
sS'dope'
p28
I9
sS'killer'
p29
I9
sS'watch'
p30
I9
sS'gonna'
p31
I9
sS'know'
p32
I9
sS'world'
p33
I9
sS'yr'
p34
I9
sS'like'
p35
I8
sS'always'
p36
I9
sS'these'
p37
I7
sS'biscuits'
p38
I9
sS'yasss'
p39
I9
sS"i'll"
p40
I9
sS'right'
p41
I9
sS'old'
p42
I9
sS'doing'
p43
I9
sS'house'
p44
I7
sS'some'
p45
I9
sS'yeah'
p46
I9
sS'really'
p47
I9
sS'sign'
p48
I9
sS'inland'
p49
I9
sS"you's"
p50
I8
sS'are'
p51
I7
sS'desperate'
p52
I9
sS'hoes'
p53
I9
sS'home'
p54
I9
sS'empire'
p55
I9
sS'wonder'
p56
I9
sS'even'
p57
I8
sS'what'
p58
I7
sS'for'
p59
I9
sS'god'
p60
I9
sS'away'
p61
I9
sS'ice'
p62
I9
sS"wasn't"
p63
I9
sS'machanoanoa'
p64
I9
sS'get'
p65
I9
sS'foo'
p66
I9
sS'ass'
p67
I9
sS'be'
p68
I8
sS'we'
p69
I9
sS'do'
p70
I9
sS'here'
p71
I7
sS'completely'
p72
I9
sS'key'
p73
I9
sS'on'
p74
I6
sS'kids'
p75
I9
sS'last'
p76
I8
sS'oh'
p77
I9
sS'of'
p78
I8
sS'moment'
p79
I9
sS'players'
p80
I9
sS'woke'
p81
I9
sS"i'm"
p82
I5
sS'maker'
p83
I9
sS'jimmy'
p84
I9
sS'love'
p85
I9
sS'drunk'
p86
I9
sS'xd'
p87
I9
sS'feet'
p88
I9
sS'tryna'
p89
I9
sS'likes'
p90
I9
sS'your'
p91
I9
sS'sheep'
p92
I9
sS"doesn't"
p93
I9
sS'little'
p94
I9
sS'from'
p95
I9
sS'would'
p96
I9
sS'&'
p97
I9
sS'justineeyweenie'
p98
I9
sS'visit'
p99
I9
sS'finally'
p100
I9
sS'lol'
p101
I8
sS'heights'
p102
I9
sS'live'
p103
I9
sS'too'
p104
I9
sS'way'
p105
I9
sS'6'
p106
I9
sS'was'
p107
I8
sS'today'
p108
I8
sS'!!!:)'
p109
I9
sS'life'
p110
I9
sS'both'
p111
I9
sS'mind'
p112
I9
sS'gas'
p113
I9
sS'but'
p114
I8
sS'it'
p115
I8
sS'whatever'
p116
I9
sS'hear'
p117
I9
sS'juan!!xd'
p118
I9
sS'haters'
p119
I9
sS'eat'
p120
I9
sS'count'
p121
I8
sS'made'
p122
I9
sS'this'
p123
I8
sS'bother'
p124
I9
sS'up'
p125
I9
sS'cat'
p126
I9
sS'whenever'
p127
I9
sS'convince'
p128
I9
sS'boyle'
p129
I9
sS'nanay'
p130
I9
sS'my'
p131
I7
sS'called'
p132
I9
sS'say'
p133
I9
sS'and'
p134
I6
sS'freak'
p135
I9
sS'<3'
p136
I9
sS'thirsty'
p137
I8
sS'then'
p138
I9
sS'refs'
p139
I8
sS'am'
p140
I9
sS'fuck'
p141
I8
sS'high'
p142
I9
sS'imagination'
p143
I9
sS'as'
p144
I9
sS'at'
p145
I7
sS'have'
p146
I8
sS'in'
p147
I6
sS'ship'
p148
I8
sS'ohhhh'
p149
I9
sS'shit'
p150
I9
sS'cream'
p151
I9
sS'funny'
p152
I9
sS'want'
p153
I9
sS'min'
p154
I9
sS'peace'
p155
I8
sS'-'
p156
I9
sS'that'
p157
I9
sS'5'
p158
I8
sS'truck'
p159
I9
sS'you'
p160
I5
sS'out'
p161
I9
sS'okay'
p162
I9
sS'sooooo'
p163
I9
sS'fucken'
p164
I9
sS'rations'
p165
I9
sS'mad'
p166
I9
sS'eaten'
p167
I9
sS'pedal'
p168
I9
sS'hurt'
p169
I9
sS'why'
p170
I9
sS'man'
p171
I9
sS'a'
p172
I2
sS'dummy'
p173
I9
sS'forever'
p174
I9
sS'too!('
p175
I9
sS'wcw'
p176
I9
sS'i'
p177
I1
sS'later'
p178
I9
sS'hungry'
p179
I7
sS'daily'
p180
I9
sS'think'
p181
I9
sS'freeway'
p182
I9
sS'so'
p183
I8
sS'ultimate'
p184
I9
sS'time'
p185
I9
sS'wake'
p186
I9
sS'the'
p187
I2
sS'usual'
p188
I9
sS'came'
p189
I9
sS"that's"
p190
I8
s.