(dp0
S''
p1
I1
sS'jaja'
p2
I36
sS'all'
p3
I28
sS':/'
p4
I36
sS'culeros'
p5
I37
sS':)'
p6
I31
sS'pido'
p7
I36
sS'oss'
p8
I37
sS'dollar'
p9
I37
sS"primo's"
p10
I37
sS'sleep'
p11
I36
sS'go'
p12
I33
sS':('
p13
I37
sS'hate'
p14
I35
sS'gh'
p15
I37
sS'mucho'
p16
I37
sS'looking'
p17
I36
sS'yummy'
p18
I36
sS":''')))"
p19
I37
sS'"merecer"'
p20
I37
sS'tv'
p21
I37
sS'j.cole'
p22
I36
sS'tu'
p23
I37
sS'father'
p24
I36
sS'young'
p25
I37
sS'asado'
p26
I37
sS'ranchito'
p27
I37
sS'to'
p28
I4
sS'finally'
p29
I37
sS'bike'
p30
I37
sS'decir'
p31
I37
sS'melon'
p32
I37
sS'lord'
p33
I37
sS'te'
p34
I31
sS'beware'
p35
I37
sS'"almost'
p36
I37
sS'town'
p37
I36
sS'woman'
p38
I36
sS'cruising'
p39
I37
sS'song'
p40
I36
sS':d'
p41
I37
sS'tenno'
p42
I36
sS'imessage'
p43
I37
sS'tacos'
p44
I33
sS'buche'
p45
I37
sS'vegas'
p46
I37
sS'every'
p47
I37
sS'jack'
p48
I37
sS'bestie'
p49
I37
sS'fall'
p50
I36
sS'awful'
p51
I37
sS'drinking'
p52
I37
sS'offline'
p53
I37
sS'school'
p54
I34
sS"martin's"
p55
I37
sS'mothers'
p56
I37
sS'did'
p57
I36
sS'12th'
p58
I36
sS'list'
p59
I37
sS'dia'
p60
I37
sS'rodriguiez'
p61
I37
sS'christmas'
p62
I37
sS'try'
p63
I37
sS'chatuuuu'
p64
I37
sS'guy'
p65
I37
sS'concluded'
p66
I37
sS'dexterity'
p67
I37
sS'work'
p68
I29
sS'angeles)'
p69
I35
sS'd\xc3\xa1ndole'
p70
I37
sS'phones'
p71
I37
sS'past'
p72
I37
sS'6pm'
p73
I37
sS'street'
p74
I34
sS'video'
p75
I37
sS'fabianeuresti\xe2\x80\xa6'
p76
I37
sS'red\xe2\x80\xa6'
p77
I37
sS'drinks'
p78
I37
sS'even'
p79
I36
sS'soulwax'
p80
I37
sS'what'
p81
I36
sS'stressful'
p82
I37
sS'corazon'
p83
I37
sS'dyhi'
p84
I37
sS'+'
p85
I37
sS'cohabitation'
p86
I37
sS'4'
p87
I37
sS'crush'
p88
I37
sS'lights'
p89
I37
sS'waiting'
p90
I36
sS'version'
p91
I37
sS'sus'
p92
I37
sS'felicidad('
p93
I37
sS'perfect,90033\n493151190444552193,virginiaaa__,2014-07-26'
p94
I37
sS'new'
p95
I30
sS'agradezco'
p96
I37
sS'ever'
p97
I29
sS'dem'
p98
I37
sS'gawd'
p99
I37
sS'nopalitos'
p100
I37
sS'cochinita'
p101
I37
sS'never'
p102
I36
sS'chicano'
p103
I37
sS'punch'
p104
I37
sS'here'
p105
I30
sS'hours'
p106
I34
sS'\xe2\x9d\xa4\xef\xb8\x8f'
p107
I34
sS'let'
p108
I36
sS'(2305'
p109
I37
sS'others'
p110
I37
sS"hadn't"
p111
I37
sS'luis'
p112
I36
sS'strong'
p113
I37
sS'extra\xc3\xb1o'
p114
I37
sS'change'
p115
I37
sS'wait'
p116
I36
sS'boy'
p117
I37
sS'great'
p118
I35
sS'kids'
p119
I35
sS'daughter'
p120
I37
sS'brilliant'
p121
I37
sS'my'
p122
I11
sS'settles'
p123
I37
sS'pizzanista'
p124
I37
sS'casa\xe2\x80\xa6'
p125
I37
sS'social'
p126
I37
sS'weird'
p127
I36
sS'makes'
p128
I36
sS'reclaim'
p129
I37
sS'pibil'
p130
I37
sS'love'
p131
I28
sS'brz'
p132
I37
sS'family'
p133
I37
sS'duct'
p134
I37
sS'4:30p'
p135
I37
sS'phenomenal'
p136
I37
sS'reagan'
p137
I37
sS'feelings'
p138
I37
sS'streetgonna'
p139
I37
sS'otros'
p140
I37
sS'should'
p141
I37
sS'everybody'
p142
I37
sS'dejar'
p143
I37
sS'siempre'
p144
I37
sS'eye'
p145
I36
sS'working'
p146
I35
sS'&'
p147
I24
sS'hospital'
p148
I37
sS'two'
p149
I36
sS'next'
p150
I37
sS'ca)'
p151
I13
sS'ignorancia'
p152
I37
sS'call'
p153
I36
sS'6'
p154
I37
sS'tape'
p155
I37
sS'jonathan'
p156
I37
sS'tell'
p157
I36
sS'today'
p158
I36
sS'more'
p159
I34
sS'tryna'
p160
I37
sS'love/hate'
p161
I37
sS'holy'
p162
I37
sS'sabes'
p163
I37
sS'about'
p164
I28
sS'it'
p165
I19
sS'downtown'
p166
I36
sS'phone'
p167
I37
sS'train'
p168
I37
sS"ain't"
p169
I36
sS'"solid'
p170
I37
sS'talks'
p171
I37
sS'dios'
p172
I35
sS'cuz'
p173
I37
sS'must'
p174
I35
sS'me'
p175
I12
sS'account'
p176
I37
sS'locked'
p177
I37
sS'hour'
p178
I37
sS'this'
p179
I27
sS'mo'
p180
I37
sS'getting'
p181
I34
sS'mi'
p182
I30
sS'cat'
p183
I37
sS'coeta'
p184
I37
sS'sour'
p185
I36
sS'can'
p186
I35
sS'kendrick'
p187
I37
sS'meet'
p188
I36
sS'arrive'
p189
I37
sS'didnt'
p190
I36
sS'crazy'
p191
I35
sS'plate'
p192
I37
sS'jajja'
p193
I37
sS'awesome'
p194
I36
sS"didn't"
p195
I36
sS'fuck'
p196
I36
sS'gusto'
p197
I37
sS'high'
p198
I36
sS'heard'
p199
I37
sS'salty'
p200
I37
sS'something'
p201
I37
sS'want'
p202
I36
sS'7:38pm'
p203
I37
sS'blvd'
p204
I36
sS'station'
p205
I37
sS'tan'
p206
I37
sS'awkward'
p207
I37
sS'complaining'
p208
I37
sS'watching'
p209
I37
sS'poking'
p210
I37
sS'chingue'
p211
I37
sS'naaahh'
p212
I37
sS'till'
p213
I36
sS'hot'
p214
I31
sS'carrier'
p215
I37
sS'heeart'
p216
I37
sS'buzzin'
p217
I37
sS'instead'
p218
I36
sS'hi'
p219
I37
sS'hafta'
p220
I37
sS'ped\xc3\xad'
p221
I37
sS'pizza'
p222
I37
sS'musical\xe2\x80\xa6'
p223
I37
sS'mas'
p224
I36
sS'leavin'
p225
I37
sS'intended'
p226
I37
sS'rude'
p227
I37
sS'may'
p228
I36
sS'cadillac'
p229
I36
sS'after'
p230
I34
sS'long'
p231
I37
sS'palmero'
p232
I37
sS'birthday'
p233
I37
sS'mad'
p234
I37
sS'coming'
p235
I35
sS'nadie..b\xc3\xbasquenle'
p236
I37
sS'guys'
p237
I37
sS'man'
p238
I35
sS'a'
p239
I8
sS'\xc2\xbfvengarme'
p240
I37
sS'migo'
p241
I37
sS'remember'
p242
I37
sS'maybe'
p243
I37
sS'noooo'
p244
I37
sS'su'
p245
I37
sS'st'
p246
I33
sS'hasta'
p247
I37
sS'bakery'
p248
I36
sS'maintain'
p249
I37
sS'so'
p250
I21
sS'jungle'
p251
I37
sS'facebook'
p252
I37
sS'collab'
p253
I37
sS'dream'
p254
I37
sS'sf'
p255
I37
sS'talk'
p256
I36
sS'"in'
p257
I37
sS'cute'
p258
I35
sS'mexican'
p259
I32
sS'office'
p260
I36
sS"don't"
p261
I25
sS'welcomed'
p262
I37
sS'over'
p263
I37
sS'fam'
p264
I37
sS'soon'
p265
I37
sS'years'
p266
I37
sS'telling'
p267
I37
sS'meten'
p268
I37
sS'own'
p269
I37
sS'london'
p270
I37
sS'costume'
p271
I37
sS'fellas'
p272
I37
sS'mcdonalds'
p273
I35
sS'still'
p274
I34
sS'ticket'
p275
I37
sS'badges'
p276
I37
sS'before'
p277
I35
sS'le'
p278
I37
sS'piscina'
p279
I37
sS'thank'
p280
I36
sS'fit'
p281
I37
sS'la'
p282
I19
sS'lo'
p283
I32
sS'botched'
p284
I37
sS'ooooo-weeeeeeee'
p285
I37
sS'amazing'
p286
I37
sS'[pic]'
p287
I33
sS'late'
p288
I32
sS'sucks'
p289
I37
sS'production'
p290
I37
sS'asking'
p291
I37
sS'encanta'
p292
I37
sS'soccer'
p293
I37
sS'might'
p294
I37
sS'najera'
p295
I37
sS'dad'
p296
I37
sS'then'
p297
I36
sS'them'
p298
I36
sS'good'
p299
I28
sS'crash'
p300
I37
sS'yo'
p301
I36
sS'ya'
p302
I36
sS'similar'
p303
I37
sS'nada'
p304
I36
sS'knockout'
p305
I37
sS'insomnia'
p306
I37
sS"we'll"
p307
I37
sS'finish'
p308
I37
sS'break'
p309
I37
sS'lunch'
p310
I33
sS'ovarios'
p311
I37
sS'xd'
p312
I37
sS'they'
p313
I34
sS'half'
p314
I36
sS'not'
p315
I31
sS'woc'
p316
I37
sS'now'
p317
I33
sS'problematic'
p318
I37
sS'day'
p319
I32
sS'stinking'
p320
I36
sS'acompa\xc3\xb1a..no'
p321
I37
sS'everytime'
p322
I37
sS'always'
p323
I36
sS'drop'
p324
I37
sS'ewwww'
p325
I37
sS'l'
p326
I37
sS'drake'
p327
I37
sS'rogando'
p328
I37
sS'm\xc3\xa1s'
p329
I37
sS'someone'
p330
I37
sS'weather'
p331
I37
sS'careless'
p332
I37
sS'die'
p333
I37
sS'went'
p334
I34
sS'|'
p335
I37
sS"isn't"
p336
I37
sS'mean'
p337
I37
sS'el'
p338
I35
sS'signing'
p339
I36
sS'en'
p340
I36
sS'bueno'
p341
I37
sS'eh'
p342
I37
sS'weight'
p343
I37
sS'doing'
p344
I36
sS'met'
p345
I37
sS'hard'
p346
I36
sS'(245'
p347
I36
sS'fever'
p348
I37
sS"we'd"
p349
I37
sS'gusto('
p350
I37
sS'year'
p351
I37
sS'2day'
p352
I37
sS'naming'
p353
I37
sS'todo'
p354
I37
sS'event'
p355
I33
sS'es'
p356
I34
sS'out'
p357
I32
sS"old's"
p358
I37
sS'aea'
p359
I37
sS'margaritaaaaas'
p360
I37
sS'opened'
p361
I37
sS'driving'
p362
I35
sS'space'
p363
I37
sS'miss'
p364
I35
sS'carg\xc3\xb3'
p365
I37
sS'14:4'
p366
I37
sS'valdez'
p367
I36
sS'poco'
p368
I36
sS'seriously'
p369
I36
sS'got'
p370
I34
sS'rn'
p371
I36
sS'issue'
p372
I37
sS'estubieras'
p373
I37
sS'lmfaaaaaoooooo'
p374
I37
sS'ass'
p375
I36
sS'model'
p376
I37
sS'foto'
p377
I37
sS'begins...back'
p378
I37
sS'experiment'
p379
I37
sS"you're"
p380
I37
sS'book)'
p381
I37
sS"karla's"
p382
I37
sS'0101'
p383
I26
sS'free'
p384
I37
sS'previews'
p385
I37
sS'playing'
p386
I37
sS'unfriendly'
p387
I37
sS'que'
p388
I27
sS'vinyl'
p389
I37
sS'grandma'
p390
I37
sS'put'
p391
I37
sS'org'
p392
I37
sS'shul'
p393
I36
sS'wanted'
p394
I37
sS'whittier'
p395
I37
sS'care'
p396
I37
sS'"el'
p397
I37
sS'recovering'
p398
I37
sS'ruins'
p399
I37
sS'could'
p400
I35
sS'days'
p401
I34
sS'spiciest'
p402
I37
sS'keep'
p403
I37
sS'thing'
p404
I36
sS'\xe2\xad\x90'
p405
I37
sS'4th'
p406
I37
sS'enough'
p407
I37
sS'dejo'
p408
I37
sS'disfruto'
p409
I37
sS'margaritas'
p410
I37
sS'(at'
p411
I32
sS'think'
p412
I35
sS'first'
p413
I35
sS'jonestown'
p414
I37
sS"i'll"
p415
I37
sS'already'
p416
I36
sS'superbowl'
p417
I37
sS'>>'
p418
I37
sS'yesterday/this'
p419
I37
sS'feel'
p420
I37
sS'newspaper'
p421
I37
sS'ghetto'
p422
I37
sS'taco'
p423
I35
sS'bomb-diggity'
p424
I37
sS'one'
p425
I32
sS'hook'
p426
I37
sS'insist'
p427
I37
sS'uuuuhhh'
p428
I37
sS'done'
p429
I36
sS'bitch'
p430
I37
sS'another'
p431
I36
sS'changing'
p432
I37
sS'chingar'
p433
I37
sS'open'
p434
I36
sS'tomorrow'
p435
I35
sS'size'
p436
I37
sS'moody'
p437
I37
sS'city'
p438
I36
sS'boulevard'
p439
I36
sS'bonita'
p440
I37
sS'service'
p441
I37
sS'los'
p442
I24
sS'festival'
p443
I37
sS'ordered'
p444
I37
sS'breed'
p445
I33
sS'least'
p446
I37
sS'heights'
p447
I14
sS'anyone'
p448
I37
sS'their'
p449
I36
sS'2'
p450
I35
sS'too'
p451
I34
sS'realization'
p452
I37
sS'hollywood'
p453
I33
sS'bday'
p454
I37
sS'friend'
p455
I37
sS'go...good'
p456
I37
sS'american"'
p457
I37
sS'para'
p458
I35
sS'that'
p459
I20
sS'woww'
p460
I37
sS'hector'
p461
I37
sS'$$'
p462
I37
sS'hotel'
p463
I37
sS'park'
p464
I37
sS'took'
p465
I37
sS'condoleezza'
p466
I37
sS'checking'
p467
I37
sS'heights"'
p468
I37
sS'part'
p469
I35
sS'grandpa'
p470
I37
sS'loving'
p471
I37
sS'theater'
p472
I25
sS'july'
p473
I36
sS'believe'
p474
I37
sS'than'
p475
I37
sS'carnage'
p476
I37
sS'mexicanos)'
p477
I37
sS'loved'
p478
I37
sS'b'
p479
I37
sS'14'
p480
I37
sS'16'
p481
I37
sS'fye'
p482
I37
sS'nuuuts'
p483
I37
sS'future'
p484
I37
sS'silly'
p485
I37
sS'were'
p486
I36
sS'visited'
p487
I37
sS'feeling'
p488
I37
sS'wandering'
p489
I37
sS'fannyveliz'
p490
I37
sS'and'
p491
I7
sS'este'
p492
I37
sS'ana'
p493
I37
sS'ann'
p494
I37
sS'turned'
p495
I37
sS'eyes'
p496
I37
sS'sad'
p497
I36
sS'tonight'
p498
I35
sS'talking'
p499
I36
sS'say'
p500
I37
sS'have'
p501
I25
sS'need'
p502
I32
sS'seen'
p503
I36
sS'breakfast'
p504
I36
sS'element'
p505
I37
sS'saw'
p506
I37
sS'any'
p507
I37
sS'ray'
p508
I36
sS'thought'
p509
I36
sS'ignoras'
p510
I37
sS'foodbank'
p511
I36
sS'mio'
p512
I37
sS'congrats'
p513
I37
sS'lil'
p514
I37
sS'hosea'
p515
I37
sS'-'
p516
I37
sS'chief'
p517
I37
sS'hangover'
p518
I37
sS'others)'
p519
I37
sS'darme'
p520
I37
sS'contact'
p521
I37
sS'take'
p522
I33
sS'deux'
p523
I37
sS'poop'
p524
I37
sS'honestly'
p525
I37
sS'asshole'
p526
I37
sS'coke'
p527
I37
sS';-)'
p528
I36
sS'quiz\xc3\xa1s'
p529
I37
sS'play'
p530
I37
sS'armando'
p531
I37
sS'pain'
p532
I36
sS'theatre'
p533
I36
sS'hombres'
p534
I37
sS'serve'
p535
I37
sS'collaboration'
p536
I37
sS'virgin'
p537
I37
sS'victoria'
p538
I37
sS'audition'
p539
I37
sS'strikes'
p540
I37
sS'x'
p541
I37
sS'nothing'
p542
I37
sS'why'
p543
I34
sS'so\xc3\xb1aba..el'
p544
I37
sS'forever'
p545
I36
sS'cause'
p546
I37
sS'especially'
p547
I37
sS'mando'
p548
I37
sS'falta'
p549
I37
sS'later'
p550
I36
sS'hungry'
p551
I35
sS'mainstage'
p552
I37
sS':)\xe2\x99\xa5\xe2\x99\xa1\xe2\x99\xa5\xe2\x99\xa5\xe2\x99\xa5\xe2\x99\xa5\xe2\x99\xa5\xe2\x99\xa5\xe2\x99\xa5\xe2\x99\xa5'
p553
I37
sS'doll'
p554
I37
sS'treasures'
p555
I37
sS'se'
p556
I36
sS'luz'
p557
I37
sS'saying'
p558
I37
sS'walking'
p559
I37
sS'ugh'
p560
I37
sS'shot'
p561
I37
sS'\xe2\x9c\xa8'
p562
I37
sS'gold'
p563
I37
sS'show'
p564
I35
sS'boreeeeeeeed'
p565
I37
sS'unseen'
p566
I37
sS'jfeldmar'
p567
I37
sS'bright'
p568
I37
sS'radio'
p569
I37
sS'smashing'
p570
I37
sS'heights)'
p571
I37
sS'king'
p572
I37
sS'bigotes'
p573
I37
sS'find'
p574
I37
sS"freakin'"
p575
I37
sS'aint'
p576
I37
sS'filmed'
p577
I37
sS'restaurant)'
p578
I37
sS'true'
p579
I37
sS'explain'
p580
I37
sS'hope'
p581
I37
sS'19th'
p582
I36
sS'kalei'
p583
I37
sS"usher's"
p584
I37
sS'only'
p585
I37
sS'going'
p586
I35
sS'black'
p587
I37
sS'rick'
p588
I37
sS'snickers'
p589
I37
sS'money'
p590
I37
sS'riding'
p591
I37
sS'posted'
p592
I35
sS'boyle'
p593
I15
sS'do'
p594
I27
sS'book(that'
p595
I37
sS'hit'
p596
I37
sS'get'
p597
I31
sS'de'
p598
I32
sS'watch'
p599
I37
sS'machos'
p600
I35
sS'them."'
p601
I37
sS'feels'
p602
I37
sS'12'
p603
I37
sS'words'
p604
I37
sS'estarte'
p605
I37
sS'him'
p606
I37
sS'freaking'
p607
I36
sS'pollo'
p608
I37
sS'bar'
p609
I36
sS'trucks'
p610
I37
sS'gourmande'
p611
I37
sS'h'
p612
I37
sS'afecte'
p613
I37
sS'badges"'
p614
I37
sS'morning'
p615
I35
sS":'("
p616
I37
sS'bag'
p617
I37
sS'bad'
p618
I37
sS'she'
p619
I37
sS'inapropro'
p620
I37
sS'midori'
p621
I37
sS'through'
p622
I37
sS'finishing'
p623
I37
sS'drunk'
p624
I37
sS'where'
p625
I33
sS'inside'
p626
I37
sS'staff'
p627
I37
sS'guessing'
p628
I37
sS'btw'
p629
I37
sS'set'
p630
I37
sS'art'
p631
I36
sS'often'
p632
I37
sS'zoned'
p633
I37
sS'w/'
p634
I34
sS'no.......do'
p635
I37
sS'lot'
p636
I37
sS'see'
p637
I30
sS'college'
p638
I37
sS'are'
p639
I34
sS'aquel'
p640
I37
sS'you:)'
p641
I37
sS'confused'
p642
I37
sS'best'
p643
I36
sS'wonder'
p644
I37
sS'mine'
p645
I37
sS'movie'
p646
I37
sS'wow'
p647
I36
sS'opening'
p648
I37
sS'oversized'
p649
I37
sS"wasn't"
p650
I37
sS'3'
p651
I36
sS"there's"
p652
I36
sS'c\xc3\xb3mo'
p653
I37
sS'horrible'
p654
I36
sS'bunch'
p655
I37
sS'merecen'
p656
I37
sS'josefina'
p657
I36
sS'we'
p658
I35
sS'omg'
p659
I37
sS'amen'
p660
I37
sS'commercial'
p661
I37
sS'lover'
p662
I37
sS'killing'
p663
I37
sS'kicking'
p664
I36
sS'experiencia'
p665
I37
sS'good-looking'
p666
I37
sS'despu\xc3\xa9s'
p667
I37
sS'(los'
p668
I14
sS'wtf'
p669
I35
sS'cousin'
p670
I37
sS'come'
p671
I33
sS'lopez'
p672
I36
sS'bruhh'
p673
I37
sS'c'
p674
I37
sS'counselor'
p675
I37
sS'last'
p676
I33
sS'restaurant'
p677
I35
sS'thot'
p678
I37
sS"wouldn't"
p679
I36
sS"he's"
p680
I36
sS'restroom'
p681
I37
sS'una'
p682
I36
sS's'
p683
I37
sS'8am'
p684
I37
sS'quien'
p685
I37
sS'fakkk'
p686
I37
sS'whole'
p687
I36
sS'gente'
p688
I37
sS"can't"
p689
I33
sS'con'
p690
I32
sS'childhood'
p691
I37
sS'5\xe2\x80\xa6'
p692
I37
sS'sweet'
p693
I37
sS'ca'
p694
I25
sS'por'
p695
I36
sS'community'
p696
I36
sS'walk'
p697
I36
sS'tons'
p698
I37
sS'written'
p699
I37
sS'called'
p700
I37
sS'asleep'
p701
I37
sS'apart\xe2\x80\x9d'
p702
I37
sS'supervisor'
p703
I37
sS'gallery)'
p704
I37
sS'tasted'
p705
I37
sS'better'
p706
I37
sS"aren't"
p707
I37
sS'yay'
p708
I37
sS'incomparable'
p709
I37
sS"it's"
p710
I29
sS'tgif'
p711
I37
sS'been'
p712
I37
sS'literally'
p713
I37
sS'jerks'
p714
I37
sS'beer'
p715
I37
sS'much'
p716
I33
sS'damn'
p717
I33
sS'bby'
p718
I37
sS'make-up'
p719
I37
sS'ska'
p720
I37
sS'505'
p721
I37
sS'guisados'
p722
I13
sS'qu\xc3\xa9'
p723
I35
sS'board'
p724
I37
sS'wants'
p725
I37
sS'life'
p726
I34
sS'pic'
p727
I37
sS'shopping'
p728
I37
sS'mind'
p729
I37
sS"what's"
p730
I37
sS'homies'
p731
I37
sS'goddess'
p732
I37
sS'else'
p733
I37
sS'child'
p734
I37
sS'aqui'
p735
I37
sS'\xc2\xa1los'
p736
I37
sS'careful'
p737
I37
sS'those'
p738
I37
sS'20'
p739
I37
sS'east'
p740
I32
sS'casa'
p741
I23
sS'look'
p742
I35
sS'being'
p743
I37
sS'these'
p744
I35
sS'gracias'
p745
I37
sS'single'
p746
I37
sS'n'
p747
I36
sS'will'
p748
I34
sS'cast'
p749
I37
sS'while'
p750
I36
sS'freely'
p751
I37
sS'fun'
p752
I37
sS'hmmmm'
p753
I37
sS'<-----'
p754
I37
sS'ironeyeretna'
p755
I37
sS'stop'
p756
I37
sS'would'
p757
I37
sS'<3'
p758
I36
sS'alcoholic'
p759
I37
sS'is'
p760
I16
sS'sushi'
p761
I36
sS'12pages'
p762
I37
sS'"i'
p763
I35
sS'blah'
p764
I37
sS'cant'
p765
I37
sS'lonely'
p766
I36
sS'im'
p767
I36
sS'in'
p768
I11
sS'ready'
p769
I37
sS'emailed'
p770
I37
sS'puerco'
p771
I37
sS'worry'
p772
I36
sS'if'
p773
I36
sS'issue/is'
p774
I37
sS'sensitive'
p775
I37
sS'migraine'
p776
I37
sS'make'
p777
I35
sS'belong'
p778
I37
sS'macarons'
p779
I37
sS'football'
p780
I37
sS'romance'
p781
I37
sS'food'
p782
I34
sS'delicious'
p783
I37
sS'strange'
p784
I37
sS'trap"'
p785
I37
sS'film'
p786
I36
sS'coworkers'
p787
I37
sS'big'
p788
I37
sS'official\xe2\x80\xa6'
p789
I37
sS'party'
p790
I35
sS'reminder'
p791
I37
sS'start'
p792
I37
sS'evidence'
p793
I37
sS'difficult'
p794
I37
sS'week'
p795
I35
sS'practice'
p796
I37
sS'temporary'
p797
I37
sS'hmmmm..aun'
p798
I37
sS'again'
p799
I36
sS'drink'
p800
I37
sS'drives'
p801
I37
sS'rain'
p802
I37
sS'moment'
p803
I37
sS'moving'
p804
I37
sS'fucked'
p805
I37
sS'mobster'
p806
I37
sS'500'
p807
I37
sS'l.a'
p808
I37
sS"i'm"
p809
I6
sS'haga'
p810
I37
sS'off'
p811
I36
sS'48'
p812
I37
sS'marriage.\xe2\x80\xa6'
p813
I37
sS'jajaja'
p814
I37
sS'i'
p815
I2
sS'safely'
p816
I37
sS'oohhh'
p817
I37
sS'well'
p818
I35
sS'spent'
p819
I37
sS'finds'
p820
I37
sS'tho'
p821
I36
sS'mia'
p822
I37
sS'without'
p823
I36
sS'flags'
p824
I37
sS'greatest'
p825
I37
sS'easily'
p826
I37
sS'y'
p827
I35
sS'antojitos'
p828
I37
sS'the'
p829
I3
sS'reward'
p830
I37
sS'starbucks'
p831
I37
sS'gdp'
p832
I37
sS'summer'
p833
I37
sS'(pork'
p834
I37
sS'kiss'
p835
I37
sS'just'
p836
I22
sS'less'
p837
I37
sS'rasquache'
p838
I37
sS'photo'
p839
I35
sS'rest'
p840
I37
sS'mientras'
p841
I37
sS'\xe2\x98\xba'
p842
I37
sS'thanks'
p843
I36
sS'reel'
p844
I37
sS'joder'
p845
I37
sS'massacre'
p846
I37
sS'apostasy'
p847
I37
sS's\xc3\xad'
p848
I37
sS'cut'
p849
I37
sS'mother'
p850
I37
sS'legion'
p851
I37
sS'quiere'
p852
I37
sS'ease'
p853
I37
sS'point'
p854
I37
sS'had'
p855
I35
sS'iphones'
p856
I37
sS'hall'
p857
I37
sS'hay'
p858
I37
sS'book'
p859
I37
sS'parents'
p860
I36
sS'attractive'
p861
I37
sS'soooooo'
p862
I37
sS'sampler'
p863
I34
sS'role'
p864
I37
sS'wey'
p865
I37
sS'has'
p866
I35
sS'real'
p867
I37
sS'starving'
p868
I37
sS'which'
p869
I37
sS'amo'
p870
I37
sS'importante'
p871
I37
sS'read'
p872
I36
sS'jeans'
p873
I37
sS"they've"
p874
I37
sS'possible'
p875
I37
sS'gonna'
p876
I32
sS'anger'
p877
I37
sS'early'
p878
I37
sS'game'
p879
I35
sS'traffic'
p880
I37
sS'know'
p881
I31
sS'mom'
p882
I35
sS'tanto'
p883
I37
sS'using'
p884
I37
sS'bit'
p885
I37
sS'sampling'
p886
I37
sS'projects'
p887
I37
sS'like'
p888
I30
sS'ayudes'
p889
I37
sS'd'
p890
I36
sS'-_-'
p891
I37
sS'workshop'
p892
I37
sS'ahh'
p893
I37
sS"night's"
p894
I37
sS'tomare'
p895
I37
sS'background'
p896
I37
sS'chuleta'
p897
I37
sS'suitcase'
p898
I37
sS'woman"'
p899
I37
sS'night'
p900
I35
sS'amor'
p901
I36
sS'ignoro'
p902
I37
sS'heel'
p903
I37
sS'making'
p904
I37
sS'right'
p905
I35
sS'old'
p906
I36
sS"couldn't"
p907
I37
sS'people'
p908
I29
sS'parilla'
p909
I35
sS'encuentren'
p910
I37
sS'twitter'
p911
I37
sS'ser\xc3\xa1'
p912
I37
sS'some'
p913
I34
sS'back'
p914
I35
sS'library'
p915
I36
sS'brian'
p916
I37
sS'band'
p917
I37
sS'billboard'
p918
I36
sS'home'
p919
I30
sS'theyre'
p920
I37
sS'organizing'
p921
I37
sS'fambam'
p922
I37
sS'mood'
p923
I37
sS'for'
p924
I9
sS'soto'
p925
I36
sS'0101\xe2\x80\xa6'
p926
I35
sS'/'
p927
I37
sS'everything'
p928
I35
sS'does'
p929
I36
sS'hipster'
p930
I37
sS'tamales)"'
p931
I37
sS'esa'
p932
I37
sS'blind&it'
p933
I37
sS'booking'
p934
I37
sS'be'
p935
I32
sS'"tamales'
p936
I37
sS'run'
p937
I36
sS'uggggh'
p938
I37
sS'lmfao'
p939
I35
sS'martin'
p940
I36
sS'mirada'
p941
I37
sS'use'
p942
I37
sS'lmao'
p943
I37
sS'disappeared'
p944
I37
sS'how'
p945
I34
sS'^_^'
p946
I37
sS'sun\xe2\x98\x80\xef\xb8\x8f'
p947
I37
sS'starring'
p948
I37
sS'pinches'
p949
I37
sS'from'
p950
I28
sS';)'
p951
I37
sS'super'
p952
I36
sS'by'
p953
I31
sS'on'
p954
I25
sS':-('
p955
I36
sS'"hungry'
p956
I37
sS'anything'
p957
I37
sS'oh'
p958
I35
sS'favorita'
p959
I36
sS'of'
p960
I17
sS"mcdonald's"
p961
I36
sS'o'
p962
I36
sS'side'
p963
I37
sS'angeles'
p964
I11
sS'm-thur'
p965
I37
sS'dinner'
p966
I35
sS'swear'
p967
I37
sS'plus'
p968
I37
sS'act'
p969
I37
sS"'in"
p970
I37
sS'8'
p971
I37
sS'modo'
p972
I37
sS'wanna'
p973
I35
sS'or'
p974
I35
sS'cultural'
p975
I37
sS'guisados)'
p976
I37
sS'seeing'
p977
I37
sS'aha'
p978
I37
sS'amigo('
p979
I37
sS'al'
p980
I37
sS'into'
p981
I37
sS'usa'
p982
I37
sS'down'
p983
I36
sS'chronic'
p984
I37
sS'everyone'
p985
I36
sS"morning'"
p986
I37
sS'elementary'
p987
I36
sS'vida"'
p988
I37
sS'your'
p989
I35
sS'trabajar'
p990
I37
sS'ahaha'
p991
I37
sS'fast'
p992
I37
sS'rabiknows.com'
p993
I37
sS'yea'
p994
I37
sS'spending'
p995
I37
sS'there'
p996
I35
sS'lol'
p997
I33
sS'gallery'
p998
I30
sS'continental'
p999
I37
sS'fucking'
p1000
I33
sS'*today'
p1001
I37
sS'way'
p1002
I34
sS'flannels'
p1003
I37
sS'yrs'
p1004
I37
sS'was'
p1005
I29
sS'fish'
p1006
I37
sS'happy'
p1007
I36
sS'meto'
p1008
I37
sS'head'
p1009
I37
sS'tonites'
p1010
I37
sS'drive'
p1011
I37
sS"i've"
p1012
I37
sS'bus'
p1013
I37
sS'heal'
p1014
I36
sS'bitches'
p1015
I37
sS'pastor'
p1016
I37
sS'but'
p1017
I33
sS'verde'
p1018
I37
sS'catalyst'
p1019
I37
sS'familia'
p1020
I37
sS'white"'
p1021
I37
sS'line'
p1022
I37
sS'trying'
p1023
I37
sS'with'
p1024
I18
sS'eat'
p1025
I35
sS'he'
p1026
I36
sS'directed'
p1027
I37
sS'hire'
p1028
I37
sS'thru'
p1029
I37
sS'happen'
p1030
I37
sS'semana'
p1031
I37
sS'wish'
p1032
I35
sS'\xe2\x99\xa5'
p1033
I37
sS'parisian'
p1034
I37
sS'up'
p1035
I33
sS'us'
p1036
I37
sS'record'
p1037
I37
sS'slander'
p1038
I37
sS'un'
p1039
I36
sS'peeking'
p1040
I37
sS'dirty'
p1041
I37
sS'americanistas'
p1042
I37
sS'mean?(x'
p1043
I37
sS'>'
p1044
I37
sS'minutes'
p1045
I37
sS'beliefs'
p1046
I37
sS'distance'
p1047
I37
sS'regram'
p1048
I37
sS'trio'
p1049
I35
sS'required'
p1050
I37
sS'constant'
p1051
I37
sS'af'
p1052
I34
sS'exhausted'
p1053
I37
sS'whisper'
p1054
I37
sS'penny'
p1055
I36
sS'am'
p1056
I37
sS'dialogue'
p1057
I37
sS'an'
p1058
I33
sS'pix'
p1059
I37
sS'as'
p1060
I28
sS'lived'
p1061
I37
sS'at'
p1062
I5
sS'mejor'
p1063
I37
sS'families'
p1064
I37
sS'awhile'
p1065
I37
sS'moves'
p1066
I37
sS'girl'
p1067
I37
sS'shit'
p1068
I36
sS'echo'
p1069
I37
sS'ni'
p1070
I36
sS'improving'
p1071
I37
sS'loud'
p1072
I37
sS'dying'
p1073
I36
sS'no'
p1074
I27
sS'todat'
p1075
I37
sS'drivers'
p1076
I37
sS'peace'
p1077
I37
sS'when'
p1078
I29
sS'cuenta'
p1079
I37
sS'porfavor'
p1080
I37
sS'-the'
p1081
I37
sS'other'
p1082
I37
sS'5'
p1083
I37
sS'besos'
p1084
I37
sS'kisser'
p1085
I37
sS'campaign.\xe2\x80\xa6'
p1086
I37
sS'you'
p1087
I10
sS'really'
p1088
I33
sS'nice'
p1089
I37
sS'sink'
p1090
I37
sS'______________everything'
p1091
I37
sS'strokes'
p1092
I37
sS'students'
p1093
I37
sS'welcome'
p1094
I37
sS'scared'
p1095
I37
sS'dur\xc3\xb3'
p1096
I37
sS'meetwith'
p1097
I37
sS"let's"
p1098
I37
sS'kinda'
p1099
I37
sS'wind'
p1100
I37
sS'bitchy'
p1101
I37
sS'friends'
p1102
I37
sS'needed'
p1103
I37
sS'alcohol'
p1104
I37
sS'ago'
p1105
I37
sS'remix'
p1106
I37
sS'e'
p1107
I37
sS'\xe2\x80\x94'
p1108
I37
sS'dog'
p1109
I37
sS'40mins'
p1110
I37
sS'lowkey'
p1111
I37
sS'u'
p1112
I37
sS'karma'
p1113
I37
sS'time'
p1114
I29
sS'far'
p1115
I37
sS'once'
p1116
I37
sS'starting'
p1117
I36
sS'having'
p1118
I37
sS':))'
p1119
I37
s.