(dp0
S''
p1
I1
sS'neighbors'
p2
I28
sS'all'
p3
I21
sS':/'
p4
I28
sS':('
p5
I28
sS'd\xc3\xada'
p6
I28
sS'saying'
p7
I28
sS'dance'
p8
I27
sS'yellow'
p9
I28
sS'sleep'
p10
I26
sS'go'
p11
I18
sS'gn'
p12
I28
sS'hate'
p13
I22
sS'hmmm'
p14
I28
sS'looking'
p15
I28
sS'llore'
p16
I28
sS'baller'
p17
I28
sS'zone'
p18
I28
sS'\xd9\x85\xd8\xad\xd9\x85\xd8\xaf'
p19
I28
sS'tu'
p20
I27
sS'chambelan'
p21
I28
sS'seriously'
p22
I27
sS"com'e"
p23
I28
sS'to'
p24
I6
sS'finally'
p25
I24
sS'decir'
p26
I28
sS'under'
p27
I28
sS'siblings'
p28
I28
sS'dislike'
p29
I28
sS'te'
p30
I23
sS'town'
p31
I28
sS'updated'
p32
I28
sS'song'
p33
I28
sS'dez'
p34
I28
sS'fat'
p35
I28
sS'tacos'
p36
I28
sS'every'
p37
I27
sS'fall'
p38
I28
sS'drinking'
p39
I28
sS':p'
p40
I28
sS'bryant'
p41
I28
sS'entire'
p42
I28
sS'school'
p43
I28
sS'3mins'
p44
I28
sS'did'
p45
I24
sS'gettin'
p46
I28
sS'brother'
p47
I26
sS'try'
p48
I28
sS'salute'
p49
I28
sS'small'
p50
I28
sS'guy'
p51
I27
sS'dip'
p52
I28
sS"i'll"
p53
I27
sS'regret'
p54
I28
sS'me"'
p55
I28
sS'\xd8\xba\xd8\xaf\xd9\x88'
p56
I28
sS'boots'
p57
I27
sS"hoe!!!'nn"
p58
I28
sS'past'
p59
I27
sS'crook'
p60
I28
sS'blowing'
p61
I28
sS'dihh'
p62
I27
sS'spaghetti'
p63
I28
sS'*on'
p64
I28
sS'drinks'
p65
I27
sS'even'
p66
I20
sS'what'
p67
I21
sS'organisms'
p68
I28
sS'decisions'
p69
I27
sS'5.3'
p70
I28
sS'\xd8\xa3\xd8\xad\xd8\xaf\xd8\xa7'
p71
I28
sS'lmfao'
p72
I28
sS'waiting'
p73
I28
sS'run'
p74
I28
sS'new'
p75
I27
sS'ever'
p76
I28
sS'body'
p77
I28
sS'\xd9\x88'
p78
I28
sS'culo'
p79
I28
sS'never'
p80
I24
sS'here'
p81
I27
sS'hours'
p82
I28
sS'\xe2\x9d\xa4\xef\xb8\x8f'
p83
I27
sS'busy'
p84
I28
sS'let'
p85
I28
sS'&&'
p86
I28
sS'along'
p87
I28
sS'extra\xc3\xb1o'
p88
I28
sS'change'
p89
I28
sS'wait'
p90
I27
sS'boy'
p91
I28
sS'hunting'
p92
I28
sS'jams'
p93
I28
sS'\xd9\x88\xd8\xb1\xd9\x88\xd8\xa7\xd8\xad(\xd9\x88\xd8\xaa\xd9\x84\xd9\x83'
p94
I28
sS'k'
p95
I28
sS'whatever/whenever'
p96
I28
sS'boo'
p97
I28
sS"i'm"
p98
I7
sS'missing'
p99
I28
sS'julio'
p100
I28
sS'swearing'
p101
I27
sS'love'
p102
I23
sS'cuetes'
p103
I28
sS'\xd8\xa5\xd9\x84\xd9\x89'
p104
I28
sS'win'
p105
I28
sS'\xe2\x9d\xa4'
p106
I28
sS'grouchy'
p107
I28
sS'overthink'
p108
I27
sS'impatient'
p109
I28
sS'cara'
p110
I28
sS'from'
p111
I24
sS'would'
p112
I26
sS'&'
p113
I22
sS'\xe2\x98\x9d\xef\xb8\x8f'
p114
I28
sS'dude'
p115
I27
sS'two'
p116
I27
sS'next'
p117
I27
sS'few'
p118
I28
sS'ca)'
p119
I27
sS'doubt'
p120
I28
sS'music'
p121
I27
sS'chu'
p122
I28
sS'teeth'
p123
I28
sS'ootd'
p124
I28
sS'thru'
p125
I28
sS'achieving'
p126
I28
sS'today'
p127
I25
sS'more'
p128
I28
sS'females'
p129
I28
sS'knows'
p130
I27
sS'started'
p131
I28
sS'brings'
p132
I28
sS'haha'
p133
I25
sS'sister'
p134
I27
sS'\xd9\x83\xd9\x84\xd9\x85\xd8\xa9'
p135
I28
sS'phone'
p136
I26
sS'flag'
p137
I28
sS"ain't"
p138
I24
sS'smile'
p139
I28
sS'baby'
p140
I26
sS'stranger'
p141
I28
sS'\xd8\xa7\xd8\xad\xd8\xaa\xd8\xac\xd8\xaa'
p142
I28
sS'justin'
p143
I28
sS'me'
p144
I8
sS'keeping'
p145
I28
sS'interesas'
p146
I28
sS'1997'
p147
I28
sS'niggas'
p148
I25
sS'this'
p149
I16
sS'car'
p150
I28
sS'ride'
p151
I28
sS'work'
p152
I25
sS'mi'
p153
I27
sS'believer'
p154
I28
sS'purge'
p155
I28
sS'can'
p156
I22
sS'merida'
p157
I28
sS'growing'
p158
I28
sS'making'
p159
I28
sS'my'
p160
I4
sS'100%'
p161
I28
sS'pick'
p162
I28
sS'heart'
p163
I28
sS'crazy'
p164
I28
sS'tap'
p165
I28
sS'floor'
p166
I28
sS"didn't"
p167
I28
sS'fuck'
p168
I11
sS'\xd9\x83\xd9\x88\xd9\x86\xd8\xaa\xd9\x8a'
p169
I28
sS'high'
p170
I28
sS'tenerte'
p171
I27
sS'you!<3'
p172
I28
sS'something'
p173
I25
sS'want'
p174
I26
sS'venciste'
p175
I28
sS'dress'
p176
I28
sS'hoe'
p177
I28
sS'oookkaayyy'
p178
I28
sS'awkward'
p179
I28
sS'turn'
p180
I28
sS'watching'
p181
I28
sS'thanking'
p182
I28
sS'till'
p183
I28
sS'sunday'
p184
I27
sS'forest'
p185
I28
sS'melts'
p186
I28
sS'clink'
p187
I28
sS'*sleepy'
p188
I28
sS'beach'
p189
I26
sS'fuuuuuccken'
p190
I28
sS'simple....smh'
p191
I28
sS'somebody-'
p192
I28
sS'mas'
p193
I28
sS'okay'
p194
I27
sS'rude'
p195
I28
sS'watch'
p196
I28
sS'after'
p197
I27
sS'wrong'
p198
I28
sS'birthday'
p199
I28
sS'mad'
p200
I25
sS'ladies('
p201
I28
sS'guys'
p202
I28
sS'man'
p203
I26
sS'a'
p204
I10
sS'huntintong'
p205
I28
sS'\xd9\x88\xd8\xb3\xd8\xa7\xd9\x86\xd8\xaf\xd9\x8a\xd8\xba\xd9\x88'
p206
I28
sS'light'
p207
I28
sS'shady'
p208
I28
sS'so'
p209
I17
sS'classy'
p210
I28
sS'fan'
p211
I28
sS'playing'
p212
I28
sS'talk'
p213
I24
sS'cute'
p214
I25
sS"don't"
p215
I20
sS'over'
p216
I27
sS'sooo'
p217
I28
sS'censer'
p218
I28
sS'through'
p219
I27
sS'same'
p220
I28
sS'hell'
p221
I28
sS'still'
p222
I21
sS'before'
p223
I27
sS'ima'
p224
I27
sS'style'
p225
I28
sS'thank'
p226
I28
sS'la'
p227
I19
sS'personal'
p228
I28
sS'lo'
p229
I28
sS'better'
p230
I26
sS'sister\xe2\x99\xa1'
p231
I28
sS'bout'
p232
I28
sS'soccer'
p233
I28
sS"haven't"
p234
I27
sS'dad'
p235
I28
sS'then'
p236
I27
sS'good'
p237
I22
sS'ya'
p238
I25
sS'conversations'
p239
I28
sS'practice'
p240
I28
sS'lado"'
p241
I28
sS'sarcastic'
p242
I28
sS'starbucks'
p243
I25
sS'they'
p244
I26
sS'not'
p245
I19
sS'now'
p246
I21
sS'ahaha'
p247
I28
sS'day'
p248
I24
sS'bank'
p249
I28
sS'importante'
p250
I28
sS'name'
p251
I25
sS'always'
p252
I26
sS'deciado'
p253
I28
sS'someone'
p254
I27
sS'weather'
p255
I28
sS'pizza'
p256
I28
sS'carlos'
p257
I28
sS'mean'
p258
I27
sS'el'
p259
I27
sS'everyone'
p260
I27
sS'bueno'
p261
I28
sS'another'
p262
I28
sS'doing'
p263
I28
sS'house'
p264
I28
sS'hard'
p265
I27
sS'yeah'
p266
I27
sS'sears'
p267
I28
sS'our'
p268
I26
sS'calling'
p269
I28
sS'todo'
p270
I28
sS'saturday'
p271
I28
sS'out'
p272
I18
sS'rt'
p273
I28
sS'wayne'
p274
I28
sS'matt'
p275
I28
sS'//she'
p276
I28
sS'driving'
p277
I28
sS'since'
p278
I28
sS'george'
p279
I28
sS'strangers'
p280
I28
sS'laid'
p281
I28
sS'stupid'
p282
I28
sS'lord'
p283
I28
sS'7'
p284
I28
sS'smh'
p285
I27
sS'got'
p286
I20
sS'rn'
p287
I25
sS'mandi'
p288
I28
sS'hermosa'
p289
I27
sS'she'
p290
I28
sS'ass'
p291
I26
sS'shut'
p292
I26
sS"doesn't"
p293
I28
sS'little'
p294
I24
sS'free'
p295
I27
sS'quick'
p296
I28
sS'reason'
p297
I28
sS'que'
p298
I24
sS'put'
p299
I27
sS'gots'
p300
I28
sS'la-la'
p301
I28
sS'wanted'
p302
I28
sS'westside'
p303
I28
sS'craving'
p304
I28
sS'beast'
p305
I28
sS'days'
p306
I28
sS'luego'
p307
I28
sS'handstand'
p308
I28
sS'could'
p309
I27
sS'fucken'
p310
I26
sS'keep'
p311
I28
sS'benji'
p312
I27
sS"actin'"
p313
I28
sS'think'
p314
I22
sS'waited'
p315
I28
sS'first'
p316
I27
sS'enjoy'
p317
I28
sS'already'
p318
I28
sS'killuminati'
p319
I28
sS'feel'
p320
I26
sS'*'
p321
I28
sS'xd'
p322
I28
sS'one'
p323
I25
sS'spinning'
p324
I28
sS'done'
p325
I28
sS'bitch'
p326
I21
sS'lagging'
p327
I28
sS'spanish'
p328
I28
sS'impalaa'
p329
I28
sS'miss'
p330
I25
sS'tomorrow'
p331
I24
sS"you're"
p332
I26
sS'guess'
p333
I27
sS'checked'
p334
I28
sS'los'
p335
I28
sS'rossie'
p336
I27
sS'twisted'
p337
I28
sS'nowdo'
p338
I28
sS'their'
p339
I28
sS'fml'
p340
I28
sS'station'
p341
I28
sS'too'
p342
I24
sS'typing'
p343
I28
sS'mama'
p344
I28
sS'chapa'
p345
I28
sS'friend'
p346
I28
sS'listen'
p347
I28
sS'hangout'
p348
I28
sS'stomach'
p349
I28
sS'that'
p350
I9
sS'park'
p351
I27
sS'depressing'
p352
I27
sS'because'
p353
I28
sS'thai'
p354
I25
sS'kind'
p355
I28
sS'legs'
p356
I28
sS'lmao'
p357
I24
sS'16'
p358
I28
sS'depressed'
p359
I28
sS'double'
p360
I27
sS'bother'
p361
I28
sS'ceeeeeeesar'
p362
I28
sS'goodnight'
p363
I27
sS'matter'
p364
I27
sS'firework'
p365
I28
sS'supposed'
p366
I28
sS'everis'
p367
I28
sS'were'
p368
I28
sS'college'
p369
I28
sS'feeling'
p370
I28
sS'and'
p371
I18
sS'\xd8\xa7\xd9\x86\xd8\xac\xd9\x84\xd9\x88\xd8\xb3'
p372
I28
sS'turned'
p373
I28
sS'tonight'
p374
I26
sS'say'
p375
I18
sS'have'
p376
I24
sS'hagas'
p377
I28
sS'need'
p378
I27
sS'any'
p379
I28
sS'presencia'
p380
I28
sS'lil'
p381
I27
sS'-'
p382
I27
sS"me's"
p383
I28
sS'niece'
p384
I27
sS'blades'
p385
I28
sS'play'
p386
I27
sS'sure'
p387
I28
sS'electric'
p388
I27
sS'though'
p389
I28
sS'rhs'
p390
I28
sS"mcd's"
p391
I28
sS'much"shut'
p392
I28
sS'paid'
p393
I28
sS'yawk'
p394
I28
sS'adriel'
p395
I28
sS'nothing'
p396
I26
sS'knee'
p397
I28
sS'america'
p398
I28
sS'tired'
p399
I28
sS'why'
p400
I24
sS"ac's"
p401
I28
sS'reminds'
p402
I28
sS'seafood'
p403
I28
sS'later'
p404
I28
sS'cover'
p405
I28
sS'hungry'
p406
I27
sS'looked'
p407
I28
sS'clean'
p408
I28
sS'sun'
p409
I28
sS'\xe2\x98\x80\xef\xb8\x8f'
p410
I28
sS'favela'
p411
I28
sS'lying'
p412
I28
sS'\xd8\xa7\xd9\x84\xd8\xb9\xd9\x8a\xd8\xb3\xd9\x89'
p413
I28
sS'shot'
p414
I28
sS'text'
p415
I26
sS'random'
p416
I28
sS'assholes'
p417
I28
sS'radio'
p418
I28
sS'?\xe2\x80\x9dgtfo'
p419
I28
sS'\xd8\xa8\xd9\x82\xd9\x88\xd8\xa9'
p420
I28
sS'hace'
p421
I28
sS'\xd8\xa7\xd9\x84\xd8\xad\xd9\x8a\xd8\xa7\xd8\xa9'
p422
I28
sS'\xd9\x81\xd9\x8a'
p423
I28
sS'sayin'
p424
I28
sS'\xe2\x9c\x8b'
p425
I27
sS'pinche'
p426
I28
sS'dick'
p427
I28
sS'mexicans'
p428
I28
sS'yea'
p429
I28
sS'idiots'
p430
I27
sS'going'
p431
I25
sS'black'
p432
I28
sS'\xe2\x99\xa1'
p433
I28
sS'\xd9\x84\xd8\xb7\xd9\x84\xd8\xa7\xd8\xa8'
p434
I28
sS'hope'
p435
I28
sS'do'
p436
I21
sS'his'
p437
I27
sS'beyonc\xc3\xa9'
p438
I28
sS'get'
p439
I24
sS'de'
p440
I25
sS'stop'
p441
I26
sS'account'
p442
I27
sS'trees'
p443
I28
sS'feels'
p444
I28
sS"'til"
p445
I28
sS'reply'
p446
I28
sS'2'
p447
I28
sS'nasty'
p448
I28
sS'silk'
p449
I27
sS'workouts'
p450
I28
sS'\xd8\xaa\xd8\xb6\xd8\xb1\xd8\xa8'
p451
I28
sS'*would'
p452
I28
sS'borrow'
p453
I28
sS'morning'
p454
I27
sS'twice'
p455
I27
sS'bad'
p456
I28
sS'bae'
p457
I28
sS'fomie'
p458
I28
sS"won't"
p459
I28
sS'qk'
p460
I28
sS'where'
p461
I27
sS'xmas'
p462
I28
sS'guessing'
p463
I28
sS'w/'
p464
I28
sS'lazy'
p465
I28
sS'see'
p466
I26
sS'dumb'
p467
I28
sS'are'
p468
I23
sS'hoes'
p469
I28
sS'close'
p470
I28
sS'\xd8\xa7\xef\xbb\xb7\xd9\x8a\xd8\xa7\xd9\x85'
p471
I28
sS'\xd8\xb3\xd8\xa7\xd8\xa6\xd8\xb1'
p472
I28
sS'movie'
p473
I27
sS'wow'
p474
I28
sS'chapstick'
p475
I28
sS'fans'
p476
I28
sS'\xd9\x86\xd8\xaf\xd8\xa7\xd9\x88\xd9\x84\xd9\x87\xd8\xa7'
p477
I28
sS'aviso'
p478
I28
sS'bought'
p479
I28
sS'we'
p480
I21
sS'omg'
p481
I28
sS'trynna'
p482
I28
sS'\xd9\x88\xd8\xb7\xd8\xa7\xd9\x84\xd8\xa8\xd8\xa7\xd8\xaa'
p483
I28
sS'literally'
p484
I28
sS'gotta'
p485
I28
sS'aaliyah'
p486
I28
sS'experiencia'
p487
I27
sS'quiero'
p488
I28
sS'\xd8\xaa\xd8\xb1\xd8\xa7\xd9\x87\xd9\x85'
p489
I28
sS'(los'
p490
I27
sS'wtf'
p491
I27
sS'hurts'
p492
I28
sS'selena'
p493
I28
sS'staring'
p494
I28
sS'tfti'
p495
I28
sS'last'
p496
I28
sS'aguachiles'
p497
I28
sS'taking'
p498
I28
sS"he's"
p499
I26
sS'ahora'
p500
I28
sS'dated'
p501
I28
sS'alot'
p502
I28
sS'faces'
p503
I28
sS'viniste'
p504
I28
sS'asked'
p505
I26
sS"can't"
p506
I26
sS'wear'
p507
I28
sS'come'
p508
I28
sS'6%'
p509
I28
sS'sky'
p510
I28
sS'endless'
p511
I28
sS'jk'
p512
I28
sS'whatever'
p513
I28
sS'walk'
p514
I28
sS'"baby'
p515
I28
sS'simply'
p516
I28
sS'asleep'
p517
I28
sS'headaches'
p518
I28
sS'foreveeerrr'
p519
I28
sS'late'
p520
I27
sS'callertwenty'
p521
I28
sS"it's"
p522
I23
sS'reto'
p523
I28
sS'cielo'
p524
I28
sS'been'
p525
I27
sS'marynigga'
p526
I28
sS'hitting'
p527
I28
sS'much'
p528
I26
sS'damn'
p529
I26
sS'basic'
p530
I28
sS'define'
p531
I28
sS'life'
p532
I28
sS'hmu'
p533
I27
sS'ganja'
p534
I28
sS'apartments'
p535
I28
sS'cruelty'
p536
I28
sS'else'
p537
I28
sS'\xd9\x84\xd9\x88\xd8\xb3'
p538
I28
sS'awake'
p539
I27
sS'-.-'
p540
I28
sS'worked'
p541
I28
sS'irrelevant'
p542
I28
sS'those'
p543
I28
sS'east'
p544
I28
sS'look'
p545
I27
sS'\xd9\x81\xd9\x88\xd9\x84\xd9\x8a\xd8\xb1\xd8\xaa\xd9\x88\xd9\x86'
p546
I28
sS'imagination'
p547
I28
sS'these'
p548
I27
sS'nd'
p549
I28
sS'diela'
p550
I28
sS'\xd9\x87\xd8\xb2\xd8\xa9'
p551
I28
sS'while'
p552
I28
sS'pt.1'
p553
I28
sS'goodmorning'
p554
I28
sS'fun'
p555
I28
sS'hoping'
p556
I28
sS'flex'
p557
I28
sS'is'
p558
I12
sS'prayer'
p559
I28
sS'it'
p560
I13
sS'sleeping'
p561
I28
sS'feliz'
p562
I28
sS'middle'
p563
I28
sS"runnin'"
p564
I28
sS'sudden'
p565
I27
sS'im'
p566
I27
sS'in'
p567
I15
sS'loosing'
p568
I28
sS'rid'
p569
I28
sS'ig'
p570
I28
sS'if'
p571
I22
sS'different'
p572
I28
sS'things'
p573
I24
sS'make'
p574
I26
sS'\xd8\xa8\xd9\x8a\xd9\x86'
p575
I28
sS'food'
p576
I28
sS'strange'
p577
I28
sS'inch'
p578
I28
sS'party'
p579
I28
sS'couple'
p580
I28
sS'week'
p581
I28
sS'ugghhh'
p582
I28
sS'mariscos'
p583
I28
sS'drink'
p584
I27
sS'bumpin'
p585
I28
sS'kik'
p586
I27
sS'moment'
p587
I27
sS'moving'
p588
I28
sS'purpose'
p589
I28
sS'l.a'
p590
I27
sS'\xe2\x9c\x8c\xef\xb8\x8f'
p591
I27
sS'beautifulest'
p592
I28
sS'off'
p593
I26
sS'i'
p594
I2
sS'1975'
p595
I28
sS'\xd9\x85\xd9\x85\xd9\x86'
p596
I28
sS'well'
p597
I26
sS'anybody'
p598
I28
sS'da\xc3\xb1o'
p599
I28
sS'tho'
p600
I25
sS'person'
p601
I28
sS'comes'
p602
I28
sS'pandora'
p603
I26
sS'english'
p604
I28
sS'y'
p605
I27
sS'\xd8\xb1\xd8\xac\xd9\x88\xd8\xb9\xd9\x83!!\xd8\x9b\xd9\x81\xd8\xa5\xd9\x86\xd9\x85\xd8\xa7'
p606
I28
sS'the'
p607
I3
sS'con'
p608
I28
sS'stressed'
p609
I28
sS'trainer'
p610
I28
sS'\xe2\x98\xba\xef\xb8\x8f'
p611
I28
sS'just'
p612
I15
sS'being'
p613
I27
sS'\\(^-^)/with'
p614
I28
sS"should've"
p615
I28
sS'sleepy'
p616
I27
sS'f\xc3\xa1cil'
p617
I28
sS'shape'
p618
I27
sS'verdad'
p619
I28
sS'thanks'
p620
I28
sS'fuuck'
p621
I28
sS'yes'
p622
I28
sS'praying'
p623
I28
sS'letting'
p624
I28
sS'cut'
p625
I27
sS'cus'
p626
I28
sS'thinking'
p627
I27
sS'had'
p628
I27
sS'cuz'
p629
I28
sS'realize'
p630
I28
sS'fingaz'
p631
I28
sS'lets'
p632
I28
sS'4'
p633
I27
sS'crying'
p634
I27
sS'homies'
p635
I28
sS'has'
p636
I26
sS'easter'
p637
I28
sS'yesturday'
p638
I28
sS'real'
p639
I28
sS'tests'
p640
I28
sS'around'
p641
I28
sS'lacking'
p642
I28
sS'big'
p643
I27
sS'lado'
p644
I28
sS'gonna'
p645
I26
sS'dark'
p646
I28
sS'game'
p647
I27
sS'know'
p648
I18
sS'mom'
p649
I26
sS'<3\xe2\x80\x9d'
p650
I28
sS'projects'
p651
I28
sS'moody'
p652
I28
sS'stuff'
p653
I28
sS'like'
p654
I12
sS'lost'
p655
I28
sS'gn\xe2\x9c\x8c\xef\xb8\x8f'
p656
I28
sS'wingstop'
p657
I28
sS'hatedold'
p658
I28
sS'////'
p659
I28
sS'thighs'
p660
I28
sS'night'
p661
I25
sS'claw'
p662
I28
sS'nigga'
p663
I24
sS'old'
p664
I28
sS'who'
p665
I28
sS'people'
p666
I25
sS'\xd8\xa7\xd9\x84\xd9\x86\xd8\xa7\xd8\xb3)'
p667
I28
sS'twitter'
p668
I28
sS'some'
p669
I25
sS'back'
p670
I26
sS'hail'
p671
I28
sS'oh'
p672
I28
sS'hair'
p673
I28
sS'28th'
p674
I28
sS'home'
p675
I27
sS'"keep'
p676
I28
sS'thinks'
p677
I28
sS'gosh'
p678
I28
sS'mood'
p679
I28
sS'for'
p680
I14
sS'pues'
p681
I25
sS'decision'
p682
I28
sS'thanksgiving'
p683
I28
sS'\xd9\x88\xd8\xa3\xd9\x86\xd8\xaa'
p684
I28
sS'everything'
p685
I27
sS'prom'
p686
I28
sS'wendy'
p687
I28
sS'\xd9\x84\xd8\xa7'
p688
I28
sS'as\xc3\xad'
p689
I28
sS'be'
p690
I17
sS'felt'
p691
I28
sS'puedo'
p692
I28
sS'seconds'
p693
I28
sS'\xd8\xa7\xd9\x88\xd8\xb1\xd9\x86\xd8\xac'
p694
I28
sS'how'
p695
I28
sS'step'
p696
I28
sS'swings'
p697
I28
sS'buffet'
p698
I28
sS'losing'
p699
I28
sS'post'
p700
I28
sS'\xd9\x85\xd9\x86'
p701
I28
sS'on'
p702
I19
sS'about'
p703
I27
sS'ok'
p704
I27
sS'working'
p705
I28
sS'anything'
p706
I27
sS'getting'
p707
I25
sS'of'
p708
I21
sS'months'
p709
I28
sS'angeles'
p710
I27
sS'swear'
p711
I28
sS'idk'
p712
I28
sS'wanna'
p713
I22
sS'or'
p714
I25
sS'swimming'
p715
I28
sS'aha'
p716
I27
sS'animoo'
p717
I28
sS'snapchat'
p718
I28
sS'down'
p719
I27
sS'gtfo'
p720
I28
sS'right'
p721
I26
sS'it\xe2\x80\x9dwho'
p722
I28
sS'parties'
p723
I28
sS'freaken'
p724
I28
sS'your'
p725
I23
sS'fuuuuuck'
p726
I28
sS'\xd9\x81\xd8\xb1\xd8\xa8\xd9\x85\xd8\xa7'
p727
I28
sS'11:11'
p728
I28
sS'her'
p729
I27
sS'spending'
p730
I28
sS'friends'
p731
I27
sS'support'
p732
I28
sS'there'
p733
I28
sS'trashy"'
p734
I28
sS'live'
p735
I28
sS'lol'
p736
I20
sS'macbook'
p737
I28
sS'dreaming'
p738
I28
sS'start'
p739
I27
sS'awks'
p740
I28
sS'pool'
p741
I28
sS'way'
p742
I28
sS'greatness'
p743
I28
sS'bored'
p744
I22
sS'was'
p745
I24
sS'happy'
p746
I25
sS'head'
p747
I27
sS'\xd9\x83\xd9\x84'
p748
I28
sS"i've"
p749
I27
sS'you"'
p750
I28
sS'but'
p751
I19
sS'notifications'
p752
I28
sS'dead'
p753
I28
sS'trying'
p754
I26
sS'with'
p755
I14
sS'eat'
p756
I28
sS'he'
p757
I24
sS"they're"
p758
I28
sS'made'
p759
I27
sS'inside'
p760
I28
sS'caller'
p761
I28
sS'up'
p762
I17
sS'signed'
p763
I28
sS'tell'
p764
I28
sS'record'
p765
I28
sS'guuuuuuuzzmorning'
p766
I28
sS'smashed'
p767
I28
sS'>'
p768
I28
sS'minutes'
p769
I28
sS'clear'
p770
I28
sS'tengas'
p771
I28
sS'gone'
p772
I24
sS'ac'
p773
I28
sS'ohh'
p774
I27
sS'af'
p775
I23
sS'\xd8\xa3\xd8\xab\xd9\x86\xd8\xa7\xd8\xa1'
p776
I28
sS'pic'
p777
I28
sS'am'
p778
I27
sS'an'
p779
I27
sS'fly'
p780
I28
sS'as'
p781
I28
sS'at'
p782
I21
sS'\xd8\xa3\xd8\xad\xd8\xaf\xd9\x87\xd9\x85'
p783
I28
sS'babe'
p784
I28
sS'annoying'
p785
I28
sS'shit'
p786
I23
sS'1/2'
p787
I28
sS'again'
p788
I28
sS'novedad'
p789
I28
sS'us'
p790
I28
sS'viste'
p791
I28
sS'no'
p792
I13
sS'dressed'
p793
I28
sS'nah'
p794
I27
sS'when'
p795
I18
sS'lately'
p796
I28
sS'club'
p797
I28
sS'chyle'
p798
I28
sS'boom'
p799
I28
sS'underrating'
p800
I28
sS'fuuucck'
p801
I28
sS'you'
p802
I5
sS'really'
p803
I27
sS'\xd8\xaa\xd8\xad\xd9\x82\xd8\xb1\xd9\x86'
p804
I28
sS'mustard'
p805
I28
sS'time'
p806
I20
sS"let's"
p807
I26
sS'\xd8\xa7\xd8\xb1\xd8\xb6\xd9\x8a\xd8\xa9'
p808
I28
sS'important'
p809
I28
sS'kinda'
p810
I28
sS'weekend'
p811
I27
sS'\xd8\xa7\xd9\x84\xd8\xaf\xd9\x83\xd8\xaa\xd9\x88\xd8\xb1'
p812
I28
sS'freeways'
p813
I28
sS'babysitting'
p814
I28
sS'ago'
p815
I27
sS'tweeting'
p816
I28
sS'\xd8\xb7\xd8\xb1\xd9\x8a\xd9\x82\xd9\x83'
p817
I28
sS'sore'
p818
I27
sS'tyg'
p819
I28
sS'lowkey'
p820
I28
sS'came'
p821
I28
sS'notification'
p822
I27
sS'alright'
p823
I28
sS"she's"
p824
I28
sS'nerys'
p825
I28
sS'noooooooo'
p826
I28
sS'having'
p827
I27
sS'songs'
p828
I28
s.