(dp0
S''
p1
I1
sS'all'
p2
I21
sS'diss'
p3
I34
sS':('
p4
I31
sS':)'
p5
I33
sS'dance'
p6
I33
sS'hats'
p7
I34
sS'\xe2\x98\xba\xef\xb8\x8f\xe2\x98\xba\xef\xb8\x8f\xe2\x98\xba\xef\xb8\x8f'
p8
I34
sS'month'
p9
I33
sS'bob'
p10
I34
sS'chupa'
p11
I34
sS'sleep'
p12
I30
sS'asian'
p13
I32
sS'hanging'
p14
I34
sS'go'
p15
I16
sS'follow'
p16
I27
sS'hate'
p17
I30
sS'%.^'
p18
I34
sS'forget'
p19
I34
sS'tearing'
p20
I34
sS'\xc5\x9at\xc3\x98mp\xc5\xa0'
p21
I34
sS'tv'
p22
I34
sS'wassup'
p23
I31
sS'\xe2\x98\xba\xef\xb8\x8f'
p24
I34
sS'young'
p25
I34
sS'cholos'
p26
I34
sS'to'
p27
I3
sS'finally'
p28
I32
sS'asking'
p29
I34
sS'under'
p30
I34
sS'tf'
p31
I34
sS'tb'
p32
I34
sS'agreed'
p33
I34
sS'perro'
p34
I34
sS'town'
p35
I33
sS'worse'
p36
I34
sS'song'
p37
I34
sS'far'
p38
I33
sS'blanket'
p39
I34
sS"gus's"
p40
I34
sS':b'
p41
I34
sS':c'
p42
I28
sS':}'
p43
I34
sS'every'
p44
I28
sS'fam'
p45
I34
sS'telling'
p46
I34
sS'wipe'
p47
I34
sS'cool'
p48
I30
sS'stiffen'
p49
I34
sS'school'
p50
I31
sS'did'
p51
I33
sS'tomworro'
p52
I31
sS'notes'
p53
I34
sS'duster'
p54
I34
sS'laying'
p55
I34
sS'joined'
p56
I34
sS'try'
p57
I33
sS'facebookk'
p58
I34
sS'team'
p59
I32
sS'small'
p60
I33
sS'havent'
p61
I34
sS'reggeton'
p62
I34
sS'yall'
p63
I34
sS'40oz'
p64
I34
sS'olympic'
p65
I34
sS'work'
p66
I33
sS'tired'
p67
I29
sS'18teen'
p68
I34
sS'streets'
p69
I34
sS'waking'
p70
I34
sS'drunk'
p71
I34
sS'talks'
p72
I34
sS'street'
p73
I34
sS'sheeran'
p74
I34
sS'cartel'
p75
I34
sS'even'
p76
I29
sS'90s'
p77
I34
sS'what'
p78
I19
sS'cokaaaa'
p79
I34
sS'fat'
p80
I34
sS'supporter'
p81
I34
sS'waiting'
p82
I32
sS'cuddle'
p83
I34
sS'cuzzen'
p84
I34
sS'new'
p85
I25
sS'ever'
p86
I29
sS'vergin'
p87
I34
sS'aint'
p88
I34
sS'aleister'
p89
I34
sS'never'
p90
I27
sS'songs'
p91
I34
sS'here'
p92
I29
sS'water'
p93
I34
sS'\xe2\x9d\xa4\xef\xb8\x8f'
p94
I34
sS'flocka\xe2\x80\x9d'
p95
I34
sS'let'
p96
I31
sS'sing'
p97
I34
sS'change'
p98
I33
sS'wait'
p99
I32
sS'box'
p100
I34
sS'boy'
p101
I33
sS'kids'
p102
I33
sS'bop'
p103
I34
sS'shift'
p104
I34
sS'k'
p105
I33
sS'30'
p106
I34
sS'?:('
p107
I34
sS'fired'
p108
I34
sS'buss'
p109
I34
sS'smoke'
p110
I31
sS'boo'
p111
I32
sS'bucs'
p112
I34
sS"i'm"
p113
I7
sS"someone's"
p114
I34
sS'makes'
p115
I32
sS'tu'
p116
I34
sS'love'
p117
I21
sS'win'
p118
I34
sS'bro'
p119
I32
sS'till'
p120
I34
sS'thought'
p121
I34
sS'fake'
p122
I33
sS'txt'
p123
I32
sS'from'
p124
I28
sS'takes'
p125
I34
sS'would'
p126
I26
sS'&'
p127
I30
sS'aye'
p128
I34
sS'bigs'
p129
I34
sS'angry'
p130
I34
sS'hungry'
p131
I34
sS'dude'
p132
I32
sS'cray'
p133
I32
sS'next'
p134
I34
sS'live'
p135
I32
sS'doubt'
p136
I33
sS'music'
p137
I32
sS'6'
p138
I34
sS'msg'
p139
I31
sS'type'
p140
I32
sS'until'
p141
I33
sS'today'
p142
I23
sS'more'
p143
I29
sS'becouse'
p144
I33
sS'females'
p145
I34
sS'club'
p146
I34
sS'freedom'
p147
I34
sS'haha'
p148
I34
sS'hurt'
p149
I34
sS'!\xe2\x80\x9d'
p150
I34
sS'phone'
p151
I33
sS'warm'
p152
I34
sS"ain't"
p153
I32
sS'broke'
p154
I34
sS'jag'
p155
I34
sS'baby'
p156
I33
sS'hold'
p157
I34
sS'easiest'
p158
I34
sS'women'
p159
I34
sS'me'
p160
I8
sS'room'
p161
I33
sS'niggas'
p162
I31
sS'this'
p163
I20
sS'car'
p164
I34
sS'ride'
p165
I32
sS'oh'
p166
I32
sS'mi'
p167
I34
sS'worn'
p168
I34
sS'week.\xe2\x80\x9d'
p169
I34
sS'mall'
p170
I34
sS'anywhere'
p171
I34
sS'can'
p172
I26
sS'sacas'
p173
I34
sS'mr'
p174
I34
sS'following'
p175
I33
sS'making'
p176
I33
sS'original'
p177
I34
sS'my'
p178
I4
sS'social'
p179
I34
sS'heart'
p180
I34
sS'crazy'
p181
I30
sS's/o5'
p182
I34
sS'^.^'
p183
I31
sS'indie'
p184
I34
sS'nigggas'
p185
I34
sS"didn't"
p186
I32
sS'fuck'
p187
I11
sS'high'
p188
I33
sS'something'
p189
I28
sS'want'
p190
I33
sS'that\xe2\x9e\xa1'
p191
I34
sS'dress'
p192
I34
sS'sis'
p193
I34
sS"ahathat's"
p194
I34
sS'hoe'
p195
I32
sS'end'
p196
I33
sS'\xef\xbc\x8c\xe3\x80\x81^_^'
p197
I34
sS'hehehehehe'
p198
I34
sS'bullshiting'
p199
I34
sS'danker'
p200
I34
sS'nuts'
p201
I34
sS'how'
p202
I29
sS'hot'
p203
I33
sS'gate'
p204
I34
sS'whoooooooo'
p205
I34
sS'beach'
p206
I31
sS':\xe2\x98\xba'
p207
I34
sS'a-line'
p208
I34
sS'staying'
p209
I33
sS'fever'
p210
I34
sS'okay'
p211
I33
sS'tried'
p212
I34
sS'bday'
p213
I32
sS'fav'
p214
I34
sS'after'
p215
I32
sS'spot'
p216
I34
sS'hight'
p217
I34
sS'reflect'
p218
I34
sS'\xe8\xbf\x98\xe3\x80\x81\xef\xbc\x8c'
p219
I34
sS"barak's"
p220
I34
sS'birthday'
p221
I34
sS'mad'
p222
I32
sS'coming'
p223
I34
sS'such'
p224
I33
sS'suck'
p225
I33
sS'tacos'
p226
I34
sS'guys'
p227
I31
sS'grow'
p228
I33
sS'fray'
p229
I34
sS'man'
p230
I27
sS'a'
p231
I6
sS'maybe'
p232
I33
sS'goal'
p233
I34
sS'sit'
p234
I34
sS'so'
p235
I14
sS'keeps'
p236
I34
sS'facebook'
p237
I33
sS'kurt'
p238
I34
sS'dream'
p239
I33
sS'playing'
p240
I34
sS'talk'
p241
I29
sS"that's"
p242
I20
sS'replied'
p243
I34
sS'cute'
p244
I26
sS'feeds'
p245
I34
sS'six'
p246
I34
sS'help'
p247
I33
sS"don't"
p248
I18
sS'over'
p249
I32
sS'move'
p250
I33
sS'midnight'
p251
I34
sS'list'
p252
I34
sS'alway'
p253
I34
sS'already'
p254
I34
sS"won't"
p255
I34
sS'looks'
p256
I34
sS'still'
p257
I30
sS'its'
p258
I34
sS'bunch'
p259
I33
sS'perfect'
p260
I34
sS'25'
p261
I34
sS'style'
p262
I34
sS'police'
p263
I33
sS'la'
p264
I33
sS'personal'
p265
I34
sS'lo'
p266
I33
sS'fix'
p267
I34
sS'beyonce'
p268
I34
sS'amazing'
p269
I34
sS'[pic]'
p270
I34
sS'better'
p271
I27
sS'*worse'
p272
I34
sS'mail'
p273
I34
sS'soccer'
p274
I33
sS'girls.an'
p275
I34
sS'easier'
p276
I34
sS"haven't"
p277
I34
sS'happened'
p278
I34
sS'dad'
p279
I33
sS'then'
p280
I27
sS'them'
p281
I31
sS'good'
p282
I26
sS'somebody'
p283
I34
sS'yo'
p284
I34
sS'food'
p285
I34
sS'dam'
p286
I33
sS'practice'
p287
I34
sS'lunch'
p288
I34
sS'\xe2\x98\xba\xe2\x9d\xa4'
p289
I34
sS'hurting'
p290
I34
sS'damnnnn'
p291
I34
sS'they'
p292
I27
sS':(('
p293
I33
sS'not'
p294
I28
sS'now'
p295
I31
sS'bullshit'
p296
I30
sS'bigger'
p297
I34
sS'strive'
p298
I33
sS'name'
p299
I34
sS'always'
p300
I34
sS'truth'
p301
I34
sS'die'
p302
I34
sS'went'
p303
I32
sS'side'
p304
I34
sS"isn't"
p305
I33
sS'glasses'
p306
I34
sS'heavy'
p307
I34
sS'el'
p308
I34
sS'everyone'
p309
I33
sS'lowkey'
p310
I31
sS'weight'
p311
I34
sS'doing'
p312
I31
sS'house'
p313
I33
sS'hard'
p314
I29
sS'yeah'
p315
I31
sS'brother'
p316
I34
sS'fires'
p317
I34
sS'books'
p318
I33
sS"we'd"
p319
I34
sS'moneeeeeey'
p320
I34
sS'year'
p321
I32
sS'navy'
p322
I34
sS'gtfo'
p323
I31
sS'girl'
p324
I25
sS'patch'
p325
I34
sS'todo'
p326
I34
sS'special'
p327
I34
sS'out'
p328
I21
sS'album'
p329
I34
sS'gus'
p330
I34
sS"'"
p331
I34
sS'daph'
p332
I34
sS'since'
p333
I34
sS'looking'
p334
I31
sS'may'
p335
I34
sS'seriously'
p336
I34
sS'piano'
p337
I34
sS'hill'
p338
I34
sS'got'
p339
I22
sS'cause'
p340
I34
sS'vintedapp'
p341
I34
sS'411'
p342
I34
sS'ass'
p343
I24
sS'working'
p344
I34
sS"doesn't"
p345
I30
sS'guess'
p346
I27
sS'free'
p347
I34
sS'standers'
p348
I34
sS'que'
p349
I34
sS'asf'
p350
I20
sS'fatass'
p351
I34
sS'x'
p352
I34
sS'ask'
p353
I33
sS'wanted'
p354
I33
sS'guy'
p355
I34
sS'bash'
p356
I34
sS'care'
p357
I31
sS'waco'
p358
I34
sS'g'
p359
I34
sS'yup'
p360
I34
sS'could'
p361
I33
sS"mom's"
p362
I34
sS'put'
p363
I34
sS'days'
p364
I33
sS'keep'
p365
I32
sS'thing'
p366
I32
sS'place'
p367
I34
sS'marly'
p368
I34
sS'think'
p369
I28
sS'first'
p370
I34
sS'feed'
p371
I34
sS'*'
p372
I32
sS'rana'
p373
I34
sS'sis"a'
p374
I34
sS'feel'
p375
I29
sS'?('
p376
I34
sS'number'
p377
I32
sS'hearing'
p378
I30
sS'me&'
p379
I34
sS'done'
p380
I32
sS'bitch'
p381
I26
sS'another'
p382
I34
sS'sis"s'
p383
I34
sS'chubby'
p384
I34
sS'miss'
p385
I25
sS"'em"
p386
I34
sS"you're"
p387
I33
sS'little'
p388
I30
sS'"'
p389
I34
sS'stuck'
p390
I34
sS'a$ap'
p391
I34
sS'together'
p392
I34
sS'caught'
p393
I34
sS'girls'
p394
I30
sS"he'll"
p395
I34
sS'anyone'
p396
I34
sS'their'
p397
I34
sS'station'
p398
I33
sS'thanls'
p399
I34
sS'rated'
p400
I34
sS':]]'
p401
I34
sS'lol'
p402
I14
sS'west'
p403
I34
sS'friend'
p404
I29
sS'beard'
p405
I34
sS'lot'
p406
I34
sS'that'
p407
I7
sS'academy'
p408
I33
sS'exactly'
p409
I34
sS'park'
p410
I34
sS'waw'
p411
I34
sS'part'
p412
I34
sS'bieber'
p413
I34
sS'tatt'
p414
I34
sS'yours'
p415
I34
sS'albums'
p416
I34
sS'believe'
p417
I33
sS'than'
p418
I33
sS'fuck"s'
p419
I34
sS'14'
p420
I33
sS'17'
p421
I33
sS'boring'
p422
I34
sS'gotta'
p423
I29
sS'beg'
p424
I34
sS'bed'
p425
I34
sS'recording'
p426
I34
sS'dsl'
p427
I34
sS'tats'
p428
I34
sS'were'
p429
I33
sS'college'
p430
I34
sS'feeling'
p431
I34
sS'shady'
p432
I34
sS'and'
p433
I23
sS'rad'
p434
I33
sS'whut'
p435
I34
sS'mind'
p436
I32
sS'sad'
p437
I34
sS'tonight'
p438
I34
sS'talking'
p439
I33
sS'say'
p440
I27
sS'\xee\x90\x9d\xe2\x80\x9d'
p441
I34
sS'have'
p442
I23
sS'need'
p443
I24
sS'seen'
p444
I32
sS'turn'
p445
I34
sS'saw'
p446
I34
sS'any'
p447
I29
sS'lie'
p448
I30
sS'hood'
p449
I34
sS'nights'
p450
I34
sS'2134546146'
p451
I34
sS'lil'
p452
I29
sS'self'
p453
I33
sS'omgf'
p454
I34
sS'mix'
p455
I34
sS'without'
p456
I34
sS'take'
p457
I32
sS'sleeper'
p458
I34
sS'upside'
p459
I34
sS'thjnf'
p460
I34
sS'1st'
p461
I34
sS'blunt'
p462
I33
sS'kiss'
p463
I34
sS'though'
p464
I33
sS'aww'
p465
I34
sS'huh'
p466
I34
sS'who'
p467
I33
sS'reach'
p468
I34
sS'react'
p469
I34
sS'most'
p470
I33
sS'gurlllll'
p471
I34
sS'cracking'
p472
I34
sS'nothing'
p473
I34
sS'america'
p474
I34
sS'why'
p475
I32
sS'unidad'
p476
I33
sS'real('
p477
I34
sS'give'
p478
I34
sS'boys'
p479
I34
sS'sometimes'
p480
I33
sS'differ'
p481
I34
sS'dog'
p482
I31
sS'face'
p483
I34
sS'park)'
p484
I34
sS'se'
p485
I34
sS'pattern'
p486
I34
sS'dummb'
p487
I34
sS'fact'
p488
I34
sS'reserve'
p489
I34
sS'twitting'
p490
I34
sS'ugh'
p491
I30
sS'bomb'
p492
I31
sS'text'
p493
I34
sS'lay'
p494
I34
sS'bring'
p495
I34
sS'bright'
p496
I34
sS'session'
p497
I34
sS'radio'
p498
I34
sS'knew.\xe2\x80\x9d'
p499
I34
sS'fine'
p500
I34
sS'find'
p501
I33
sS'one'
p502
I19
sS'\xe2\x9c\x8c'
p503
I26
sS'('
p504
I15
sS'dick'
p505
I30
sS'state'
p506
I34
sS'should'
p507
I32
sS'rihanna'
p508
I34
sS'being'
p509
I34
sS'only'
p510
I30
sS'going'
p511
I30
sS'black'
p512
I34
sS'jak'
p513
I34
sS'stfu'
p514
I34
sS'8'
p515
I34
sS"gus'"
p516
I32
sS'interested'
p517
I34
sS'hope'
p518
I33
sS'meant'
p519
I33
sS'do'
p520
I20
sS'his'
p521
I31
sS'hit'
p522
I33
sS'get'
p523
I24
sS'ranfla'
p524
I34
sS'de'
p525
I34
sS'stop'
p526
I33
sS'lucky'
p527
I34
sS'words'
p528
I34
sS'2'
p529
I33
sS'him'
p530
I32
sS'lmao'
p531
I34
sS'runs'
p532
I34
sS'officially'
p533
I34
sS'cry'
p534
I33
sS'morning'
p535
I32
sS'naked'
p536
I34
sS'twice'
p537
I34
sS'bad'
p538
I30
sS'stupid'
p539
I32
sS'she'
p540
I16
sS'neeed'
p541
I34
sS'skythrills'
p542
I34
sS'bam'
p543
I34
sS'where'
p544
I30
sS'art'
p545
I34
sS'yooooooooo'
p546
I34
sS'2period'
p547
I34
sS'up'
p548
I15
sS'see'
p549
I33
sS'dumb'
p550
I30
sS'are'
p551
I29
sS'hoes'
p552
I33
sS'fail'
p553
I34
sS'weird'
p554
I34
sS'ur'
p555
I31
sS'best'
p556
I31
sS'wonder'
p557
I33
sS'said'
p558
I34
sS'closet'
p559
I34
sS'paired'
p560
I34
sS'movie'
p561
I29
sS'away'
p562
I33
sS'yet'
p563
I34
sS'genius'
p564
I34
sS'3'
p565
I34
sS"there's"
p566
I34
sS'timbo'
p567
I34
sS'hopefully'
p568
I34
sS'before'
p569
I34
sS'uh'
p570
I34
sS'knowing'
p571
I33
sS'gives'
p572
I34
sS'we'
p573
I26
sS'men'
p574
I33
sS'omg'
p575
I32
sS'mature'
p576
I34
sS'missing'
p577
I33
sS'(:\xe2\x80\x9d'
p578
I34
sS'smashhhhhh'
p579
I34
sS'(los'
p580
I34
sS'wtf'
p581
I34
sS'hurts'
p582
I34
sS'tub'
p583
I34
sS'come'
p584
I31
sS'!-.-'
p585
I34
sS'??an'
p586
I34
sS'hits'
p587
I34
sS'last'
p588
I33
sS'career'
p589
I34
sS'many'
p590
I32
sS'menu'
p591
I34
sS'stayyyy'
p592
I34
sS'budaaa'
p593
I34
sS'players'
p594
I34
sS'admit'
p595
I34
sS'games'
p596
I33
sS'alot'
p597
I34
sS'thang'
p598
I34
sS'<<<<'
p599
I34
sS'delete'
p600
I34
sS'whole'
p601
I33
sS'los'
p602
I34
sS"can't"
p603
I20
sS'liked'
p604
I34
sS'\xe2\x98\xba'
p605
I27
sS'point'
p606
I34
sS'tuesday'
p607
I34
sS'jk'
p608
I34
sS':((('
p609
I34
sS'whatever'
p610
I34
sS'walk'
p611
I33
sS'\xe2\x9d\xa4\xe2\x98\xba'
p612
I30
sS'gong'
p613
I34
sS'likes'
p614
I34
sS'laugh'
p615
I34
sS'village'
p616
I34
sS'crew'
p617
I34
sS'beats'
p618
I34
sS'speak'
p619
I34
sS':p\xe2\x80\x9d'
p620
I34
sS'late'
p621
I31
sS'sam'
p622
I34
sS'cares'
p623
I34
sS"it's"
p624
I23
sS'ca)'
p625
I33
sS'been'
p626
I29
sS'tomoworrro'
p627
I34
sS'beer'
p628
I34
sS'much'
p629
I32
sS'damn'
p630
I33
sS'damm'
p631
I33
sS'sucks'
p632
I34
sS'kitchen'
p633
I34
sS'woke'
p634
I34
sS'wants'
p635
I32
sS'life'
p636
I27
sS"where's"
p637
I34
sS'gay'
p638
I33
sS'drugs'
p639
I34
sS"what's"
p640
I33
sS'crack'
p641
I34
sS'sooooo'
p642
I34
sS'hmm'
p643
I33
sS"crowley's"
p644
I34
sS'wake'
p645
I34
sS'-.-'
p646
I31
sS'timbaland'
p647
I34
sS'sound'
p648
I34
sS'holiday'
p649
I34
sS'look'
p650
I32
sS'straight'
p651
I32
sS'single'
p652
I33
sS'air'
p653
I34
sS'will'
p654
I33
sS'ugly'
p655
I34
sS'while'
p656
I33
sS'joke'
p657
I34
sS'fun'
p658
I33
sS'kissing'
p659
I34
sS'fool'
p660
I34
sS'aawwwww'
p661
I34
sS'changed'
p662
I34
sS'mexico'
p663
I34
sS'is'
p664
I10
sS'belmont'
p665
I31
sS'it'
p666
I12
sS'fucken'
p667
I27
sS'someone'
p668
I34
sS'im'
p669
I34
sS'in'
p670
I13
sS'ig'
p671
I34
sS'if'
p672
I23
sS'funny'
p673
I29
sS'different'
p674
I34
sS'anymore'
p675
I30
sS'things'
p676
I33
sS'make'
p677
I32
sS'cross'
p678
I34
sS'same'
p679
I30
sS'check'
p680
I34
sS'dean'
p681
I34
sS'pac'
p682
I34
sS'harmony'
p683
I34
sS'!.-'
p684
I34
sS'9'
p685
I34
sS'party'
p686
I28
sS'then:c'
p687
I34
sS'gets'
p688
I32
sS'grows'
p689
I34
sS'killed'
p690
I34
sS'week'
p691
I34
sS"can'"
p692
I34
sS'outside'
p693
I34
sS'classmates'
p694
I34
sS'pito'
p695
I34
sS'pick'
p696
I34
sS'yesterday'
p697
I34
sS'rain'
p698
I33
sS'weed'
p699
I33
sS'running'
p700
I32
sS'moving'
p701
I34
sS'cleaning'
p702
I34
sS'fucked'
p703
I33
sS'500'
p704
I34
sS'ab'
p705
I34
sS'awwww'
p706
I34
sS'kid'
p707
I32
sS'//'
p708
I33
sS'hmmmmmm'
p709
I34
sS'i'
p710
I2
sS'(('
p711
I34
sS'grind'
p712
I34
sS'tho'
p713
I29
sS'person'
p714
I32
sS'wyd'
p715
I33
sS'flags'
p716
I34
sS'greatest'
p717
I34
sS'very'
p718
I34
sS'the'
p719
I3
sS'timberlake'
p720
I34
sS'left'
p721
I33
sS'yolo'
p722
I34
sS'mom'
p723
I31
sS'just'
p724
I21
sS'true'
p725
I33
sS'money'
p726
I34
sS'unfollow'
p727
I34
sS'hands'
p728
I34
sS'sleepy'
p729
I33
sS'rule'
p730
I34
sS'thanks'
p731
I32
sS'touch'
p732
I34
sS'yes'
p733
I32
sS'?rs'
p734
I34
sS'repost'
p735
I34
sS'letting'
p736
I34
sS'cut'
p737
I34
sS'helping'
p738
I34
sS'drive'
p739
I31
sS'had'
p740
I31
sS'cuz'
p741
I31
sS'day'
p742
I20
sS'jetlife'
p743
I34
sS'lets'
p744
I32
sS'n'
p745
I34
sS'easy'
p746
I33
sS'homies'
p747
I31
sS'has'
p748
I32
sS'kick'
p749
I31
sS'real'
p750
I34
sS'around'
p751
I33
sS'puta'
p752
I34
sS'read'
p753
I33
sS'big'
p754
I34
sS"who's"
p755
I34
sS'doses'
p756
I34
sS'gonna'
p757
I16
sS'early'
p758
I33
sS'game'
p759
I32
sS'know'
p760
I23
sS'\xe2\x9d\xa4'
p761
I22
sS'world'
p762
I34
sS'roach'
p763
I34
sS'lady'
p764
I34
sS'loss'
p765
I34
sS'trash'
p766
I34
sS'like'
p767
I15
sS'lost'
p768
I34
sS'omgggg'
p769
I34
sS'night'
p770
I31
sS'become'
p771
I34
sS'nigga'
p772
I27
sS'old'
p773
I33
sS"couldn't"
p774
I34
sS'people'
p775
I18
sS'fucking'
p776
I33
sS'twitter'
p777
I33
sS'dumbest'
p778
I34
sS'some'
p779
I25
sS'back'
p780
I22
sS';}'
p781
I33
sS'calling'
p782
I34
sS'hair'
p783
I32
sS'born'
p784
I33
sS'foreverr'
p785
I34
sS'home'
p786
I30
sS'thinks'
p787
I32
sS'yesss'
p788
I34
sS'watchful'
p789
I34
sS'mood'
p790
I34
sS'for'
p791
I15
sS'normal'
p792
I34
sS'mines'
p793
I34
sS'/'
p794
I33
sS'wrong'
p795
I34
sS'everything'
p796
I31
sS'petting'
p797
I34
sS'does'
p798
I32
sS'foo'
p799
I34
sS'hustle'
p800
I34
sS'be'
p801
I17
sS'knew'
p802
I34
sS'run'
p803
I31
sS'power'
p804
I33
sS'rock'
p805
I34
sS'sprung'
p806
I34
sS'waits'
p807
I34
sS'eye'
p808
I34
sS';)'
p809
I34
sS'tripping'
p810
I34
sS'errrr'
p811
I34
sS'on'
p812
I23
sS'about'
p813
I24
sS'justin'
p814
I32
sS'anything'
p815
I30
sS'getting'
p816
I31
sS'wut'
p817
I34
sS'of'
p818
I16
sS'hoesss'
p819
I34
sS'favorite'
p820
I33
sS'o'
p821
I31
sS'angeles'
p822
I33
sS'anima'
p823
I34
sS'swear'
p824
I33
sS'idk'
p825
I31
sS'act'
p826
I34
sS'mean'
p827
I34
sS'wanna'
p828
I19
sS'or'
p829
I28
sS"leo's"
p830
I34
sS'aha'
p831
I32
sS'pussy'
p832
I34
sS'birches'
p833
I34
sS'soo'
p834
I31
sS'two'
p835
I33
sS'down'
p836
I26
sS'lies'
p837
I34
sS'because'
p838
I32
sS'female'
p839
I34
sS'steven'
p840
I34
sS'partying'
p841
I34
sS'your'
p842
I20
sS'!>'
p843
I34
sS'lurkinnnnn'
p844
I34
sS'.-'
p845
I34
sS'her'
p846
I18
sS'area'
p847
I34
sS'there'
p848
I31
sS'hey'
p849
I32
sS'long'
p850
I30
sS'fight'
p851
I33
sS'start'
p852
I33
sS'cats'
p853
I34
sS'mondays'
p854
I34
sS'low'
p855
I34
sS'way'
p856
I33
sS'worst'
p857
I34
sS'biggest'
p858
I34
sS'call'
p859
I32
sS'bored'
p860
I25
sS'was'
p861
I24
sS'media'
p862
I34
sS'head'
p863
I34
sS'allah'
p864
I33
sS'complete'
p865
I34
sS'ed'
p866
I34
sS'coke'
p867
I32
sS'bitches'
p868
I33
sS'hw'
p869
I33
sS'but'
p870
I14
sS'taken'
p871
I32
sS'hi'
p872
I34
sS'idgaf'
p873
I34
sS'trying'
p874
I28
sS'with'
p875
I9
sS'eat'
p876
I33
sS'bud'
p877
I32
sS'he'
p878
I30
sS'throw'
p879
I34
sS'made'
p880
I29
sS'happen'
p881
I34
sS'andy'
p882
I34
sS"wasn't"
p883
I34
sS'wish'
p884
I29
sS'ablume'
p885
I34
sS"hasn't"
p886
I33
sS'tell'
p887
I32
sS'planet'
p888
I34
sS'crystal'
p889
I34
sS'this2'
p890
I34
sS'dirty'
p891
I33
sS'"what\'s'
p892
I34
sS'hmmmmmmmmm'
p893
I34
sS'minutes'
p894
I34
sS'called'
p895
I34
sS'dleted'
p896
I34
sS'adorn'
p897
I34
sS'truntup'
p898
I34
sS'daammm'
p899
I34
sS'later'
p900
I34
sS'ohh'
p901
I30
sS'taste'
p902
I34
sS'pic'
p903
I34
sS'am'
p904
I34
sS'deep'
p905
I34
sS'an'
p906
I17
sS'as'
p907
I30
sS'sometime'
p908
I34
sS'right'
p909
I32
sS'at'
p910
I18
sS'our'
p911
I34
sS'hes'
p912
I34
sS'himself'
p913
I34
sS'annoying'
p914
I34
sS'ongpin'
p915
I31
sS'shit'
p916
I18
sS'yoo'
p917
I34
sS'again'
p918
I31
sS'expect'
p919
I34
sS'cobain'
p920
I34
sS'no'
p921
I16
sS'okay\xe2\x80\x9d'
p922
I34
sS'nah'
p923
I30
sS'peace'
p924
I32
sS'when'
p925
I18
sS'maze'
p926
I34
sS'graduate'
p927
I33
sS'warms'
p928
I34
sS'5'
p929
I34
sS'sick'
p930
I34
sS'you'
p931
I5
sS'really'
p932
I30
sS'realize'
p933
I34
sS'nice'
p934
I32
sS'trip'
p935
I34
sS'60s'
p936
I34
sS'class'
p937
I34
sS'haircut'
p938
I34
sS'update'
p939
I34
sS'diet'
p940
I34
sS'stay'
p941
I34
sS'striper'
p942
I34
sS'chance'
p943
I33
sS'important'
p944
I34
sS'angie'
p945
I34
sS'in)'
p946
I33
sS'ymf-5c'
p947
I34
sS'of\xe2\x80\xa6'
p948
I34
sS'friends'
p949
I33
sS'finals'
p950
I34
sS'balloon'
p951
I34
sS'ago'
p952
I34
sS'downtown'
p953
I34
sS'back='
p954
I34
sS'nigga"s'
p955
I33
sS'faster'
p956
I34
sS'scenes'
p957
I34
sS"he's"
p958
I34
sS'back4'
p959
I34
sS'finished'
p960
I34
sS'nsync'
p961
I34
sS'hello'
p962
I34
sS'!!\xe2\x9d\xa4'
p963
I34
sS'fresh'
p964
I34
sS'u'
p965
I25
sS'lying'
p966
I34
sS'time'
p967
I27
sS'alright'
p968
I30
sS"she's"
p969
I29
sS'zigg'
p970
I34
sS'having'
p971
I32
sS'once'
p972
I31
s.