(dp0
S''
p1
I1
sS'all'
p2
I25
sS':/'
p3
I28
sS':('
p4
I28
sS'consider'
p5
I27
sS'caused'
p6
I28
sS'llp'
p7
I28
sS'\xe2\x98\xba\xef\xb8\x8f\xe2\x98\xba\xef\xb8\x8f\xe2\x98\xba\xef\xb8\x8f'
p8
I27
sS'gf'
p9
I28
sS'sleep'
p10
I23
sS'ice'
p11
I28
sS'padrino'
p12
I28
sS'hanging'
p13
I28
sS'go'
p14
I22
sS'follow'
p15
I28
sS'hate'
p16
I23
sS':)'
p17
I27
sS'devoted'
p18
I28
sS'pedro'
p19
I28
sS"a'f"
p20
I26
sS'acting'
p21
I28
sS'818'
p22
I28
sS'to'
p23
I3
sS'finally'
p24
I27
sS'weather'
p25
I28
sS'sorry'
p26
I28
sS'enjoying'
p27
I28
sS'genesta'
p28
I28
sS'worth'
p29
I28
sS'me'
p30
I6
sS'khmer'
p31
I26
sS':o'
p32
I28
sS'appointment'
p33
I28
sS'sitting'
p34
I28
sS'dessert'
p35
I28
sS'kitty'
p36
I28
sS"driver's"
p37
I28
sS'vegas'
p38
I28
sS'fan'
p39
I28
sS'fall'
p40
I28
sS'drinking'
p41
I28
sS':p'
p42
I28
sS'school'
p43
I28
sS'bestfriend'
p44
I27
sS'did'
p45
I27
sS'die'
p46
I26
sS'wednesday'
p47
I28
sS'leave'
p48
I28
sS'frozen'
p49
I28
sS'harry'
p50
I28
sS'quick'
p51
I28
sS'be.\xe2\x80\x9d'
p52
I28
sS'heading'
p53
I28
sS'me:earthquake'
p54
I28
sS"i'll"
p55
I24
sS'10k'
p56
I28
sS'work'
p57
I28
sS'says'
p58
I27
sS"you'd"
p59
I28
sS'me"'
p60
I28
sS'drums'
p61
I28
sS'waking'
p62
I28
sS'past'
p63
I28
sS'burger'
p64
I27
sS"you's"
p65
I28
sS'coated'
p66
I28
sS'even'
p67
I27
sS'what'
p68
I26
sS'business'
p69
I27
sS'giving'
p70
I28
sS'fucks'
p71
I28
sS'lights'
p72
I28
sS'waiting'
p73
I28
sS'run'
p74
I28
sS'goes'
p75
I28
sS'kershaw'
p76
I27
sS'new'
p77
I27
sS'leia'
p78
I28
sS'ever'
p79
I25
sS'except'
p80
I28
sS'told'
p81
I27
sS'toes'
p82
I28
sS'never'
p83
I26
sS'suga'
p84
I27
sS'(los'
p85
I27
sS'motherfucker'
p86
I28
sS'hours'
p87
I28
sS'met'
p88
I28
sS'baseball'
p89
I28
sS'alone'
p90
I28
sS'sexy'
p91
I28
sS'100'
p92
I28
sS'wait'
p93
I27
sS'boy'
p94
I28
sS'great'
p95
I26
sS'lol'
p96
I28
sS'yessss'
p97
I28
sS'niggah'
p98
I28
sS'bruises'
p99
I28
sS'allows'
p100
I28
sS'leaving'
p101
I28
sS"i'd"
p102
I28
sS'boo'
p103
I28
sS"i'm"
p104
I16
sS'thats'
p105
I27
sS'wid'
p106
I28
sS'love'
p107
I19
sS'members'
p108
I28
sS'family'
p109
I28
sS'barker'
p110
I28
sS'grandma'
p111
I28
sS'throwback'
p112
I28
sS'you\xe2\x80\x99re'
p113
I27
sS'names'
p114
I28
sS'should'
p115
I28
sS'market'
p116
I28
sS'confidence'
p117
I28
sS'swings'
p118
I28
sS'from'
p119
I23
sS'working'
p120
I28
sS'&'
p121
I26
sS'dude'
p122
I27
sS'only'
p123
I28
sS'next'
p124
I28
sS'ca)'
p125
I28
sS'music'
p126
I27
sS"makin'"
p127
I28
sS'tell'
p128
I26
sS'today'
p129
I27
sS'more'
p130
I27
sS'sharing'
p131
I28
sS'babe'
p132
I28
sS'about'
p133
I24
sS'hurt'
p134
I28
sS'excuse'
p135
I28
sS'everywhere'
p136
I27
sS'baby'
p137
I24
sS"must've"
p138
I28
sS'women'
p139
I26
sS'customer'
p140
I28
sS'none'
p141
I28
sS'pride'
p142
I28
sS'hour'
p143
I28
sS'this'
p144
I12
sS'shit"'
p145
I28
sS'oh'
p146
I27
sS'regrets'
p147
I28
sS'celebremos'
p148
I28
sS'cuddle'
p149
I28
sS'can'
p150
I24
sS'learn'
p151
I28
sS'knocked'
p152
I28
sS'my'
p153
I4
sS'numbers'
p154
I28
sS'beautiful'
p155
I26
sS'indio'
p156
I28
sS'bffs'
p157
I28
sS'fatwas'
p158
I28
sS'give'
p159
I27
sS'december'
p160
I28
sS"didn't"
p161
I28
sS'fuck'
p162
I18
sS'homie'
p163
I28
sS'salty'
p164
I28
sS'something'
p165
I26
sS'want'
p166
I20
sS'dress'
p167
I28
sS'pink'
p168
I28
sS'hoe'
p169
I28
sS'lame'
p170
I28
sS'rather'
p171
I28
sS'means'
p172
I28
sS'1'
p173
I26
sS'till'
p174
I28
sS'hot'
p175
I27
sS'worry'
p176
I28
sS'swore'
p177
I27
sS'futboleros'
p178
I28
sS'ordinary'
p179
I28
sS'afternoon'
p180
I28
sS'crazy...cuz'
p181
I28
sS'okay'
p182
I23
sS'tried'
p183
I28
sS'mess'
p184
I27
sS'watch'
p185
I26
sS'birthday'
p186
I27
sS'mad'
p187
I28
sS'hahahaha'
p188
I28
sS'such'
p189
I28
sS'suck'
p190
I28
sS'guys'
p191
I26
sS'grow'
p192
I28
sS'man'
p193
I27
sS'a'
p194
I8
sS'remember'
p195
I28
sS'shout'
p196
I28
sS'feels'
p197
I27
sS'af"'
p198
I28
sS'so'
p199
I11
sS'every'
p200
I28
sS'addiction'
p201
I27
sS'cute'
p202
I27
sS'six'
p203
I28
sS"don't"
p204
I23
sS'over'
p205
I27
sS'move'
p206
I28
sS'mission'
p207
I28
sS'jimmy'
p208
I28
sS'looks'
p209
I27
sS'cold'
p210
I27
sS'still'
p211
I27
sS'its'
p212
I24
sS'before'
p213
I27
sS'thank'
p214
I28
sS'how'
p215
I19
sS'2:00'
p216
I28
sS'fix'
p217
I28
sS'glee'
p218
I28
sS'abbey'
p219
I28
sS'crew'
p220
I28
sS'late'
p221
I26
sS'tweets'
p222
I27
sS'bout'
p223
I28
sS'cutie'
p224
I28
sS"haven't"
p225
I28
sS'then'
p226
I25
sS'them'
p227
I26
sS'good'
p228
I24
sS'mygateway'
p229
I28
sS'food'
p230
I28
sS'break'
p231
I28
sS'lunch'
p232
I28
sS'roommate'
p233
I28
sS"you've"
p234
I28
sS'\xe2\x98\xba\xef\xb8\x8f'
p235
I28
sS'half'
p236
I25
sS'not'
p237
I24
sS'now'
p238
I20
sS'day'
p239
I27
sS'wont'
p240
I28
sS'name'
p241
I28
sS'everytime'
p242
I28
sS'always'
p243
I27
sS'*check'
p244
I28
sS'yagaaaa'
p245
I28
sS'doesnt'
p246
I27
sS'each'
p247
I27
sS'beneath'
p248
I28
sS"isn't"
p249
I27
sS'studios'
p250
I28
sS'doing'
p251
I28
sS'there'
p252
I28
sS'fish'
p253
I28
sS'yeah'
p254
I28
sS'accidentally'
p255
I28
sS'stabbed'
p256
I28
sS'juggling'
p257
I28
sS'forgot'
p258
I28
sS'laundry'
p259
I28
sS'girl'
p260
I23
sS'beyond'
p261
I28
sS'britain'
p262
I28
sS'out'
p263
I20
sS'album'
p264
I28
sS'gon'
p265
I27
sS'won'
p266
I28
sS'3rd'
p267
I28
sS'<<<'
p268
I28
sS'god'
p269
I28
sS'since'
p270
I27
sS'seriously'
p271
I25
sS'hilarious'
p272
I28
sS'got'
p273
I27
sS'rn'
p274
I28
sS'ofcourse'
p275
I28
sS'ass'
p276
I27
sS'xdd'
p277
I28
sS'o.o'
p278
I28
sS'pathetic'
p279
I28
sS'city'
p280
I28
sS'timeline'
p281
I27
sS'little'
p282
I26
sS'free'
p283
I28
sS'yesterday'
p284
I28
sS'small'
p285
I28
sS'complicated'
p286
I28
sS'asf'
p287
I28
sS'grapes'
p288
I28
sS'clique'
p289
I26
sS'put'
p290
I28
sS'pretend'
p291
I28
sS'craving'
p292
I28
sS'care'
p293
I27
sS'training'
p294
I28
sS'river'
p295
I28
sS'"buddy'
p296
I28
sS'could'
p297
I28
sS'headphones'
p298
I28
sS'kiss'
p299
I28
sS'uncle'
p300
I28
sS'4th'
p301
I28
sS'place'
p302
I28
sS'mein'
p303
I28
sS'think'
p304
I24
sS'first'
p305
I28
sS'feed'
p306
I28
sS'shave'
p307
I28
sS'already'
p308
I27
sS'dont'
p309
I18
sS'feel'
p310
I27
sS'question'
p311
I28
sS'potter'
p312
I28
sS'xd'
p313
I28
sS'one'
p314
I24
sS'unexpected'
p315
I28
sS'bitch'
p316
I25
sS'kersh'
p317
I28
sS'sober'
p318
I28
sS'miss'
p319
I24
sS'justins'
p320
I28
sS"you're"
p321
I26
sS'guess'
p322
I26
sS'wrath'
p323
I28
sS'start'
p324
I28
sS'them\xe2\x80\x9d'
p325
I28
sS'tired'
p326
I26
sS'girls'
p327
I26
sS'least'
p328
I27
sS'collar'
p329
I28
sS'vagina'
p330
I28
sS'2'
p331
I28
sS'too'
p332
I26
sS'friend'
p333
I27
sS'beard'
p334
I28
sS'cuddling'
p335
I28
sS'eyes'
p336
I28
sS'hug'
p337
I28
sS'stomach'
p338
I27
sS'ohhhhhhh'
p339
I28
sS'that'
p340
I16
sS'dtla'
p341
I28
sS'hotel'
p342
I28
sS'waw'
p343
I28
sS'dentist'
p344
I26
sS'believe'
p345
I28
sS'representing'
p346
I28
sS'than'
p347
I26
sS'king'
p348
I27
sS'kind'
p349
I28
sS'bored'
p350
I28
sS'lmao'
p351
I10
sS'scenes'
p352
I28
sS'bed'
p353
I28
sS'matter'
p354
I27
sS'watchibg'
p355
I28
sS'supposed'
p356
I27
sS'x-rays'
p357
I28
sS'surprisingly'
p358
I28
sS'vieler'
p359
I28
sS'and'
p360
I7
sS'swerve'
p361
I28
sS'lmaooooo'
p362
I27
sS'sad'
p363
I24
sS'tonight'
p364
I28
sS'say'
p365
I24
sS'have'
p366
I17
sS'need'
p367
I22
sS'seen'
p368
I27
sS'breakfast'
p369
I27
sS'mins'
p370
I28
sS'saw'
p371
I28
sS'tells'
p372
I28
sS'car'
p373
I28
sS'hopelessly'
p374
I28
sS'clutch'
p375
I28
sS'-'
p376
I26
sS'mid'
p377
I28
sS'hangover'
p378
I28
sS'omfg'
p379
I28
sS'squad'
p380
I28
sS'take'
p381
I26
sS'poster'
p382
I28
sS'talent/skill'
p383
I28
sS'rhcp'
p384
I28
sS'play'
p385
I28
sS'pain'
p386
I28
sS'though'
p387
I25
sS'aww'
p388
I28
sS'who'
p389
I28
sS'numero'
p390
I28
sS'most'
p391
I28
sS'plan'
p392
I28
sS'diferent'
p393
I28
sS'nothing'
p394
I27
sS'why'
p395
I24
sS'sometimes'
p396
I28
sS'hungry'
p397
I28
sS'km'
p398
I28
sS'face'
p399
I28
sS'looked'
p400
I28
sS'10am'
p401
I28
sS'movie'
p402
I28
sS'nyc'
p403
I28
sS'hear'
p404
I28
sS'away'
p405
I28
sS'fact'
p406
I28
sS'saying'
p407
I27
sS'walking'
p408
I28
sS'ugh'
p409
I28
sS'\xe2\x9c\xa8'
p410
I28
sS'gold'
p411
I28
sS'show'
p412
I28
sS'chances'
p413
I28
sS'text'
p414
I28
sS'rub'
p415
I28
sS'queen'
p416
I27
sS'fingers'
p417
I28
sS'planning'
p418
I28
sS'aint'
p419
I22
sS"me:let's"
p420
I28
sS'giant'
p421
I27
sS'slow'
p422
I28
sS'('
p423
I26
sS'outside'
p424
I28
sS'sugar'
p425
I28
sS'surfy'
p426
I28
sS'tears'
p427
I28
sS'going'
p428
I28
sS'black'
p429
I27
sS'pretty'
p430
I27
sS'california)'
p431
I28
sS'watching'
p432
I28
sS'hope'
p433
I26
sS'do'
p434
I22
sS'his'
p435
I26
sS'get'
p436
I19
sS'beat'
p437
I28
sS'dope'
p438
I28
sS'diamonds'
p439
I28
sS'stop'
p440
I26
sS'cardinals'
p441
I28
sS'tbh'
p442
I17
sS'awww'
p443
I26
sS'ones'
p444
I28
sS'pretending'
p445
I28
sS'timing'
p446
I28
sS'during'
p447
I28
sS'him'
p448
I27
sS'celebrate'
p449
I28
sS'freaking'
p450
I28
sS'cry'
p451
I27
sS'ughh'
p452
I28
sS'morning'
p453
I27
sS'bad'
p454
I26
sS'stupid'
p455
I28
sS'she'
p456
I20
sS'unibrow'
p457
I28
sS'release'
p458
I28
sS'steak'
p459
I27
sS'where'
p460
I28
sS'sew'
p461
I28
sS'marlene'
p462
I26
sS'down\xe2\x80\x9dtbh'
p463
I28
sS'travis'
p464
I28
sS'decided'
p465
I28
sS'dumb'
p466
I28
sS'are'
p467
I14
sS'hoes'
p468
I28
sS'close'
p469
I28
sS'best'
p470
I28
sS'said'
p471
I28
sS'mine'
p472
I28
sS'pictures'
p473
I27
sS'wow'
p474
I28
sS'currently'
p475
I27
sS'please'
p476
I26
sS'thurs'
p477
I28
sS'goddd'
p478
I28
sS'3'
p479
I27
sS"there's"
p480
I27
sS'bruno'
p481
I26
sS'hopefully'
p482
I28
sS'dirty'
p483
I28
sS'we'
p484
I17
sS'relatable'
p485
I28
sS'omg'
p486
I28
sS'missing'
p487
I28
sS'a.m'
p488
I28
sS'screen'
p489
I28
sS'were'
p490
I28
sS'weren\xe2\x80\x99t'
p491
I28
sS'clayton'
p492
I28
sS'job'
p493
I28
sS'coffee'
p494
I28
sS'drew'
p495
I28
sS'wtf'
p496
I28
sS'games\xe2\x80\xa6'
p497
I28
sS'news'
p498
I28
sS'"sike'
p499
I28
sS'come'
p500
I28
sS'bone'
p501
I28
sS'fried'
p502
I28
sS'last'
p503
I27
sS'kicking'
p504
I28
sS'many'
p505
I27
sS'taking'
p506
I28
sS'la'
p507
I28
sS'jelly'
p508
I28
sS'gewd'
p509
I28
sS'retarded'
p510
I28
sS'let'
p511
I27
sS'argue'
p512
I28
sS"can't"
p513
I24
sS'uno'
p514
I28
sS'tough'
p515
I28
sS'jj'
p516
I28
sS'point'
p517
I28
sS'within'
p518
I28
sS'sweet'
p519
I28
sS'hurts'
p520
I28
sS'walk'
p521
I28
sS'cx'
p522
I28
sS'trust'
p523
I28
sS'smith'
p524
I28
sS'cramps'
p525
I23
sS'better'
p526
I27
sS'yay'
p527
I27
sS'second'
p528
I28
sS'"you'
p529
I28
sS"it's"
p530
I23
sS'vacation'
p531
I28
sS'been'
p532
I25
sS'breath'
p533
I28
sS'sleepover'
p534
I28
sS'much'
p535
I28
sS'damn'
p536
I28
sS'mars'
p537
I27
sS'waste'
p538
I27
sS'woke'
p539
I27
sS'wants'
p540
I28
sS'life'
p541
I21
sS'squirrel'
p542
I28
sS'gay'
p543
I27
sS'sooooo'
p544
I28
sS'else'
p545
I27
sS'orange'
p546
I28
sS'awake'
p547
I28
sS'-.-'
p548
I27
sS'catch'
p549
I28
sS'foggy'
p550
I28
sS'haters'
p551
I28
sS'irrelevant'
p552
I28
sS'those'
p553
I28
sS'fukn'
p554
I28
sS'myself'
p555
I28
sS'these'
p556
I24
sS'natkateand'
p557
I28
sS'will'
p558
I27
sS'kick'
p559
I28
sS'thot'
p560
I28
sS'fun'
p561
I28
sS'barely'
p562
I28
sS'is'
p563
I9
sS'it'
p564
I13
sS'bros'
p565
I28
sS'cant'
p566
I26
sS'someone'
p567
I28
sS'im'
p568
I23
sS'in'
p569
I14
sS'id'
p570
I28
sS'deel'
p571
I28
sS'if'
p572
I19
sS'jenner'
p573
I28
sS'funny'
p574
I28
sS'different'
p575
I28
sS'anymore'
p576
I28
sS'nike'
p577
I28
sS'things'
p578
I28
sS'make'
p579
I27
sS'bowl'
p580
I28
sS'same'
p581
I28
sS'trip'
p582
I28
sS'week'
p583
I28
sS'slave'
p584
I28
sS'drink'
p585
I27
sS'upon'
p586
I28
sS'katzen'
p587
I28
sS'rain'
p588
I28
sS'running'
p589
I28
sS'volley'
p590
I28
sS'impeccable'
p591
I28
sS'totally'
p592
I28
sS'weird'
p593
I28
sS'eith'
p594
I28
sS'\xe2\x9c\x8c\xef\xb8\x8f'
p595
I28
sS'spotted'
p596
I28
sS'off'
p597
I27
sS'surfboard'
p598
I28
sS'i'
p599
I2
sS'congrats'
p600
I28
sS'well'
p601
I25
sS'thought'
p602
I28
sS'scissor'
p603
I28
sS'comes'
p604
I27
sS'bottle'
p605
I28
sS'fixing'
p606
I28
sS'hearts'
p607
I28
sS'the'
p608
I5
sS'left'
p609
I28
sS'summer'
p610
I28
sS"dulce's"
p611
I28
sS"she'll"
p612
I28
sS'they'
p613
I27
sS'just'
p614
I17
sS'less'
p615
I28
sS'being'
p616
I26
sS'able'
p617
I28
sS'mistakes'
p618
I27
sS'kill'
p619
I28
sS'thanks'
p620
I27
sS'questions'
p621
I28
sS'behind'
p622
I28
sS'yet'
p623
I28
sS'proven'
p624
I28
sS'superficial'
p625
I28
sS'painful'
p626
I28
sS'dipped'
p627
I28
sS'surphy'
p628
I28
sS'drunk'
p629
I28
sS'had'
p630
I26
sS'cuz'
p631
I27
sS'lets'
p632
I28
sS'book'
p633
I28
sS'parents'
p634
I28
sS'4'
p635
I28
sS'wet'
p636
I27
sS'halftime'
p637
I28
sS'has'
p638
I27
sS'teriyaki'
p639
I28
sS'surprised'
p640
I28
sS'real'
p641
I28
sS'tests'
p642
I28
sS'big'
p643
I26
sS'showing'
p644
I28
sS'haus'
p645
I28
sS'gonna'
p646
I28
sS'game'
p647
I28
sS'know'
p648
I24
sS'mom'
p649
I23
sS"'masons'"
p650
I28
sS'overdosed'
p651
I28
sS'd'
p652
I28
sS'like'
p653
I15
sS'pregnant'
p654
I28
sS'trigod'
p655
I26
sS'nose'
p656
I28
sS'night'
p657
I27
sS'kendal'
p658
I28
sS'right'
p659
I19
sS'people'
p660
I22
sS'fucking'
p661
I24
sS'twitter'
p662
I26
sS'back'
p663
I23
sS'dead'
p664
I27
sS'born'
p665
I28
sS'non-vegans'
p666
I28
sS'ganj'
p667
I28
sS'home'
p668
I27
sS'shelley'
p669
I28
sS'mood'
p670
I27
sS'for'
p671
I20
sS'crocks\xe2\x80\x9d'
p672
I28
sS'literally'
p673
I28
sS'/'
p674
I28
sS'everything'
p675
I25
sS'does'
p676
I28
sS'happy:talk'
p677
I28
sS'myself.....lol'
p678
I28
sS'foo'
p679
I28
sS'temple'
p680
I26
sS'be'
p681
I23
sS'patient'
p682
I28
sS'11-4pm'
p683
I28
sS'now\xe2\x80\x9d'
p684
I28
sS'deleted'
p685
I27
sS'martin'
p686
I28
sS'slut'
p687
I28
sS'culero'
p688
I28
sS'losing'
p689
I28
sS';)'
p690
I28
sS'super'
p691
I28
sS'by'
p692
I27
sS'hiding'
p693
I28
sS'shine'
p694
I28
sS'on'
p695
I17
sS'sister'
p696
I25
sS'works'
p697
I28
sS'would'
p698
I28
sS'world'
p699
I28
sS'getting'
p700
I25
sS'of'
p701
I15
sS'graduation'
p702
I28
sS'angeles'
p703
I27
sS'dinner'
p704
I28
sS'stand'
p705
I28
sS'wanna'
p706
I28
sS'or'
p707
I25
sS'road'
p708
I27
sS'own'
p709
I28
sS'missssed'
p710
I28
sS'johns'
p711
I28
sS'kat'
p712
I28
sS'weather.\xe2\x80\x9drft'
p713
I28
sS'down'
p714
I26
sS'freshman'
p715
I28
sS'guard'
p716
I28
sS'because'
p717
I26
sS'gay-off'
p718
I28
sS'ayyy'
p719
I28
sS'hang'
p720
I28
sS'your'
p721
I18
sS'her'
p722
I24
sS'wah'
p723
I28
sS'hmmm'
p724
I28
sS'friends'
p725
I28
sS'constantly'
p726
I27
sS'boxing'
p727
I28
sS'long'
p728
I28
sS'class'
p729
I28
sS'omfggggg'
p730
I28
sS"we're"
p731
I28
sS'way'
p732
I28
sS'biggest'
p733
I28
sS'ayy'
p734
I28
sS'wat'
p735
I26
sS'was'
p736
I26
sS'scared'
p737
I28
sS'happy'
p738
I24
sS'head'
p739
I28
sS'enough'
p740
I28
sS'clinics'
p741
I28
sS'bus'
p742
I28
sS'lmaooo'
p743
I28
sS'but'
p744
I17
sS'reminds'
p745
I28
sS'heat'
p746
I28
sS'reed'
p747
I28
sS'goals'
p748
I27
sS'didnt'
p749
I28
sS'trying'
p750
I27
sS'with'
p751
I12
sS'eat'
p752
I28
sS'he'
p753
I27
sS'cena'
p754
I28
sS'places'
p755
I28
sS'wish'
p756
I27
sS'perrito'
p757
I28
sS'attached'
p758
I28
sS'up'
p759
I26
sS'us'
p760
I28
sS'until'
p761
I27
sS'dms'
p762
I28
sS'subtweets'
p763
I28
sS'bombayyy'
p764
I28
sS'problem'
p765
I28
sS'cheeks'
p766
I28
sS'dare'
p767
I28
sS'expect'
p768
I28
sS'ohh'
p769
I28
sS'taste'
p770
I28
sS'year'
p771
I28
sS'am'
p772
I27
sS'yaga'
p773
I28
sS'an'
p774
I28
sS'fly'
p775
I28
sS'as'
p776
I24
sS'at'
p777
I19
sS'playin'
p778
I28
sS'check'
p779
I28
sS'shit'
p780
I25
sS'again'
p781
I28
sS'genie'
p782
I28
sS'no'
p783
I25
sS'deserve'
p784
I27
sS'nah'
p785
I27
sS'when'
p786
I24
sS'other'
p787
I26
sS'5'
p788
I27
sS'sick'
p789
I28
sS'you'
p790
I4
sS'really'
p791
I28
sS'nice'
p792
I28
sS'poor'
p793
I28
sS'monday'
p794
I28
sS'jazper'
p795
I28
sS'\xe2\x98\xba\xef\xb8\x8f\xe2\x98\xba\xef\xb8\x8f'
p796
I28
sS'trouble'
p797
I28
sS"she's"
p798
I26
sS'catering'
p799
I28
sS'weekend'
p800
I28
sS'dulce'
p801
I28
sS"'"
p802
I28
sS"he's"
p803
I28
sS'together'
p804
I26
sS'u'
p805
I28
sS'karma'
p806
I27
sS'time'
p807
I23
sS"ain't"
p808
I26
sS'having'
p809
I28
s.