(dp0
S''
p1
I1
sS'all'
p2
I15
sS':)'
p3
I14
sS'month'
p4
I15
sS'sleep'
p5
I15
sS'go'
p6
I9
sS'gm'
p7
I15
sS'to'
p8
I3
sS'finally'
p9
I15
sS'does'
p10
I14
sS'2pac'
p11
I15
sS'division'
p12
I15
sS'myles'
p13
I15
sS"they'll"
p14
I15
sS'very'
p15
I15
sS'every'
p16
I15
sS'minute'
p17
I15
sS'tickets'
p18
I15
sS'did'
p19
I14
sS'wednesday'
p20
I15
sS'leave'
p21
I15
sS'guy'
p22
I15
sS'teeflii'
p23
I15
sS'clothes'
p24
I15
sS"i'll"
p25
I15
sS'heavyweight'
p26
I15
sS'reunion'
p27
I15
sS'even'
p28
I15
sS'what'
p29
I14
sS'waiting'
p30
I15
sS'ever'
p31
I14
sS'can'
p32
I15
sS'here'
p33
I15
sS'hours'
p34
I15
sS'\xe2\x9d\xa4\xef\xb8\x8f'
p35
I15
sS'alone'
p36
I15
sS'sing'
p37
I15
sS"aren't"
p38
I15
sS'bow'
p39
I15
sS'!it'
p40
I15
sS"i'm"
p41
I14
sS'makes'
p42
I15
sS'love'
p43
I14
sS'bro'
p44
I15
sS'suppa'
p45
I15
sS'fed'
p46
I15
sS'from'
p47
I15
sS'&'
p48
I10
sS'charge'
p49
I15
sS'next'
p50
I15
sS'live'
p51
I15
sS'today'
p52
I15
sS'more'
p53
I14
sS'yuuuuuup'
p54
I15
sS'door'
p55
I15
sS'club'
p56
I15
sS'sister'
p57
I15
sS'glass'
p58
I15
sS"ain't"
p59
I14
sS'baby'
p60
I15
sS'glad'
p61
I15
sS'me'
p62
I10
sS'room'
p63
I14
sS'this'
p64
I14
sS'work'
p65
I14
sS'sucks'
p66
I15
sS'movies'
p67
I15
sS'.was'
p68
I15
sS'following'
p69
I15
sS'my'
p70
I9
sS'tap'
p71
I15
sS'give'
p72
I15
sS"didn't"
p73
I15
sS'fuck'
p74
I15
sS'homie'
p75
I15
sS'want'
p76
I14
sS'means'
p77
I15
sS'1'
p78
I15
sS'how'
p79
I13
sS'"thirsty"'
p80
I15
sS'laundry'
p81
I15
sS'birthday'
p82
I15
sS'mad'
p83
I15
sS'taco'
p84
I15
sS'date'
p85
I15
sS'such'
p86
I15
sS'guys'
p87
I15
sS'a'
p88
I5
sS'remember'
p89
I15
sS'so'
p90
I8
sS'playing'
p91
I15
sS'cute'
p92
I14
sS"don't"
p93
I12
sS'over'
p94
I14
sS'move'
p95
I13
sS'motorcycle'
p96
I15
sS'its'
p97
I15
sS'perfect'
p98
I15
sS'la'
p99
I14
sS'actually'
p100
I15
sS'choose'
p101
I15
sS'might'
p102
I15
sS'then'
p103
I15
sS'good'
p104
I14
sS'dike'
p105
I15
sS'starbucks'
p106
I15
sS'\xe2\x98\xba\xef\xb8\x8f'
p107
I15
sS'now'
p108
I13
sS'day'
p109
I14
sS'name'
p110
I15
sS'always'
p111
I13
sS'honduras'
p112
I15
sS'yeah'
p113
I14
sS'girl'
p114
I15
sS'out'
p115
I10
sS'since'
p116
I14
sS'looking'
p117
I15
sS'seriously'
p118
I15
sS'7'
p119
I15
sS'got'
p120
I15
sS'cause'
p121
I15
sS'shut'
p122
I15
sS'city'
p123
I15
sS'friday'
p124
I15
sS'reason'
p125
I15
sS'put'
p126
I15
sS'craving'
p127
I15
sS'bash'
p128
I15
sS'needing'
p129
I15
sS'kiss'
p130
I15
sS'keep'
p131
I14
sS'think'
p132
I14
sS'already'
p133
I14
sS'coming'
p134
I15
sS'fancy'
p135
I15
sS'one'
p136
I15
sS'yair'
p137
I15
sS'another'
p138
I15
sS'ring'
p139
I15
sS'miss'
p140
I13
sS'tomorrow'
p141
I13
sS"you're"
p142
I15
sS'system'
p143
I15
sS'anyone'
p144
I15
sS'needed'
p145
I15
sS'shoppers'
p146
I15
sS'murder'
p147
I15
sS'that'
p148
I14
sS'.like'
p149
I15
sS'kept'
p150
I14
sS'begins'
p151
I15
sS'lmao'
p152
I14
sS'stalk'
p153
I15
sS'and'
p154
I9
sS'mini'
p155
I15
sS'outta'
p156
I15
sS'turned'
p157
I15
sS'tonight'
p158
I13
sS'have'
p159
I12
sS'need'
p160
I14
sS'seen'
p161
I15
sS'lil'
p162
I15
sS'sure'
p163
I15
sS'though'
p164
I15
sS'meani'
p165
I15
sS'why'
p166
I14
sS'later'
p167
I15
sS'clean'
p168
I15
sS'entertaining'
p169
I15
sS'away'
p170
I15
sS'fact'
p171
I15
sS'saying'
p172
I15
sS'('
p173
I14
sS'foward'
p174
I15
sS'only'
p175
I15
sS'pretty'
p176
I15
sS'his'
p177
I15
sS'hit'
p178
I14
sS'get'
p179
I13
sS'watch'
p180
I15
sS'him'
p181
I14
sS'freaking'
p182
I15
sS'rft'
p183
I15
sS'cry'
p184
I15
sS'allbut'
p185
I15
sS'bae'
p186
I15
sS'where'
p187
I14
sS"y'all"
p188
I15
sS"pobres'"
p189
I15
sS'contac'
p190
I15
sS'w/'
p191
I13
sS'testing'
p192
I15
sS'see'
p193
I13
sS'are'
p194
I14
sS'best'
p195
I15
sS'tripping'
p196
I15
sS'wow'
p197
I15
sS'outside'
p198
I15
sS'hopefully'
p199
I15
sS'24'
p200
I15
sS'we'
p201
I14
sS'sold'
p202
I15
sS'weak'
p203
I15
sS'js'
p204
I15
sS'job'
p205
I15
sS'wtf'
p206
I15
sS'jk'
p207
I15
sS'staring'
p208
I15
sS'water'
p209
I15
sS'last'
p210
I14
sS'brown'
p211
I15
sS'many'
p212
I15
sS"he's"
p213
I14
sS'drug'
p214
I15
sS'argue'
p215
I15
sS'lolbut'
p216
I15
sS"can't"
p217
I12
sS'bell'
p218
I15
sS'sweet'
p219
I15
sS'walk'
p220
I15
sS'bader'
p221
I15
sS'nicole'
p222
I15
sS"it's"
p223
I14
sS'jaylenn'
p224
I15
sS'vacation'
p225
I15
sS'been'
p226
I15
sS'much'
p227
I13
sS'basic'
p228
I15
sS'wants'
p229
I15
sS'jaden'
p230
I15
sS'shopping'
p231
I14
sS"what's"
p232
I15
sS'lives'
p233
I14
sS'-.-'
p234
I13
sS'look'
p235
I15
sS'these'
p236
I15
sS'straight'
p237
I15
sS'will'
p238
I15
sS'while'
p239
I15
sS'suppose'
p240
I15
sS'hoping'
p241
I15
sS'*tho'
p242
I15
sS'is'
p243
I6
sS'it'
p244
I9
sS'vs'
p245
I15
sS'in'
p246
I8
sS'if'
p247
I14
sS'funny'
p248
I15
sS'rooting'
p249
I15
sS'forehead'
p250
I15
sS'babies'
p251
I15
sS'party'
p252
I15
sS'week'
p253
I15
sS'favorited'
p254
I15
sS'hang'
p255
I14
sS'kim'
p256
I15
sS'sisters'
p257
I15
sS'pull'
p258
I15
sS'//'
p259
I14
sS'off'
p260
I15
sS'i'
p261
I2
sS'cheek'
p262
I15
sS'well'
p263
I15
sS'thi'
p264
I15
sS'the'
p265
I4
sS'(x'
p266
I15
sS'they'
p267
I10
sS'just'
p268
I8
sS'sleepy'
p269
I15
sS'yes'
p270
I15
sS'thinking'
p271
I15
sS'had'
p272
I15
sS'killed'
p273
I15
sS'around'
p274
I13
sS'read'
p275
I15
sS'big'
p276
I15
sS'gonna'
p277
I15
sS'know'
p278
I15
sS'like'
p279
I11
sS'night'
p280
I14
sS'because'
p281
I14
sS'old'
p282
I14
sS'people'
p283
I14
sS'some'
p284
I14
sS'back'
p285
I15
sS'home'
p286
I12
sS'questions(just'
p287
I15
sS'happens'
p288
I15
sS'women)'
p289
I15
sS'mood'
p290
I15
sS'for'
p291
I13
sS'per'
p292
I15
sS'everything'
p293
I15
sS'asking'
p294
I15
sS'be'
p295
I12
sS'bf'
p296
I15
sS'ufc'
p297
I15
sS'by'
p298
I15
sS'on'
p299
I10
sS'about'
p300
I14
sS'anything'
p301
I15
sS'oh'
p302
I14
sS'of'
p303
I13
sS'angeles'
p304
I15
sS'wanna'
p305
I12
sS'or'
p306
I13
sS'seeing'
p307
I14
sS'machida'
p308
I15
sS"todayit's"
p309
I15
sS'kalin'
p310
I15
sS'right'
p311
I15
sS'france'
p312
I15
sS'her'
p313
I15
sS'there'
p314
I15
sS'hey'
p315
I14
sS'lol'
p316
I10
sS'fight'
p317
I14
sS'los'
p318
I15
sS'was'
p319
I15
sS'happy'
p320
I15
sS"i've"
p321
I15
sS'but'
p322
I10
sS'with'
p323
I13
sS'he'
p324
I12
sS'.i'
p325
I15
sS'up'
p326
I13
sS'ur'
p327
I14
sS'daddy'
p328
I15
sS'sometimes'
p329
I15
sS'af'
p330
I15
sS'am'
p331
I15
sS'an'
p332
I15
sS'at'
p333
I11
sS'no'
p334
I11
sS'idiot'
p335
I15
sS'when'
p336
I10
sS'deserved'
p337
I15
sS'you'
p338
I7
sS'stay'
p339
I15
sS'friends'
p340
I15
sS'building'
p341
I15
sS'fighter'
p342
I15
sS'longer'
p343
I15
sS'age'
p344
I15
sS'time'
p345
I14
sS'fresh'
p346
I15
sS'having'
p347
I15
s.