(dp0
S''
p1
I1
sS'all'
p2
I34
sS'serlo\xe2\x80\xa6'
p3
I38
sS':('
p4
I38
sS'd\xc3\xada'
p5
I38
sS':*'
p6
I38
sS'dance'
p7
I38
sS'results'
p8
I38
sS'lebanon'
p9
I38
sS'month'
p10
I36
sS'enjoyable'
p11
I38
sS'kati'
p12
I38
sS'burritos'
p13
I38
sS'sleep'
p14
I38
sS'rampart'
p15
I33
sS'follow'
p16
I37
sS'chair'
p17
I38
sS'tweeted'
p18
I38
sS'hate'
p19
I36
sS'slab'
p20
I38
sS'lauro'
p21
I35
sS':)'
p22
I38
sS'pendeja.sin'
p23
I38
sS'souffl\xc3\xa9'
p24
I38
sS'cince'
p25
I38
sS'yummy'
p26
I37
sS'filming'
p27
I38
sS'tweet'
p28
I38
sS'father'
p29
I38
sS'otra'
p30
I38
sS'mmmmmmm'
p31
I38
sS'to'
p32
I4
sS'finally'
p33
I38
sS'asking'
p34
I38
sS'dairy'
p35
I38
sS'helps'
p36
I38
sS'bomb'
p37
I38
sS'lord'
p38
I38
sS'sorry'
p39
I37
sS'pride'
p40
I38
sS'wax'
p41
I38
sS'town'
p42
I38
sS'belonging'
p43
I38
sS'excalibur'
p44
I37
sS'nite'
p45
I38
sS'center)'
p46
I34
sS'very'
p47
I38
sS'fetiche'
p48
I38
sS'vegas'
p49
I38
sS'every'
p50
I35
sS'formula'
p51
I38
sS'calientito'
p52
I38
sS'surgeon'
p53
I38
sS'fan'
p54
I38
sS'vero'
p55
I26
sS'cool'
p56
I36
sS'entire'
p57
I38
sS'school'
p58
I33
sS'hour'
p59
I36
sS'bring'
p60
I38
sS'did'
p61
I35
sS'button'
p62
I38
sS'list'
p63
I38
sS'dia'
p64
I38
sS'flyover'
p65
I38
sS'ansias'
p66
I38
sS'walked'
p67
I38
sS'subway'
p68
I38
sS"puttin'"
p69
I38
sS'guy'
p70
I38
sS'pool'
p71
I38
sS'yall'
p72
I38
sS"i'll"
p73
I38
sS'stoppppppp'
p74
I38
sS'charlie'
p75
I38
sS'angeles)'
p76
I38
sS'regret'
p77
I38
sS'naps\xe2\x80\x9d'
p78
I38
sS'\xe2\x9d\xa4'
p79
I37
sS'smfh'
p80
I38
sS'waking'
p81
I38
sS'go'
p82
I33
sS'10x'
p83
I38
sS'street'
p84
I38
sS'video'
p85
I37
sS'handed'
p86
I38
sS'lawyer'
p87
I38
sS'7th'
p88
I38
sS'transformers'
p89
I37
sS'album\xe2\x80\xa6'
p90
I38
sS'others)'
p91
I38
sS'drinks'
p92
I37
sS'even'
p93
I34
sS'what'
p94
I35
sS'curse'
p95
I38
sS'hide'
p96
I38
sS'chillin'
p97
I38
sS'anniversary'
p98
I37
sS'enjoyed'
p99
I38
sS'rub'
p100
I38
sS'waiting'
p101
I35
sS'melo'
p102
I38
sS'crooks'
p103
I38
sS'new'
p104
I35
sS'ever'
p105
I38
sS'filled'
p106
I38
sS'together\xe2\x9d\xa4\xef\xb8\x8f'
p107
I38
sS'1234'
p108
I37
sS'clergy'
p109
I38
sS"lesbian'"
p110
I38
sS'pancakes'
p111
I38
sS'never'
p112
I36
sS'ouch'
p113
I38
sS'(los'
p114
I31
sS'piedras'
p115
I38
sS'hours'
p116
I37
sS'\xe2\x9d\xa4\xef\xb8\x8f'
p117
I38
sS'busy'
p118
I38
sS'let'
p119
I37
sS'pancake'
p120
I38
sS'meet'
p121
I38
sS'alone'
p122
I38
sS'ver'
p123
I38
sS"aren't"
p124
I38
sS'celebration'
p125
I36
sS'settling'
p126
I38
sS'boy'
p127
I38
sS'great'
p128
I35
sS'lol'
p129
I35
sS'djay_ross'
p130
I35
sS'metro'
p131
I38
sS'impacted'
p132
I38
sS'study'
p133
I37
sS'experience'
p134
I38
sS'proud'
p135
I38
sS'products'
p136
I38
sS'social'
p137
I38
sS'california'
p138
I37
sS'weird'
p139
I37
sS'(what'
p140
I38
sS'genuinely'
p141
I38
sS'trainer'
p142
I38
sS'named'
p143
I38
sS'love'
p144
I30
sS'apple'
p145
I37
sS'family'
p146
I38
sS'app'
p147
I38
sS'imagine'
p148
I38
sS'prefer'
p149
I38
sS'private'
p150
I38
sS'wifi'
p151
I38
sS'brought'
p152
I37
sS'texts'
p153
I37
sS'moral'
p154
I38
sS'arthur'
p155
I38
sS'rollout...just'
p156
I38
sS'33%'
p157
I38
sS'swallowed'
p158
I38
sS'market'
p159
I38
sS'yourself'
p160
I38
sS'munchies'
p161
I38
sS'from'
p162
I35
sS'perf'
p163
I38
sS'would'
p164
I37
sS'&'
p165
I26
sS'asta'
p166
I38
sS'hospital'
p167
I29
sS'visit'
p168
I38
sS'two'
p169
I35
sS'all\xe2\x98\x94\xef\xb8\x8f'
p170
I38
sS'next'
p171
I37
sS'thursdays'
p172
I38
sS'ca)'
p173
I29
sS'fiiiiine'
p174
I38
sS'music'
p175
I37
sS'bender'
p176
I38
sS'6'
p177
I38
sS'bielecki'
p178
I38
sS'los'
p179
I29
sS'today'
p180
I33
sS'more'
p181
I36
sS'dash'
p182
I38
sS'1/4'
p183
I38
sS'knows'
p184
I38
sS'started'
p185
I37
sS'haha'
p186
I36
sS'it'
p187
I13
sS'downtown'
p188
I35
sS'phone'
p189
I38
sS"ain't"
p190
I38
sS'stick'
p191
I38
sS'broke'
p192
I38
sS'baby'
p193
I34
sS'hole'
p194
I38
sS'glad'
p195
I38
sS'me'
p196
I16
sS"tia's"
p197
I37
sS'that\xe2\x80\xa6'
p198
I38
sS'te'
p199
I38
sS'edible'
p200
I38
sS'mc'
p201
I37
sS'niggas'
p202
I38
sS'this'
p203
I14
sS'car'
p204
I27
sS'work'
p205
I33
sS'mi'
p206
I35
sS'roof'
p207
I38
sS'other'
p208
I38
sS'hardest'
p209
I38
sS'sour'
p210
I38
sS'can'
p211
I35
sS'praise'
p212
I38
sS'cal'
p213
I38
sS'douchy'
p214
I38
sS'cab'
p215
I38
sS'drops'
p216
I37
sS'my'
p217
I6
sS'rooftop'
p218
I38
sS'heart'
p219
I37
sS'vodka'
p220
I38
sS'nexus'
p221
I38
sS'awesome'
p222
I38
sS'slim'
p223
I38
sS"didn't"
p224
I37
sS'fuck'
p225
I32
sS'ximena'
p226
I38
sS'high'
p227
I37
sS'hearted'
p228
I38
sS'homie'
p229
I38
sS'also'
p230
I38
sS'kritttenjose'
p231
I38
sS'station'
p232
I35
sS'tan'
p233
I38
sS'people.\xe2\x80\x9d'
p234
I38
sS'mix'
p235
I38
sS'audition'
p236
I38
sS'end'
p237
I38
sS'awkward'
p238
I38
sS'thing'
p239
I36
sS'travel'
p240
I38
sS'get'
p241
I29
sS'bieja'
p242
I38
sS'1'
p243
I38
sS'how'
p244
I31
sS'amazing'
p245
I38
sS'teamhealth'
p246
I38
sS'party'
p247
I38
sS'sword'
p248
I38
sS'calma'
p249
I38
sS"doesn't"
p250
I37
sS'stand'
p251
I38
sS'blocks'
p252
I38
sS'bday'
p253
I36
sS'watch'
p254
I36
sS'wonderful'
p255
I37
sS'after'
p256
I36
sS'southern'
p257
I38
sS'ball'
p258
I38
sS'fa'
p259
I38
sS'rodney\xe2\x80\xa6'
p260
I38
sS'birthday'
p261
I36
sS'lighting'
p262
I38
sS'mad'
p263
I38
sS'coming'
p264
I36
sS'date'
p265
I38
sS'court'
p266
I38
sS'guys'
p267
I38
sS'response'
p268
I38
sS'las'
p269
I38
sS'a'
p270
I5
sS'preparty'
p271
I38
sS'realized'
p272
I38
sS'mayo'
p273
I38
sS'6th'
p274
I37
sS'sit'
p275
I38
sS'st'
p276
I38
sS'so'
p277
I18
sS'goodbye'
p278
I38
sS'pay'
p279
I38
sS'banks'
p280
I38
sS'worst'
p281
I36
sS'vapor'
p282
I38
sS'talk'
p283
I36
sS"that's"
p284
I35
sS'\xc2\xa1ol\xc3\xa9'
p285
I38
sS'napa'
p286
I38
sS'mexican'
p287
I37
sS"don't"
p288
I29
sS';p'
p289
I38
sS'freckles'
p290
I38
sS'over'
p291
I38
sS"chaplin's"
p292
I38
sS'midnight'
p293
I38
sS'soon'
p294
I37
sS'years'
p295
I38
sS'through'
p296
I37
sS'looks'
p297
I38
sS'reconnect'
p298
I38
sS'condominiums'
p299
I35
sS'still'
p300
I38
sS'before'
p301
I35
sS'lf'
p302
I38
sS'stopppppp'
p303
I38
sS'police'
p304
I37
sS'thank'
p305
I38
sS'la'
p306
I21
sS'personal'
p307
I38
sS'(1310'
p308
I38
sS'[pic]'
p309
I37
sS'late'
p310
I33
sS'window'
p311
I38
sS'production'
p312
I38
sS'las\xe2\x80\xa6'
p313
I38
sS'2014'
p314
I38
sS'might'
p315
I38
sS'into'
p316
I38
sS'happened'
p317
I38
sS'dad'
p318
I38
sS'then'
p319
I38
sS'them'
p320
I38
sS'good'
p321
I25
sS'yo'
p322
I38
sS'ya'
p323
I36
sS'workout'
p324
I38
sS"happened'"
p325
I38
sS'fiesta'
p326
I38
sS'mashing'
p327
I38
sS'break'
p328
I38
sS'lunch'
p329
I36
sS'starbucks'
p330
I38
sS'\xe2\x98\xba\xef\xb8\x8f'
p331
I36
sS'hands'
p332
I35
sS'not'
p333
I23
sS'now'
p334
I29
sS'tourism'
p335
I38
sS'day'
p336
I29
sS'viewers'
p337
I38
sS'impressive'
p338
I38
sS'itself'
p339
I38
sS'meat'
p340
I38
sS'ultrasound'
p341
I38
sS'sundays'
p342
I38
sS'always'
p343
I34
sS'nfl'
p344
I38
sS'slavery'
p345
I38
sS'sin'
p346
I38
sS'someone'
p347
I38
sS'stopped'
p348
I38
sS'fitness'
p349
I34
sS'went'
p350
I34
sS'glasses'
p351
I38
sS'el'
p352
I37
sS'studios'
p353
I38
sS'en'
p354
I36
sS'lowkey'
p355
I38
sS'doing'
p356
I37
sS'house'
p357
I36
sS'adventure'
p358
I38
sS'ambiance'
p359
I38
sS"party's"
p360
I38
sS'good\xe2\x80\xa6'
p361
I38
sS'accidentally'
p362
I38
sS'car)'
p363
I37
sS'trading'
p364
I38
sS'ex'
p365
I37
sS'year'
p366
I38
sS'girl'
p367
I36
sS'calling'
p368
I38
sS'sunrise'
p369
I38
sS'out'
p370
I32
sS'rt'
p371
I34
sS'living'
p372
I38
sS'flower'
p373
I38
sS'alcohol'
p374
I37
sS'threatens'
p375
I38
sS'since'
p376
I38
sS'meditating'
p377
I38
sS'projected'
p378
I38
sS'rolls'
p379
I38
sS'looking'
p380
I37
sS'may'
p381
I38
sS'imperative'
p382
I38
sS'ihop'
p383
I38
sS'smh'
p384
I37
sS'got'
p385
I33
sS'rn'
p386
I38
sS'mitaki)'
p387
I38
sS'cause'
p388
I38
sS'red'
p389
I38
sS"could've"
p390
I38
sS'ass'
p391
I38
sS'shut'
p392
I37
sS'arizona'
p393
I38
sS'umbrella'
p394
I38
sS'vocab'
p395
I38
sS'wilshire'
p396
I36
sS'convocation'
p397
I38
sS'ipod'
p398
I38
sS'friends'
p399
I38
sS'free'
p400
I38
sS'20'
p401
I38
sS'que'
p402
I33
sS'vacations'
p403
I38
sS'members'
p404
I38
sS'clique'
p405
I38
sS'put'
p406
I37
sS'wanted'
p407
I36
sS'havent'
p408
I38
sS'e3'
p409
I38
sS'care'
p410
I38
sS'ate'
p411
I38
sS'could'
p412
I36
sS'ritual'
p413
I38
sS'ask'
p414
I38
sS'days'
p415
I33
sS'-_____-'
p416
I38
sS'keep'
p417
I38
sS'conversation'
p418
I37
sS'american'
p419
I38
sS'plane'
p420
I38
sS'w'
p421
I36
sS'uses'
p422
I38
sS'(at'
p423
I36
sS'think'
p424
I37
sS'jus'
p425
I38
sS'\xc2\xaf\\_(\xe3\x83\x84)_/\xc2\xaf'
p426
I38
sS"'buff"
p427
I38
sS'already'
p428
I36
sS'xo'
p429
I38
sS'dime'
p430
I38
sS'westlake'
p431
I36
sS'touring'
p432
I38
sS'xd'
p433
I38
sS'one'
p434
I31
sS'hahahaha'
p435
I38
sS'set'
p436
I38
sS'bitch'
p437
I37
sS'another'
p438
I38
sS'spanish'
p439
I38
sS'booty'
p440
I38
sS'drove'
p441
I38
sS'miss'
p442
I37
sS'tomorrow'
p443
I38
sS'hahabout'
p444
I38
sS'size'
p445
I38
sS"you're"
p446
I36
sS'little'
p447
I37
sS'"'
p448
I36
sS'service'
p449
I38
sS'hee'
p450
I37
sS'esas'
p451
I38
sS'23'
p452
I38
sS'girls'
p453
I38
sS'least'
p454
I38
sS'cash'
p455
I38
sS'anyone'
p456
I38
sS'2'
p457
I34
sS'draft'
p458
I38
sS'condominiums)'
p459
I37
sS'ankle'
p460
I38
sS'hollywood'
p461
I38
sS'angry'
p462
I38
sS'lapd'
p463
I37
sS'friend'
p464
I37
sS'too'
p465
I33
sS'eyes'
p466
I38
sS'lot'
p467
I37
sS'para'
p468
I37
sS'that'
p469
I20
sS'season'
p470
I37
sS'gym'
p471
I38
sS'4:30'
p472
I38
sS'boba'
p473
I38
sS'comer'
p474
I38
sS'hurt'
p475
I38
sS'ridiculous'
p476
I38
sS'boredom'
p477
I38
sS'bajo'
p478
I38
sS'loving'
p479
I38
sS'thai'
p480
I38
sS'flowers'
p481
I37
sS'than'
p482
I35
sS'way.)'
p483
I38
sS'11'
p484
I38
sS'loved'
p485
I38
sS'kind'
p486
I37
sS'12'
p487
I38
sS'chump'
p488
I38
sS'lmao'
p489
I37
sS'16'
p490
I38
sS'double'
p491
I38
sS'gotta'
p492
I38
sS"mother's"
p493
I38
sS'scenes'
p494
I38
sS'bed'
p495
I36
sS'final'
p496
I37
sS'tummy'
p497
I38
sS'r'
p498
I38
sS'marriage'
p499
I38
sS'supposed'
p500
I38
sS'loves'
p501
I38
sS'were'
p502
I36
sS'design'
p503
I38
sS'gives'
p504
I38
sS'anyways'
p505
I38
sS'and'
p506
I8
sS'kidding'
p507
I38
sS'mickey_mouse_official'
p508
I38
sS'clyne'
p509
I38
sS'picked'
p510
I38
sS'portraits'
p511
I38
sS'mind'
p512
I38
sS'slap'
p513
I38
sS'sad'
p514
I38
sS'tonight'
p515
I36
sS'talking'
p516
I37
sS'say'
p517
I37
sS'have'
p518
I19
sS'cleaned'
p519
I38
sS'need'
p520
I34
sS'seen'
p521
I37
sS'breakfast'
p522
I37
sS'turn'
p523
I38
sS'saw'
p524
I37
sS'any'
p525
I36
sS'it\xe2\x80\x9d'
p526
I38
sS'tho'
p527
I38
sS'relationship'
p528
I38
sS'cayo'
p529
I38
sS'mythical'
p530
I38
sS'lil'
p531
I38
sS'-'
p532
I35
sS'omfg'
p533
I37
sS'take'
p534
I35
sS'doors'
p535
I38
sS'alienating'
p536
I38
sS'manana'
p537
I37
sS'korean'
p538
I38
sS'blunt'
p539
I38
sS"lotta'"
p540
I38
sS'play'
p541
I37
sS'daaaam'
p542
I38
sS'pain'
p543
I37
sS'kelly'
p544
I38
sS'tuve'
p545
I38
sS'though'
p546
I38
sS'knew'
p547
I38
sS'male'
p548
I38
sS'[official'
p549
I38
sS'y'
p550
I35
sS'nothing'
p551
I38
sS'11:11'
p552
I38
sS'why'
p553
I33
sS'doogie'
p554
I38
sS'refreshing'
p555
I38
sS'room'
p556
I38
sS'later'
p557
I38
sS'hungry'
p558
I36
sS'face'
p559
I36
sS'definitely'
p560
I38
sS'sunset'
p561
I38
sS'se'
p562
I38
sS'professional'
p563
I38
sS'latest'
p564
I38
sS'review'
p565
I38
sS'came'
p566
I36
sS'stones'
p567
I38
sS'walking'
p568
I36
sS'shot'
p569
I38
sS'show'
p570
I38
sS"'bless"
p571
I38
sS'b-r'
p572
I38
sS'heeeeee'
p573
I38
sS'bright'
p574
I37
sS'planning'
p575
I38
sS'battle'
p576
I38
sS'masks'
p577
I38
sS'nicelyyyyyyyyy'
p578
I38
sS'fear'
p579
I38
sS'font'
p580
I38
sS'fine'
p581
I38
sS'find'
p582
I38
sS'staff'
p583
I38
sS'blvd.\xe2\x80\xa6'
p584
I38
sS'trying'
p585
I38
sS'proposed'
p586
I38
sS'craziness'
p587
I38
sS'('
p588
I37
sS'18more'
p589
I38
sS'$4'
p590
I38
sS'outside'
p591
I38
sS'craving'
p592
I38
sS'only'
p593
I37
sS'going'
p594
I28
sS'18'
p595
I38
sS'pretty'
p596
I35
sS'desser'
p597
I38
sS'klearoxurworld818'
p598
I38
sS'handsome'
p599
I38
sS'truck)'
p600
I38
sS'congressional'
p601
I38
sS'first'
p602
I38
sS'porque'
p603
I38
sS'do'
p604
I36
sS"walkin'"
p605
I38
sS'his'
p606
I37
sS'dj'
p607
I38
sS'listened'
p608
I38
sS'watching'
p609
I36
sS'beat'
p610
I38
sS'dope'
p611
I38
sS'de'
p612
I32
sS'stop'
p613
I36
sS'pocket'
p614
I38
sS'tbh'
p615
I38
sS'awww'
p616
I38
sS'b'
p617
I38
sS'words'
p618
I38
sS'wedding'
p619
I37
sS'during'
p620
I38
sS'him'
p621
I38
sS'is'
p622
I17
sS'sal\xc3\xa9'
p623
I38
sS'estoy'
p624
I38
sS'5596'
p625
I38
sS'grille'
p626
I38
sS'officially'
p627
I38
sS'howser'
p628
I38
sS'married'
p629
I38
sS'disney'
p630
I38
sS'morning'
p631
I33
sS":')"
p632
I38
sS'bad'
p633
I36
sS'stupid'
p634
I36
sS'she'
p635
I35
sS'landlord'
p636
I38
sS'cre'
p637
I38
sS'sustainable'
p638
I38
sS"won't"
p639
I38
sS'archaeologist'
p640
I38
sS"everything's"
p641
I38
sS'diria'
p642
I38
sS'view'
p643
I37
sS'lyft'
p644
I38
sS'qts'
p645
I38
sS'w/'
p646
I36
sS'lemonade'
p647
I38
sS'ends'
p648
I38
sS'flip'
p649
I38
sS'edition'
p650
I38
sS'see'
p651
I34
sS'korea'
p652
I38
sS'asleep'
p653
I38
sS'are'
p654
I25
sS'sea'
p655
I38
sS'dragon'
p656
I38
sS'close'
p657
I38
sS'surgery'
p658
I38
sS'best'
p659
I35
sS'concern'
p660
I38
sS'dexter'
p661
I38
sS'said'
p662
I38
sS'farmers'
p663
I38
sS'pictures'
p664
I37
sS'away'
p665
I36
sS'please'
p666
I36
sS'morning..--good'
p667
I38
sS'prince'
p668
I38
sS'mr_razersharp'
p669
I38
sS'3'
p670
I38
sS'won'
p671
I38
sS'call'
p672
I38
sS'moving'
p673
I38
sS'knife'
p674
I38
sS's\xc3\xad'
p675
I38
sS'we'
p676
I31
sS'loose'
p677
I38
sS'omg'
p678
I37
sS'alum'
p679
I38
sS'fold'
p680
I38
sS's'
p681
I38
sS'dogging'
p682
I38
sS'boss'
p683
I37
sS'the\xe2\x80\xa6'
p684
I38
sS'here'
p685
I34
sS'wtf'
p686
I38
sS'news'
p687
I36
sS'condo'
p688
I38
sS'come'
p689
I36
sS'pissed'
p690
I38
sS'both'
p691
I38
sS'dates'
p692
I38
sS'feeling'
p693
I38
sS'last'
p694
I30
sS'met'
p695
I38
sS'many'
p696
I37
sS'taking'
p697
I37
sS'samaritan'
p698
I34
sS'ahora'
p699
I38
sS'dedicate'
p700
I38
sS'contract'
p701
I38
sS'pierdras'
p702
I38
sS'faces'
p703
I38
sS'collection'
p704
I38
sS'baseball'
p705
I38
sS'jello'
p706
I38
sS"can't"
p707
I36
sS'con'
p708
I35
sS'faggots'
p709
I38
sS'pre'
p710
I38
sS'liked'
p711
I38
sS'como'
p712
I38
sS'point'
p713
I38
sS'battery'
p714
I38
sS'demographic'
p715
I38
sS'ca'
p716
I36
sS'stuck'
p717
I38
sS'dudes'
p718
I38
sS'likes'
p719
I38
sS'sexy'
p720
I38
sS'fucker'
p721
I38
sS'currrrrves'
p722
I38
sS'heals'
p723
I38
sS'unearthed'
p724
I38
sS'watkins'
p725
I38
sS'speak'
p726
I38
sS'better'
p727
I37
sS'most'
p728
I38
sS'yay'
p729
I38
sS'cavities'
p730
I38
sS"it's"
p731
I30
sS'binge'
p732
I38
sS'urge'
p733
I38
sS'three'
p734
I38
sS'been'
p735
I35
sS'whos'
p736
I37
sS'much'
p737
I37
sS'punished'
p738
I38
sS'bby'
p739
I38
sS'expected'
p740
I38
sS'sesh'
p741
I38
sS'meeting'
p742
I38
sS'qu\xc3\xa9'
p743
I37
sS'threw'
p744
I36
sS'knight...\xe2\x80\xa6'
p745
I38
sS'life'
p746
I34
sS'shopping'
p747
I38
sS'monsieur'
p748
I38
sS'fire'
p749
I38
sS"what's"
p750
I38
sS'parilla)'
p751
I38
sS'else'
p752
I37
sS'kids'
p753
I38
sS'awake'
p754
I38
sS'-.-'
p755
I38
sS'smoking'
p756
I38
sS'brunch'
p757
I37
sS'haters'
p758
I38
sS'physician'
p759
I38
sS'dicks'
p760
I38
sS'hanzel'
p761
I38
sS'look'
p762
I37
sS'juice'
p763
I37
sS'these'
p764
I37
sS'straight'
p765
I38
sS'tengo'
p766
I38
sS'will'
p767
I37
sS'vicks'
p768
I38
sS'ratchet'
p769
I38
sS'surprised'
p770
I38
sS'country'
p771
I38
sS"wouldn't"
p772
I38
sS'periods'
p773
I38
sS'destinations'
p774
I38
sS'fool'
p775
I38
sS'annual'
p776
I38
sS'market)'
p777
I38
sS'almost'
p778
I37
sS'rubbing'
p779
I37
sS'ir'
p780
I38
sS'surprisingly'
p781
I37
sS'rip'
p782
I38
sS'demi'
p783
I38
sS'skipped'
p784
I38
sS'lakers'
p785
I38
sS'in'
p786
I15
sS'ready'
p787
I36
sS'ummm'
p788
I38
sS'pregnant\xe2\x80\x9d'
p789
I38
sS'son'
p790
I38
sS'voz'
p791
I38
sS'if'
p792
I36
sS'momma'
p793
I38
sS'bags'
p794
I38
sS'timemy'
p795
I38
sS'shirt'
p796
I36
sS'anymore'
p797
I38
sS'doctor'
p798
I37
sS'wearing'
p799
I38
sS'things'
p800
I34
sS'make'
p801
I32
sS'upside'
p802
I38
sS'trip'
p803
I38
sS'beside'
p804
I38
sS'food'
p805
I35
sS'cumpleanos'
p806
I38
sS'film'
p807
I38
sS'coworkers'
p808
I36
sS'shuttle'
p809
I38
sS'success'
p810
I38
sS'start'
p811
I38
sS'tomatoes'
p812
I38
sS'week'
p813
I34
sS'tiempo'
p814
I38
sS'used'
p815
I37
sS'temporary'
p816
I38
sS'7+fig'
p817
I38
sS'itch'
p818
I38
sS'lie'
p819
I38
sS'logic'
p820
I38
sS'driver'
p821
I38
sS'rain'
p822
I37
sS'camino'
p823
I38
sS'arrived'
p824
I37
sS'cousin'
p825
I38
sS'lol\xe2\x80\x9d'
p826
I38
sS'opinion'
p827
I38
sS'fucked'
p828
I37
sS'blues\xe2\x80\xa6'
p829
I38
sS'l.a'
p830
I37
sS"i'm"
p831
I11
sS'hahaha'
p832
I38
sS'kid'
p833
I37
sS'\xe2\x9c\x8c\xef\xb8\x8f'
p834
I38
sS'argue'
p835
I38
sS'off'
p836
I37
sS'\xe2\x9e\xa1\xef\xb8\x8f'
p837
I38
sS'older'
p838
I38
sS'i'
p839
I2
sS'charger'
p840
I38
sS'well'
p841
I36
sS'anybody'
p842
I38
sS'tuesdays'
p843
I38
sS'hago'
p844
I38
sS'thought'
p845
I36
sS'person'
p846
I37
sS'contact'
p847
I38
sS'pupusas'
p848
I38
sS'vean'
p849
I38
sS'landmark'
p850
I37
sS'the'
p851
I3
sS'hubby'
p852
I38
sS'left'
p853
I37
sS'load'
p854
I38
sS'pobre'
p855
I38
sS'they'
p856
I30
sS'just'
p857
I21
sS'less'
p858
I37
sS'being'
p859
I37
sS'able'
p860
I37
sS"should've"
p861
I38
sS'rest'
p862
I38
sS'pissing'
p863
I38
sS'kill'
p864
I38
sS'thanks'
p865
I37
sS'questions'
p866
I38
sS'behind'
p867
I38
sS'paul'
p868
I38
sS'praying'
p869
I38
sS'yet'
p870
I37
sS'wage'
p871
I38
sS'tables'
p872
I38
sS'helping'
p873
I38
sS'ads'
p874
I38
sS'candidate'
p875
I38
sS'dining'
p876
I25
sS'thinking'
p877
I38
sS'drunk'
p878
I38
sS'had'
p879
I38
sS'discuss'
p880
I38
sS'lets'
p881
I37
sS'pasadena'
p882
I37
sS'baalbek'
p883
I38
sS'recommend'
p884
I38
sS'sweet'
p885
I38
sS'shiii'
p886
I38
sS'has'
p887
I37
sS'totally'
p888
I38
sS'smart'
p889
I38
sS'mitaki'
p890
I37
sS'around'
p891
I38
sS'fate'
p892
I38
sS'big'
p893
I37
sS'couple'
p894
I38
sS"who's"
p895
I38
sS'sneeze'
p896
I38
sS'amd'
p897
I38
sS'gonna'
p898
I34
sS'early'
p899
I37
sS'shitty'
p900
I38
sS'orthopedic'
p901
I38
sS'five'
p902
I38
sS'know'
p903
I33
sS'mom'
p904
I36
sS'press'
p905
I38
sS'world'
p906
I38
sS'adams'
p907
I38
sS'ideas/tips'
p908
I38
sS'like'
p909
I31
sS'lost'
p910
I36
sS'hotel'
p911
I38
sS'irks'
p912
I38
sS'endevour'
p913
I38
sS'french'
p914
I38
sS'gangsters'
p915
I38
sS'true'
p916
I38
sS'(or'
p917
I38
sS'officer'
p918
I38
sS'night'
p919
I28
sS'osea'
p920
I38
sS'become'
p921
I38
sS'sign'
p922
I38
sS'framed'
p923
I38
sS'right'
p924
I31
sS'cisco'
p925
I38
sS'people'
p926
I33
sS'parilla'
p927
I36
sS'yolo'
p928
I38
sS'some'
p929
I33
sS'back'
p930
I36
sS'pacific'
p931
I25
sS'oh'
p932
I37
sS'teeth'
p933
I38
sS'brian'
p934
I38
sS'chocolate'
p935
I38
sS'learn'
p936
I38
sS'28th'
p937
I37
sS'dear'
p938
I38
sS'home'
p939
I35
sS'forgotten'
p940
I38
sS'leaders'
p941
I38
sS'viral'
p942
I38
sS'rodando'
p943
I38
sS'for'
p944
I6
sS'probection'
p945
I38
sS"o'"
p946
I38
sS'\xe2\x98\xba\xef\xb8\x8f\xe2\x9d\xa4\xef\xb8\x8f'
p947
I38
sS'exmother-in-law'
p948
I38
sS'wrong'
p949
I38
sS'everything'
p950
I37
sS'does'
p951
I38
sS'pee'
p952
I38
sS'month"'
p953
I38
sS'drink'
p954
I38
sS'be'
p955
I29
sS'eating'
p956
I36
sS'walking...walking...walking'
p957
I38
sS'quit'
p958
I38
sS'lmfao'
p959
I38
sS'camper'
p960
I38
sS'each'
p961
I38
sS'use'
p962
I38
sS'liners'
p963
I38
sS'casa'
p964
I38
sS'ache'
p965
I38
sS'exciting'
p966
I38
sS'jeezus'
p967
I38
sS'on'
p968
I22
sS'about'
p969
I34
sS':-)'
p970
I38
sS'lifestyle'
p971
I38
sS'working'
p972
I38
sS'8pm'
p973
I38
sS'getting'
p974
I35
sS'meow'
p975
I38
sS'of'
p976
I10
sS'plaza'
p977
I38
sS'favorite'
p978
I38
sS'o'
p979
I38
sS'angeles'
p980
I22
sS'dinner'
p981
I32
sS'swear'
p982
I38
sS'hueva'
p983
I38
sS'idk'
p984
I38
sS'referred'
p985
I38
sS'wanna'
p986
I35
sS'or'
p987
I36
sS'road'
p988
I38
sS'ppl'
p989
I38
sS'seeing'
p990
I38
sS'h8'
p991
I38
sS'own'
p992
I38
sS'managers'
p993
I38
sS'portrait'
p994
I38
sS'auntie'
p995
I38
sS'pussy'
p996
I38
sS'ahh'
p997
I37
sS'snapchat'
p998
I38
sS'democrat'
p999
I38
sS'down'
p1000
I37
sS'freaked'
p1001
I38
sS'appropriate'
p1002
I38
sS'nigga'
p1003
I37
sS'female'
p1004
I38
sS'mark'
p1005
I38
sS'your'
p1006
I29
sS'fast'
p1007
I38
sS'brownies'
p1008
I38
sS'her'
p1009
I32
sS'm.d'
p1010
I38
sS'esperando'
p1011
I38
sS'there'
p1012
I37
sS'gift'
p1013
I38
sS'long'
p1014
I35
sS'noticed'
p1015
I38
sS'fucking'
p1016
I36
sS'low'
p1017
I38
sS'way'
p1018
I36
sS'parrilla'
p1019
I37
sS'giseeelaurry'
p1020
I38
sS'valley'
p1021
I38
sS'was'
p1022
I28
sS'war'
p1023
I38
sS'happy'
p1024
I36
sS'fork'
p1025
I38
sS'head'
p1026
I36
sS'buy'
p1027
I38
sS'maintenance'
p1028
I38
sS'chatting'
p1029
I38
sS"i've"
p1030
I36
sS'signs'
p1031
I38
sS'bus'
p1032
I37
sS'till'
p1033
I38
sS'gorgeous'
p1034
I38
sS'phora'
p1035
I38
sS'but'
p1036
I24
sS'blvd'
p1037
I38
sS'heat'
p1038
I37
sS'hi'
p1039
I38
sS'sweet-off'
p1040
I38
sS'alive'
p1041
I38
sS'ha'
p1042
I37
sS'with'
p1043
I12
sS'eat'
p1044
I38
sS'he'
p1045
I31
sS'pull'
p1046
I37
sS'made'
p1047
I36
sS"wasn't"
p1048
I38
sS'wish'
p1049
I37
sS'up'
p1050
I24
sS'us'
p1051
I37
sS'until'
p1052
I38
sS"her'"
p1053
I38
sS'whiskey'
p1054
I36
sS'lagging'
p1055
I38
sS'un'
p1056
I38
sS'empty'
p1057
I38
sS'ridiculous-'
p1058
I38
sS'faded'
p1059
I38
sS'z'
p1060
I38
sS'similar'
p1061
I38
sS'temper'
p1062
I38
sS'x-ray'
p1063
I38
sS'expect'
p1064
I38
sS'castles'
p1065
I38
sS'gone'
p1066
I38
sS'strengthening'
p1067
I38
sS'ayyyyeeeeee'
p1068
I38
sS'deaths'
p1069
I38
sS'taste'
p1070
I38
sS'ah'
p1071
I38
sS'universal'
p1072
I38
sS'pic'
p1073
I38
sS'am'
p1074
I35
sS"you've"
p1075
I38
sS'an'
p1076
I30
sS'salir'
p1077
I38
sS'as'
p1078
I35
sS'rolling'
p1079
I38
sS'at'
p1080
I9
sS'chat'
p1081
I38
sS'ay'
p1082
I38
sS'annoying'
p1083
I38
sS'happen'
p1084
I36
sS'shit'
p1085
I35
sS'tea:-)'
p1086
I38
sS'again'
p1087
I38
sS'spell'
p1088
I38
sS'no'
p1089
I31
sS'video]'
p1090
I38
sS'edwards'
p1091
I38
sS'when'
p1092
I26
sS'40'
p1093
I38
sS'til'
p1094
I38
sS'field'
p1095
I38
sS'tio'
p1096
I37
sS'5'
p1097
I37
sS'es'
p1098
I38
sS'sick'
p1099
I37
sS'department'
p1100
I37
sS'you'
p1101
I7
sS'3-d'
p1102
I38
sS'prisa'
p1103
I38
sS'homeys'
p1104
I38
sS'24hours'
p1105
I38
sS"'s"
p1106
I38
sS'roomies'
p1107
I38
sS'hospital)'
p1108
I38
sS'class'
p1109
I38
sS'felt'
p1110
I38
sS'drift'
p1111
I38
sS'update'
p1112
I38
sS"let's"
p1113
I37
sS'babyyy'
p1114
I38
sS'bonding'
p1115
I38
sS'gon'
p1116
I38
sS'modelo'
p1117
I38
sS'kinda'
p1118
I37
sS'planners'
p1119
I38
sS'of\xe2\x80\xa6'
p1120
I38
sS'song'
p1121
I38
sS'aware'
p1122
I38
sS'weekend'
p1123
I37
sS'died'
p1124
I36
sS'missed'
p1125
I38
sS'minutes'
p1126
I38
sS'calls'
p1127
I37
sS"he's"
p1128
I37
sS"life's"
p1129
I38
sS'martin'
p1130
I38
sS'together'
p1131
I37
sS'original'
p1132
I38
sS"you'"
p1133
I38
sS'ted'
p1134
I38
sS'king'
p1135
I38
sS'u'
p1136
I36
sS"we're"
p1137
I38
sS'1000'
p1138
I38
sS'time'
p1139
I28
sS'far'
p1140
I38
sS"she's"
p1141
I38
sS'starting'
p1142
I38
sS'having'
p1143
I35
sS'hope'
p1144
I38
s.