(dp0
S''
p1
I1
sS'all'
p2
I20
sS'code'
p3
I33
sS'forget'
p4
I33
sS'switched'
p5
I33
sS'dance'
p6
I34
sS'blackson'
p7
I34
sS'dollar'
p8
I34
sS'leads'
p9
I34
sS'nicca'
p10
I34
sS'sleep'
p11
I34
sS'hanging'
p12
I34
sS'go'
p13
I25
sS'follow'
p14
I31
sS'gm'
p15
I34
sS':)'
p16
I34
sS'swag'
p17
I34
sS'biggest'
p18
I34
sS'graves'
p19
I34
sS'lyrics'
p20
I34
sS'tv'
p21
I34
sS'tweet'
p22
I34
sS'tu'
p23
I33
sS'young'
p24
I33
sS'send'
p25
I34
sS'to'
p26
I4
sS'themmmmm'
p27
I34
sS'shredding'
p28
I34
sS'permanently'
p29
I34
sS'saw'
p30
I34
sS'under'
p31
I34
sS'tf'
p32
I34
sS'caducidad'
p33
I34
sS'pride'
p34
I34
sS'weeks'
p35
I34
sS'brown'
p36
I34
sS'wished'
p37
I34
sS'worse'
p38
I34
sS'song'
p39
I29
sS'far'
p40
I32
sS'yayis'
p41
I34
sS'pablo'
p42
I34
sS'every'
p43
I34
sS'\xe2\x9a\xbe\xef\xb8\x8f\xe2\x9d\xa4\xef\xb8\x8f'
p44
I34
sS'80th'
p45
I34
sS'welcoming'
p46
I34
sS'ticket'
p47
I34
sS'exact'
p48
I34
sS'cool'
p49
I34
sS'school'
p50
I32
sS'bestfriend'
p51
I34
sS'level'
p52
I34
sS'loneliness'
p53
I34
sS'maarten'
p54
I34
sS'brother'
p55
I33
sS"mcd's"
p56
I34
sS'try'
p57
I34
sS'slaps'
p58
I34
sS'small'
p59
I34
sS'mundial'
p60
I34
sS'guy'
p61
I34
sS'yall'
p62
I33
sS'clothes'
p63
I34
sS'someday'
p64
I33
sS'work'
p65
I33
sS'neighborhood'
p66
I34
sS'regret'
p67
I33
sS'rhetorically'
p68
I34
sS'mi'
p69
I34
sS'boots'
p70
I34
sS'osvaldo'
p71
I34
sS'past'
p72
I33
sS'cuentan'
p73
I34
sS'colin'
p74
I34
sS'59%'
p75
I34
sS'huell'
p76
I33
sS'eating'
p77
I34
sS'machines'
p78
I34
sS'drinks'
p79
I34
sS'even'
p80
I30
sS'what'
p81
I30
sS'baddie'
p82
I34
sS'pretty/bad/sexy'
p83
I34
sS'youuu'
p84
I34
sS'rescue-fire'
p85
I34
sS'crush'
p86
I34
sS'twins'
p87
I33
sS'fuckk'
p88
I34
sS'above'
p89
I34
sS'new'
p90
I33
sS'ever'
p91
I32
sS'told'
p92
I33
sS'body'
p93
I33
sS'deportation'
p94
I34
sS'million'
p95
I34
sS'hero'
p96
I34
sS"c'mon"
p97
I34
sS'penis\xe2\x80\x9d'
p98
I34
sS'never'
p99
I27
sS'here'
p100
I32
sS'emeged'
p101
I34
sS'hours'
p102
I33
sS'exceptions'
p103
I34
sS'yeuppp'
p104
I34
sS'let'
p105
I33
sS'brooks'
p106
I34
sS'berkeley'
p107
I34
sS'alone'
p108
I34
sS'sexy'
p109
I34
sS'100'
p110
I34
sS'strong'
p111
I34
sS'change'
p112
I33
sS'violate'
p113
I34
sS'solid'
p114
I34
sS'great'
p115
I31
sS'kids'
p116
I34
sS"boi's"
p117
I34
sS'didnt'
p118
I34
sS'aardvark'
p119
I31
sS'laaaaagraaandiosamilputa'
p120
I34
sS'leaving'
p121
I34
sS'credit'
p122
I34
sS'crack'
p123
I34
sS"i'd"
p124
I34
sS'ako'
p125
I34
sS'pick'
p126
I33
sS'hbu'
p127
I34
sS'bunker'
p128
I30
sS"i'm"
p129
I27
sS'~'
p130
I34
sS'makes'
p131
I31
sS'honor'
p132
I34
sS'massage'
p133
I34
sS'thats'
p134
I31
sS'incarceration&'
p135
I34
sS'fantastic'
p136
I34
sS'love'
p137
I23
sS'morals'
p138
I34
sS'alotta'
p139
I34
sS'feelings'
p140
I34
sS'bro'
p141
I32
sS'till'
p142
I34
sS'wit'
p143
I33
sS'-love'
p144
I34
sS'thursday'
p145
I34
sS'hablas'
p146
I34
sS'gosh'
p147
I34
sS'market'
p148
I34
sS'yourself'
p149
I34
sS'use'
p150
I32
sS'from'
p151
I25
sS'would'
p152
I26
sS'&'
p153
I26
sS'nvr'
p154
I34
sS'visit'
p155
I33
sS'two'
p156
I32
sS'next'
p157
I34
sS'pleaseeee'
p158
I34
sS'few'
p159
I34
sS'ca)'
p160
I33
sS'doubt'
p161
I34
sS'music'
p162
I32
sS'gorgeous'
p163
I34
sS'thru'
p164
I33
sS'type'
p165
I32
sS'tell'
p166
I33
sS'today'
p167
I29
sS'more'
p168
I27
sS'tryna'
p169
I34
sS'relax'
p170
I34
sS'started'
p171
I33
sS'brothah'
p172
I34
sS'haha'
p173
I27
sS'hehe'
p174
I34
sS'hurt'
p175
I34
sS'downtown'
p176
I34
sS'ol'
p177
I34
sS'everywhere'
p178
I34
sS'hauser'
p179
I34
sS'broke'
p180
I34
sS'baby'
p181
I31
sS'karaoke'
p182
I34
sS'women'
p183
I33
sS'me'
p184
I9
sS'none'
p185
I34
sS'word'
p186
I33
sS'hour'
p187
I33
sS'niggas'
p188
I28
sS'this'
p189
I17
sS'car'
p190
I34
sS'oh'
p191
I32
sS'guy-the'
p192
I34
sS"'jackhole'"
p193
I34
sS'cat'
p194
I33
sS'can'
p195
I28
sS'following'
p196
I33
sS'making'
p197
I33
sS'personality'
p198
I34
sS'my'
p199
I8
sS'fettucini'
p200
I34
sS'history'
p201
I34
sS'beautiful'
p202
I34
sS'bittersweet'
p203
I34
sS'crazy'
p204
I33
sS'everyone'
p205
I34
sS'embarrassing'
p206
I34
sS'bent'
p207
I34
sS'al-fredo'
p208
I34
sS'give'
p209
I30
sS'process'
p210
I34
sS'awesome'
p211
I34
sS'abandonment'
p212
I34
sS'fuck'
p213
I27
sS'heartless'
p214
I34
sS'terrible'
p215
I34
sS'high'
p216
I34
sS'fronting'
p217
I34
sS'posing'
p218
I34
sS'something'
p219
I33
sS'want'
p220
I27
sS'spa'
p221
I34
sS'keep'
p222
I33
sS'dennis'
p223
I34
sS'end'
p224
I34
sS'rather'
p225
I34
sS'hoh'
p226
I34
sS'voy'
p227
I32
sS'machine'
p228
I34
sS'how'
p229
I26
sS'hot'
p230
I32
sS'boooo'
p231
I34
sS'hop'
p232
I34
sS'answer'
p233
I34
sS'white'
p234
I34
sS'audi'
p235
I34
sS"doesn't"
p236
I34
sS'suffer'
p237
I34
sS'b-)'
p238
I34
sS'okay'
p239
I34
sS'...(contd)'
p240
I34
sS'beauty'
p241
I34
sS'funny'
p242
I34
sS'db'
p243
I34
sS'advice'
p244
I34
sS'fed'
p245
I34
sS'lmfaoo'
p246
I34
sS'upload'
p247
I34
sS'marisela'
p248
I34
sS'mac'
p249
I34
sS'birthday'
p250
I31
sS'mad'
p251
I34
sS'nautika...awesommmmeeee.-check'
p252
I34
sS'hahahaha'
p253
I34
sS'such'
p254
I34
sS'guys'
p255
I32
sS'fm'
p256
I34
sS'man'
p257
I27
sS'a'
p258
I5
sS'tupac'
p259
I34
sS'queggori'
p260
I34
sS'hahahah'
p261
I34
sS'rollin'
p262
I34
sS"langer's"
p263
I33
sS'vibe'
p264
I34
sS'si'
p265
I34
sS'so'
p266
I16
sS'grande'
p267
I34
sS'classy'
p268
I34
sS'putting'
p269
I34
sS'dream'
p270
I34
sS'talk'
p271
I31
sS'wine'
p272
I34
sS'cute'
p273
I33
sS'naman'
p274
I34
sS"don't"
p275
I31
sS'over'
p276
I29
sS'soon'
p277
I34
sS'passin'
p278
I34
sS'isnt'
p279
I34
sS'aha'
p280
I34
sS'through'
p281
I33
sS'looks'
p282
I33
sS'fuccin'
p283
I34
sS'ma\xc3\xb1ana'
p284
I34
sS'cold'
p285
I34
sS'still'
p286
I28
sS'its'
p287
I24
sS'ima'
p288
I33
sS'needa'
p289
I34
sS'hendrix'
p290
I34
sS'thank'
p291
I32
sS'la'
p292
I22
sS'pray'
p293
I34
sS'mistletoe'
p294
I34
sS'amazing'
p295
I34
sS'actually'
p296
I34
sS'late'
p297
I32
sS'>>>'
p298
I34
sS'blackbook'
p299
I34
sS'communication'
p300
I34
sS'2014'
p301
I34
sS'bout'
p302
I34
sS'criminal'
p303
I34
sS'dad'
p304
I32
sS'then'
p305
I29
sS'them'
p306
I32
sS'good'
p307
I30
sS'somebody'
p308
I34
sS'yo'
p309
I32
sS'ya'
p310
I31
sS'it"'
p311
I34
sS'feelin'
p312
I33
sS'dat'
p313
I34
sS'9'
p314
I34
sS'roommate'
p315
I34
sS'fancy'
p316
I34
sS'they'
p317
I29
sS'hands'
p318
I34
sS'not'
p319
I29
sS'jaguar'
p320
I34
sS'now'
p321
I29
sS'day'
p322
I26
sS'ktown'
p323
I34
sS'nos'
p324
I34
sS'wont'
p325
I34
sS'name'
p326
I34
sS'kapernick'
p327
I34
sS'always'
p328
I30
sS"she's"
p329
I34
sS'drake'
p330
I33
sS'doesnt'
p331
I34
sS'desde'
p332
I34
sS'stekelenburg'
p333
I34
sS'andrew'
p334
I34
sS'rock'
p335
I34
sS'1am'
p336
I34
sS'injury'
p337
I34
sS'went'
p338
I34
sS'meal'
p339
I34
sS'luck'
p340
I34
sS'lie'
p341
I34
sS'en'
p342
I33
sS'62%'
p343
I34
sS'idek'
p344
I34
sS'doing'
p345
I33
sS'house'
p346
I34
sS'hard'
p347
I33
sS'yeah'
p348
I33
sS'eve'
p349
I34
sS'mufckas'
p350
I34
sS'taught'
p351
I34
sS'year'
p352
I32
sS'our'
p353
I33
sS'girl'
p354
I30
sS'bay'
p355
I34
sS'mamazita'
p356
I34
sS'out'
p357
I27
sS'large'
p358
I34
sS'gon'
p359
I34
sS'god'
p360
I30
sS'tried'
p361
I34
sS'since'
p362
I34
sS'rightttt'
p363
I34
sS'ricky'
p364
I34
sS'looking'
p365
I34
sS'acting'
p366
I34
sS'lotion*'
p367
I34
sS'smh'
p368
I33
sS'got'
p369
I27
sS'rn'
p370
I34
sS'cause'
p371
I31
sS'red'
p372
I34
sS'shows'
p373
I34
sS'ass'
p374
I31
sS'shut'
p375
I34
sS'drink'
p376
I34
sS'tienen'
p377
I33
sS'cars'
p378
I34
sS'friday'
p379
I33
sS'free'
p380
I34
sS'reason'
p381
I32
sS'"'
p382
I34
sS'que'
p383
I31
sS'asf'
p384
I33
sS'fatass'
p385
I34
sS'grandma'
p386
I34
sS'ask'
p387
I32
sS'mistress'
p388
I34
sS'gift'
p389
I34
sS'shot'
p390
I33
sS'care'
p391
I33
sS'could'
p392
I30
sS"woman's"
p393
I34
sS'days'
p394
I34
sS'times'
p395
I33
sS'thing'
p396
I34
sS'laundry'
p397
I34
sS'margaritas'
p398
I34
sS'matterrrrr'
p399
I34
sS'"bruh."\xe2\x80\x9d'
p400
I34
sS'first'
p401
I33
sS"y'all"
p402
I34
sS'major'
p403
I34
sS'finest'
p404
I34
sS'dont'
p405
I26
sS'feel'
p406
I28
sS'relate'
p407
I34
sS'flipping'
p408
I34
sS'xd'
p409
I33
sS'one'
p410
I29
sS'ocha'
p411
I34
sS'done'
p412
I34
sS'bitch'
p413
I28
sS'lagging'
p414
I33
sS'drones'
p415
I34
sS'sounds'
p416
I34
sS'miss'
p417
I32
sS'tomorrow'
p418
I29
sS'hood'
p419
I34
sS"you're"
p420
I31
sS'little'
p421
I32
sS'long'
p422
I33
sS'that......whats'
p423
I34
sS'leading'
p424
I34
sS'top'
p425
I34
sS'girls'
p426
I28
sS"how'd"
p427
I34
sS'grow'
p428
I34
sS'anyone'
p429
I34
sS'their'
p430
I32
sS'2'
p431
I34
sS'too'
p432
I32
sS'hollywood'
p433
I34
sS'circa'
p434
I34
sS'chimar'
p435
I34
sS'dogs'
p436
I34
sS'friend'
p437
I34
sS'insightful'
p438
I34
sS'bu-dus-sy'
p439
I34
sS'1886'
p440
I34
sS'shell'
p441
I34
sS'that'
p442
I10
sS'dtla'
p443
I34
sS'park'
p444
I34
sS'dirticow'
p445
I33
sS'rejected'
p446
I34
sS'slugs'
p447
I34
sS'because'
p448
I30
sS'butt'
p449
I34
sS'believe'
p450
I33
sS'herself'
p451
I34
sS'than'
p452
I31
sS'boyfriend'
p453
I33
sS'10'
p454
I33
sS'messing'
p455
I34
sS'lmao'
p456
I28
sS'bunkernightlife'
p457
I34
sS'heh'
p458
I33
sS'gotta'
p459
I31
sS'bed'
p460
I34
sS'final'
p461
I34
sS'pampered'
p462
I34
sS'future'
p463
I34
sS'were'
p464
I31
sS'opponent'
p465
I34
sS'sublime'
p466
I34
sS'konavle'
p467
I34
sS'and'
p468
I14
sS'twinkies'
p469
I34
sS'deciphering'
p470
I34
sS'false'
p471
I34
sS'shiddddddddd'
p472
I34
sS'"hole'
p473
I34
sS'overcomes'
p474
I34
sS'mind'
p475
I34
sS'juicy'
p476
I33
sS'jewels'
p477
I34
sS'sad'
p478
I34
sS'tonight'
p479
I33
sS'talking'
p480
I34
sS'say'
p481
I32
sS'hug'
p482
I34
sS'cholitos'
p483
I34
sS'have'
p484
I22
sS'need'
p485
I28
sS'crackhead'
p486
I34
sS'breakfast'
p487
I34
sS'philly'
p488
I33
sS'worst'
p489
I34
sS'coach'
p490
I34
sS'thought'
p491
I33
sS'nipples'
p492
I34
sS'noodles'
p493
I34
sS'dude'
p494
I33
sS'dancing'
p495
I34
sS'lil'
p496
I34
sS'also'
p497
I34
sS'chest'
p498
I34
sS'take'
p499
I31
sS'season'
p500
I34
sS'brace'
p501
I34
sS'conducive'
p502
I34
sS'towards'
p503
I34
sS'pain'
p504
I33
sS'though'
p505
I33
sS'moments-'
p506
I34
sS'rappers'
p507
I34
sS'knew'
p508
I33
sS'falls'
p509
I34
sS'experiences'
p510
I34
sS'voice*'
p511
I34
sS'why'
p512
I29
sS'grave'
p513
I34
sS'shucos'
p514
I34
sS'7am'
p515
I34
sS'peice'
p516
I34
sS'placement'
p517
I34
sS'metal'
p518
I33
sS'face'
p519
I34
sS"you'll"
p520
I34
sS'definitely'
p521
I34
sS'workspace'
p522
I34
sS'thot'
p523
I34
sS'wow'
p524
I34
sS'came'
p525
I33
sS'62nd'
p526
I34
sS'think'
p527
I34
sS'bomb'
p528
I33
sS'bul'
p529
I34
sS'letterpress'
p530
I30
sS'show'
p531
I33
sS'text'
p532
I33
sS'nominated'
p533
I34
sS'bring'
p534
I34
sS'chicken'
p535
I34
sS'asylum'
p536
I34
sS'fine'
p537
I34
sS'find'
p538
I34
sS'ground'
p539
I34
sS'aint'
p540
I33
sS'copy'
p541
I34
sS'jay'
p542
I34
sS'justice'
p543
I34
sS'('
p544
I33
sS'fecha'
p545
I34
sS'dick'
p546
I34
sS'state'
p547
I34
sS'appreciated'
p548
I34
sS'being'
p549
I34
sS'only'
p550
I30
sS'going'
p551
I30
sS'black'
p552
I33
sS'faith'
p553
I34
sS'pretty'
p554
I30
sS'photo'
p555
I34
sS'gangsta'
p556
I34
sS'libro'
p557
I34
sS'hope'
p558
I34
sS'loved'
p559
I33
sS'do'
p560
I22
sS'his'
p561
I32
sS'hit'
p562
I34
sS'goes'
p563
I34
sS'get'
p564
I17
sS'beat'
p565
I34
sS'de'
p566
I30
sS'watch'
p567
I32
sS'lucky'
p568
I34
sS'coast'
p569
I34
sS'tbh'
p570
I34
sS'ones'
p571
I34
sS'preparing'
p572
I34
sS'words'
p573
I34
sS'*i'
p574
I34
sS'dye'
p575
I34
sS'nasty'
p576
I34
sS"mii's"
p577
I34
sS'him'
p578
I34
sS'qr'
p579
I34
sS'bar'
p580
I32
sS'linotype'
p581
I34
sS'dissapoint'
p582
I34
sS'stranger'
p583
I34
sS'taxes'
p584
I34
sS'morning'
p585
I32
sS'sacrifices'
p586
I34
sS'chupar'
p587
I34
sS'bad'
p588
I31
sS'stupid'
p589
I29
sS'she'
p590
I18
sS'double'
p591
I34
sS"won't"
p592
I33
sS'where'
p593
I33
sS'>>>>>>'
p594
I34
sS'runn'
p595
I34
sS'insane'
p596
I34
sS'viva'
p597
I34
sS'set'
p598
I32
sS'art'
p599
I34
sS'w/'
p600
I34
sS'brake'
p601
I34
sS'lazy'
p602
I34
sS'sex'
p603
I34
sS'welcome'
p604
I34
sS"d's"
p605
I34
sS'see'
p606
I30
sS'toes'
p607
I34
sS'dumb'
p608
I34
sS'are'
p609
I25
sS'hoes'
p610
I34
sS'close'
p611
I34
sS'stalking'
p612
I34
sS'best'
p613
I33
sS'wonder'
p614
I34
sS'clips'
p615
I34
sS'said'
p616
I30
sS'starrrrrrr'
p617
I34
sS'visiting'
p618
I34
sS'movie'
p619
I34
sS'away'
p620
I33
sS'*michael'
p621
I34
sS'enough'
p622
I32
sS'finger'
p623
I34
sS':d'
p624
I34
sS'probably'
p625
I34
sS'rite'
p626
I34
sS'reading'
p627
I34
sS'whaaa'
p628
I34
sS'wide'
p629
I34
sS'bibi'
p630
I33
sS'we'
p631
I27
sS'nite'
p632
I34
sS'trynna'
p633
I34
sS'messed'
p634
I34
sS'suitcase'
p635
I34
sS'flow'
p636
I34
sS'guitar'
p637
I34
sS'job'
p638
I34
sS'complicate'
p639
I34
sS'coffee'
p640
I34
sS'(los'
p641
I33
sS'hurts'
p642
I34
sS'dedication'
p643
I34
sS'come'
p644
I29
sS'legit'
p645
I34
sS'ads'
p646
I34
sS'z'
p647
I34
sS'last'
p648
I28
sS'restaurant'
p649
I34
sS'many'
p650
I33
sS'taking'
p651
I33
sS'la.its'
p652
I34
sS'fuckkkkkkk'
p653
I34
sS'foreign'
p654
I34
sS'admit'
p655
I34
sS'takeover'
p656
I34
sS'lookin'
p657
I34
sS'swim'
p658
I34
sS'passing'
p659
I34
sS'whole'
p660
I33
sS'asked'
p661
I33
sS"can't"
p662
I31
sS"...i'm"
p663
I34
sS'pre'
p664
I34
sS'dm'
p665
I34
sS'sweet'
p666
I34
sS'ca'
p667
I34
sS'ayeee'
p668
I34
sS'whatever'
p669
I34
sS'walk'
p670
I34
sS'pole'
p671
I34
sS'mink'
p672
I34
sS'laugh'
p673
I34
sS'church'
p674
I33
sS'respect'
p675
I34
sS'blonde'
p676
I34
sS'trust'
p677
I34
sS'along'
p678
I34
sS'sunday'
p679
I34
sS'duh'
p680
I34
sS'better'
p681
I32
sS'havin'
p682
I34
sS"it's"
p683
I27
sS'bricked'
p684
I34
sS'coppin'
p685
I34
sS'lets'
p686
I34
sS'been'
p687
I28
sS'much'
p688
I34
sS'damn'
p689
I31
sS'pissed'
p690
I34
sS'bby'
p691
I34
sS'damm'
p692
I34
sS'lovely'
p693
I34
sS'ko'
p694
I34
sS'pinned'
p695
I34
sS'wants'
p696
I34
sS'life'
p697
I29
sS'sleeved'
p698
I34
sS'puberty'
p699
I34
sS'boy'
p700
I34
sS'with'
p701
I23
sS'tap'
p702
I34
sS'sunshine'
p703
I34
sS'yoloswaggie'
p704
I34
sS'else'
p705
I34
sS'djspm'
p706
I34
sS"'mode'"
p707
I34
sS'-.-'
p708
I33
sS'fish...i'
p709
I34
sS'46%'
p710
I34
sS'an'
p711
I34
sS'2017'
p712
I34
sS'those'
p713
I34
sS'djay_ross'
p714
I34
sS'myself'
p715
I32
sS'save'
p716
I32
sS'casa'
p717
I34
sS'look'
p718
I33
sS'unlike'
p719
I34
sS'these'
p720
I30
sS'bill'
p721
I34
sS'ahah'
p722
I34
sS'fux'
p723
I34
sS'n'
p724
I31
sS'will'
p725
I31
sS'cast'
p726
I34
sS'while'
p727
I34
sS'kara'
p728
I34
sS'suppose'
p729
I34
sS'hahaha'
p730
I33
sS'cats'
p731
I34
sS'study'
p732
I34
sS'errthang'
p733
I34
sS'ive'
p734
I32
sS'stop'
p735
I34
sS'losses'
p736
I34
sS'<3'
p737
I33
sS'almost'
p738
I33
sS'vivir'
p739
I34
sS'is'
p740
I12
sS'side'
p741
I34
sS'it'
p742
I8
sS'rip'
p743
I34
sS'dog...it'
p744
I34
sS'cant'
p745
I33
sS'someone'
p746
I33
sS'im'
p747
I22
sS'avi'
p748
I33
sS'in'
p749
I17
sS'ready'
p750
I34
sS'pics'
p751
I34
sS'everyday'
p752
I31
sS'if'
p753
I24
sS'h'
p754
I34
sS'tattoo'
p755
I34
sS'\xe2\x99\xa1\xe2\x99\xa1\xe2\x99\xa1'
p756
I34
sS'anymore'
p757
I34
sS'doctor'
p758
I34
sS'things'
p759
I33
sS'make'
p760
I31
sS'\xe2\x9d\xa4\xef\xb8\x8f'
p761
I34
sS'cross'
p762
I33
sS'same'
p763
I34
sS'linked'
p764
I34
sS'matthew'
p765
I34
sS'another'
p766
I34
sS'busted'
p767
I34
sS'denunciala'
p768
I34
sS'grand'
p769
I34
sS'lite'
p770
I34
sS'party'
p771
I32
sS'gets'
p772
I34
sS'yung'
p773
I34
sS'yooo'
p774
I34
sS'fuss'
p775
I34
sS'omg'
p776
I34
sS'paths'
p777
I34
sS'gallery'
p778
I34
sS'mufucka'
p779
I34
sS'effect'
p780
I34
sS'fucken'
p781
I34
sS'fucked'
p782
I33
sS'niggah'
p783
I34
sS'systm'
p784
I34
sS'thoughts'
p785
I34
sS"happenin'"
p786
I34
sS'daddyyyy'
p787
I34
sS'off'
p788
I33
sS'lunch'
p789
I34
sS'i'
p790
I2
sS'well'
p791
I30
sS'spent'
p792
I34
sS'grind'
p793
I34
sS'tho'
p794
I32
sS'quejas'
p795
I34
sS'bruuuh'
p796
I34
sS'lmaoo'
p797
I34
sS'comes'
p798
I34
sS'bottle'
p799
I34
sS'mother'
p800
I34
sS'y'
p801
I34
sS'hearts'
p802
I34
sS'the'
p803
I3
sS'smoked'
p804
I33
sS'spend'
p805
I34
sS'researchers'
p806
I34
sS'maxima'
p807
I34
sS'"hella"-much'
p808
I34
sS'4;30'
p809
I34
sS'kiss'
p810
I33
sS'just'
p811
I19
sS'yea'
p812
I33
sS'money'
p813
I34
sS'||'
p814
I33
sS'choreographer/dancer'
p815
I34
sS'sleepy'
p816
I32
sS'livin'
p817
I34
sS'seen'
p818
I34
sS'kill'
p819
I34
sS'thanks'
p820
I34
sS'behind'
p821
I34
sS'yes'
p822
I32
sS'yet'
p823
I33
sS'nuestro'
p824
I34
sS'hah'
p825
I34
sS'burns'
p826
I34
sS'hills'
p827
I34
sS'cup'
p828
I34
sS'thinking'
p829
I34
sS'hated'
p830
I34
sS'vida'
p831
I34
sS'seems'
p832
I33
sS'bullshit'
p833
I34
sS'traffic'
p834
I34
sS'cdfu'
p835
I33
sS'interested'
p836
I34
sS'ahhhh'
p837
I34
sS'4'
p838
I34
sS'soooooo'
p839
I34
sS'homies'
p840
I34
sS'hap'
p841
I34
sS'rossi'
p842
I34
sS'has'
p843
I29
sS'city'
p844
I33
sS'smart'
p845
I34
sS'gave'
p846
I33
sS'real'
p847
I33
sS'book'
p848
I34
sS'starving'
p849
I34
sS'followback'
p850
I34
sS'around'
p851
I34
sS'spectacular'
p852
I34
sS'big'
p853
I32
sS"who's"
p854
I34
sS'gonna'
p855
I31
sS'caps'
p856
I34
sS'dark'
p857
I34
sS'game'
p858
I32
sS'truely'
p859
I34
sS'antojitos'
p860
I33
sS'know'
p861
I27
sS'mom'
p862
I33
sS'world'
p863
I32
sS'bit'
p864
I34
sS'cd'
p865
I34
sS'goneee'
p866
I34
sS'dreams'
p867
I34
sS'd'
p868
I34
sS'knock'
p869
I34
sS'bama'
p870
I34
sS'like'
p871
I21
sS'lost'
p872
I33
sS'piece'
p873
I34
sS'background'
p874
I34
sS'arthur'
p875
I34
sS'nose'
p876
I34
sS'night'
p877
I30
sS'periods'
p878
I34
sS'become'
p879
I34
sS'response'
p880
I34
sS'fashoooo'
p881
I34
sS'nigga'
p882
I26
sS'old'
p883
I33
sS'often'
p884
I33
sS'joking'
p885
I34
sS'exposed'
p886
I34
sS'fucking'
p887
I31
sS'goddamn'
p888
I34
sS'some'
p889
I25
sS'back'
p890
I21
sS'alive'
p891
I34
sS'hair'
p892
I33
sS'mmmmm'
p893
I34
sS'mirror'
p894
I34
sS'home'
p895
I34
sS'funday'
p896
I34
sS'naaz'
p897
I34
sS'happens'
p898
I33
sS'txt'
p899
I34
sS'for'
p900
I15
sS'bottom'
p901
I33
sS'literally'
p902
I34
sS'nooo'
p903
I34
sS'moon'
p904
I34
sS'everything'
p905
I31
sS'prom'
p906
I34
sS'does'
p907
I32
sS'tener'
p908
I34
sS'boat'
p909
I34
sS'powerhouse'
p910
I34
sS'420'
p911
I34
sS'christmas'
p912
I34
sS't'
p913
I34
sS'be'
p914
I20
sS'who'
p915
I31
sS'run'
p916
I34
sS'business'
p917
I34
sS'lmaoooo'
p918
I34
sS'nails'
p919
I34
sS'rug'
p920
I34
sS'addicted'
p921
I34
sS'^_^'
p922
I34
sS'dices'
p923
I34
sS'chick'
p924
I34
sS'rock&roll'
p925
I34
sS'by'
p926
I30
sS'simpler'
p927
I34
sS'on'
p928
I11
sS'about'
p929
I30
sS':-)'
p930
I32
sS'zip'
p931
I34
sS'knowin'
p932
I34
sS'getting'
p933
I29
sS'people'
p934
I34
sS'of'
p935
I19
sS'gettin'
p936
I34
sS'cleans'
p937
I34
sS"la's"
p938
I34
sS'angeles'
p939
I29
sS'swear'
p940
I33
sS'minesssss'
p941
I34
sS'west'
p942
I34
sS'mixed'
p943
I34
sS'wanna'
p944
I32
sS'or'
p945
I28
sS'own'
p946
I32
sS'whats'
p947
I34
sS'anothers'
p948
I34
sS'pussy'
p949
I33
sS'blessed'
p950
I34
sS'down'
p951
I30
sS'playoff'
p952
I34
sS'right'
p953
I32
sS'promise'
p954
I34
sS'tiny'
p955
I34
sS'artists'
p956
I34
sS'amsterdam'
p957
I34
sS'couldnt'
p958
I34
sS'early'
p959
I34
sS'your'
p960
I24
sS'sinayaw'
p961
I34
sS'east'
p962
I34
sS'feded'
p963
I34
sS'.-'
p964
I34
sS'her'
p965
I33
sS'cali'
p966
I34
sS'weekend'
p967
I34
sS'there'
p968
I27
sS'live'
p969
I33
sS'lol'
p970
I6
sS'payment'
p971
I34
sS'lmfaooo'
p972
I34
sS'los'
p973
I31
sS'lonely'
p974
I34
sS'drank'
p975
I34
sS'mondays'
p976
I34
sS'way'
p977
I31
sS'bruh'
p978
I33
sS'forward'
p979
I34
sS'slowly'
p980
I34
sS'yrs'
p981
I34
sS'was'
p982
I21
sS'daniele'
p983
I34
sS'happy'
p984
I29
sS'typecasting'
p985
I34
sS"i've"
p986
I34
sS'bus'
p987
I33
sS'bitches'
p988
I34
sS'plgp'
p989
I34
sS'but'
p990
I18
sS'transsexual\xe2\x80\x9d'
p991
I34
sS'catchin'
p992
I34
sS'liquor'
p993
I34
sS'arranca'
p994
I34
sS'ahhh'
p995
I34
sS'true'
p996
I32
sS'he'
p997
I30
sS'football'
p998
I34
sS'made'
p999
I30
sS'stripper'
p1000
I34
sS'society'
p1001
I34
sS'inside'
p1002
I34
sS'j'
p1003
I33
sS'up'
p1004
I18
sS'us'
p1005
I32
sS'ur'
p1006
I33
sS'flirt'
p1007
I34
sS'lemme'
p1008
I34
sS'uo'
p1009
I34
sS'un'
p1010
I34
sS'blessings'
p1011
I34
sS'dmx'
p1012
I34
sS'neva'
p1013
I34
sS'loving'
p1014
I34
sS'called'
p1015
I34
sS'distance'
p1016
I34
sS'gone'
p1017
I34
sS'af'
p1018
I34
sS'upset'
p1019
I34
sS'pic'
p1020
I34
sS'am'
p1021
I25
sS'mike'
p1022
I34
sS'deep'
p1023
I34
sS'package'
p1024
I33
sS'as'
p1025
I33
sS'guessed'
p1026
I34
sS'at'
p1027
I24
sS'girlfriend'
p1028
I34
sS'ship'
p1029
I34
sS'shit'
p1030
I25
sS'physical'
p1031
I34
sS'again'
p1032
I34
sS'beyond'
p1033
I34
sS'faithful'
p1034
I34
sS'eventual'
p1035
I34
sS'no'
p1036
I27
sS'open'
p1037
I34
sS'deserve'
p1038
I33
sS'nah'
p1039
I34
sS'gorgeousssssssss'
p1040
I34
sS'when'
p1041
I27
sS'ng'
p1042
I34
sS'other'
p1043
I32
sS'5'
p1044
I34
sS'boom'
p1045
I34
sS'remarkable-enjoy-and'
p1046
I34
sS'papers'
p1047
I34
sS'mass'
p1048
I34
sS'you'
p1049
I7
sS'really'
p1050
I29
sS'smell'
p1051
I34
sS'talkin'
p1052
I34
sS'nice'
p1053
I32
sS'yungin'
p1054
I34
sS'reconsider'
p1055
I34
sS'hey'
p1056
I33
sS'bother'
p1057
I34
sS'a+'
p1058
I34
sS'felt'
p1059
I34
sS'stay'
p1060
I31
sS'chance'
p1061
I33
sS'to....hope'
p1062
I34
sS'smilee'
p1063
I34
sS'incompetent'
p1064
I34
sS'friends'
p1065
I34
sS'goin'
p1066
I34
sS'lang'
p1067
I34
sS'teeth'
p1068
I34
sS'boyfriends'
p1069
I34
sS'e'
p1070
I34
sS'yelp'
p1071
I34
sS'wife'
p1072
I34
sS"he's"
p1073
I34
sS'pocket"'
p1074
I34
sS'u'
p1075
I13
sS'fsu'
p1076
I34
sS'apart'
p1077
I34
sS'time'
p1078
I23
sS"ain't"
p1079
I34
sS'temporarily'
p1080
I34
sS'once'
p1081
I34
s.