(dp0
S''
p1
I1
sS'all'
p2
I25
sS'since'
p3
I28
sS':('
p4
I27
sS':)'
p5
I26
sS'pido'
p6
I28
sS'tongue...lol'
p7
I28
sS'felt'
p8
I28
sS'enjoyable'
p9
I28
sS'sequoia'
p10
I28
sS'hating'
p11
I28
sS'go'
p12
I25
sS'follow'
p13
I28
sS'strep'
p14
I28
sS'hate'
p15
I27
sS'"bachelor'
p16
I28
sS'apartment'
p17
I27
sS'yummy'
p18
I28
sS'paris'
p19
I28
sS'tu'
p20
I28
sS'to'
p21
I4
sS'charge'
p22
I28
sS'program'
p23
I28
sS'decir'
p24
I27
sS'teaching'
p25
I27
sS'sorry'
p26
I27
sS'te'
p27
I27
sS'worth'
p28
I28
sS'ta'
p29
I27
sS'me'
p30
I13
sS'becarefull'
p31
I28
sS'song'
p32
I28
sS'deli'
p33
I22
sS'continues'
p34
I28
sS'icant'
p35
I28
sS'gimmie'
p36
I28
sS'vegas'
p37
I23
sS'putting'
p38
I28
sS'grindn'
p39
I28
sS'fam'
p40
I28
sS'trippin'
p41
I28
sS'clouds'
p42
I28
sS'die'
p43
I28
sS'button'
p44
I28
sS'dia'
p45
I28
sS'try'
p46
I28
sS'<----'
p47
I28
sS'guy'
p48
I27
sS'"do'
p49
I28
sS'dis'
p50
I28
sS"i'll"
p51
I26
sS'olympic'
p52
I27
sS'angeles)'
p53
I26
sS'tired'
p54
I28
sS'tea'
p55
I28
sS'bacon'
p56
I28
sS'sippin'
p57
I28
sS'langers'
p58
I27
sS'jump'
p59
I28
sS'second'
p60
I28
sS'video'
p61
I25
sS'shirts'
p62
I28
sS'pass'
p63
I28
sS'7th'
p64
I26
sS'n'
p65
I21
sS'westcoast'
p66
I28
sS'others)'
p67
I24
sS'even'
p68
I28
sS'what'
p69
I28
sS'3x'
p70
I28
sS'posers'
p71
I28
sS"tonight's"
p72
I28
sS'delicatessen-restaurant'
p73
I11
sS'melt'
p74
I28
sS'waiting'
p75
I28
sS'new'
p76
I24
sS'6ft'
p77
I28
sS'ever'
p78
I28
sS'vamos'
p79
I28
sS'body'
p80
I28
sS'did\xe2\x98\xba\xef\xb8\x8f'
p81
I28
sS'never'
p82
I27
sS'(los'
p83
I24
sS'hours'
p84
I27
sS'\xe2\x9d\xa4\xef\xb8\x8f'
p85
I28
sS'packing'
p86
I28
sS'puede'
p87
I28
sS'kamu'
p88
I28
sS'others'
p89
I26
sS'dijistes'
p90
I28
sS'wait'
p91
I27
sS'great'
p92
I26
sS'tire'
p93
I28
sS'out\xe2\x80\x9d'
p94
I28
sS'shift'
p95
I28
sS'casino'
p96
I28
sS'37'
p97
I28
sS'pics'
p98
I28
sS'imma'
p99
I28
sS'smoke'
p100
I28
sS'"early'
p101
I28
sS"i'm"
p102
I13
sS'explain'
p103
I28
sS'ambulances'
p104
I28
sS'love'
p105
I18
sS'apple'
p106
I28
sS'logical'
p107
I28
sS'bro'
p108
I26
sS'till'
p109
I28
sS'wit'
p110
I27
sS'fam\xe2\x80\x9d'
p111
I28
sS'fake'
p112
I28
sS'buenas'
p113
I28
sS'txt'
p114
I28
sS"tip!...i'm"
p115
I28
sS'everybody'
p116
I28
sS'use'
p117
I28
sS'hahahahaha'
p118
I27
sS'from'
p119
I23
sS'perf'
p120
I28
sS'would'
p121
I27
sS'&'
p122
I25
sS'spontaneous'
p123
I28
sS'twn'
p124
I28
sS'dudes'
p125
I28
sS'zedd'
p126
I28
sS'few'
p127
I26
sS'live'
p128
I27
sS'call'
p129
I28
sS'6'
p130
I27
sS'tell'
p131
I28
sS'today'
p132
I27
sS'more'
p133
I27
sS'popped'
p134
I28
sS'females'
p135
I28
sS'posting'
p136
I28
sS'marillano'
p137
I28
sS'gettina'
p138
I28
sS'club'
p139
I28
sS'haha'
p140
I27
sS'gucci'
p141
I28
sS'hurt'
p142
I28
sS'espero'
p143
I28
sS'train'
p144
I28
sS"ain't"
p145
I27
sS'lord'
p146
I27
sS'sobol='
p147
I28
sS'glad'
p148
I28
sS'tonsillitis'
p149
I28
sS'shoot'
p150
I26
sS'ma'
p151
I28
sS'anything'
p152
I28
sS'hour'
p153
I28
sS'niggas'
p154
I27
sS'this'
p155
I13
sS'mo'
p156
I28
sS'work'
p157
I23
sS'mi'
p158
I24
sS'niggaz'
p159
I28
sS'cat'
p160
I28
sS'!**'
p161
I28
sS'can'
p162
I26
sS'sacas'
p163
I28
sS'inbox\xe2\x80\x9d'
p164
I28
sS'meet'
p165
I28
sS'my'
p166
I7
sS'def'
p167
I28
sS'pick'
p168
I28
sS'everyone'
p169
I28
sS'fucc'
p170
I28
sS'figure'
p171
I28
sS'give'
p172
I28
sS'leas.amino'
p173
I28
sS"didn't"
p174
I28
sS'fuck'
p175
I26
sS'dueto'
p176
I28
sS'heels'
p177
I28
sS'his'
p178
I28
sS'something'
p179
I28
sS'spn'
p180
I28
sS'..stupid'
p181
I28
sS'hit'
p182
I28
sS'needs'
p183
I28
sS'hoe'
p184
I27
sS'caption'
p185
I28
sS'rather'
p186
I28
sS'igpeeps'
p187
I28
sS'means'
p188
I27
sS'range'
p189
I28
sS'how'
p190
I26
sS'hot'
p191
I26
sS'alvarado'
p192
I26
sS'**save'
p193
I28
sS'audi'
p194
I28
sS'beach'
p195
I28
sS'pizza'
p196
I28
sS'"okkkaaaayyyyy"'
p197
I28
sS'especial'
p198
I28
sS'sandwich'
p199
I27
sS'okay'
p200
I28
sS'bday'
p201
I28
sS'stop'
p202
I28
sS'splitarillo'
p203
I27
sS'after'
p204
I27
sS'mac'
p205
I28
sS'birthday'
p206
I28
sS'mad'
p207
I28
sS'coming'
p208
I27
sS'date'
p209
I28
sS'salsa'
p210
I27
sS'man'
p211
I27
sS'a'
p212
I5
sS"langer's"
p213
I6
sS'q'
p214
I24
sS'si'
p215
I26
sS'so'
p216
I20
sS'shoppin'
p217
I28
sS'suerte'
p218
I23
sS'gerard'
p219
I28
sS'well...hot'
p220
I28
sS'egg'
p221
I28
sS'ahoot'
p222
I28
sS'eiffel'
p223
I28
sS'rye'
p224
I28
sS'mexican'
p225
I28
sS'help'
p226
I26
sS"don't"
p227
I26
sS'move'
p228
I28
sS'sooo'
p229
I28
sS'soon'
p230
I28
sS'years'
p231
I28
sS'bcuz'
p232
I28
sS'brain'
p233
I28
sS'house...and'
p234
I28
sS'through'
p235
I28
sS'wud'
p236
I28
sS'hell'
p237
I26
sS'its'
p238
I28
sS'bummed'
p239
I28
sS'style'
p240
I28
sS'le'
p241
I27
sS'thank'
p242
I25
sS'curly'
p243
I28
sS'la'
p244
I22
sS'lo'
p245
I27
sS'twistin'
p246
I28
sS'amazing'
p247
I26
sS'[pic]'
p248
I28
sS'better'
p249
I28
sS'shifts'
p250
I28
sS'gts'
p251
I28
sS'time!\xe2\x80\xa6'
p252
I28
sS'bout'
p253
I27
sS'might'
p254
I28
sS'mmmhmmmm'
p255
I28
sS"haven't"
p256
I28
sS'dad'
p257
I27
sS'then'
p258
I27
sS'them'
p259
I27
sS'good'
p260
I20
sS'ommmggg'
p261
I28
sS'thrones'
p262
I28
sS'food'
p263
I26
sS'thee'
p264
I28
sS'earn'
p265
I28
sS'\xc2\xa1entra'
p266
I26
sS'feelin'
p267
I28
sS'break'
p268
I27
sS'lunch'
p269
I23
sS'they'
p270
I27
sS'party'
p271
I28
sS'not'
p272
I25
sS'ninja'
p273
I27
sS'now'
p274
I25
sS'yu'
p275
I28
sS'day'
p276
I26
sS'delicatessen'
p277
I28
sS'stinking'
p278
I28
sS'always'
p279
I28
sS'm\xc3\xa1s'
p280
I18
sS'fitness'
p281
I27
sS'cashmere'
p282
I28
sS'went'
p283
I27
sS'meal'
p284
I28
sS"isn't"
p285
I28
sS'cerveza'
p286
I28
sS'el'
p287
I15
sS'brews'
p288
I28
sS'en'
p289
I25
sS'delicious'
p290
I27
sS'reel'
p291
I28
sS'house'
p292
I28
sS'hard'
p293
I28
sS'yeah'
p294
I28
sS'brother'
p295
I28
sS'impossible'
p296
I28
sS'our'
p297
I26
sS'beyond'
p298
I28
sS'salads'
p299
I28
sS'out'
p300
I17
sS'peleando'
p301
I28
sS'999bigchief999'
p302
I28
sS'miss'
p303
I28
sS'2302'
p304
I28
sS'looking'
p305
I24
sS'acting'
p306
I28
sS'ra'
p307
I28
sS'smh'
p308
I28
sS'got'
p309
I24
sS'cuhz'
p310
I28
sS'shows'
p311
I28
sS'ass'
p312
I28
sS'shut'
p313
I28
sS'bakman'
p314
I28
sS'o.o'
p315
I28
sS'la*'
p316
I28
sS'blunder'
p317
I28
sS'forgive'
p318
I28
sS'sarah'
p319
I28
sS'mmm'
p320
I28
sS'woooah'
p321
I28
sS'masterpiece'
p322
I28
sS'que'
p323
I26
sS'colony'
p324
I28
sS'wanted'
p325
I28
sS'ate'
p326
I28
sS'*drives'
p327
I28
sS'punk'
p328
I28
sS'days'
p329
I28
sS'keep'
p330
I26
sS'filter'
p331
I28
sS'thing'
p332
I26
sS'offtop'
p333
I27
sS'outsleep'
p334
I28
sS'circle...or'
p335
I28
sS'vegass'
p336
I28
sS'dejo'
p337
I28
sS"alright...y'all"
p338
I28
sS'brewnbluntz'
p339
I28
sS'think'
p340
I27
sS'feed'
p341
I28
sS'mucha'
p342
I23
sS'embraces'
p343
I28
sS'already'
p344
I28
sS'feel'
p345
I27
sS'taco'
p346
I28
sS'westlake'
p347
I25
sS'number'
p348
I27
sS'xd'
p349
I28
sS'one'
p350
I21
sS'soaring'
p351
I28
sS'felicidades'
p352
I28
sS'another'
p353
I27
sS'mah'
p354
I28
sS'here...oh'
p355
I28
sS'htc'
p356
I28
sS'cups'
p357
I28
sS'open'
p358
I28
sS'tomorrow'
p359
I27
sS'hood'
p360
I28
sS"you're"
p361
I27
sS'guess'
p362
I28
sS'llegar'
p363
I28
sS'interviews'
p364
I28
sS'girls'
p365
I28
sS'least'
p366
I27
sS'needed'
p367
I28
sS'weird...or'
p368
I28
sS'2'
p369
I25
sS'ton'
p370
I28
sS'too'
p371
I26
sS'nlng'
p372
I28
sS'wrapped'
p373
I28
sS'white'
p374
I28
sS'las'
p375
I23
sS'friend'
p376
I28
sS'briton'
p377
I28
sS'hug'
p378
I28
sS'lot'
p379
I27
sS'relationship'
p380
I28
sS'that'
p381
I14
sS'funa'
p382
I28
sS'season'
p383
I28
sS'hotel'
p384
I27
sS'park'
p385
I26
sS'mmmm'
p386
I28
sS'politeness'
p387
I28
sS'dentist'
p388
I28
sS'part'
p389
I28
sS'appointment....erica'
p390
I28
sS'on2'
p391
I28
sS'$5'
p392
I28
sS'$2'
p393
I28
sS'than'
p394
I28
sS'bebe'
p395
I28
sS'*\xe0\xb9\x88'
p396
I27
sS'grillin'
p397
I28
sS'16'
p398
I28
sS'19'
p399
I28
sS'double'
p400
I28
sS'hoooooooooooooooollllla'
p401
I28
sS'ocean\xe2\x80\xa6'
p402
I28
sS'bed'
p403
I27
sS'boi"'
p404
I28
sS'future'
p405
I28
sS'flame'
p406
I28
sS'incarceration'
p407
I28
sS'were'
p408
I27
sS'sister'
p409
I28
sS'feeling'
p410
I27
sS'muaxhin'
p411
I28
sS'and'
p412
I14
sS'outta'
p413
I26
sS'4pm...oh'
p414
I28
sS'hoes'
p415
I28
sS'mind'
p416
I28
sS'verdades'
p417
I28
sS'tonight'
p418
I24
sS'guapo'
p419
I18
sS'have'
p420
I24
sS'need'
p421
I25
sS'crew'
p422
I28
sS'st'
p423
I23
sS'any'
p424
I27
sS'option'
p425
I28
sS'thought'
p426
I28
sS'kusk'
p427
I28
sS'poner'
p428
I28
sS'burnin'
p429
I27
sS'once'
p430
I28
sS'lil'
p431
I27
sS'blanca'
p432
I28
sS'self'
p433
I28
sS'chief'
p434
I28
sS'note'
p435
I28
sS'omfg'
p436
I28
sS'take'
p437
I26
sS';-/'
p438
I28
sS'truck'
p439
I28
sS'korean'
p440
I28
sS'butterfly'
p441
I28
sS'exactly'
p442
I28
sS'pain'
p443
I28
sS'noches'
p444
I28
sS'^^'
p445
I28
sS'deli)'
p446
I28
sS'huh'
p447
I28
sS'doin'
p448
I28
sS'who'
p449
I23
sS'shyt'
p450
I27
sS'6-day'
p451
I28
sS'fountains'
p452
I28
sS'tall'
p453
I28
sS'awe'
p454
I28
sS'extremely'
p455
I28
sS'why'
p456
I26
sS'don'
p457
I28
sS'especially'
p458
I28
sS'boys'
p459
I28
sS'flor'
p460
I28
sS'average'
p461
I28
sS'dog'
p462
I28
sS'girls>>>>'
p463
I28
sS"you'll"
p464
I28
sS'near'
p465
I28
sS'aunt'
p466
I28
sS'se'
p467
I28
sS'link'
p468
I28
sS'everrr'
p469
I28
sS'shoutout'
p470
I28
sS'saying'
p471
I28
sS'mk'
p472
I28
sS'choreo'
p473
I28
sS'show'
p474
I26
sS'text'
p475
I28
sS"mama's"
p476
I27
sS'corned'
p477
I28
sS'pops'
p478
I28
sS'bring'
p479
I28
sS'choreograph'
p480
I28
sS'toots32\xe2\x80\xa6'
p481
I28
sS'nevada'
p482
I25
sS'find'
p483
I28
sS'this...rt'
p484
I28
sS'slot'
p485
I28
sS'\xe2\x9c\x8c'
p486
I20
sS'serio'
p487
I28
sS'callejones'
p488
I28
sS'nga'
p489
I28
sS'zumba'
p490
I28
sS'('
p491
I27
sS'ruin'
p492
I28
sS'lmao'
p493
I28
sS'behind'
p494
I28
sS'bug'
p495
I28
sS'only'
p496
I24
sS'going'
p497
I25
sS'gear\xe2\x80\x9d'
p498
I28
sS'hope'
p499
I28
sS'wearing'
p500
I28
sS'do'
p501
I26
sS'dm'
p502
I27
sS'workin'
p503
I28
sS'pastrami'
p504
I21
sS'get'
p505
I21
sS'rhe'
p506
I28
sS'de'
p507
I25
sS'watch'
p508
I28
sS'rush'
p509
I28
sS'trees'
p510
I28
sS'da'
p511
I27
sS'tbh'
p512
I28
sS'gustaria'
p513
I28
sS'cannot'
p514
I28
sS'perfection'
p515
I28
sS'poutine'
p516
I28
sS'him'
p517
I28
sS'pwdi'
p518
I28
sS'ghetto'
p519
I28
sS'processes'
p520
I28
sS'artist'
p521
I28
sS'plugs!\xe2\x80\xa6'
p522
I28
sS'guadalupe'
p523
I28
sS'hills'
p524
I28
sS'watched'
p525
I28
sS'attitude'
p526
I28
sS'worried'
p527
I28
sS"somebody's"
p528
I28
sS'subnormales'
p529
I28
sS'she'
p530
I28
sS'scott'
p531
I28
sS'movement'
p532
I28
sS'where'
p533
I24
sS'gotta'
p534
I28
sS'bulgaria'
p535
I28
sS"y'all"
p536
I27
sS'set'
p537
I27
sS'ser'
p538
I28
sS'choreographer'
p539
I26
sS'w/'
p540
I21
sS'national'
p541
I28
sS'pitch'
p542
I28
sS'step"'
p543
I28
sS'choreographed'
p544
I28
sS'atill'
p545
I28
sS'see'
p546
I24
sS'sed'
p547
I28
sS'are'
p548
I22
sS'langers...consume'
p549
I28
sS'close'
p550
I28
sS'angie'
p551
I28
sS'becaus'
p552
I28
sS'retweet'
p553
I28
sS'best'
p554
I25
sS'wonder'
p555
I28
sS'whatup'
p556
I28
sS'tamales'
p557
I27
sS'stuck'
p558
I28
sS'wow'
p559
I26
sS'please'
p560
I27
sS'label'
p561
I27
sS'lagrimas'
p562
I28
sS'cafe)'
p563
I28
sS'3'
p564
I28
sS"there's"
p565
I28
sS'serfin'
p566
I28
sS'silly'
p567
I28
sS'tux'
p568
I28
sS'perfect'
p569
I28
sS'we'
p570
I23
sS'pad"'
p571
I28
sS'omg'
p572
I27
sS'august'
p573
I28
sS'lettin'
p574
I28
sS'weak'
p575
I26
sS'fabor'
p576
I28
sS'here'
p577
I27
sS'coma'
p578
I28
sS'news'
p579
I28
sS'improve'
p580
I28
sS'last'
p581
I27
sS'reverse'
p582
I28
sS'limits'
p583
I28
sS'brat'
p584
I28
sS'many'
p585
I27
sS'ill'
p586
I25
sS"he's"
p587
I28
sS'fags'
p588
I28
sS'contract'
p589
I28
sS'etc'
p590
I28
sS's'
p591
I26
sS'duh\xe2\x80\x9d'
p592
I28
sS'buzy'
p593
I28
sS'quien'
p594
I28
sS'murder'
p595
I28
sS'whole'
p596
I27
sS'asked'
p597
I28
sS"can't"
p598
I27
sS'con'
p599
I25
sS'suggest'
p600
I28
sS'celebration'
p601
I28
sS'cc'
p602
I28
sS'sky'
p603
I28
sS'tuesday'
p604
I28
sS'siguen'
p605
I28
sS'por'
p606
I24
sS'amazingly'
p607
I28
sS'weeplez'
p608
I28
sS'walk'
p609
I28
sS"couldn't"
p610
I27
sS'church'
p611
I28
sS'table'
p612
I28
sS'trust'
p613
I28
sS'points'
p614
I28
sS'belt'
p615
I28
sS'sensible'
p616
I28
sS'beef'
p617
I28
sS'union'
p618
I28
sS"it's"
p619
I23
sS'create'
p620
I28
sS'vacation'
p621
I28
sS'been'
p622
I24
sS'damn'
p623
I28
sS'know;)'
p624
I28
sS'reality/competition'
p625
I28
sS'meeting'
p626
I28
sS'woke'
p627
I28
sS'treatment'
p628
I27
sS'kathy'
p629
I28
sS'life'
p630
I28
sS'rodean'
p631
I28
sS'...at'
p632
I28
sS'drugs'
p633
I28
sS"what's"
p634
I27
sS'sooooo'
p635
I28
sS'else'
p636
I28
sS'finished'
p637
I28
sS'theze'
p638
I28
sS'puedes'
p639
I28
sS'aqui'
p640
I28
sS'brunch'
p641
I28
sS'niga'
p642
I28
sS'chill'
p643
I28
sS'case'
p644
I28
sS'myself'
p645
I27
sS'sly'
p646
I28
sS'licuado'
p647
I28
sS'these'
p648
I28
sS'straight'
p649
I28
sS'convo'
p650
I28
sS'as'
p651
I27
sS're:britain'
p652
I28
sS'2wks'
p653
I28
sS'will'
p654
I26
sS'while'
p655
I28
sS'diverse'
p656
I28
sS'fun'
p657
I28
sS'coolest'
p658
I28
sS'pack'
p659
I28
sS'iz'
p660
I28
sS'ho\xe2\x80\x9dboom'
p661
I28
sS'adreas'
p662
I28
sS'mexico'
p663
I28
sS'embrassing'
p664
I28
sS'is'
p665
I12
sS'hazlo'
p666
I26
sS'it'
p667
I19
sS'estos'
p668
I28
sS'cant'
p669
I28
sS'someone'
p670
I28
sS'im'
p671
I23
sS'in'
p672
I12
sS'ready'
p673
I27
sS"haha...ann's"
p674
I28
sS'id'
p675
I28
sS'if'
p676
I28
sS'"gotchu'
p677
I28
sS'beatz'
p678
I28
sS'beats'
p679
I28
sS'doctor'
p680
I28
sS'acabo'
p681
I26
sS'ya'
p682
I24
sS'fo'
p683
I28
sS'...shes'
p684
I28
sS'bein'
p685
I28
sS'todos'
p686
I28
sS'twice.\xe2\x80\x9d'
p687
I28
sS'used'
p688
I28
sS'fuken'
p689
I28
sS'flooded'
p690
I28
sS'drink'
p691
I25
sS'carolynthebrown'
p692
I28
sS'fucken'
p693
I28
sS'clippers'
p694
I28
sS'fam"'
p695
I28
sS'single'
p696
I28
sS'kid'
p697
I27
sS'hacer'
p698
I28
sS'posted'
p699
I28
sS'off'
p700
I28
sS'nippy'
p701
I28
sS'i'
p702
I3
sS'well'
p703
I27
sS'fighting'
p704
I28
sS'tho'
p705
I26
sS'rome'
p706
I28
sS'y'
p707
I24
sS'position'
p708
I28
sS'the'
p709
I2
sS'bumping'
p710
I28
sS'left'
p711
I28
sS'mcarther'
p712
I28
sS'ny'
p713
I28
sS'choreography'
p714
I28
sS'mentally'
p715
I28
sS'kiss'
p716
I28
sS'just'
p717
I20
sS'being'
p718
I27
sS'photo'
p719
I27
sS'penso'
p720
I28
sS'$'
p721
I28
sS"orion's"
p722
I28
sS'verdad'
p723
I28
sS'thanks'
p724
I20
sS'dese'
p725
I28
sS'facts'
p726
I28
sS'yes'
p727
I28
sS'yet'
p728
I28
sS'cuides'
p729
I28
sS'ham'
p730
I28
sS'generator'
p731
I28
sS'their'
p732
I28
sS'had'
p733
I27
sS'snag'
p734
I28
sS'googling'
p735
I28
sS'shout'
p736
I28
sS'4'
p737
I26
sS'lacounty_kmg365'
p738
I28
sS'prison'
p739
I28
sS'ventud'
p740
I28
sS'letz'
p741
I28
sS'gave'
p742
I27
sS"good...nobody's"
p743
I28
sS'around'
p744
I26
sS'big'
p745
I27
sS'bowling'
p746
I28
sS'possible'
p747
I28
sS'gonna'
p748
I25
sS'early'
p749
I27
sS'bailey'
p750
I28
sS'game'
p751
I28
sS'five'
p752
I28
sS'know'
p753
I26
sS'mom'
p754
I28
sS'30'
p755
I28
sS'world'
p756
I28
sS'2nd'
p757
I28
sS'flirtatiousness'
p758
I28
sS'projects'
p759
I28
sS'artists'
p760
I28
sS'incredibly'
p761
I28
sS'macarthur'
p762
I28
sS'like'
p763
I25
sS'flight'
p764
I28
sS'"i\'m'
p765
I28
sS'arthur'
p766
I28
sS'laughing'
p767
I28
sS'night'
p768
I26
sS'beverly'
p769
I28
sS'become'
p770
I28
sS'tower'
p771
I27
sS'nigga'
p772
I27
sS'people'
p773
I26
sS'scared'
p774
I28
sS'some'
p775
I24
sS'back'
p776
I26
sS'competition'
p777
I28
sS'hair'
p778
I28
sS'sure'
p779
I28
sS'kbbq'
p780
I28
sS'"we'
p781
I28
sS'dear'
p782
I28
sS'playin'
p783
I26
sS'liking'
p784
I28
sS'classes'
p785
I28
sS'groggy'
p786
I28
sS'ago'
p787
I28
sS'for'
p788
I9
sS'ibchuy'
p789
I28
sS'when'
p790
I22
sS'low3'
p791
I28
sS'sweepstakes'
p792
I28
sS'bellagio'
p793
I28
sS'cheese'
p794
I28
sS'be'
p795
I23
sS'missin'
p796
I28
sS'eating'
p797
I28
sS'ba'
p798
I28
sS'location'
p799
I28
sS'ultimo'
p800
I28
sS'nails'
p801
I28
sS'rock'
p802
I28
sS'fatigue.........get'
p803
I28
sS'burt'
p804
I28
sS'sandwiches'
p805
I28
sS';)'
p806
I28
sS'exciting'
p807
I28
sS'finding'
p808
I28
sS'by'
p809
I27
sS'8-9pm'
p810
I28
sS'plug'
p811
I28
sS'on'
p812
I16
sS'about'
p813
I27
sS'snoop'
p814
I28
sS'favorito'
p815
I26
sS'6am'
p816
I28
sS'of'
p817
I16
sS'ids'
p818
I28
sS'nightclub'
p819
I28
sS'angeles'
p820
I23
sS'dinner'
p821
I28
sS'(m8)'
p822
I28
sS'plus'
p823
I28
sS'sabay'
p824
I28
sS'wanna'
p825
I27
sS'or'
p826
I28
sS'road'
p827
I28
sS'ppl'
p828
I28
sS'enough'
p829
I28
sS'into'
p830
I27
sS'definitely'
p831
I28
sS'oui'
p832
I28
sS'soo'
p833
I28
sS'getting'
p834
I28
sS'down'
p835
I28
sS'thankful'
p836
I28
sS'juicing'
p837
I28
sS'weather'
p838
I27
sS'cent'
p839
I28
sS'heated'
p840
I28
sS'next'
p841
I28
sS'your'
p842
I26
sS'stare'
p843
I28
sS'her'
p844
I26
sS'(704'
p845
I26
sS'ruined'
p846
I28
sS'there'
p847
I25
sS'question'
p848
I28
sS'ca)'
p849
I23
sS'lol'
p850
I21
sS'class'
p851
I28
sS'jewish'
p852
I28
sS'los'
p853
I23
sS'addicting'
p854
I28
sS'way'
p855
I27
sS'forward'
p856
I27
sS'vibin'
p857
I28
sS'lagg'
p858
I28
sS'was'
p859
I20
sS'salvadorian'
p860
I28
sS'votar'
p861
I26
sS'billion'
p862
I28
sS'head'
p863
I28
sS'gettn'
p864
I28
sS"i've"
p865
I28
sS'awwwwww'
p866
I28
sS'ahhh'
p867
I28
sS'but'
p868
I20
sS'26th'
p869
I28
sS'jus'
p870
I28
sS'verde'
p871
I28
sS'hear'
p872
I27
sS'goals'
p873
I28
sS'familia'
p874
I28
sS'didnt'
p875
I28
sS'trying'
p876
I24
sS'with'
p877
I14
sS'eat'
p878
I26
sS'gerald'
p879
I28
sS'he'
p880
I27
sS'info'
p881
I28
sS'congratulations'
p882
I28
sS'made'
p883
I27
sS'redeemed'
p884
I28
sS'virgencita'
p885
I28
sS'morning'
p886
I28
sS'fries'
p887
I28
sS'up'
p888
I20
sS'ur'
p889
I27
sS'un'
p890
I27
sS'thetruth'
p891
I28
sS'bbq'
p892
I28
sS'usher'
p893
I28
sS'>'
p894
I28
sS'trips'
p895
I28
sS'ciclavia'
p896
I28
sS'regram'
p897
I28
sS'block'
p898
I28
sS'am'
p899
I27
sS'al'
p900
I27
sS'an'
p901
I25
sS'tengo'
p902
I28
sS'sometime'
p903
I28
sS'right'
p904
I28
sS'at'
p905
I8
sS'mejor'
p906
I28
sS'home'
p907
I27
sS'juice"'
p908
I28
sS'babe'
p909
I28
sS'annoying'
p910
I27
sS'check'
p911
I28
sS'shit'
p912
I26
sS'cream'
p913
I28
sS'angelica'
p914
I28
sS'again'
p915
I27
sS'rise"think'
p916
I28
sS'no'
p917
I25
sS'just..."other"'
p918
I28
sS'fire'
p919
I28
sS'sometymez'
p920
I28
sS'other'
p921
I27
sS'5'
p922
I26
sS'boom'
p923
I28
sS'sick'
p924
I28
sS'you'
p925
I10
sS'really'
p926
I24
sS'honorary'
p927
I28
sS'sicc'
p928
I28
sS'nice'
p929
I28
sS'bedtyme'
p930
I28
sS'cashier'
p931
I28
sS'time'
p932
I25
sS'june'
p933
I28
sS'hawthorne'
p934
I28
sS"let's"
p935
I28
sS'chance'
p936
I28
sS'modelo'
p937
I28
sS'pickle'
p938
I28
sS'aware'
p939
I28
sS'weekend'
p940
I27
sS'died'
p941
I28
sS'goin'
p942
I27
sS's/o'
p943
I28
sS"langer's\xe2\x80\xa6"
p944
I28
sS'pyramid'
p945
I28
sS'undercutting'
p946
I28
sS'loyal'
p947
I28
sS'u'
p948
I16
sS'situations'
p949
I28
sS'granadala'
p950
I28
sS'famoso'
p951
I28
sS'chat/dance'
p952
I28
sS'lives'
p953
I28
sS'2009'
p954
I28
sS':))'
p955
I27
s.