(dp0
S''
p1
I1
sS'all'
p2
I20
sS':/'
p3
I31
sS':('
p4
I32
sS':)'
p5
I23
sS'wingstop'
p6
I32
sS'dance'
p7
I31
sS'errbody'
p8
I32
sS'secretary'
p9
I32
sS'month'
p10
I32
sS'yikes'
p11
I32
sS'goofy'
p12
I32
sS'grateful'
p13
I32
sS'go'
p14
I23
sS'follow'
p15
I19
sS'liam'
p16
I32
sS'hate'
p17
I29
sS'chili'
p18
I32
sS'gi'
p19
I32
sS'row'
p20
I30
sS'content'
p21
I32
sS'behind-closed-doors'
p22
I32
sS'mitty'
p23
I32
sS'buddy'
p24
I32
sS'scared'
p25
I32
sS'ty'
p26
I32
sS'tu'
p27
I32
sS'sweetest'
p28
I32
sS'to'
p29
I4
sS'finally'
p30
I30
sS'asking'
p31
I32
sS'*fantastic*'
p32
I32
sS'retweets'
p33
I32
sS'under'
p34
I32
sS'tf'
p35
I32
sS'lord'
p36
I32
sS'screen'
p37
I32
sS'worth'
p38
I32
sS'wax'
p39
I32
sS"you're"
p40
I32
sS'case'
p41
I32
sS'random'
p42
I32
sS'worse'
p43
I31
sS'song'
p44
I30
sS'far'
p45
I31
sS'fat'
p46
I32
sS'avalon'
p47
I32
sS'shoot'
p48
I32
sS'worst'
p49
I31
sS'decide'
p50
I31
sS'fam'
p51
I32
sS'cook'
p52
I32
sS'blast'
p53
I32
sS':p'
p54
I32
sS'tangina'
p55
I32
sS'cool'
p56
I32
sS'tickets'
p57
I32
sS'poppa'
p58
I32
sS'school'
p59
I30
sS'heaven'
p60
I32
sS'impressive'
p61
I32
sS'made'
p62
I32
sS'did'
p63
I30
sS'issue'
p64
I31
sS'gettin'
p65
I32
sS'laying'
p66
I32
sS'frozen'
p67
I32
sS'soooo'
p68
I32
sS'settle'
p69
I31
sS'tinag'
p70
I32
sS'subway'
p71
I32
sS'team'
p72
I32
sS'quick'
p73
I32
sS'heading'
p74
I32
sS'ctures'
p75
I32
sS'clothes'
p76
I31
sS"i'll"
p77
I27
sS'work'
p78
I30
sS'angeles)'
p79
I32
sS'tired'
p80
I32
sS'eclipse'
p81
I32
sS'abarquez'
p82
I31
sS'preacher'
p83
I32
sS'itself'
p84
I32
sS'4:30am'
p85
I32
sS'video'
p86
I27
sS'valiant'
p87
I32
sS'reunion'
p88
I32
sS'download'
p89
I32
sS'eating'
p90
I32
sS'click'
p91
I32
sS'drinks'
p92
I32
sS'even'
p93
I30
sS'will'
p94
I32
sS'what'
p95
I18
sS'decisions'
p96
I32
sS'hahahahahahahahaha'
p97
I32
sS'caffeine'
p98
I32
sS"carter's"
p99
I32
sS'waiting'
p100
I31
sS'run'
p101
I32
sS'aggression'
p102
I32
sS'new'
p103
I18
sS'fall'
p104
I32
sS'officially'
p105
I32
sS'ahhhhh'
p106
I32
sS'disney'
p107
I32
sS'told'
p108
I32
sS'body'
p109
I32
sS'lee'
p110
I32
sS'cozz'
p111
I32
sS'never'
p112
I30
sS'meh'
p113
I32
sS'here'
p114
I29
sS'isn\xe2\x80\x99t'
p115
I32
sS'slow'
p116
I32
sS'let'
p117
I31
sS'sexy'
p118
I28
sS'waco\xe2\x80\xa6'
p119
I32
sS'teacher'
p120
I32
sS'change'
p121
I31
sS'wait'
p122
I28
sS'boy'
p123
I32
sS'great'
p124
I29
sS'animoooo'
p125
I32
sS'changed'
p126
I32
sS'shades'
p127
I31
sS'calvin'
p128
I32
sS'pics'
p129
I32
sS'obligatory'
p130
I32
sS'accomplished'
p131
I32
sS'extremes'
p132
I32
sS'smoke'
p133
I32
sS'boo'
p134
I30
sS"i'm"
p135
I12
sS'makes'
p136
I30
sS'thats'
p137
I32
sS'sheila'
p138
I32
sS'whatnot'
p139
I32
sS'love'
p140
I18
sS'although'
p141
I32
sS'danger'
p142
I32
sS'private'
p143
I32
sS'bro'
p144
I32
sS'patience'
p145
I32
sS'follower'
p146
I32
sS'insta'
p147
I32
sS'names'
p148
I32
sS'total'
p149
I31
sS'fabbbbb'
p150
I32
sS'molcajetes'
p151
I32
sS'bra'
p152
I32
sS'krislam'
p153
I32
sS'use'
p154
I32
sS'ash'
p155
I32
sS'from'
p156
I26
sS'would'
p157
I30
sS'&'
p158
I28
sS'tmmrw'
p159
I31
sS'visit'
p160
I31
sS'flat'
p161
I32
sS'next'
p162
I30
sS'cali'
p163
I32
sS'live'
p164
I32
sS'call'
p165
I30
sS'exceptionally'
p166
I32
sS'6'
p167
I32
sS'tryin'
p168
I32
sS'parking'
p169
I32
sS'tell'
p170
I31
sS'today'
p171
I26
sS'more'
p172
I27
sS'tryna'
p173
I31
sS'babe'
p174
I32
sS'knows'
p175
I32
sS'club'
p176
I32
sS'halloween'
p177
I32
sS'waxed'
p178
I32
sS'haha'
p179
I24
sS'sister'
p180
I29
sS'downtown'
p181
I29
sS'goal\xe2\x80\x9d'
p182
I32
sS"ain't"
p183
I22
sS'broke'
p184
I32
sS'baby'
p185
I24
sS'central'
p186
I32
sS'presentationally'
p187
I32
sS'flawless'
p188
I32
sS'2pac'
p189
I32
sS'must'
p190
I32
sS'me'
p191
I15
sS'none'
p192
I32
sS'locked'
p193
I32
sS'room'
p194
I31
sS'niggas'
p195
I32
sS'this'
p196
I14
sS'car'
p197
I32
sS'mo'
p198
I31
sS'getting'
p199
I28
sS'mi'
p200
I32
sS'roof'
p201
I32
sS'purge'
p202
I32
sS'movies'
p203
I31
sS'sudden'
p204
I32
sS'can'
p205
I31
sS'drill'
p206
I32
sS'freedom'
p207
I32
sS'knocked'
p208
I31
sS'scarface'
p209
I32
sS'my'
p210
I7
sS'social'
p211
I32
sS'crazy'
p212
I32
sS'months'
p213
I32
sS'snowmannn'
p214
I32
sS'squaaaatssss'
p215
I32
sS'lock'
p216
I32
sS"didn't"
p217
I31
sS'fuck'
p218
I27
sS'days'
p219
I32
sS'high'
p220
I30
sS"'95"
p221
I32
sS'celine'
p222
I32
sS'something'
p223
I29
sS'want'
p224
I24
sS'sense'
p225
I31
sS'cows'
p226
I32
sS'station'
p227
I32
sS'tan'
p228
I32
sS'anything'
p229
I32
sS'val'
p230
I32
sS'huge'
p231
I32
sS'hoe'
p232
I31
sS'end'
p233
I32
sS'heh'
p234
I32
sS'conversation'
p235
I32
sS'noticias'
p236
I32
sS'means'
p237
I32
sS'dismissed'
p238
I32
sS'brain'
p239
I32
sS'1'
p240
I32
sS'how'
p241
I29
sS'hot'
p242
I32
sS'yayyyyy'
p243
I32
sS'beach'
p244
I30
sS'charging'
p245
I32
sS'pomona'
p246
I32
sS'night\xe2\x80\x9d'
p247
I32
sS'fr'
p248
I31
sS'okay'
p249
I30
sS"today's"
p250
I32
sS'sir'
p251
I32
sS'mess'
p252
I32
sS'stop'
p253
I31
sS'after'
p254
I29
sS'them'
p255
I32
sS'soundtrack'
p256
I32
sS'wrong'
p257
I31
sS'thingy'
p258
I32
sS'mad'
p259
I32
sS'numb'
p260
I32
sS'coming'
p261
I30
sS'such'
p262
I31
sS'guys'
p263
I30
sS'lids'
p264
I32
sS'man'
p265
I31
sS'a'
p266
I6
sS'realized'
p267
I32
sS'natural'
p268
I32
sS'remember'
p269
I32
sS'slightly'
p270
I32
sS'appreciate'
p271
I32
sS'lost'
p272
I32
sS"do's"
p273
I32
sS'9am'
p274
I32
sS'si'
p275
I32
sS'so'
p276
I13
sS'woohoo'
p277
I32
sS'suerte'
p278
I23
sS'classy'
p279
I32
sS'every'
p280
I32
sS'sa'
p281
I32
sS'anaconda'
p282
I32
sS'$oftly'
p283
I32
sS'talk'
p284
I32
sS"that's"
p285
I25
sS'cute'
p286
I30
sS'mexican'
p287
I31
sS'help'
p288
I28
sS'ger'
p289
I32
sS"don't"
p290
I21
sS'over'
p291
I31
sS'move'
p292
I31
sS'midnight'
p293
I32
sS'soon'
p294
I30
sS'years'
p295
I32
sS'cotter'
p296
I30
sS'pm'
p297
I32
sS'through'
p298
I32
sS'fuccin'
p299
I32
sS'hell'
p300
I31
sS'cold'
p301
I30
sS'still'
p302
I26
sS'mayor'
p303
I31
sS'before'
p304
I32
sS'dreading'
p305
I32
sS'needa'
p306
I32
sS'20'
p307
I32
sS'thank'
p308
I30
sS'curly'
p309
I32
sS'la'
p310
I25
sS'trying'
p311
I32
sS'beyonce'
p312
I32
sS'amazing'
p313
I32
sS'[pic]'
p314
I31
sS'better'
p315
I29
sS'kasama'
p316
I32
sS'relate'
p317
I32
sS'lalalalalalalalalalalalalal'
p318
I32
sS'self-aware'
p319
I32
sS'bout'
p320
I32
sS'cutie'
p321
I27
sS'might'
p322
I30
sS'selfie'
p323
I32
sS'ally'
p324
I32
sS'finer'
p325
I32
sS'dad'
p326
I32
sS'vehicle'
p327
I32
sS'coffee'
p328
I30
sS'good'
p329
I22
sS'yo'
p330
I32
sS'food'
p331
I30
sS'dam'
p332
I32
sS'downs'
p333
I32
sS'killer'
p334
I32
sS'tsss'
p335
I32
sS'flew'
p336
I32
sS'lunch'
p337
I32
sS'bang'
p338
I31
sS"you've"
p339
I32
sS'they'
p340
I28
sS'half'
p341
I32
sS'front'
p342
I30
sS'now'
p343
I27
sS'day'
p344
I27
sS'bank'
p345
I32
sS'tisa'
p346
I32
sS"bra's"
p347
I32
sS'always'
p348
I29
sS'\xe6\x96\xb0\xe9\x9e\x8b\xe5\xb8\xa6\xe6\x98\xaf\xe5\x90\xa6\xe7\x95\xa5\xe9\xaa\x9a\xe6\xb0\x94\xef\xbc\x9f'
p349
I32
sS"she's"
p350
I32
sS'drake'
p351
I31
sS'm\xc3\xa1s'
p352
I15
sS'weather'
p353
I32
sS'trap'
p354
I32
sS'truth'
p355
I32
sS'dabs'
p356
I32
sS'found'
p357
I32
sS'went'
p358
I32
sS"ya'll"
p359
I32
sS'side'
p360
I32
sS"isn't"
p361
I31
sS'em'
p362
I32
sS'el'
p363
I15
sS'studios'
p364
I32
sS'en'
p365
I32
sS'doing'
p366
I32
sS'list'
p367
I32
sS'yeah'
p368
I31
sS'books'
p369
I32
sS'year'
p370
I30
sS'eu'
p371
I32
sS'our'
p372
I30
sS'girl'
p373
I29
sS'worried'
p374
I32
sS'satisfied'
p375
I32
sS'saturday'
p376
I29
sS'es'
p377
I31
sS'out'
p378
I18
sS'rt'
p379
I32
sS'lipstick'
p380
I31
sS'house'
p381
I32
sS'hehe'
p382
I30
sS'since'
p383
I30
sS'rolls'
p384
I32
sS'looking'
p385
I28
sS'stud'
p386
I31
sS'smh'
p387
I32
sS'got'
p388
I21
sS'rn'
p389
I31
sS'cause'
p390
I31
sS'shows'
p391
I32
sS'ass'
p392
I32
sS'stare'
p393
I32
sS'earlier'
p394
I32
sS'city'
p395
I32
sS'routine'
p396
I32
sS'boobs'
p397
I32
sS'revenge'
p398
I32
sS'free'
p399
I32
sS'mmm'
p400
I32
sS'killin'
p401
I32
sS'california'
p402
I32
sS'disneyland'
p403
I32
sS'skythrills'
p404
I32
sS'put'
p405
I32
sS'teach'
p406
I32
sS'wanted'
p407
I32
sS'keith'
p408
I32
sS'craving'
p409
I32
sS'certified'
p410
I32
sS"sony's"
p411
I32
sS'whippin'
p412
I32
sS'saggy'
p413
I32
sS'premio'
p414
I32
sS'wokaaaayyy'
p415
I32
sS'could'
p416
I32
sS'contentmode'
p417
I30
sS'keep'
p418
I32
sS'motion'
p419
I31
sS'thing'
p420
I30
sS'place'
p421
I30
sS'tempting'
p422
I32
sS'swing'
p423
I32
sS"it'll"
p424
I32
sS'(at'
p425
I32
sS'think'
p426
I27
sS'fuckin'
p427
I31
sS'first'
p428
I32
sS'enjoy'
p429
I31
sS'already'
p430
I32
sS'impossibly'
p431
I32
sS'dafuq'
p432
I32
sS'feel'
p433
I32
sS'xoxo'
p434
I20
sS'one'
p435
I22
sS'staying'
p436
I32
sS'walter'
p437
I32
sS'talked'
p438
I32
sS'bitch'
p439
I26
sS'another'
p440
I32
sS'spanish'
p441
I32
sS'175'
p442
I32
sS'miss'
p443
I26
sS'tomorrow'
p444
I32
sS'braces'
p445
I32
sS'take'
p446
I32
sS"doesn't"
p447
I32
sS'guess'
p448
I31
sS'long'
p449
I30
sS'guest'
p450
I32
sS'quality'
p451
I32
sS'start'
p452
I32
sS'together'
p453
I32
sS'boring'
p454
I32
sS'bonito'
p455
I32
sS'felicidades'
p456
I32
sS'mobbin'
p457
I32
sS'anyone'
p458
I31
sS'2'
p459
I30
sS'too'
p460
I23
sS'hollywood'
p461
I32
sS'boii'
p462
I32
sS'bitter'
p463
I32
sS'dogs'
p464
I32
sS'"corner"'
p465
I32
sS'x)'
p466
I32
sS'pho'
p467
I32
sS'way'
p468
I32
sS'relationship'
p469
I32
sS'that'
p470
I13
sS'hun'
p471
I28
sS'hotel'
p472
I24
sS'park'
p473
I32
sS'because'
p474
I30
sS'butt'
p475
I31
sS'off'
p476
I32
sS'believe'
p477
I32
sS'than'
p478
I30
sS"here's"
p479
I32
sS'boyfriend'
p480
I32
sS'10'
p481
I31
sS'gotti'
p482
I32
sS'b'
p483
I31
sS'lmao'
p484
I23
sS'bubble'
p485
I29
sS'tree'
p486
I32
sS'grey'
p487
I32
sS'bed'
p488
I29
sS'recording'
p489
I31
sS'r'
p490
I31
sS'flame'
p491
I32
sS'supposed'
p492
I32
sS'were'
p493
I30
sS'colombiano'
p494
I32
sS'listen'
p495
I32
sS'ousted'
p496
I31
sS'snoozefest'
p497
I32
sS'and'
p498
I8
sS'mini'
p499
I32
sS'dalian'
p500
I32
sS'sam'
p501
I31
sS'rummage'
p502
I32
sS"mj's"
p503
I32
sS'mind'
p504
I32
sS'mine'
p505
I32
sS'tonight'
p506
I30
sS'talking'
p507
I32
sS'say'
p508
I31
sS'guapo'
p509
I17
sS'have'
p510
I24
sS'need'
p511
I24
sS'seen'
p512
I30
sS'turn'
p513
I32
sS'saw'
p514
I31
sS'clearly'
p515
I32
sS'collapse'
p516
I32
sS'didint'
p517
I32
sS'nights'
p518
I32
sS'dancing'
p519
I30
sS'lil'
p520
I32
sS'shorts'
p521
I32
sS'homeboy'
p522
I32
sS'dapat'
p523
I32
sS'also'
p524
I29
sS'niece'
p525
I31
sS'which'
p526
I32
sS'honestly'
p527
I32
sS'korean'
p528
I32
sS'many'
p529
I32
sS'blunt'
p530
I30
sS'sure'
p531
I31
sS'electric'
p532
I32
sS'though'
p533
I26
sS'moms'
p534
I32
sS'exciting'
p535
I32
sS'falls'
p536
I32
sS"where's"
p537
I31
sS'y'
p538
I32
sS'satisfying'
p539
I32
sS'plan'
p540
I32
sS'panic'
p541
I32
sS'why'
p542
I29
sS'check'
p543
I32
sS'forever'
p544
I31
sS'niggga'
p545
I31
sS'pulled'
p546
I32
sS'nail'
p547
I32
sS'lose'
p548
I32
sS'ko'
p549
I32
sS'hungry'
p550
I32
sS"val's"
p551
I32
sS'face'
p552
I32
sS"you'll"
p553
I32
sS'definitely'
p554
I31
sS'uncle'
p555
I32
sS'microsoft'
p556
I32
sS'lying'
p557
I32
sS'shop'
p558
I32
sS'impression'
p559
I32
sS'ugh'
p560
I31
sS'bomb'
p561
I31
sS'\xe2\x9c\xa8'
p562
I32
sS'show'
p563
I31
sS'henry'
p564
I32
sS'hazelnut'
p565
I32
sS'cheap'
p566
I32
sS'anyway'
p567
I32
sS'fifty'
p568
I32
sS'pops'
p569
I32
sS'wanting'
p570
I32
sS'planning'
p571
I32
sS'stoned'
p572
I32
sS'king'
p573
I32
sS'longer'
p574
I32
sS'fine'
p575
I32
sS'find'
p576
I31
sS'shoes'
p577
I32
sS'\xe2\x9c\x8c'
p578
I17
sS'envy'
p579
I32
sS'5pm'
p580
I32
sS'grabbed'
p581
I32
sS'carie'
p582
I32
sS'tire'
p583
I32
sS'music'
p584
I32
sS'with'
p585
I14
sS'w.e'
p586
I32
sS'hrs'
p587
I32
sS'should'
p588
I29
sS'jan'
p589
I32
sS'only'
p590
I29
sS'going'
p591
I25
sS'black'
p592
I32
sS'touched'
p593
I32
sS'pretty'
p594
I29
sS'photo'
p595
I31
sS'chipotle'
p596
I31
sS'posted'
p597
I32
sS'hope'
p598
I32
sS'meant'
p599
I32
sS'do'
p600
I26
sS'his'
p601
I32
sS'hit'
p602
I32
sS'klein'
p603
I32
sS'get'
p604
I19
sS'wishing'
p605
I32
sS'photography'
p606
I32
sS'de'
p607
I31
sS'watch'
p608
I23
sS'tsssss'
p609
I32
sS'mission'
p610
I31
sS'me.\xe2\x80\x9d'
p611
I32
sS'guatemala'
p612
I32
sS'cannot'
p613
I32
sS'watermelon'
p614
I32
sS'supplies'
p615
I30
sS'nasty'
p616
I32
sS'laguna'
p617
I32
sS'him'
p618
I32
sS'ghetto'
p619
I32
sS"ubisoft's"
p620
I32
sS'runs'
p621
I32
sS'bas'
p622
I32
sS'ended'
p623
I32
sS'cry'
p624
I31
sS'timeless'
p625
I32
sS'morning'
p626
I30
sS'naked'
p627
I32
sS'bag'
p628
I32
sS'bad'
p629
I32
sS'stuff'
p630
I31
sS'she'
p631
I24
sS'hike'
p632
I31
sS'hype'
p633
I32
sS'x'
p634
I30
sS'gerardo'
p635
I31
sS'where'
p636
I30
sS'inside'
p637
I32
sS'preach'
p638
I32
sS"y'all"
p639
I32
sS'btw'
p640
I32
sS'concert'
p641
I32
sS'bts'
p642
I31
sS'lemonade'
p643
I32
sS'choreographed'
p644
I32
sS'see'
p645
I29
sS'computer'
p646
I32
sS'asleep'
p647
I32
sS'are'
p648
I24
sS'hoes'
p649
I30
sS'discussions'
p650
I32
sS'close'
p651
I31
sS'ur'
p652
I32
sS'retweet'
p653
I32
sS'wonder'
p654
I32
sS'brazil'
p655
I32
sS'shower'
p656
I32
sS'said'
p657
I31
sS'luv'
p658
I32
sS'tackling'
p659
I32
sS'purpose'
p660
I32
sS'movie'
p661
I29
sS'wow'
p662
I31
sS'muy'
p663
I32
sS'its'
p664
I32
sS'3'
p665
I32
sS'future'
p666
I32
sS'happiness'
p667
I32
sS'hopefully'
p668
I30
sS':d'
p669
I32
sS'smo'
p670
I32
sS'nope'
p671
I32
sS'muh'
p672
I32
sS'europe'
p673
I32
sS'we'
p674
I20
sS'makeup'
p675
I32
sS'omg'
p676
I31
sS'missing'
p677
I32
sS'spm'
p678
I32
sS'joy'
p679
I32
sS'bump'
p680
I32
sS'nashville'
p681
I32
sS'weak'
p682
I29
sS'richest'
p683
I32
sS'wtf'
p684
I32
sS'jk'
p685
I32
sS'cousin'
p686
I32
sS'come'
p687
I25
sS'weidman'
p688
I32
sS'both'
p689
I32
sS'cos'
p690
I32
sS'last'
p691
I26
sS'post'
p692
I32
sS'restaurant'
p693
I32
sS'secrets'
p694
I32
sS'country'
p695
I32
sS"wouldn't"
p696
I32
sS'coz'
p697
I31
sS'trailers'
p698
I32
sS'trips'
p699
I32
sS'hustlers'
p700
I32
sS'cole'
p701
I32
sS'connection'
p702
I32
sS'bbq'
p703
I32
sS'secreto'
p704
I32
sS'atleast'
p705
I32
sS'lookin'
p706
I32
sS'faces'
p707
I31
sS'baseball'
p708
I32
sS'loose'
p709
I32
sS"can't"
p710
I21
sS'con'
p711
I32
sS'temptations'
p712
I32
sS'drunk'
p713
I32
sS'smith'
p714
I31
sS'stuck'
p715
I32
sS'por'
p716
I32
sS'whatever'
p717
I31
sS'except'
p718
I32
sS'colombian'
p719
I32
sS'matte'
p720
I32
sS'learning'
p721
I31
sS'church'
p722
I30
sS'trapaholic'
p723
I32
sS'pod'
p724
I32
sS'solaire'
p725
I25
sS'belt'
p726
I32
sS'conference'
p727
I30
sS'devil'
p728
I31
sS'yay'
p729
I30
sS'grabbys'
p730
I31
sS"it's"
p731
I17
sS'blink'
p732
I32
sS'reggae'
p733
I32
sS'been'
p734
I24
sS'drumming/live'
p735
I32
sS'weho/los'
p736
I32
sS'secret'
p737
I32
sS'much'
p738
I22
sS'damn'
p739
I31
sS'wherein'
p740
I32
sS'lovely'
p741
I32
sS'meeting'
p742
I31
sS'tyga'
p743
I32
sS'woke'
p744
I32
sS'threw'
p745
I32
sS'wants'
p746
I32
sS'life'
p747
I30
sS'ano'
p748
I32
sS'shopping'
p749
I32
sS'crying'
p750
I32
sS'passengers'
p751
I32
sS'drugs'
p752
I32
sS"what's"
p753
I26
sS'sooooo'
p754
I32
sS'moment'
p755
I32
sS'hmm'
p756
I32
sS'finished'
p757
I32
sS"pete's"
p758
I32
sS'mail'
p759
I32
sS'catch'
p760
I32
sS'despite'
p761
I32
sS'general'
p762
I32
sS'argentina'
p763
I32
sS'those'
p764
I31
sS'chill'
p765
I31
sS'sound'
p766
I31
sS'myself'
p767
I32
sS'bye'
p768
I29
sS'look'
p769
I32
sS'howww'
p770
I32
sS'these'
p771
I29
sS'sauce'
p772
I32
sS'vanilla'
p773
I32
sS'hayes'
p774
I27
sS'1:24'
p775
I32
sS'while'
p776
I32
sS'alwys'
p777
I32
sS"haven't"
p778
I32
sS'hahaha'
p779
I31
sS'fun'
p780
I32
sS'ross'
p781
I32
sS'taking'
p782
I32
sS'trailer'
p783
I32
sS'palisades'
p784
I32
sS'catalana'
p785
I32
sS'jealous'
p786
I32
sS'<3'
p787
I32
sS'then'
p788
I32
sS'almost'
p789
I32
sS'demo'
p790
I30
sS'is'
p791
I10
sS'hazlo'
p792
I32
sS'it'
p793
I13
sS'cant'
p794
I32
sS'vs'
p795
I32
sS'im'
p796
I32
sS'partynextdoor'
p797
I31
sS'in'
p798
I9
sS'ready'
p799
I30
sS'bicken'
p800
I32
sS'worry'
p801
I32
sS'if'
p802
I26
sS'grown'
p803
I32
sS'bone'
p804
I32
sS'mas'
p805
I32
sS'research'
p806
I32
sS'shirt'
p807
I32
sS'tupac'
p808
I32
sS'paying'
p809
I32
sS'acabo'
p810
I32
sS'make'
p811
I30
sS'bowl'
p812
I32
sS'same'
p813
I31
sS'gurrlll'
p814
I32
sS'ya'
p815
I28
sS'followers'
p816
I32
sS'babies'
p817
I32
sS'bucketlist'
p818
I32
sS'party'
p819
I32
sS'gets'
p820
I31
sS'workout'
p821
I32
sS'failure'
p822
I32
sS'higher'
p823
I32
sS'week'
p824
I30
sS'ball'
p825
I32
sS'knitting'
p826
I32
sS'mariscos'
p827
I32
sS'drink'
p828
I31
sS'hang'
p829
I32
sS'yesterday'
p830
I32
sS'fucker'
p831
I32
sS'hand'
p832
I30
sS'running'
p833
I31
sS'moving'
p834
I32
sS'\xc2\xa1entra'
p835
I32
sS'favorites'
p836
I32
sS'sisters'
p837
I32
sS'yours'
p838
I32
sS'pullin'
p839
I32
sS'warming'
p840
I32
sS'//'
p841
I31
sS'dope'
p842
I32
sS'reconsider'
p843
I32
sS'fully'
p844
I32
sS'i'
p845
I2
sS'charger'
p846
I31
sS'dallas'
p847
I32
sS'well'
p848
I29
sS'tho'
p849
I29
sS'person'
p850
I32
sS'uhohatilio'
p851
I32
sS'comes'
p852
I29
sS'na'
p853
I32
sS'very'
p854
I32
sS'hearts'
p855
I32
sS'the'
p856
I3
sS'spend'
p857
I31
sS'left'
p858
I32
sS'things'
p859
I32
sS'watching'
p860
I32
sS'pussy'
p861
I32
sS'mom'
p862
I32
sS'just'
p863
I16
sS'less'
p864
I32
sS'being'
p865
I31
sS'money'
p866
I26
sS'laptop'
p867
I32
sS'dancers'
p868
I32
sS'not'
p869
I21
sS'venues'
p870
I32
sS'mistakes'
p871
I32
sS'kill'
p872
I32
sS'thanks'
p873
I11
sS'mt.vernon'
p874
I32
sS'using'
p875
I32
sS'yep'
p876
I32
sS'yes'
p877
I30
sS'close!!)'
p878
I32
sS'yew'
p879
I32
sS'based'
p880
I32
sS'votar'
p881
I32
sS'quiero'
p882
I32
sS'jane\xe2\x80\xa6'
p883
I32
sS'thinking'
p884
I30
sS"everyone's"
p885
I32
sS'had'
p886
I31
sS'lake'
p887
I32
sS'silver'
p888
I32
sS'hitting'
p889
I32
sS'add'
p890
I32
sS'ahhhh'
p891
I32
sS'4'
p892
I32
sS'easy'
p893
I32
sS'sweet'
p894
I32
sS'has'
p895
I30
sS'excited'
p896
I32
sS'smart'
p897
I32
sS'build'
p898
I31
sS'real'
p899
I31
sS'australia'
p900
I32
sS'gods'
p901
I32
sS'around'
p902
I32
sS'kills'
p903
I32
sS'read'
p904
I31
sS'big'
p905
I31
sS"who's"
p906
I32
sS'mins'
p907
I32
sS'gonna'
p908
I27
sS'dark'
p909
I32
sS'possibly'
p910
I31
sS'game'
p911
I30
sS'know'
p912
I30
sS'\xe2\x9d\xa4'
p913
I30
sS'30'
p914
I32
sS'it.\xe2\x80\x9d'
p915
I32
sS'world'
p916
I32
sS'rick'
p917
I32
sS'dreams'
p918
I32
sS'chingo'
p919
I32
sS'sowwy'
p920
I32
sS'like'
p921
I16
sS'gift'
p922
I32
sS'cooler'
p923
I32
sS'tienen'
p924
I32
sS'50'
p925
I32
sS'loses'
p926
I32
sS'remind'
p927
I32
sS'suitcase'
p928
I32
sS'night'
p929
I26
sS'nerves'
p930
I32
sS'mucha'
p931
I24
sS'page'
p932
I32
sS'greatness'
p933
I32
sS'right'
p934
I28
sS'old'
p935
I31
sS"couldn't"
p936
I32
sS'ups'
p937
I32
sS'people'
p938
I30
sS'fucking'
p939
I32
sS'annoying'
p940
I32
sS'nobody'
p941
I32
sS'some'
p942
I26
sS'back'
p943
I25
sS'alive'
p944
I32
sS'hair'
p945
I32
sS'born'
p946
I32
sS'kbbq'
p947
I32
sS'debating'
p948
I32
sS'home'
p949
I27
sS'little'
p950
I32
sS'classes'
p951
I32
sS'turkey'
p952
I32
sS'endeavor'
p953
I32
sS'98%'
p954
I32
sS'happens'
p955
I31
sS'gross'
p956
I31
sS'humor'
p957
I31
sS'for'
p958
I7
sS'literally'
p959
I32
sS'randddyyyy'
p960
I32
sS'/'
p961
I32
sS'(i'
p962
I32
sS'everything'
p963
I28
sS'does'
p964
I30
sS'speak'
p965
I32
sS'christmas'
p966
I31
sS'cheese'
p967
I32
sS'be'
p968
I16
sS'bf'
p969
I31
sS'chyeah'
p970
I32
sS'coated'
p971
I31
sS'any'
p972
I32
sS'business'
p973
I32
sS'asap'
p974
I32
sS'lmfao'
p975
I29
sS'lmaoooo'
p976
I32
sS'nails'
p977
I30
sS'ufc'
p978
I30
sS'slut'
p979
I32
sS'miriam'
p980
I32
sS'overall'
p981
I32
sS'pressure'
p982
I32
sS'hectic'
p983
I32
sS'putting'
p984
I32
sS';)'
p985
I21
sS'victoria'
p986
I32
sS'super'
p987
I32
sS'throw'
p988
I32
sS'on'
p989
I10
sS'about'
p990
I26
sS'ok'
p991
I31
sS'working'
p992
I32
sS'favorito'
p993
I32
sS'oh'
p994
I30
sS'jeep'
p995
I32
sS'of'
p996
I17
sS'iced'
p997
I32
sS'favorite'
p998
I31
sS'headed'
p999
I32
sS'angeles'
p1000
I25
sS'todavia'
p1001
I32
sS'swear'
p1002
I32
sS'sweat'
p1003
I32
sS'act'
p1004
I32
sS'wanna'
p1005
I28
sS'timothy'
p1006
I32
sS'flatbread'
p1007
I32
sS'seeing'
p1008
I31
sS'machida'
p1009
I32
sS'chu'
p1010
I32
sS'followed'
p1011
I32
sS'owe'
p1012
I32
sS'dude'
p1013
I31
sS'into'
p1014
I30
sS'guapeton'
p1015
I31
sS'errands'
p1016
I32
sS'blessed'
p1017
I32
sS'ppl'
p1018
I32
sS'down'
p1019
I31
sS'nigga'
p1020
I31
sS'promise'
p1021
I32
sS'clack'
p1022
I32
sS'wrap'
p1023
I32
sS'nccpt'
p1024
I32
sS'sports'
p1025
I32
sS'forget'
p1026
I31
sS'your'
p1027
I26
sS'<333'
p1028
I32
sS'soundcloud'
p1029
I32
sS'caramba'
p1030
I32
sS'wack'
p1031
I32
sS'her'
p1032
I27
sS'spending'
p1033
I32
sS'weekend'
p1034
I32
sS'support'
p1035
I31
sS'there'
p1036
I31
sS'question'
p1037
I31
sS'hey'
p1038
I30
sS'lol'
p1039
I25
sS'fight'
p1040
I31
sS'los'
p1041
I24
sS'or'
p1042
I32
sS'yan'
p1043
I32
sS"we're"
p1044
I29
sS'lot'
p1045
I31
sS'series'
p1046
I32
sS'biggest'
p1047
I32
sS'thieriot'
p1048
I32
sS'bored'
p1049
I32
sS'was'
p1050
I20
sS'twitter'
p1051
I32
sS'ehh'
p1052
I32
sS'happy'
p1053
I31
sS'0-5'
p1054
I32
sS'head'
p1055
I32
sS'buy'
p1056
I32
sS'northridge'
p1057
I32
sS'album'
p1058
I32
sS"i've"
p1059
I31
sS'fasho'
p1060
I32
sS'constantly'
p1061
I32
sS'bitches'
p1062
I29
sS'ka'
p1063
I32
sS'but'
p1064
I13
sS'somehow'
p1065
I32
sS'so1'
p1066
I32
sS'jus'
p1067
I32
sS'hear'
p1068
I31
sS'announcement'
p1069
I32
sS'hm'
p1070
I32
sS'ha'
p1071
I32
sS'true'
p1072
I31
sS'he'
p1073
I29
sS'thru'
p1074
I32
sS'silliness'
p1075
I32
sS'happen'
p1076
I32
sS'whether'
p1077
I32
sS'sounds'
p1078
I32
sS'dom'
p1079
I32
sS'fries'
p1080
I32
sS'up'
p1081
I19
sS'us'
p1082
I29
sS'until'
p1083
I32
sS'aed'
p1084
I32
sS'record'
p1085
I32
sS'un'
p1086
I32
sS'dirty'
p1087
I31
sS'pumped'
p1088
I32
sS'neva'
p1089
I32
sS'problem'
p1090
I30
sS'slaughtered'
p1091
I32
sS'minutes'
p1092
I32
sS'called'
p1093
I32
sS'af'
p1094
I29
sS'exhausted'
p1095
I32
sS'pic'
p1096
I32
sS'an'
p1097
I31
sS'fly'
p1098
I32
sS'as'
p1099
I24
sS'sometime'
p1100
I32
sS'au'
p1101
I32
sS'at'
p1102
I18
sS'mejor'
p1103
I32
sS'curious'
p1104
I32
sS'ay'
p1105
I32
sS'moves'
p1106
I32
sS'trip'
p1107
I31
sS'shit'
p1108
I26
sS'cream'
p1109
I32
sS'fetish'
p1110
I32
sS'again'
p1111
I30
sS'maybe'
p1112
I32
sS'jesus'
p1113
I32
sS'no'
p1114
I28
sS'sugar'
p1115
I31
sS'when'
p1116
I27
sS'actor'
p1117
I32
sS'event'
p1118
I32
sS'other'
p1119
I32
sS'5'
p1120
I32
sS'sick'
p1121
I32
sS'enrolled'
p1122
I32
sS'test'
p1123
I32
sS'you'
p1124
I5
sS'really'
p1125
I26
sS'dublins'
p1126
I32
sS'nice'
p1127
I31
sS'picture'
p1128
I31
sS'star'
p1129
I32
sS'reception'
p1130
I32
sS'snowmannnnnn'
p1131
I32
sS'time'
p1132
I27
sS'sexin'
p1133
I32
sS"2000's"
p1134
I32
sS'outttt'
p1135
I32
sS"series'"
p1136
I32
sS"let's"
p1137
I32
sS'push'
p1138
I31
sS'ba'
p1139
I32
sS'track'
p1140
I32
sS'kinda'
p1141
I31
sS'birds'
p1142
I32
sS'sitti'
p1143
I32
sS'decorated'
p1144
I32
sS'friends'
p1145
I30
sS'missed'
p1146
I32
sS'omgomgomgomgomgomgomgomgomgomgomgomg'
p1147
I32
sS'remix'
p1148
I32
sS'land'
p1149
I32
sS'\xe2\x80\x94'
p1150
I31
sS'agh'
p1151
I32
sS"he's"
p1152
I32
sS'stay'
p1153
I32
sS'u'
p1154
I28
sS'doubted'
p1155
I32
sS'god'
p1156
I31
sS'alright'
p1157
I29
sS'everywhere'
p1158
I32
sS'cpr'
p1159
I32
sS'12'
p1160
I32
sS'starting'
p1161
I31
sS'having'
p1162
I31
sS'restored'
p1163
I32
sS'once'
p1164
I32
s.