(dp0
S''
p1
I6
sS'katy'
p2
I34
sS'all'
p3
I24
sS':/'
p4
I33
sS':('
p5
I30
sS':)'
p6
I27
sS'miley'
p7
I34
sS'month'
p8
I31
sS'baby'
p9
I34
sS'manager'
p10
I34
sS'inspirations'
p11
I34
sS'sleep'
p12
I34
sS'asian'
p13
I34
sS'go'
p14
I28
sS'follow'
p15
I33
sS'faster'
p16
I34
sS'hate'
p17
I34
sS'milk'
p18
I34
sS'forget'
p19
I34
sS'21st'
p20
I34
sS'apartment'
p21
I33
sS'homage'
p22
I34
sS'weill'
p23
I34
sS'young'
p24
I34
sS'send'
p25
I34
sS'countdown'
p26
I34
sS'to'
p27
I4
sS'finally'
p28
I33
sS'bike'
p29
I34
sS"bynes'"
p30
I34
sS'cunt'
p31
I34
sS'artpop'
p32
I31
sS'under'
p33
I34
sS'terror'
p34
I34
sS'sorry'
p35
I33
sS'worth'
p36
I34
sS'sent'
p37
I34
sS'boticelli'
p38
I34
sS'annoy'
p39
I34
sS'breathing'
p40
I34
sS'said.....time'
p41
I34
sS'3am'
p42
I34
sS'song'
p43
I30
sS'far'
p44
I32
sS'fav'
p45
I34
sS'sloppy'
p46
I34
sS'ponchos'
p47
I34
sS'fan'
p48
I26
sS'tu\xe2\x80\x9d'
p49
I34
sS'ticket'
p50
I34
sS'edm'
p51
I34
sS'mind-numbing'
p52
I34
sS'cool'
p53
I34
sS'tickets'
p54
I33
sS'entire'
p55
I33
sS"we'll"
p56
I32
sS'epic'
p57
I34
sS'cable'
p58
I34
sS'did'
p59
I33
sS'die'
p60
I33
sS'proud'
p61
I34
sS'try'
p62
I34
sS'intimidate'
p63
I34
sS'soooo'
p64
I34
sS'team'
p65
I34
sS'small'
p66
I32
sS'venus'
p67
I28
sS'dir'
p68
I34
sS"i'll"
p69
I28
sS'someday'
p70
I34
sS'cap'
p71
I34
sS'says'
p72
I34
sS'behind\xe2\x80\xa6'
p73
I34
sS'trend'
p74
I34
sS'tea'
p75
I34
sS'ready'
p76
I34
sS'\xeb\x82\x98\xec\x98\xa4\xea\xb8\xb0\xec\xa0\x84'
p77
I34
sS'video'
p78
I34
sS'myhinddd'
p79
I34
sS'woody'
p80
I34
sS'giftcard'
p81
I34
sS'choices'
p82
I34
sS'even'
p83
I30
sS'what'
p84
I31
sS'filler'
p85
I34
sS"boticelli's"
p86
I34
sS'+'
p87
I34
sS'sangria'
p88
I34
sS'fucks'
p89
I34
sS'emotions'
p90
I34
sS'stoop'
p91
I34
sS'waiting'
p92
I34
sS'goes'
p93
I32
sS'new'
p94
I31
sS'ever'
p95
I33
sS'exercise'
p96
I34
sS'can'
p97
I26
sS'housewarming'
p98
I34
sS'full'
p99
I34
sS'simultaneously'
p100
I34
sS'never'
p101
I32
sS'here'
p102
I33
sS'machine"'
p103
I34
sS'hours'
p104
I33
sS'\xe2\x9d\xa4\xef\xb8\x8f'
p105
I32
sS'"aura'
p106
I34
sS'p\xc3\xbata'
p107
I34
sS'let'
p108
I33
sS'smokin'
p109
I34
sS'others'
p110
I34
sS'along'
p111
I33
sS'wait'
p112
I31
sS'box'
p113
I34
sS'boy'
p114
I33
sS'great'
p115
I33
sS'creeps'
p116
I34
sS'slow'
p117
I34
sS'37'
p118
I34
sS'35'
p119
I34
sS'ignoring'
p120
I32
sS'itunes'
p121
I33
sS'here*'
p122
I34
sS'masterpiece'
p123
I34
sS"weren't"
p124
I34
sS'handful'
p125
I34
sS'boo'
p126
I32
sS'action'
p127
I34
sS'opinion'
p128
I34
sS"i'm"
p129
I16
sS'makes'
p130
I32
sS'point'
p131
I34
sS'golden'
p132
I34
sS'via'
p133
I34
sS'love'
p134
I28
sS'family'
p135
I34
sS'app'
p136
I34
sS'crazy'
p137
I34
sS'logical'
p138
I34
sS'screens'
p139
I34
sS'till'
p140
I34
sS'wit'
p141
I34
sS'seriously'
p142
I34
sS'1st'
p143
I34
sS'market'
p144
I34
sS'sky'
p145
I34
sS'yourself'
p146
I33
sS'from'
p147
I28
sS'"t.i'
p148
I34
sS'would'
p149
I31
sS'homesick'
p150
I34
sS'runyon'
p151
I34
sS'dude'
p152
I34
sS'two'
p153
I28
sS'next'
p154
I34
sS'wrongs'
p155
I33
sS'pearl'
p156
I34
sS'live'
p157
I33
sS'wood'
p158
I34
sS'music'
p159
I33
sS'iphone'
p160
I34
sS'gorgeous'
p161
I34
sS'shits'
p162
I34
sS'preview'
p163
I34
sS'tell'
p164
I32
sS'today'
p165
I29
sS'more'
p166
I28
sS'tryna'
p167
I33
sS'gon'
p168
I34
sS'fellow'
p169
I34
sS'knows'
p170
I34
sS"italian'"
p171
I34
sS'started'
p172
I33
sS'company'
p173
I34
sS'getting'
p174
I34
sS'haha'
p175
I33
sS'phone'
p176
I34
sS'visual'
p177
I34
sS'everywhere'
p178
I34
sS'broke'
p179
I34
sS'known'
p180
I33
sS'central'
p181
I34
sS'sculpture+nostalgia(botticelli)+gaga'
p182
I34
sS'bill'
p183
I34
sS'must'
p184
I34
sS'me'
p185
I11
sS'ctfu'
p186
I34
sS'balls'
p187
I34
sS'niggas'
p188
I34
sS'this'
p189
I15
sS'car'
p190
I34
sS'ride'
p191
I34
sS'work'
p192
I32
sS'flu'
p193
I33
sS'\xea\xb8\x80\xec\xbf\xa0\xeb\x82\x98'
p194
I34
sS'pour'
p195
I34
sS'era'
p196
I33
sS'meet'
p197
I34
sS'my'
p198
I10
sS'beautiful'
p199
I33
sS'gr\xc3\xa1n'
p200
I34
sS'headphones'
p201
I34
sS'give'
p202
I32
sS'muah'
p203
I34
sS'halloween'
p204
I34
sS'fuck'
p205
I26
sS'high'
p206
I33
sS'heard'
p207
I34
sS'want'
p208
I31
sS'every'
p209
I34
sS'keep'
p210
I30
sS'sis'
p211
I34
sS'huge'
p212
I33
sS'needs'
p213
I34
sS'end'
p214
I33
sS'ahsgvabvsg'
p215
I34
sS'country'
p216
I34
sS'guatemalteca'
p217
I34
sS'snippet'
p218
I33
sS':d'
p219
I33
sS'amazing'
p220
I32
sS'nuff'
p221
I34
sS'whore'
p222
I34
sS'holland'
p223
I34
sS'answer'
p224
I34
sS'nyc'
p225
I34
sS'g.u.y'
p226
I33
sS'dope'
p227
I34
sS'economy'
p228
I34
sS'egret'
p229
I34
sS'de'
p230
I34
sS'okay'
p231
I34
sS'y'
p232
I34
sS'mess'
p233
I34
sS'after'
p234
I34
sS'blame'
p235
I34
sS'peace'
p236
I34
sS'demanding'
p237
I34
sS'wrong'
p238
I34
sS'produce'
p239
I34
sS'mad'
p240
I34
sS'water'
p241
I34
sS'date'
p242
I34
sS'such'
p243
I31
sS'obvi'
p244
I34
sS'man'
p245
I30
sS'a'
p246
I3
sS'horchata'
p247
I34
sS'short'
p248
I33
sS'jodie'
p249
I34
sS'remember'
p250
I34
sS'third'
p251
I33
sS'curry'
p252
I34
sS'mjh'
p253
I32
sS'feels'
p254
I34
sS'motherfuckers'
p255
I34
sS'9am'
p256
I34
sS'generic'
p257
I34
sS'bakery'
p258
I34
sS'so'
p259
I18
sS'automatically'
p260
I34
sS'heyyy'
p261
I34
sS'putting'
p262
I34
sS'playing'
p263
I34
sS'backdrop'
p264
I33
sS"that's"
p265
I33
sS'cute'
p266
I34
sS'11th'
p267
I34
sS'help'
p268
I34
sS'producer'
p269
I34
sS"don't"
p270
I25
sS'over'
p271
I33
sS'move'
p272
I34
sS'mainly'
p273
I34
sS'soon'
p274
I34
sS'years'
p275
I30
sS'produced'
p276
I33
sS'brain'
p277
I34
sS'yo\xc3\xbc'
p278
I34
sS'costume'
p279
I34
sS'november'
p280
I34
sS'japan'
p281
I34
sS'its'
p282
I34
sS'before'
p283
I34
sS'perfect'
p284
I33
sS'solitary'
p285
I34
sS'difference'
p286
I34
sS'thank'
p287
I34
sS'la'
p288
I32
sS'interesting'
p289
I33
sS'heron'
p290
I34
sS'hot'
p291
I31
sS'actually'
p292
I34
sS'better'
p293
I31
sS'coaching'
p294
I34
sS'disguise'
p295
I34
sS'gaga"'
p296
I34
sS'cutie'
p297
I34
sS'might'
p298
I34
sS'<'
p299
I34
sS'gate'
p300
I34
sS'happened'
p301
I34
sS'dad'
p302
I34
sS'them'
p303
I33
sS'someone'
p304
I31
sS'return'
p305
I34
sS'disrespectful'
p306
I34
sS'ok\xe2\x80\x9d'
p307
I34
sS'thee'
p308
I34
sS'spell'
p309
I34
sS'birth'
p310
I34
sS'recreation'
p311
I28
sS'*applauses*'
p312
I34
sS'dat'
p313
I34
sS'roommate'
p314
I34
sS'they'
p315
I26
sS'half'
p316
I33
sS'not'
p317
I26
sS'now'
p318
I31
sS'day'
p319
I27
sS'year"'
p320
I34
sS'bread'
p321
I34
sS'dead-cold'
p322
I34
sS'marcus'
p323
I34
sS'name'
p324
I31
sS'ahs'
p325
I34
sS'complicationscomplications'
p326
I34
sS'always'
p327
I26
sS'kayaking'
p328
I34
sS'l'
p329
I34
sS'drake'
p330
I34
sS'cumming'
p331
I34
sS'trap'
p332
I34
sS'maher'
p333
I34
sS'found'
p334
I34
sS'went'
p335
I34
sS'stock'
p336
I34
sS'bong'
p337
I34
sS'mean'
p338
I34
sS'coooooooooold'
p339
I34
sS'breakdown'
p340
I34
sS'signing'
p341
I33
sS'everyone'
p342
I32
sS'exhilarated'
p343
I34
sS'eh'
p344
I34
sS'doing'
p345
I34
sS'nap'
p346
I34
sS'sumthin'
p347
I34
sS'hard'
p348
I33
sS'yeah'
p349
I31
sS'celebrating'
p350
I34
sS'calling'
p351
I34
sS'saturday'
p352
I34
sS'whip'
p353
I34
sS'out'
p354
I24
sS'album'
p355
I23
sS'matt'
p356
I34
sS'trending'
p357
I33
sS'*does'
p358
I34
sS'opened'
p359
I34
sS'driving'
p360
I34
sS'littered'
p361
I34
sS'god'
p362
I33
sS'since'
p363
I32
sS'thot'
p364
I34
sS'loll'
p365
I33
sS'looking'
p366
I34
sS'acting'
p367
I34
sS'stupid'
p368
I34
sS'wolf'
p369
I34
sS'kindest/easiest'
p370
I34
sS'got'
p371
I30
sS'rn'
p372
I32
sS'cause'
p373
I33
sS'correct'
p374
I34
sS'shows'
p375
I34
sS'ass'
p376
I34
sS'eagle'
p377
I34
sS'costumes'
p378
I34
sS'grease'
p379
I34
sS'turning'
p380
I34
sS"you're"
p381
I31
sS'million'
p382
I34
sS'threatened'
p383
I33
sS'little'
p384
I29
sS'free'
p385
I34
sS'disrespect'
p386
I34
sS'reason'
p387
I34
sS'base'
p388
I32
sS'officially'
p389
I34
sS'success'
p390
I34
sS'imagine'
p391
I34
sS'ask'
p392
I34
sS'sitting'
p393
I34
sS'wanted'
p394
I34
sS'care'
p395
I34
sS'mars'
p396
I34
sS'dammit'
p397
I34
sS'spill'
p398
I34
sS'amanda'
p399
I34
sS'could'
p400
I33
sS'transition'
p401
I34
sS'days'
p402
I33
sS'times'
p403
I33
sS'motion'
p404
I34
sS'bakery)'
p405
I34
sS'afternoon'
p406
I34
sS'enough'
p407
I34
sS'loud'
p408
I34
sS'think'
p409
I29
sS'waitress'
p410
I34
sS'first'
p411
I33
sS'blind'
p412
I34
sS'enjoy'
p413
I34
sS'already'
p414
I32
sS'xo'
p415
I33
sS'feel'
p416
I31
sS'staring'
p417
I34
sS'one'
p418
I26
sS'twat'
p419
I34
sS'lol..nows'
p420
I34
sS'done'
p421
I34
sS'bitch'
p422
I31
sS'another'
p423
I34
sS'fees'
p424
I34
sS'miserable'
p425
I34
sS'impossible'
p426
I34
sS'blows'
p427
I34
sS'miss'
p428
I33
sS'tomorrow'
p429
I33
sS'engineer'
p430
I34
sS"doesn't"
p431
I32
sS'story'
p432
I33
sS'long'
p433
I34
sS'guaranteeing'
p434
I34
sS'los'
p435
I34
sS'revealed'
p436
I34
sS'top'
p437
I34
sS'girls'
p438
I33
sS'vagina'
p439
I34
sS'least'
p440
I34
sS'plastic'
p441
I34
sS'their'
p442
I32
sS'rony'
p443
I34
sS'tragic'
p444
I34
sS'too'
p445
I30
sS'passed'
p446
I34
sS'wrapped'
p447
I34
sS'sure)'
p448
I34
sS'irritates'
p449
I34
sS"feelin'"
p450
I34
sS'really'
p451
I34
sS'final'
p452
I34
sS'friend'
p453
I33
sS'\xeb\x8b\xa4\xed\x96\x89\xec\x9d\xb4\xeb\x8b\xa4'
p454
I34
sS'eyes'
p455
I34
sS'murder'
p456
I34
sS'storm'
p457
I34
sS'that'
p458
I13
sS'doomed'
p459
I34
sS'released'
p460
I32
sS'nigga'
p461
I34
sS'somewhat'
p462
I34
sS'basin\xe2\x80\xa6'
p463
I34
sS'loving'
p464
I34
sS'probably'
p465
I34
sS'trolls'
p466
I34
sS'interviewer'
p467
I34
sS'herself'
p468
I34
sS'than'
p469
I28
sS'boyfriend'
p470
I34
sS'13'
p471
I34
sS'bid'
p472
I34
sS'lmao'
p473
I32
sS'days...where'
p474
I34
sS'depressed'
p475
I33
sS'boring'
p476
I33
sS'ceiling/ceiling'
p477
I34
sS'tree'
p478
I34
sS'royal'
p479
I34
sS'bed'
p480
I33
sS'shower'
p481
I33
sS'r'
p482
I34
sS'vocals'
p483
I34
sS'supposed'
p484
I34
sS'were'
p485
I33
sS'feeling'
p486
I34
sS'janitor'
p487
I34
sS'and'
p488
I7
sS'mini'
p489
I34
sS'coconut'
p490
I34
sS'fashion'
p491
I34
sS'whut'
p492
I34
sS'slay'
p493
I33
sS'<\\3'
p494
I34
sS'appreciate'
p495
I34
sS'pass'
p496
I34
sS'mind'
p497
I34
sS'mine'
p498
I34
sS'tracklisting'
p499
I33
sS'tonight'
p500
I33
sS'talking'
p501
I31
sS'say'
p502
I31
sS'>>>>>'
p503
I34
sS'have'
p504
I25
sS'nighty-nite'
p505
I34
sS'need'
p506
I33
sS'any'
p507
I30
sS'tho'
p508
I30
sS'forgive'
p509
I34
sS'person'
p510
I34
sS'shorts'
p511
I34
sS'-'
p512
I32
sS'gravity'
p513
I34
sS'okie'
p514
I34
sS'omfg'
p515
I34
sS'internal'
p516
I34
sS'take'
p517
I32
sS'laughed'
p518
I33
sS'hoods'
p519
I34
sS'tracklist'
p520
I31
sS'julep'
p521
I34
sS'blue'
p522
I34
sS'sure'
p523
I33
sS'though'
p524
I23
sS'track'
p525
I33
sS'doin'
p526
I34
sS'who'
p527
I29
sS"where's"
p528
I34
sS'most'
p529
I33
sS'drains'
p530
I34
sS'nothing'
p531
I32
sS'kiddies'
p532
I34
sS'doh'
p533
I33
sS'muscle'
p534
I34
sS'episode'
p535
I34
sS'anymore...too'
p536
I34
sS'sometimes'
p537
I34
sS'cover'
p538
I29
sS'dog'
p539
I34
sS'\xec\x98\xa4\xeb\x8a\x98'
p540
I34
sS'giving'
p541
I34
sS'sunset'
p542
I34
sS'pineapple'
p543
I34
sS'\xe2\x98\x80\xef\xb8\x8f'
p544
I34
sS'link'
p545
I34
sS'd...\xe2\x80\x9d'
p546
I34
sS'left'
p547
I34
sS'painting'
p548
I34
sS'wow'
p549
I34
sS'fact'
p550
I33
sS'amazeeeee'
p551
I34
sS'saying'
p552
I33
sS'ugh'
p553
I30
sS'shot'
p554
I33
sS'lyrics'
p555
I34
sS'show'
p556
I34
sS'german'
p557
I34
sS'text'
p558
I34
sS"dsn't"
p559
I34
sS'bring'
p560
I33
sS'"nooooooo"'
p561
I34
sS'(behind\xe2\x80\xa6'
p562
I34
sS'lol\xe2\x80\x9dlmaooooo'
p563
I34
sS'feat'
p564
I34
sS'busy'
p565
I34
sS'front'
p566
I34
sS'nervous'
p567
I34
sS'dick'
p568
I34
sS'fans'
p569
I33
sS'start'
p570
I34
sS'should'
p571
I32
sS'woof'
p572
I33
sS'only'
p573
I29
sS'going'
p574
I31
sS'satan'
p575
I34
sS'touched'
p576
I34
sS'pretty'
p577
I32
sS'photo'
p578
I34
sS'announce'
p579
I34
sS'watching'
p580
I34
sS'handsome'
p581
I33
sS'local'
p582
I34
sS'oct'
p583
I33
sS'hope'
p584
I33
sS'do'
p585
I25
sS'pre-nap'
p586
I34
sS'his'
p587
I33
sS'handle'
p588
I34
sS'dk'
p589
I34
sS'get'
p590
I22
sS'dd'
p591
I34
sS'express'
p592
I34
sS'stop'
p593
I32
sS'kind'
p594
I34
sS'trees'
p595
I34
sS'pillowcase'
p596
I34
sS'tbh'
p597
I34
sS"bob's"
p598
I34
sS'ones'
p599
I33
sS'interviews'
p600
I34
sS'clubs'
p601
I34
sS'despite'
p602
I34
sS'him'
p603
I31
sS'14'
p604
I34
sS"gaga's"
p605
I34
sS'\xea\xb7\xb8\xeb\x9e\x98\xec\x84\x9c'
p606
I34
sS'autistic'
p607
I34
sS'joanne'
p608
I34
sS'sweaters'
p609
I34
sS'morning'
p610
I34
sS'naked'
p611
I34
sS'bad'
p612
I34
sS'stuff'
p613
I34
sS'she'
p614
I25
sS'feb/march'
p615
I34
sS'release'
p616
I33
sS'night...your'
p617
I34
sS'angeles'
p618
I34
sS'river'
p619
I32
sS'where'
p620
I29
sS'greetings'
p621
I34
sS"y'all"
p622
I33
sS'mmm'
p623
I34
sS'btw'
p624
I33
sS'art'
p625
I34
sS'honesty'
p626
I34
sS'cynical'
p627
I34
sS'w/'
p628
I34
sS'lazy'
p629
I34
sS'see'
p630
I28
sS'decided'
p631
I34
sS'asleep'
p632
I34
sS'are'
p633
I24
sS'honor*'
p634
I34
sS'o_o'
p635
I34
sS'best'
p636
I32
sS'wonder'
p637
I34
sS'said'
p638
I32
sS'sexxx'
p639
I34
sS'sorta'
p640
I34
sS'movie'
p641
I34
sS'away'
p642
I33
sS'please'
p643
I33
sS'rejecting'
p644
I34
sS'behind'
p645
I33
sS"there's"
p646
I34
sS'gaga'
p647
I32
sS'notice'
p648
I34
sS'silly'
p649
I34
sS'reading'
p650
I34
sS'monsters'
p651
I32
sS'knowing'
p652
I34
sS'then*'
p653
I34
sS'we'
p654
I31
sS'men'
p655
I34
sS'commence'
p656
I34
sS'literally'
p657
I34
sS'attention'
p658
I34
sS'weak'
p659
I34
sS'ww'
p660
I33
sS'nd'
p661
I34
sS'coffee'
p662
I34
sS'wtf'
p663
I30
sS'jog'
p664
I34
sS'precious'
p665
I33
sS'come'
p666
I33
sS'legit'
p667
I34
sS'thumb'
p668
I34
sS'both'
p669
I34
sS'hits'
p670
I34
sS'legendary'
p671
I34
sS'last'
p672
I33
sS'now...-_-'
p673
I34
sS'restaurant'
p674
I34
sS'many'
p675
I34
sS'ill'
p676
I34
sS"he's"
p677
I34
sS'busted'
p678
I34
sS'aura'
p679
I33
sS'retarded'
p680
I34
sS'awkward'
p681
I34
sS'whole'
p682
I33
sS'"green'
p683
I34
sS"can't"
p684
I29
sS'\xea\xb9\x8c\xec\xa7\x80\xeb\x9d\xbc\xea\xb3\xa0'
p685
I34
sS'collecting'
p686
I34
sS'drunk'
p687
I33
sS'color'
p688
I34
sS'sweet'
p689
I33
sS'2nd'
p690
I34
sS"couldn't"
p691
I34
sS'geez'
p692
I34
sS'respect'
p693
I34
sS'pod'
p694
I34
sS'\xed\x88\xac\xed\x91\x9c\xec\xa7\x80'
p695
I34
sS'motto'
p696
I34
sS'sunday'
p697
I34
sS'600'
p698
I34
sS'late'
p699
I34
sS'aiming'
p700
I34
sS"that....i'm"
p701
I34
sS'yay'
p702
I34
sS'grand'
p703
I34
sS'addition'
p704
I34
sS"it's"
p705
I19
sS'create'
p706
I34
sS'texans'
p707
I34
sS'daily'
p708
I34
sS'three'
p709
I33
sS'been'
p710
I32
sS"out!!!'"
p711
I34
sS'much'
p712
I29
sS'"lady'
p713
I34
sS'sucks'
p714
I34
sS'basin'
p715
I28
sS'donatella'
p716
I33
sS'mary'
p717
I34
sS'woke'
p718
I33
sS'>'
p719
I34
sS'wants'
p720
I34
sS'life'
p721
I34
sS'shopping'
p722
I34
sS'easy'
p723
I34
sS'sending'
p724
I34
sS'am'
p725
I34
sS"what's"
p726
I34
sS'listing'
p727
I34
sS'sooooo'
p728
I34
sS'goddess'
p729
I34
sS'else'
p730
I34
sS'anthony'
p731
I34
sS'wake'
p732
I34
sS'demand'
p733
I34
sS'sad'
p734
I34
sS'those'
p735
I32
sS'myself'
p736
I34
sS'atmospheric'
p737
I34
sS'look'
p738
I32
sS'these'
p739
I31
sS'vimeo'
p740
I34
sS'straight'
p741
I34
sS'xtine'
p742
I34
sS'single'
p743
I33
sS'humanity'
p744
I34
sS'will'
p745
I26
sS'while'
p746
I34
sS'neat'
p747
I34
sS'hahaha'
p748
I34
sS'fun'
p749
I34
sS'building'
p750
I34
sS'taking'
p751
I34
sS'shepard'
p752
I34
sS'almost'
p753
I33
sS'is'
p754
I5
sS'it'
p755
I14
sS'rip'
p756
I34
sS'middle'
p757
I34
sS'good'
p758
I32
sS"(i'm"
p759
I34
sS'in'
p760
I5
sS'heels'
p761
I34
sS'pics'
p762
I34
sS'worry'
p763
I33
sS'if'
p764
I26
sS'tattoo'
p765
I34
sS'confirmed'
p766
I34
sS'hound'
p767
I34
sS'combination'
p768
I34
sS'anymore'
p769
I34
sS'perhaps'
p770
I34
sS'things'
p771
I34
sS'make'
p772
I28
sS'same'
p773
I32
sS'transcribing'
p774
I34
sS'newsletter'
p775
I34
sS'complex'
p776
I34
sS'swift'
p777
I34
sS'lovers'
p778
I34
sS'yessir'
p779
I33
sS'9'
p780
I34
sS'party'
p781
I33
sS'couple'
p782
I34
sS'week'
p783
I33
sS'outside'
p784
I34
sS'ball'
p785
I34
sS'promo'
p786
I33
sS'birthed'
p787
I34
sS'evil'
p788
I34
sS'holidays'
p789
I34
sS'hbu'
p790
I34
sS'moment'
p791
I33
sS'waterfall'
p792
I34
sS'moving'
p793
I34
sS'taste'
p794
I34
sS"would've"
p795
I34
sS'jealous'
p796
I34
sS'chateau'
p797
I34
sS'understand'
p798
I34
sS'posted'
p799
I34
sS'tracking'
p800
I34
sS'off'
p801
I28
sS'aunts'
p802
I34
sS'kicked'
p803
I34
sS'fully'
p804
I34
sS'i'
p805
I2
sS'changes'
p806
I34
sS'incredible'
p807
I34
sS'well'
p808
I30
sS'thought'
p809
I33
sS'text/call'
p810
I34
sS'without'
p811
I34
sS'comes'
p812
I33
sS'very'
p813
I33
sS'position'
p814
I34
sS'the'
p815
I1
sS'bumping'
p816
I34
sS'entangled'
p817
I34
sS'neighborhood'
p818
I34
sS"she'll"
p819
I34
sS'\xe2\x98\xba\xef\xb8\x8f'
p820
I34
sS'just'
p821
I21
sS'being'
p822
I30
sS'able'
p823
I33
sS'botticelli'
p824
I34
sS'rest'
p825
I34
sS'flea'
p826
I34
sS'pissing'
p827
I33
sS'thanks'
p828
I31
sS'touch'
p829
I33
sS'yes'
p830
I30
sS'guys'
p831
I34
sS'announcement'
p832
I34
sS'cut'
p833
I34
sS'also'
p834
I34
sS'thinking'
p835
I33
sS'seems'
p836
I34
sS'5:50am'
p837
I34
sS'had'
p838
I32
sS'-_-'
p839
I34
sS'knew'
p840
I34
sS'realize'
p841
I34
sS'sixflags'
p842
I34
sS'belongs'
p843
I34
sS'9:30'
p844
I34
sS'4'
p845
I34
sS'crying'
p846
I34
sS'crack'
p847
I34
sS'has'
p848
I32
sS'excited'
p849
I33
sS'cuh'
p850
I34
sS'sonic'
p851
I34
sS'around'
p852
I34
sS'spost'
p853
I34
sS'showing'
p854
I32
sS'splenda'
p855
I34
sS'possible'
p856
I34
sS'gonna'
p857
I34
sS'early'
p858
I34
sS'haul'
p859
I34
sS'mhm'
p860
I34
sS'know'
p861
I31
sS'mom'
p862
I34
sS'judge'
p863
I34
sS'world'
p864
I34
sS'bit'
p865
I34
sS'incessant'
p866
I34
sS'lady'
p867
I34
sS'dreams'
p868
I34
sS'brought'
p869
I34
sS'clam'
p870
I34
sS'like'
p871
I26
sS'lost'
p872
I34
sS'leadaaaaa'
p873
I34
sS'piece'
p874
I34
sS'candy'
p875
I34
sS'true'
p876
I34
sS'burgers'
p877
I34
sS'indication'
p878
I34
sS'laughing'
p879
I33
sS'$275'
p880
I34
sS'night'
p881
I30
sS'works'
p882
I34
sS'page'
p883
I34
sS'italian'
p884
I34
sS'right'
p885
I29
sS'old'
p886
I34
sS'school'
p887
I34
sS'people'
p888
I31
sS'fucking'
p889
I27
sS'twitter'
p890
I34
sS'some'
p891
I32
sS'back'
p892
I29
sS'chris'
p893
I34
sS'trends'
p894
I34
sS'added'
p895
I34
sS'fingering'
p896
I34
sS'paperjam'
p897
I34
sS'mirror'
p898
I34
sS'home'
p899
I29
sS'guess'
p900
I33
sS"rockin'"
p901
I34
sS'yesss'
p902
I33
sS'hipsters'
p903
I34
sS'for'
p904
I9
sS'confirm'
p905
I34
sS'drop'
p906
I34
sS'avoid'
p907
I34
sS'fox'
p908
I34
sS"'i'm"
p909
I34
sS'everything'
p910
I32
sS'does'
p911
I34
sS'popstar'
p912
I34
sS'superiority'
p913
I34
sS'speak'
p914
I34
sS'prob'
p915
I33
sS'victory'
p916
I34
sS'be'
p917
I17
sS'\xeb\xaa\xbb\xeb\xb0\x95\xec\x95\x98\xec\x9e\x94\xec\x9d\x8c?\xe2\x80\x9d'
p918
I34
sS'eating'
p919
I34
sS'truth'
p920
I34
sS'power'
p921
I34
sS'plz'
p922
I34
sS'cork'
p923
I34
sS'how'
p924
I25
sS'few'
p925
I34
sS'eye'
p926
I34
sS';)'
p927
I30
sS'rt'
p928
I34
sS'super'
p929
I34
sS'by'
p930
I32
sS'hearing'
p931
I34
sS'on'
p932
I18
sS'about'
p933
I28
sS'actual'
p934
I34
sS'working'
p935
I34
sS'anything'
p936
I34
sS'oh'
p937
I31
sS'of'
p938
I8
sS'favorite'
p939
I32
sS'headed'
p940
I34
sS'mixes'
p941
I33
sS'drama'
p942
I34
sS'mofo'
p943
I34
sS'fell'
p944
I34
sS'plus'
p945
I34
sS'idk'
p946
I33
sS'learning'
p947
I34
sS'fluorescent'
p948
I34
sS'wanna'
p949
I32
sS'or'
p950
I34
sS'noho'
p951
I34
sS'ppl'
p952
I34
sS'seeing'
p953
I34
sS'own'
p954
I33
sS'voz\xe2\x80\x9d'
p955
I34
sS"wouldn't"
p956
I34
sS'press'
p957
I34
sS'pero'
p958
I34
sS'selfie'
p959
I34
sS'garb'
p960
I34
sS'due'
p961
I34
sS'phase'
p962
I34
sS'because'
p963
I31
sS'dreaming'
p964
I34
sS'lovely'
p965
I34
sS'your'
p966
I25
sS'computer'
p967
I34
sS"how's"
p968
I34
sS'her'
p969
I27
sS'area'
p970
I28
sS'removing'
p971
I34
sS'there'
p972
I32
sS'>>>>'
p973
I34
sS'hey'
p974
I34
sS'lol'
p975
I20
sS'strip'
p976
I34
sS'spread'
p977
I34
sS'lonely'
p978
I34
sS"we're"
p979
I32
sS'jane'
p980
I34
sS'bored'
p981
I34
sS'was'
p982
I17
sS'pasadena'
p983
I34
sS'happy'
p984
I32
sS'royalties'
p985
I34
sS'head'
p986
I34
sS'buy'
p987
I34
sS'complete'
p988
I34
sS"i've"
p989
I32
sS'constantly'
p990
I34
sS'basic'
p991
I34
sS'lawn'
p992
I34
sS'but'
p993
I27
sS'jus'
p994
I34
sS'hi'
p995
I33
sS'aww'
p996
I34
sS'track-list'
p997
I34
sS'trying'
p998
I33
sS'with'
p999
I23
sS'entered'
p1000
I34
sS'buying'
p1001
I34
sS'he'
p1002
I30
sS'waste'
p1003
I34
sS'tinychat'
p1004
I34
sS'wish'
p1005
I33
sS'inside'
p1006
I32
sS'up'
p1007
I25
sS'us'
p1008
I34
sS'until'
p1009
I34
sS'um'
p1010
I33
sS'tyhime'
p1011
I34
sS'werkin'
p1012
I34
sS'homo'
p1013
I34
sS'complications'
p1014
I34
sS'fried'
p1015
I34
sS'minutes'
p1016
I34
sS'called'
p1017
I33
sS'recognition'
p1018
I34
sS'shes'
p1019
I34
sS'settled'
p1020
I34
sS'taylor'
p1021
I34
sS'associated'
p1022
I34
sS'butthole'
p1023
I33
sS'exhausted'
p1024
I34
sS'accents'
p1025
I34
sS';d'
p1026
I34
sS'listening'
p1027
I34
sS'thru'
p1028
I34
sS'an'
p1029
I27
sS'as'
p1030
I27
sS'at'
p1031
I23
sS'aw'
p1032
I34
sS'playin'
p1033
I34
sS'mya'
p1034
I34
sS'annoying'
p1035
I30
sS'trip'
p1036
I34
sS'shit'
p1037
I29
sS'hit'
p1038
I34
sS'again'
p1039
I34
sS'6th'
p1040
I34
sS'dying'
p1041
I33
sS'no'
p1042
I26
sS'sepulveda'
p1043
I27
sS'deserve'
p1044
I34
sS'insane'
p1045
I34
sS'relax'
p1046
I34
sS'when'
p1047
I23
sS'treatment'
p1048
I34
sS'40'
p1049
I34
sS'afford'
p1050
I34
sS'prism'
p1051
I34
sS'other'
p1052
I33
sS'5'
p1053
I33
sS'vacation'
p1054
I34
sS'beige'
p1055
I34
sS'you'
p1056
I12
sS'trash'
p1057
I33
sS'garbage'
p1058
I34
sS'nice'
p1059
I34
sS'poor'
p1060
I34
sS'boos'
p1061
I34
sS'deaf'
p1062
I34
sS'tho...can'
p1063
I34
sS'june'
p1064
I34
sS"let's"
p1065
I34
sS'\xe2\x80\xa0'
p1066
I34
sS'perry'
p1067
I34
sS'serious'
p1068
I34
sS'included'
p1069
I34
sS'friends'
p1070
I34
sS'ago'
p1071
I33
sS'tweeting'
p1072
I34
sS'applause'
p1073
I34
sS'calls'
p1074
I33
sS"life's"
p1075
I34
sS'together'
p1076
I33
sS'scream'
p1077
I34
sS'exhausting'
p1078
I34
sS'u'
p1079
I33
sS'incomplete'
p1080
I34
sS'time'
p1081
I26
sS"she's"
p1082
I33
sS'frypretty'
p1083
I34
sS'songs'
p1084
I31
s.