(dp0
S''
p1
I1
sS'all'
p2
I16
sS':/'
p3
I23
sS'd\xc3\xada'
p4
I23
sS'messi'
p5
I23
sS'lack'
p6
I23
sS'gf'
p7
I23
sS'sleep'
p8
I22
sS'hating'
p9
I23
sS'go'
p10
I16
sS'childi'
p11
I23
sS'moon'
p12
I23
sS'hate'
p13
I21
sS'documentary'
p14
I23
sS'pedro'
p15
I23
sS'buddy'
p16
I23
sS'lmfao,90004\n480157407872417793,bigdaddy_lily,2014-06-21'
p17
I23
sS'tv'
p18
I23
sS'j.cole'
p19
I23
sS'wassup'
p20
I23
sS'emberassing'
p21
I23
sS'to'
p22
I4
sS'finally'
p23
I20
sS'smile'
p24
I20
sS'sorry'
p25
I23
sS'pride'
p26
I23
sS'town'
p27
I22
sS'woman'
p28
I23
sS'lessons'
p29
I23
sS'very'
p30
I22
sS'fat'
p31
I23
sS':c'
p32
I23
sS"driver's"
p33
I23
sS'tune-up'
p34
I23
sS'fan'
p35
I23
sS'fall'
p36
I23
sS'bulgogi'
p37
I23
sS'nerve'
p38
I23
sS'cool'
p39
I22
sS'tri'
p40
I23
sS'school'
p41
I22
sS'level'
p42
I23
sS'did'
p43
I21
sS'turns'
p44
I23
sS'peeps'
p45
I23
sS'brother'
p46
I23
sS'*3005'
p47
I23
sS'large'
p48
I23
sS'red'
p49
I23
sS'team'
p50
I23
sS'quick'
p51
I23
sS'guy'
p52
I23
sS'9pm'
p53
I23
sS"i'll"
p54
I22
sS'someday'
p55
I23
sS'ocha'
p56
I21
sS'angeles)'
p57
I23
sS'tired'
p58
I23
sS'tea'
p59
I23
sS'penalties'
p60
I23
sS'hanging'
p61
I23
sS'22:25:15.0,34.0762871,-118.2954572,2112.02,i'
p62
I23
sS'\xee\x90\x83'
p63
I22
sS'\xee\x90\x82'
p64
I23
sS'jump'
p65
I23
sS'battle'
p66
I23
sS'video'
p67
I23
sS'uncomfortable'
p68
I23
sS'flugtag'
p69
I23
sS'what'
p70
I15
sS'hide'
p71
I23
sS'00:30:38.0,34.0761716,-118.2955533,2112.02,disrespectful'
p72
I23
sS'nana'
p73
I23
sS'sape'
p74
I23
sS'\xee\x90\xa7'
p75
I23
sS'caffeine'
p76
I23
sS'cosmopolitanau'
p77
I23
sS'fuckn'
p78
I23
sS'sooooooooo'
p79
I23
sS'cars'
p80
I23
sS'new'
p81
I21
sS'learned'
p82
I23
sS'ever'
p83
I22
sS'godly'
p84
I23
sS'filled'
p85
I23
sS'gawd'
p86
I22
sS'full'
p87
I23
sS'never'
p88
I22
sS'here'
p89
I22
sS'hours'
p90
I23
sS'\xe2\x9d\xa4\xef\xb8\x8f'
p91
I21
sS'half-naked'
p92
I23
sS'studio'
p93
I23
sS'separation'
p94
I23
sS'others'
p95
I23
sS'sing'
p96
I23
sS'18:59:03.0,34.0762863,-118.2956328,2112.02,seen,90004\n480062147473317888,bigdaddy_lily,2014-06-20'
p97
I23
sS'teacher'
p98
I23
sS'wait'
p99
I21
sS'dry'
p100
I23
sS'boy'
p101
I23
sS'great'
p102
I20
sS'stupor'
p103
I23
sS'\xe2\x9a\xbd\xef\xb8\x8f'
p104
I23
sS'update...for'
p105
I23
sS'31'
p106
I23
sS'!,90004\n480136794206257153,bigdaddy_lily,2014-06-20'
p107
I23
sS'experience'
p108
I23
sS'itunes'
p109
I23
sS'.,90004\n491285693465776129,bigdaddy_lily,2014-07-21'
p110
I23
sS"i'd"
p111
I23
sS'agatha'
p112
I23
sS'boo'
p113
I23
sS'bp'
p114
I23
sS"i'm"
p115
I16
sS"someone's"
p116
I23
sS'makes'
p117
I23
sS'asf'
p118
I23
sS'remembering'
p119
I23
sS'love'
p120
I13
sS'drums'
p121
I23
sS'win'
p122
I21
sS'vibe,90004\n480109448375971840,bigdaddy_lily,2014-06-20'
p123
I23
sS'brought'
p124
I23
sS'ask'
p125
I23
sS'semester'
p126
I23
sS'toys'
p127
I22
sS'18:30:27.0,34.0761664,-118.295608,2112.02,my'
p128
I23
sS'singing'
p129
I23
sS'everybody'
p130
I23
sS'fed'
p131
I23
sS'from'
p132
I18
sS'troops'
p133
I23
sS'working'
p134
I21
sS'&'
p135
I20
sS'sake'
p136
I23
sS'chi'
p137
I23
sS'goodness'
p138
I23
sS'give'
p139
I23
sS'dude'
p140
I23
sS'two'
p141
I23
sS'flat'
p142
I23
sS'next'
p143
I20
sS'85%'
p144
I23
sS'ca)'
p145
I23
sS'examination'
p146
I23
sS'iphone'
p147
I23
sS'recommend'
p148
I23
sS'taken'
p149
I23
sS'tell'
p150
I21
sS'today'
p151
I19
sS'more'
p152
I20
sS'twerked'
p153
I23
sS'wretched'
p154
I23
sS'babe'
p155
I23
sS'knows'
p156
I21
sS'haha'
p157
I22
sS'sister'
p158
I23
sS'site'
p159
I23
sS'phone'
p160
I23
sS'stick'
p161
I23
sS'lord'
p162
I23
sS'baby'
p163
I22
sS'\xe2\x80\x9ctf'
p164
I23
sS'hurry'
p165
I23
sS'me'
p166
I13
sS'keeping'
p167
I23
sS"captain's"
p168
I23
sS'ma'
p169
I23
sS',90004\n505433630475177984,bigdaddy_lily,2014-08-29'
p170
I23
sS'hour'
p171
I22
sS'niggas'
p172
I20
sS'this'
p173
I13
sS'car'
p174
I20
sS'work'
p175
I22
sS'sucks'
p176
I23
sS'soul'
p177
I23
sS'cat'
p178
I23
sS'del'
p179
I23
sS'can'
p180
I21
sS'v'
p181
I22
sS'making'
p182
I23
sS'my'
p183
I6
sS'18:37:06.0,34.0762208,-118.29545,2112.02,happy'
p184
I23
sS'history'
p185
I23
sS'beautiful'
p186
I20
sS'reserved'
p187
I23
sS'monica'
p188
I22
sS"didn't"
p189
I21
sS'fuck'
p190
I23
sS'lazy\xe2\x80\x94the'
p191
I23
sS'something'
p192
I23
sS'want'
p193
I21
sS"pothead's"
p194
I23
sS'wonderful'
p195
I23
sS'times'
p196
I23
sS'martin.lol'
p197
I23
sS'sis'
p198
I23
sS'sir'
p199
I23
sS'end'
p200
I23
sS'means'
p201
I23
sS'feature'
p202
I23
sS'lounge'
p203
I21
sS'how'
p204
I18
sS'xxxo'
p205
I23
sS'cooool'
p206
I23
sS'beach'
p207
I23
sS'wrecking'
p208
I23
sS'laundry'
p209
I22
sS'plans'
p210
I22
sS'beauty'
p211
I23
sS'watch'
p212
I23
sS'blasting'
p213
I23
sS'(;,90004\n494900049130696705,bigdaddy_lily,2014-07-31'
p214
I23
sS'collection'
p215
I23
sS'tries'
p216
I23
sS'birthday'
p217
I22
sS'sonor'
p218
I23
sS'date'
p219
I22
sS'such'
p220
I23
sS'law'
p221
I23
sS'guys'
p222
I22
sS'knkw'
p223
I23
sS'man'
p224
I21
sS'a'
p225
I3
sS'normandie'
p226
I23
sS'remember'
p227
I22
sS'.,90004\n503363151627571201,bigdaddy_lily,2014-08-24'
p228
I23
sS';*'
p229
I23
sS'8-1'
p230
I23
sS'on\xe2\x80\xa6'
p231
I23
sS'so'
p232
I14
sS'playing'
p233
I22
sS"that's"
p234
I23
sS'cute'
p235
I22
sS'28-3'
p236
I23
sS'mexican'
p237
I22
sS'shoes'
p238
I22
sS"don't"
p239
I19
sS'food'
p240
I23
sS'essence'
p241
I23
sS'move'
p242
I23
sS'soon'
p243
I20
sS'jiro'
p244
I23
sS'own'
p245
I23
sS'looks'
p246
I23
sS'cuts'
p247
I23
sS'cold'
p248
I22
sS'still'
p249
I21
sS'"healthy"'
p250
I23
sS'mayor'
p251
I22
sS'ono'
p252
I23
sS'perfect'
p253
I23
sS'1'
p254
I23
sS'comedic'
p255
I23
sS'20'
p256
I23
sS'thank'
p257
I22
sS'la'
p258
I21
sS'personal'
p259
I23
sS'interesting'
p260
I22
sS'dreamer.celebrating'
p261
I23
sS'late'
p262
I22
sS'espn2'
p263
I23
sS'covered'
p264
I23
sS'soccer'
p265
I20
sS'pixel'
p266
I23
sS"haven't"
p267
I22
sS'tmro'
p268
I23
sS'then'
p269
I23
sS'them'
p270
I20
sS'good'
p271
I18
sS'calm'
p272
I23
sS'ya'
p273
I21
sS'dam'
p274
I21
sS'thee'
p275
I23
sS'safe'
p276
I23
sS'\xee\x84\x88,90004\n480081463224696832,bigdaddy_lily,2014-06-20'
p277
I23
sS'uhh'
p278
I23
sS'they'
p279
I20
sS'half'
p280
I22
sS'not'
p281
I16
sS'ninja'
p282
I23
sS'now'
p283
I20
sS'day'
p284
I17
sS'radio*'
p285
I23
sS'asff'
p286
I23
sS'*bear'
p287
I23
sS'noooooobody'
p288
I23
sS'sleeve'
p289
I23
sS'always'
p290
I20
sS'attacks,90004\n494189893589819393,bigdaddy_lily,2014-07-29'
p291
I23
sS'luna'
p292
I23
sS'4:48'
p293
I23
sS'rocks'
p294
I23
sS'vege'
p295
I23
sS'00:16:03.0,34.0762164,-118.2955172,2112.02,droped'
p296
I23
sS'denmark'
p297
I23
sS'found'
p298
I22
sS'went'
p299
I23
sS'cl\xc3\xa1sico'
p300
I22
sS'mean'
p301
I16
sS'el'
p302
I23
sS'en'
p303
I23
sS'lotto'
p304
I23
sS'doing'
p305
I22
sS'house'
p306
I22
sS'name\xee\x90\x92,90004\n479750396739461120,bigdaddy_lily,2014-06-19'
p307
I23
sS'yeah'
p308
I23
sS'22:06:27.0,34.0762922,-118.295707,2112.02,im'
p309
I23
sS'martin'
p310
I23
sS'manifesto'
p311
I23
sS'dammm,90004\n480081612298674176,bigdaddy_lily,2014-06-20'
p312
I23
sS'ex'
p313
I23
sS'lavanderia)'
p314
I23
sS'our'
p315
I22
sS'happen'
p316
I22
sS'saturday'
p317
I21
sS'special'
p318
I23
sS'out'
p319
I14
sS'rt'
p320
I23
sS'lovers'
p321
I23
sS'balcony'
p322
I23
sS"22:20:05.0,34.0762528,-118.295411,2112.02,jack's"
p323
I23
sS'00:42:29.0,34.0762846,-118.295633,2112.02,some'
p324
I23
sS'gonzales'
p325
I23
sS'ha'
p326
I23
sS'since'
p327
I20
sS'looking'
p328
I23
sS"i'm\xe2\x80\xa6"
p329
I23
sS'mate'
p330
I23
sS'7'
p331
I23
sS'\xee\x90\x92\xee\x90\x82,90004\n479750492029845504,bigdaddy_lily,2014-06-19'
p332
I23
sS'got'
p333
I17
sS'dominate'
p334
I23
sS'01:23:33.0,34.0762862,-118.2956396,2112.02,i'
p335
I23
sS'\xee\x90\x91\xee\x90\x94\xee\x90\x9f,90004\n480077492376436736,bigdaddy_lily,2014-06-20'
p336
I23
sS'fomie'
p337
I23
sS'ass'
p338
I20
sS"doesn't"
p339
I23
sS'frank'
p340
I23
sS'bby,90004\n500346900978343936,bigdaddy_lily,2014-08-15'
p341
I23
sS'gut'
p342
I23
sS'reaction"'
p343
I23
sS'reason'
p344
I23
sS'22:41:55.0,34.076276,-118.2952186,2112.02,these'
p345
I23
sS'vacations'
p346
I23
sS'besides'
p347
I23
sS'x'
p348
I23
sS'put'
p349
I22
sS'\xee\x84\x88,90004\n480109501496844288,bigdaddy_lily,2014-06-20'
p350
I23
sS'metallica'
p351
I23
sS'care'
p352
I23
sS':(\xe2\x80\x9d'
p353
I23
sS'could'
p354
I22
sS'hollywood'
p355
I23
sS'moment'
p356
I23
sS"wee's"
p357
I23
sS'keep'
p358
I23
sS'thing'
p359
I23
sS'american'
p360
I23
sS'fc'
p361
I23
sS'place'
p362
I22
sS'garlic'
p363
I23
sS'condom'
p364
I23
sS'yess'
p365
I22
sS'think'
p366
I22
sS'first'
p367
I21
sS'pleas'
p368
I23
sS'already'
p369
I18
sS'dont'
p370
I23
sS'mish'
p371
I23
sS'feel'
p372
I22
sS'symbolic'
p373
I23
sS'arsenal'
p374
I23
sS'one'
p375
I19
sS'wash'
p376
I20
sS'set'
p377
I23
sS'done'
p378
I22
sS'lol'
p379
I19
sS'another'
p380
I22
sS'miss'
p381
I19
sS'braces'
p382
I23
sS"you're"
p383
I23
sS'little'
p384
I23
sS'monkey'
p385
I23
sS'start'
p386
I23
sS'affirmation."'
p387
I23
sS'girls'
p388
I23
sS'bottle!!!\xe2\x80\x9d'
p389
I23
sS'2'
p390
I19
sS'too'
p391
I23
sS'time'
p392
I19
sS'white'
p393
I22
sS'olmo'
p394
I23
sS'famiy\xe2\x9d\xa4'
p395
I23
sS'imperfect'
p396
I23
sS'mostly'
p397
I23
sS'that'
p398
I18
sS'season'
p399
I23
sS'exactly'
p400
I23
sS'took'
p401
I23
sS'nigga'
p402
I23
sS'burrito'
p403
I23
sS'thai'
p404
I23
sS'believe'
p405
I23
sS'than'
p406
I22
sS"here's"
p407
I22
sS'12'
p408
I23
sS'\xee\x90\x92,90004\n480159222751969281,bigdaddy_lily,2014-06-21'
p409
I23
sS'typography'
p410
I23
sS'bed'
p411
I23
sS'crossroads'
p412
I23
sS'you\xe2\x80\xa6'
p413
I23
sS'22:42:52.0,34.0762848,-118.2956335,2112.02,smart'
p414
I23
sS'were'
p415
I22
sS'college'
p416
I23
sS'havnt'
p417
I23
sS'feeling'
p418
I23
sS'ousted'
p419
I22
sS'minus'
p420
I23
sS'and'
p421
I9
sS'gals'
p422
I23
sS'mind'
p423
I22
sS'gently'
p424
I23
sS'tonight'
p425
I19
sS'talking'
p426
I23
sS'say'
p427
I22
sS'yearned'
p428
I23
sS'fukk'
p429
I23
sS'have'
p430
I16
sS'need'
p431
I17
sS',90004\n510858059283853312,bigdaddy_lily,2014-09-13'
p432
I23
sS'any'
p433
I23
sS'18:17:37.0,34.0762174,-118.2954838,2112.02,my'
p434
I23
sS'v.v,90004\n479755058699980800,bigdaddy_lily,2014-06-19'
p435
I23
sS',90004\n510856432871145472,bigdaddy_lily,2014-09-13'
p436
I23
sS'-'
p437
I21
sS'ideas'
p438
I23
sS'homeboy'
p439
I23
sS'.,90004\n498181532964491264,bigdaddy_lily,2014-08-09'
p440
I23
sS'take'
p441
I22
sS'which'
p442
I23
sS'online'
p443
I23
sS'ego'
p444
I23
sS'lily'
p445
I23
sS'200'
p446
I23
sS'play'
p447
I23
sS'hunt'
p448
I23
sS'though'
p449
I23
sS'aww'
p450
I23
sS'most'
p451
I23
sS'grind..\xe2\x80\xa6'
p452
I23
sS'01:17:01.0,34.0762767,-118.2955047,2112.02,the'
p453
I23
sS'coin'
p454
I22
sS'why'
p455
I23
sS'achievement'
p456
I23
sS'southampton'
p457
I23
sS'picture'
p458
I23
sS'don'
p459
I23
sS"harder'\xe2\x80\x9d"
p460
I23
sS'feasting'
p461
I23
sS'later'
p462
I22
sS'cover'
p463
I23
sS'drive'
p464
I22
sS'kbox'
p465
I23
sS'face'
p466
I23
sS'looked'
p467
I23
sS'definitely'
p468
I23
sS'tech'
p469
I23
sS'\xe2\x98\x80\xef\xb8\x8f'
p470
I23
sS'01:06:34.0,34.0762771,-118.2953214,2112.02,rude'
p471
I23
sS'came'
p472
I23
sS'shop'
p473
I23
sS'catalina'
p474
I22
sS'show'
p475
I23
sS'jasleen'
p476
I23
sS'random'
p477
I23
sS'fingers'
p478
I23
sS'cruised'
p479
I23
sS'01:24:14.0,34.0762602,-118.2953275,2112.02,i'
p480
I23
sS'radio'
p481
I23
sS"zombie'ing"
p482
I23
sS'nines,90004\n480062288460648449,bigdaddy_lily,2014-06-20'
p483
I23
sS'with\xe2\x80\xa6'
p484
I23
sS'fine'
p485
I23
sS'02:42:32.0,34.0763014,-118.295484,2112.02,but'
p486
I23
sS'help'
p487
I23
sS'aint'
p488
I23
sS'pause'
p489
I23
sS'\xee\x90\x91\xee\x90\x91\xee\x84\x86\xee\x8c\xa9\xee\x8c\xae'
p490
I23
sS'bff'
p491
I23
sS'nigga!,90004\n480085685857034241,bigdaddy_lily,2014-06-20'
p492
I23
sS'music'
p493
I23
sS'('
p494
I21
sS'20:15:50.0,34.0762647,-118.2955485,2112.02,she'
p495
I23
sS'enough'
p496
I23
sS'should'
p497
I21
sS'only'
p498
I21
sS'going'
p499
I19
sS'pretty'
p500
I22
sS'folks'
p501
I23
sS'watching'
p502
I23
sS'rice'
p503
I23
sS'hope'
p504
I20
sS'yahhhhhhh'
p505
I23
sS'wearing'
p506
I23
sS'do'
p507
I19
sS'his'
p508
I22
sS'get'
p509
I19
sS'beat'
p510
I23
sS'there'
p511
I22
sS'flirting'
p512
I23
sS'stop'
p513
I20
sS'geting'
p514
I23
sS'tbh'
p515
I23
sS'responding'
p516
I23
sS'words'
p517
I23
sS'international'
p518
I23
sS'dt'
p519
I23
sS'tallon'
p520
I23
sS'grrrr'
p521
I23
sS'!,90004\n480154775862792193,bigdaddy_lily,2014-06-21'
p522
I23
sS'officially'
p523
I23
sS'orphans'
p524
I23
sS'morning'
p525
I23
sS'twice'
p526
I23
sS'bad'
p527
I22
sS'stupid'
p528
I22
sS'she'
p529
I19
sS'01:23:21.0,34.0762822,-118.295536,2112.02,it'
p530
I23
sS'where'
p531
I23
sS'xmas'
p532
I23
sS'quintessential'
p533
I23
sS"y'all"
p534
I23
sS'learn'
p535
I23
sS'freinds'
p536
I23
sS'warrior'
p537
I23
sS'national'
p538
I23
sS'18:16:51.0,34.0762574,-118.2956025,2112.02,taking'
p539
I23
sS'!,90004\n479756228361347073,bigdaddy_lily,2014-06-19'
p540
I23
sS'carrito'
p541
I23
sS'see'
p542
I21
sS'leslie'
p543
I22
sS'are'
p544
I17
sS'bb/heisenberg'
p545
I23
sS'best'
p546
I21
sS'luv'
p547
I23
sS'.,90004\n504422051659390976,bigdaddy_lily,2014-08-27'
p548
I23
sS'away'
p549
I22
sS'currently'
p550
I22
sS'its'
p551
I23
sS"father's"
p552
I23
sS'3'
p553
I23
sS"there's"
p554
I23
sS'notsoshyjohn'
p555
I23
sS'hopefully'
p556
I23
sS'getafe'
p557
I23
sS'solo'
p558
I22
sS'we'
p559
I19
sS'omg'
p560
I23
sS'lupe'
p561
I23
sS"rememberdon't"
p562
I23
sS'spoiled'
p563
I23
sS'killing'
p564
I22
sS'18:30:43.0,34.0762534,-118.2954214,2112.02,niggas'
p565
I23
sS'job'
p566
I23
sS'27'
p567
I23
sS'coffee'
p568
I23
sS'(los'
p569
I23
sS'merry'
p570
I23
sS'\xee\x90\x92\xee\x90\x98'
p571
I23
sS'outfit'
p572
I23
sS'come'
p573
I23
sS'cop'
p574
I23
sS'c'
p575
I22
sS'last'
p576
I20
sS'22:38:14.0,34.0763055,-118.2956563,2112.02,alright'
p577
I23
sS'met'
p578
I23
sS'many'
p579
I23
sS'too<3'
p580
I23
sS'rams'
p581
I23
sS'games'
p582
I23
sS'suede'
p583
I23
sS'let'
p584
I23
sS'whole'
p585
I22
sS"can't"
p586
I21
sS'ily'
p587
I22
sS'18:58:27.0,34.076203,-118.2955629,2112.02,last'
p588
I23
sS'lol,90004\n479786799900786688,bigdaddy_lily,2014-06-20'
p589
I23
sS'wtf'
p590
I23
sS'point'
p591
I23
sS'overview'
p592
I23
sS'cop\xe2\x80\xa6'
p593
I23
sS'nooooo'
p594
I23
sS'agents'
p595
I23
sS'cousin'
p596
I23
sS'table'
p597
I23
sS'expensive'
p598
I23
sS'duh'
p599
I23
sS'better'
p600
I22
sS'light'
p601
I23
sS'yay'
p602
I21
sS'23:55:06.0,34.0762865,-118.2956349,2112.02,shes'
p603
I23
sS'addition'
p604
I23
sS"it's"
p605
I22
sS'been'
p606
I21
sS'startled'
p607
I23
sS'damn'
p608
I23
sS'expected'
p609
I23
sS'nigga,90004\n480159053440483328,bigdaddy_lily,2014-06-21'
p610
I23
sS'woke'
p611
I22
sS'nooobody'
p612
I23
sS'wants'
p613
I22
sS'life'
p614
I22
sS'fire'
p615
I23
sS'races'
p616
I23
sS'oitnb'
p617
I23
sS'bull'
p618
I23
sS',90004\n504425722900127745,bigdaddy_lily,2014-08-27'
p619
I23
sS'spain'
p620
I22
sS'chuy'
p621
I23
sS'fur'
p622
I23
sS'woah'
p623
I23
sS'crossed'
p624
I23
sS'easyer'
p625
I23
sS'excited'
p626
I23
sS'will'
p627
I21
sS'visit'
p628
I23
sS'fun'
p629
I23
sS'ultra'
p630
I23
sS'study'
p631
I23
sS'!,90004\n508759607506780160,bigdaddy_lily,2014-09-07'
p632
I23
sS"18:22:51.0,34.0762991,-118.2955102,2112.02,mama's"
p633
I23
sS'<3'
p634
I23
sS'lol,90004\n479796612554698752,bigdaddy_lily,2014-06-20'
p635
I23
sS'is'
p636
I8
sS'it'
p637
I9
sS'sleeping'
p638
I23
sS'cant'
p639
I22
sS'someone'
p640
I23
sS'im'
p641
I21
sS'in'
p642
I9
sS'ready'
p643
I23
sS'obnoxious'
p644
I23
sS'if'
p645
I19
sS'01:29:41.0,34.0761906,-118.2955201,2112.02,i'
p646
I23
sS'bottles'
p647
I23
sS'beats'
p648
I23
sS'discipline'
p649
I23
sS'make'
p650
I21
sS'clearly'
p651
I23
sS'checking'
p652
I23
sS'18:25:39.0,34.0761882,-118.2955209,2112.02,before'
p653
I23
sS'castillo'
p654
I23
sS'storify'
p655
I23
sS'party'
p656
I23
sS'emojis'
p657
I23
sS'18:23:59.0,34.0761772,-118.2955772,2112.02,my'
p658
I23
sS'difficult'
p659
I23
sS'week'
p660
I20
sS'finish'
p661
I23
sS'classmates'
p662
I23
sS'keys'
p663
I23
sS'reppn'
p664
I23
sS'drink'
p665
I22
sS'hang'
p666
I22
sS'fucker'
p667
I23
sS'fucken'
p668
I23
sS'fruit'
p669
I23
sS'barber'
p670
I23
sS'kim'
p671
I23
sS'jealous'
p672
I23
sS'smell'
p673
I23
sS'recent'
p674
I23
sS'characters'
p675
I23
sS'off'
p676
I21
sS'people"'
p677
I23
sS'thx'
p678
I23
sS'i'
p679
I2
sS"dad's"
p680
I23
sS'22:06:39.0,34.0762073,-118.295411,2112.02,bitch'
p681
I23
sS'spent'
p682
I23
sS'thought'
p683
I23
sS'burgers'
p684
I23
sS'de'
p685
I23
sS'22:19:42.0,34.0762458,-118.2953953,2112.02,i'
p686
I23
sS'bottle'
p687
I23
sS'coliseum'
p688
I23
sS'the'
p689
I5
sS'yours'
p690
I23
sS'latest'
p691
I22
sS'summer'
p692
I23
sS'!,90004\n479755987667005441,bigdaddy_lily,2014-06-19'
p693
I23
sS'just'
p694
I14
sS'being'
p695
I20
sS'low,90004\n479751794487074816,bigdaddy_lily,2014-06-19'
p696
I23
sS'seen'
p697
I23
sS'grades'
p698
I23
sS'kill'
p699
I22
sS'wifey'
p700
I23
sS'human'
p701
I23
sS'behind'
p702
I23
sS'yep'
p703
I23
sS'studying'
p704
I23
sS'.,90004\n504440583973113856,bigdaddy_lily,2014-08-27'
p705
I23
sS'based'
p706
I23
sS'insight'
p707
I23
sS'\xc3\x9cber'
p708
I23
sS'cut'
p709
I23
sS'helping'
p710
I23
sS'hills'
p711
I23
sS'scent'
p712
I23
sS'cup'
p713
I22
sS'headed'
p714
I22
sS'had'
p715
I21
sS'pharmacy'
p716
I23
sS'lets'
p717
I23
sS'parents'
p718
I23
sS'4'
p719
I23
sS'sweet'
p720
I23
sS'snap'
p721
I23
sS'49ers'
p722
I23
sS'hat'
p723
I23
sS'00:44:21.0,34.0762858,-118.2956334,2112.02,&'
p724
I23
sS'gave'
p725
I23
sS'real'
p726
I23
sS'ericka'
p727
I23
sS'ama'
p728
I23
sS"who's"
p729
I23
sS'woah...stay'
p730
I23
sS'gonna'
p731
I23
sS'edici\xc3\xb3n'
p732
I23
sS'austerities'
p733
I23
sS'game'
p734
I20
sS'todayv\xee\x90\x89'
p735
I23
sS'traffic'
p736
I23
sS'know'
p737
I17
sS'mom'
p738
I21
sS'world'
p739
I20
sS'bit'
p740
I21
sS'lady'
p741
I23
sS'.still'
p742
I23
sS'bip'
p743
I23
sS'loss'
p744
I23
sS'lilian'
p745
I23
sS'like'
p746
I17
sS'inviting'
p747
I23
sS'18:16:18.0,34.0762581,-118.2955929,2112.02,god'
p748
I23
sS'18:58:29.0,34.0762863,-118.2956328,2112.02,i'
p749
I23
sS'performing'
p750
I22
sS',90004\n501437778794917889,bigdaddy_lily,2014-08-18'
p751
I23
sS'cornbreezus'
p752
I23
sS'night'
p753
I21
sS'beverly'
p754
I19
sS'foolish'
p755
I23
sS'day.,90004\n491285555376709632,bigdaddy_lily,2014-07-21'
p756
I23
sS'right'
p757
I21
sS'19:15:42.0,34.0762785,-118.2955366,2112.02,i'
p758
I23
sS'people'
p759
I23
sS'scared'
p760
I23
sS'some'
p761
I20
sS'back'
p762
I23
sS'driving'
p763
I23
sS'hair'
p764
I23
sS'brian'
p765
I23
sS'sure'
p766
I23
sS'cowboys'
p767
I23
sS'home'
p768
I21
sS'mood'
p769
I23
sS'for'
p770
I7
sS'algun'
p771
I23
sS'\xe2\x80\x9cjasonsilva'
p772
I23
sS'slide'
p773
I23
sS'ice'
p774
I22
sS'panic'
p775
I23
sS'tots'
p776
I22
sS'everything'
p777
I23
sS'prom'
p778
I23
sS'pee'
p779
I23
sS'prob'
p780
I23
sS'hustle'
p781
I23
sS'be'
p782
I12
sS'bf'
p783
I22
sS'\xee\x8c\xae\xee\x90\xa0,90004\n480417544847626240,bigdaddy_lily,2014-06-21'
p784
I23
sS'lmfao'
p785
I20
sS'lose'
p786
I23
sS'use'
p787
I23
sS'illustration'
p788
I23
sS'!,90004\n498181733125074944,bigdaddy_lily,2014-08-09'
p789
I23
sS'santa'
p790
I22
sS'no?\xe2\x80\x9d'
p791
I23
sS'losing'
p792
I22
sS'crap'
p793
I23
sS'23:39:38.0,34.0763049,-118.2955726,2112.02,fuckk'
p794
I23
sS'super'
p795
I23
sS'by'
p796
I19
sS'shaken'
p797
I23
sS'on'
p798
I8
sS'about'
p799
I19
sS'goal!!,90004\n480816883403218944,bigdaddy_lily,2014-06-22'
p800
I23
sS'a1'
p801
I23
sS'would'
p802
I22
sS'oh'
p803
I18
sS'of'
p804
I12
sS'months'
p805
I23
sS'favorite'
p806
I21
sS'o'
p807
I23
sS'angeles'
p808
I22
sS'swear'
p809
I21
sS'idk'
p810
I22
sS"\xe2\x80\x9c'fail"
p811
I23
sS'west'
p812
I23
sS'.,90004\n480857677149376512,bigdaddy_lily,2014-06-22'
p813
I23
sS'luck'
p814
I23
sS'wanna'
p815
I22
sS'or'
p816
I17
sS'soa'
p817
I23
sS'seeing'
p818
I23
sS'ladies'
p819
I23
sS'19:59:28.0,34.0762853,-118.2956443,2112.02,i'
p820
I23
sS'pussy'
p821
I23
sS'into'
p822
I23
sS'child'
p823
I23
sS'getting'
p824
I23
sS'down'
p825
I20
sS'aha'
p826
I23
sS'weekend,90004\n498285299747663873,bigdaddy_lily,2014-08-10'
p827
I23
sS'elementary'
p828
I23
sS'clean/wash'
p829
I23
sS'your'
p830
I21
sS'delusional'
p831
I23
sS'fuuuuuck'
p832
I23
sS'shoes....i'
p833
I23
sS'aree'
p834
I23
sS'log'
p835
I23
sS'her'
p836
I21
sS'weekend'
p837
I23
sS'berly'
p838
I23
sS'hey'
p839
I23
sS'long'
p840
I22
sS'posted'
p841
I23
sS'los'
p842
I21
sS'much'
p843
I23
sS"18:59:15.0,34.0762033,-118.2955637,2112.02,i'm"
p844
I23
sS"we're"
p845
I22
sS'way'
p846
I23
sS'colder'
p847
I23
sS'call'
p848
I23
sS'bored'
p849
I23
sS'was'
p850
I19
sS'shhh'
p851
I23
sS'happy'
p852
I21
sS'chats'
p853
I23
sS'cus'
p854
I23
sS'buy'
p855
I23
sS'jacks'
p856
I23
sS"i've"
p857
I22
sS'hr'
p858
I23
sS'bus'
p859
I23
sS'becoming'
p860
I23
sS'speech,90004\n479749587222032384,bigdaddy_lily,2014-06-19'
p861
I23
sS'but'
p862
I17
sS'failure'
p863
I23
sS'needles'
p864
I23
sS'alexs'
p865
I23
sS'haim'
p866
I23
sS'with'
p867
I15
sS'eat'
p868
I22
sS'bud'
p869
I23
sS'he'
p870
I20
sS"they're"
p871
I23
sS'rush'
p872
I23
sS'made'
p873
I22
sS'humbled'
p874
I23
sS',90004\n510854829451657216,bigdaddy_lily,2014-09-13'
p875
I23
sS'up'
p876
I19
sS'us'
p877
I23
sS'barbershop'
p878
I23
sS'dirty'
p879
I23
sS'fried'
p880
I23
sS'minutes'
p881
I22
sS'called'
p882
I22
sS'gone'
p883
I21
sS'trio'
p884
I23
sS'proud'
p885
I23
sS'01:50:47.0,34.0762027,-118.2955636,2112.02,oh'
p886
I23
sS'classic'
p887
I23
sS'feliz'
p888
I23
sS'year'
p889
I23
sS'am'
p890
I23
sS'an'
p891
I19
sS'lol,90004\n479786330226843649,bigdaddy_lily,2014-06-20'
p892
I23
sS'as'
p893
I20
sS'at'
p894
I11
sS'aw'
p895
I23
sS'20:32:01.0,34.0763083,-118.2951351,2112.02,5-0'
p896
I23
sS'ship'
p897
I23
sS'ing'
p898
I23
sS'girl'
p899
I23
sS'shit'
p900
I20
sS'posting'
p901
I23
sS'again'
p902
I23
sS'dying'
p903
I23
sS'no'
p904
I22
sS'open'
p905
I23
sS'deserve'
p906
I21
sS'20:57:32.0,34.0762998,-118.2955203,2112.02,usa'
p907
I23
sS'when'
p908
I23
sS'ep'
p909
I23
sS'pressssss'
p910
I23
sS'other'
p911
I22
sS'eclipse'
p912
I23
sS'you'
p913
I10
sS'really'
p914
I19
sS'richie'
p915
I23
sS'20:15:14.0,34.0762585,-118.2955552,2112.02,my'
p916
I23
sS'gonzalez'
p917
I23
sS'monday'
p918
I23
sS'football'
p919
I22
sS'forgot'
p920
I23
sS'stay'
p921
I23
sS"let's"
p922
I21
sS'push'
p923
I23
sS'17:39:01.0,34.0762421,-118.2956618,2112.02,i'
p924
I23
sS'kinda'
p925
I23
sS'badass'
p926
I23
sS'friends'
p927
I23
sS'gets'
p928
I23
sS'coat'
p929
I23
sS'\xe2\x80\x94'
p930
I21
sS'unlocked'
p931
I23
sS'barcelona'
p932
I23
sS'jesusi'
p933
I23
sS'u'
p934
I18
sS'karma'
p935
I21
sS'hugs*'
p936
I23
sS'god'
p937
I22
sS'far'
p938
I23
sS"she's"
p939
I23
sS'deluxe'
p940
I23
sS'having'
p941
I23
sS'songs'
p942
I23
s.