(dp0
S''
p1
I1
sS'limited'
p2
I106
sS"better'"
p3
I105
sS'fletchaskesha'
p4
I106
sS'better"'
p5
I106
sS'01:00:15.0,34.06786704,-118.29994826,2119.10,stay'
p6
I106
sS'saves'
p7
I105
sS"do',90020\n511549593499074560,ruizserg,2014-09-15"
p8
I106
sS'yellow'
p9
I105
sS"*i'm"
p10
I106
sS'four'
p11
I106
sS'kotf'
p12
I106
sS'sleep'
p13
I42
sS'hating'
p14
I104
sS'6pm'
p15
I106
sS'appetite'
p16
I105
sS'captain'
p17
I106
sS'hate'
p18
I86
sS'consider'
p19
I106
sS'votes'
p20
I106
sS'electricity'
p21
I106
sS"up'"
p22
I100
sS'tweet'
p23
I105
sS'\xe2\x98\xba\xef\xb8\x8f'
p24
I92
sS'igual'
p25
I106
sS'bike'
p26
I106
sS'common('
p27
I106
sS'under'
p28
I106
sS'teaching'
p29
I106
sS'sorry'
p30
I105
sS'worth'
p31
I105
sS'carried'
p32
I106
sS'jack\xe2\x80\x9d'
p33
I106
sS'callin'
p34
I106
sS'risk'
p35
I106
sS'wood*'
p36
I106
sS"okay'"
p37
I106
sS'gon\xe2\x80\x99'
p38
I106
sS'gracias'
p39
I106
sS'every'
p40
I94
sS'jack'
p41
I99
sS'scholarship'
p42
I106
sS'wilshire'
p43
I106
sS'seals'
p44
I106
sS'bringing'
p45
I106
sS'anemia'
p46
I105
sS'tickets'
p47
I106
sS'skillz'
p48
I106
sS'school'
p49
I83
sS'bestfriend'
p50
I104
sS'skills'
p51
I105
sS'bugging'
p52
I105
sS'wednesday'
p53
I104
sS'02:02:58.0,34.06784261,-118.29985656,2119.10,shhhhhh,90020\n507702896217964544,ruizserg,2014-09-05'
p54
I106
sS'luigi'
p55
I106
sS'broiled'
p56
I106
sS'math'
p57
I106
sS'muscles'
p58
I106
sS"ending'"
p59
I106
sS'heading'
p60
I102
sS'clothes'
p61
I106
sS'enjoy'
p62
I105
sS"me'"
p63
I101
sS'"all'
p64
I106
sS'force'
p65
I104
sS'look-a-like'
p66
I106
sS'tired'
p67
I99
sS'zoey'
p68
I106
sS'consistent'
p69
I106
sS'bacon'
p70
I106
sS'me('
p71
I106
sS'sabbath'
p72
I106
sS'\xe2\xad\x90\xef\xb8\x8f'
p73
I106
sS'nail'
p74
I105
sS'consists'
p75
I106
sS'second'
p76
I102
sS'street'
p77
I103
sS'follow'
p78
I106
sS'cesar'
p79
I106
sS'00:59:21.0,34.06784403,-118.30002344,2119.10,fuck'
p80
I106
sS'even'
p81
I55
sS'hide'
p82
I106
sS'christ'
p83
I105
sS'ehhhhh'
p84
I106
sS"change'"
p85
I106
sS'saved'
p86
I106
sS'+'
p87
I105
sS'cooking'
p88
I106
sS'phuck'
p89
I106
sS'supplied'
p90
I106
sS'bipolar'
p91
I106
sS'h&m'
p92
I106
sS'above'
p93
I106
sS'designing'
p94
I106
sS"3'"
p95
I106
sS'new'
p96
I97
sS'tips'
p97
I106
sS'emily'
p98
I105
sS'ever'
p99
I87
sS'nes'
p100
I106
sS'told'
p101
I92
sS'10+'
p102
I106
sS"battery'"
p103
I106
sS'hero'
p104
I106
sS'zach'
p105
I97
sS'pancakes'
p106
I106
sS"machine'"
p107
I106
sS'never'
p108
I76
sS"rust'"
p109
I106
sS'here'
p110
I75
sS"discipline'"
p111
I106
sS'studio'
p112
I105
sS'active'
p113
I106
sS'aftermath'
p114
I106
sS'jasmins'
p115
I106
sS"aren't"
p116
I100
sS'shriek'
p117
I106
sS'mozzarella'
p118
I106
sS'interpret'
p119
I106
sS'dry'
p120
I105
sS'kids'
p121
I102
sS'daughter'
p122
I106
sS'somethung\xe2\x80\x9d'
p123
I106
sS'00:16:50.0,34.06711681,-118.29918902,2119.10,barks...,90020\n507034536379564033,ruizserg,2014-09-03'
p124
I106
sS'stevie'
p125
I105
sS'k'
p126
I92
sS'changed'
p127
I106
sS"what'll"
p128
I106
sS'ignoring'
p129
I106
sS'credit'
p130
I106
sS"i'd"
p131
I96
sS'smoke'
p132
I104
sS'\xe2\x9c\x94\xef\xb8\x8f'
p133
I106
sS"i'm"
p134
I11
sS'otters'
p135
I106
sS'dre'
p136
I106
sS'julio'
p137
I105
sS'wassup'
p138
I106
sS'reagan'
p139
I106
sS'inflicting'
p140
I106
sS'feelings'
p141
I102
sS'bro'
p142
I103
sS'refuse'
p143
I106
sS'21:51:24.0,34.06787156,-118.29997954,2119.10,trying'
p144
I106
sS'punching'
p145
I106
sS'opposes\xe2\x80\xa6'
p146
I106
sS'txt'
p147
I106
sS'bra'
p148
I106
sS'hoping'
p149
I106
sS'would'
p150
I89
sS'army'
p151
I106
sS'nine'
p152
I106
sS'hospital'
p153
I106
sS'mexico'
p154
I96
sS'arms'
p155
I106
sS'skelator'
p156
I106
sS'call'
p157
I100
sS'calm'
p158
I104
sS'25th'
p159
I106
sS'type'
p160
I101
sS'tell'
p161
I88
sS';)\xe2\x80\x9d'
p162
I106
sS'breathe'
p163
I106
sS'03:02:44.0,34.06779572,-118.2999598,2119.10,mother'
p164
I106
sS'sammich'
p165
I106
sS'holy'
p166
I100
sS'relax'
p167
I106
sS'successful'
p168
I103
sS'oscar'
p169
I106
sS'haha'
p170
I85
sS'wars'
p171
I106
sS'award'
p172
I106
sS'hurt'
p173
I103
sS'99'
p174
I105
sS'phone'
p175
I92
sS'gusta'
p176
I106
sS'adult'
p177
I106
sS'prescription'
p178
I105
sS'90'
p179
I106
sS'hold'
p180
I105
sS'striving'
p181
I106
sS'tampa'
p182
I106
sS'must'
p183
I97
sS'shoot'
p184
I102
sS'te'
p185
I105
sS'word'
p186
I105
sS'room'
p187
I102
sS'mc'
p188
I106
sS'rights'
p189
I106
sS'hideous'
p190
I106
sS'work'
p191
I28
sS'mi'
p192
I93
sS'04:28:46.0,34.06779645,-118.30004222,2119.10,us"'
p193
I106
sS'movies'
p194
I98
sS'celos'
p195
I106
sS'era'
p196
I106
sS'mr'
p197
I106
sS'goooaaallllllllll'
p198
I106
sS'my'
p199
I8
sS'100%'
p200
I106
sS'gloria'
p201
I106
sS'give'
p202
I79
sS'household'
p203
I106
sS'artillery'
p204
I106
sS'laughs'
p205
I105
sS'"love'
p206
I106
sS'honey'
p207
I106
sS'want'
p208
I47
sS'maleficent'
p209
I106
sS'keep'
p210
I89
sS'again!,90020\n511544743268872192,ruizserg,2014-09-15'
p211
I106
sS'guarantee'
p212
I106
sS'hoe'
p213
I104
sS'end'
p214
I96
sS'turn'
p215
I103
sS'complaining'
p216
I105
sS'sitting'
p217
I106
sS'nuts'
p218
I106
sS'damage'
p219
I106
sS'hoh'
p220
I105
sS'machine'
p221
I103
sS'far'
p222
I98
sS'hot'
p223
I94
sS'hop'
p224
I106
sS'chicharito'
p225
I106
sS'answer'
p226
I106
sS'gate'
p227
I106
sS'gif-tweet'
p228
I106
sS'beach'
p229
I106
sS"me',90020\n507022364337389569,ruizserg,2014-09-03"
p230
I106
sS'marinara'
p231
I106
sS'pizza'
p232
I105
sS'badly'
p233
I106
sS'1(323)440-0572'
p234
I106
sS'beauty'
p235
I105
sS'bday'
p236
I104
sS'insecure'
p237
I106
sS'after'
p238
I93
sS'hourglass'
p239
I106
sS'edwin'
p240
I106
sS'wrong'
p241
I97
sS'lay'
p242
I103
sS'nate'
p243
I106
sS'salsa'
p244
I106
sS"women's"
p245
I106
sS"mamadas',90020\n507798454563651587,ruizserg,2014-09-05"
p246
I106
sS"they're"
p247
I92
sS'bucks'
p248
I106
sS'third'
p249
I105
sS'wins'
p250
I104
sS'appreciate'
p251
I105
sS'scare'
p252
I106
sS"away'"
p253
I105
sS'ppls'
p254
I106
sS'green'
p255
I105
sS'keeps'
p256
I105
sS'worst'
p257
I103
sS'1000'
p258
I106
sS'order'
p259
I104
sS'wind'
p260
I106
sS'updates'
p261
I106
sS'banger'
p262
I105
sS'argentina\xe2\x80\x9d'
p263
I106
sS'decide'
p264
I106
sS'office'
p265
I106
sS'welcomed'
p266
I106
sS'over'
p267
I77
sS'fam'
p268
I106
sS'amarrese'
p269
I106
sS'alway'
p270
I106
sS'detonators'
p271
I106
sS'foreal'
p272
I98
sS"bout'"
p273
I106
sS'mystics'
p274
I106
sS'brutal'
p275
I106
sS'hip-hop'
p276
I105
sS'before'
p277
I95
sS'ima'
p278
I91
sS"pena',90020\n521318641749352448,ruizserg,2014-10-12"
p279
I106
sS'*whuts'
p280
I106
sS'fit'
p281
I106
sS'personal'
p282
I105
sS'screaming'
p283
I106
sS'fix'
p284
I106
sS'05:17:08.0,34.06779132,-118.30008737,2119.10,i'
p285
I106
sS'imm'
p286
I106
sS'expectations'
p287
I106
sS'fag'
p288
I106
sS'better'
p289
I62
sS'differently'
p290
I105
sS'(i.e'
p291
I106
sS'wellness'
p292
I106
sS'imy'
p293
I104
sS'weeks'
p294
I105
sS'ponieron'
p295
I106
sS"misunderstood'"
p296
I106
sS'then'
p297
I64
sS'*deletes'
p298
I105
sS'affected'
p299
I106
sS'combination'
p300
I106
sS'sneezing'
p301
I106
sS'workout'
p302
I104
sS'safe'
p303
I105
sS"we'll"
p304
I102
sS'break'
p305
I99
sS'they'
p306
I46
sS'supposed'
p307
I106
sS'payback'
p308
I106
sS'hooking'
p309
I106
sS'one'
p310
I44
sS'expect"'
p311
I106
sS'important\xe2\x80\x9d'
p312
I106
sS'bank'
p313
I106
sS'sodom'
p314
I106
sS'shadows'
p315
I106
sS'love!!\xe2\x80\x9d'
p316
I106
sS'netherlands'
p317
I104
sS'*silence'
p318
I106
sS'l'
p319
I105
sS"week'"
p320
I106
sS'check\xe2\x80\x9d'
p321
I106
sS'shoelace'
p322
I106
sS'victory'
p323
I106
sS'each'
p324
I105
sS'americans'
p325
I106
sS'went'
p326
I99
sS'side'
p327
I98
sS'mean'
p328
I94
sS'weirdos'
p329
I106
sS"admit'"
p330
I106
sS"secret's"
p331
I106
sS'bearded'
p332
I106
sS'january'
p333
I106
sS'solution'
p334
I106
sS'celebrating'
p335
I104
sS'not!\xe2\x9c\x8b'
p336
I106
sS'dawg'
p337
I106
sS'turnip'
p338
I106
sS'forgot'
p339
I103
sS'jz_021995'
p340
I105
sS'grandfather'
p341
I106
sS'saturday'
p342
I104
sS'rt'
p343
I98
sS'depress'
p344
I106
sS'gon'
p345
I105
sS'god'
p346
I92
sS'hooked'
p347
I105
sS'bitterville'
p348
I106
sS'mason'
p349
I106
sS'\xe3\x85\x8b\xe3\x85\x8b\xe3\x85\x8b\xe3\x85\x8b\xe3\x85\x8b\xe3\x85\x8b\xe3\x85\x8b\xe3\x85\x8b'
p350
I106
sS'daniel'
p351
I99
sS'multiply'
p352
I106
sS'friend\xe2\x80\xa6'
p353
I106
sS'smh'
p354
I62
sS'medicine'
p355
I106
sS'got'
p356
I47
sS'rn'
p357
I83
sS'smc'
p358
I106
sS"start'"
p359
I106
sS'foundation'
p360
I106
sS"24'"
p361
I106
sS'turning'
p362
I105
sS'cutest'
p363
I102
sS"doesn't"
p364
I89
sS'"gets'
p365
I106
sS'leftovers'
p366
I106
sS'free'
p367
I103
sS'emoji*\xe2\x80\x9d'
p368
I106
sS'masterpiece'
p369
I106
sS'struggle'
p370
I106
sS'ass\xe2\x80\x9d'
p371
I106
sS'sadly'
p372
I106
sS'favs'
p373
I106
sS'wanted'
p374
I100
sS'mvp'
p375
I103
sS'dammit'
p376
I105
sS'ate'
p377
I106
sS'dayz'
p378
I106
sS'starts'
p379
I106
sS'puzza'
p380
I106
sS'messages'
p381
I106
sS'days'
p382
I90
sS'7'
p383
I105
sS'chriiiiiistopher'
p384
I106
sS'flawless'
p385
I103
sS'hopeless'
p386
I106
sS"today's"
p387
I105
sS'can\xe2\x80\x99t'
p388
I106
sS'sigas'
p389
I106
sS'loud'
p390
I106
sS"who's"
p391
I106
sS'already'
p392
I85
sS'lol\xe2\x80\x9d'
p393
I100
sS'champs'
p394
I106
sS'grade'
p395
I106
sS'fuckers'
p396
I106
sS'rolllllllllll'
p397
I106
sS'babygirl'
p398
I104
sS'marisol'
p399
I106
sS'wash'
p400
I103
sS'kfc'
p401
I106
sS'another'
p402
I96
sS'sober'
p403
I106
sS'sleeeeeep'
p404
I106
sS'thick'
p405
I106
sS"waste'"
p406
I106
sS'nip'
p407
I106
sS'fabiola'
p408
I104
sS'tanga'
p409
I106
sS'dogg'
p410
I106
sS'top'
p411
I104
sS'girls'
p412
I96
sS'her\xe2\x80\x9d'
p413
I106
sS"he'll"
p414
I106
sS'needed'
p415
I101
sS'dumbass'
p416
I104
sS'too'
p417
I41
sS'ayeeee'
p418
I106
sS'john'
p419
I104
sS'dogs'
p420
I105
sS'listen'
p421
I105
sS'mentioning'
p422
I106
sS'hzlnutt\xe2\x80\x9d'
p423
I106
sS'hangout'
p424
I105
sS'collapse'
p425
I106
sS'gym'
p426
I105
sS'convention'
p427
I106
sS'albert'
p428
I106
sS'took'
p429
I100
sS'*fire'
p430
I105
sS'z'
p431
I106
sS'cereal'
p432
I105
sS'canvas'
p433
I106
sS'<3;**'
p434
I106
sS'1k'
p435
I106
sS'begins'
p436
I106
sS'mercy'
p437
I106
sS'anxiety'
p438
I106
sS'target'
p439
I103
sS'"bae'
p440
I106
sS"air'"
p441
I106
sS'fufu'
p442
I106
sS'nominate'
p443
I106
sS"habit',90020\n510636537411670016,ruizserg,2014-09-13"
p444
I106
sS'craved'
p445
I106
sS'likely'
p446
I104
sS'unmistakable'
p447
I106
sS'preformed'
p448
I106
sS'shower'
p449
I101
sS'matter'
p450
I101
sS"fooo',90020\n507700846776172544,ruizserg,2014-09-05"
p451
I106
sS'classes'
p452
I106
sS'flame'
p453
I106
sS'feeling'
p454
I84
sS'mini'
p455
I106
sS'rad'
p456
I106
sS'humble'
p457
I106
sS'esta'
p458
I106
sS'ran'
p459
I106
sS'\xe2\x9c\x8c\xef\xb8\x8fdude'
p460
I106
sS"ohohguiantagle's"
p461
I106
sS'mind'
p462
I96
sS'mine'
p463
I101
sS'ginger'
p464
I105
sS'talking'
p465
I86
sS'hug'
p466
I104
sS'rap'
p467
I104
sS'seen'
p468
I100
sS'ohhhh'
p469
I105
sS'mins'
p470
I105
sS'mint'
p471
I106
sS'tells'
p472
I106
sS'ray'
p473
I105
sS'forced'
p474
I106
sS'strength'
p475
I106
sS'morewe'
p476
I106
sS"huh',90020\n511585198819930112,ruizserg,2014-09-15"
p477
I106
sS'motherfukr'
p478
I106
sS'-'
p479
I64
sS'luxury'
p480
I106
sS'doors'
p481
I106
sS'laughed'
p482
I106
sS'jasmin\xe2\x80\x9d'
p483
I106
sS'flags'
p484
I106
sS'...<3'
p485
I106
sS'panties'
p486
I106
sS'relevant'
p487
I106
sS'blue'
p488
I102
sS'nobody'
p489
I106
sS'inspirational'
p490
I106
sS'lion'
p491
I106
sS'though'
p492
I80
sS'proving'
p493
I106
sS'rappers'
p494
I106
sS'llamas'
p495
I103
sS'victoria'
p496
I105
sS'anatomy'
p497
I106
sS'mario'
p498
I105
sS'germany'
p499
I98
sS"sound'"
p500
I106
sS'claims'
p501
I106
sS'drought'
p502
I106
sS"shit's"
p503
I106
sS'episode'
p504
I104
sS'released'
p505
I106
sS'wreck'
p506
I106
sS'stating'
p507
I106
sS'freeway'
p508
I106
sS"karma'"
p509
I106
sS'definitely'
p510
I102
sS'pineapple'
p511
I105
sS'entertaining'
p512
I106
sS'yessssssss'
p513
I106
sS'came'
p514
I101
sS'saying'
p515
I99
sS'poppers'
p516
I106
sS"toally'"
p517
I106
sS'bomb'
p518
I104
sS"me',90020\n507710448863420417,ruizserg,2014-09-05"
p519
I106
sS'lyrics'
p520
I106
sS'queen'
p521
I104
sS'bonnie'
p522
I106
sS'nominated'
p523
I106
sS'pops'
p524
I106
sS'forsure'
p525
I106
sS'chandelier'
p526
I106
sS'radio'
p527
I106
sS'bubbieeeeeeee'
p528
I106
sS'earth'
p529
I106
sS'make'
p530
I82
sS'toast'
p531
I106
sS'orleans'
p532
I106
sS'now."'
p533
I106
sS'busy'
p534
I103
sS'ayyyy'
p535
I105
sS'explain'
p536
I106
sS'colgate'
p537
I106
sS'cupid'
p538
I106
sS'appreciated'
p539
I106
sS'rihanna'
p540
I104
sS'booboo\xe2\x80\x9d'
p541
I106
sS'rn"'
p542
I106
sS'folks'
p543
I106
sS'chipotle'
p544
I106
sS'rice'
p545
I106
sS"goodbye'"
p546
I106
sS'goalie'
p547
I106
sS'07:21:37.0,34.0677893,-118.30007574,2119.10,forgiven'
p548
I106
sS'personality'
p549
I106
sS'borrowed'
p550
I106
sS'do'
p551
I38
sS"abel's"
p552
I106
sS'dm'
p553
I105
sS'fliesssssss'
p554
I106
sS'wide'
p555
I106
sS'air'
p556
I106
sS'de'
p557
I103
sS'watch'
p558
I87
sS'da'
p559
I106
sS'gogo'
p560
I106
sS'shutting'
p561
I106
sS'...just'
p562
I106
sS'watermelon'
p563
I106
sS'hoh\xe2\x80\x9d'
p564
I106
sS'wedding'
p565
I106
sS'nasty'
p566
I106
sS'17:45:15.0,34.06786142,-118.30000592,2119.10,hell'
p567
I106
sS'unfortunately'
p568
I106
sS'hall'
p569
I106
sS"primitives',90020\n507033544963530753,ruizserg,2014-09-03"
p570
I106
sS'jaguar'
p571
I106
sS'greens'
p572
I104
sS'pressed'
p573
I106
sS'goodbyes'
p574
I106
sS'2:17'
p575
I106
sS'pretzel'
p576
I106
sS'nevermined'
p577
I106
sS'twice'
p578
I106
sS'bad'
p579
I75
sS'bae'
p580
I91
sS'architecture'
p581
I106
sS'shots'
p582
I106
sS'tbfh'
p583
I106
sS'lol.\xe2\x80\x9d'
p584
I106
sS'automatic'
p585
I106
sS'ears'
p586
I105
sS'headed'
p587
I106
sS'playstation'
p588
I105
sS'18:50:53.0,34.06786898,-118.30002569,2119.10,are'
p589
I106
sS'victim'
p590
I106
sS"wired's"
p591
I106
sS'w/'
p592
I106
sS'\xe2\x97\xbe\xef\xb8\x8f'
p593
I106
sS'testing'
p594
I106
sS'/.-,90020\n510614860174856192,ruizserg,2014-09-13'
p595
I106
sS'goodnight'
p596
I63
sS'decided'
p597
I106
sS'nuh'
p598
I105
sS'fail'
p599
I106
sS'maletas'
p600
I106
sS'best'
p601
I76
sS'subject'
p602
I105
sS'brazil'
p603
I89
sS'said'
p604
I89
sS'face"'
p605
I106
sS'lots'
p606
I105
sS'away'
p607
I91
sS"hypocrite'"
p608
I106
sS'\xe2\x80\x9d'
p609
I106
sS'dias'
p610
I106
sS'bien'
p611
I106
sS"there's"
p612
I95
sS'tainted'
p613
I106
sS"feet'"
p614
I106
sS'hopefully'
p615
I101
sS"name's"
p616
I106
sS'tolerance'
p617
I106
sS'lamar'
p618
I99
sS'men'
p619
I103
sS'omg'
p620
I83
sS'nature'
p621
I106
sS'rolled'
p622
I106
sS'aquarius'
p623
I105
sS'weak'
p624
I101
sS'boss'
p625
I95
sS'wu'
p626
I106
sS'nahhh'
p627
I104
sS'nayeli'
p628
I100
sS'wtf'
p629
I70
sS'"characters'
p630
I106
sS'wth'
p631
I105
sS'news'
p632
I105
sS'picking'
p633
I106
sS'musical'
p634
I106
sS'kitchen'
p635
I106
sS'pity'
p636
I106
sS'received'
p637
I106
sS'accident'
p638
I106
sS'brat'
p639
I106
sS'fault'
p640
I102
sS'ill'
p641
I104
sS'rn.\xe2\x80\x9d'
p642
I106
sS'ahora'
p643
I106
sS'03:05:17.0,34.06875699,-118.29997399,2119.10,found'
p644
I106
sS'against'
p645
I103
sS'players'
p646
I106
sS'games'
p647
I105
sS'cod'
p648
I106
sS'argue'
p649
I106
sS"lot'"
p650
I106
sS'sloot'
p651
I106
sS'ily'
p652
I103
sS'flavio'
p653
I106
sS'pre'
p654
I106
sS'gwen'
p655
I105
sS'tough'
p656
I106
sS'pose'
p657
I106
sS"misleading'"
p658
I106
sS'had'
p659
I82
sS'civilians'
p660
I106
sS'ayeee'
p661
I106
sS'23:28:10.0,34.06783906,-118.29999249,2119.10,food'
p662
I106
sS'hospital....its'
p663
I106
sS'tons'
p664
I106
sS'warmup'
p665
I106
sS'towels'
p666
I105
sS'tarea'
p667
I106
sS'trust'
p668
I105
sS'100'
p669
I106
sS'speak'
p670
I104
sS'sam'
p671
I106
sS'beef'
p672
I106
sS'"you'
p673
I105
sS'cockroaches'
p674
I105
sS"now'"
p675
I105
sS'collard'
p676
I104
sS'been'
p677
I65
sS'quickly'
p678
I105
sS'confident'
p679
I106
sS'beer'
p680
I106
sS'much'
p681
I75
sS'interest'
p682
I104
sS'basic'
p683
I106
sS'expected'
p684
I106
sS'puto'
p685
I106
sS'lovely'
p686
I105
sS'woo...pi'
p687
I106
sS'warmth'
p688
I106
sS'threw'
p689
I105
sS"options'"
p690
I106
sS'life'
p691
I78
sS'easy'
p692
I102
sS'spit'
p693
I106
sS'man"'
p694
I106
sS'drugs'
p695
I106
sS'sooooo'
p696
I104
sS'naya'
p697
I104
sS'ariana'
p698
I104
sS'filmmaker'
p699
I106
sS'dave'
p700
I106
sS'chase'
p701
I106
sS'doubts'
p702
I106
sS'catch'
p703
I104
sS'worked'
p704
I104
sS'haters'
p705
I106
sS"rooney's"
p706
I106
sS'chill'
p707
I99
sS'fukn'
p708
I103
sS'tutorial)'
p709
I106
sS'has'
p710
I78
sS"bother'"
p711
I106
sS"enhancements'"
p712
I106
sS'tastes'
p713
I106
sS'n'
p714
I96
sS'aim'
p715
I105
sS'ugly'
p716
I98
sS'near'
p717
I106
sS'melted'
p718
I106
sS'teachers'
p719
I106
sS'applies'
p720
I106
sS'voice'
p721
I105
sS'study'
p722
I106
sS'>\xe2\x80\x9d'
p723
I106
sS'seven'
p724
I106
sS"tu',90020\n510632048671748096,ruizserg,2014-09-13"
p725
I106
sS'existence'
p726
I106
sS'uganda'
p727
I106
sS'played'
p728
I97
sS'thursdays'
p729
I106
sS'is'
p730
I10
sS'it'
p731
I12
sS'defeated'
p732
I106
sS'ii'
p733
I106
sS'player'
p734
I105
sS'cant'
p735
I105
sS'dizzy'
p736
I105
sS'im'
p737
I100
sS'experience'
p738
I106
sS'in'
p739
I17
sS"3x's"
p740
I106
sS'ig'
p741
I104
sS'if'
p742
I49
sS'grown'
p743
I106
sS'\xe2\x8c\x9b\xef\xb8\x8f'
p744
I106
sS'memorial'
p745
I106
sS"01:32:57.0,34.06784386,-118.29998995,2119.10,y'all"
p746
I106
sS'2:16am'
p747
I106
sS'perform'
p748
I106
sS'things'
p749
I99
sS'realizing'
p750
I105
sS'jerry'
p751
I106
sS'sabe'
p752
I106
sS"beneficial'"
p753
I106
sS'split'
p754
I106
sS'vegetable'
p755
I106
sS"man',90020\n510904645703569408,ruizserg,2014-09-13"
p756
I106
sS'superman'
p757
I106
sS'survival'
p758
I104
sS'entitled'
p759
I106
sS'wheel'
p760
I106
sS'clear'
p761
I105
sS':)))))))))'
p762
I106
sS"'good"
p763
I106
sS'screw'
p764
I106
sS'pick'
p765
I103
sS'hang'
p766
I105
sS'")'
p767
I106
sS'evil'
p768
I106
sS'hand'
p769
I101
sS'elly'
p770
I105
sS'fridays'
p771
I106
sS'kim'
p772
I105
sS'jealous'
p773
I105
sS'1:00am'
p774
I106
sS'better!jade'
p775
I106
sS'blamed'
p776
I106
sS'thoughts'
p777
I102
sS'kid'
p778
I99
sS'hacer'
p779
I106
sS'vermont'
p780
I106
sS'(me)'
p781
I106
sS'matters'
p782
I105
sS'charlie'
p783
I103
sS'youre'
p784
I106
sS"<33it's"
p785
I106
sS'"goal"'
p786
I106
sS"bottle'"
p787
I106
sS'savings'
p788
I106
sS'client'
p789
I106
sS'greatest'
p790
I106
sS'pandora'
p791
I104
sS'mother'
p792
I106
sS'romo'
p793
I106
sS'the'
p794
I4
sS'yours'
p795
I105
sS'fittest'
p796
I106
sS'left'
p797
I96
sS'benavidez'
p798
I105
sS'boyhood'
p799
I106
sS'just'
p800
I19
sS'w.e'
p801
I106
sS'photo'
p802
I104
sS'sleepy'
p803
I93
sS'unfair'
p804
I106
sS'verses'
p805
I106
sS'wasps'
p806
I106
sS'grades'
p807
I106
sS'thanks'
p808
I81
sS'human'
p809
I105
sS'yes'
p810
I73
sS'yet'
p811
I92
sS"break'"
p812
I106
sS'burns'
p813
I106
sS'pac-man'
p814
I106
sS'ham'
p815
I105
sS'phillips'
p816
I106
sS'photographer'
p817
I106
sS'character'
p818
I105
sS'5s'
p819
I104
sS'tbh\xe2\x80\x9d'
p820
I106
sS"ma'am"
p821
I105
sS'*knocks'
p822
I106
sS'5k'
p823
I105
sS'save'
p824
I104
sS'hat'
p825
I106
sS'gave'
p826
I104
sS'actresses'
p827
I106
sS"jealousy'"
p828
I106
sS'dreami'
p829
I106
sS'babes'
p830
I106
sS'gifs'
p831
I106
sS'breaks'
p832
I104
sS'possible'
p833
I106
sS'boxes'
p834
I106
sS'3pm'
p835
I106
sS'performance'
p836
I106
sS'picasso'
p837
I106
sS'unique'
p838
I106
sS'dreams'
p839
I100
sS'apart'
p840
I106
sS'brought'
p841
I105
sS'-_-'
p842
I106
sS"busters',90020\n510891028157444096,ruizserg,2014-09-13"
p843
I106
sS'texts'
p844
I104
sS'toally'
p845
I106
sS'nude'
p846
I106
sS'gifted'
p847
I106
sS'50'
p848
I102
sS'champ'
p849
I106
sS'remind'
p850
I104
sS'anywaysss'
p851
I106
sS'night'
p852
I75
sS'hung'
p853
I106
sS'security'
p854
I106
sS'andhold'
p855
I106
sS'"meow"'
p856
I106
sS'thisssssss'
p857
I106
sS'battlefield'
p858
I106
sS'right'
p859
I52
sS'old'
p860
I98
sS'squander'
p861
I106
sS'deal'
p862
I104
sS'people'
p863
I76
sS'"hibernating"'
p864
I106
sS'creed'
p865
I106
sS'somehow'
p866
I105
sS'idgaf'
p867
I104
sS'jennifer'
p868
I105
sS'born'
p869
I106
sS'donald'
p870
I106
sS'0-100'
p871
I106
sS'kbbq'
p872
I106
sS'damnnnnnnn'
p873
I106
sS'poolside'
p874
I106
sS'straightening'
p875
I106
sS'bore'
p876
I106
sS'clubz'
p877
I106
sS'funday'
p878
I106
sS'crees'
p879
I106
sS'creep'
p880
I106
sS'namco'
p881
I106
sS'ain\xe2\x80\x99t'
p882
I105
sS'toxic'
p883
I106
sS'humor'
p884
I106
sS'for'
p885
I14
sS'forcing'
p886
I106
sS'/'
p887
I105
sS'tho'
p888
I106
sS'everything'
p889
I90
sS'17:00:45.0,34.06788204,-118.30007457,2119.10,here'
p890
I106
sS'uncrackable'
p891
I106
sS"uncomfortable'"
p892
I106
sS'foo'
p893
I106
sS'adorable'
p894
I99
sS'*we'
p895
I106
sS'cord'
p896
I106
sS'holiday'
p897
I106
sS'shakes'
p898
I106
sS'pls'
p899
I105
sS'geez'
p900
I106
sS'deleted'
p901
I106
sS'spider-man'
p902
I105
sS'burn'
p903
I105
sS'disappeared'
p904
I106
sS'yoka'
p905
I106
sS'\xe2\x98\xba\xef\xb8\x8f\xe2\x98\xba\xef\xb8\x8f\xe2\x98\xba\xef\xb8\x8f\xe2\x98\xba\xef\xb8\x8f\xe2\x98\xba\xef\xb8\x8f'
p906
I106
sS'pinches'
p907
I105
sS'losing'
p908
I105
sS'memorable'
p909
I106
sS'post'
p910
I106
sS'super'
p911
I106
sS'deletes'
p912
I104
sS'trophy'
p913
I106
sS"something's"
p914
I105
sS'*in'
p915
I105
sS'months'
p916
I102
sS'o'
p917
I104
sS'tell\xe2\x80\xa6'
p918
I106
sS'dinner'
p919
I103
sS"askin'"
p920
I106
sS"reason',90020\n511722059324334080,ruizserg,2014-09-16"
p921
I106
sS'book'
p922
I106
sS'17:32:23.0,34.06791658,-118.29998371,2119.10,expect'
p923
I106
sS'raised'
p924
I106
sS'motivate'
p925
I106
sS'managers'
p926
I106
sS"notification'"
p927
I106
sS'lied'
p928
I106
sS'presence'
p929
I105
sS'wasting'
p930
I106
sS'material'
p931
I106
sS'selfie'
p932
I104
sS'dwight'
p933
I106
sS'soo'
p934
I95
sS'ppl'
p935
I105
sS"'bout"
p936
I104
sS'pair'
p937
I105
sS'beings'
p938
I106
sS'irresistibly'
p939
I106
sS'03:30:13.0,34.06777785,-118.30011658,2119.10,another'
p940
I106
sS'methen'
p941
I106
sS'02:24:04.0,34.06781314,-118.29996653,2119.10,too'
p942
I106
sS'wrap'
p943
I106
sS"cry'"
p944
I106
sS'merengue'
p945
I106
sS'welker'
p946
I106
sS"tangerine'"
p947
I106
sS'televised'
p948
I106
sS"couldn't/can't"
p949
I106
sS'happn'
p950
I106
sS'amazingly'
p951
I106
sS'foooooo'
p952
I106
sS'>>>>'
p953
I106
sS'fight'
p954
I97
sS'pumba'
p955
I106
sS'fought'
p956
I106
sS'youuuu\xe2\x98\xba\xef\xb8\x8f'
p957
I106
sS'way'
p958
I84
sS'music'
p959
I104
sS'was'
p960
I35
sS'war'
p961
I105
sS'madruga'
p962
I106
sS'happy'
p963
I85
sS'lowest'
p964
I106
sS'head'
p965
I94
sS'iike'
p966
I106
sS'driver'
p967
I106
sS'batman'
p968
I101
sS'estupido'
p969
I106
sS'fireworks'
p970
I106
sS'fuckkkkkk'
p971
I106
sS'shits'
p972
I106
sS'heat'
p973
I103
sS'hear'
p974
I103
sS'dead'
p975
I105
sS'true'
p976
I101
sS'otter'
p977
I106
sS'isis'
p978
I106
sS'happen'
p979
I99
sS'inside'
p980
I103
sS'ruined'
p981
I105
sS'whuts'
p982
I106
sS'whiskey'
p983
I106
sS'mejust'
p984
I106
sS'nicest'
p985
I104
sS'\xe2\x80\x98cause'
p986
I106
sS'faking'
p987
I106
sS'emotional'
p988
I103
sS'duet'
p989
I106
sS'daddy'
p990
I105
sS'delete'
p991
I105
sS"bit',90020\n511679767800594432,ruizserg,2014-09-16"
p992
I106
sS'later'
p993
I99
sS'proved'
p994
I106
sS'minaj'
p995
I106
sS'upset'
p996
I106
sS'07:53:27.0,34.06784159,-118.29992332,2119.10,let'
p997
I106
sS'2\xe2\x80\x9d'
p998
I106
sS'hungry'
p999
I98
sS'diamond'
p1000
I106
sS'hollar'
p1001
I106
sS'annoying'
p1002
I103
sS'trip'
p1003
I104
sS'shit'
p1004
I50
sS'physical'
p1005
I106
sS'wreeeecking'
p1006
I106
sS'15:17:04.0,34.06780171,-118.3000936,2119.10,the'
p1007
I106
sS'dying'
p1008
I103
sS'floor'
p1009
I105
sS'when'
p1010
I45
sS'actor'
p1011
I106
sS'reality'
p1012
I106
sS'til'
p1013
I103
sS'tim'
p1014
I104
sS'jesus*'
p1015
I106
sS'role'
p1016
I106
sS'holding'
p1017
I105
sS'brings'
p1018
I106
sS'test'
p1019
I106
sS'enemies'
p1020
I106
sS'smell'
p1021
I105
sS'roll'
p1022
I106
sS'realize'
p1023
I103
sS'picture'
p1024
I104
sS'!,90020\n507033194583969792,ruizserg,2014-09-03'
p1025
I106
sS'brothers'
p1026
I106
sS"ruckus'"
p1027
I106
sS'models'
p1028
I106
sS'dies'
p1029
I106
sS'pankcakes'
p1030
I106
sS'felt'
p1031
I103
sS'convincing'
p1032
I106
sS'update'
p1033
I105
sS'04:54:15.0,34.06776109,-118.29980845,2119.10,yup'
p1034
I106
sS"let's"
p1035
I98
sS"twisted'"
p1036
I106
sS'fell'
p1037
I103
sS"steps',90020\n510697753119191040,ruizserg,2014-09-13"
p1038
I106
sS'snooze'
p1039
I106
sS'mirando'
p1040
I106
sS'aware'
p1041
I106
sS'weekend'
p1042
I103
sS'died'
p1043
I106
sS'younger'
p1044
I106
sS'happening'
p1045
I104
sS'apology'
p1046
I106
sS'04:59:04.0,34.06785815,-118.30005043,2119.10,think'
p1047
I106
sS'faze'
p1048
I106
sS'fight\xe2\x80\x9d'
p1049
I106
sS'together'
p1050
I103
sS'loyal'
p1051
I106
sS'tryn'
p1052
I106
sS'time'
p1053
I52
sS'push'
p1054
I105
sS'serious'
p1055
I98
sS'surprised'
p1056
I106
sS'songs'
p1057
I106
sS'1st'
p1058
I106
sS'cares'
p1059
I106
sS':/'
p1060
I106
sS':('
p1061
I73
sS':)'
p1062
I103
sS'whoever'
p1063
I106
sS'dance'
p1064
I106
sS'skip'
p1065
I106
sS'global'
p1066
I106
sS'22:27:23.0,34.06782076,-118.29979333,2119.10,is'
p1067
I106
sS'manager'
p1068
I105
sS'ice'
p1069
I104
sS'grateful'
p1070
I106
sS'skin'
p1071
I106
sS'damn\xe2\x80\x9d'
p1072
I106
sS'apollo'
p1073
I106
sS'*cough*'
p1074
I106
sS'1:00pm'
p1075
I106
sS'depend'
p1076
I106
sS'construct\xe2\x80\xa6'
p1077
I106
sS'father'
p1078
I106
sS'disgusting'
p1079
I105
sS'0'
p1080
I106
sS'finally'
p1081
I49
sS'asking'
p1082
I106
sS':(((('
p1083
I103
sS'me'
p1084
I9
sS':o'
p1085
I102
sS'woodley'
p1086
I106
sS':d'
p1087
I104
sS'keeping'
p1088
I106
sS'tacos'
p1089
I106
sS'vegas'
p1090
I105
sS'peeped!me'
p1091
I106
sS'artwork'
p1092
I106
sS'locked'
p1093
I106
sS'trouble'
p1094
I106
sS'exact'
p1095
I106
sS'minute'
p1096
I104
sS'cool'
p1097
I103
sS'penises'
p1098
I106
sS'salvador'
p1099
I105
sS'did'
p1100
I79
sS'die'
p1101
I101
sS'brother'
p1102
I86
sS'turnt'
p1103
I105
sS'christmas'
p1104
I106
sS'leave'
p1105
I102
sS'p'
p1106
I106
sS'soooo'
p1107
I97
sS'bikes'
p1108
I106
sS'jugarse'
p1109
I106
sS'subway'
p1110
I103
sS'team'
p1111
I100
sS'quick'
p1112
I105
sS'lever'
p1113
I106
sS'guy'
p1114
I96
sS'convince'
p1115
I106
sS'woven'
p1116
I106
sS'blur'
p1117
I106
sS"it'll"
p1118
I104
sS'shave'
p1119
I106
sS'olympic'
p1120
I106
sS'talked'
p1121
I103
sS'says'
p1122
I97
sS'regret'
p1123
I105
sS"shit'"
p1124
I103
sS'1.84'
p1125
I106
sS'sign'
p1126
I103
sS'prairie'
p1127
I106
sS'shirts'
p1128
I106
sS'run'
p1129
I102
sS'migraines'
p1130
I106
sS'rough'
p1131
I105
sS'15:41:58.0,34.06774701,-118.30016532,2119.10,ni'
p1132
I106
sS'a++'
p1133
I106
sS'curse'
p1134
I106
sS'bb'
p1135
I106
sS'barbie'
p1136
I106
sS'whhhhhhhyyyyyy'
p1137
I106
sS'hazel'
p1138
I106
sS'uniform'
p1139
I106
sS'2pm'
p1140
I106
sS'goes'
p1141
I99
sS'reply'
p1142
I97
sS'falling'
p1143
I103
sS'freaky'
p1144
I105
sS'ridic'
p1145
I106
sS'17:05:29.0,34.06800312,-118.30012461,2119.10,i'
p1146
I106
sS'angelina'
p1147
I105
sS"kimberly's"
p1148
I106
sS'target('
p1149
I106
sS"dealin'"
p1150
I106
sS'french'
p1151
I105
sS'travolta'
p1152
I106
sS'water'
p1153
I105
sS'pause'
p1154
I106
sS'baseball'
p1155
I105
sS'yards'
p1156
I106
sS'alone'
p1157
I99
sS"honesty's"
p1158
I106
sS'along'
p1159
I103
sS'tention'
p1160
I106
sS'teacher'
p1161
I106
sS'change'
p1162
I102
sS'wait'
p1163
I86
sS'box'
p1164
I103
sS'boy'
p1165
I106
sS'crumbles'
p1166
I106
sS'fuxk'
p1167
I106
sS'healthy'
p1168
I102
sS'shift'
p1169
I100
sS'bruises'
p1170
I106
sS'studied'
p1171
I106
sS"likewise'"
p1172
I106
sS'temporaries'
p1173
I106
sS'jotadas'
p1174
I105
sS'5ever'
p1175
I105
sS'boi'
p1176
I104
sS'sext'
p1177
I106
sS'tired.\xe2\x80\x9d'
p1178
I106
sS'bon'
p1179
I106
sS'boo'
p1180
I105
sS'usually'
p1181
I104
sS"eazy'"
p1182
I106
sS'weird'
p1183
I99
sS"here'"
p1184
I106
sS'treasure."'
p1185
I106
sS'massage'
p1186
I106
sS'genuinely'
p1187
I105
sS'winner'
p1188
I106
sS'love'
p1189
I40
sS'extra'
p1190
I99
sS'bruh\xe2\x80\x9d'
p1191
I106
sS'prefer'
p1192
I106
sS'"mr'
p1193
I106
sS'keeper'
p1194
I106
sS'nero'
p1195
I106
sS'fake'
p1196
I103
sS'touchdown'
p1197
I102
sS'embarrassing'
p1198
I106
sS'non-mario'
p1199
I106
sS'new"'
p1200
I106
sS'trinidad'
p1201
I106
sS'everybody'
p1202
I105
sS'breaks*'
p1203
I106
sS'voices'
p1204
I106
sS'franco'
p1205
I106
sS'working'
p1206
I96
sS'prove'
p1207
I105
sS'aye'
p1208
I105
sS'angry'
p1209
I104
sS'dude'
p1210
I79
sS'tripping'
p1211
I106
sS'live'
p1212
I101
sS'andy'
p1213
I106
sS'iphone'
p1214
I102
sS'wondering'
p1215
I105
sS'ahhh'
p1216
I105
sS'thru'
p1217
I106
sS'angels'
p1218
I106
sS'today'
p1219
I54
sS'loving'
p1220
I100
sS'oooooooo'
p1221
I106
sS'chapter'
p1222
I106
sS'05:01:00.0,34.06783362,-118.29996394,2119.10,la'
p1223
I106
sS'club'
p1224
I105
sS'pillow'
p1225
I106
sS'cashier'
p1226
I105
sS'through\xe2\x9c\x8a\xe2\x9d\xa4\xef\xb8\x8f\xe2\x80\x9d'
p1227
I106
sS'downtown'
p1228
I106
sS'espero'
p1229
I106
sS'everywhere'
p1230
I105
sS'savior'
p1231
I106
sS"cody's"
p1232
I106
sS'springtime'
p1233
I106
sS'trevor'
p1234
I106
sS'3:30am'
p1235
I106
sS'fly'
p1236
I105
sS"workin'"
p1237
I106
sS'niggas'
p1238
I102
sS'car'
p1239
I104
sS'pretend'
p1240
I106
sS'>:o'
p1241
I106
sS'soul'
p1242
I106
sS'jude'
p1243
I105
sS'cat'
p1244
I105
sS'attacks'
p1245
I106
sS'siikkkkeeeee'
p1246
I106
sS"hammerhead'"
p1247
I106
sS'can'
p1248
I57
sS'9th'
p1249
I105
sS'kendrick'
p1250
I96
sS'growing'
p1251
I105
sS'making'
p1252
I98
sS'detached'
p1253
I106
sS'temprano'
p1254
I106
sS'pickle'
p1255
I105
sS"denny's"
p1256
I106
sS"priorities'"
p1257
I106
sS'heart'
p1258
I88
sS'crazy'
p1259
I98
sS':d\xe2\x80\x9d'
p1260
I105
sS'trump'
p1261
I106
sS'figure'
p1262
I106
sS'awesome'
p1263
I97
sS'200-300$$'
p1264
I106
sS"didn't"
p1265
I84
sS'fuck'
p1266
I33
sS'agent'
p1267
I105
sS'heard'
p1268
I102
sS'fuct'
p1269
I106
sS'02:42:06.0,34.0678216,-118.2999325,2119.10,this'
p1270
I106
sS'dropped'
p1271
I106
sS'allowed'
p1272
I105
sS'spa'
p1273
I106
sS'wooooowwwww'
p1274
I106
sS',90020\n507664699870027776,ruizserg,2014-09-04'
p1275
I106
sS'stole'
p1276
I106
sS'so\xe2\x9c\x8c\xef\xb8\x8f'
p1277
I106
sS'productive'
p1278
I105
sS"wayyy'\xe2\x9c\x8b"
p1279
I106
sS'shhhhhhhh!\xe2\x80\x9d'
p1280
I106
sS'psychiatrist'
p1281
I106
sS'1'
p1282
I102
sS'till'
p1283
I102
sS'sunday'
p1284
I104
sS'bonded'
p1285
I106
sS'fourth'
p1286
I106
sS'bois'
p1287
I106
sS'map'
p1288
I106
sS'staying'
p1289
I105
sS'flirting'
p1290
I106
sS'emcees'
p1291
I106
sS'140'
p1292
I106
sS'influenced'
p1293
I106
sS'may'
p1294
I101
sS'cranky'
p1295
I106
sS'insecurities'
p1296
I105
sS'spot'
p1297
I106
sS'latte'
p1298
I106
sS"14'"
p1299
I106
sS'birthday'
p1300
I95
sS"beyonce's"
p1301
I106
sS'mad'
p1302
I90
sS'date'
p1303
I100
sS'such'
p1304
I92
sS'suck'
p1305
I104
sS'guys'
p1306
I96
sS'grow'
p1307
I105
sS'man'
p1308
I60
sS'stress'
p1309
I105
sS'remember'
p1310
I101
sS'mayweather'
p1311
I106
sS'whenever'
p1312
I104
sS'maybe'
p1313
I95
sS"q's"
p1314
I106
sS"speak'"
p1315
I106
sS'q'
p1316
I92
sS'si'
p1317
I106
sS'mango'
p1318
I106
sS'so'
p1319
I24
sS'silence'
p1320
I106
sS'sm'
p1321
I106
sS'offend'
p1322
I106
sS'wolves'
p1323
I105
sS'mariposa'
p1324
I105
sS'talk'
p1325
I86
sS'celebratn'
p1326
I106
sS'cute'
p1327
I86
sS"'til"
p1328
I105
sS'guadalupe""jorge'
p1329
I106
sS'indeed'
p1330
I106
sS'pointed'
p1331
I106
sS'hardthe'
p1332
I106
sS'wishing'
p1333
I106
sS'years'
p1334
I102
sS'ended'
p1335
I105
sS'episodes'
p1336
I105
sS'lyric'
p1337
I101
sS'shake'
p1338
I104
sS'kanye'
p1339
I102
sS'cold'
p1340
I104
sS'still'
p1341
I59
sS'goooaaaaalllll'
p1342
I106
sS'hidden'
p1343
I106
sS'group'
p1344
I105
sS'thank'
p1345
I82
sS'curly'
p1346
I105
sS'how'
p1347
I48
sS'willow'
p1348
I106
sS'civic'
p1349
I106
sS'sexiest'
p1350
I106
sS'amazing'
p1351
I100
sS'chocolatt\xc3\xa9'
p1352
I106
sS'window'
p1353
I106
sS'suffocate'
p1354
I106
sS"restart',90020\n510893212089606145,ruizserg,2014-09-13"
p1355
I106
sS'tweets'
p1356
I104
sS'mail'
p1357
I106
sS'main'
p1358
I104
sS'ahh'
p1359
I104
sS'texas'
p1360
I105
sS'happened'
p1361
I105
sS'noo'
p1362
I101
sS'emailed'
p1363
I106
sS'moms'
p1364
I106
sS'conversations'
p1365
I106
sS"handeds'"
p1366
I106
sS'nation'
p1367
I106
sS'fr'
p1368
I106
sS'lunch'
p1369
I103
sS'course'
p1370
I106
sS'prunes'
p1371
I106
sS'half'
p1372
I104
sS'not'
p1373
I22
sS"overrated'"
p1374
I106
sS'now'
p1375
I36
sS'ahaha'
p1376
I106
sS'killed'
p1377
I103
sS'12.7k'
p1378
I106
sS'down'
p1379
I84
sS"betch',90020\n509388439620308992,ruizserg,2014-09-09"
p1380
I106
sS'equality'
p1381
I106
sS'name'
p1382
I99
sS'lies'
p1383
I98
sS'james'
p1384
I104
sS'drop'
p1385
I103
sS'debating'
p1386
I106
sS"win'"
p1387
I106
sS"y'all',90020\n511542200123932672,ruizserg,2014-09-15"
p1388
I106
sS'bursts'
p1389
I106
sS'desde'
p1390
I106
sS'rock'
p1391
I103
sS'entirely'
p1392
I106
sS"vma's"
p1393
I106
sS"ya',90020\n507031764439560192,ruizserg,2014-09-03"
p1394
I106
sS'15:59:05.0,34.06783515,-118.29987047,2119.10,and'
p1395
I106
sS'em'
p1396
I105
sS'el'
p1397
I97
sS'eh'
p1398
I106
sS'omfg.\xe2\x80\x9d'
p1399
I106
sS'20:50:08.0,34.06784697,-118.30000366,2119.10,should'
p1400
I106
sS'steven'
p1401
I106
sS'yeah'
p1402
I71
sS'frelance'
p1403
I106
sS'bradley'
p1404
I106
sS'catching'
p1405
I105
sS"message',90020\n521865280528465920,ruizserg,2014-10-14"
p1406
I106
sS'entering'
p1407
I106
sS'year'
p1408
I85
sS'ft'
p1409
I102
sS'girl'
p1410
I97
sS'teams'
p1411
I103
sS"beyonc\xc3\xa9's"
p1412
I106
sS'pills'
p1413
I106
sS'es'
p1414
I104
sS"wan'"
p1415
I106
sS'album'
p1416
I102
sS'living'
p1417
I102
sS'shown'
p1418
I106
sS"disguise'"
p1419
I106
sS'jokes'
p1420
I106
sS'kaayyyyyy'
p1421
I106
sS'ugly.\xe2\x80\x9d'
p1422
I106
sS'looking'
p1423
I102
sS'mess'
p1424
I105
sS'seriously'
p1425
I70
sS'miles'
p1426
I105
sS"shouldn't"
p1427
I102
sS'internet'
p1428
I106
sS'nudes'
p1429
I103
sS'shows'
p1430
I105
sS'odds'
p1431
I106
sS'earlier'
p1432
I103
sS'monster'
p1433
I104
sS'then"'
p1434
I106
sS'huevos'
p1435
I106
sS'cars'
p1436
I105
sS'million'
p1437
I106
sS'boobs'
p1438
I106
sS'five'
p1439
I106
sS"saint'"
p1440
I106
sS'besides'
p1441
I105
sS'grandma'
p1442
I105
sS'nocked'
p1443
I106
sS'card'
p1444
I105
sS'care'
p1445
I101
sS'00:54:31.0,34.06791704,-118.30009077,2119.10,ya'
p1446
I106
sS'advance'
p1447
I106
sS'training'
p1448
I106
sS"fya'"
p1449
I106
sS'language'
p1450
I106
sS'yup'
p1451
I95
sS'k.\xe2\x80\x9d'
p1452
I106
sS'tries'
p1453
I106
sS'thing'
p1454
I98
sS'funky'
p1455
I105
sS'place'
p1456
I100
sS'socking'
p1457
I106
sS'"pass'
p1458
I106
sS'promotion'
p1459
I105
sS'think'
p1460
I65
sS'first'
p1461
I95
sS'cheese'
p1462
I105
sS'flying'
p1463
I106
sS'saving'
p1464
I106
sS'numb'
p1465
I106
sS'xl'
p1466
I105
sS'vanilla'
p1467
I106
sS'safety'
p1468
I106
sS'xd'
p1469
I90
sS'yourself'
p1470
I99
sS'respecting'
p1471
I106
sS'shout'
p1472
I106
sS"tumblr's"
p1473
I106
sS'long'
p1474
I95
sS'message'
p1475
I102
sS'open'
p1476
I102
sS'tomorrow'
p1477
I72
sS"'em"
p1478
I106
sS'city'
p1479
I106
sS'little'
p1480
I85
sS"simple'"
p1481
I106
sS'virgin'
p1482
I106
sS'bite'
p1483
I106
sS'slept'
p1484
I100
sS'plastic'
p1485
I105
sS'anyone'
p1486
I97
sS'fml'
p1487
I106
sS'2'
p1488
I87
sS'draft'
p1489
I105
sS'stuffed'
p1490
I106
sS'aboutid'
p1491
I106
sS'white'
p1492
I98
sS'las'
p1493
I106
sS"pathetic'"
p1494
I106
sS"favor'"
p1495
I106
sS'friend'
p1496
I99
sS'gives'
p1497
I106
sS'exploring'
p1498
I106
sS'eyes'
p1499
I99
sS'x)'
p1500
I103
sS"actresses'"
p1501
I106
sS"nayeli's"
p1502
I106
sS'that'
p1503
I13
sS'pittsburgh'
p1504
I106
sS'season'
p1505
I105
sS'memo'
p1506
I106
sS'suit'
p1507
I106
sS'huh'
p1508
I104
sS"on'"
p1509
I105
sS'artifact'
p1510
I106
sS'problemcutting'
p1511
I106
sS'dudes'
p1512
I106
sS'lesbian'
p1513
I106
sS'fresh'
p1514
I106
sS'berzerk'
p1515
I106
sS'butt'
p1516
I105
sS'lazy'
p1517
I105
sS'than'
p1518
I89
sS"here's"
p1519
I106
sS'boyfriend'
p1520
I105
sS'11'
p1521
I106
sS'10'
p1522
I105
sS'13'
p1523
I104
sS'12'
p1524
I105
sS'15'
p1525
I104
sS'lmao'
p1526
I59
sS'17'
p1527
I105
sS'16'
p1528
I106
sS'19'
p1529
I104
sS'18'
p1530
I104
sS'gotta'
p1531
I99
sS'non-stop'
p1532
I106
sS'metabolism'
p1533
I106
sS'karate'
p1534
I106
sS'rehab'
p1535
I106
sS'r'
p1536
I98
sS'were'
p1537
I89
sS'asleep'
p1538
I98
sS'encanta'
p1539
I106
sS'mommie'
p1540
I106
sS'batman/dark'
p1541
I106
sS'and'
p1542
I7
sS'lick'
p1543
I106
sS'angel'
p1544
I105
sS'20x'
p1545
I106
sS'dass'
p1546
I106
sS'turned'
p1547
I102
sS'sad'
p1548
I94
sS'woah'
p1549
I106
sS'say'
p1550
I77
sS'*happened'
p1551
I106
sS'loko'
p1552
I106
sS'nominating'
p1553
I106
sS'anger'
p1554
I106
sS'saw'
p1555
I105
sS'any'
p1556
I98
sS'kevin'
p1557
I104
sS'sat'
p1558
I105
sS"time',90020\n507321350323597312,ruizserg,2014-09-04"
p1559
I106
sS'cigarettes'
p1560
I106
sS'14:26:44.0,34.06780633,-118.2997852,2119.10,false'
p1561
I106
sS'there\xe2\x80\x99s'
p1562
I104
sS'omfg'
p1563
I101
sS'squad'
p1564
I106
sS'take'
p1565
I68
sS'wanting'
p1566
I105
sS'blinding'
p1567
I106
sS'blunt'
p1568
I106
sS'becoming'
p1569
I106
sS'16:20:29.0,34.06782869,-118.300077,2119.10,i'
p1570
I106
sS'urge'
p1571
I106
sS'santiago'
p1572
I104
sS'sure'
p1573
I97
sS'pain'
p1574
I100
sS'opposite'
p1575
I106
sS'arguing'
p1576
I105
sS'cheesecake'
p1577
I106
sS'enter'
p1578
I106
sS'paid'
p1579
I101
sS'falls'
p1580
I105
sS'assault'
p1581
I106
sS'7:30pm-6:00am'
p1582
I106
sS'aayyyeeeee'
p1583
I106
sS"impossible'"
p1584
I106
sS'green\xe2\x80\xa6'
p1585
I106
sS"growthefuckup'"
p1586
I106
sS'clich\xc3\xa9'
p1587
I101
sS'right?\xe2\x80\x9d'
p1588
I106
sS'america'
p1589
I106
sS'forever'
p1590
I101
sS"quick',90020\n511571459370545152,ruizserg,2014-09-15"
p1591
I106
sS'especially'
p1592
I103
sS'failure'
p1593
I106
sS'proud'
p1594
I105
sS'drive'
p1595
I104
sS"charlie's"
p1596
I105
sS'crooked'
p1597
I106
sS'lyfted'
p1598
I106
sS'bending'
p1599
I106
sS'senior'
p1600
I102
sS'up\xe2\x80\x9d'
p1601
I106
sS'nightmare'
p1602
I106
sS'choice'
p1603
I106
sS"consideration'"
p1604
I106
sS'shop'
p1605
I106
sS'shot'
p1606
I106
sS'\xe2\x9c\xa8'
p1607
I106
sS'show'
p1608
I94
sS'17:07:43.0,34.06779816,-118.29996436,2119.10,best'
p1609
I106
sS'punt.\xe2\x80\x9d'
p1610
I106
sS'bright'
p1611
I106
sS"daniel's"
p1612
I106
sS'corner'
p1613
I106
sS'pacific'
p1614
I106
sS"candy'"
p1615
I106
sS'\xe2\x9c\x8c'
p1616
I105
sS'slow'
p1617
I104
sS"fratelli's"
p1618
I106
sS'\xe2\x9c\x8b'
p1619
I97
sS'\xe2\x9c\x8a'
p1620
I99
sS'daily'
p1621
I103
sS'dick'
p1622
I104
sS'saints'
p1623
I103
sS'enough'
p1624
I98
sS'considering'
p1625
I106
sS'only'
p1626
I65
sS'going'
p1627
I50
sS'black'
p1628
I96
sS'scotty."'
p1629
I106
sS'"brand'
p1630
I106
sS'hoover'
p1631
I106
sS'carolina'
p1632
I106
sS'guarded'
p1633
I106
sS'get'
p1634
I27
sS'assistant'
p1635
I104
sS'*pun'
p1636
I106
sS'truly'
p1637
I105
sS'upgrade'
p1638
I106
sS'cannot'
p1639
I102
sS'negative'
p1640
I106
sS'gee'
p1641
I105
sS'hedge'
p1642
I106
sS"mind'"
p1643
I106
sS'celebrate'
p1644
I104
sS'freaking'
p1645
I106
sS'pa-arts'
p1646
I106
sS'linebacker'
p1647
I106
sS'redeemed'
p1648
I106
sS'borrow'
p1649
I105
sS'morning'
p1650
I87
sS":')"
p1651
I106
sS'stupid'
p1652
I83
sS'roger'
p1653
I106
sS'worries'
p1654
I105
sS'finishing'
p1655
I105
sS'03:50:12.0,34.06785539,-118.30010944,2119.10,no'
p1656
I106
sS'where'
p1657
I95
sS"dead',90020\n507699626871230464,ruizserg,2014-09-05"
p1658
I106
sS'vision'
p1659
I105
sS"y'all"
p1660
I89
sS'dempsey'
p1661
I106
sS',90020\n438510049254584320,venielespanol,2014-02-26'
p1662
I106
sS'17:36:08.0,34.06778305,-118.30001464,2119.10,dusty'
p1663
I106
sS'concert'
p1664
I105
sS'seas'
p1665
I106
sS'*kanye'
p1666
I106
sS'up'
p1667
I22
sS"job'"
p1668
I106
sS'gangster'
p1669
I106
sS'college'
p1670
I100
sS'anyways'
p1671
I106
sS'hoes'
p1672
I101
sS'explosive'
p1673
I106
sS"with',90020\n507023343560564736,ruizserg,2014-09-03"
p1674
I106
sS'squidward'
p1675
I106
sS'hoez'
p1676
I105
sS'wonder'
p1677
I104
sS'mecca'
p1678
I106
sS'um'
p1679
I106
sS'"damn'
p1680
I106
sS'brave'
p1681
I106
sS'ways'
p1682
I104
sS'weapons'
p1683
I106
sS'3'
p1684
I98
sS"down'"
p1685
I105
sS"date'"
p1686
I106
sS'diamonds'
p1687
I106
sS'adore'
p1688
I106
sS'reading'
p1689
I103
sS'across'
p1690
I106
sS"forgotten',90020\n512081060767617024,ruizserg,2014-09-17"
p1691
I106
sS'sirens'
p1692
I106
sS'notice'
p1693
I106
sS'jobs'
p1694
I102
sS'august'
p1695
I106
sS'comp'
p1696
I106
sS'tus'
p1697
I106
sS'yumm'
p1698
I106
sS'js'
p1699
I104
sS'guitar'
p1700
I106
sS'amargada'
p1701
I106
sS'jk'
p1702
I100
sS'jets'
p1703
I106
sS"elly's"
p1704
I106
sS'killing'
p1705
I104
sS'come'
p1706
I89
sS'lopez'
p1707
I105
sS'reaction'
p1708
I106
sS'holyjasmin'
p1709
I106
sS'perceptions'
p1710
I106
sS'am!(x'
p1711
I106
sS'many'
p1712
I97
sS'region'
p1713
I106
sS'gimmicks'
p1714
I106
sS'quiet'
p1715
I103
sS'misspelled'
p1716
I105
sS's'
p1717
I104
sS'remake'
p1718
I106
sS'guardians'
p1719
I105
sS"way'"
p1720
I106
sS"can't"
p1721
I63
sS'joe'
p1722
I106
sS'"get'
p1723
I106
sS'6$'
p1724
I106
sS'thanks('
p1725
I106
sS'pov'
p1726
I106
sS'effective'
p1727
I106
sS'pot'
p1728
I106
sS'hurts'
p1729
I106
sS'jeans'
p1730
I106
sS'period'
p1731
I105
sS'nooooo'
p1732
I105
sS'pon'
p1733
I106
sS"want'"
p1734
I106
sS"couldn't"
p1735
I100
sS'polo'
p1736
I106
sS'associated'
p1737
I106
sS'spark'
p1738
I106
sS'nicole'
p1739
I103
sS'caring'
p1740
I104
sS'dayzzzz'
p1741
I106
sS'cabeza'
p1742
I106
sS'howard'
p1743
I104
sS'west'
p1744
I105
sS'alves'
p1745
I105
sS'vacation'
p1746
I106
sS'turkey'
p1747
I106
sS'breath'
p1748
I105
sS'brittney'
p1749
I106
sS'legit'
p1750
I106
sS'skethyass'
p1751
I106
sS'low...,90020\n521198989614387200,ruizserg,2014-10-12'
p1752
I106
sS'17:39:43.0,34.067825,-118.29990041,2119.10,cx'
p1753
I106
sS'hardly'
p1754
I106
sS'schoolboy'
p1755
I97
sS'wants'
p1756
I102
sS'whaaaallleeee'
p1757
I106
sS'graveyard'
p1758
I98
sS'titties'
p1759
I106
sS'hits'
p1760
I105
sS'dramatic'
p1761
I106
sS'wake'
p1762
I98
sS'"closing"'
p1763
I106
sS'hashtag'
p1764
I106
sS'careful'
p1765
I103
sS'irrelevant'
p1766
I104
sS'bout'
p1767
I103
sS'those'
p1768
I96
sS'sound'
p1769
I105
sS'myself'
p1770
I87
sS'soccer'
p1771
I105
sS'casa'
p1772
I93
sS'disconnected'
p1773
I105
sS'these'
p1774
I80
sS'sauce'
p1775
I105
sS'worried'
p1776
I106
sS'cash'
p1777
I105
sS"life'"
p1778
I106
sS'dorky'
p1779
I106
sS"care'"
p1780
I106
sS'ratchet'
p1781
I106
sS'ally'
p1782
I106
sS"check'"
p1783
I106
sS'situation'
p1784
I106
sS'life*'
p1785
I105
sS"person'"
p1786
I106
sS'mushier'
p1787
I106
sS'eventually'
p1788
I105
sS'them'
p1789
I86
sS'bros'
p1790
I105
sS'sleeping'
p1791
I96
sS'couples'
p1792
I106
sS'middle'
p1793
I105
sS'sudden'
p1794
I105
sS'chinito'
p1795
I105
sS"happen',90020\n507753552496713728,ruizserg,2014-09-05"
p1796
I106
sS'refreeres'
p1797
I106
sS'everyday'
p1798
I103
sS'worry'
p1799
I106
sS'different'
p1800
I106
sS'doctor'
p1801
I102
sS'pay'
p1802
I98
sS'granted'
p1803
I106
sS'tour'
p1804
I106
sS'same'
p1805
I89
sS'check'
p1806
I95
sS'gentlemen'
p1807
I106
sS'ya'
p1808
I99
sS'poetic'
p1809
I106
sS'admirable\xe2\x80\x9d'
p1810
I106
sS'underestimate'
p1811
I106
sS'yessir'
p1812
I106
sS'"i'
p1813
I105
sS'stepped'
p1814
I105
sS'arianas'
p1815
I106
sS'nuckles'
p1816
I106
sS'events'
p1817
I106
sS'pao'
p1818
I104
sS'week'
p1819
I96
sS'favorited'
p1820
I105
sS'finish'
p1821
I100
sS'swiss'
p1822
I106
sS'ni'
p1823
I106
sS'munch'
p1824
I106
sS'ness'
p1825
I106
sS'weed'
p1826
I104
sS'running'
p1827
I104
sS'fruit'
p1828
I106
sS'wired'
p1829
I105
sS'favorites'
p1830
I106
sS'dios'
p1831
I106
sS'changing'
p1832
I105
sS'holyabelardo'
p1833
I106
sS'totally'
p1834
I105
sS'mentally'
p1835
I106
sS'booster'
p1836
I106
sS'\xe2\x9c\x8c\xef\xb8\x8f'
p1837
I46
sS'costa'
p1838
I106
sS'emoji*'
p1839
I106
sS'burrito'
p1840
I103
sS'eeeeeeeeeeeeeee'
p1841
I106
sS'charger'
p1842
I106
sS'no'
p1843
I32
sS'woooaaaaahhhh'
p1844
I106
sS'without'
p1845
I103
sS'solve'
p1846
I106
sS'comes'
p1847
I97
sS'bottle'
p1848
I106
sS"'03"
p1849
I106
sS'otherwise'
p1850
I106
sS'amazed'
p1851
I106
sS"you've"
p1852
I99
sS'summer'
p1853
I102
sS'(x'
p1854
I79
sS'malicious'
p1855
I106
sS'frankie'
p1856
I102
sS"betches',90020\n510562198297407490,ruizserg,2014-09-12"
p1857
I106
sS'wale'
p1858
I106
sS'being'
p1859
I82
sS'money'
p1860
I103
sS'milestone'
p1861
I106
sS'exaggerating'
p1862
I106
sS'rest'
p1863
I101
sS'pissing'
p1864
I106
sS'gooood'
p1865
I106
sS'kill'
p1866
I100
sS'touch'
p1867
I103
sS"anyways'"
p1868
I106
sS'ps4'
p1869
I103
sS'death'
p1870
I105
sS'nas'
p1871
I106
sS'thinking'
p1872
I95
sS'lifelong'
p1873
I106
sS'seems'
p1874
I105
sS'except'
p1875
I105
sS'it\xe2\x80\x99s'
p1876
I106
sS'kimberly'
p1877
I105
sS'lets'
p1878
I102
sS'ahhhh'
p1879
I106
sS'4'
p1880
I91
sS'nfl.\xe2\x80\x9d'
p1881
I106
sS'instructions'
p1882
I106
sS'pill'
p1883
I106
sS'skies'
p1884
I106
sS'5-year-old'
p1885
I106
sS'real'
p1886
I87
sS'starving'
p1887
I105
sS'around'
p1888
I98
sS'bryan'
p1889
I105
sS'read'
p1890
I104
sS'unnecessary'
p1891
I106
sS'gonna'
p1892
I60
sS'dark'
p1893
I104
sS"santiago's"
p1894
I106
sS'rigamortus'
p1895
I106
sS'tingle'
p1896
I106
sS'mom'
p1897
I91
sS'world'
p1898
I91
sS'lady'
p1899
I103
sS"('"
p1900
I104
sS'04:43:03.0,34.06779568,-118.30003731,2119.10,do'
p1901
I106
sS'lamarr'
p1902
I106
sS'stranger'
p1903
I106
sS'achieve'
p1904
I106
sS'nosy'
p1905
I106
sS'miracle'
p1906
I106
sS'together('
p1907
I106
sS'either'
p1908
I100
sS'fully'
p1909
I106
sS'beverly'
p1910
I106
sS'served'
p1911
I105
sS'passionate'
p1912
I106
sS"nigga',90020\n511568222659686400,ruizserg,2014-09-15"
p1913
I106
sS'sleepless'
p1914
I106
sS"klonoa's"
p1915
I106
sS'grub'
p1916
I106
sS'doll'
p1917
I106
sS'orion321'
p1918
I106
sS'competition'
p1919
I106
sS'scouts'
p1920
I106
sS'depressed'
p1921
I106
sS'animal\xe2\x80\x9d'
p1922
I106
sS'cr'
p1923
I106
sS'root'
p1924
I106
sS';o'
p1925
I102
sS'thinks'
p1926
I104
sS'payed'
p1927
I105
sS'"but'
p1928
I106
sS'mood'
p1929
I102
sS'memories'
p1930
I106
sS'nooo'
p1931
I105
sS'moon'
p1932
I106
sS'07:34:50.0,34.06770042,-118.30014402,2119.10,steady'
p1933
I106
sS'throat'
p1934
I106
sS"four'"
p1935
I106
sS'quitting'
p1936
I106
sS'kirkland'
p1937
I106
sS'cramps'
p1938
I106
sS'football'
p1939
I103
sS'business'
p1940
I105
sS'asap'
p1941
I101
sS'lmfao'
p1942
I65
sS'\xe2\x98\xba\xef\xb8\x8f\xe2\x98\xba\xef\xb8\x8f'
p1943
I106
sS'nails'
p1944
I105
sS'ruining'
p1945
I106
sS'tde'
p1946
I106
sS'broken'
p1947
I106
sS'02:45:24.0,34.06779152,-118.29978154,2119.10,when'
p1948
I106
sS'dayput'
p1949
I106
sS"betch'"
p1950
I106
sS';*'
p1951
I104
sS';)'
p1952
I105
sS'throw'
p1953
I102
sS'on'
p1954
I26
sS'boondocks'
p1955
I106
sS'ok'
p1956
I94
sS'cup\xe2\x80\x9d'
p1957
I106
sS'oh'
p1958
I74
sS'og'
p1959
I106
sS'of'
p1960
I15
sS'capable'
p1961
I106
sS'favorite'
p1962
I100
sS'loveeeeee'
p1963
I106
sS'meal'
p1964
I105
sS'trailer'
p1965
I106
sS'neighbor'
p1966
I105
sS'act'
p1967
I105
sS'luck'
p1968
I104
sS'or'
p1969
I64
sS'road'
p1970
I106
sS'jotatas'
p1971
I106
sS'amber'
p1972
I106
sS'dannie'
p1973
I106
sS'ladies'
p1974
I106
sS'shrug*'
p1975
I106
sS'coupon'
p1976
I106
sS'communication'
p1977
I106
sS'spreading'
p1978
I106
sS'sundaymarqt'
p1979
I106
sS'snapchat'
p1980
I98
sS'freaked'
p1981
I105
sS"bidness'"
p1982
I106
sS"morning'"
p1983
I106
sS'ayuda'
p1984
I106
sS'nowadays'
p1985
I106
sS'your'
p1986
I43
sS"lol',90020\n509385934006018048,ruizserg,2014-09-09"
p1987
I106
sS'technically'
p1988
I105
sS'neymar'
p1989
I106
sS"verga'"
p1990
I106
sS"how's"
p1991
I106
sS'her'
p1992
I76
sS'cheesy'
p1993
I106
sS"trip'"
p1994
I106
sS'there'
p1995
I77
sS'madden'
p1996
I103
sS'lol'
p1997
I29
sS'lmfaooo'
p1998
I106
sS'start'
p1999
I88
sS'cats'
p2000
I106
sS'lions'
p2001
I105
sS'dingus'
p2002
I106
sS'lot'
p2003
I93
sS'bubble'
p2004
I106
sS'enojate'
p2005
I106
sS'ehh'
p2006
I105
sS'allergic'
p2007
I106
sS'gain'
p2008
I106
sS'media'
p2009
I106
sS'complete'
p2010
I104
sS"fantasy',90020\n511680932659470336,ruizserg,2014-09-16"
p2011
I106
sS"you'"
p2012
I104
sS'"i\'m'
p2013
I106
sS'toooooo'
p2014
I106
sS"fake',90020\n509386337066045440,ruizserg,2014-09-09"
p2015
I106
sS'texted'
p2016
I106
sS'trying'
p2017
I85
sS'with'
p2018
I23
sS'buying'
p2019
I105
sS'longer'
p2020
I106
sS'pull'
p2021
I105
sS'hire'
p2022
I106
sS'october'
p2023
I105
sS'applying'
p2024
I102
sS'lana'
p2025
I106
sS'pharrell'
p2026
I106
sS"16:55:34.0,34.06776791,-118.3000384,2119.10,alight',90020\n511558352824856576,ruizserg,2014-09-15"
p2027
I106
sS"wasn't"
p2028
I100
sS'18:02:10.0,34.06780615,-118.2998978,2119.10,foget'
p2029
I106
sS'pacman'
p2030
I106
sS'practically'
p2031
I106
sS'bucket'
p2032
I104
sS'flirt'
p2033
I106
sS"brother's"
p2034
I106
sS'sadness'
p2035
I106
sS'taught'
p2036
I106
sS'dirty'
p2037
I106
sS'nobody\xe2\x80\x9d'
p2038
I106
sS'naahhhh'
p2039
I106
sS'define'
p2040
I106
sS'agree'
p2041
I104
sS'connect'
p2042
I106
sS'gone'
p2043
I98
sS'ac'
p2044
I105
sS'taylor'
p2045
I104
sS'ohh'
p2046
I105
sS'fist'
p2047
I106
sS'videos'
p2048
I106
sS'af'
p2049
I103
sS'taste'
p2050
I103
sS'certain'
p2051
I105
sS'doug'
p2052
I106
sS'am'
p2053
I81
sS'al'
p2054
I106
sS'deep'
p2055
I104
sS'an'
p2056
I73
sS"favor',90020\n509385760311488513,ruizserg,2014-09-09"
p2057
I106
sS'!,90020\n511251233886072832,ruizserg,2014-09-14'
p2058
I106
sS'as'
p2059
I67
sS'at'
p2060
I32
sS'aw'
p2061
I104
sS'girlfriend'
p2062
I106
sS'watched'
p2063
I104
sS'moves'
p2064
I106
sS'fill'
p2065
I105
sS'selfish'
p2066
I104
sS'idiot'
p2067
I103
sS'deserve'
p2068
I106
sS"core'"
p2069
I106
sS"alright',90020\n510911309848649728,ruizserg,2014-09-13"
p2070
I106
sS'blinded'
p2071
I106
sS"mariela's"
p2072
I104
sS'tight'
p2073
I106
sS'5'
p2074
I97
sS'george'
p2075
I106
sS'you'
p2076
I5
sS'trash'
p2077
I106
sS'e3)'
p2078
I106
sS'poor'
p2079
I105
sS'poop'
p2080
I106
sS"gon'"
p2081
I105
sS'winking'
p2082
I106
sS'hey'
p2083
I105
sS'obsessed'
p2084
I106
sS'students'
p2085
I105
sS'a+'
p2086
I106
sS'pear'
p2087
I106
sS'waving'
p2088
I106
sS'track'
p2089
I106
sS"intent'"
p2090
I106
sS'finnese'
p2091
I106
sS'included'
p2092
I106
sS'unanimous'
p2093
I106
sS'sneeze'
p2094
I106
sS'pool'
p2095
I105
sS'alcohol'
p2096
I105
sS'calls'
p2097
I104
sS"life's"
p2098
I106
sS'"fill'
p2099
I106
sS'sounded'
p2100
I103
sS'moonlight'
p2101
I106
sS'lipstick'
p2102
I106
sS'larchmont'
p2103
I106
sS'u'
p2104
I95
sS'alright'
p2105
I95
sS'starting'
p2106
I106
sS'childish'
p2107
I106
sS'represent'
p2108
I106
sS'all'
p2109
I25
sS"nigga's"
p2110
I106
sS'liar'
p2111
I106
sS'forget'
p2112
I104
sS'messi'
p2113
I106
sS'caused'
p2114
I106
sS"nation'"
p2115
I106
sS'ale'
p2116
I106
sS'month'
p2117
I103
sS'2015/2016'
p2118
I106
sS'ciudad'
p2119
I106
sS"night',90020\n511727354247274496,ruizserg,2014-09-16"
p2120
I106
sS'faster'
p2121
I106
sS'religious'
p2122
I106
sS'children'
p2123
I105
sS'hmmm'
p2124
I104
sS'blueberries'
p2125
I106
sS"vibe'"
p2126
I106
sS'ty'
p2127
I106
sS'ignorant'
p2128
I106
sS'tu'
p2129
I102
sS'misses'
p2130
I106
sS'thursday'
p2131
I106
sS'spirit'
p2132
I106
sS'to'
p2133
I3
sS'tl'
p2134
I106
sS'program'
p2135
I106
sS'17:04:54.0,34.06779177,-118.30006024,2119.10,they'
p2136
I106
sS'23:52:09.0,34.06782873,-118.30007658,2119.10,be'
p2137
I106
sS'tf'
p2138
I104
sS'smile'
p2139
I102
sS'enjoying'
p2140
I105
sS'tb'
p2141
I106
sS'ta'
p2142
I106
sS'activities'
p2143
I106
sS'woman'
p2144
I102
sS'worse'
p2145
I104
sS'song'
p2146
I103
sS'very'
p2147
I98
sS'2:00pm'
p2148
I106
sS'fav'
p2149
I106
sS'fat'
p2150
I106
sS'tacobell!!!\xe2\x80\x9d'
p2151
I106
sS'sons'
p2152
I104
sS'fan'
p2153
I105
sS'minded'
p2154
I106
sS'bestie'
p2155
I106
sS'fall'
p2156
I99
sS'can('
p2157
I106
sS'difference'
p2158
I106
sS'10000%'
p2159
I106
sS'50k'
p2160
I106
sS'heaven'
p2161
I106
sS'-peacock\xe2\x80\xa6'
p2162
I106
sS'kovalev'
p2163
I106
sS'--'
p2164
I106
sS"is'"
p2165
I106
sS'laying'
p2166
I106
sS'theaters'
p2167
I106
sS'mansuki'
p2168
I106
sS'reminding'
p2169
I106
sS'sang'
p2170
I106
sS'vibes'
p2171
I106
sS'adjust'
p2172
I106
sS'startin'
p2173
I106
sS"donny's"
p2174
I106
sS'small'
p2175
I105
sS'smith'
p2176
I106
sS'clinches'
p2177
I106
sS"i'll"
p2178
I70
sS'cookies'
p2179
I102
sS'neighborhood'
p2180
I105
sS'lecturing'
p2181
I106
sS'$10000'
p2182
I106
sS'past'
p2183
I96
sS"tellin'"
p2184
I106
sS'rate'
p2185
I106
sS'pass'
p2186
I105
sS'putting'
p2187
I104
sS'what'
p2188
I53
sS'tweeted'
p2189
I106
sS'abe'
p2190
I102
sS'clock'
p2191
I105
sS'mf'
p2192
I106
sS'burgundy'
p2193
I106
sS'stoop'
p2194
I106
sS'version'
p2195
I105
sS'apologized'
p2196
I106
sS'23:19:58.0,34.06778967,-118.30006787,2119.10,...and,90020\n510930177556094976,ruizserg,2014-09-13'
p2197
I106
sS'destroyed'
p2198
I106
sS"him'"
p2199
I106
sS"male's"
p2200
I106
sS'public'
p2201
I106
sS'sux'
p2202
I106
sS'turmoil'
p2203
I106
sS'full'
p2204
I104
sS'christian'
p2205
I105
sS"c'mon"
p2206
I105
sS'*abelardo'
p2207
I106
sS'pollo'
p2208
I106
sS'vale'
p2209
I104
sS'forgive'
p2210
I106
sS'hours'
p2211
I76
sS'*asks'
p2212
I106
sS'relaxation'
p2213
I106
sS'strong'
p2214
I101
sS'table'
p2215
I106
sS'tragedy'
p2216
I106
sS'$trip'
p2217
I106
sS'ahead'
p2218
I105
sS'jim'
p2219
I106
sS'inspired'
p2220
I106
sS'4real'
p2221
I106
sS'creepy'
p2222
I105
sS"that',90020\n507025960634294272,ruizserg,2014-09-03"
p2223
I106
sS'prior'
p2224
I106
sS'airport'
p2225
I106
sS'advertising'
p2226
I106
sS'homies"'
p2227
I106
sS'social'
p2228
I103
sS'raza'
p2229
I100
sS'navas'
p2230
I106
sS"yourself'"
p2231
I106
sS'fuck"'
p2232
I106
sS"know',90020\n510620228628127744,ruizserg,2014-09-13"
p2233
I106
sS'brightest'
p2234
I106
sS'via'
p2235
I106
sS'followed'
p2236
I106
sS'family'
p2237
I105
sS'nooooooooo'
p2238
I106
sS'suddenly'
p2239
I106
sS'africa'
p2240
I104
sS'munchkin'
p2241
I106
sS'chingan'
p2242
I106
sS'escula!"'
p2243
I106
sS"know'"
p2244
I104
sS'vip'
p2245
I106
sS'analyzing'
p2246
I106
sS'lurked'
p2247
I106
sS'gosh'
p2248
I102
sS'20:41:27.0,34.06786193,-118.2998745,2119.10,baby'
p2249
I106
sS'emoji'
p2250
I106
sS'whistled'
p2251
I106
sS'eye'
p2252
I106
sS'takes'
p2253
I106
sS'asta'
p2254
I106
sS"edge'"
p2255
I106
sS'two'
p2256
I90
sS'tought'
p2257
I106
sS'amenities'
p2258
I106
sS'kale\xe2\x80\xa6'
p2259
I106
sS'6'
p2260
I102
sS'taken'
p2261
I105
sS'more'
p2262
I83
sS'tryna'
p2263
I104
sS"business'"
p2264
I106
sS'door'
p2265
I105
sS'knows'
p2266
I102
sS'bill$$$$'
p2267
I106
sS'&amp'
p2268
I106
sS"700'"
p2269
I106
sS'surprisingly'
p2270
I106
sS"ain't"
p2271
I77
sS'basically'
p2272
I105
sS'broke'
p2273
I103
sS'particular'
p2274
I106
sS'bye-bye'
p2275
I106
sS'hurry'
p2276
I106
sS'glad'
p2277
I102
sS'23:17:01.0,34.06788271,-118.29977676,2119.10,,90020\n510917688059625472,ruizserg,2014-09-13'
p2278
I106
sS'none'
p2279
I103
sS'hour'
p2280
I102
sS'science'
p2281
I106
sS"flow',90020\n510599669550809088,ruizserg,2014-09-13"
p2282
I106
sS'sucks'
p2283
I99
sS'"own'
p2284
I106
sS'duh'
p2285
I106
sS'nina'
p2286
I106
sS'bias'
p2287
I106
sS'del'
p2288
I106
sS'intercepted'
p2289
I106
sS'learn'
p2290
I105
sS'def'
p2291
I105
sS'history'
p2292
I106
sS'beautiful'
p2293
I92
sS'compare'
p2294
I106
sS'hamburger'
p2295
I106
sS'challenging'
p2296
I106
sS'brown'
p2297
I105
sS'lives'
p2298
I106
sS'*busy'
p2299
I106
sS'terrible'
p2300
I106
sS'pushed'
p2301
I106
sS"parker's"
p2302
I106
sS'salty'
p2303
I103
sS'numbers'
p2304
I106
sS'sense'
p2305
I105
sS'dress'
p2306
I105
sS'nothingggggggg'
p2307
I106
sS'huge'
p2308
I106
sS'needs'
p2309
I98
sS'comfortable'
p2310
I106
sS'goal'
p2311
I102
sS'awkward'
p2312
I103
sS'lousy'
p2313
I106
sS'rather'
p2314
I103
sS'breaking'
p2315
I105
sS"erhg'"
p2316
I106
sS'hannah'
p2317
I106
sS'buenos'
p2318
I106
sS'ayyyyy'
p2319
I106
sS'tide'
p2320
I106
sS'sandwich'
p2321
I105
sS'okay'
p2322
I85
sS'tried'
p2323
I104
sS'rude'
p2324
I106
sS'algebra'
p2325
I106
sS'rhyme'
p2326
I105
sS'advice'
p2327
I105
sS'xenoblade'
p2328
I106
sS'minds'
p2329
I106
sS"idiota'"
p2330
I106
sS'jajaja'
p2331
I105
sS'pendejo'
p2332
I106
sS'coming'
p2333
I98
sS'pendeja'
p2334
I106
sS'warfare'
p2335
I106
sS':c'
p2336
I106
sS'a'
p2337
I6
sS"disposal',90020\n510572818786820096,ruizserg,2014-09-12"
p2338
I106
sS'short'
p2339
I106
sS"clowns',90020\n507029991066845185,ruizserg,2014-09-03"
p2340
I106
sS"that'd"
p2341
I106
sS'tweeting'
p2342
I106
sS'shady'
p2343
I106
sS'rooting'
p2344
I106
sS'seconds'
p2345
I106
sS'volleyball'
p2346
I106
sS'wishes'
p2347
I106
sS'bro....\xe2\x80\x9d'
p2348
I106
sS'daddie'
p2349
I106
sS'pleasure'
p2350
I105
sS"03:32:22.0,34.06779843,-118.29967283,2119.10,futa',90020\n510624666851889152,ruizserg,2014-09-13"
p2351
I106
sS'dream'
p2352
I102
sS'playing'
p2353
I96
sS"that's"
p2354
I58
sS'replied'
p2355
I106
sS'serenade'
p2356
I106
sS'mexican'
p2357
I104
sS'help'
p2358
I102
sS"don't"
p2359
I21
sS'september'
p2360
I105
sS'sooo'
p2361
I101
sS'soon'
p2362
I94
sS'allto'
p2363
I106
sS'attitude'
p2364
I105
sS'through'
p2365
I90
sS'shit\xe2\x80\x9d'
p2366
I105
sS"soul'"
p2367
I106
sS'hell'
p2368
I97
sS'smiling'
p2369
I106
sS'its'
p2370
I103
sS'unhealthy'
p2371
I106
sS'24'
p2372
I106
sS'25'
p2373
I103
sS'27'
p2374
I106
sS'20'
p2375
I105
sS'21'
p2376
I105
sS'22'
p2377
I105
sS'23'
p2378
I105
sS'pray'
p2379
I105
sS'border'
p2380
I106
sS'caesars'
p2381
I106
sS'beyonce'
p2382
I106
sS'dolla'
p2383
I106
sS'actually'
p2384
I95
sS'late'
p2385
I95
sS'>>>'
p2386
I106
sS'individuals'
p2387
I106
sS'11:00am'
p2388
I106
sS'lorrrrrrrd'
p2389
I106
sS'peanuts'
p2390
I106
sS'argentina'
p2391
I103
sS'cutie'
p2392
I104
sS'might'
p2393
I100
sS'disfigured'
p2394
I106
sS"haven't"
p2395
I90
sS'fool'
p2396
I106
sS'hurting'
p2397
I105
sS'good'
p2398
I38
sS'somebody'
p2399
I106
sS'yo'
p2400
I106
sS'entire'
p2401
I106
sS'food'
p2402
I103
sS"it'"
p2403
I101
sS'uhm'
p2404
I106
sS'it"'
p2405
I106
sS'speechless'
p2406
I106
sS'hahahahahaha'
p2407
I106
sS'starbucks'
p2408
I104
sS'weeds'
p2409
I106
sS'misuse'
p2410
I106
sS'ninja'
p2411
I106
sS'emojis*'
p2412
I105
sS'complain'
p2413
I104
sS'bigger'
p2414
I105
sS'foos'
p2415
I106
sS'easily'
p2416
I103
sS'pregnant'
p2417
I106
sS'bullet'
p2418
I106
sS'always'
p2419
I84
sS'drake'
p2420
I104
sS'bless'
p2421
I104
sS'tear'
p2422
I106
sS'someone'
p2423
I89
sS'stopped'
p2424
I105
sS'found'
p2425
I103
sS'fairy'
p2426
I106
sS'reduuuuuuucer'
p2427
I106
sS"isn't"
p2428
I99
sS'reactions'
p2429
I106
sS'everyone'
p2430
I80
sS'mental'
p2431
I106
sS'weight'
p2432
I105
sS'house'
p2433
I104
sS'energy'
p2434
I105
sS'hard'
p2435
I96
sS'idea'
p2436
I101
sS'accidentally'
p2437
I106
sS'17:02:21.0,34.06788204,-118.30007457,2119.10,you'
p2438
I106
sS'culocion'
p2439
I106
sS'expect'
p2440
I105
sS"quick'"
p2441
I106
sS'callate'
p2442
I106
sS"ausgebombt'"
p2443
I106
sS'blues'
p2444
I106
sS'hart'
p2445
I104
sS'todo'
p2446
I106
sS'anarchy'
p2447
I104
sS'really'
p2448
I52
sS'anxious'
p2449
I106
sS'dears'
p2450
I106
sS'lovers'
p2451
I106
sS'missed'
p2452
I103
sS'robert'
p2453
I101
sS'since'
p2454
I97
sS"go',90020\n510474850637332480,ruizserg,2014-09-12"
p2455
I106
sS'jolly'
p2456
I106
sS'hayden'
p2457
I106
sS'acting'
p2458
I102
sS'usa.\xe2\x80\x9d'
p2459
I106
sS'health'
p2460
I105
sS'lord'
p2461
I106
sS"they'll"
p2462
I102
sS'too!:('
p2463
I106
sS'warholian'
p2464
I106
sS'lolz'
p2465
I106
sS'gardener'
p2466
I106
sS'diy'
p2467
I106
sS'ass'
p2468
I74
sS'drink'
p2469
I101
sS'senioritis'
p2470
I106
sS"igaf'"
p2471
I105
sS'friday'
p2472
I101
sS'guess'
p2473
I87
sS'\xe2\x9c\x8c\xef\xb8\x8f\xe2\x9c\xa8'
p2474
I106
sS'reason'
p2475
I101
sS'cookie'
p2476
I106
sS'disneyland'
p2477
I104
sS'imagine'
p2478
I103
sS'put'
p2479
I101
sS'stan'
p2480
I106
sS'beginning'
p2481
I104
sS'improved'
p2482
I106
sS'definition'
p2483
I106
sS'm.a.a.d'
p2484
I106
sS'salvadorian'
p2485
I106
sS'success'
p2486
I105
sS'xd\xe2\x80\x9d'
p2487
I106
sS'american'
p2488
I106
sS"back'"
p2489
I106
sS'expecting'
p2490
I106
sS'w'
p2491
I106
sS'2-1\xe2\x80\x9d'
p2492
I106
sS'04:00:10.0,34.06782136,-118.29984952,2119.10,force'
p2493
I106
sS'fallen'
p2494
I106
sS'throws'
p2495
I106
sS'feed'
p2496
I105
sS'major'
p2497
I106
sS'dont'
p2498
I101
sS'feel'
p2499
I67
sS'ghetto'
p2500
I106
sS'welcome'
p2501
I100
sS'sisters'
p2502
I106
sS"else'"
p2503
I106
sS'done'
p2504
I81
sS'colombia'
p2505
I105
sS'miss'
p2506
I90
sS"quicker',90020\n510901694087958528,ruizserg,2014-09-13"
p2507
I106
sS"eventually',90020\n507720297546383360,ruizserg,2014-09-05"
p2508
I106
sS"mean'"
p2509
I106
sS'story'
p2510
I102
sS'"'
p2511
I105
sS'watches'
p2512
I106
sS"been'"
p2513
I106
sS'5th'
p2514
I106
sS"thoughts'"
p2515
I106
sS'ittttttt'
p2516
I106
sS'least'
p2517
I101
sS'warming'
p2518
I106
sS'passed'
p2519
I102
sS'dealing'
p2520
I105
sS'mama'
p2521
I105
sS'hundred'
p2522
I105
sS'jen'
p2523
I106
sS'store'
p2524
I105
sS'headache'
p2525
I103
sS'now!,90020\n511570067230699520,ruizserg,2014-09-15'
p2526
I106
sS'selling'
p2527
I105
sS'pains'
p2528
I105
sS'relationship'
p2529
I101
sS'00:54:07.0,34.06784839,-118.29986313,2119.10,,90020\n510587184231878656,ruizserg,2014-09-13'
p2530
I106
sS'relieved'
p2531
I106
sS'grimy'
p2532
I106
sS"amber's"
p2533
I106
sS"protection',90020\n509401390880260097,ruizserg,2014-09-09"
p2534
I106
sS"i'ma"
p2535
I102
sS'again.\xe2\x80\x9d'
p2536
I106
sS'handshakes'
p2537
I106
sS'part'
p2538
I100
sS'zeppelin'
p2539
I106
sS'risks'
p2540
I106
sS'theater'
p2541
I106
sS'believe'
p2542
I92
sS'omfffg\xe2\x80\x9dwhat'
p2543
I106
sS'king'
p2544
I103
sS'kind'
p2545
I102
sS'legs'
p2546
I106
sS'tooth'
p2547
I106
sS'gotten'
p2548
I100
sS'grey'
p2549
I106
sS'cost'
p2550
I106
sS'tats'
p2551
I106
sS'salazar'
p2552
I106
sS'dang'
p2553
I106
sS'04:04:43.0,34.06776781,-118.29996907,2119.10,searchin'
p2554
I106
sS':((('
p2555
I105
sS'uncomfortable'
p2556
I106
sS'kart'
p2557
I106
sS'randomly'
p2558
I105
sS'murder'
p2559
I106
sS'alike'
p2560
I106
sS'showers'
p2561
I106
sS'orders'
p2562
I106
sS'vulnerable'
p2563
I106
sS'sell'
p2564
I106
sS'lie'
p2565
I96
sS'wilson'
p2566
I106
sS'nights'
p2567
I103
sS"naht'"
p2568
I106
sS'self'
p2569
I104
sS'officers'
p2570
I106
sS'also'
p2571
I106
sS'ex3'
p2572
I106
sS'maintain'
p2573
I106
sS'play'
p2574
I100
sS'added'
p2575
I106
sS'serena'
p2576
I106
sS'quavo'
p2577
I106
sS'park'
p2578
I106
sS'english'
p2579
I106
sS'annnnnnnnnnddddd'
p2580
I106
sS'freddie'
p2581
I106
sS'most'
p2582
I94
sS'virus'
p2583
I106
sS'hired'
p2584
I105
sS'yawk'
p2585
I103
sS"'cause"
p2586
I105
sS'70'
p2587
I106
sS'nothing'
p2588
I80
sS'seasons'
p2589
I105
sS'11:11'
p2590
I106
sS'extremely'
p2591
I106
sS'real..\xe2\x80\x9d'
p2592
I106
sS'understands'
p2593
I106
sS'bumping'
p2594
I106
sS'animales'
p2595
I106
sS'bug'
p2596
I106
sS'seize'
p2597
I105
sS'tesla...began'
p2598
I106
sS'"you\'re'
p2599
I105
sS'sometimes'
p2600
I87
sS'drifts'
p2601
I106
sS'vales'
p2602
I106
sS'04:20:47.0,34.0678188,-118.29994968,2119.10,i'
p2603
I106
sS'clean'
p2604
I106
sS'\xe2\x98\x80\xef\xb8\x8f'
p2605
I106
sS'48k'
p2606
I106
sS'sf'
p2607
I106
sS'lying'
p2608
I104
sS'filmed'
p2609
I106
sS'despise'
p2610
I106
sS'ugh'
p2611
I94
sS'gold'
p2612
I105
sS'01:25:11.0,34.06777484,-118.29996594,2119.10,susass'
p2613
I106
sS"17:10:42.0,34.06784179,-118.29997233,2119.10,shadowboxin',90020\n509387125133815808,ruizserg,2014-09-09"
p2614
I106
sS'league'
p2615
I106
sS"16:18:21.0,34.06776206,-118.29987374,2119.10,...riiight',90020\n511546269668360192,ruizserg,2014-09-15"
p2616
I106
sS'wavy/curled'
p2617
I106
sS'stfu'
p2618
I106
sS'weho'
p2619
I106
sS'hyped'
p2620
I106
sS'bodybuilding'
p2621
I106
sS"man's"
p2622
I106
sS'fine'
p2623
I101
sS'find'
p2624
I104
sS'idiota'
p2625
I106
sS'03:03:02.0,34.0679232,-118.30022159,2119.10,escape'
p2626
I106
sS'cried'
p2627
I106
sS'04:52:34.0,34.06795136,-118.30013475,2119.10,cuz'
p2628
I106
sS'pinche'
p2629
I102
sS'paranoid'
p2630
I105
sS'ruin'
p2631
I106
sS'05:04:59.0,34.06782311,-118.30003061,2119.10,has'
p2632
I106
sS'unhappy'
p2633
I106
sS'penalty'
p2634
I106
sS'failed'
p2635
I106
sS'jochy'
p2636
I106
sS'central'
p2637
I105
sS'pretty'
p2638
I83
sS'barbecues'
p2639
I106
sS'ughh'
p2640
I106
sS'8'
p2641
I103
sS"mom's"
p2642
I105
sS'hip'
p2643
I106
sS'bebe'
p2644
I106
sS'his'
p2645
I78
sS'hit'
p2646
I100
sS'freaks'
p2647
I106
sS'beyonc\xc3\xa9'
p2648
I104
sS"means'"
p2649
I106
sS"they'd"
p2650
I106
sS'feels'
p2651
I94
sS'b'
p2652
I106
sS'*doesnt'
p2653
I106
sS'procrastination'
p2654
I105
sS'during'
p2655
I99
sS'dose'
p2656
I106
sS'him'
p2657
I76
sS'enemy'
p2658
I106
sS'adulthood'
p2659
I106
sS'showed'
p2660
I106
sS'beyonc\xc3\x89'
p2661
I106
sS'rft'
p2662
I105
sS'cry'
p2663
I101
sS'tale'
p2664
I106
sS'double'
p2665
I103
sS'x'
p2666
I102
sS"ever!'"
p2667
I106
sS'set'
p2668
I106
sS'throwing'
p2669
I102
sS'seats'
p2670
I106
sS'vine'
p2671
I106
sS'arrives'
p2672
I106
sS'sex'
p2673
I104
sS'see'
p2674
I66
sS'dumb'
p2675
I100
sS'are'
p2676
I36
sS'sea'
p2677
I104
sS'blackkkkkkkk'
p2678
I106
sS'arh'
p2679
I106
sS'close'
p2680
I100
sS'01:19:58.0,34.06780369,-118.29984493,2119.10,damnnn'
p2681
I106
sS'greece'
p2682
I106
sS'sleeeeeeep'
p2683
I106
sS'project'
p2684
I106
sS'californication'
p2685
I106
sS'patties'
p2686
I106
sS'visiting'
p2687
I106
sS'pictures'
p2688
I105
sS'wow'
p2689
I93
sS"happening'"
p2690
I106
sS'please'
p2691
I101
sS'demons'
p2692
I106
sS'case'
p2693
I106
sS'fans'
p2694
I105
sS'won'
p2695
I104
sS'this!,90020\n521878257163964417,ruizserg,2014-10-14'
p2696
I106
sS'probably'
p2697
I101
sS'donate'
p2698
I105
sS'nope'
p2699
I101
sS'compliment'
p2700
I106
sS'steelers'
p2701
I100
sS'condescension'
p2702
I106
sS"sanity'"
p2703
I106
sS'korea'
p2704
I102
sS'missing'
p2705
I106
sS"day'"
p2706
I106
sS'sold'
p2707
I106
sS'attention'
p2708
I105
sS"chumps'"
p2709
I106
sS'(while'
p2710
I106
sS'succeed'
p2711
I106
sS"that'"
p2712
I106
sS"me',90020\n511587978225799168,ruizserg,2014-09-15"
p2713
I106
sS'understanding'
p2714
I106
sS'suegra'
p2715
I106
sS'pissed'
p2716
I106
sS'both'
p2717
I98
sS'c'
p2718
I104
sS'last'
p2719
I87
sS'license'
p2720
I106
sS'thot'
p2721
I105
sS"wouldn't"
p2722
I104
sS'barely'
p2723
I103
sS'uglier'
p2724
I106
sS'became'
p2725
I105
sS'me!\xe2\x80\x9d'
p2726
I106
sS'smh\xe2\x80\x9d'
p2727
I106
sS"we've"
p2728
I106
sS'thisssssssss'
p2729
I106
sS'vault'
p2730
I106
sS'whole'
p2731
I93
sS'hiding'
p2732
I106
sS'patty'
p2733
I106
sS'load'
p2734
I106
sS"opposite'"
p2735
I106
sS'town-'
p2736
I103
sS'ranchers'
p2737
I106
sS'drunk'
p2738
I101
sS'simple'
p2739
I103
sS'sweet'
p2740
I102
sS"ima'"
p2741
I106
sS'smashing'
p2742
I106
sS'motivation'
p2743
I105
sS'whatever'
p2744
I100
sS'header'
p2745
I103
sS'simply'
p2746
I105
sS'likes'
p2747
I106
sS'luis'
p2748
I105
sS"work'"
p2749
I106
sS'mission'
p2750
I106
sS'goats'
p2751
I106
sS'headaches'
p2752
I106
sS"ralph's"
p2753
I106
sS'devin'
p2754
I97
sS'consuming'
p2755
I106
sS'devil'
p2756
I106
sS'naps'
p2757
I100
sS'raise'
p2758
I106
sS'chick'
p2759
I106
sS'verse'
p2760
I106
sS"everything'"
p2761
I106
sS'hitting'
p2762
I106
sS'rattle'
p2763
I106
sS'secret'
p2764
I105
sS'00:25:43.0,34.06779734,-118.2998978,2119.10,all'
p2765
I106
sS'damn'
p2766
I73
sS'pe'
p2767
I103
sS'threaten'
p2768
I106
sS"brain',90020\n511550684819226625,ruizserg,2014-09-15"
p2769
I106
sS'back\xe2\x80\x9d'
p2770
I106
sS'whoa'
p2771
I106
sS'woke'
p2772
I104
sS"suckers'"
p2773
I106
sS'kathy'
p2774
I105
sS'resting'
p2775
I106
sS'sweetheart'
p2776
I106
sS'lived'
p2777
I106
sS'flight'
p2778
I106
sS'lucky"'
p2779
I106
sS'gay'
p2780
I102
sS'fire'
p2781
I104
sS'caleb'
p2782
I105
sS"what's"
p2783
I97
sS'natl'
p2784
I106
sS'else'
p2785
I98
sS"intelligent'"
p2786
I106
sS'awake'
p2787
I91
sS'liver'
p2788
I106
sS'akons'
p2789
I106
sS'despite'
p2790
I106
sS"reason'"
p2791
I106
sS'funk'
p2792
I106
sS'fur'
p2793
I106
sS'look'
p2794
I84
sS'straight'
p2795
I101
sS'tip'
p2796
I106
sS'04:53:47.0,34.06794285,-118.30014649,2119.10,unlike'
p2797
I106
sS'earthquakes'
p2798
I106
sS'while'
p2799
I96
sS'smart'
p2800
I105
sS'fun'
p2801
I101
sS'-.-\xe2\x80\x9d'
p2802
I104
sS'31'
p2803
I106
sS'swim'
p2804
I106
sS'<3'
p2805
I104
sS'\xe2\x80\x9chold'
p2806
I106
sS'backing'
p2807
I106
sS'goaaalllll'
p2808
I106
sS'ducks'
p2809
I106
sS'xtra'
p2810
I106
sS'ready'
p2811
I87
sS'seem'
p2812
I104
sS'retarded'
p2813
I106
sS'funny'
p2814
I92
sS'raiders'
p2815
I106
sS'anymore'
p2816
I93
sS'paying'
p2817
I106
sS'migraine'
p2818
I105
sS'belong'
p2819
I106
sS'fading'
p2820
I106
sS'kirby'
p2821
I106
sS'delicious'
p2822
I106
sS'corridos'
p2823
I106
sS'9'
p2824
I106
sS'eww'
p2825
I106
sS'22:02:03.0,34.06782583,-118.29987367,2119.10,thiiiiss'
p2826
I106
sS'used'
p2827
I100
sS'temporary'
p2828
I106
sS'somewhere'
p2829
I106
sS'keys'
p2830
I105
sS'dovey"'
p2831
I106
sS'blair'
p2832
I106
sS'yesterday'
p2833
I101
sS'stacy'
p2834
I106
sS'moment'
p2835
I102
sS'u.s'
p2836
I106
sS'moving'
p2837
I104
sS'user'
p2838
I106
sS"mankind'"
p2839
I106
sS'"relax'
p2840
I106
sS'ab'
p2841
I106
sS'soooooooooo'
p2842
I106
sS'early'
p2843
I99
sS'ripping'
p2844
I106
sS'older'
p2845
I105
sS"matt!!'"
p2846
I106
sS"dad's"
p2847
I105
sS'cheek'
p2848
I106
sS'spent'
p2849
I105
sS'county'
p2850
I106
sS'obviously'
p2851
I103
sS'person'
p2852
I100
sS'cheer'
p2853
I105
sS'butyl'
p2854
I106
sS"sabbath'"
p2855
I106
sS'starved'
p2856
I106
sS'haha\xe2\x80\x9dlmaooo\xe2\x80\x9d'
p2857
I106
sS'y'
p2858
I100
sS"yet'"
p2859
I106
sS'17:30:28.0,34.06790555,-118.30024305,2119.10,why'
p2860
I106
sS'spend'
p2861
I105
sS"david's"
p2862
I106
sS'i\xe2\x80\x99m'
p2863
I103
sS'salvi'
p2864
I106
sS'brazil\xe2\x80\x9d'
p2865
I106
sS'\xe2\x9d\xa4'
p2866
I106
sS'embarrassinggggg'
p2867
I106
sS'product'
p2868
I106
sS'belgium'
p2869
I106
sS"lives'"
p2870
I106
sS"i'mma"
p2871
I106
sS'cocky'
p2872
I105
sS'behind'
p2873
I106
sS'retired'
p2874
I106
sS'procrastinating'
p2875
I106
sS'letting'
p2876
I105
sS'tables'
p2877
I106
sS'cut'
p2878
I104
sS"00:34:05.0,34.06783275,-118.30007455,2119.10,moron',90020\n510585078498332673,ruizserg,2014-09-13"
p2879
I106
sS'cup'
p2880
I99
sS'disappointed'
p2881
I106
sS'cuz'
p2882
I103
sS'eager'
p2883
I106
sS'overthinking'
p2884
I106
sS'parents'
p2885
I98
sS'location'
p2886
I106
sS'crying'
p2887
I102
sS'snap'
p2888
I105
sS'taurino'
p2889
I105
sS'excited'
p2890
I98
sS'hates'
p2891
I105
sS'bio'
p2892
I105
sS'customers'
p2893
I106
sS'life!\xe2\x80\x9d'
p2894
I106
sS"thee'"
p2895
I106
sS'big'
p2896
I88
sS'couple'
p2897
I101
sS'joined'
p2898
I106
sS'shitty'
p2899
I105
sS'game'
p2900
I92
sS"way',90020\n510474144090050560,ruizserg,2014-09-12"
p2901
I106
sS'backdooring'
p2902
I106
sS"frankie's"
p2903
I106
sS'bit'
p2904
I99
sS'wings'
p2905
I106
sS'flannel'
p2906
I106
sS'knock'
p2907
I104
sS'd'
p2908
I104
sS'shaped'
p2909
I106
sS'follows'
p2910
I106
sS'donny'
p2911
I93
sS'ignore'
p2912
I106
sS'paycheck'
p2913
I106
sS'continue'
p2914
I105
sS'drakiest'
p2915
I106
sS'ivan'
p2916
I102
sS'me\xe2\x80\x9d'
p2917
I105
sS'google'
p2918
I106
sS'often'
p2919
I105
sS'fucking'
p2920
I55
sS'goddamn'
p2921
I106
sS"doe',90020\n511558958398443520,ruizserg,2014-09-15"
p2922
I106
sS'some'
p2923
I67
sS'back'
p2924
I44
sS'bounce'
p2925
I106
sS'irreplaceable'
p2926
I106
sS'mighty'
p2927
I106
sS'serves'
p2928
I106
sS'isnt'
p2929
I106
sS'yerba'
p2930
I105
sS'boogers'
p2931
I106
sS'hmmmm'
p2932
I106
sS'delivered'
p2933
I106
sS'minute\xe2\x80\x9d'
p2934
I106
sS'decision'
p2935
I104
sS'shall'
p2936
I102
sS'cocaine\xe2\x80\x9dor'
p2937
I106
sS'wiz'
p2938
I106
sS'meds'
p2939
I106
sS'good"'
p2940
I106
sS'01:24:11.0,34.06783627,-118.30013781,2119.10,evil'
p2941
I106
sS'last...when'
p2942
I106
sS'lime'
p2943
I106
sS'girrrrrl'
p2944
I106
sS'laughing'
p2945
I105
sS'be'
p2946
I20
sS'bf'
p2947
I106
sS'eating'
p2948
I103
sS'rapping'
p2949
I106
sS'remembered'
p2950
I106
sS'confidence'
p2951
I105
sS'step'
p2952
I106
sS'nowhere'
p2953
I105
sS'santa'
p2954
I105
sS'bs'
p2955
I105
sS'crap'
p2956
I106
sS'therefore'
p2957
I106
sS'raspberry'
p2958
I106
sS"beef'"
p2959
I106
sS'by'
p2960
I80
sS'russell'
p2961
I106
sS'faith'
p2962
I105
sS'!,90020\n507700941978492929,ruizserg,2014-09-05'
p2963
I106
sS'conrad'
p2964
I106
sS'clich\xc3\xa9s'
p2965
I105
sS'anything'
p2966
I91
sS'netflix'
p2967
I102
sS'16:01:06.0,34.06778817,-118.30003526,2119.10,not'
p2968
I106
sS"forget'"
p2969
I106
sS'baes'
p2970
I106
sS'straightened'
p2971
I105
sS'monroe"'
p2972
I106
sS'morro'
p2973
I106
sS'awwww'
p2974
I105
sS'idk'
p2975
I97
sS'bish'
p2976
I106
sS"*i'll"
p2977
I106
sS'off\xe2\x80\x9d'
p2978
I106
sS'hatred'
p2979
I106
sS'wanna'
p2980
I88
sS'idc'
p2981
I100
sS'block'
p2982
I103
sS'seeing'
p2983
I101
sS'skeptics'
p2984
I106
sS'idgi'
p2985
I106
sS'garbage'
p2986
I106
sS'smoothie'
p2987
I106
sS'visit'
p2988
I103
sS'into'
p2989
I97
sS'kat'
p2990
I106
sS'radiate'
p2991
I106
sS'nonsense'
p2992
I105
sS'momma'
p2993
I106
sS'because'
p2994
I83
sS'largate'
p2995
I106
sS'ayyy'
p2996
I105
sS'sports'
p2997
I106
sS'downhill'
p2998
I106
sS'smells'
p2999
I106
sS'explaining'
p3000
I106
sS'.-'
p3001
I106
sS'spam'
p3002
I106
sS'spending'
p3003
I104
sS'ache'
p3004
I106
sS'sock'
p3005
I105
sS'terrarium'
p3006
I106
sS'fast'
p3007
I104
sS'designation.\xe2\x80\x9d'
p3008
I106
sS'addicting'
p3009
I106
sS"we're"
p3010
I101
sS'dodgers'
p3011
I106
sS'bruh'
p3012
I105
sS'ayy'
p3013
I106
sS'bored'
p3014
I105
sS'twitter'
p3015
I100
sS'opens'
p3016
I106
sS'!,90020\n507030476830162944,ruizserg,2014-09-03'
p3017
I106
sS'himself'
p3018
I106
sS'jacks'
p3019
I104
sS"roll'"
p3020
I106
sS'memory'
p3021
I106
sS'won\xe2\x80\x99t'
p3022
I106
sS'ms.valle'
p3023
I105
sS"dreams',90020\n510641492893786112,ruizserg,2014-09-13"
p3024
I106
sS'15:47:43.0,34.06787929,-118.29987788,2119.10,demnnnnnn'
p3025
I106
sS'library'
p3026
I105
sS'familia'
p3027
I106
sS'roadour'
p3028
I106
sS'hopes'
p3029
I104
sS'\xe2\x99\xa5'
p3030
I106
sS'posted'
p3031
I106
sS'dyin'
p3032
I106
sS'mrs'
p3033
I106
sS'fez'
p3034
I106
sS'fries'
p3035
I105
sS"hasn't"
p3036
I101
sS'us'
p3037
I98
sS'ur'
p3038
I104
sS'clips'
p3039
I105
sS'uh'
p3040
I105
sS'highlight'
p3041
I106
sS'happiness'
p3042
I106
sS'fried'
p3043
I105
sS'called'
p3044
I95
sS'bell'
p3045
I106
sS'dill'
p3046
I106
sS'freak'
p3047
I105
sS'dejate'
p3048
I106
sS'stick'
p3049
I106
sS'likewise'
p3050
I106
sS'listening'
p3051
I106
sS'u.s.a'
p3052
I106
sS'single'
p3053
I105
sS'warning'
p3054
I106
sS'04:09:53.0,34.06782245,-118.29996745,2119.10,,90020\n510639044418498561,ruizserg,2014-09-13'
p3055
I106
sS'4\xe2\x83\xa32\xe2\x83\xa3'
p3056
I106
sS'cafe'
p3057
I106
sS'hmmmmm'
p3058
I106
sS'rainbow'
p3059
I105
sS'peter'
p3060
I106
sS'lemon'
p3061
I106
sS'asssssss'
p3062
I106
sS'creeper'
p3063
I106
sS'nah'
p3064
I89
sS'peace'
p3065
I105
sS'matching'
p3066
I106
sS'application'
p3067
I105
sS'nap'
p3068
I90
sS'drunks'
p3069
I105
sS'naw'
p3070
I106
sS'21:35:34.0,34.06785761,-118.29998078,2119.10,should'
p3071
I106
sS'department'
p3072
I106
sS'angelesca'
p3073
I103
sS'hellllllllllll'
p3074
I106
sS'nice'
p3075
I101
sS'ex.\xe2\x80\x9d'
p3076
I106
sS'scapegoat'
p3077
I106
sS'papi'
p3078
I102
sS"cha'"
p3079
I106
sS'pape'
p3080
I106
sS'careeeeeee'
p3081
I106
sS'problems'
p3082
I105
sS'helping'
p3083
I105
sS'00:58:51.0,34.06784509,-118.29981796,2119.10,smh'
p3084
I106
sS'bonding'
p3085
I106
sS'jonathan_021995'
p3086
I106
sS'cater'
p3087
I106
sS'allowing'
p3088
I106
sS'thisssss'
p3089
I106
sS'mames'
p3090
I106
sS'ago'
p3091
I103
sS'!\xe2\x80\x9d'
p3092
I106
sS'remix'
p3093
I106
sS'land'
p3094
I106
sS'e'
p3095
I103
sS'salvadorians'
p3096
I102
sS'expressionless'
p3097
I106
sS'age'
p3098
I106
sS'youtube'
p3099
I106
sS'heath'
p3100
I106
sS'lowkey'
p3101
I106
sS'bruised'
p3102
I106
sS'karma'
p3103
I106
sS'huero'
p3104
I106
sS'recognize'
p3105
I106
sS"she's"
p3106
I89
sS'2009'
p3107
I106
sS'hello'
p3108
I105
sS'today"'
p3109
I106
sS'once'
p3110
I97
sS'essay'
p3111
I106
sS"day',90020\n521324906802192384,ruizserg,2014-10-12"
p3112
I106
sS'scratch'
p3113
I106
sS'timberlake'
p3114
I106
sS'gg'
p3115
I106
sS'gf'
p3116
I105
sS'helped'
p3117
I106
sS'go'
p3118
I31
sS'gn'
p3119
I106
sS'psycho'
p3120
I103
sS'golaso'
p3121
I106
sS'chillin'
p3122
I106
sS'issues'
p3123
I106
sS'cody'
p3124
I102
sS'tearing'
p3125
I106
sS'concerned'
p3126
I106
sS'young'
p3127
I105
sS'send'
p3128
I105
sS'nose'
p3129
I106
sS'lorrrrrrrrrd'
p3130
I106
sS'repackage'
p3131
I106
sS'retweets'
p3132
I106
sS'stable'
p3133
I106
sS'dislike'
p3134
I105
sS'sent'
p3135
I103
sS'"lovey'
p3136
I106
sS'you!\xe2\x80\x9d'
p3137
I106
sS'wished'
p3138
I105
sS'outside'
p3139
I106
sS'uuuugly'
p3140
I106
sS'la-da-di-do'
p3141
I105
sS'kitty'
p3142
I105
sS'account'
p3143
I106
sS'stadium'
p3144
I106
sS'photoshoot'
p3145
I106
sS"more'"
p3146
I105
sS'facebook'
p3147
I102
sS'telling'
p3148
I102
sS'drinking'
p3149
I103
sS'maaa'
p3150
I106
sS'nausea'
p3151
I105
sS'..jajajaja'
p3152
I106
sS'magic'
p3153
I106
sS'exits'
p3154
I106
sS'knight'
p3155
I106
sS'having'
p3156
I100
sS'surreal\xe2\x80\xa6'
p3157
I106
sS"they've"
p3158
I106
sS"patty's"
p3159
I106
sS'try'
p3160
I96
sS'threat'
p3161
I106
sS'min'
p3162
I106
sS'ride'
p3163
I106
sS'proof'
p3164
I106
sS'joey'
p3165
I105
sS"mexicans'"
p3166
I106
sS'arguenderas'
p3167
I106
sS'ocha'
p3168
I106
sS'booty'
p3169
I106
sS"you'd"
p3170
I102
sS'khalifa'
p3171
I106
sS'flu'
p3172
I106
sS'interview'
p3173
I106
sS'waking'
p3174
I103
sS'jump'
p3175
I104
sS"you's"
p3176
I106
sS'blowing'
p3177
I106
sS'video'
p3178
I103
sS'picked'
p3179
I105
sS'nephew'
p3180
I106
sS'odd'
p3181
I105
sS'rivera'
p3182
I106
sS'depression'
p3183
I106
sS'power'
p3184
I103
sS'paintings'
p3185
I106
sS'flaking'
p3186
I106
sS'giving'
p3187
I105
sS'anthem'
p3188
I106
sS'squeeze'
p3189
I106
sS'schedule'
p3190
I105
sS'networks'
p3191
I105
sS'internship'
p3192
I106
sS'waiting'
p3193
I100
sS'unreal'
p3194
I106
sS'playa'
p3195
I106
sS'uno'
p3196
I106
sS"flavor'"
p3197
I106
sS'bird'
p3198
I106
sS'3d'
p3199
I106
sS'body'
p3200
I102
sS'exumer'
p3201
I106
sS'led'
p3202
I106
sS'twitter*'
p3203
I105
sS'leg'
p3204
I106
sS'punch'
p3205
I105
sS'eminem'
p3206
I86
sS'following'
p3207
I105
sS'les'
p3208
I106
sS'let'
p3209
I86
sS'slut'
p3210
I106
sS'others'
p3211
I104
sS'tv'
p3212
I106
sS'sexy'
p3213
I105
sS'hiss'
p3214
I106
sS'mindset'
p3215
I106
sS'great'
p3216
I90
sS'talent'
p3217
I106
sS'iguales'
p3218
I106
sS'stalks'
p3219
I106
sS'laughter'
p3220
I106
sS'until'
p3221
I100
sS'30'
p3222
I105
sS'shades'
p3223
I101
sS'05:06:07.0,34.06786504,-118.29997706,2119.10,best'
p3224
I106
sS'leaving'
p3225
I100
sS'maaaannnn'
p3226
I106
sS'justice'
p3227
I105
sS'little-big'
p3228
I106
sS"weren't"
p3229
I104
sS'lmfao\xe2\x80\x9d'
p3230
I106
sS'hexagon'
p3231
I106
sS'makes'
p3232
I93
sS'honor'
p3233
I106
sS'thats'
p3234
I103
sS'control'
p3235
I105
sS'win'
p3236
I90
sS"filth'"
p3237
I106
sS'manny'
p3238
I106
sS'wit'
p3239
I103
sS'naaaaaaaahhhhhh'
p3240
I106
sS'apply'
p3241
I105
sS'singing'
p3242
I105
sS'04:32:39.0,34.06778624,-118.3000487,2119.10,talking'
p3243
I106
sS'manipulate'
p3244
I106
sS"discrete'"
p3245
I106
sS"00:07:05.0,34.06783396,-118.30000163,2119.10,itupid',90020\n510576631694389248,ruizserg,2014-09-12"
p3246
I106
sS'use'
p3247
I100
sS'from'
p3248
I67
sS'usa'
p3249
I102
sS'&'
p3250
I50
sS'meatball'
p3251
I106
sS'17:00:03.0,34.06782729,-118.29993622,2119.10,you'
p3252
I106
sS'congratulated'
p3253
I106
sS'next'
p3254
I88
sS'"we'
p3255
I106
sS'few'
p3256
I102
sS'doubt'
p3257
I101
sS'activist'
p3258
I106
sS'..lol'
p3259
I106
sS'flawlessssss'
p3260
I106
sS'themselves'
p3261
I106
sS'jonathan'
p3262
I105
sS'it...,90020\n507028356550754305,ruizserg,2014-09-03'
p3263
I106
sS'thi$'
p3264
I106
sS'popped'
p3265
I106
sS'nock'
p3266
I106
sS'babe'
p3267
I91
sS'upcoming'
p3268
I106
sS'tahahahaha'
p3269
I106
sS'started'
p3270
I102
sS'becomes'
p3271
I105
sS'about'
p3272
I54
sS'simple...do'
p3273
I106
sS'sore'
p3274
I104
sS'day!!!!\xe2\x80\x9d'
p3275
I106
sS'01:23:42.0,34.06774274,-118.29987584,2119.10,not'
p3276
I106
sS'baby'
p3277
I89
sS'4am'
p3278
I103
sS"it',90020\n511567740306350080,ruizserg,2014-09-15"
p3279
I106
sS"heads'"
p3280
I106
sS'women'
p3281
I104
sS'customer'
p3282
I106
sS'druggys'
p3283
I105
sS'balls'
p3284
I105
sS'animals'
p3285
I104
sS'salad'
p3286
I103
sS'this'
p3287
I18
sS'challenge'
p3288
I105
sS'6am'
p3289
I105
sS'anywhere'
p3290
I106
sS'freedom'
p3291
I106
sS'aight'
p3292
I106
sS'chin'
p3293
I106
sS'closing'
p3294
I106
sS'rica'
p3295
I106
sS'didnt'
p3296
I105
sS"salvador's"
p3297
I106
sS'anthropological'
p3298
I106
sS'point'
p3299
I105
sS"doe',90020\n511680578597289984,ruizserg,2014-09-16"
p3300
I106
sS'thirsty'
p3301
I105
sS'monica'
p3302
I105
sS'process'
p3303
I106
sS"inheritance'"
p3304
I106
sS'pieces'
p3305
I104
sS'high'
p3306
I95
sS'corrido'
p3307
I106
sS'something'
p3308
I87
sS'offense'
p3309
I106
sS"personal'"
p3310
I106
sS"water'"
p3311
I106
sS'sis'
p3312
I106
sS"talkin'"
p3313
I106
sS'think.\xe2\x80\x9d'
p3314
I106
sS'lame'
p3315
I105
sS'vibe'
p3316
I104
sS'six'
p3317
I106
sS'poetry'
p3318
I106
sS'struggling'
p3319
I106
sS'gooooooooooooood'
p3320
I106
sS'animal'
p3321
I105
sS'instead'
p3322
I105
sS'comedy'
p3323
I106
sS'intended*\xe2\x80\x9d'
p3324
I106
sS'swedish'
p3325
I106
sS'between'
p3326
I106
sS'mula'
p3327
I106
sS'blocks'
p3328
I106
sS'"ham'
p3329
I106
sS'stop'
p3330
I83
sS"out'"
p3331
I106
sS'ronald'
p3332
I106
sS'taco'
p3333
I106
sS'-.-"'
p3334
I106
sS"basics'"
p3335
I106
sS'(|)'
p3336
I106
sS'$$$$$$'
p3337
I106
sS'realized'
p3338
I106
sS'bcs'
p3339
I106
sS'light'
p3340
I106
sS'lines'
p3341
I106
sS'cantillon'
p3342
I106
sS'18:39:50.0,34.06783063,-118.30000619,2119.10,i'
p3343
I106
sS'honestly'
p3344
I98
sS'noches'
p3345
I106
sS"wanted'"
p3346
I106
sS'feelsszz'
p3347
I106
sS'jolie'
p3348
I105
sS'mustache'
p3349
I104
sS"july's"
p3350
I106
sS"hand'"
p3351
I106
sS'elia'
p3352
I106
sS'move'
p3353
I101
sS'outage'
p3354
I106
sS'lietome'
p3355
I106
sS"it',90020\n510434337724964865,ruizserg,2014-09-12"
p3356
I106
sS'alliance'
p3357
I106
sS"won't"
p3358
I100
sS'looks'
p3359
I103
sS'bo$$$$'
p3360
I106
sS'galaxy'
p3361
I105
sS'twisting'
p3362
I106
sS'perfect'
p3363
I98
sS'affleck'
p3364
I105
sS'gwell'
p3365
I106
sS'la'
p3366
I98
sS'chosen'
p3367
I106
sS'lo'
p3368
I106
sS'lm'
p3369
I106
sS'winning'
p3370
I104
sS'whites'
p3371
I106
sS'degrees'
p3372
I106
sS'spoiling'
p3373
I106
sS'lp'
p3374
I106
sS'2014'
p3375
I106
sS'bye'
p3376
I105
sS'<'
p3377
I106
sS'2013'
p3378
I105
sS'dad'
p3379
I96
sS'youd'
p3380
I106
sS'campero'
p3381
I106
sS'parabola'
p3382
I106
sS'dam'
p3383
I104
sS'dan'
p3384
I106
sS'practice'
p3385
I106
sS'camino'
p3386
I106
sS'kiss'
p3387
I103
sS'hands'
p3388
I104
sS'front'
p3389
I105
sS'earthlings'
p3390
I106
sS'documented'
p3391
I106
sS'republican'
p3392
I105
sS'cage'
p3393
I106
sS'day'
p3394
I47
sS'sinners'
p3395
I106
sS"yesterday'"
p3396
I106
sS'10pm'
p3397
I106
sS'toes'
p3398
I106
sS"highlarious'"
p3399
I106
sS'intelligent'
p3400
I106
sS'22:54:48.0,34.06779253,-118.30002754,2119.10,one'
p3401
I106
sS'fuze'
p3402
I106
sS'sneezed'
p3403
I106
sS'doesnt'
p3404
I106
sS'truth'
p3405
I104
sS'disregard'
p3406
I106
sS"by'"
p3407
I106
sS'bills'
p3408
I105
sS'shaking'
p3409
I106
sS'glasses'
p3410
I104
sS'studios'
p3411
I106
sS'!,90020\n510610716785537024,ruizserg,2014-09-13'
p3412
I106
sS'america."'
p3413
I106
sS'drizzy'
p3414
I106
sS'tension'
p3415
I106
sS'doing'
p3416
I95
sS'buena'
p3417
I105
sS'wassuppppp'
p3418
I106
sS'winked'
p3419
I106
sS'snaps'
p3420
I106
sS'society'
p3421
I106
sS'books'
p3422
I106
sS'sands'
p3423
I105
sS'weave'
p3424
I106
sS'filmmaking'
p3425
I106
sS'our'
p3426
I93
sS'disco'
p3427
I106
sS'sexual'
p3428
I106
sS'goalkeeper'
p3429
I106
sS'special'
p3430
I105
sS'out'
p3431
I40
sS'secretly'
p3432
I106
sS"quicker'"
p3433
I106
sS"'"
p3434
I106
sS'tuyo'
p3435
I106
sS"chill'"
p3436
I106
sS'mate'
p3437
I105
sS'hilarious'
p3438
I102
sS'snapchat\xe2\x80\x9d'
p3439
I106
sS'memes'
p3440
I106
sS"time'"
p3441
I102
sS'cause'
p3442
I70
sS"media'"
p3443
I106
sS'red'
p3444
I102
sS"one's"
p3445
I105
sS'shut'
p3446
I98
sS'wines'
p3447
I106
sS'damnnnnnnnnn'
p3448
I106
sS'wack'
p3449
I106
sS'jeff'
p3450
I106
sS"mofucka',90020\n511679488334106624,ruizserg,2014-09-16"
p3451
I106
sS'completely'
p3452
I104
sS'que'
p3453
I102
sS'york'
p3454
I106
sS'moody'
p3455
I106
sS'craving'
p3456
I106
sS'scary'
p3457
I100
sS'organic'
p3458
I103
sS'g'
p3459
I106
sS"female'"
p3460
I106
sS':(\xe2\x80\x9d'
p3461
I106
sS'could'
p3462
I100
sS'slanderize'
p3463
I106
sS'ask'
p3464
I100
sS'times'
p3465
I103
sS'conversation'
p3466
I106
sS'03:29:13.0,34.06774812,-118.30009145,2119.10,maybe'
p3467
I106
sS'4th'
p3468
I103
sS'la-di-da-di-da-di-do'
p3469
I105
sS'00:55:37.0,34.06776759,-118.29990593,2119.10,like'
p3470
I106
sS'stuck'
p3471
I106
sS"anyone'"
p3472
I106
sS'finest'
p3473
I105
sS'powerful'
p3474
I106
sS'scene'
p3475
I104
sS'jesus'
p3476
I101
sS'straining'
p3477
I106
sS'mai'
p3478
I106
sS'phil'
p3479
I106
sS'bitch'
p3480
I79
sS'lagging'
p3481
I106
sS'*jasmin'
p3482
I106
sS'david'
p3483
I106
sS'noticed'
p3484
I106
sS'quality'
p3485
I106
sS'45%'
p3486
I106
sS'braces'
p3487
I105
sS'02:07:36.0,34.06796318,-118.2998869,2119.10,chumps'
p3488
I106
sS"you're"
p3489
I41
sS'playlist'
p3490
I106
sS'smaller'
p3491
I106
sS'monkey'
p3492
I106
sS'los'
p3493
I96
sS'festival'
p3494
I105
sS'data'
p3495
I106
sS'accent'
p3496
I105
sS'peppers\xe2\x80\xa6'
p3497
I106
sS'priority'
p3498
I106
sS'their'
p3499
I96
sS'attack'
p3500
I103
sS'racist'
p3501
I106
sS'isaura'
p3502
I106
sS'final'
p3503
I106
sS'nahhhhh'
p3504
I104
sS'misunderstood'
p3505
I106
sS'stomach'
p3506
I106
sS'lighters'
p3507
I106
sS'punish'
p3508
I106
sS'exactly'
p3509
I104
sS'putos'
p3510
I105
sS'duuuuddeeeee'
p3511
I106
sS'app\xc3\xa9tit'
p3512
I106
sS"goes',90020\n507756253762703360,ruizserg,2014-09-05"
p3513
I106
sS'tuscan'
p3514
I106
sS'july'
p3515
I106
sS'steel'
p3516
I104
sS'loved'
p3517
I104
sS'ben'
p3518
I104
sS'holland'
p3519
I105
sS'aka'
p3520
I106
sS'pooped?me'
p3521
I106
sS'boring'
p3522
I105
sS'bother'
p3523
I105
sS"proud'"
p3524
I106
sS'infectious'
p3525
I106
sS'bed'
p3526
I104
sS'bee'
p3527
I106
sS'sweden'
p3528
I106
sS'2:00am'
p3529
I106
sS"boi'"
p3530
I106
sS'loves'
p3531
I103
sS'pluses'
p3532
I106
sS'bet'
p3533
I101
sS'ab-soul'
p3534
I106
sS'false'
p3535
I106
sS'viewer'
p3536
I106
sS'atchoo'
p3537
I106
sS'carrots'
p3538
I105
sS'curves'
p3539
I105
sS'sexting'
p3540
I105
sS'tonight'
p3541
I95
sS'\xe2\x98\xba\xef\xb8\x8f\xe2\x98\xba\xef\xb8\x8f\xe2\x98\xba\xef\xb8\x8f\xe2\x98\xba\xef\xb8\x8f'
p3542
I106
sS"boi',90020\n511680707085615104,ruizserg,2014-09-16"
p3543
I106
sS'have'
p3544
I30
sS'portrait'
p3545
I106
sS'need'
p3546
I56
sS'no?jade'
p3547
I106
sS'interrogating'
p3548
I106
sS'halls'
p3549
I106
sS'16:50:36.0,34.06781772,-118.30003077,2119.10,yes'
p3550
I106
sS'clearly'
p3551
I106
sS'abelardo'
p3552
I87
sS'sings'
p3553
I106
sS'bastard'
p3554
I106
sS'afraid'
p3555
I106
sS'rearranged'
p3556
I106
sS'congrats'
p3557
I104
sS'mia'
p3558
I106
sS'studying'
p3559
I106
sS'5:00am'
p3560
I106
sS'agency'
p3561
I106
sS'able'
p3562
I105
sS'mid'
p3563
I105
sS'homeboy'
p3564
I106
sS'righhttttt'
p3565
I106
sS'forbidden'
p3566
I106
sS'22:00:52.0,34.06783422,-118.29991691,2119.10,,90020\n510908629327691776,ruizserg,2014-09-13'
p3567
I106
sS'which'
p3568
I105
sS'asshole'
p3569
I102
sS'wanderlust'
p3570
I106
sS'='
p3571
I105
sS'permanents'
p3572
I106
sS'*least'
p3573
I106
sS'unless'
p3574
I105
sS'kelly'
p3575
I106
sS'aww'
p3576
I106
sS'who'
p3577
I65
sS'saaaaaaammmmmmeeeeeeeee'
p3578
I106
sS"where's"
p3579
I103
sS"act',90020\n507028661849948161,ruizserg,2014-09-03"
p3580
I106
sS'montana'
p3581
I106
sS'whereeeeee'
p3582
I106
sS'future'
p3583
I106
sS'why'
p3584
I51
sS'wilfredo'
p3585
I106
sS'sean'
p3586
I106
sS'consequences'
p3587
I106
sS'saddest'
p3588
I106
sS'dowwnnnnnn'
p3589
I106
sS'stronger'
p3590
I105
sS'thanksgiving'
p3591
I106
sS'face'
p3592
I95
sS'looked'
p3593
I105
sS'sorta'
p3594
I106
sS"you'll"
p3595
I101
sS"am',90020\n511550874749894656,ruizserg,2014-09-15"
p3596
I106
sS'se'
p3597
I106
sS'fact\xe2\x80\x9d'
p3598
I106
sS'movie'
p3599
I106
sS'fact'
p3600
I103
sS'$$$'
p3601
I106
sS'son'
p3602
I104
sS'oreos'
p3603
I106
sS'text'
p3604
I79
sS'charles'
p3605
I106
sS'anyway'
p3606
I103
sS'bring'
p3607
I102
sS'lmao\xe2\x80\x9d'
p3608
I103
sS'ass.\xe2\x80\x9d'
p3609
I106
sS'bedroom'
p3610
I106
sS'fear'
p3611
I102
sS'debate'
p3612
I106
sS'shoes'
p3613
I106
sS'--patrick'
p3614
I106
sS'5pm'
p3615
I106
sS"abelardo's"
p3616
I101
sS'6000'
p3617
I106
sS'iwata'
p3618
I106
sS'('
p3619
I90
sS'fish'
p3620
I106
sS"gotta'"
p3621
I61
sS'avas'
p3622
I106
sS'should'
p3623
I57
sS'dreamers'
p3624
I106
sS'chiefs'
p3625
I106
sS'"naaaaawwwwwwww"'
p3626
I106
sS"williams's"
p3627
I106
sS'combo'
p3628
I106
sS'tune'
p3629
I106
sS"15:48:59.0,34.06784692,-118.30001607,2119.10,wanker',90020\n511541881742704640,ruizserg,2014-09-15"
p3630
I106
sS'spice'
p3631
I106
sS'hope'
p3632
I93
sS'meant'
p3633
I101
sS'xdd'
p3634
I106
sS'watching'
p3635
I100
sS'beat'
p3636
I103
sS'silas'
p3637
I106
sS'dope'
p3638
I105
sS'props'
p3639
I106
sS'overall'
p3640
I105
sS'lucky'
p3641
I102
sS"03:43:40.0,34.06784293,-118.29989722,2119.10,sayonara',90020\n511711756402446336,ruizserg,2014-09-16"
p3642
I106
sS'tbh'
p3643
I91
sS'ones'
p3644
I102
sS'meterse'
p3645
I106
sS'words'
p3646
I106
sS'drawn'
p3647
I106
sS'*heart'
p3648
I106
sS'please"'
p3649
I106
sS'romantic'
p3650
I106
sS'smash'
p3651
I105
sS'champagne'
p3652
I106
sS'brain'
p3653
I105
sS'jasmin'
p3654
I98
sS'married'
p3655
I103
sS'rapper'
p3656
I106
sS"ain't'"
p3657
I106
sS'calling'
p3658
I103
sS"panchuki'"
p3659
I106
sS'stuff'
p3660
I104
sS'she'
p3661
I69
sS'dangerous'
p3662
I106
sS'.lol'
p3663
I106
sS'jass'
p3664
I106
sS'16:23:27.0,34.06782165,-118.2998356,2119.10,ah'
p3665
I106
sS'btw'
p3666
I103
sS'j'
p3667
I106
sS'we'
p3668
I55
sS"<3333:')))"
p3669
I106
sS'freeze'
p3670
I106
sS'loooong'
p3671
I106
sS'edition'
p3672
I106
sS'legacy'
p3673
I106
sS'changes'
p3674
I106
sS'desperate'
p3675
I106
sS"less'"
p3676
I106
sS'terms'
p3677
I106
sS'closer'
p3678
I104
sS'closes'
p3679
I106
sS'cole'
p3680
I106
sS'stats'
p3681
I106
sS'luv'
p3682
I106
sS'naaahhhh'
p3683
I106
sS'posse'
p3684
I104
sS'nosetalgia'
p3685
I106
sS'favor'
p3686
I106
sS'mexicans'
p3687
I98
sS'luc'
p3688
I106
sS'closed'
p3689
I106
sS'routine'
p3690
I106
sS'ebola'
p3691
I106
sS'neither'
p3692
I103
sS'bunch'
p3693
I106
sS'frustrated'
p3694
I105
sS'colombian'
p3695
I106
sS'todavia'
p3696
I106
sS'pants'
p3697
I105
sS'ballll'
p3698
I106
sS'ends'
p3699
I104
sS'weighing'
p3700
I106
sS'90%'
p3701
I106
sS'job'
p3702
I95
sS'zqbrprgsitlhdn,90020\n511569167175000064,ruizserg,2014-09-15'
p3703
I106
sS'key'
p3704
I106
sS'twenni'
p3705
I106
sS'police'
p3706
I104
sS'swift'
p3707
I104
sS'boxing'
p3708
I106
sS'..good'
p3709
I106
sS'staring'
p3710
I105
sS'friends?"'
p3711
I106
sS"outta'"
p3712
I104
sS'mexican"'
p3713
I106
sS'despierta'
p3714
I106
sS'limits'
p3715
I106
sS'career'
p3716
I105
sS'joke'
p3717
I104
sS'taking'
p3718
I95
sS"he's"
p3719
I73
sS'drug'
p3720
I105
sS'april'
p3721
I105
sS'at-home'
p3722
I106
sS'"you\'ve'
p3723
I106
sS'omw'
p3724
I106
sS'passing'
p3725
I105
sS'aquarium'
p3726
I106
sS'?\xe2\x80\x9d'
p3727
I106
sS'gorgeous'
p3728
I106
sS'white\xe2\x80\x9d'
p3729
I106
sS'hehehe'
p3730
I106
sS'co'
p3731
I105
sS'ruiner'
p3732
I106
sS'town-\xe2\x80\xa6'
p3733
I106
sS'wall'
p3734
I106
sS'makin'
p3735
I106
sS'ce'
p3736
I106
sS'walk'
p3737
I104
sS'downgrade'
p3738
I106
sS"done'"
p3739
I106
sS'like\xe2\x80\x9d'
p3740
I106
sS'laugh'
p3741
I97
sS'envidia'
p3742
I106
sS'holy_jasmin'
p3743
I106
sS'leaked'
p3744
I104
sS'baires'
p3745
I106
sS"'till"
p3746
I106
sS'quit'
p3747
I106
sS"own'"
p3748
I106
sS'yay'
p3749
I103
sS"16:22:42.0,34.06784483,-118.29985119,2119.10,multiples',90020\n511550129967357953,ruizserg,2014-09-15"
p3750
I106
sS"it's"
p3751
I34
sS'quiz'
p3752
I106
sS'shame'
p3753
I106
sS'exhausted'
p3754
I105
sS'slowly'
p3755
I106
sS'treat'
p3756
I106
sS'shitand'
p3757
I106
sS'ah'
p3758
I104
sS'poet'
p3759
I106
sS'hottest'
p3760
I106
sS'waste'
p3761
I104
sS"it'd"
p3762
I106
sS'>'
p3763
I82
sS'jaden'
p3764
I106
sS'heart."'
p3765
I106
sS'foes'
p3766
I106
sS'moved'
p3767
I104
sS"really',90020\n510592225219080192,ruizserg,2014-09-13"
p3768
I106
sS'hmm'
p3769
I106
sS'finished'
p3770
I101
sS'-.-'
p3771
I99
sS'bull'
p3772
I106
sS'smoking'
p3773
I104
sS'fellow'
p3774
I106
sS'spain'
p3775
I106
sS"ya'll"
p3776
I106
sS'therefor'
p3777
I106
sS'mega'
p3778
I106
sS'unlike'
p3779
I106
sS'means'
p3780
I106
sS'appearance'
p3781
I106
sS'value'
p3782
I106
sS'pshh'
p3783
I106
sS'will'
p3784
I66
sS'angeles.pero'
p3785
I106
sS'expiration'
p3786
I106
sS'hahaha'
p3787
I102
sS"pedo'"
p3788
I106
sS'jay'
p3789
I106
sS'vicky'
p3790
I106
sS'rigondeaux'
p3791
I106
sS'adapter'
p3792
I106
sS'joto..lol'
p3793
I106
sS'ratas'
p3794
I106
sS'bengals'
p3795
I106
sS'malachite'
p3796
I106
sS'planets'
p3797
I106
sS'helper'
p3798
I106
sS'almost'
p3799
I98
sS'demo'
p3800
I106
sS'thur'
p3801
I106
sS'lust'
p3802
I106
sS'reflectionnnnn'
p3803
I106
sS'vs'
p3804
I105
sS'avi'
p3805
I106
sS'derrick'
p3806
I106
sS'hearted'
p3807
I106
sS'ave'
p3808
I105
sS'whore'
p3809
I106
sS'22:49:12.0,34.06784391,-118.29998028,2119.10,omygah'
p3810
I106
sS'these"'
p3811
I106
sS'wurstk\xc3\xbcche'
p3812
I106
sS'horrible'
p3813
I106
sS'sensitive'
p3814
I106
sS')'
p3815
I106
sS'wicked'
p3816
I106
sS'strange'
p3817
I106
sS'16:53:10.0,34.06783401,-118.30006765,2119.10,,90020\n511557707220779008,ruizserg,2014-09-15'
p3818
I106
sS'inch'
p3819
I105
sS'party'
p3820
I106
sS'gets'
p3821
I95
sS'21:23:50.0,34.06786891,-118.30001859,2119.10,feels'
p3822
I106
sS'ochoa'
p3823
I104
sS'spell'
p3824
I106
sS'columbia'
p3825
I106
sS'brag'
p3826
I106
sS'emotionally'
p3827
I106
sS'again'
p3828
I75
sS'samantha'
p3829
I106
sS'bale'
p3830
I105
sS'bald'
p3831
I105
sS'ios'
p3832
I106
sS'beast'
p3833
I105
sS'novela'
p3834
I106
sS'discouraged'
p3835
I106
sS'fucked'
p3836
I99
sS'xd,90020\n510911013818880000,ruizserg,2014-09-13'
p3837
I106
sS'goalazo'
p3838
I106
sS'sunrise'
p3839
I106
sS'diabetes'
p3840
I106
sS'audit'
p3841
I105
sS'cold\xe2\x80\x9d'
p3842
I106
sS'off'
p3843
I77
sS'center'
p3844
I106
sS'mangoneroooooo'
p3845
I106
sS'i'
p3846
I2
sS'well'
p3847
I66
sS'fighting'
p3848
I105
sS'piss'
p3849
I106
sS'thought'
p3850
I102
sS'interpol'
p3851
I106
sS'position'
p3852
I106
sS'grapefruit\xe2\x80\xa6'
p3853
I106
sS'con'
p3854
I104
sS'overrrr'
p3855
I106
sS'taller'
p3856
I106
sS'stores'
p3857
I106
sS'rocket'
p3858
I106
sS'less'
p3859
I102
sS'unstoppable'
p3860
I106
sS'gun'
p3861
I106
sS'spielberg'
p3862
I106
sS'cries'
p3863
I106
sS"021995'"
p3864
I106
sS'23:37:00.0,34.06784019,-118.29995021,2119.10,got'
p3865
I106
sS"silence'"
p3866
I106
sS'lettuce'
p3867
I106
sS'empowermint'
p3868
I106
sS'spells'
p3869
I105
sS'begin'
p3870
I106
sS'quiero'
p3871
I106
sS'field'
p3872
I106
sS'guts'
p3873
I103
sS'sky'
p3874
I106
sS'knew'
p3875
I106
sS'bullshit'
p3876
I102
sS'wes'
p3877
I106
sS'clyde'
p3878
I106
sS'nicki'
p3879
I106
sS'crack'
p3880
I104
sS'ohhh'
p3881
I105
sS'wey'
p3882
I105
sS'acted'
p3883
I106
sS'kick'
p3884
I103
sS'16:05:09.0,34.06797554,-118.30019225,2119.10,ooohh'
p3885
I106
sS'sonia'
p3886
I106
sS'05:13:12.0,34.06776979,-118.30012456,2119.10,use'
p3887
I106
sS'branch'
p3888
I106
sS'pero'
p3889
I105
sS'government'
p3890
I106
sS'characters'
p3891
I105
sS'admit'
p3892
I106
sS'fyi'
p3893
I106
sS'touch\xc3\xa9'
p3894
I106
sS'5am'
p3895
I105
sS'know'
p3896
I39
sS'burden'
p3897
I105
sS'press'
p3898
I106
sS'immediately'
p3899
I106
sS'nvm'
p3900
I105
sS'2nd'
p3901
I106
sS'worst/creative'
p3902
I106
sS'loss'
p3903
I105
sS'puppy'
p3904
I106
sS'showing'
p3905
I105
sS'like'
p3906
I16
sS'lost'
p3907
I101
sS'sizes'
p3908
I106
sS'sophomore'
p3909
I106
sS'02:55:37.0,34.06778829,-118.30014096,2119.10,is'
p3910
I106
sS'hea-art'
p3911
I106
sS'sissy'
p3912
I105
sS'heed'
p3913
I106
sS'lose'
p3914
I104
sS'become'
p3915
I106
sS'works'
p3916
I105
sS'page'
p3917
I106
sS'italian'
p3918
I106
sS'nigga'
p3919
I99
sS'tss'
p3920
I106
sS"worth'"
p3921
I106
sS'scared'
p3922
I93
sS'village'
p3923
I106
sS'searching'
p3924
I106
sS'alive'
p3925
I104
sS'"did'
p3926
I106
sS'hair'
p3927
I100
sS'daylight'
p3928
I106
sS"why'd"
p3929
I106
sS'pounding'
p3930
I106
sS'proper'
p3931
I106
sS'home'
p3932
I37
sS'supportive'
p3933
I106
sS'stuffy'
p3934
I106
sS'happens'
p3935
I102
sS'"it'
p3936
I106
sS'throughout'
p3937
I106
sS'jeremy'
p3938
I105
sS'lead'
p3939
I105
sS'literally'
p3940
I100
sS'avoid'
p3941
I106
sS'\xe2\x98\xba\xef\xb8\x8f\xe2\x9d\xa4\xef\xb8\x8f'
p3942
I106
sS'ese'
p3943
I106
sS'does'
p3944
I97
sS'passion'
p3945
I106
sS'oregano\xe2\x80\xa6'
p3946
I106
sS'leat'
p3947
I106
sS'assuming'
p3948
I106
sS'careless'
p3949
I106
sS"year'"
p3950
I106
sS'patiently'
p3951
I106
sS'snuggle'
p3952
I106
sS'leader'
p3953
I103
sS'trout'
p3954
I106
sS'regain'
p3955
I106
sS'survivor'
p3956
I106
sS'ripped'
p3957
I106
sS'4:30am'
p3958
I104
sS'reaching'
p3959
I105
sS'june'
p3960
I106
sS'mathers'
p3961
I106
sS're-born'
p3962
I106
sS'"marilyn'
p3963
I106
sS'apple\xe2\x80\x9d'
p3964
I106
sS'snapped'
p3965
I106
sS'daquan'
p3966
I106
sS'((('
p3967
I106
sS'stage'
p3968
I106
sS'throne'
p3969
I106
sS'sister'
p3970
I97
sS':-)'
p3971
I101
sS'actual'
p3972
I104
sS'justin'
p3973
I106
sS"else',90020\n510570593507241986,ruizserg,2014-09-12"
p3974
I106
sS'getting'
p3975
I75
sS"grandmother's"
p3976
I106
sS'basis'
p3977
I106
sS'recognized'
p3978
I106
sS'madame'
p3979
I106
sS'angeles'
p3980
I105
sS'swear'
p3981
I102
sS'sweat'
p3982
I105
sS'puppies'
p3983
I105
sS"tommy's"
p3984
I106
sS'own'
p3985
I94
sS'gaaaayyyyyyyyy'
p3986
I106
sS'pussy'
p3987
I106
sS'loner'
p3988
I106
sS'immune'
p3989
I106
sS'weather'
p3990
I104
sS'promise'
p3991
I104
sS'tiny'
p3992
I105
sS'female'
p3993
I105
sS'20:32:47.0,34.06777149,-118.30000299,2119.10,agent'
p3994
I106
sS'fired'
p3995
I106
sS'4:00am'
p3996
I103
sS'madrid'
p3997
I106
sS'lagged'
p3998
I106
sS'*'
p3999
I106
sS'fooling'
p4000
I106
sS'kidding'
p4001
I104
sS'lonely'
p4002
I106
sS"try'"
p4003
I106
sS'05:11:48.0,34.0678781,-118.30007041,2119.10,you'
p4004
I106
sS'biggest'
p4005
I105
sS'durning'
p4006
I106
sS'shatto'
p4007
I106
sS'jinx'
p4008
I106
sS"shenanigans'"
p4009
I106
sS'beard'
p4010
I106
sS'buy'
p4011
I101
sS'north'
p4012
I106
sS'gallinas'
p4013
I106
sS"i've"
p4014
I79
sS'shane'
p4015
I106
sS'bitches'
p4016
I105
sS'hw'
p4017
I103
sS'but'
p4018
I25
sS"8'"
p4019
I106
sS'volume'
p4020
I106
sS'reminds'
p4021
I106
sS'neutral'
p4022
I106
sS'strawberries'
p4023
I106
sS'goals'
p4024
I102
sS'pk'
p4025
I106
sS'ha'
p4026
I104
sS'eat'
p4027
I102
sS'bud'
p4028
I106
sS'he'
p4029
I52
sS'made'
p4030
I88
sS"this'"
p4031
I104
sS'whether'
p4032
I106
sS'wish'
p4033
I98
sS'official'
p4034
I101
sS'flip'
p4035
I106
sS'signed'
p4036
I106
sS'record'
p4037
I106
sS'negativity.i'
p4038
I106
sS'stories'
p4039
I106
sS'thoughhhhhhh'
p4040
I106
sS'pumped'
p4041
I106
sS'cake'
p4042
I106
sS'do.\xe2\x80\x9d'
p4043
I106
sS'problem'
p4044
I106
sS'minutes'
p4045
I106
sS'grool'
p4046
I106
sS'skating'
p4047
I106
sS"language'"
p4048
I106
sS'replying'
p4049
I104
sS'deaths'
p4050
I106
sS'daaaammmnnn'
p4051
I106
sS'pic'
p4052
I105
sS'gtfo'
p4053
I105
sS'07:52:40.0,34.06773194,-118.30011082,2119.10,damnnnnnn!,90020\n507793964141780992,ruizserg,2014-09-05'
p4054
I106
sS'sibling'
p4055
I106
sS'goodness'
p4056
I106
sS'relates'
p4057
I106
sS"bit'"
p4058
I106
sS"arms'"
p4059
I106
sS'ew'
p4060
I100
sS"aw('"
p4061
I106
sS"fakes'"
p4062
I106
sS'mutual'
p4063
I106
sS'48'
p4064
I106
sS'ugly"\xe2\x80\x9d'
p4065
I106
sS'730'
p4066
I106
sS'lately'
p4067
I98
sS'other'
p4068
I90
sS'boom'
p4069
I105
sS'sick'
p4070
I96
sS'firefighters'
p4071
I106
sS'01:24:49.0,34.06785027,-118.29987805,2119.10,murkssss,90020\n507700688990642176,ruizserg,2014-09-05'
p4072
I106
sS'exclamation'
p4073
I106
sS"scumbag'"
p4074
I106
sS"beat'"
p4075
I106
sS"dur'"
p4076
I106
sS'haccp'
p4077
I106
sS'class'
p4078
I100
sS'<33\xe2\x80\x9d'
p4079
I106
sS'something\xe2\x80\xa6'
p4080
I106
sS"within',90020\n510622802865438720,ruizserg,2014-09-13"
p4081
I106
sS'stay'
p4082
I97
sS'chance'
p4083
I103
sS'\xe2\x80\xa2'
p4084
I106
sS'pure'
p4085
I106
sS'kinda'
p4086
I103
sS'shit!,90020\n510580389128065024,ruizserg,2014-09-13'
p4087
I106
sS'badass'
p4088
I106
sS"thing'"
p4089
I106
sS'friends'
p4090
I104
sS'\xe2\x80\x93'
p4091
I106
sS"23:01:11.0,34.06776047,-118.30003448,2119.10,leva',90020\n507558984887173120,ruizserg,2014-09-04"
p4092
I106
sS'using'
p4093
I106
sS'kardashian'
p4094
I105
sS'pilas'
p4095
I106
sS"misconception'"
p4096
I106
sS'strings'
p4097
I106
sS'naaaahhhhhh'
p4098
I106
sS'c\xc3\xa9sar'
p4099
I106
sS'compete'
p4100
I106
sS'wine'
p4101
I106
sS'trippn"'
p4102
I106
sS'understand'
p4103
I102
sS'"the'
p4104
I106
sS'oitnb'
p4105
I106
s.