(dp0
S''
p1
I1
sS'all'
p2
I22
sS'coach'
p3
I28
sS':)'
p4
I27
sS'whoever'
p5
I28
sS'bien'
p6
I28
sS':/'
p7
I28
sS'sleep'
p8
I28
sS'go'
p9
I18
sS'everyones'
p10
I28
sS'hate'
p11
I27
sS'issues'
p12
I28
sS'relationships'
p13
I28
sS'tu'
p14
I28
sS'thursday'
p15
I28
sS'to'
p16
I5
sS'charge'
p17
I28
sS"ain't"
p18
I28
sS'tf'
p19
I28
sS'up.\xe2\x80\x9d'
p20
I28
sS'worth'
p21
I28
sS'sent'
p22
I28
sS"you're"
p23
I28
sS'me'
p24
I16
sS'woman'
p25
I28
sS'song'
p26
I28
sS'cheap'
p27
I28
sS'hilarious'
p28
I28
sS'espa\xc3\xb1ol'
p29
I28
sS'keeping'
p30
I27
sS'fat'
p31
I27
sS'tacos'
p32
I28
sS'jack'
p33
I28
sS'fall'
p34
I27
sS'cool'
p35
I28
sS'trippin'
p36
I28
sS'school'
p37
I25
sS'couches'
p38
I28
sS'did'
p39
I28
sS'die'
p40
I28
sS'try'
p41
I28
sS'quick'
p42
I28
sS"yesterday's"
p43
I28
sS'guy'
p44
I28
sS'->'
p45
I28
sS'straight'
p46
I28
sS'nobodysnapme'
p47
I28
sS"i'll"
p48
I26
sS'ass'
p49
I27
sS'says'
p50
I28
sS"you'd"
p51
I28
sS'chichis'
p52
I28
sS'phones'
p53
I28
sS'bedroom'
p54
I28
sS'shut'
p55
I28
sS'burger'
p56
I28
sS'street'
p57
I28
sS'design'
p58
I28
sS'7th'
p59
I28
sS'drinks'
p60
I28
sS'even'
p61
I26
sS'what'
p62
I23
sS"tonight's"
p63
I28
sS'crust'
p64
I28
sS'fucks'
p65
I28
sS'uniform'
p66
I28
sS'access'
p67
I28
sS'rub'
p68
I28
sS'goes'
p69
I28
sS'new'
p70
I23
sS'net'
p71
I28
sS'ever'
p72
I28
sS'told'
p73
I28
sS'body'
p74
I28
sS'crunch'
p75
I28
sS"c'mon"
p76
I28
sS'never'
p77
I25
sS'punch'
p78
I28
sS'drink"'
p79
I28
sS'\xe2\x9d\xa4\xef\xb8\x8f'
p80
I28
sS'explore'
p81
I28
sS'dora'
p82
I28
sS'others'
p83
I28
sS'alone'
p84
I28
sS"durant's"
p85
I28
sS'strong'
p86
I28
sS'wait'
p87
I27
sS'settling'
p88
I28
sS'boy'
p89
I28
sS'high-school'
p90
I28
sS'laughter'
p91
I28
sS'employees'
p92
I28
sS'changed'
p93
I28
sS'haunts'
p94
I28
sS'barreras'
p95
I28
sS'leaving'
p96
I28
sS'itunes'
p97
I28
sS'boi'
p98
I28
sS'loop'
p99
I28
sS"would've"
p100
I28
sS"i'm"
p101
I17
sS'makes'
p102
I28
sS'prince.\xe2\x80\x9d'
p103
I28
sS'fantastic'
p104
I28
sS'lurker'
p105
I28
sS'love'
p106
I27
sS'se\xc3\xb1oritas'
p107
I28
sS'extra'
p108
I28
sS'app'
p109
I28
sS'vodka'
p110
I28
sS'feelings'
p111
I28
sS'bro'
p112
I27
sS'till'
p113
I28
sS'*deep'
p114
I28
sS'gosh'
p115
I28
sS'hahahahaha'
p116
I28
sS'from'
p117
I22
sS'working'
p118
I28
sS'&'
p119
I27
sS'dude'
p120
I26
sS'dudes'
p121
I28
sS'intense'
p122
I28
sS'armo'
p123
I28
sS'live'
p124
I26
sS'camera'
p125
I28
sS'music'
p126
I28
sS'iphone'
p127
I27
sS'gorgeous'
p128
I28
sS'markets'
p129
I28
sS'until'
p130
I28
sS'today'
p131
I24
sS'poor\xe2\x80\xa6'
p132
I28
sS'$20'
p133
I28
sS'knows'
p134
I28
sS'"nah'
p135
I28
sS'flying'
p136
I28
sS'haha'
p137
I27
sS'!\xe2\x80\x9d'
p138
I28
sS'phone'
p139
I26
sS'controlling'
p140
I28
sS'baby'
p141
I27
sS'actual'
p142
I28
sS'hold'
p143
I27
sS'karaoke'
p144
I28
sS'shoot'
p145
I28
sS'account'
p146
I27
sS'balls'
p147
I28
sS'word'
p148
I28
sS'hour'
p149
I26
sS'niggas'
p150
I27
sS'this'
p151
I8
sS'car'
p152
I27
sS'ride'
p153
I27
sS'netflix'
p154
I28
sS'yer'
p155
I28
sS'can'
p156
I23
sS'drill'
p157
I28
sS'"chupamela'
p158
I28
sS'elegantly'
p159
I28
sS'my'
p160
I6
sS'addictive'
p161
I28
sS'dropped'
p162
I28
sS'crazy'
p163
I28
sS'internet'
p164
I28
sS'thirsty'
p165
I28
sS'give'
p166
I28
sS'process'
p167
I28
sS'awesome'
p168
I27
sS"didn't"
p169
I28
sS'fuck'
p170
I20
sS'involve'
p171
I28
sS'heard'
p172
I28
sS'homie'
p173
I28
sS'something'
p174
I28
sS'want'
p175
I25
sS'bones'
p176
I28
sS'needs'
p177
I28
sS'hoe'
p178
I28
sS'end'
p179
I28
sS'lame'
p180
I28
sS'destroying'
p181
I28
sS'feeelin'
p182
I28
sS'watching'
p183
I27
sS'nuts'
p184
I28
sS'1'
p185
I28
sS'how'
p186
I25
sS'sunday'
p187
I28
sS'animal'
p188
I28
sS'instead'
p189
I28
sS'sin'
p190
I28
sS'pizza'
p191
I25
sS'okay'
p192
I28
sS'description'
p193
I28
sS'horoscope'
p194
I28
sS'spot'
p195
I28
sS'sneak'
p196
I28
sS'pablito"'
p197
I28
sS'sickkkkkkkk'
p198
I28
sS'mac'
p199
I28
sS'4th'
p200
I28
sS'mad'
p201
I28
sS'taco'
p202
I28
sS'such'
p203
I28
sS'truly'
p204
I27
sS'guys'
p205
I28
sS'autograph'
p206
I28
sS'man'
p207
I23
sS'a'
p208
I3
sS'remember'
p209
I28
sS'reminiscing'
p210
I28
sS'maybe'
p211
I28
sS'or'
p212
I26
sS'complaining'
p213
I28
sS'ones'
p214
I28
sS'so'
p215
I12
sS'<<---'
p216
I28
sS'classy'
p217
I27
sS'tall'
p218
I28
sS'dream'
p219
I27
sS'playing'
p220
I28
sS'se'
p221
I28
sS"that's"
p222
I26
sS'replied'
p223
I28
sS'cute'
p224
I28
sS'six'
p225
I28
sS"don't"
p226
I22
sS'over'
p227
I26
sS'haircut'
p228
I28
sS'sooo'
p229
I28
sS'soon'
p230
I28
sS'years'
p231
I28
sS'already'
p232
I28
sS'looks'
p233
I28
sS'hell'
p234
I27
sS'cold'
p235
I27
sS'still'
p236
I27
sS'its'
p237
I28
sS'hip-hop'
p238
I28
sS'before'
p239
I28
sS'ima'
p240
I27
sS'spotify'
p241
I27
sS'20'
p242
I28
sS'thank'
p243
I28
sS'la'
p244
I26
sS'smoothie'
p245
I28
sS'trying'
p246
I28
sS'crew'
p247
I28
sS'better'
p248
I26
sS'window'
p249
I28
sS'tweets'
p250
I28
sS'soccer'
p251
I27
sS'might'
p252
I28
sS'into'
p253
I28
sS"haven't"
p254
I28
sS'dad'
p255
I28
sS'then'
p256
I27
sS'them'
p257
I28
sS'good'
p258
I20
sS'hop'
p259
I28
sS'yo'
p260
I23
sS'grip'
p261
I28
sS'ya'
p262
I26
sS'dam'
p263
I28
sS'nokia'
p264
I28
sS'it"'
p265
I28
sS'dat'
p266
I28
sS'ohmygodihaveanidea'
p267
I28
sS"you've"
p268
I27
sS'they'
p269
I28
sS'not'
p270
I20
sS'now'
p271
I18
sS'day'
p272
I22
sS'nos'
p273
I28
sS'rocky'
p274
I28
sS'nugget'
p275
I28
sS'always'
p276
I26
sS'transmission'
p277
I28
sS'each'
p278
I28
sS'ponemos'
p279
I28
sS'found'
p280
I27
sS'went'
p281
I28
sS'meal'
p282
I28
sS'em'
p283
I28
sS'el'
p284
I28
sS'doing'
p285
I27
sS'house'
p286
I27
sS'hard'
p287
I26
sS'yeah'
p288
I26
sS'taught'
p289
I28
sS'year'
p290
I26
sS'girl'
p291
I25
sS'out'
p292
I25
sS'rt'
p293
I27
sS'leave'
p294
I28
sS'missed'
p295
I27
sS'<<<'
p296
I28
sS'god'
p297
I28
sS'tried'
p298
I27
sS'since'
p299
I25
sS"jennifer's"
p300
I28
sS'looking'
p301
I26
sS'mu\xc3\xb1oz'
p302
I28
sS'arkansas'
p303
I27
sS'7'
p304
I28
sS'smh'
p305
I28
sS'rl'
p306
I28
sS'got'
p307
I21
sS'maryjane'
p308
I28
sS'dunk'
p309
I28
sS'xdd'
p310
I28
sS'dirt'
p311
I28
sS'timeline'
p312
I28
sS'friday'
p313
I28
sS'little'
p314
I27
sS'ancient'
p315
I28
sS'put'
p316
I26
sS'mcchicken'
p317
I27
sS'mainland'
p318
I28
sS'miss'
p319
I28
sS'could'
p320
I23
sS'iterative'
p321
I28
sS'days'
p322
I28
sS'regrese'
p323
I28
sS'keep'
p324
I27
sS'thing'
p325
I26
sS'birthday'
p326
I28
sS'place'
p327
I28
sS"it'll"
p328
I28
sS'think'
p329
I25
sS'south'
p330
I28
sS'\xc2\xaf\\_(\xe3\x83\x84)_/\xc2\xaf'
p331
I28
sS'cheese'
p332
I28
sS'clarita'
p333
I28
sS'slipped'
p334
I28
sS'feel'
p335
I27
sS'*despues*'
p336
I28
sS'bars'
p337
I28
sS'one'
p338
I22
sS'done'
p339
I26
sS'bitch'
p340
I27
sS'another'
p341
I28
sS'molloys'
p342
I28
sS'neighborhood'
p343
I28
sS'sounds'
p344
I28
sS'open'
p345
I27
sS'tomorrow'
p346
I27
sS'instagram'
p347
I28
sS"doesn't"
p348
I28
sS'guess'
p349
I27
sS'long'
p350
I26
sS'stuck'
p351
I27
sS'top'
p352
I28
sS'myspace'
p353
I27
sS'girls'
p354
I28
sS'her\xe2\x80\x9d'
p355
I27
sS'anyone'
p356
I27
sS'their'
p357
I26
sS'2'
p358
I25
sS'too'
p359
I22
sS'tom'
p360
I28
sS'mama'
p361
I27
sS'white'
p362
I28
sS'legs'
p363
I28
sS'friend'
p364
I28
sS'headache'
p365
I28
sS'eyes'
p366
I28
sS'copa'
p367
I28
sS'relationship'
p368
I28
sS'that'
p369
I16
sS'gym'
p370
I28
sS'hotel'
p371
I28
sS'park'
p372
I27
sS'took'
p373
I28
sS'negro'
p374
I28
sS'dentist'
p375
I28
sS'prydz'
p376
I28
sS'copy'
p377
I28
sS'than'
p378
I26
sS'character'
p379
I28
sS'toronto'
p380
I28
sS'king'
p381
I27
sS'gordita'
p382
I28
sS'observatory'
p383
I28
sS'15'
p384
I28
sS'lmao'
p385
I28
sS'16'
p386
I28
sS'fufu'
p387
I28
sS'18'
p388
I28
sS'gotta'
p389
I28
sS'aztec'
p390
I28
sS'classes'
p391
I28
sS'silly'
p392
I28
sS'booted'
p393
I28
sS'tweeting'
p394
I28
sS'asleep'
p395
I28
sS'feeling'
p396
I27
sS'bet'
p397
I28
sS'lunches'
p398
I28
sS'and'
p399
I10
sS'few'
p400
I28
sS'tonight'
p401
I26
sS'say'
p402
I28
sS'slam'
p403
I28
sS'have'
p404
I24
sS'anti-meta'
p405
I28
sS'need'
p406
I26
sS'seen'
p407
I28
sS'turn'
p408
I28
sS'saw'
p409
I28
sS'any'
p410
I27
sS'kevin'
p411
I28
sS'gives'
p412
I28
sS'thought'
p413
I28
sS'bae'
p414
I27
sS'sprinkles'
p415
I28
sS'clutch'
p416
I28
sS'lil'
p417
I28
sS'-'
p418
I28
sS'gravity'
p419
I28
sS'hangover'
p420
I28
sS'mix'
p421
I28
sS'squad'
p422
I28
sS'take'
p423
I26
sS'wanting'
p424
I28
sS'asshole'
p425
I28
sS'becoming'
p426
I28
sS'play'
p427
I28
sS'patrick'
p428
I28
sS'quote'
p429
I28
sS'knew'
p430
I26
sS'pondering'
p431
I28
sS"where's"
p432
I28
sS'most'
p433
I27
sS'trippy'
p434
I28
sS'voice*'
p435
I28
sS'pair'
p436
I28
sS'highschool'
p437
I28
sS'why'
p438
I25
sS'icon'
p439
I28
sS'forever'
p440
I26
sS'56%'
p441
I28
sS'mobile'
p442
I28
sS'flow'
p443
I28
sS'hungry'
p444
I28
sS'brought'
p445
I28
sS"you'll"
p446
I27
sS'definitely'
p447
I28
sS'soho'
p448
I28
sS'skinny'
p449
I28
sS'schleeeep'
p450
I28
sS'wow'
p451
I28
sS'came'
p452
I28
sS'manly'
p453
I28
sS'ugh'
p454
I28
sS'bomb'
p455
I28
sS'show'
p456
I28
sS'text'
p457
I27
sS"mama's"
p458
I28
sS'fingers'
p459
I28
sS'stfu'
p460
I28
sS'radio'
p461
I27
sS'stoned'
p462
I28
sS'large'
p463
I28
sS'chicken'
p464
I28
sS'longer'
p465
I28
sS'toilet'
p466
I28
sS'find'
p467
I28
sS'=))'
p468
I28
sS'slow'
p469
I27
sS'grabbed'
p470
I28
sS'('
p471
I28
sS'winner'
p472
I28
sS'noiz'
p473
I28
sS'enough'
p474
I28
sS'appreciated'
p475
I28
sS'only'
p476
I28
sS'going'
p477
I27
sS'hockey'
p478
I28
sS'pretty'
p479
I27
sS'combo'
p480
I28
sS'quieres'
p481
I28
sS'douglass'
p482
I28
sS'do'
p483
I25
sS'his'
p484
I26
sS'hit'
p485
I28
sS'get'
p486
I16
sS'wishing'
p487
I28
sS'dope'
p488
I28
sS'de'
p489
I28
sS'watch'
p490
I28
sS'terrors'
p491
I28
sS'da'
p492
I26
sS'tbh'
p493
I28
sS'bompton'
p494
I28
sS'cannot'
p495
I28
sS'champ'
p496
I28
sS'reply'
p497
I28
sS'report'
p498
I28
sS'whaaat'
p499
I28
sS'him'
p500
I27
sS'devoured'
p501
I28
sS'shmile'
p502
I28
sS'bustin'
p503
I28
sS'"mixed'
p504
I28
sS'bad'
p505
I28
sS'stuff'
p506
I26
sS'she'
p507
I22
sS'shots'
p508
I28
sS'where'
p509
I28
sS'wrote'
p510
I28
sS'restaurants'
p511
I28
sS"y'all"
p512
I26
sS'mcchickens'
p513
I27
sS'ikr'
p514
I28
sS'w/'
p515
I28
sS'intelligence'
p516
I28
sS'liquor'
p517
I28
sS'!-$'
p518
I28
sS'see'
p519
I27
sS'dumb'
p520
I28
sS'are'
p521
I23
sS'kanye'
p522
I28
sS'europa'
p523
I28
sS'best'
p524
I25
sS'said'
p525
I26
sS'grime'
p526
I28
sS'currently'
p527
I27
sS'caved'
p528
I28
sS'yet'
p529
I28
sS'3'
p530
I27
sS"there's"
p531
I28
sS'between'
p532
I28
sS'partner.\xe2\x80\x9d'
p533
I28
sS'probably'
p534
I27
sS"tv's"
p535
I28
sS'across'
p536
I28
sS'smaller.\xe2\x80\x9dfuck'
p537
I28
sS'bought'
p538
I28
sS'perfect'
p539
I28
sS'we'
p540
I26
sS'omg'
p541
I27
sS'trynna'
p542
I27
sS'joy'
p543
I27
sS'bump'
p544
I28
sS'you.destructo'
p545
I28
sS'smashed'
p546
I28
sS'job'
p547
I26
sS'here'
p548
I28
sS'wtf'
p549
I25
sS'9000'
p550
I28
sS'cousin'
p551
I28
sS'come'
p552
I25
sS'pissed'
p553
I26
sS'store'
p554
I28
sS'last'
p555
I25
sS"he's"
p556
I27
sS'called'
p557
I28
sS'wipeout'
p558
I28
sS'let'
p559
I28
sS'whole'
p560
I27
sS'los'
p561
I28
sS"can't"
p562
I26
sS'motherfuckers'
p563
I28
sS'supply'
p564
I27
sS'battery'
p565
I28
sS'seems'
p566
I27
sS'cuando'
p567
I28
sS'whatever'
p568
I28
sS'coincidence'
p569
I28
sS'likes'
p570
I27
sS'laugh'
p571
I28
sS'cr'
p572
I28
sS'actually'
p573
I28
sS'sticks'
p574
I28
sS'duh'
p575
I28
sS'quit'
p576
I28
sS'lifes'
p577
I28
sS'pt'
p578
I28
sS"it's"
p579
I24
sS'create'
p580
I28
sS'dis'
p581
I28
sS'pedos'
p582
I28
sS'been'
p583
I21
sS'kay'
p584
I28
sS'beer'
p585
I28
sS'much'
p586
I24
sS'damn'
p587
I26
sS'jon'
p588
I28
sS'waste'
p589
I28
sS'bbq'
p590
I27
sS'canucks'
p591
I28
sS'wants'
p592
I28
sS'affectionate'
p593
I28
sS'life'
p594
I24
sS'plugged'
p595
I28
sS'hmu'
p596
I28
sS"what's"
p597
I28
sS'walmart'
p598
I28
sS'else'
p599
I28
sS'tiger'
p600
I28
sS'trippyyy'
p601
I28
sS'awake'
p602
I28
sS'demand'
p603
I26
sS'catch'
p604
I28
sS'everest'
p605
I28
sS'those'
p606
I28
sS'main'
p607
I28
sS'look'
p608
I28
sS'these'
p609
I28
sS'sauce'
p610
I28
sS'mount'
p611
I28
sS'convo'
p612
I28
sS'beats'
p613
I28
sS'n'
p614
I27
sS'will'
p615
I26
sS'ugly'
p616
I27
sS'while'
p617
I26
sS'-unpredictable'
p618
I28
sS'hahaha'
p619
I25
sS'cracked'
p620
I28
sS'gave'
p621
I28
sS'inspired'
p622
I28
sS'launched'
p623
I28
sS'listen'
p624
I28
sS'almost'
p625
I28
sS'is'
p626
I7
sS'it'
p627
I9
sS'rip'
p628
I28
sS'calvin'
p629
I28
sS'middle'
p630
I28
sS'cant'
p631
I27
sS'someone'
p632
I28
sS'im'
p633
I27
sS'triple'
p634
I28
sS'in'
p635
I17
sS'ready'
p636
I27
sS'bucks'
p637
I28
sS'id'
p638
I28
sS'if'
p639
I23
sS'funny'
p640
I28
sS'different'
p641
I28
sS'pay'
p642
I28
sS'make'
p643
I28
sS'bowl'
p644
I28
sS'same'
p645
I28
sS'check'
p646
I28
sS'split'
p647
I28
sS'grand'
p648
I28
sS'shell'
p649
I28
sS'start'
p650
I28
sS'week'
p651
I27
sS'lightsand'
p652
I28
sS'pontiac'
p653
I28
sS'drink'
p654
I28
sS'tambien'
p655
I28
sS'running'
p656
I28
sS'harris'
p657
I28
sS'feeling.\xe2\x80\x9d'
p658
I28
sS'climb'
p659
I28
sS'off'
p660
I26
sS'sacred'
p661
I28
sS'i'
p662
I2
sS'contest'
p663
I28
sS'well'
p664
I28
sS'asked'
p665
I28
sS'tho'
p666
I25
sS'person'
p667
I28
sS'without'
p668
I28
sS'mamma'
p669
I28
sS'bottle'
p670
I27
sS'y'
p671
I28
sS'the'
p672
I4
sS'aways'
p673
I28
sS'yours'
p674
I28
sS'tha'
p675
I28
sS'things'
p676
I28
sS'jst'
p677
I28
sS'just'
p678
I19
sS'true'
p679
I28
sS'money'
p680
I27
sS'50/50'
p681
I28
sS'beetroots'
p682
I28
sS'dehydration'
p683
I28
sS'verdad'
p684
I28
sS'baboso'
p685
I28
sS'questions'
p686
I28
sS'touch'
p687
I28
sS'talk'
p688
I28
sS'praying'
p689
I28
sS'speed'
p690
I28
sS'griffith'
p691
I27
sS'cut'
p692
I27
sS'ham'
p693
I28
sS'snicker'
p694
I28
sS'dissin'
p695
I28
sS'palga'
p696
I28
sS'drive'
p697
I28
sS'had'
p698
I25
sS'invitamos'
p699
I28
sS'shout'
p700
I28
sS'chugged'
p701
I28
sS'cum'
p702
I26
sS'has'
p703
I26
sS'useless'
p704
I28
sS'real'
p705
I25
sS'preseason'
p706
I28
sS'puta'
p707
I28
sS'read'
p708
I28
sS'big'
p709
I28
sS"who's"
p710
I28
sS'gonna'
p711
I27
sS'lovin'
p712
I28
sS'early'
p713
I28
sS'game'
p714
I27
sS'five'
p715
I28
sS'know'
p716
I24
sS'mom'
p717
I26
sS'bit'
p718
I28
sS'bloody'
p719
I28
sS'lady'
p720
I28
sS'korean'
p721
I28
sS'shoulder'
p722
I28
sS'naturally'
p723
I28
sS'like'
p724
I18
sS'success'
p725
I28
sS'eric'
p726
I28
sS'should'
p727
I28
sS'sissy'
p728
I28
sS'continue'
p729
I28
sS'night'
p730
I22
sS'works'
p731
I28
sS'right'
p732
I20
sS'old'
p733
I26
sS"couldn't"
p734
I28
sS'deal'
p735
I28
sS'people'
p736
I27
sS'fucking'
p737
I28
sS'twitter'
p738
I28
sS'some'
p739
I23
sS'back'
p740
I21
sS'dead'
p741
I26
sS'oh'
p742
I28
sS'hair'
p743
I28
sS'respect'
p744
I28
sS'home'
p745
I27
sS'peter'
p746
I28
sS'thinks'
p747
I28
sS'weirdo'
p748
I28
sS'for'
p749
I11
sS'purple'
p750
I28
sS'decision'
p751
I28
sS'though'
p752
I28
sS'fox'
p753
I28
sS'\xe2\x9d\x93\xe2\x9d\x93\xe2\x9d\x93\xe2\x9d\x93\xe2\x9d\x93'
p754
I28
sS'wrong'
p755
I28
sS'pelo'
p756
I28
sS'foo'
p757
I28
sS'be'
p758
I19
sS'who'
p759
I24
sS'run'
p760
I28
sS'boojie-bum'
p761
I28
sS'bc'
p762
I28
sS'lmfao'
p763
I28
sS'k'
p764
I28
sS'spider-man'
p765
I28
sS'perpendicular'
p766
I28
sS'skrillex'
p767
I28
sS'\xe2\x99\x8b\xef\xb8\x8f'
p768
I28
sS'santa'
p769
I28
sS'mau5'
p770
I28
sS';)'
p771
I27
sS'super'
p772
I27
sS'by'
p773
I25
sS'on'
p774
I16
sS'about'
p775
I23
sS'ol'
p776
I28
sS'ok'
p777
I28
sS'testimonial'
p778
I28
sS'anything'
p779
I28
sS'getting'
p780
I27
sS'of'
p781
I15
sS'months'
p782
I28
sS'o'
p783
I28
sS'hungry\xe2\x80\x9d'
p784
I28
sS'angeles'
p785
I28
sS'dinner'
p786
I27
sS'empty'
p787
I28
sS'\xe2\x80\xa2-\xe2\x80\xa2'
p788
I28
sS'wanna'
p789
I26
sS'idc'
p790
I26
sS'rodc'
p791
I28
sS'h8'
p792
I28
sS'2nite'
p793
I28
sS'al'
p794
I28
sS'aliens'
p795
I28
sS'weddington'
p796
I28
sS'down'
p797
I26
sS'nigga'
p798
I26
sS'promise'
p799
I28
sS'amsterdam'
p800
I28
sS'zedd'
p801
I28
sS'pointless'
p802
I28
sS'your'
p803
I23
sS'dewd'
p804
I28
sS'devices'
p805
I28
sS'her'
p806
I27
sS'area'
p807
I28
sS'friends'
p808
I28
sS'there'
p809
I27
sS'hey'
p810
I28
sS'lol'
p811
I14
sS'virgin'
p812
I28
sS'low'
p813
I28
sS'way'
p814
I25
sS'bruh'
p815
I27
sS'dank'
p816
I28
sS'was'
p817
I13
sS'happy'
p818
I26
sS'catalina'
p819
I28
sS'jones'
p820
I28
sS'funnel'
p821
I28
sS'buy'
p822
I28
sS'inches'
p823
I28
sS"i've"
p824
I25
sS'bauur'
p825
I28
sS'believe'
p826
I28
sS'6'
p827
I28
sS'but'
p828
I21
sS'home.stay'
p829
I28
sS'boys'
p830
I28
sS'larry'
p831
I26
sS'hopes'
p832
I28
sS'regalote'
p833
I28
sS'line'
p834
I26
sS'ha'
p835
I28
sS'with'
p836
I17
sS'eat'
p837
I26
sS'buying'
p838
I28
sS'he'
p839
I27
sS'20pc'
p840
I28
sS'whether'
p841
I28
sS'type'
p842
I28
sS'up'
p843
I18
sS'gamified'
p844
I28
sS'tell'
p845
I28
sS'planet'
p846
I28
sS'89'
p847
I28
sS'woke'
p848
I28
sS'cake'
p849
I28
sS'more'
p850
I28
sS'nerds'
p851
I28
sS'xdddd'
p852
I28
sS'gone'
p853
I28
sS'supreme'
p854
I28
sS'liberal'
p855
I28
sS'butthole'
p856
I28
sS'af'
p857
I28
sS'stronger'
p858
I28
sS'ak'
p859
I28
sS'am'
p860
I28
sS'direction'
p861
I27
sS'an'
p862
I23
sS'cbs'
p863
I28
sS'as'
p864
I26
sS'at'
p865
I21
sS'nero'
p866
I28
sS'himself'
p867
I28
sS'nerd'
p868
I27
sS'shit'
p869
I21
sS'again'
p870
I26
sS'us'
p871
I28
sS'no'
p872
I22
sS'dressed'
p873
I28
sS'nah'
p874
I28
sS'when'
p875
I21
sS"trippin'"
p876
I28
sS'nick'
p877
I28
sS'nap'
p878
I27
sS'other'
p879
I25
sS'5'
p880
I27
sS'sick'
p881
I28
sS'you'
p882
I7
sS'really'
p883
I22
sS'concerning'
p884
I28
sS'troll'
p885
I28
sS'cheesy'
p886
I28
sS"sayin'"
p887
I28
sS'outage'
p888
I28
sS'diet'
p889
I28
sS"let's"
p890
I28
sS'town'
p891
I27
sS'kinda'
p892
I27
sS'fresh'
p893
I28
sS'weekend'
p894
I27
sS'earned\xe2\x80\x9d'
p895
I28
sS'died'
p896
I27
sS'cliff'
p897
I28
sS'ago'
p898
I28
sS'downtown'
p899
I28
sS'remote'
p900
I28
sS'cirez'
p901
I28
sS'megan'
p902
I28
sS'together'
p903
I28
sS'u'
p904
I26
sS'scare'
p905
I28
sS'time'
p906
I17
sS'alright'
p907
I28
sS'understand'
p908
I28
sS'starting'
p909
I27
sS'hello'
p910
I28
sS'once'
p911
I28
s.