(dp0
S''
p1
I1
sS'edc'
p2
I29
sS'all'
p3
I24
sS'code'
p4
I29
sS'forget'
p5
I29
sS'felt'
p6
I29
sS'edm'
p7
I29
sS'sleep'
p8
I28
sS'gang'
p9
I29
sS'hanging'
p10
I29
sS'go'
p11
I22
sS'follow'
p12
I28
sS'captain'
p13
I29
sS'hate'
p14
I29
sS':)'
p15
I27
sS'jessie'
p16
I29
sS'apartment'
p17
I29
sS'yummy'
p18
I29
sS'wowoowowow'
p19
I29
sS'^__^'
p20
I29
sS'white'
p21
I29
sS'young'
p22
I28
sS'sashimi'
p23
I29
sS'to'
p24
I4
sS'finally'
p25
I28
sS'program'
p26
I29
sS'enjoying'
p27
I29
sS'worth'
p28
I28
sS'brown'
p29
I26
sS'garden'
p30
I29
sS'sitting'
p31
I29
sS'very'
p32
I29
sS'paradise'
p33
I11
sS'brownie'
p34
I28
sS'fat'
p35
I29
sS'wishes'
p36
I28
sS'every'
p37
I28
sS'ewwwwwwwwww'
p38
I29
sS'fag'
p39
I29
sS'minute'
p40
I29
sS'cool'
p41
I28
sS'tickets'
p42
I29
sS'entire'
p43
I29
sS'school'
p44
I27
sS'washing'
p45
I29
sS'did'
p46
I28
sS'die'
p47
I29
sS'celebrity'
p48
I29
sS'wednesday'
p49
I29
sS'leave'
p50
I29
sS'guy'
p51
I29
sS'earbuds'
p52
I29
sS"i'll"
p53
I28
sS'abbreviated'
p54
I29
sS'ocha'
p55
I15
sS'tired'
p56
I29
sS'tea'
p57
I28
sS'streets'
p58
I29
sS'japanese'
p59
I24
sS'sign'
p60
I29
sS'chef'
p61
I29
sS'shirts'
p62
I29
sS'helluva'
p63
I29
sS'anaconda'
p64
I29
sS'folk'
p65
I29
sS'even'
p66
I26
sS'what'
p67
I29
sS'afiliados'
p68
I29
sS'plays'
p69
I29
sS'bb'
p70
I29
sS'ayce'
p71
I29
sS'soup'
p72
I29
sS'sangria'
p73
I29
sS'emotions'
p74
I29
sS'consistently'
p75
I29
sS'waiting'
p76
I28
sS'sus'
p77
I29
sS'goes'
p78
I28
sS'"drake'
p79
I29
sS'new'
p80
I28
sS'ever'
p81
I29
sS'public'
p82
I29
sS'exercise'
p83
I29
sS'movement'
p84
I29
sS'full'
p85
I27
sS'never'
p86
I25
sS'wrapping'
p87
I29
sS'here'
p88
I25
sS'hundreds'
p89
I29
sS'water'
p90
I29
sS'explore'
p91
I28
sS'simon'
p92
I29
sS'&&'
p93
I29
sS'alone'
p94
I29
sS'sexy'
p95
I29
sS'me~'
p96
I29
sS'table'
p97
I29
sS'imperfections'
p98
I29
sS'change'
p99
I29
sS'wait'
p100
I29
sS'arena'
p101
I29
sS'great'
p102
I28
sS'kids'
p103
I29
sS'metro'
p104
I29
sS'niggah'
p105
I29
sS'until'
p106
I29
sS'shades'
p107
I29
sS'ms.valle'
p108
I29
sS'lmk'
p109
I29
sS'flu'
p110
I29
sS"i'm"
p111
I13
sS'makes'
p112
I29
sS'roomie'
p113
I29
sS"day's"
p114
I29
sS'fantastic'
p115
I29
sS'love'
p116
I26
sS'hiking'
p117
I29
sS'extra'
p118
I29
sS'forbid'
p119
I29
sS'win'
p120
I29
sS'apt'
p121
I29
sS'bro'
p122
I28
sS'\xee\x8c\xbe\xee\x8d\x80\xee\x90\xa0'
p123
I29
sS'dayyy('
p124
I29
sS'everybody'
p125
I29
sS'use'
p126
I29
sS'from'
p127
I27
sS'would'
p128
I29
sS'&'
p129
I26
sS'sweater'
p130
I29
sS'dude'
p131
I28
sS'two'
p132
I28
sS'tightly'
p133
I29
sS'next'
p134
I29
sS'few'
p135
I29
sS'ca)'
p136
I29
sS'camera'
p137
I29
sS'music'
p138
I28
sS'calm'
p139
I29
sS'gorgeous'
p140
I29
sS'excommunicated'
p141
I29
sS'tell'
p142
I28
sS'today'
p143
I26
sS'more'
p144
I29
sS'door'
p145
I29
sS'journalists'
p146
I29
sS'holy'
p147
I29
sS'company'
p148
I29
sS'haha'
p149
I29
sS'sister'
p150
I29
sS'parade'
p151
I29
sS'fixed'
p152
I29
sS'stick'
p153
I29
sS'baby'
p154
I28
sS'hurry'
p155
I29
sS'glad'
p156
I29
sS'me'
p157
I15
sS'salaa'
p158
I29
sS'ma'
p159
I26
sS'room'
p160
I29
sS'niggas'
p161
I29
sS'this'
p162
I20
sS'car'
p163
I29
sS'ride'
p164
I28
sS'6am'
p165
I29
sS'sucks'
p166
I29
sS'regrets'
p167
I29
sS'movies'
p168
I29
sS'del'
p169
I28
sS'can'
p170
I26
sS'learn'
p171
I28
sS'making'
p172
I29
sS'male'
p173
I29
sS'my'
p174
I6
sS'please<3'
p175
I29
sS'control'
p176
I29
sS'heart'
p177
I26
sS'give'
p178
I28
sS'alba'
p179
I29
sS'punk'
p180
I29
sS'awesome'
p181
I29
sS"didn't"
p182
I29
sS'fuck'
p183
I25
sS'bus'
p184
I29
sS'states'
p185
I29
sS'bday....\xe2\x80\x9d'
p186
I29
sS'beautiful'
p187
I29
sS'tag'
p188
I29
sS'want'
p189
I24
sS'sense'
p190
I29
sS'mmmmmm'
p191
I29
sS'spa'
p192
I29
sS'david'
p193
I29
sS'rescue'
p194
I29
sS'pink'
p195
I29
sS'sir'
p196
I29
sS'iggy'
p197
I28
sS'turn'
p198
I29
sS'watching'
p199
I28
sS'stilll'
p200
I29
sS'how'
p201
I26
sS'amazing'
p202
I26
sS'musica'
p203
I29
sS'mention'
p204
I29
sS'yum'
p205
I28
sS'hi'
p206
I29
sS"doesn't"
p207
I29
sS'product'
p208
I29
sS'flirting'
p209
I29
sS'laundry'
p210
I28
sS'plans'
p211
I29
sS'food)'
p212
I27
sS'stop'
p213
I29
sS'blasting'
p214
I29
sS'after'
p215
I28
sS'long'
p216
I27
sS'birthday'
p217
I25
sS'frap'
p218
I29
sS'with."'
p219
I29
sS'agh'
p220
I29
sS'date'
p221
I29
sS'such'
p222
I29
sS'guys'
p223
I29
sS'man'
p224
I27
sS'a'
p225
I5
sS'\xe2\x99\xa1\xe2\x99\xa1\xe2\x99\xa1\xe2\x99\xa1\xe2\x99\xa1\xe2\x99\xa1'
p226
I29
sS'short'
p227
I29
sS'remember'
p228
I28
sS'loud'
p229
I29
sS'eats'
p230
I28
sS'sj'
p231
I29
sS'so'
p232
I15
sS'grande'
p233
I28
sS'furious'
p234
I29
sS'tatted'
p235
I29
sS'dream'
p236
I29
sS'edwin'
p237
I29
sS'talk'
p238
I29
sS"that's"
p239
I27
sS'cute'
p240
I27
sS'jordans'
p241
I29
sS'help'
p242
I28
sS"don't"
p243
I24
sS'reminded'
p244
I29
sS'over'
p245
I29
sS'haircut'
p246
I28
sS'2ot'
p247
I29
sS'soon'
p248
I28
sS'course'
p249
I29
sS'through'
p250
I29
sS'soot'
p251
I25
sS'its'
p252
I29
sS'before'
p253
I26
sS'ima'
p254
I29
sS'25'
p255
I29
sS'20'
p256
I29
sS'thank'
p257
I24
sS'la'
p258
I25
sS'bringing'
p259
I29
sS'fix'
p260
I29
sS'remembered'
p261
I29
sS'imo'
p262
I29
sS'winning'
p263
I29
sS'better'
p264
I28
sS'window'
p265
I29
sS'mmmm...sushi'
p266
I29
sS'bye'
p267
I27
sS'might'
p268
I29
sS'won)'
p269
I29
sS"haven't"
p270
I29
sS'then'
p271
I27
sS'them'
p272
I28
sS'good'
p273
I23
sS'koreatown.but'
p274
I29
sS'yo'
p275
I29
sS'ya'
p276
I28
sS'workout'
p277
I29
sS'insomnia'
p278
I29
sS'hilarious'
p279
I29
sS'break'
p280
I29
sS'band'
p281
I28
sS'bang'
p282
I25
sS'motivates'
p283
I29
sS'repulsive'
p284
I29
sS'xd'
p285
I29
sS'\xe2\x98\xba\xef\xb8\x8f'
p286
I26
sS'instead'
p287
I29
sS'not'
p288
I26
sS'now'
p289
I27
sS'day'
p290
I29
sS'classic\xe2\x80\xa6'
p291
I28
sS'upsetter'
p292
I29
sS'name'
p293
I28
sS'sophomore'
p294
I29
sS'always'
p295
I27
sS'-\xe2\x80\xa6'
p296
I29
sS'bless'
p297
I28
sS'toke'
p298
I29
sS'addicted'
p299
I29
sS'found'
p300
I28
sS'went'
p301
I29
sS'bong'
p302
I29
sS'|'
p303
I28
sS'mean'
p304
I29
sS'em'
p305
I27
sS'another'
p306
I27
sS'doing'
p307
I28
sS'house'
p308
I29
sS'fish'
p309
I29
sS'crushing'
p310
I29
sS'dawg'
p311
I29
sS'year'
p312
I29
sS'our'
p313
I28
sS'girl'
p314
I27
sS'pills'
p315
I29
sS'out'
p316
I17
sS'rt'
p317
I29
sS'large'
p318
I29
sS'lola'
p319
I29
sS'rey'
p320
I29
sS'(feat'
p321
I29
sS'space'
p322
I29
sS'god'
p323
I27
sS'since'
p324
I27
sS'looking'
p325
I29
sS"park's"
p326
I29
sS'bae'
p327
I29
sS'parkas'
p328
I29
sS'7'
p329
I29
sS'smh'
p330
I29
sS'got'
p331
I23
sS'rn'
p332
I28
sS'charli'
p333
I29
sS'cause'
p334
I29
sS'ass'
p335
I28
sS'shut'
p336
I29
sS'jessica'
p337
I29
sS'cutest'
p338
I29
sS"you're"
p339
I27
sS'fave'
p340
I29
sS'free'
p341
I29
sS'base'
p342
I29
sS'que'
p343
I28
sS'imagine'
p344
I29
sS'put'
p345
I28
sS'mares'
p346
I29
sS'ash'
p347
I29
sS'river'
p348
I29
sS'could'
p349
I29
sS'atm'
p350
I29
sS'momas'
p351
I29
sS'success'
p352
I29
sS'times'
p353
I29
sS'caption'
p354
I29
sS'funky'
p355
I29
sS'hacerte'
p356
I29
sS'place'
p357
I27
sS'w'
p358
I29
sS'potions'
p359
I29
sS'austin'
p360
I29
sS'think'
p361
I27
sS'first'
p362
I27
sS'shave'
p363
I28
sS"reppin'"
p364
I29
sS'flying'
p365
I29
sS'feel'
p366
I24
sS'coming'
p367
I29
sS'fancy'
p368
I29
sS'one'
p369
I26
sS'smaller'
p370
I29
sS'lol'
p371
I19
sS'delicious'
p372
I28
sS'salsa'
p373
I29
sS'sounds'
p374
I29
sS'weds'
p375
I29
sS'miss'
p376
I27
sS'hood'
p377
I29
sS'city'
p378
I28
sS'little'
p379
I25
sS'"'
p380
I26
sS'(remind'
p381
I29
sS'brisket'
p382
I28
sS'least'
p383
I29
sS'anyone'
p384
I28
sS'their'
p385
I27
sS'attack'
p386
I29
sS'2'
p387
I26
sS'hamptons'
p388
I29
sS'too'
p389
I22
sS'hollywood'
p390
I29
sS'friend'
p391
I27
sS'inner'
p392
I29
sS'muscles'
p393
I29
sS'way'
p394
I28
sS'that'
p395
I12
sS'season'
p396
I28
sS'gym'
p397
I28
sS'nobody'
p398
I29
sS'huh'
p399
I27
sS'wisdom'
p400
I29
sS'mmmm'
p401
I29
sS'?:)'
p402
I29
sS'part'
p403
I29
sS'thai'
p404
I19
sS'$2'
p405
I29
sS'than'
p406
I27
sS'goku'
p407
I29
sS'neck'
p408
I29
sS'loved'
p409
I29
sS'kind'
p410
I29
sS'squeaky'
p411
I29
sS'lmao'
p412
I28
sS'jam'
p413
I29
sS'double'
p414
I29
sS'gotta'
p415
I25
sS'packed'
p416
I29
sS'claim'
p417
I29
sS'r'
p418
I29
sS'silly'
p419
I28
sS'stoned'
p420
I29
sS'were'
p421
I27
sS'dang'
p422
I26
sS'wandering'
p423
I29
sS'bet'
p424
I29
sS'and'
p425
I9
sS'mountain'
p426
I29
sS'blackhawks'
p427
I28
sS'outta'
p428
I29
sS'san'
p429
I29
sS'overdosing'
p430
I29
sS'<\\3'
p431
I29
sS'correction'
p432
I29
sS'mind'
p433
I26
sS'sae'
p434
I27
sS'banging'
p435
I29
sS'tonight'
p436
I29
sS'say'
p437
I29
sS'hooping'
p438
I29
sS'have'
p439
I24
sS'need'
p440
I29
sS'"wish'
p441
I29
sS'mins'
p442
I29
sS'seek'
p443
I29
sS'lie'
p444
I29
sS'afraid'
p445
I29
sS'dishes'
p446
I29
sS'lil'
p447
I28
sS'self'
p448
I29
sS'shorts'
p449
I29
sS'-'
p450
I20
sS'moneys'
p451
I29
sS'note'
p452
I29
sS'also'
p453
I26
sS'client'
p454
I29
sS'omggg'
p455
I29
sS'take'
p456
I27
sS'which'
p457
I29
sS'nesquick'
p458
I29
sS'green'
p459
I29
sS'korean'
p460
I27
sS'home-style'
p461
I29
sS'soap'
p462
I29
sS'nivel'
p463
I29
sS'ironically'
p464
I29
sS'kiss'
p465
I29
sS'unless'
p466
I29
sS"ariana's"
p467
I29
sS'though'
p468
I29
sS'glob'
p469
I29
sS'who'
p470
I26
sS'most'
p471
I29
sS'channeling'
p472
I29
sS'x'
p473
I29
sS'nothing'
p474
I27
sS'\xe2\x80\x94'
p475
I29
sS'why'
p476
I29
sS'forever'
p477
I29
sS"30's"
p478
I29
sS'soups'
p479
I29
sS'clear'
p480
I29
sS'camp'
p481
I29
sS'upset'
p482
I29
sS'hungry'
p483
I29
sS'face'
p484
I28
sS'koran'
p485
I29
sS"you'll"
p486
I29
sS'points'
p487
I29
sS'ferrari'
p488
I29
sS'mustache'
p489
I29
sS'wine'
p490
I29
sS'huggles'
p491
I29
sS'shot'
p492
I29
sS'lotus'
p493
I29
sS'cheap'
p494
I29
sS'convos'
p495
I29
sS'pops'
p496
I29
sS'religions'
p497
I29
sS'gee)'
p498
I29
sS'radio'
p499
I29
sS'spanish'
p500
I29
sS'se'
p501
I29
sS'chicken'
p502
I29
sS'find'
p503
I29
sS'decade'
p504
I29
sS'wear'
p505
I29
sS'specifically'
p506
I29
sS'quieren'
p507
I29
sS'restaurant)'
p508
I29
sS'cousins'
p509
I29
sS'dick'
p510
I29
sS'spits'
p511
I29
sS'only'
p512
I27
sS'going'
p513
I28
sS'black'
p514
I29
sS'hockey'
p515
I29
sS'pretty'
p516
I29
sS'twins'
p517
I29
sS'rice'
p518
I28
sS'hope'
p519
I29
sS'wearing'
p520
I29
sS'do'
p521
I27
sS'hit'
p522
I29
sS'jaykillah'
p523
I29
sS'get'
p524
I22
sS'carecen'
p525
I29
sS'dope'
p526
I29
sS'de'
p527
I29
sS'coworker'
p528
I29
sS'13'
p529
I29
sS'fabrica'
p530
I29
sS'feels'
p531
I29
sS'dx'
p532
I29
sS'during'
p533
I29
sS'him'
p534
I28
sS'dustin'
p535
I29
sS'cutedom'
p536
I24
sS'reir'
p537
I29
sS'patrick.....but'
p538
I29
sS'morning'
p539
I28
sS'naked'
p540
I29
sS'bad'
p541
I28
sS'stuff'
p542
I29
sS'xdxd'
p543
I29
sS'landlord'
p544
I29
sS'hike'
p545
I29
sS"won't"
p546
I29
sS'angeles'
p547
I29
sS'cycles'
p548
I29
sS'where'
p549
I27
sS"vick's"
p550
I29
sS'cooll'
p551
I29
sS'prayers'
p552
I29
sS'w/'
p553
I27
sS'frame'
p554
I29
sS'lemonade'
p555
I29
sS'mom'
p556
I28
sS'vered'
p557
I29
sS'see'
p558
I27
sS'dumb'
p559
I29
sS'are'
p560
I25
sS'sea'
p561
I29
sS'close'
p562
I29
sS'darling<3'
p563
I29
sS'jerseys'
p564
I28
sS'best'
p565
I24
sS'shower'
p566
I29
sS'phases'
p567
I29
sS'said'
p568
I29
sS'has'
p569
I29
sS'glasses'
p570
I29
sS'movie'
p571
I28
sS'wow'
p572
I27
sS'please'
p573
I29
sS'outside'
p574
I29
sS'sonrisas'
p575
I29
sS'expo'
p576
I29
sS'incinerates'
p577
I29
sS'we'
p578
I24
sS'korea'
p579
I28
sS'amen'
p580
I29
sS'embrace'
p581
I29
sS'ocha\xe2\x80\xa6'
p582
I29
sS'boss'
p583
I29
sS'seafood'
p584
I29
sS'coffee'
p585
I29
sS'(los'
p586
I29
sS'wtf'
p587
I29
sS'group'
p588
I29
sS'breaker'
p589
I29
sS'come'
p590
I28
sS'lyrical'
p591
I29
sS'kitchen'
p592
I29
sS'both'
p593
I29
sS'manu'
p594
I29
sS'license'
p595
I29
sS'restaurant'
p596
I24
sS'many'
p597
I29
sS"wouldn't"
p598
I29
sS'hours'
p599
I29
sS'adventures'
p600
I29
sS'against'
p601
I29
sS'games'
p602
I29
sS'cod'
p603
I29
sS'faces'
p604
I29
sS'uni'
p605
I29
sS'shots'
p606
I29
sS"can't"
p607
I28
sS'ily'
p608
I28
sS'hehe'
p609
I29
sS'liked'
p610
I29
sS'bell'
p611
I29
sS'wall'
p612
I29
sS'josh'
p613
I29
sS'tuesday'
p614
I29
sS'nooool'
p615
I29
sS'community'
p616
I29
sS'nooooo'
p617
I29
sS'karen'
p618
I29
sS"couldn't"
p619
I29
sS'\xe2\x98\xae'
p620
I29
sS'kings'
p621
I26
sS'actually'
p622
I29
sS'\xe2\x98\xa4'
p623
I29
sS'runaway'
p624
I29
sS'bathroom'
p625
I29
sS'nicer'
p626
I29
sS'xcx)'
p627
I29
sS"it's"
p628
I25
sS'youuuuuu'
p629
I29
sS'bbuh'
p630
I29
sS'due'
p631
I29
sS'been'
p632
I26
sS'hitting'
p633
I29
sS'exhausted'
p634
I29
sS'much'
p635
I25
sS'damn'
p636
I27
sS'treat'
p637
I29
sS'noel'
p638
I29
sS'bbq'
p639
I27
sS'threw'
p640
I29
sS'wants'
p641
I29
sS'wonderful'
p642
I29
sS'life'
p643
I29
sS'nickel'
p644
I29
sS'gay'
p645
I29
sS'fire'
p646
I28
sS'am'
p647
I29
sS"what's"
p648
I29
sS'sooooo'
p649
I29
sS'ariana'
p650
I28
sS'else'
p651
I29
sS'hmm'
p652
I29
sS'shamelessness'
p653
I29
sS'-.-'
p654
I29
sS'bull'
p655
I25
sS'kkoo'
p656
I29
sS'spin'
p657
I29
sS'myself'
p658
I27
sS'main'
p659
I29
sS'look'
p660
I29
sS'these'
p661
I28
sS'selfie'
p662
I29
sS'straighten'
p663
I29
sS'n'
p664
I28
sS'ugly'
p665
I27
sS'while'
p666
I26
sS'overcome'
p667
I29
sS"barbie's"
p668
I29
sS'fun'
p669
I28
sS'exist'
p670
I29
sS'taking'
p671
I29
sS'showers'
p672
I29
sS'koreatown'
p673
I29
sS'played'
p674
I29
sS'almost'
p675
I28
sS'is'
p676
I10
sS'squid'
p677
I29
sS'it'
p678
I14
sS'shame'
p679
I29
sS'someone'
p680
I26
sS'im'
p681
I28
sS'in'
p682
I8
sS'id'
p683
I29
sS'if'
p684
I25
sS'different'
p685
I29
sS'bello'
p686
I29
sS'shirt'
p687
I29
sS'open'
p688
I29
sS'james'
p689
I29
sS'things'
p690
I29
sS'make'
p691
I24
sS'bowl'
p692
I29
sS'trip'
p693
I29
sS'food'
p694
I22
sS'pad'
p695
I29
sS'babies'
p696
I29
sS'9'
p697
I29
sS'party'
p698
I29
sS'week'
p699
I29
sS'used'
p700
I29
sS"bands'"
p701
I29
sS'forced'
p702
I29
sS'bonus'
p703
I29
sS'illest'
p704
I29
sS'retarded'
p705
I29
sS'munch'
p706
I29
sS'rain'
p707
I29
sS'hand'
p708
I29
sS'moment'
p709
I29
sS'purpose'
p710
I29
sS'kim'
p711
I29
sS'fucked'
p712
I29
sS'dine'
p713
I29
sS'weird'
p714
I28
sS'//'
p715
I29
sS'off'
p716
I29
sS'lunch'
p717
I29
sS'i'
p718
I3
sS'spent'
p719
I29
sS'tho'
p720
I29
sS'shadyyyyy'
p721
I29
sS'without'
p722
I29
sS'mann'
p723
I29
sS'may?)'
p724
I29
sS'y'
p725
I28
sS'genie'
p726
I29
sS'the'
p727
I2
sS'otherwise'
p728
I29
sS'corporate'
p729
I28
sS'spend'
p730
I29
sS'left'
p731
I27
sS'a-won'
p732
I24
sS'mahone'
p733
I29
sS'they'
p734
I25
sS'just'
p735
I20
sS'being'
p736
I29
sS'accurate'
p737
I29
sS'lmfaoooo'
p738
I29
sS'valuable'
p739
I29
sS'front'
p740
I29
sS'kill'
p741
I29
sS'thanks'
p742
I26
sS'world'
p743
I29
sS'followed'
p744
I29
sS'yes'
p745
I29
sS'azalea'
p746
I28
sS'hah'
p747
I29
sS'death'
p748
I28
sS'estupidez'
p749
I29
sS'mix'
p750
I29
sS'rose'
p751
I29
sS'jeff'
p752
I29
sS'had'
p753
I25
sS"summer's"
p754
I29
sS'seem'
p755
I29
sS'killed'
p756
I29
sS'blog'
p757
I29
sS'nicki'
p758
I27
sS'4'
p759
I29
sS'sweet'
p760
I29
sS'playing'
p761
I29
sS'murdaaaaa'
p762
I29
sS'around'
p763
I27
sS'kills'
p764
I29
sS"who's"
p765
I29
sS'gonna'
p766
I28
sS'early'
p767
I27
sS'game'
p768
I23
sS'five'
p769
I29
sS'know'
p770
I27
sS'listening'
p771
I28
sS'\xe2\x9d\xa5'
p772
I29
sS'using'
p773
I28
sS'bit'
p774
I29
sS'meat'
p775
I29
sS'insert'
p776
I29
sS'whatchu'
p777
I29
sS'like'
p778
I20
sS'lost'
p779
I25
sS'ahh'
p780
I29
sS'underway'
p781
I29
sS'\xe2\x9d\x82'
p782
I29
sS'true'
p783
I29
sS't'
p784
I29
sS'night'
p785
I28
sS"not\xe2\x80\xa6that's"
p786
I29
sS'adversity'
p787
I29
sS'nigga'
p788
I28
sS'old'
p789
I28
sS'home..we'
p790
I29
sS'people'
p791
I21
sS'fucking'
p792
I28
sS'twitter'
p793
I28
sS'some'
p794
I27
sS'back'
p795
I26
sS'dead'
p796
I29
sS'oh'
p797
I29
sS'hair'
p798
I29
sS'born'
p799
I29
sS'kbbq'
p800
I24
sS'mirror'
p801
I27
sS'dear'
p802
I29
sS'home'
p803
I29
sS'haaaan'
p804
I29
sS'recognition'
p805
I29
sS'humor'
p806
I29
sS'^^'
p807
I29
sS'for'
p808
I13
sS'ice'
p809
I28
sS'everything'
p810
I29
sS'prom'
p811
I29
sS'does'
p812
I29
sS'shakespeare'
p813
I29
sS'wilshire'
p814
I29
sS'be'
p815
I25
sS'\xe2\x99\xa1you'
p816
I29
sS'run'
p817
I29
sS'power'
p818
I29
sS'lmfao'
p819
I26
sS'rock'
p820
I29
sS'broken'
p821
I29
sS'post'
p822
I29
sS'by'
p823
I28
sS'on'
p824
I18
sS'about'
p825
I27
sS'oreo'
p826
I29
sS'working'
p827
I29
sS'anything'
p828
I29
sS'getting'
p829
I28
sS'jeep'
p830
I26
sS'of'
p831
I12
sS'ribs'
p832
I29
sS'favorite'
p833
I28
sS'shrimp'
p834
I29
sS'awwww'
p835
I29
sS'dinner'
p836
I26
sS'be\xe2\x80\xa6or'
p837
I29
sS'bish'
p838
I29
sS'chow'
p839
I29
sS'nooooooo'
p840
I29
sS'wanna'
p841
I25
sS'or'
p842
I27
sS'automatically'
p843
I29
sS'ppl'
p844
I29
sS'kinda'
p845
I29
sS'fan'
p846
I29
sS'pero'
p847
I29
sS'into'
p848
I29
sS'within'
p849
I29
sS'soo'
p850
I29
sS'yourself'
p851
I29
sS'down'
p852
I25
sS'rolling'
p853
I29
sS'because'
p854
I28
sS'sou'
p855
I29
sS'sweg'
p856
I29
sS'heated'
p857
I29
sS'portrayal'
p858
I29
sS'youu'
p859
I29
sS'your'
p860
I21
sS'away\xe2\x99\xa1'
p861
I29
sS'stare'
p862
I29
sS'hahahahahahahahahahahahahahhahahahahahahahahahah'
p863
I29
sS'her'
p864
I28
sS'treated'
p865
I29
sS'*gives'
p866
I29
sS'there'
p867
I29
sS'live'
p868
I29
sS'fast'
p869
I28
sS'kidding'
p870
I29
sS'gig'
p871
I29
sS'start'
p872
I29
sS'cafe'
p873
I29
sS'dropping'
p874
I29
sS"we're"
p875
I29
sS'lot'
p876
I28
sS'erikkk0001'
p877
I29
sS'call'
p878
I29
sS'passes\xe2\x80\x9d'
p879
I29
sS'was'
p880
I16
sS'war'
p881
I29
sS'happy'
p882
I26
sS'hard'
p883
I29
sS'downstairs'
p884
I29
sS'batman'
p885
I29
sS'teehee'
p886
I29
sS'6'
p887
I29
sS'jun'
p888
I29
sS'but'
p889
I23
sS'cabinet'
p890
I29
sS'verde'
p891
I29
sS'hear'
p892
I28
sS'[pic]'
p893
I29
sS'line'
p894
I28
sS'ha'
p895
I28
sS'with'
p896
I15
sS'eat'
p897
I29
sS'he'
p898
I27
sS'viva'
p899
I29
sS'devils'
p900
I29
sS'made'
p901
I27
sS'lana'
p902
I29
sS'happen'
p903
I29
sS"else's"
p904
I29
sS'angels'
p905
I29
sS'inside'
p906
I29
sS'j'
p907
I28
sS'up'
p908
I24
sS'us'
p909
I29
sS'blueberry'
p910
I29
sS'jeep)'
p911
I29
sS'catching'
p912
I29
sS'barbershop'
p913
I29
sS'woke'
p914
I29
sS'nerdy'
p915
I29
sS'daddy'
p916
I29
sS'ua'
p917
I29
sS'called'
p918
I28
sS'uber'
p919
I29
sS'gone'
p920
I29
sS'classic'
p921
I22
sS'minaj'
p922
I27
sS'moved'
p923
I29
sS'pie'
p924
I29
sS'deep'
p925
I28
sS'an'
p926
I27
sS'as'
p927
I22
sS'sentido'
p928
I29
sS'right'
p929
I29
sS'at'
p930
I16
sS'aw'
p931
I29
sS'bitch'
p932
I29
sS'babe'
p933
I29
sS'work'
p934
I29
sS'ew'
p935
I28
sS'shit'
p936
I26
sS'diego'
p937
I29
sS'nj'
p938
I29
sS'no'
p939
I24
sS'niceeee'
p940
I29
sS'when'
p941
I19
sS'event'
p942
I29
sS'slumbers'
p943
I29
sS'other'
p944
I29
sS'snapchat'
p945
I29
sS'cribo'
p946
I29
sS'you'
p947
I7
sS'really'
p948
I29
sS'nice'
p949
I29
sS'hey'
p950
I29
sS'plate'
p951
I29
sS'af'
p952
I29
sS'sae)'
p953
I29
sS'welcome'
p954
I29
sS'unoriginal'
p955
I29
sS'town'
p956
I29
sS'accounts'
p957
I29
sS'fresh'
p958
I29
sS'chris'
p959
I28
sS'song'
p960
I29
sS'friends'
p961
I29
sS'family\xe2\x80\xa6'
p962
I29
sS'perfections'
p963
I29
sS'e'
p964
I29
sS'josh."'
p965
I29
sS'calls'
p966
I29
sS'1800'
p967
I29
sS'kardashian'
p968
I29
sS'nsync'
p969
I29
sS'heats'
p970
I29
sS'time'
p971
I25
sS'husky'
p972
I29
sS'having'
p973
I25
sS'once'
p974
I29
s.