(dp0
S''
p1
I5
sS'limited'
p2
I48
sS'better"'
p3
I48
sS"sean's"
p4
I48
sS'more,90005\n389983169883021312,king_vs_god,2013-10-15'
p5
I48
sS'party"'
p6
I48
sS'sleep'
p7
I48
sS'hanging'
p8
I48
sS'6pm'
p9
I48
sS'hate'
p10
I44
sS'drinkin'
p11
I48
sS'"aw'
p12
I48
sS'buddy'
p13
I48
sS'tweet'
p14
I47
sS'under'
p15
I47
sS'lord'
p16
I48
sS'sped'
p17
I48
sS'pride'
p18
I48
sS'worth'
p19
I47
sS'02:35:30.0,34.06166096,-118.32488129,2127.02,my'
p20
I48
sS'"heaven'
p21
I48
sS'georgia'
p22
I48
sS'every'
p23
I47
sS'screaming'
p24
I48
sS'tickets'
p25
I46
sS'school'
p26
I46
sS'loneliness'
p27
I48
sS'venue'
p28
I47
sS'wednesday'
p29
I48
sS'humidity'
p30
I48
sS'popovich'
p31
I33
sS'undercover'
p32
I48
sS',90019\n481557216315461632,quantaze,2014-06-24'
p33
I48
sS'chew'
p34
I48
sS'cher'
p35
I48
sS'fabulous'
p36
I47
sS'lol,90005\n402857622857998336,king_vs_god,2013-11-19'
p37
I48
sS'air'
p38
I47
sS'others)'
p39
I44
sS'even'
p40
I44
sS'+'
p41
I48
sS'new'
p42
I37
sS'ever'
p43
I46
sS'disney'
p44
I48
sS'told'
p45
I46
sS'suoerbowl'
p46
I48
sS'never'
p47
I45
sS'(los'
p48
I17
sS'thotties,90005\n390706500211322880,king_vs_god,2013-10-17'
p49
I48
sS'met'
p50
I47
sS'studio'
p51
I47
sS"aren't"
p52
I48
sS'celebration'
p53
I46
sS'kids'
p54
I47
sS'cruise...as'
p55
I48
sS"i'd"
p56
I47
sS'smoke'
p57
I47
sS'california'
p58
I48
sS"i'm"
p59
I22
sS'jamo'
p60
I48
sS"g's"
p61
I48
sS'feelings'
p62
I48
sS'bro'
p63
I46
sS'<3'
p64
I46
sS'swings'
p65
I48
sS'thirty-something'
p66
I48
sS'would'
p67
I39
sS'hospital'
p68
I48
sS'dominicana'
p69
I48
sS'music'
p70
I48
sS"drogba's"
p71
I48
sS'type'
p72
I48
sS'tell'
p73
I48
sS'breathe'
p74
I48
sS'females'
p75
I48
sS'holy'
p76
I47
sS'successful'
p77
I45
sS'haha'
p78
I43
sS'it'
p79
I20
sS'phone'
p80
I47
sS'teaching'
p81
I48
sS'90'
p82
I48
sS'must'
p83
I47
sS'me'
p84
I13
sS"00's"
p85
I48
sS'room'
p86
I47
sS'work'
p87
I42
sS'entertained'
p88
I48
sS'whack'
p89
I48
sS'henry'
p90
I48
sS'my'
p91
I10
sS'could'
p92
I45
sS'cans'
p93
I48
sS'give'
p94
I48
sS'\xe2\x80\x98last'
p95
I48
sS'homie'
p96
I48
sS"disney's"
p97
I48
sS'keep'
p98
I41
sS'club"\xe2\x80\xa6'
p99
I48
sS'ceremony'
p100
I48
sS'end'
p101
I48
sS'thing'
p102
I41
sS'hoo'
p103
I48
sS'machine'
p104
I48
sS'how'
p105
I37
sS'hot'
p106
I44
sS'writers'
p107
I48
sS'interview'
p108
I48
sS'beach'
p109
I46
sS"doesn't"
p110
I48
sS'pizza'
p111
I48
sS'honored'
p112
I48
sS'n*word'
p113
I45
sS'after'
p114
I46
sS'wrong'
p115
I45
sS'revved'
p116
I48
sS'gibbard'
p117
I48
sS'attempt'
p118
I48
sS'chillen'
p119
I48
sS"'09"
p120
I48
sS'keeps'
p121
I47
sS'1000'
p122
I48
sS'idontknow'
p123
I48
sS'over'
p124
I43
sS'before'
p125
I45
sS'ima'
p126
I47
sS'somewhere'
p127
I48
sS'better'
p128
I45
sS'weeks'
p129
I47
sS'easier'
p130
I48
sS'then'
p131
I44
sS'them'
p132
I43
sS'safe'
p133
I48
sS"we'll"
p134
I48
sS'break'
p135
I48
sS'they'
p136
I38
sS'one'
p137
I41
sS'each'
p138
I47
sS'2008\xe2\x80\xa6'
p139
I48
sS'went'
p140
I48
sS'side'
p141
I48
sS'mean'
p142
I44
sS'tatts'
p143
I47
sS'companies'
p144
I48
sS'taught'
p145
I48
sS'hosted'
p146
I46
sS'minchin'
p147
I48
sS'rt'
p148
I48
sS'arielle'
p149
I48
sS'driving'
p150
I48
sS'god'
p151
I46
sS're'
p152
I48
sS'got'
p153
I37
sS'foundation'
p154
I48
sS"you're"
p155
I38
sS'lol,90019\n443952553554763777,king_vs_god,2014-03-13'
p156
I48
sS'little'
p157
I44
sS'free'
p158
I46
sS'yesterday'
p159
I45
sS'dodger'
p160
I48
sS'starts'
p161
I48
sS'days'
p162
I45
sS'ups'
p163
I48
sS"freddy's"
p164
I48
sS"today's"
p165
I48
sS'fuckig'
p166
I48
sS'(at'
p167
I48
sS'chopped'
p168
I48
sS'already'
p169
I42
sS',90005\n390706642670452736,king_vs_god,2013-10-17'
p170
I48
sS'grady'
p171
I48
sS'another'
p172
I43
sS'comin'
p173
I48
sS'sober'
p174
I48
sS'blunts'
p175
I48
sS'service'
p176
I48
sS'sarcasm'
p177
I48
sS'top'
p178
I46
sS'girls'
p179
I48
sS'too'
p180
I36
sS'tom'
p181
I48
sS'john'
p182
I36
sS'dogs'
p183
I48
sS'ceiling'
p184
I48
sS'hangout'
p185
I48
sS'stuffed'
p186
I48
sS'took'
p187
I47
sS'western'
p188
I48
sS'boldin'
p189
I48
sS"everyone...it's"
p190
I48
sS'coward'
p191
I48
sS'scenes'
p192
I48
sS"god's"
p193
I48
sS'together.\xe2\x80\x99'
p194
I48
sS'silly'
p195
I48
sS'friend'
p196
I48
sS'tres'
p197
I48
sS'feeling'
p198
I48
sS'bridge'
p199
I48
sS'belasario'
p200
I48
sS'stomping'
p201
I48
sS'mind'
p202
I47
sS'mine'
p203
I48
sS'ginger'
p204
I47
sS'talking'
p205
I47
sS'seen'
p206
I46
sS'seem'
p207
I47
sS'grind'
p208
I48
sS'ray'
p209
I43
sS'xodettex'
p210
I48
sS'-'
p211
I43
sS'niece'
p212
I48
sS'"black'
p213
I48
sS'y'
p214
I48
sS'mouth'
p215
I48
sS'plenty'
p216
I48
sS'glow'
p217
I48
sS'don'
p218
I46
sS'grove'
p219
I48
sS'it/he/she'
p220
I48
sS'dog'
p221
I48
sS'yours'
p222
I48
sS'freeway'
p223
I48
sS'definitely'
p224
I48
sS'annoyed'
p225
I48
sS'came'
p226
I48
sS'saying'
p227
I46
sS'bait'
p228
I48
sS'meetings'
p229
I48
sS'random'
p230
I48
sS'chandelier'
p231
I47
sS'sharks'
p232
I48
sS'judged'
p233
I47
sS'dominicanos'
p234
I48
sS'rice'
p235
I47
sS'wearing'
p236
I48
sS'do'
p237
I35
sS'dm'
p238
I48
sS'aant'
p239
I48
sS'stop'
p240
I44
sS'da'
p241
I48
sS'dx'
p242
I45
sS'wedding'
p243
I48
sS'14'
p244
I48
sS'runs'
p245
I48
sS'bag'
p246
I48
sS'bad'
p247
I43
sS'avenged'
p248
I48
sS'thanks'
p249
I41
sS'02:21:05.0,34.06168748,-118.32490541,2127.02,this'
p250
I48
sS'habit'
p251
I48
sS'guerra'
p252
I48
sS'bess'
p253
I48
sS'best'
p254
I42
sS'said'
p255
I44
sS'lots'
p256
I48
sS'away'
p257
I46
sS"there's"
p258
I48
sS'finger'
p259
I48
sS'props'
p260
I48
sS'sorts'
p261
I48
sS'we'
p262
I24
sS'omg'
p263
I47
sS'nightmares'
p264
I48
sS'here'
p265
I42
sS'wtf'
p266
I48
sS"00:23:47.0,34.05856017,-118.32436692,2127.02,let's"
p267
I48
sS'faced'
p268
I48
sS'jkjk'
p269
I48
sS'goddess'
p270
I48
sS'accident'
p271
I48
sS'disdain'
p272
I48
sS'ill'
p273
I47
sS'against'
p274
I48
sS'puffin'
p275
I48
sS'you(x'
p276
I48
sS'receives'
p277
I48
sS'asked'
p278
I48
sS'tough'
p279
I48
sS'yaas'
p280
I48
sS'matty'
p281
I48
sS'canyon'
p282
I48
sS'diff'
p283
I48
sS'asks'
p284
I48
sS'"you'
p285
I48
sS'chrome'
p286
I48
sS'three'
p287
I47
sS'been'
p288
I40
sS'much'
p289
I40
sS'stadium'
p290
I47
sS'expected'
p291
I48
sS'lovely'
p292
I47
sS'idol'
p293
I48
sS'life'
p294
I47
sS'families'
p295
I47
sS'spit'
p296
I48
sS'wilshire/crenshaw'
p297
I47
sS'personally'
p298
I48
sS'catch'
p299
I47
sS'prom\xe2\x80\x9d'
p300
I48
sS'haters'
p301
I48
sS'chill'
p302
I48
sS'vendetta'
p303
I48
sS'n'
p304
I48
sS'meetin'
p305
I48
sS'gna'
p306
I48
sS'attraverso'
p307
I48
sS'voice'
p308
I48
sS'"a'
p309
I37
sS'crowning'
p310
I48
sS'is'
p311
I17
sS'"i'
p312
I48
sS'player'
p313
I48
sS'cant'
p314
I47
sS'dizzy'
p315
I48
sS'im'
p316
I46
sS'il'
p317
I48
sS'tugged'
p318
I48
sS'in'
p319
I18
sS'united\xe2\x80\xa6'
p320
I48
sS'ig'
p321
I48
sS'if'
p322
I42
sS'memorial'
p323
I48
sS'bottles'
p324
I48
sS'philosphers'
p325
I48
sS'make'
p326
I41
sS'meetup'
p327
I48
sS'undrafted'
p328
I48
sS'showing'
p329
I48
sS'wheel'
p330
I48
sS'hang'
p331
I47
sS'tune'
p332
I48
sS'suffering'
p333
I48
sS'tho'
p334
I47
sS'contact'
p335
I48
sS'mother'
p336
I47
sS'the'
p337
I1
sS'hacen'
p338
I48
sS'howies'
p339
I48
sS'left'
p340
I48
sS'bellow'
p341
I48
sS'just'
p342
I25
sS'rn,90010\n455531157518442497,anihearts15,2014-04-14'
p343
I48
sS'photo'
p344
I47
sS'laptop'
p345
I48
sS'quotes'
p346
I48
sS'farther'
p347
I48
sS'yes'
p348
I44
sS'had'
p349
I41
sS'boston'
p350
I48
sS'innocent'
p351
I48
sS'slade'
p352
I48
sS'has'
p353
I43
sS'gave'
p354
I47
sS'!have'
p355
I48
sS'rocked\xe2\x80\xa6'
p356
I48
sS'tmrw'
p357
I48
sS'life.\xe2\x80\x9d'
p358
I48
sS'judge'
p359
I47
sS'roach'
p360
I48
sS'dreams'
p361
I48
sS'apart'
p362
I48
sS'brought'
p363
I48
sS'virginian'
p364
I48
sS'54'
p365
I48
sS'performing'
p366
I48
sS'avatar'
p367
I48
sS'night'
p368
I36
sS'right'
p369
I46
sS'old'
p370
I44
sS'rustling'
p371
I48
sS'people'
p372
I42
sS'frustrations'
p373
I48
sS'poolside'
p374
I48
sS'for'
p375
I12
sS'phenomenal'
p376
I48
sS'a\xe2\x80\xa6'
p377
I48
sS'everything'
p378
I46
sS'fog'
p379
I48
sS'umm'
p380
I48
sS'pls'
p381
I48
sS'starring'
p382
I47
sS'losing'
p383
I48
sS'post'
p384
I48
sS'super'
p385
I47
sS'buchanans'
p386
I48
sS'nerve'
p387
I48
sS'selfie'
p388
I47
sS'son'
p389
I48
sS'down'
p390
I47
sS'chedda,90005\n393419221771636736,king_vs_god,2013-10-24'
p391
I48
sS'sox'
p392
I48
sS'refined'
p393
I48
sS'class'
p394
I48
sS'stuck'
p395
I47
sS'way'
p396
I43
sS'wax'
p397
I47
sS'call'
p398
I46
sS'bound"'
p399
I48
sS'ferris'
p400
I48
sS'happy'
p401
I42
sS'head'
p402
I46
sS'6'
p403
I48
sS'bengals'
p404
I48
sS'heat'
p405
I48
sS'hear'
p406
I47
sS'true'
p407
I46
sS'congratulations'
p408
I45
sS"rey's"
p409
I48
sS'inside'
p410
I48
sS'ruined'
p411
I48
sS'16:41:37.0,34.06088996,-118.3249796,2127.02,beautiful'
p412
I48
sS'attn'
p413
I48
sS'daddy'
p414
I48
sS'\xeb\x9f\xb0\xeb\x8b\x9d\xeb\xa7\xa8'
p415
I48
sS'classic'
p416
I47
sS'hungry'
p417
I47
sS'sometime'
p418
I48
sS'trip'
p419
I48
sS'shit'
p420
I40
sS'spend'
p421
I48
sS'dying'
p422
I46
sS'floor'
p423
I48
sS'tip'
p424
I47
sS'reality'
p425
I47
sS'it.,90005\n515278666050199552,always_beckky,2014-09-25'
p426
I48
sS'tim'
p427
I48
sS'role'
p428
I48
sS'tie'
p429
I48
sS'depot'
p430
I48
sS'dies'
p431
I46
sS'welcome'
p432
I48
sS'update'
p433
I48
sS"let's"
p434
I47
sS'fell'
p435
I48
sS"'a"
p436
I48
sS'weekend'
p437
I48
sS":'(\xe2\x99\xa1"
p438
I48
sS'billion'
p439
I48
sS'together'
p440
I48
sS'beds'
p441
I48
sS'topanga'
p442
I48
sS'reception'
p443
I48
sS'time'
p444
I38
sS'paige'
p445
I48
sS'songs'
p446
I48
sS'slope'
p447
I48
sS':('
p448
I46
sS':)'
p449
I41
sS'ron'
p450
I48
sS'bombed'
p451
I48
sS'menos'
p452
I48
sS'certainly'
p453
I48
sS'yummy'
p454
I48
sS'disgusting'
p455
I48
sS':l'
p456
I48
sS'brownie'
p457
I48
sS'vegas'
p458
I48
sS'blast'
p459
I45
sS'minute'
p460
I48
sS'cool'
p461
I47
sS"b52's"
p462
I48
sS'level'
p463
I48
sS'did'
p464
I45
sS'die'
p465
I48
sS'leave'
p466
I48
sS'p'
p467
I48
sS'soooo'
p468
I47
sS'subway'
p469
I48
sS'~*this'
p470
I48
sS'unaware'
p471
I47
sS"it'll"
p472
I47
sS'regret'
p473
I48
sS'sign'
p474
I48
sS'sheeran'
p475
I48
sS'prom'
p476
I45
sS'mj'
p477
I48
sS'irritated'
p478
I48
sS'afghanistan'
p479
I48
sS'shares'
p480
I48
sS'mr'
p481
I48
sS'ridin'
p482
I48
sS'french'
p483
I48
sS'water'
p484
I48
sS'alone'
p485
I47
sS'change'
p486
I48
sS'wait'
p487
I45
sS'playing."'
p488
I48
sS'accomplished'
p489
I48
sS'boo'
p490
I48
sS'weird'
p491
I48
sS'massage'
p492
I48
sS'love'
p493
I27
sS'sevenfold'
p494
I48
sS'everybody'
p495
I48
sS'siempre'
p496
I48
sS'working'
p497
I45
sS'angry'
p498
I48
sS'visit'
p499
I47
sS'live'
p500
I48
sS'going'
p501
I40
sS'christmas"'
p502
I36
sS'ahhh'
p503
I48
sS'thru'
p504
I47
sS'angels'
p505
I48
sS'today'
p506
I20
sS'shanice'
p507
I48
sS'afford'
p508
I48
sS'chocolate'
p509
I48
sS'drown'
p510
I48
sS'everywhere'
p511
I47
sS'judgin'
p512
I48
sS'fly'
p513
I47
sS'niggas'
p514
I47
sS'car'
p515
I47
sS'rutherford'
p516
I48
sS'soul'
p517
I46
sS'wallet'
p518
I47
sS'can'
p519
I40
sS'following'
p520
I48
sS'making'
p521
I47
sS'00:38:58.0,34.06061589,-118.32504795,2127.02,red'
p522
I48
sS'unconditional'
p523
I48
sS'soundcheck'
p524
I48
sS'crazy'
p525
I46
sS'want'
p526
I39
sS'figure'
p527
I48
sS'02:42:36.0,34.06088996,-118.3249796,2127.02,i'
p528
I48
sS'awesome'
p529
I47
sS"didn't"
p530
I47
sS'fuck'
p531
I44
sS'nascar'
p532
I48
sS'heard'
p533
I48
sS'ebell\xe2\x80\xa6'
p534
I48
sS'get'
p535
I36
sS'write'
p536
I48
sS'till'
p537
I47
sS'cocktail'
p538
I48
sS'max'
p539
I48
sS'dive'
p540
I48
sS'birthday'
p541
I43
sS'mad'
p542
I48
sS'date'
p543
I48
sS'such'
p544
I47
sS'guys'
p545
I47
sS'man'
p546
I42
sS'remember'
p547
I47
sS'tbh'
p548
I48
sS'whenever'
p549
I48
sS'6th'
p550
I46
sS'so'
p551
I26
sS'african'
p552
I48
sS'single!"then'
p553
I48
sS'pulled'
p554
I48
sS'sf'
p555
I47
sS'cute'
p556
I46
sS'hightops'
p557
I48
sS'shoes'
p558
I47
sS'indeed'
p559
I48
sS'years'
p560
I47
sS'cold'
p561
I48
sS'still'
p562
I43
sS'djs'
p563
I48
sS'thank'
p564
I42
sS'the\xe2\x80\xa6'
p565
I48
sS'interesting'
p566
I48
sS'listing'
p567
I48
sS'texas'
p568
I48
sS'moms'
p569
I48
sS'bein'
p570
I48
sS'killer'
p571
I48
sS'lunch'
p572
I47
sS'half'
p573
I48
sS'not'
p574
I35
sS'now'
p575
I39
sS'hall'
p576
I48
sS'ktown'
p577
I48
sS'name'
p578
I47
sS'hancock'
p579
I48
sS'roca'
p580
I46
sS'em'
p581
I47
sS'el'
p582
I48
sS'en'
p583
I48
sS'ed'
p584
I48
sS'yeah'
p585
I43
sS'goose'
p586
I48
sS'catching'
p587
I48
sS'ex'
p588
I48
sS'year'
p589
I48
sS'girl'
p590
I48
sS'album'
p591
I48
sS'living'
p592
I47
sS'beauty'
p593
I47
sS'crazy"'
p594
I48
sS'looking'
p595
I45
sS'seriously'
p596
I45
sS'gone.,90005\n514933244542726144,nazarethzm,2014-09-25'
p597
I48
sS'shows'
p598
I48
sS'dodgers'
p599
I48
sS'romano'
p600
I46
sS'crazies'
p601
I48
sS'care'
p602
I48
sS'transition'
p603
I48
sS'turn'
p604
I46
sS'place'
p605
I45
sS'think'
p606
I45
sS'waited'
p607
I48
sS'first'
p608
I43
sS'bling'
p609
I47
sS'21:59:21.0,34.0571871,-118.3318722,2127.02,dang'
p610
I48
sS'spoken'
p611
I48
sS'yourself'
p612
I47
sS'americans'
p613
I48
sS'sounds'
p614
I48
sS'open'
p615
I48
sS'tomorrow'
p616
I46
sS"'em"
p617
I48
sS'city'
p618
I48
sS'given'
p619
I48
sS'necessarily'
p620
I48
sS'anyone'
p621
I48
sS'2'
p622
I45
sS'moisture'
p623
I48
sS'white'
p624
I47
sS'speaking'
p625
I47
sS"we're"
p626
I47
sS'evans.\xe2\x80\xa6'
p627
I48
sS'eyes'
p628
I48
sS'hug'
p629
I48
sS'that'
p630
I29
sS'thai'
p631
I48
sS'than'
p632
I47
sS"here's"
p633
I48
sS'10'
p634
I48
sS'15'
p635
I48
sS'lmao'
p636
I48
sS'was'
p637
I36
sS'gotta'
p638
I46
sS'r'
p639
I46
sS'kaskade'
p640
I48
sS'were'
p641
I46
sS'counselor'
p642
I48
sS'and'
p643
I11
sS'tasted'
p644
I48
sS'pro'
p645
I48
sS'hoes'
p646
I47
sS'turned'
p647
I48
sS'sad'
p648
I48
sS'13th'
p649
I48
sS'say'
p650
I46
sS'mates'
p651
I48
sS'saw'
p652
I47
sS'any'
p653
I46
sS'kevin'
p654
I48
sS'speakers'
p655
I48
sS'ideas'
p656
I48
sS'1000000'
p657
I48
sS'take'
p658
I43
sS'wanting'
p659
I48
sS'blunt'
p660
I48
sS'flattered'
p661
I48
sS'closer'
p662
I48
sS'05:16:47.0,34.05494843,-118.32294094,2127.02,ima'
p663
I48
sS'sure'
p664
I44
sS'theatre'
p665
I9
sS'opposite'
p666
I48
sS"beyonce's"
p667
I48
sS'cheesecake'
p668
I48
sS'knew'
p669
I48
sS'paid'
p670
I48
sS'830pm'
p671
I48
sS'02:52:06.0,34.05998994,-118.32793453,2127.02,what'
p672
I48
sS'forever'
p673
I47
sS'later'
p674
I47
sS'sale'
p675
I48
sS'senior'
p676
I48
sS'shop'
p677
I47
sS'walking'
p678
I48
sS'show'
p679
I43
sS'cheap'
p680
I48
sS'merit'
p681
I48
sS'fifth'
p682
I48
sS'\xe2\x9c\x8c'
p683
I48
sS'\xe2\x9c\x8b'
p684
I48
sS'daily'
p685
I48
sS'behind'
p686
I48
sS'03:16:55.0,34.06165451,-118.32488027,2127.02,pissing'
p687
I48
sS'only'
p688
I42
sS'wood'
p689
I48
sS'black'
p690
I46
sS'beats\xe2\x80\x9d'
p691
I48
sS"like.he's"
p692
I48
sS'jazz'
p693
I48
sS'cannot'
p694
I48
sS'gee'
p695
I48
sS'hiiiilllssssuh'
p696
I48
sS'forget."'
p697
I48
sS'krishna'
p698
I48
sS'morning'
p699
I44
sS":'("
p700
I48
sS'jokes'
p701
I48
sS'04:31:57.0,34.060636,-118.325062,2127.02,hot'
p702
I48
sS'where'
p703
I45
sS'concert'
p704
I47
sS'unmarried'
p705
I48
sS'seal'
p706
I48
sS'wonder'
p707
I47
sS'(sparkle)'
p708
I48
sS'label'
p709
I48
sS'3'
p710
I48
sS'between'
p711
I48
sS'tuskegee"'
p712
I48
sS'dome'
p713
I48
sS'awards'
p714
I48
sS'$900'
p715
I48
sS'come'
p716
I39
sS'talented'
p717
I46
sS'many'
p718
I48
sS'quiet'
p719
I48
sS'jacoby'
p720
I48
sS's'
p721
I48
sS"can't"
p722
I40
sS"chippendales'"
p723
I48
sS';\xe2\x80\xa6'
p724
I48
sS'pot'
p725
I48
sS'por'
p726
I48
sS'pop'
p727
I48
sS'65'
p728
I48
sS'comeback'
p729
I48
sS'arts'
p730
I48
sS'howard'
p731
I47
sS'west'
p732
I46
sS'vacation'
p733
I46
sS'breath'
p734
I48
sS'21:32:03.0,34.06146783,-118.32313411,2127.02,now'
p735
I48
sS'mary'
p736
I48
sS'wants'
p737
I48
sS'i\xe2\x80\xa6'
p738
I48
sS'offered'
p739
I48
sS'blessing'
p740
I48
sS'photos'
p741
I48
sS'dramatic'
p742
I48
sS'wake'
p743
I48
sS'hashtag'
p744
I48
sS'ruby'
p745
I47
sS'former'
p746
I48
sS'sound'
p747
I48
sS'myself'
p748
I47
sS'these'
p749
I44
sS'cast'
p750
I47
sS'slippery'
p751
I48
sS'50s'
p752
I48
sS'eventually'
p753
I48
sS'sleeping'
p754
I47
sS'good'
p755
I34
sS'heels'
p756
I48
sS'protein'
p757
I48
sS'everyday'
p758
I48
sS'worry'
p759
I48
sS'doctor'
p760
I48
sS'tour'
p761
I48
sS'same'
p762
I43
sS'food'
p763
I45
sS'yessir'
p764
I48
sS'reminder'
p765
I48
sS'succulents'
p766
I48
sS'week'
p767
I46
sS'driver'
p768
I47
sS'drives'
p769
I48
sS'weed'
p770
I45
sS'totally'
p771
I48
sS'theater'
p772
I29
sS'no'
p773
I36
sS'without'
p774
I48
sS'veal'
p775
I48
sS'comes'
p776
I47
sS'bottle'
p777
I47
sS'otherwise'
p778
I48
sS'scholarship'
p779
I48
sS'01:48:05.0,34.0601939,-118.32405323,2127.02,i'
p780
I48
sS'summer'
p781
I47
sS'(x'
p782
I47
sS'outdoor'
p783
I48
sS'\xe2\x98\xba\xef\xb8\x8f'
p784
I48
sS'being'
p785
I44
sS'money'
p786
I44
sS'kill'
p787
I47
sS'madness'
p788
I48
sS'blow'
p789
I48
sS'rose'
p790
I48
sS"everyone's"
p791
I48
sS'lets'
p792
I47
sS'ahhhh'
p793
I48
sS'4'
p794
I47
sS'thoughts'
p795
I48
sS'real'
p796
I42
sS'around'
p797
I45
sS'kills'
p798
I48
sS'rules'
p799
I48
sS'fridge'
p800
I48
sS'gonna'
p801
I46
sS'dark'
p802
I48
sS'simmons'
p803
I48
sS'traffic'
p804
I48
sS'listening'
p805
I48
sS'world'
p806
I46
sS'postal'
p807
I48
sS'lady'
p808
I47
sS'macarthur'
p809
I48
sS'blackberry'
p810
I48
sS'nephews'
p811
I48
sS'beverly'
p812
I48
sS'pacific'
p813
I48
sS'playin'
p814
I48
sS'snoring'
p815
I48
sS'memories'
p816
I48
sS'moon'
p817
I48
sS'tots'
p818
I48
sS'^-^'
p819
I48
sS'hustle'
p820
I48
sS'corn-hole'
p821
I48
sS'business'
p822
I46
sS'seconds'
p823
I48
sS'nails'
p824
I48
sS'fredro'
p825
I48
sS'acoustic'
p826
I48
sS'sixty'
p827
I48
sS';)'
p828
I44
sS'on'
p829
I15
sS'ok'
p830
I45
sS'22:34:51.0,34.06088996,-118.3249796,2127.02,i'
p831
I48
sS'oh'
p832
I48
sS'og'
p833
I48
sS'of'
p834
I14
sS'favorite'
p835
I45
sS'out"'
p836
I48
sS'bond'
p837
I48
sS'or'
p838
I41
sS'ladies'
p839
I48
sS'image'
p840
I48
sS'your'
p841
I37
sS'prepare'
p842
I48
sS'there'
p843
I44
sS'hey'
p844
I43
sS'lol'
p845
I40
sS'start'
p846
I46
sS'low'
p847
I48
sS'stars'
p848
I48
sS'midcity'
p849
I48
sS'valley'
p850
I48
sS'redbull'
p851
I48
sS'misss'
p852
I48
sS'complete'
p853
I48
sS'jus'
p854
I48
sS'trying'
p855
I48
sS'with'
p856
I19
sS"they're"
p857
I48
sS'rush'
p858
I48
sS'22:00:15.0,34.06165943,-118.31907541,2127.02,a'
p859
I48
sS'sadness'
p860
I47
sS'dirty'
p861
I48
sS'gone'
p862
I48
sS'videos'
p863
I48
sS'af'
p864
I48
sS'taste'
p865
I48
sS'ah'
p866
I48
sS'am'
p867
I43
sS'deep'
p868
I47
sS'fellow'
p869
I48
sS'as'
p870
I32
sS'ar'
p871
I48
sS'at'
p872
I16
sS'aw'
p873
I48
sS'girlfriend'
p874
I48
sS'-bukowski'
p875
I48
sS'again'
p876
I46
sS'nutcracker'
p877
I46
sS'tight'
p878
I48
sS'astronaut'
p879
I48
sS'you'
p880
I6
sS'a*'
p881
I48
sS"she's"
p882
I48
sS'pool'
p883
I47
sS'wife'
p884
I48
sS'u'
p885
I45
sS'alright'
p886
I48
sS':))'
p887
I48
sS'all'
p888
I32
sS'forget'
p889
I48
sS'month'
p890
I48
sS'smoking'
p891
I48
sS'carpet'
p892
I47
sS'thursday'
p893
I48
sS'to'
p894
I3
sS'smile'
p895
I48
sS'te'
p896
I48
sS'paying'
p897
I48
sS'woman'
p898
I48
sS'7'
p899
I48
sS'song'
p900
I46
sS'far'
p901
I48
sS'selfies'
p902
I48
sS'worst'
p903
I45
sS'fall'
p904
I48
sS'cable'
p905
I48
sS'guts...no'
p906
I48
sS"i'll"
p907
I46
sS'entourage'
p908
I48
sS'neighborhood'
p909
I48
sS'tea'
p910
I48
sS'ted'
p911
I48
sS'past'
p912
I48
sS'bandera'
p913
I48
sS'pass'
p914
I47
sS'what'
p915
I34
sS'section'
p916
I48
sS'emotions'
p917
I48
sS'crush'
p918
I48
sS'\xea\xb0\x91\xec\x9e\x90\xea\xb8\xb0'
p919
I48
sS'version'
p920
I47
sS'13:33:32.0,34.060636,-118.325062,2127.02,featured'
p921
I48
sS'thiiiirst-aaaye'
p922
I48
sS'relationships\xe2\x80\x9d'
p923
I48
sS'tattoos'
p924
I48
sS'full'
p925
I48
sS'yaaaaas'
p926
I48
sS'hours'
p927
I48
sS'depend'
p928
I48
sS"levi's"
p929
I48
sS'strong'
p930
I48
sS'geared'
p931
I48
sS'action'
p932
I48
sS'cathartis'
p933
I48
sS'sticking'
p934
I48
sS'via'
p935
I48
sS'followed'
p936
I48
sS'family'
p937
I48
sS"'ginger.'"
p938
I48
sS'suddenly'
p939
I48
sS'put'
p940
I48
sS'vip'
p941
I48
sS'toys'
p942
I48
sS'w/'
p943
I39
sS'eye'
p944
I48
sS'two'
p945
I46
sS'couple.\xe2\x80\xa6'
p946
I48
sS'gorgeous'
p947
I48
sS'shits'
p948
I48
sS'more'
p949
I45
sS'tryna'
p950
I48
sS'company'
p951
I48
sS'excuse'
p952
I48
sS"ain't"
p953
I48
sS'particular'
p954
I48
sS'hour'
p955
I47
sS'sucks'
p956
I48
sS"chief'n"
p957
I48
sS'\xed\x95\x9c\xea\xb5\xad'
p958
I48
sS'del'
p959
I48
sS'def'
p960
I48
sS'beautiful'
p961
I45
sS'shark'
p962
I48
sS'methodist'
p963
I48
sS'numbers'
p964
I48
sS'sense'
p965
I48
sS'rasheedaameera'
p966
I48
sS'needs'
p967
I48
sS'breaking'
p968
I47
sS'stayed'
p969
I48
sS't.i'
p970
I48
sS'okay'
p971
I46
sS'gabsteeers123'
p972
I48
sS'advice'
p973
I48
sS'lobstatruck'
p974
I48
sS'15:44:05.0,34.06088996,-118.3249796,2127.02,fantastic'
p975
I48
sS'indiest'
p976
I48
sS'plane'
p977
I48
sS'else...i'
p978
I48
sS'adventure'
p979
I48
sS'coming'
p980
I47
sS'proclaimed'
p981
I48
sS'a'
p982
I4
sS'loud'
p983
I48
sS'playing'
p984
I44
sS"that's"
p985
I43
sS'help'
p986
I48
sS"don't"
p987
I29
sS'"if'
p988
I48
sS'sooo'
p989
I48
sS'soon'
p990
I46
sS'through'
p991
I48
sS'"it'
p992
I48
sS'24'
p993
I48
sS'21'
p994
I48
sS'pray'
p995
I46
sS'actually'
p996
I48
sS'late'
p997
I48
sS'>>>'
p998
I48
sS'pch'
p999
I48
sS'bout'
p1000
I48
sS'might'
p1001
I47
sS"haven't"
p1002
I46
sS'evening'
p1003
I48
sS'somebody'
p1004
I47
sS'yo'
p1005
I48
sS'ya'
p1006
I43
sS':-)\xe2\x80\x9d'
p1007
I48
sS'speechless'
p1008
I48
sS"you've"
p1009
I45
sS'mystery'
p1010
I48
sS'wallah'
p1011
I48
sS'2p'
p1012
I48
sS'pregnant'
p1013
I48
sS'always'
p1014
I45
sS'featured'
p1015
I31
sS'payed'
p1016
I48
sS'tear'
p1017
I48
sS'someone'
p1018
I46
sS'found'
p1019
I48
sS'everyone'
p1020
I46
sS"belie'"
p1021
I48
sS'fish'
p1022
I48
sS'hard'
p1023
I48
sS'event'
p1024
I40
sS'really'
p1025
I46
sS'item'
p1026
I48
sS'since'
p1027
I46
sS"they'll"
p1028
I48
sS'highway'
p1029
I48
sS'ass'
p1030
I48
sS'dunn'
p1031
I48
sS'friday'
p1032
I47
sS'story'
p1033
I48
sS'reallll'
p1034
I48
sS'mmm'
p1035
I48
sS'ebell...kirtan'
p1036
I48
sS'reason'
p1037
I48
sS'killin'
p1038
I48
sS'ask'
p1039
I46
sS'guy'
p1040
I48
sS'\xea\xb0\x80\xea\xb3\xa0\xec\x8b\xb6\xeb\x8b\xa4'
p1041
I48
sS'launch'
p1042
I48
sS'computers'
p1043
I48
sS'american'
p1044
I47
sS'5sos'
p1045
I48
sS'weeks........work'
p1046
I48
sS'feed'
p1047
I48
sS'superbowl'
p1048
I48
sS'dont'
p1049
I48
sS'feel'
p1050
I44
sS'done'
p1051
I47
sS'pablo'
p1052
I48
sS'booty'
p1053
I48
sS'miss'
p1054
I42
sS'fearing'
p1055
I48
sS'guess'
p1056
I47
sS'hott'
p1057
I48
sS'temperature'
p1058
I48
sS'l.a'
p1059
I47
sS'least'
p1060
I48
sS'mami'
p1061
I48
sS'paint'
p1062
I48
sS'wonderful'
p1063
I48
sS'$$'
p1064
I48
sS'hotel'
p1065
I47
sS'park'
p1066
I42
sS'part'
p1067
I46
sS'05:11:37.0,34.06167022,-118.3179354,2127.02,love'
p1068
I48
sS'03:47:38.0,34.06088996,-118.3249796,2127.02,introducing'
p1069
I48
sS'believe'
p1070
I48
sS'convinced'
p1071
I48
sS'kind'
p1072
I43
sS'b'
p1073
I46
sS'skippy'
p1074
I48
sS'treated'
p1075
I48
sS'one,90005\n453373254778908673,king_vs_god,2014-04-08'
p1076
I48
sS'juice'
p1077
I48
sS'wilson'
p1078
I48
sS'nights'
p1079
I48
sS'lil'
p1080
I48
sS'self'
p1081
I48
sS'also'
p1082
I48
sS'bruja'
p1083
I48
sS'drinks'
p1084
I48
sS'play'
p1085
I48
sS'hires'
p1086
I48
sS"ariana's"
p1087
I48
sS'exec'
p1088
I48
sS'gild'
p1089
I48
sS'most'
p1090
I46
sS'goin?,90005\n402857856069672961,king_vs_god,2013-11-19'
p1091
I48
sS'plan'
p1092
I48
sS'bespokesmodels'
p1093
I48
sS'11:11'
p1094
I48
sS'windows'
p1095
I48
sS'"you\'re'
p1096
I48
sS'sometimes'
p1097
I44
sS'10am'
p1098
I48
sS'\xe2\x98\x80\xef\xb8\x8f'
p1099
I48
sS'shoutout'
p1100
I48
sS'ugh'
p1101
I48
sS'gold'
p1102
I48
sS'jared'
p1103
I48
sS'fine'
p1104
I48
sS'find'
p1105
I45
sS'rt,90005\n502495751831056384,michaelmantyla,2014-08-21'
p1106
I48
sS'16:50:26.0,34.06154489,-118.31922947,2127.02,i'
p1107
I48
sS'pretty'
p1108
I48
sS'giants'
p1109
I48
sS'his'
p1110
I44
sS'hit'
p1111
I44
sS'beyonc\xc3\xa9'
p1112
I48
sS'23:32:44.0,34.060636,-118.325062,2127.02,new'
p1113
I48
sS'bompton'
p1114
I48
sS'during'
p1115
I47
sS'reprint'
p1116
I48
sS'him'
p1117
I44
sS'typos'
p1118
I48
sS'enemy'
p1119
I48
sS'devoured'
p1120
I48
sS'cry'
p1121
I48
sS'corgi'
p1122
I48
sS'insane'
p1123
I48
sS'vino'
p1124
I48
sS'throwing'
p1125
I48
sS'who/what'
p1126
I48
sS'see'
p1127
I39
sS'dumb'
p1128
I48
sS'are'
p1129
I30
sS'close'
p1130
I48
sS'11th'
p1131
I48
sS'arm'
p1132
I48
sS'17:55:16.0,34.06166479,-118.31800854,2127.02,when'
p1133
I48
sS'visiting'
p1134
I48
sS'movie'
p1135
I47
sS'wow'
p1136
I48
sS'currently'
p1137
I48
sS'please'
p1138
I48
sS'wop'
p1139
I46
sS'woo'
p1140
I46
sS'probably'
p1141
I47
sS"other's"
p1142
I48
sS'compliment'
p1143
I48
sS'watchin'
p1144
I47
sS'korea'
p1145
I48
sS'son-for-the-day'
p1146
I48
sS'pagan'
p1147
I48
sS'both'
p1148
I46
sS'last'
p1149
I37
sS'thot'
p1150
I48
sS"wouldn't"
p1151
I47
sS'annual'
p1152
I45
sS'remembers'
p1153
I48
sS'alot'
p1154
I46
sS'04:22:31.0,34.05999057,-118.32795613,2127.02,if'
p1155
I48
sS'whole'
p1156
I46
sS'point'
p1157
I47
sS'sweet'
p1158
I46
sS'dancer'
p1159
I48
sS'02:26:21.0,34.06166073,-118.32488304,2127.02,,90010\n455532048556384256,anihearts15,2014-04-14'
p1160
I48
sS'*plays'
p1161
I48
sS'church'
p1162
I47
sS'throughout'
p1163
I48
sS'expensive'
p1164
I48
sS'devin'
p1165
I48
sS'autocorrect'
p1166
I48
sS'whos'
p1167
I48
sS'deici'
p1168
I48
sS'damn'
p1169
I46
sS'02:50:08.0,34.05998993,-118.32793427,2127.02,what'
p1170
I48
sS'javy'
p1171
I48
sS'po'
p1172
I48
sS'else'
p1173
I47
sS'awake'
p1174
I48
sS'02:35:46.0,34.06088996,-118.3249796,2127.02,premiere'
p1175
I48
sS'perrier'
p1176
I48
sS'crenshaw'
p1177
I48
sS'look'
p1178
I40
sS'straight'
p1179
I47
sS'pace'
p1180
I48
sS'while'
p1181
I47
sS'bachelors'
p1182
I48
sS'smart'
p1183
I48
sS'fun'
p1184
I43
sS'fuk'
p1185
I48
sS'pack'
p1186
I48
sS'hoping'
p1187
I48
sS'itself'
p1188
I48
sS'17:32:36.0,34.060636,-118.325062,2127.02,featured'
p1189
I48
sS'ready'
p1190
I48
sS'<-'
p1191
I48
sS'"going'
p1192
I48
sS'theatre)'
p1193
I48
sS'shirt'
p1194
I48
sS'9'
p1195
I48
sS'table."'
p1196
I48
sS'dgo'
p1197
I48
sS'holidays'
p1198
I48
sS'moment'
p1199
I46
sS'moving'
p1200
I46
sS'bitccccch'
p1201
I48
sS"might've"
p1202
I48
sS'sorelle'
p1203
I48
sS'early'
p1204
I48
sS'lowes'
p1205
I48
sS'stephanie'
p1206
I48
sS'spent'
p1207
I48
sS'picks'
p1208
I48
sS'person'
p1209
I47
sS'cheer'
p1210
I48
sS'kelly'
p1211
I48
sS'stating'
p1212
I48
sS'things'
p1213
I44
sS'>.<'
p1214
I46
sS'mom'
p1215
I46
sS'16:51:30.0,34.05933504,-118.32039739,2127.02,i'
p1216
I48
sS'cut'
p1217
I48
sS'cus'
p1218
I48
sS'cup'
p1219
I48
sS'workers'
p1220
I47
sS'rangers'
p1221
I48
sS'location'
p1222
I48
sS'omg,90010\n455522851588546560,anihearts15,2014-04-14'
p1223
I48
sS'excited'
p1224
I44
sS'surprised'
p1225
I48
sS'customers'
p1226
I48
sS'big'
p1227
I45
sS'couple'
p1228
I45
sS'fremont'
p1229
I48
sS'game'
p1230
I41
sS'cuteness'
p1231
I48
sS"pempengco's"
p1232
I48
sS'semi'
p1233
I48
sS'partying'
p1234
I48
sS'fucking'
p1235
I48
sS'swings"'
p1236
I45
sS'some'
p1237
I39
sS'back'
p1238
I40
sS'mirror'
p1239
I47
sS'rt,90005\n518241987385110528,rachelebsmith,2014-10-04'
p1240
I48
sS'pet'
p1241
I33
sS'absolutely'
p1242
I48
sS'seller'
p1243
I43
sS'\xea\xb0\x9c\xec\x9a\xb8\xea\xb0\x80\xeb\xa1\x9c'
p1244
I48
sS'08:32:47.0,34.060636,-118.325062,2127.02,featured'
p1245
I48
sS'08:32:59.0,34.060636,-118.325062,2127.02,featured'
p1246
I48
sS't'
p1247
I48
sS'be'
p1248
I23
sS'04:32:07.0,34.060636,-118.325062,2127.02,hot'
p1249
I48
sS'bb'
p1250
I48
sS'bc'
p1251
I47
sS"fuckin'"
p1252
I48
sS's/o'
p1253
I47
sS'step'
p1254
I47
sS'bp'
p1255
I48
sS'lounges'
p1256
I48
sS'2/3'
p1257
I48
sS'by'
p1258
I36
sS'faith'
p1259
I48
sS'anything'
p1260
I48
sS'wore'
p1261
I48
sS'graduation'
p1262
I47
sS'idk'
p1263
I47
sS'wanna'
p1264
I45
sS'dwight'
p1265
I48
sS'seeing'
p1266
I47
sS'grammy'
p1267
I48
sS'dude'
p1268
I48
sS'into'
p1269
I48
sS'because'
p1270
I45
sS'aliyah'
p1271
I48
sS'xoxo'
p1272
I48
sS'ca)'
p1273
I17
sS'long'
p1274
I46
sS'prettier'
p1275
I48
sS'summertime'
p1276
I45
sS'frfx/rswd'
p1277
I48
sS'bored'
p1278
I48
sS'twitter'
p1279
I48
sS'0-0'
p1280
I47
sS'episode'
p1281
I48
sS'\xe2\x99\xa5'
p1282
I48
sS'\xe2\x99\xa1'
p1283
I48
sS'erick'
p1284
I48
sS'rosemead'
p1285
I48
sS'fries'
p1286
I48
sS'up'
p1287
I31
sS'us'
p1288
I47
sS'ur'
p1289
I48
sS'un'
p1290
I48
sS'doc'
p1291
I48
sS'ud'
p1292
I48
sS'fried'
p1293
I48
sS'2-3'
p1294
I48
sS'23:16:22.0,34.05700891,-118.3334379,2127.02,our'
p1295
I48
sS'best-f'
p1296
I48
sS'chai'
p1297
I48
sS'single'
p1298
I48
sS'warning'
p1299
I48
sS'chat'
p1300
I48
sS'heeeere'
p1301
I48
sS'lemon'
p1302
I48
sS'nah'
p1303
I48
sS'peace'
p1304
I47
sS'club'
p1305
I47
sS'nice'
p1306
I47
sS'backbone'
p1307
I48
sS'sarah!,90005\n455545204850716673,anihearts15,2014-04-14'
p1308
I48
sS'remix'
p1309
I48
sS'e'
p1310
I48
sS'lana'
p1311
I48
sS'walked'
p1312
I48
sS'fresh'
p1313
I48
sS'having'
p1314
I47
sS'steve'
p1315
I48
sS'up,90019\n393419491251466240,king_vs_god,2013-10-24'
p1316
I48
sS'go'
p1317
I41
sS'ultraviolence'
p1318
I48
sS'send'
p1319
I48
sS'tequila'
p1320
I48
sS'"little'
p1321
I48
sS'putting'
p1322
I48
sS'telling'
p1323
I47
sS'drinking'
p1324
I48
sS'entire'
p1325
I48
sS'magic'
p1326
I48
sS'marry'
p1327
I48
sS'tour!\xe2\x80\xa6'
p1328
I48
sS'try'
p1329
I46
sS':)\xe2\x80\x9d'
p1330
I48
sS'someday'
p1331
I48
sS'pretend'
p1332
I48
sS'sizemore'
p1333
I48
sS"you'd"
p1334
I47
sS'lol,90005\n393419717047627776,king_vs_god,2013-10-24'
p1335
I48
sS'video'
p1336
I47
sS'booth'
p1337
I48
sS'reunion'
p1338
I48
sS'odd'
p1339
I48
sS'power'
p1340
I48
sS'chicago'
p1341
I48
sS'giving'
p1342
I48
sS'waiting'
p1343
I46
sS'anywhere'
p1344
I48
sS'ahhhhh'
p1345
I48
sS'leg'
p1346
I48
sS'commercial'
p1347
I48
sS'bachelor'
p1348
I48
sS'les'
p1349
I48
sS'let'
p1350
I46
sS'others'
p1351
I47
sS'great'
p1352
I43
sS'larger'
p1353
I48
sS'leaving'
p1354
I48
sS'makes'
p1355
I47
sS'heart'
p1356
I48
sS'throwback'
p1357
I48
sS'wit'
p1358
I48
sS'singing'
p1359
I48
sS'use'
p1360
I47
sS'from'
p1361
I41
sS'&'
p1362
I29
sS'next'
p1363
I47
sS'coldplay'
p1364
I48
sS'means'
p1365
I48
sS'hiding'
p1366
I48
sS'babe'
p1367
I44
sS'about'
p1368
I38
sS'confused'
p1369
I48
sS'sore'
p1370
I48
sS'train'
p1371
I48
sS'agent'
p1372
I48
sS'baby'
p1373
I45
sS'minions'
p1374
I48
sS'women'
p1375
I48
sS'balls'
p1376
I48
sS'this'
p1377
I21
sS'ride'
p1378
I47
sS'when'
p1379
I28
sS'donut'
p1380
I48
sS'unreal'
p1381
I48
sS'meet'
p1382
I45
sS'closing'
p1383
I48
sS'drops'
p1384
I48
sS'control'
p1385
I48
sS'kenny'
p1386
I47
sS'patron'
p1387
I46
sS'snacks'
p1388
I48
sS'high'
p1389
I48
sS'something'
p1390
I48
sS'native'
p1391
I48
sS'united'
p1392
I47
sS'memorize'
p1393
I48
sS'six'
p1394
I48
sS'cinesi-italiani'
p1395
I48
sS'instead'
p1396
I48
sS'comedy'
p1397
I30
sS'as\xe2\x80\xa6'
p1398
I48
sS'hawt'
p1399
I48
sS'attend'
p1400
I48
sS'watch'
p1401
I46
sS'waters'
p1402
I35
sS'bothered'
p1403
I48
sS'coast'
p1404
I46
sS'02:19:27.0,34.05821806,-118.32269936,2127.02,just'
p1405
I48
sS'9am'
p1406
I48
sS'chief'
p1407
I48
sS'furious'
p1408
I48
sS'16:52:24.0,34.05501243,-118.32288681,2127.02,ima'
p1409
I48
sS'producer'
p1410
I48
sS'macklemore'
p1411
I48
sS"won't"
p1412
I48
sS'looks'
p1413
I44
sS'perfect'
p1414
I47
sS'1'
p1415
I47
sS'le'
p1416
I48
sS'la'
p1417
I39
sS'lo'
p1418
I47
sS'choose'
p1419
I48
sS'covered'
p1420
I48
sS'holiday'
p1421
I48
sS'dad'
p1422
I48
sS'dam'
p1423
I48
sS'roquesa'
p1424
I47
sS'dat'
p1425
I48
sS'legendary'
p1426
I48
sS'das'
p1427
I48
sS'front'
p1428
I47
sS'day'
p1429
I40
sS"welch's"
p1430
I48
sS"night's"
p1431
I48
sS'urber'
p1432
I48
sS'\xeb\xb3\xb4\xeb\x8b\x88\xea\xb9\x8c'
p1433
I48
sS'bueno'
p1434
I48
sS'doing'
p1435
I48
sS'junkie'
p1436
I48
sS'books'
p1437
I48
sS'our'
p1438
I42
sS'huntington'
p1439
I48
sS'special'
p1440
I48
sS'out'
p1441
I31
sS'matt'
p1442
I48
sS"'"
p1443
I48
sS'entertainment'
p1444
I48
sS'nozuka'
p1445
I48
sS'cause'
p1446
I45
sS'reg'
p1447
I48
sS'red'
p1448
I46
sS'harold'
p1449
I48
sS'o.o'
p1450
I48
sS',90019\n515252413767221248,nazarethzm,2014-09-25'
p1451
I48
sS'x'
p1452
I48
sS'her'
p1453
I39
sS'zion"'
p1454
I48
sS'man,90019\n139528524376719361,pahispoika,2011-11-24'
p1455
I48
sS'scars'
p1456
I48
sS'timer'
p1457
I48
sS'times'
p1458
I47
sS'pudding'
p1459
I48
sS'keef'
p1460
I48
sS'waitress'
p1461
I48
sS'strippers'
p1462
I47
sS'evans'
p1463
I48
sS'brely'
p1464
I48
sS'fernandacamachoo\xe2\x80\xa6'
p1465
I48
sS'bitch'
p1466
I42
sS'kelly*'
p1467
I48
sS'wilshire'
p1468
I7
sS'management'
p1469
I48
sS'los'
p1470
I43
sS'their'
p1471
I46
sS'perfectly'
p1472
I48
sS'final'
p1473
I48
sS'away...or'
p1474
I48
sS'boche'
p1475
I48
sS'ogs'
p1476
I48
sS'05:11:03.0,34.06134203,-118.31916803,2127.02,i'
p1477
I48
sS'herself'
p1478
I48
sS'ben'
p1479
I48
sS'babyy'
p1480
I48
sS'boring'
p1481
I48
sS'bed'
p1482
I48
sS'maybe'
p1483
I45
sS'collecting'
p1484
I48
sS'groot"'
p1485
I48
sS'phonetically'
p1486
I48
sS"today.she's"
p1487
I48
sS'partnership'
p1488
I48
sS'wilshire\xe2\x80\xa6'
p1489
I47
sS'tonight'
p1490
I42
sS'have'
p1491
I25
sS'need'
p1492
I40
sS'brandonbaemusic'
p1493
I48
sS'able'
p1494
I47
sS'parks'
p1495
I48
sS'meeting'
p1496
I48
sS'brand'
p1497
I48
sS';-)'
p1498
I48
sS'who'
p1499
I45
sS'future'
p1500
I48
sS'why'
p1501
I41
sS'lmao!\xe2\x80\xa6'
p1502
I48
sS"you'll"
p1503
I48
sS'hi'
p1504
I47
sS'02:24:38.0,34.06169112,-118.32496208,2127.02,i'
p1505
I48
sS'ho'
p1506
I48
sS'08:33:18.0,34.060636,-118.325062,2127.02,featured'
p1507
I48
sS'15:04:57.0,34.06088996,-118.3249796,2127.02,definitely'
p1508
I48
sS'dba'
p1509
I48
sS'text'
p1510
I48
sS'dije'
p1511
I48
sS'12p'
p1512
I48
sS'bring'
p1513
I47
sS'03:31:32.0,34.0598663,-118.32755095,2127.02,happy'
p1514
I48
sS'utter'
p1515
I48
sS'pleased'
p1516
I48
sS'wear'
p1517
I48
sS'editing'
p1518
I48
sS'echan'
p1519
I48
sS'"appearance"'
p1520
I48
sS'should'
p1521
I47
sS'score'
p1522
I47
sS'hope'
p1523
I48
sS'\xeb\x86\x80\xeb\x9f\xac'
p1524
I48
sS'irmsfosho'
p1525
I48
sS'b\xe2\x80\xa6'
p1526
I48
sS'watching'
p1527
I46
sS'dope'
p1528
I48
sS'coworker'
p1529
I48
sS'bear'
p1530
I48
sS'joint'
p1531
I48
sS'words'
p1532
I48
sS'consecutive'
p1533
I48
sS'places'
p1534
I48
sS'stuff'
p1535
I48
sS'she'
p1536
I45
sS"arsenio's"
p1537
I48
sS"-dad's"
p1538
I48
sS',90010\n455532482331299840,anihearts15,2014-04-14'
p1539
I48
sS'lattimore'
p1540
I47
sS'favor'
p1541
I48
sS'nominees'
p1542
I48
sS'ken'
p1543
I48
sS'importance'
p1544
I48
sS'job'
p1545
I48
sS'staring'
p1546
I47
sS'hits'
p1547
I48
sS'empathy'
p1548
I48
sS'joke'
p1549
I48
sS'invited'
p1550
I48
sS',90019\n287416162390798336,goldstarie,2013-01-05'
p1551
I48
sS'passing'
p1552
I48
sS'grounds'
p1553
I48
sS'apple?\xe2\x80\x9d'
p1554
I48
sS'co'
p1555
I48
sS'pageant"'
p1556
I48
sS'cc'
p1557
I48
sS'denim'
p1558
I48
sS'walk'
p1559
I47
sS'table'
p1560
I48
sS'yay'
p1561
I48
sS"it's"
p1562
I39
sS'cheez-its'
p1563
I48
sS'slowly'
p1564
I48
sS'bbq'
p1565
I48
sS'general'
p1566
I48
sS'hmm'
p1567
I47
sS'-.-'
p1568
I46
sS'2014'
p1569
I48
sS'blazer'
p1570
I48
sS'an'
p1571
I45
sS'inn'
p1572
I48
sS'will'
p1573
I41
sS'stunning'
p1574
I47
sS'hahaha'
p1575
I45
sS'~'
p1576
I48
sS'almost'
p1577
I48
sS'blood'
p1578
I48
sS'ay'
p1579
I48
sS'partner'
p1580
I48
sS'moves'
p1581
I48
sS'party'
p1582
I42
sS'gets'
p1583
I46
sS'ball'
p1584
I48
sS'drink'
p1585
I48
sS'functions'
p1586
I48
sS'ebell'
p1587
I8
sS'fucked'
p1588
I48
sS'dayam'
p1589
I48
sS'lickin'
p1590
I48
sS'warming'
p1591
I48
sS'//'
p1592
I48
sS'off'
p1593
I45
sS'i'
p1594
I2
sS'well'
p1595
I41
sS'fighting'
p1596
I48
sS'english'
p1597
I48
sS'taller'
p1598
I48
sS'maggot'
p1599
I48
sS'happiness'
p1600
I48
sS'headed'
p1601
I48
sS'bullshit'
p1602
I48
sS'add'
p1603
I48
sS'book'
p1604
I48
sS'07:12:07.0,34.06172128,-118.32175337,2127.02,la'
p1605
I48
sS'kick'
p1606
I48
sS'-bukoswki'
p1607
I48
sS"who's"
p1608
I47
sS'know'
p1609
I36
sS'taking'
p1610
I46
sS'doughnut'
p1611
I48
sS'like'
p1612
I25
sS'lost'
p1613
I48
sS'loses'
p1614
I48
sS'fattie'
p1615
I48
sS'lose'
p1616
I46
sS'jealous,90010\n455534784874180608,anihearts15,2014-04-14'
p1617
I48
sS'shed'
p1618
I48
sS'nigga'
p1619
I47
sS'scared'
p1620
I48
sS'((x'
p1621
I47
sS'hair'
p1622
I48
sS'kollaboration'
p1623
I48
sS'home'
p1624
I39
sS'20:48:18.0,34.06088996,-118.3249796,2127.02,custom'
p1625
I48
sS'dunes'
p1626
I48
sS'literally'
p1627
I47
sS'does'
p1628
I47
sS'eso'
p1629
I48
sS'earrings'
p1630
I48
sS':-p'
p1631
I47
sS'stage'
p1632
I46
sS'sister'
p1633
I47
sS'justin'
p1634
I48
sS'getting'
p1635
I45
sS'shaking'
p1636
I48
sS'angeles'
p1637
I14
sS'retro!"'
p1638
I48
sS'lifeeeee'
p1639
I48
sS'own'
p1640
I48
sS'pussy'
p1641
I47
sS'washington'
p1642
I48
sS'weather'
p1643
I47
sS'artists'
p1644
I48
sS'yankee'
p1645
I48
sS'pa'
p1646
I48
sS'laredo'
p1647
I48
sS'buy'
p1648
I45
sS"i've"
p1649
I45
sS'bus'
p1650
I46
sS'08:32:23.0,34.060636,-118.325062,2127.02,featured'
p1651
I48
sS'damm'
p1652
I48
sS'but'
p1653
I31
sS'delivery'
p1654
I48
sS'strawberries'
p1655
I47
sS'goals'
p1656
I48
sS'hm'
p1657
I48
sS'ha'
p1658
I48
sS'eat'
p1659
I45
sS'he'
p1660
I42
sS'glory'
p1661
I48
sS'wish'
p1662
I46
sS'hosting'
p1663
I48
sS'signed'
p1664
I48
sS'convince'
p1665
I48
sS'dmv'
p1666
I48
sS'\xc2\xbf'
p1667
I48
sS'display'
p1668
I47
sS'pin'
p1669
I48
sS'deaths'
p1670
I48
sS'maury'
p1671
I48
sS'universal'
p1672
I48
sS'pic'
p1673
I48
sS'beats'
p1674
I48
sS'goodness'
p1675
I48
sS'shooting'
p1676
I47
sS'hurtinnnnnnn'
p1677
I48
sS'jesse'
p1678
I48
sS'folio'
p1679
I48
sS'other'
p1680
I47
sS'boom'
p1681
I48
sS'ponytail'
p1682
I48
sS'star'
p1683
I47
sS'monday'
p1684
I48
sS'"nutcracker'
p1685
I48
sS'kinda'
p1686
I47
sS'friends'
p1687
I47
sS'samsung'
p1688
I48
sS'baker'
p1689
I48
sS'"the'
p1690
I43
s.