(dp0
S''
p1
I6
sS'yellow'
p2
I41
sS'four'
p3
I41
sS'sleep'
p4
I33
sS'hanging'
p5
I41
sS'hate'
p6
I40
sS'up*'
p7
I41
sS'bike'
p8
I41
sS'under'
p9
I41
sS'sorry'
p10
I41
sS'pride'
p11
I41
sS'worth'
p12
I41
sS'risk'
p13
I41
sS'every'
p14
I40
sS'school'
p15
I40
sS'heading'
p16
I41
sS'enjoy'
p17
I41
sS'leaders'
p18
I41
sS'tired'
p19
I40
sS'talks'
p20
I41
sS'street'
p21
I40
sS'sailed'
p22
I41
sS'westcoast'
p23
I41
sS'others)'
p24
I41
sS'even'
p25
I34
sS'christ'
p26
I41
sS'integrity'
p27
I41
sS'fingers'
p28
I41
sS'new'
p29
I35
sS'ever'
p30
I39
sS'discrimination'
p31
I41
sS'housewarming'
p32
I41
sS'zach'
p33
I41
sS'pancakes'
p34
I41
sS'never'
p35
I38
sS'here'
p36
I38
sS'\xe2\x9d\xa4\xef\xb8\x8f'
p37
I41
sS'/heroes'
p38
I41
sS"aren't"
p39
I41
sS'106'
p40
I41
sS'dry'
p41
I41
sS'kids'
p42
I41
sS'daughter'
p43
I40
sS'stevie'
p44
I41
sS"i'd"
p45
I41
sS"i'm"
p46
I14
sS'twittersphere'
p47
I41
sS'criticism'
p48
I41
sS'bro'
p49
I41
sS'would'
p50
I38
sS"world's"
p51
I41
sS'call'
p52
I36
sS'tell'
p53
I41
sS'brings'
p54
I41
sS'haha'
p55
I39
sS'hurt'
p56
I41
sS'glass'
p57
I41
sS'warm'
p58
I41
sS'hold'
p59
I41
sS'me'
p60
I16
sS'work'
p61
I34
sS'brookledge'
p62
I41
sS'movies'
p63
I41
sS'locker'
p64
I41
sS'ms'
p65
I41
sS'exhale'
p66
I41
sS'root'
p67
I41
sS'example'
p68
I41
sS't\xcc\xb6h\xcc\xb6e\xcc\xb6m\xcc\xb6'
p69
I41
sS'give'
p70
I38
sS'homie'
p71
I41
sS'want'
p72
I36
sS'keep'
p73
I40
sS'absolute'
p74
I41
sS'end'
p75
I41
sS'thing'
p76
I39
sS'how'
p77
I21
sS'hop'
p78
I41
sS'answer'
p79
I40
sS'gate'
p80
I41
sS'beach'
p81
I41
sS'beauty'
p82
I40
sS'funny'
p83
I39
sS'bday'
p84
I41
sS'after'
p85
I39
sS'wrong'
p86
I40
sS'lax'
p87
I41
sS'chilled'
p88
I41
sS'wine'
p89
I41
sS'wut'
p90
I41
sS'over'
p91
I40
sS'london'
p92
I41
sS'oven'
p93
I41
sS'mayor'
p94
I41
sS'before'
p95
I39
sS'somewhere'
p96
I41
sS'crew'
p97
I41
sS'better'
p98
I35
sS'weeks'
p99
I41
sS'easier'
p100
I41
sS'then'
p101
I40
sS'them'
p102
I33
sS'bang'
p103
I41
sS'they'
p104
I30
sS'one'
p105
I26
sS'alex'
p106
I41
sS'debut'
p107
I41
sS'slavery'
p108
I41
sS'choir'
p109
I41
sS'each'
p110
I41
sS'debug'
p111
I41
sS'went'
p112
I40
sS'meal'
p113
I41
sS'mean'
p114
I41
sS'knockout'
p115
I41
sS'list'
p116
I40
sS'dawg'
p117
I40
sS"we'd"
p118
I41
sS'forgot'
p119
I41
sS'saturday'
p120
I41
sS'rt'
p121
I31
sS'driving'
p122
I41
sS'ombe'
p123
I41
sS'god'
p124
I40
sS'hooked'
p125
I41
sS'strangers'
p126
I41
sS'nite'
p127
I40
sS'smh'
p128
I36
sS'got'
p129
I26
sS'day"'
p130
I41
sS'*sinks'
p131
I41
sS"you're"
p132
I38
sS'free'
p133
I41
sS'crowner'
p134
I41
sS'masterpiece'
p135
I41
sS'wanted'
p136
I41
sS'heat'
p137
I39
sS'days'
p138
I33
sS'(at'
p139
I41
sS'already'
p140
I40
sS'hoop'
p141
I41
sS'hearing'
p142
I41
sS'delicious'
p143
I41
sS'basketball'
p144
I41
sS'top'
p145
I38
sS'tow'
p146
I41
sS'heights'
p147
I41
sS'compromise'
p148
I41
sS'too'
p149
I36
sS'hollywood'
p150
I39
sS'listen'
p151
I41
sS'murder'
p152
I41
sS'gym'
p153
I40
sS'"tool?"'
p154
I41
sS'boarding'
p155
I41
sS'hike'
p156
I41
sS'tree'
p157
I41
sS'project'
p158
I41
sS'don\xe2\x80\x99t'
p159
I41
sS'friend'
p160
I39
sS'feeling'
p161
I38
sS'modern'
p162
I41
sS'mind'
p163
I41
sS'raw'
p164
I41
sS'rap'
p165
I40
sS'seen'
p166
I41
sS'seem'
p167
I40
sS'tells'
p168
I41
sS'regretting'
p169
I41
sS'harper'
p170
I41
sS'caff\xc3\xa8'
p171
I41
sS'-'
p172
I31
sS'hoody'
p173
I41
sS'edge'
p174
I41
sS'though'
p175
I41
sS'morality'
p176
I41
sS'episode'
p177
I41
sS'definitely'
p178
I41
sS'boyfriends'
p179
I41
sS'came'
p180
I39
sS'saying'
p181
I41
sS'bomb'
p182
I41
sS'contacted'
p183
I41
sS'random'
p184
I41
sS'ending'
p185
I41
sS'chandelier'
p186
I41
sS'enjoyed'
p187
I41
sS'clicker'
p188
I41
sS'flyest'
p189
I41
sS'5-way'
p190
I41
sS'monica'
p191
I41
sS'sunglasses'
p192
I41
sS'godzilla'
p193
I41
sS'stop'
p194
I40
sS'amazon'
p195
I41
sS'du'
p196
I41
sS'peyton'
p197
I41
sS'bar'
p198
I41
sS'bay'
p199
I41
sS'bad'
p200
I39
sS'w/'
p201
I40
sS'goodnight'
p202
I41
sS'best'
p203
I36
sS'pete'
p204
I41
sS'said'
p205
I41
sS'away'
p206
I39
sS'rings'
p207
I41
sS'grandmother'
p208
I41
sS"there's"
p209
I38
sS'olympics'
p210
I41
sS'shaver'
p211
I41
sS'handwritten'
p212
I41
sS'we'
p213
I30
sS'men'
p214
I40
sS'omg'
p215
I36
sS'future?"'
p216
I41
sS'same-day'
p217
I41
sS'(los'
p218
I40
sS'news'
p219
I40
sS'improve'
p220
I40
sS'country'
p221
I41
sS'ill'
p222
I41
sS'planned'
p223
I40
sS'asked'
p224
I41
sS'ily'
p225
I41
sS'-__-'
p226
I41
sS'georgeous'
p227
I41
sS'been'
p228
I30
sS'much'
p229
I36
sS'threw'
p230
I41
sS'life'
p231
I37
sS'drugs'
p232
I41
sS'chile'
p233
I41
sS'child'
p234
I40
sS'catch'
p235
I40
sS'worked'
p236
I41
sS'quietest'
p237
I41
sS'east'
p238
I40
sS'n'
p239
I30
sS'stopping'
p240
I41
sS'is'
p241
I9
sS'it'
p242
I14
sS'ik'
p243
I41
sS'.you'
p244
I41
sS'im'
p245
I38
sS'in'
p246
I7
sS'mouse'
p247
I41
sS'if'
p248
I35
sS'staxx'
p249
I41
sS'descent'
p250
I41
sS'nike'
p251
I41
sS'things'
p252
I39
sS'make'
p253
I37
sS'rain'
p254
I40
sS'kin'
p255
I41
sS'opportunity'
p256
I41
sS'"who'
p257
I41
sS'thoughts'
p258
I40
sS'thx'
p259
I40
sS'socool'
p260
I41
sS'tho'
p261
I36
sS'pandora'
p262
I41
sS'floating'
p263
I41
sS'the'
p264
I1
sS'yeh'
p265
I41
sS'just'
p266
I19
sS'yea'
p267
I39
sS'photo'
p268
I41
sS'goodtimes'
p269
I41
sS'thanks'
p270
I39
sS'facts'
p271
I41
sS'yes'
p272
I37
sS'mid-wilshire'
p273
I41
sS'hills'
p274
I41
sS'had'
p275
I32
sS'shout'
p276
I41
sS'twcable'
p277
I41
sS'save'
p278
I41
sS's\xc3\xb3'
p279
I41
sS'gave'
p280
I40
sS'casting'
p281
I41
sS'awhile'
p282
I41
sS'possibly'
p283
I41
sS'background'
p284
I41
sS'judge'
p285
I41
sS'dreams'
p286
I41
sS'apart'
p287
I41
sS'night'
p288
I36
sS'right'
p289
I32
sS'old'
p290
I41
sS'people'
p291
I37
sS'dead'
p292
I41
sS'jennifer'
p293
I41
sS'born'
p294
I41
sS'doorstep'
p295
I41
sS'for'
p296
I13
sS'comments'
p297
I41
sS'creative'
p298
I40
sS'everything'
p299
I39
sS'umm'
p300
I41
sS'blink-182'
p301
I41
sS'christmas'
p302
I40
sS'geez'
p303
I41
sS'marketing'
p304
I41
sS'pose'
p305
I41
sS'dinner'
p306
I40
sS'plus'
p307
I41
sS'afternoon'
p308
I41
sS'twitcon'
p309
I41
sS'two'
p310
I38
sS'down'
p311
I34
sS'lies'
p312
I41
sS'why'
p313
I41
sS'stuck'
p314
I41
sS'way'
p315
I36
sS'music'
p316
I39
sS'was'
p317
I26
sS'happy'
p318
I36
sS'head'
p319
I41
sS'creation'
p320
I41
sS'6'
p321
I41
sS'raye>>>'
p322
I41
sS'true'
p323
I39
sS'inside'
p324
I41
sS'epps'
p325
I41
sS'proud'
p326
I40
sS'stronger'
p327
I41
sS'expertise'
p328
I41
sS'ship'
p329
I41
sS'widows'
p330
I41
sS'check'
p331
I40
sS'shit'
p332
I41
sS'no'
p333
I35
sS'when'
p334
I33
sS'power'
p335
I41
sS'interested'
p336
I41
sS'role'
p337
I41
sS'holding'
p338
I41
sS'test'
p339
I41
sS'portals'
p340
I41
sS'smell'
p341
I41
sS'roll'
p342
I41
sS'picture'
p343
I41
sS"'s"
p344
I39
sS'models'
p345
I41
sS'welcome'
p346
I41
sS'update'
p347
I41
sS'diet'
p348
I41
sS"let's"
p349
I40
sS'hahahahahaa'
p350
I41
sS'fell'
p351
I41
sS'weekend'
p352
I39
sS'died'
p353
I41
sS'longer'
p354
I40
sS'g.d.p'
p355
I41
sS'together'
p356
I40
sS'time'
p357
I31
sS':('
p358
I37
sS':)'
p359
I24
sS'skip'
p360
I41
sS".jackie's"
p361
I41
sS'father'
p362
I41
sS'finally'
p363
I35
sS'glad'
p364
I37
sS'followin'
p365
I41
sS'downloading'
p366
I41
sS'icing'
p367
I41
sS'advantage'
p368
I41
sS'choice'
p369
I41
sS"bae's"
p370
I41
sS'anonymous'
p371
I41
sS'cook'
p372
I41
sS'cool'
p373
I38
sS'did'
p374
I34
sS'die'
p375
I41
sS'brother'
p376
I40
sS'leave'
p377
I40
sS'team'
p378
I41
sS'guy'
p379
I39
sS'olympic'
p380
I40
sS'talked'
p381
I41
sS'regret'
p382
I41
sS'sign'
p383
I40
sS'invaded'
p384
I41
sS'run'
p385
I40
sS'jeopardy'
p386
I41
sS'bc'
p387
I41
sS'shares'
p388
I41
sS'reply'
p389
I41
sS'wordcamp'
p390
I41
sS'laker'
p391
I41
sS'downloaded'
p392
I41
sS'change'
p393
I41
sS'wait'
p394
I38
sS'box'
p395
I41
sS'boy'
p396
I41
sS'my'
p397
I8
sS'lakers'
p398
I41
sS'usually'
p399
I41
sS'weird'
p400
I41
sS'lmfaoooo'
p401
I41
sS'love'
p402
I25
sS'jolt'
p403
I41
sS'mindshare'
p404
I40
sS'fake'
p405
I41
sS'working'
p406
I37
sS'prove'
p407
I41
sS'perk'
p408
I41
sS'positive'
p409
I41
sS'dude'
p410
I41
sS'only'
p411
I37
sS'ca)'
p412
I40
sS'iphone'
p413
I41
sS'wondering'
p414
I41
sS'thru'
p415
I40
sS'angels'
p416
I40
sS'today'
p417
I27
sS'loving'
p418
I40
sS'sharing'
p419
I40
sS'club'
p420
I41
sS'ooh'
p421
I41
sS'chocolate'
p422
I41
sS'\xe2\x9d\xa4\xef\xb8\x8f\xe2\x9d\xa4\xef\xb8\x8f'
p423
I41
sS'ibm'
p424
I39
sS'niggas'
p425
I41
sS'car'
p426
I41
sS'soul'
p427
I40
sS'cao'
p428
I41
sS'can'
p429
I35
sS'growing'
p430
I41
sS'making'
p431
I41
sS'heart'
p432
I41
sS'crazy'
p433
I41
sS'hears'
p434
I41
sS'awesome'
p435
I36
sS"didn't"
p436
I41
sS'fuck'
p437
I37
sS'agent'
p438
I41
sS'dropped'
p439
I41
sS'productive'
p440
I41
sS'write'
p441
I41
sS'till'
p442
I41
sS'sunday'
p443
I40
sS'vancouver'
p444
I41
sS'nyc'
p445
I41
sS'algo'
p446
I41
sS'staying'
p447
I41
sS'may'
p448
I40
sS'birthday'
p449
I39
sS'mad'
p450
I41
sS'date'
p451
I41
sS'grow'
p452
I40
sS'man'
p453
I33
sS'surfing'
p454
I40
sS'remember'
p455
I41
sS'maybe'
p456
I40
sS'blastin'
p457
I41
sS'so'
p458
I20
sS'sc'
p459
I41
sS'talk'
p460
I38
sS'ended'
p461
I41
sS'gizzzzzllllleeeeee'
p462
I41
sS'cold'
p463
I38
sS'still'
p464
I31
sS'group'
p465
I41
sS'thank'
p466
I29
sS"he's"
p467
I41
sS'interesting'
p468
I39
sS'window'
p469
I41
sS'offers'
p470
I41
sS'tweets'
p471
I41
sS'main'
p472
I41
sS'lonely'
p473
I40
sS'3'
p474
I38
sS'moms'
p475
I41
sS'conversations'
p476
I41
sS'interview'
p477
I38
sS'not'
p478
I29
sS'now'
p479
I29
sS'killed'
p480
I40
sS'name'
p481
I40
sS'clutch'
p482
I41
sS'hancock'
p483
I39
sS'cuentes'
p484
I41
sS'entirely'
p485
I41
sS'domain'
p486
I41
sS'ed'
p487
I41
sS'goose'
p488
I41
sS'ex'
p489
I41
sS'year'
p490
I41
sS'girl'
p491
I40
sS'ep'
p492
I41
sS'er'
p493
I41
sS'album'
p494
I40
sS'living'
p495
I41
sS'accomplish'
p496
I41
sS'3rd'
p497
I41
sS'"objective'
p498
I41
sS'looking'
p499
I36
sS'replacing'
p500
I41
sS'seriously'
p501
I40
sS'internet'
p502
I40
sS'correct'
p503
I41
sS'shows'
p504
I41
sS'complicated'
p505
I41
sS'besides'
p506
I41
sS'marina'
p507
I41
sS'care'
p508
I41
sS'mansions"'
p509
I41
sS'training'
p510
I41
sS'yup'
p511
I41
sS'headphones'
p512
I40
sS'turn'
p513
I41
sS'place'
p514
I41
sS'yess'
p515
I41
sS'think'
p516
I38
sS'first'
p517
I41
sS'cheese'
p518
I41
sS'revenue'
p519
I41
sS'yourself'
p520
I40
sS'fast'
p521
I41
sS'ring'
p522
I40
sS'tomorrow'
p523
I37
sS'little'
p524
I39
sS'"brick'
p525
I41
sS'anyone'
p526
I41
sS'2'
p527
I38
sS'fuelband'
p528
I41
sS'williams'
p529
I41
sS'eyes'
p530
I40
sS'that'
p531
I15
sS'moscow'
p532
I41
sS"men's"
p533
I41
sS'cops'
p534
I41
sS'than'
p535
I38
sS'11'
p536
I41
sS'wide'
p537
I41
sS'13'
p538
I41
sS'lmao'
p539
I40
sS'16'
p540
I41
sS'gotta'
p541
I38
sS'ruuuuuuuude'
p542
I41
sS'terrance'
p543
I41
sS'were'
p544
I40
sS'and'
p545
I12
sS'san'
p546
I40
sS'stilllll'
p547
I41
sS'sad'
p548
I39
sS'say'
p549
I38
sS'rent'
p550
I41
sS'breakfast'
p551
I41
sS'saw'
p552
I41
sS'any'
p553
I40
sS'kevin'
p554
I40
sS'bailed'
p555
I41
sS'take'
p556
I37
sS'pain'
p557
I41
sS'theatre'
p558
I41
sS'arguing'
p559
I41
sS'sherman'
p560
I41
sS'falls'
p561
I41
sS'forever'
p562
I41
sS'phil'
p563
I41
sS'drive'
p564
I40
sS'something"'
p565
I41
sS'shop'
p566
I41
sS'perch'
p567
I41
sS'shot'
p568
I41
sS'show'
p569
I39
sS'corner'
p570
I41
sS'\xe2\x9c\x8b'
p571
I41
sS'daily'
p572
I40
sS'enough'
p573
I41
sS'to\xe2\x80\xa6'
p574
I41
sS'tears'
p575
I41
sS'going'
p576
I37
sS'black'
p577
I38
sS'"free'
p578
I41
sS'get'
p579
I25
sS'freezing'
p580
I41
sS'beefs.\xe2\x80\x9d'
p581
I41
sS'monde'
p582
I41
sS'cannot'
p583
I41
sS'gen'
p584
I41
sS'comeeeee'
p585
I41
sS'frolicking'
p586
I41
sS'settings'
p587
I41
sS'malaysian'
p588
I41
sS'morning'
p589
I18
sS'jokes'
p590
I41
sS'scott'
p591
I41
sS'where'
p592
I38
sS'xmas'
p593
I40
sS"y'all"
p594
I39
sS'6.1'
p595
I41
sS'espn'
p596
I41
sS'seat'
p597
I40
sS'connections'
p598
I39
sS'parking'
p599
I41
sS'wonder'
p600
I41
sS'outside'
p601
I41
sS'reading'
p602
I41
sS'screen'
p603
I40
sS'awards'
p604
I41
sS'singers'
p605
I41
sS'come'
p606
I39
sS'talented'
p607
I41
sS'many'
p608
I39
sS"can't"
p609
I29
sS'stream'
p610
I41
sS'ants'
p611
I41
sS"couldn't"
p612
I41
sS'howard'
p613
I41
sS'west'
p614
I41
sS'mark'
p615
I41
sS'billionaires'
p616
I41
sS'cords'
p617
I41
sS'shopping'
p618
I41
sS'wake'
p619
I41
sS'those'
p620
I40
sS'paying'
p621
I41
sS'myself'
p622
I41
sS'ciphers'
p623
I41
sS'developing'
p624
I41
sS'these'
p625
I39
sS'knowwwww'
p626
I41
sS'stacker'
p627
I41
sS'cancelled'
p628
I41
sS'landslide'
p629
I41
sS'punches'
p630
I41
sS'favorite"'
p631
I41
sS'engaged'
p632
I41
sS'coffee'
p633
I39
sS'kppc'
p634
I41
sS'sleeping'
p635
I41
sS'middle'
p636
I41
sS'someone'
p637
I38
sS'everyday'
p638
I41
sS'different'
p639
I41
sS'pay'
p640
I40
sS'same'
p641
I40
sS'trip'
p642
I41
sS'food'
p643
I40
sS'followers'
p644
I41
sS'catfish'
p645
I41
sS'yessir'
p646
I41
sS'events'
p647
I41
sS'pan'
p648
I41
sS'week'
p649
I35
sS'oil'
p650
I41
sS'disadvantages'
p651
I41
sS'running'
p652
I41
sS'uhh'
p653
I41
sS'tenho'
p654
I41
sS'comes'
p655
I41
sS'bottle'
p656
I41
sS'model'
p657
I41
sS'nah'
p658
I41
sS'being'
p659
I35
sS'money'
p660
I39
sS'rest'
p661
I35
sS'wifey'
p662
I41
sS'style)'
p663
I41
sS'til'
p664
I41
sS'legitimately'
p665
I41
sS'thinking'
p666
I41
sS"we've"
p667
I40
sS'seems'
p668
I40
sS'leto'
p669
I41
sS'4'
p670
I40
sS'struck'
p671
I41
sS'real'
p672
I41
sS'starving'
p673
I41
sS'around'
p674
I37
sS'kills'
p675
I41
sS'read'
p676
I41
sS'gonna'
p677
I38
sS'early'
p678
I41
sS'np'
p679
I41
sS'listening'
p680
I41
sS'using'
p681
I41
sS'homeroom'
p682
I41
sS"'ve"
p683
I41
sS'audience'
p684
I41
sS'either'
p685
I41
sS'beverly'
p686
I41
sS'attempting'
p687
I41
sS'pacific'
p688
I41
sS'mood'
p689
I40
sS'confirm'
p690
I41
sS'nooo'
p691
I41
sS'doggy'
p692
I41
sS'felt'
p693
I41
sS'wheat'
p694
I41
sS'business'
p695
I41
sS'eat24'
p696
I41
sS'communicate'
p697
I41
sS';)'
p698
I41
sS'throw'
p699
I41
sS'on'
p700
I11
sS'ok'
p701
I40
sS'oh'
p702
I38
sS'of'
p703
I10
sS'favorite'
p704
I40
sS'side'
p705
I41
sS'journey'
p706
I41
sS'stand'
p707
I40
sS"it's"
p708
I23
sS'or'
p709
I33
sS'road'
p710
I41
sS"critics'"
p711
I41
sS'lands'
p712
I41
sS'2nite'
p713
I41
sS'your'
p714
I22
sS"how's"
p715
I40
sS'her'
p716
I37
sS'area'
p717
I41
sS'vh1'
p718
I41
sS'hey'
p719
I31
sS'lol'
p720
I21
sS'start'
p721
I39
sS'lot'
p722
I36
sS'thanks:))'
p723
I41
sS'mornings'
p724
I41
sS'complete'
p725
I41
sS'helicopter'
p726
I41
sS"cole's"
p727
I41
sS'with'
p728
I18
sS'hire'
p729
I41
sS'bucket'
p730
I41
sS'tellin'
p731
I41
sS'taught'
p732
I41
sS'gone'
p733
I41
sS'af'
p734
I41
sS'am'
p735
I38
sS'an'
p736
I32
sS'as'
p737
I38
sS'at'
p738
I20
sS'ay'
p739
I41
sS'4.5'
p740
I40
sS'again'
p741
I39
sS'yoga'
p742
I41
sS'deserve'
p743
I41
sS'hybrid'
p744
I41
sS'field'
p745
I41
sS'5'
p746
I41
sS'you'
p747
I5
sS'trash'
p748
I41
sS'karma'
p749
I41
sS'poor'
p750
I41
sS'finale'
p751
I41
sS'track'
p752
I41
sS'napier'
p753
I41
sS"she's"
p754
I40
sS'pagpasensyahan'
p755
I41
sS'calls'
p756
I41
sS'clowning'
p757
I41
sS'directors'
p758
I41
sS'u'
p759
I24
sS'missouri'
p760
I41
sS'all'
p761
I32
sS'washed'
p762
I41
sS'dollar'
p763
I41
sS'month'
p764
I41
sS'taquitos'
p765
I41
sS'dish'
p766
I41
sS'follow'
p767
I41
sS'children'
p768
I41
sS'(in'
p769
I41
sS'kutcher'
p770
I41
sS'tv'
p771
I41
sS'subjected'
p772
I41
sS'thursday'
p773
I41
sS'to'
p774
I2
sS'smile'
p775
I41
sS'presentation'
p776
I41
sS'very'
p777
I38
sS'horror'
p778
I41
sS'fat'
p779
I41
sS'worst'
p780
I41
sS'fam'
p781
I40
sS'treating'
p782
I41
sS'heaven'
p783
I41
sS'itscoo'
p784
I41
sS'thaaaat'
p785
I41
sS'laying'
p786
I40
sS'baiiiiiiiiiiiiii'
p787
I41
sS'small'
p788
I40
sS'lisa'
p789
I40
sS"i'll"
p790
I40
sS'ass'
p791
I39
sS'neighborhood'
p792
I41
sS'fence'
p793
I41
sS'appearance'
p794
I41
sS'wannnnaaaaa'
p795
I41
sS'streets'
p796
I41
sS'ted'
p797
I41
sS'cash'
p798
I40
sS'past'
p799
I40
sS'pass'
p800
I40
sS'what'
p801
I29
sS'sun'
p802
I40
sS'version'
p803
I40
sS'vamos'
p804
I41
sS'full'
p805
I40
sS'hours'
p806
I41
sS'strong'
p807
I41
sS'ahead'
p808
I41
sS'inspired'
p809
I41
sS'jackie'
p810
I41
sS'milkshake'
p811
I41
sS'misery'
p812
I41
sS'skids'
p813
I41
sS'via'
p814
I33
sS'family'
p815
I40
sS'africa'
p816
I41
sS'put'
p817
I41
sS'lusa'
p818
I41
sS'twc'
p819
I41
sS'takes'
p820
I41
sS'destination'
p821
I41
sS'charge'
p822
I41
sS'splash'
p823
I41
sS'gorgeous'
p824
I37
sS'taken'
p825
I41
sS'more'
p826
I37
sS'company'
p827
I41
sS'gentleman'
p828
I41
sS"ain't"
p829
I39
sS'basically'
p830
I41
sS'broke'
p831
I41
sS'negativity'
p832
I41
sS'hoopin'
p833
I41
sS'keeping'
p834
I41
sS'sucks'
p835
I41
sS'del'
p836
I41
sS'learn'
p837
I40
sS'sucka'
p838
I41
sS'history'
p839
I41
sS'beautiful'
p840
I36
sS'suggestions'
p841
I41
sS"'96"
p842
I41
sS'numbers'
p843
I41
sS'dress'
p844
I41
sS'influenced'
p845
I41
sS'awkward'
p846
I41
sS'stayed'
p847
I41
sS'punked'
p848
I41
sS'cast\xe2\x80\xa6'
p849
I41
sS'plans'
p850
I41
sS'connectivity'
p851
I41
sS'plane'
p852
I41
sS'mad/sad'
p853
I41
sS'coming'
p854
I40
sS'response'
p855
I41
sS'a'
p856
I4
sS'short'
p857
I41
sS"that'd"
p858
I41
sS'django'
p859
I41
sS'slacking'
p860
I41
sS'lunchable'
p861
I41
sS'shade'
p862
I41
sS'putting'
p863
I41
sS'dream'
p864
I39
sS"that's"
p865
I40
sS'chicks'
p866
I41
sS'here\xe2\x80\x9d'
p867
I41
sS"don't"
p868
I31
sS'soon'
p869
I41
sS'through'
p870
I40
sS'hell'
p871
I41
sS'avenue'
p872
I41
sS'its'
p873
I41
sS'20'
p874
I41
sS'22'
p875
I41
sS'actually'
p876
I40
sS'late'
p877
I40
sS'bout'
p878
I40
sS'soccer'
p879
I41
sS'might'
p880
I41
sS"haven't"
p881
I41
sS'colleague'
p882
I41
sS'good'
p883
I17
sS'somebody'
p884
I41
sS'disrespectful'
p885
I41
sS'ya'
p886
I40
sS'clippers'
p887
I41
sS'mystery'
p888
I41
sS'always'
p889
I37
sS'drake'
p890
I40
sS'bless'
p891
I39
sS"isn't"
p892
I40
sS'everyone'
p893
I40
sS'another'
p894
I37
sS'house'
p895
I40
sS'hard'
p896
I39
sS'connect'
p897
I41
sS'beyond'
p898
I41
sS'really'
p899
I36
sS'missed'
p900
I41
sS'<<<'
p901
I41
sS'since'
p902
I39
sS'hill'
p903
I41
sS'print'
p904
I41
sS'benjamin'
p905
I41
sS'lawrence'
p906
I41
sS'disagree'
p907
I41
sS'friday'
p908
I37
sS'reallll'
p909
I41
sS'mmm'
p910
I41
sS'houses'
p911
I40
sS"lolit's"
p912
I41
sS'ask'
p913
I41
sS'terrible'
p914
I41
sS'american'
p915
I40
sS'dont'
p916
I41
sS'feel'
p917
I40
sS'pork'
p918
I41
sS'sisters'
p919
I41
sS'done'
p920
I40
sS'hangs'
p921
I41
sS'miss'
p922
I38
sS'story'
p923
I39
sS'"'
p924
I41
sS'interviews'
p925
I40
sS'least'
p926
I41
sS'station'
p927
I41
sS'banana'
p928
I41
sS'store'
p929
I40
sS'option'
p930
I41
sS'para'
p931
I41
sS'park'
p932
I37
sS'immediate'
p933
I41
sS'part'
p934
I39
sS'1-800'
p935
I41
sS'focusing'
p936
I41
sS'king'
p937
I41
sS'kind'
p938
I39
sS'tardies'
p939
I41
sS'double'
p940
I41
sS'grey'
p941
I41
sS'deciding'
p942
I41
sS'motivation'
p943
I41
sS'wasnt'
p944
I41
sS'sell'
p945
I41
sS'speaking'
p946
I41
sS'lil'
p947
I41
sS'self'
p948
I41
sS'also'
p949
I41
sS'play'
p950
I41
sS'electric'
p951
I41
sS'caddyshack'
p952
I41
sS'shareholder'
p953
I41
sS'plan'
p954
I41
sS's02e11'
p955
I41
sS'wive'
p956
I41
sS'nothing'
p957
I41
sS'clemente'
p958
I41
sS'sometimes'
p959
I41
sS'km'
p960
I41
sS'\xe2\x98\x80\xef\xb8\x8f'
p961
I41
sS'usual'
p962
I41
sS'physics'
p963
I41
sS'session'
p964
I41
sS'jared'
p965
I41
sS'find'
p966
I37
sS'distributed'
p967
I41
sS'dysfunctional'
p968
I41
sS'hip'
p969
I41
sS'begins'
p970
I41
sS'his'
p971
I38
sS'hit'
p972
I38
sS'grocery'
p973
I41
sS'feels'
p974
I41
sS'during'
p975
I41
sS'him'
p976
I38
sS'enemy'
p977
I41
sS'x'
p978
I41
sS'river'
p979
I41
sS'set'
p980
I39
sS'art'
p981
I41
sS'achieved'
p982
I41
sS'byron'
p983
I41
sS'jada'
p984
I41
sS'manning'
p985
I41
sS'see'
p986
I36
sS'are'
p987
I32
sS'close'
p988
I41
sS'2.0'
p989
I41
sS'retweet'
p990
I41
sS'visiting'
p991
I41
sS'movie'
p992
I39
sS'positivity'
p993
I41
sS'currently'
p994
I41
sS'please'
p995
I41
sS'nope'
p996
I41
sS'available'
p997
I41
sS'missing'
p998
I41
sS'attention'
p999
I41
sS'outfit'
p1000
I41
sS'both'
p1001
I39
sS'last'
p1002
I36
sS"wouldn't"
p1003
I41
sS'barely'
p1004
I41
sS'became'
p1005
I41
sS'whole'
p1006
I41
sS'upgraded'
p1007
I40
sS'thxxx'
p1008
I41
sS'point'
p1009
I40
sS'swerve'
p1010
I41
sS'community'
p1011
I41
sS'sing'
p1012
I41
sS'dizer'
p1013
I41
sS'duh'
p1014
I41
sS'creativity'
p1015
I37
sS'damn'
p1016
I38
sS'pg'
p1017
I41
sS'brick'
p1018
I41
sS'woke'
p1019
I40
sS'gay'
p1020
I39
sS'fire'
p1021
I41
sS"what's"
p1022
I36
sS'awake'
p1023
I41
sS'whitney'
p1024
I41
sS'gag'
p1025
I41
sS'look'
p1026
I40
sS'menance'
p1027
I40
sS'talking'
p1028
I40
sS'solid'
p1029
I41
sS'while'
p1030
I35
sS'shift'
p1031
I41
sS'twitcons'
p1032
I41
sS'<3'
p1033
I40
sS'rip'
p1034
I40
sS'hoax'
p1035
I41
sS'itself'
p1036
I41
sS'ready'
p1037
I40
sS'\xe2\x99\xa5\xe2\x99\xa5\xe2\x99\xa5'
p1038
I41
sS'shirt'
p1039
I41
sS'anymore'
p1040
I40
sS'butcher'
p1041
I41
sS'used'
p1042
I40
sS'holidays'
p1043
I40
sS'moment'
p1044
I41
sS'nights'
p1045
I41
sS'moving'
p1046
I41
sS'necessity'
p1047
I41
sS"madea's"
p1048
I40
sS'yeeuuuh'
p1049
I41
sS'person'
p1050
I40
sS'bbwla'
p1051
I41
sS'riiiiide'
p1052
I41
sS'mom'
p1053
I40
sS'world'
p1054
I37
sS'praying'
p1055
I41
sS'letting'
p1056
I41
sS'$'
p1057
I41
sS'readers'
p1058
I41
sS'cuz'
p1059
I41
sS'homeland'
p1060
I41
sS'excited'
p1061
I40
sS'hater'
p1062
I41
sS'it........lol'
p1063
I41
sS'big'
p1064
I39
sS'showing'
p1065
I39
sS'oft-discovered'
p1066
I41
sS'game'
p1067
I41
sS'biz'
p1068
I40
sS'bit'
p1069
I41
sS'message'
p1070
I41
sS'polls/surveys'
p1071
I41
sS'popular'
p1072
I41
sS'google'
p1073
I40
sS'often'
p1074
I41
sS'fucking'
p1075
I36
sS'1st'
p1076
I41
sS'some'
p1077
I34
sS'back'
p1078
I32
sS'streaming'
p1079
I41
sS'3.2'
p1080
I41
sS'curious'
p1081
I41
sS'delivered'
p1082
I41
sS'\xe2\x96\xb8'
p1083
I39
sS'per'
p1084
I41
sS'connecting'
p1085
I41
sS'pee'
p1086
I41
sS'dating'
p1087
I41
sS'be'
p1088
I16
sS'eating'
p1089
I40
sS'skyla'
p1090
I41
sS'gmat'
p1091
I41
sS'cge'
p1092
I41
sS'costumes'
p1093
I41
sS's/o'
p1094
I40
sS'bk'
p1095
I41
sS'step'
p1096
I41
sS'santa'
p1097
I41
sS'caron'
p1098
I41
sS'bx'
p1099
I41
sS'by'
p1100
I33
sS'faith'
p1101
I41
sS'usa'
p1102
I39
sS'anything'
p1103
I41
sS'most'
p1104
I38
sS'idk'
p1105
I41
sS'shins'
p1106
I41
sS'wanna'
p1107
I39
sS'jimmy'
p1108
I41
sS'into'
p1109
I40
sS'doubters'
p1110
I41
sS'spending'
p1111
I41
sS'murrieta'
p1112
I41
sS'question'
p1113
I41
sS'live'
p1114
I41
sS'long'
p1115
I38
sS'forward'
p1116
I39
sS'bored'
p1117
I40
sS'twitter'
p1118
I40
sS'plunge'
p1119
I41
sS'boys'
p1120
I41
sS'mcclure'
p1121
I41
sS'tvs'
p1122
I41
sS'embarassed'
p1123
I41
sS'\xe2\x99\xa5'
p1124
I41
sS'drinkers'
p1125
I41
sS'up'
p1126
I18
sS'us'
p1127
I39
sS'ur'
p1128
I39
sS'longwood'
p1129
I40
sS'mature'
p1130
I41
sS'uber'
p1131
I41
sS'ordered'
p1132
I40
sS'tyrese'
p1133
I40
sS'associates'
p1134
I41
sS'tara'
p1135
I41
sS'actors'
p1136
I41
sS'naw'
p1137
I41
sS'latavia'
p1138
I41
sS'nice'
p1139
I39
sS'meals'
p1140
I41
sS'ago'
p1141
I40
sS'vick'
p1142
I41
sS'admiring'
p1143
I41
sS'hella'
p1144
I41
sS'2007'
p1145
I41
sS'walker'
p1146
I41
sS'ashton'
p1147
I41
sS'having'
p1148
I39
sS'once'
p1149
I41
sS'katt'
p1150
I41
sS'windy'
p1151
I41
sS'go'
p1152
I32
sS'chillin'
p1153
I40
sS'issues'
p1154
I41
sS'hiv+'
p1155
I41
sS'j.cole'
p1156
I41
sS'young'
p1157
I41
sS'send'
p1158
I39
sS'chaps'
p1159
I41
sS'hiv/aids'
p1160
I41
sS'queen'
p1161
I40
sS'kitty'
p1162
I41
sS'wave'
p1163
I41
sS'facebook'
p1164
I40
sS'entire'
p1165
I41
sS'knight'
p1166
I41
sS'michael'
p1167
I41
sS"they've"
p1168
I41
sS'try'
p1169
I41
sS'rack'
p1170
I41
sS"you'd"
p1171
I39
sS'video'
p1172
I40
sS'transformers'
p1173
I41
sS'sweats'
p1174
I41
sS'week\xe2\x80\x99s'
p1175
I41
sS'waiting'
p1176
I40
sS'experiment'
p1177
I41
sS'14yrs'
p1178
I41
sS'---->'
p1179
I41
sS'following'
p1180
I41
sS'let'
p1181
I40
sS'others'
p1182
I41
sS'sexy'
p1183
I39
sS'great'
p1184
I38
sS'30'
p1185
I37
sS'later'
p1186
I39
sS'opinion'
p1187
I41
sS'honor'
p1188
I41
sS'win'
p1189
I41
sS'app'
p1190
I41
sS'\xcc\xb6just'
p1191
I41
sS'clout'
p1192
I41
sS'singing'
p1193
I41
sS'from'
p1194
I33
sS'figure'
p1195
I41
sS'snoop'
p1196
I41
sS'&'
p1197
I31
sS'doodle'
p1198
I41
sS'next'
p1199
I41
sS'cheeky'
p1200
I41
sS'butler'
p1201
I41
sS'clever'
p1202
I41
sS'baby'
p1203
I38
sS'rare'
p1204
I41
sS'announcing'
p1205
I41
sS'this'
p1206
I15
sS'ride'
p1207
I41
sS'clients'
p1208
I41
sS'crossed'
p1209
I41
sS'do'
p1210
I35
sS'halloween'
p1211
I41
sS'high'
p1212
I40
sS'pulling'
p1213
I41
sS'something'
p1214
I40
sS'hensley'
p1215
I41
sS'vibe'
p1216
I41
sS'brian'
p1217
I41
sS'airline'
p1218
I41
sS'watch'
p1219
I39
sS'notebook'
p1220
I41
sS"somethin'"
p1221
I41
sS'ermagherd'
p1222
I41
sS'marylin'
p1223
I41
sS'highlands'
p1224
I41
sS'robot'
p1225
I41
sS'allow'
p1226
I41
sS"mmmmm's"
p1227
I41
sS'ladies'
p1228
I41
sS"won't"
p1229
I41
sS'quake'
p1230
I41
sS'badger'
p1231
I41
sS'la'
p1232
I35
sS'meantime'
p1233
I41
sS'holiday'
p1234
I40
sS'dad'
p1235
I41
sS'auto'
p1236
I41
sS'material'
p1237
I41
sS'mention'
p1238
I41
sS'kiss'
p1239
I41
sS'ifr1'
p1240
I41
sS'day'
p1241
I25
sS'billy'
p1242
I41
sS'slide'
p1243
I41
sS'truth'
p1244
I40
sS'shaking'
p1245
I41
sS'doing'
p1246
I32
sS'society'
p1247
I40
sS'jagged'
p1248
I41
sS'our'
p1249
I37
sS'special'
p1250
I41
sS'out'
p1251
I21
sS'rey'
p1252
I41
sS'we\xe2\x80\x99re'
p1253
I41
sS'cause'
p1254
I40
sS'red'
p1255
I41
sS'shut'
p1256
I40
sS'promptly'
p1257
I41
sS'completely'
p1258
I38
sS'que'
p1259
I41
sS'could'
p1260
I35
sS'times'
p1261
I41
sS'4th'
p1262
I41
sS'pudding'
p1263
I41
sS'davis'
p1264
I41
sS'powerful'
p1265
I41
sS'scene'
p1266
I41
sS'jesus'
p1267
I41
sS'"no"'
p1268
I41
sS'bitch'
p1269
I41
sS'mknight'
p1270
I41
sS"doesn't"
p1271
I41
sS'sadly'
p1272
I41
sS'los'
p1273
I38
sS'their'
p1274
I40
sS'final'
p1275
I40
sS'bledsoe'
p1276
I41
sS'stomach'
p1277
I41
sS'annette'
p1278
I41
sS'ipad'
p1279
I39
sS'loved'
p1280
I40
sS'bed'
p1281
I41
sS'1.0'
p1282
I41
sS'spelled'
p1283
I41
sS'tonight'
p1284
I40
sS'have'
p1285
I28
sS'need'
p1286
I33
sS'congrats'
p1287
I40
sS'studying'
p1288
I40
sS'able'
p1289
I41
sS'uncalled'
p1290
I41
sS'which'
p1291
I41
sS'jail'
p1292
I41
sS'asshole'
p1293
I41
sS'='
p1294
I41
sS'aww'
p1295
I41
sS'who'
p1296
I41
sS'negril'
p1297
I41
sS'parenting'
p1298
I41
sS'cracking'
p1299
I41
sS'class'
p1300
I41
sS'eachother'
p1301
I41
sS'request'
p1302
I41
sS'brea'
p1303
I39
sS'face'
p1304
I41
sS'skinny'
p1305
I41
sS'wow'
p1306
I37
sS'son'
p1307
I41
sS'text'
p1308
I41
sS'scotty'
p1309
I41
sS'planning'
p1310
I40
sS'highlands)'
p1311
I41
sS'trying'
p1312
I37
sS'('
p1313
I38
sS'should'
p1314
I38
sS'hope'
p1315
I39
sS'watching'
p1316
I35
sS'beat'
p1317
I40
sS'dope'
p1318
I41
sS'overall'
p1319
I41
sS'lucky'
p1320
I41
sS'tbh'
p1321
I41
sS'bean'
p1322
I41
sS'words'
p1323
I40
sS'brain'
p1324
I41
sS'teams'
p1325
I41
sS'she'
p1326
I34
sS'btw'
p1327
I40
sS'j'
p1328
I41
sS'frame'
p1329
I41
sS'edition'
p1330
I41
sS'closer'
p1331
I41
sS'has'
p1332
I36
sS'progress'
p1333
I41
sS'neither'
p1334
I41
sS'joy'
p1335
I41
sS'kicking'
p1336
I39
sS'job'
p1337
I38
sS'shittiest'
p1338
I41
sS'key'
p1339
I41
sS'2pm'
p1340
I41
sS'mcconaughey'
p1341
I41
sS'acknowledge'
p1342
I41
sS'bronx'
p1343
I41
sS'highland'
p1344
I40
sS'comment'
p1345
I41
sS'wall'
p1346
I41
sS'tuesday'
p1347
I41
sS'walk'
p1348
I41
sS'laugh'
p1349
I41
sS'respect'
p1350
I41
sS'mafia'
p1351
I41
sS'cw'
p1352
I41
sS'addition'
p1353
I41
sS'decent'
p1354
I41
sS'treat'
p1355
I41
sS'>'
p1356
I40
sS':;((((('
p1357
I41
sS'mike'
p1358
I40
sS'moved'
p1359
I41
sS'general'
p1360
I39
sS'vanilla'
p1361
I41
sS'harder'
p1362
I41
sS'value'
p1363
I41
sS'will'
p1364
I38
sS'owns'
p1365
I41
sS'wild'
p1366
I41
sS've'
p1367
I41
sS'lolol'
p1368
I41
sS'vs'
p1369
I40
sS'diggins'
p1370
I41
sS'-___-'
p1371
I41
sS')'
p1372
I40
sS'cross'
p1373
I41
sS'eric'
p1374
I41
sS'matthew'
p1375
I41
sS'digging'
p1376
I41
sS'party'
p1377
I40
sS'gets'
p1378
I40
sS'iker'
p1379
I41
sS'ios'
p1380
I41
sS'fucked'
p1381
I40
sS'off'
p1382
I40
sS'i'
p1383
I3
sS'well'
p1384
I36
sS'thought'
p1385
I39
sS'english'
p1386
I41
sS'latest'
p1387
I40
sS'moments'
p1388
I41
sS'paul'
p1389
I41
sS'lauren'
p1390
I41
sS'nicks'
p1391
I41
sS'headed'
p1392
I41
sS'discuss'
p1393
I41
sS'drew'
p1394
I41
sS'add'
p1395
I41
sS'book'
p1396
I41
sS'attractive'
p1397
I41
sS'ohhh'
p1398
I41
sS'details'
p1399
I41
sS'resolved'
p1400
I41
sS'gods'
p1401
I41
sS'checking'
p1402
I40
sS'know'
p1403
I37
sS'like'
p1404
I25
sS'lost'
p1405
I39
sS'"reply'
p1406
I41
sS'become'
p1407
I41
sS'because'
p1408
I39
sS'scared'
p1409
I39
sS'church'
p1410
I40
sS'growth'
p1411
I41
sS'home'
p1412
I33
sS'empire'
p1413
I41
sS'literally'
p1414
I40
sS'twerking'
p1415
I41
sS'stage'
p1416
I40
sS'about'
p1417
I33
sS'actual'
p1418
I41
sS'extension'
p1419
I41
sS'getting'
p1420
I39
sS'follies'
p1421
I41
sS'introduces'
p1422
I41
sS'angeles'
p1423
I35
sS'blessings'
p1424
I41
sS'introduced'
p1425
I41
sS'software'
p1426
I41
sS'own'
p1427
I40
sS'fresh'
p1428
I41
sS'errands'
p1429
I41
sS'guard'
p1430
I41
sS'weather'
p1431
I41
sS'female'
p1432
I41
sS'mississippi'
p1433
I41
sS'apps'
p1434
I41
sS'delusions'
p1435
I41
sS'biggest'
p1436
I41
sS'yrs'
p1437
I41
sS"i've"
p1438
I39
sS'brand'
p1439
I41
sS'sequel'
p1440
I41
sS'hw'
p1441
I41
sS'but'
p1442
I22
sS'delivery'
p1443
I40
sS'goals'
p1444
I40
sS'key!\xe2\x80\xa6'
p1445
I41
sS'eat'
p1446
I41
sS'he'
p1447
I36
sS'count'
p1448
I41
sS'made'
p1449
I40
sS'whether'
p1450
I41
sS'wish'
p1451
I39
sS'official'
p1452
I41
sS'smooth'
p1453
I41
sS'stories'
p1454
I39
sS'problem'
p1455
I41
sS'piece'
p1456
I40
sS'nike+'
p1457
I41
sS'lahigh'
p1458
I41
sS'shooting'
p1459
I40
sS'happen'
p1460
I40
sS'diego'
p1461
I41
sS'mutual'
p1462
I41
sS'other'
p1463
I39
sS'popping'
p1464
I41
sS'reckless'
p1465
I41
sS'repeat'
p1466
I41
sS'monday'
p1467
I41
sS'chance'
p1468
I41
sS'kinda'
p1469
I41
sS'badass'
p1470
I41
sS'friends'
p1471
I41
sS'\xe2\x80\x94'
p1472
I41
sS'donnovan'
p1473
I41
sS'understand'
p1474
I41
sS'"the'
p1475
I41
s.