(dp0
S''
p1
I9
sS'raining'
p2
I42
sS'yellow'
p3
I42
sS'four'
p4
I42
sS'sleep'
p5
I37
sS'hate'
p6
I42
sS'tweet'
p7
I42
sS'lord'
p8
I42
sS'sorry'
p9
I42
sS'pride'
p10
I42
sS'worth'
p11
I40
sS'shaving'
p12
I42
sS'rescue'
p13
I42
sS'every'
p14
I39
sS'bringing'
p15
I42
sS'school'
p16
I38
sS'supports'
p17
I42
sS'deplorable'
p18
I42
sS'enjoy'
p19
I42
sS"roscoe's"
p20
I42
sS'tired'
p21
I38
sS'10e'
p22
I42
sS'tires'
p23
I42
sS'even'
p24
I40
sS'+'
p25
I42
sS'new'
p26
I39
sS'net'
p27
I42
sS'ever'
p28
I40
sS'told'
p29
I42
sS'screams'
p30
I42
sS'never'
p31
I38
sS'here'
p32
I36
sS'metaphorically'
p33
I42
sS'\xe2\x9d\xa4\xef\xb8\x8f'
p34
I42
sS'dorm'
p35
I42
sS"aren't"
p36
I41
sS'kids'
p37
I42
sS'jams'
p38
I42
sS'changed'
p39
I41
sS'golds'
p40
I42
sS'credit'
p41
I41
sS'crap'
p42
I41
sS"i'd"
p43
I41
sS'smoke'
p44
I40
sS"i'm"
p45
I1
sS'dre'
p46
I42
sS'track!!\xe2\x80\x9d'
p47
I42
sS'bro'
p48
I41
sS'pull-ups200'
p49
I42
sS'slating'
p50
I42
sS'9p'
p51
I42
sS'counts'
p52
I42
sS'total'
p53
I42
sS'would'
p54
I38
sS'cali'
p55
I42
sS'music'
p56
I37
sS'calm'
p57
I41
sS'recommend'
p58
I42
sS'preview'
p59
I42
sS'until'
p60
I41
sS'holy'
p61
I41
sS'relax'
p62
I42
sS'haha'
p63
I39
sS'"i'
p64
I41
sS'91'
p65
I42
sS'birthdayyyyy'
p66
I42
sS'hola'
p67
I42
sS'must'
p68
I42
sS'me'
p69
I19
sS'mf'
p70
I42
sS'locked'
p71
I42
sS'1994'
p72
I42
sS'work'
p73
I34
sS'mi'
p74
I42
sS'movies'
p75
I42
sS'ms'
p76
I42
sS'my'
p77
I12
sS'freeway))'
p78
I40
sS'give'
p79
I42
sS'foods'
p80
I41
sS'mornin'
p81
I42
sS'want'
p82
I38
sS'keep'
p83
I36
sS'hoe'
p84
I42
sS'end'
p85
I42
sS'recovery'
p86
I42
sS'fraaaaan'
p87
I42
sS'travel'
p88
I42
sS'around"'
p89
I42
sS'how'
p90
I34
sS'hot'
p91
I42
sS'hop'
p92
I42
sS'answer'
p93
I42
sS'nombre'
p94
I42
sS'ordinary'
p95
I42
sS'beach'
p96
I42
sS'pizza'
p97
I42
sS'preachin'
p98
I42
sS'beauty'
p99
I42
sS'after'
p100
I38
sS'ultimate'
p101
I42
sS'keeps'
p102
I42
sS'order'
p103
I42
sS'allowed:(('
p104
I42
sS'over'
p105
I38
sS'ma\xc3\xb1ana'
p106
I42
sS'windshield'
p107
I42
sS'before'
p108
I42
sS'ima'
p109
I41
sS'venti'
p110
I42
sS'writing'
p111
I42
sS'better'
p112
I41
sS'then'
p113
I39
sS'them'
p114
I37
sS'workout'
p115
I42
sS':()'
p116
I42
sS'bang'
p117
I41
sS'penetration'
p118
I42
sS'they'
p119
I32
sS'meat'
p120
I42
sS'ewwww'
p121
I42
sS'l'
p122
I42
sS'went'
p123
I41
sS'briana'
p124
I42
sS'side'
p125
I41
sS'mean'
p126
I42
sS'forgot'
p127
I41
sS'saturday'
p128
I41
sS'whip'
p129
I42
sS'rt'
p130
I41
sS'gon'
p131
I42
sS'driving'
p132
I42
sS'god'
p133
I40
sS'got'
p134
I35
sS"you're"
p135
I39
sS'free'
p136
I42
sS'struggle'
p137
I42
sS'wanted'
p138
I41
sS'dammit'
p139
I40
sS'starts'
p140
I42
sS'heck'
p141
I42
sS"today's"
p142
I41
sS'fuckin'
p143
I42
sS'already'
p144
I39
sS'week\xe2\x80\x9d'
p145
I42
sS'grade'
p146
I42
sS'thick'
p147
I42
sS'toy'
p148
I42
sS'top'
p149
I42
sS'girls'
p150
I39
sS'too'
p151
I33
sS'hollywood'
p152
I42
sS'john'
p153
I42
sS'gym'
p154
I42
sS'serve'
p155
I42
sS'wasted'
p156
I42
sS'begins'
p157
I42
sS'ew'
p158
I40
sS'prayin'
p159
I42
sS'matter'
p160
I42
sS"to'"
p161
I42
sS'sleep..gym..then'
p162
I42
sS'ran'
p163
I42
sS'kraken'
p164
I41
sS'modern'
p165
I42
sS'mind'
p166
I41
sS'seen'
p167
I42
sS'28th.going'
p168
I42
sS'-'
p169
I38
sS'fitting'
p170
I41
sS'10\xe2\x80\xa6'
p171
I42
sS'though'
p172
I40
sS'dom'
p173
I42
sS'alarm'
p174
I41
sS'dog'
p175
I42
sS'freeway'
p176
I42
sS'came'
p177
I42
sS'saying'
p178
I42
sS'tequila'
p179
I42
sS'sage'
p180
I42
sS'radio'
p181
I42
sS'tempted'
p182
I42
sS'enjoyed'
p183
I42
sS'busy'
p184
I42
sS'menu'
p185
I42
sS'weekends'
p186
I42
sS"ashley's"
p187
I42
sS'mena'
p188
I42
sS'do'
p189
I31
sS'de'
p190
I41
sS'stop'
p191
I42
sS'da'
p192
I42
sS'geek'
p193
I42
sS'reconstruct'
p194
I42
sS'happiest'
p195
I42
sS'dr'
p196
I41
sS'nuutts'
p197
I42
sS'bay'
p198
I42
sS'bad'
p199
I41
sS'bae'
p200
I42
sS'shots'
p201
I41
sS'w/'
p202
I41
sS'goodnight'
p203
I41
sS'fail'
p204
I42
sS'best'
p205
I42
sS'said'
p206
I38
sS'bien'
p207
I42
sS"there's"
p208
I41
sS'hopefully'
p209
I41
sS'we'
p210
I34
sS'men'
p211
I42
sS'omg'
p212
I40
sS'nature'
p213
I42
sS'omw'
p214
I42
sS'(los'
p215
I7
sS'wtf'
p216
I39
sS'news'
p217
I42
sS'tatuaje'
p218
I40
sS'sorrrrryyyyyy'
p219
I42
sS'country'
p220
I42
sS'ill'
p221
I42
sS'cuddles'
p222
I42
sS'tomarrow'
p223
I42
sS'bran'
p224
I42
sS'had'
p225
I39
sS'happenin'
p226
I42
sS'diff'
p227
I42
sS'been'
p228
I39
sS'beer'
p229
I42
sS'much'
p230
I36
sS'website'
p231
I42
sS'life'
p232
I40
sS'soooon'
p233
I42
sS'catch'
p234
I41
sS'worked'
p235
I41
sS'n'
p236
I40
sS'ugly'
p237
I42
sS'r\xc3\xa9sum\xc3\xa9'
p238
I42
sS'is'
p239
I17
sS'dumped'
p240
I42
sS'it'
p241
I25
sS'fakes'
p242
I42
sS'throat'
p243
I42
sS'im'
p244
I33
sS'in'
p245
I14
sS'basketball*'
p246
I42
sS'id'
p247
I42
sS'if'
p248
I33
sS'grown'
p249
I42
sS'things'
p250
I40
sS'make'
p251
I36
sS'wound'
p252
I42
sS'craigslist'
p253
I42
sS'80s'
p254
I42
sS'froyo'
p255
I42
sS'hand'
p256
I42
sS'butter'
p257
I42
sS'tho'
p258
I42
sS'contact'
p259
I42
sS'the'
p260
I10
sS'yours'
p261
I42
sS'left'
p262
I41
sS'just'
p263
I30
sS'yea'
p264
I42
sS'photo'
p265
I42
sS"3's"
p266
I42
sS'sleepy'
p267
I42
sS'identify'
p268
I42
sS'thanks'
p269
I38
sS'yes'
p270
I42
sS'kinnnnnggg'
p271
I42
sS'previous'
p272
I42
sS'adidas'
p273
I42
sS'character'
p274
I42
sS'easy'
p275
I42
sS'has'
p276
I40
sS'mayo'
p277
I42
sS'dreamt'
p278
I42
sS'poser'
p279
I42
sS'alyssaaaaa'
p280
I42
sS'foots'
p281
I42
sS'58'
p282
I42
sS'repeat...jeff'
p283
I42
sS'xbox'
p284
I42
sS'steps'
p285
I42
sS'night'
p286
I32
sS'on/near'
p287
I42
sS'old'
p288
I39
sS'l.a....thank'
p289
I42
sS'people'
p290
I35
sS'successfully'
p291
I41
sS'0-100'
p292
I42
sS'kbbq'
p293
I42
sS'warren-'
p294
I42
sS'humor'
p295
I42
sS'for'
p296
I18
sS'bottom'
p297
I42
sS'purple'
p298
I42
sS'loosin'
p299
I42
sS'everything'
p300
I42
sS"l'atelier"
p301
I38
sS'columbus'
p302
I42
sS'pls'
p303
I42
sS'boli'
p304
I42
sS'losing'
p305
I41
sS'super'
p306
I40
sS'yelling'
p307
I42
sS'dollars'
p308
I42
sS'wasting'
p309
I42
sS'selfie'
p310
I42
sS'bound'
p311
I42
sS'son'
p312
I42
sS'down'
p313
I42
sS'right'
p314
I38
sS'shoots'
p315
I42
sS'run100'
p316
I42
sS'support'
p317
I42
sS'halle'
p318
I42
sS'why'
p319
I35
sS"boy's"
p320
I42
sS'way'
p321
I35
sS'was'
p322
I28
sS'happy'
p323
I36
sS'head'
p324
I41
sS'some'
p325
I33
sS'heal'
p326
I42
sS'fireworks'
p327
I42
sS'sissys'
p328
I42
sS'delgada?\xe2\x80\x9d'
p329
I42
sS'true'
p330
I42
sS'ruined'
p331
I42
sS'emotional'
p332
I42
sS'later'
p333
I40
sS'pimples'
p334
I42
sS'classic'
p335
I42
sS'sale'
p336
I41
sS'\xe2\x9d\xa4\xe2\x9d\xa4\xe2\x9d\xa4\xe2\x9d\xa4\xe2\x9d\xa4\xe2\x9d\xa4\xe2\x9d\xa4\xe2\x9d\xa4\xe2\x9d\xa4'
p337
I42
sS'shit'
p338
I35
sS'no'
p339
I31
sS'na'
p340
I40
sS'commercials'
p341
I42
sS'when'
p342
I34
sS'holding'
p343
I42
sS'warehouse'
p344
I42
sS'smell'
p345
I42
sS'roll'
p346
I42
sS'"omg'
p347
I42
sS"'s"
p348
I42
sS'turnup'
p349
I42
sS'dies'
p350
I42
sS'weirdest'
p351
I42
sS"let's"
p352
I41
sS'weekend'
p353
I39
sS'billion'
p354
I42
sS'daily'
p355
I42
sS'teeth'
p356
I42
sS"andre's"
p357
I42
sS'1st'
p358
I42
sS':/'
p359
I42
sS':)'
p360
I41
sS'focus'
p361
I42
sS'mile'
p362
I41
sS'/'
p363
I42
sS'skin'
p364
I42
sS'venice'
p365
I42
sS'finally'
p366
I41
sS'veo'
p367
I41
sS':o'
p368
I42
sS':d'
p369
I42
sS'billionaire'
p370
I42
sS'kitten'
p371
I42
sS'join'
p372
I42
sS'beiber'
p373
I42
sS'minute'
p374
I41
sS'cool'
p375
I41
sS'hoorah'
p376
I42
sS'dating'
p377
I41
sS'did'
p378
I40
sS'die'
p379
I41
sS'brother'
p380
I41
sS'leave'
p381
I42
sS'quick'
p382
I42
sS'guy'
p383
I42
sS'yall'
p384
I42
sS'monica\xe2\x80\xa6'
p385
I42
sS'spiritual'
p386
I42
sS'talked'
p387
I42
sS'hair*'
p388
I42
sS'lmbo'
p389
I42
sS'\xee\x90\xa0'
p390
I42
sS'boocakes'
p391
I42
sS'falling'
p392
I42
sS'hummer'
p393
I42
sS'oldies'
p394
I42
sS'french'
p395
I42
sS'alone'
p396
I42
sS's662w464p'
p397
I42
sS'along'
p398
I42
sS'bahahaaa'
p399
I42
sS'change'
p400
I42
sS'wait'
p401
I38
sS'healthy'
p402
I42
sS'chalmers'
p403
I42
sS'franklin'
p404
I42
sS'bearable'
p405
I42
sS'beautiful'
p406
I41
sS'hooooot'
p407
I42
sS'love'
p408
I30
sS'&dtla'
p409
I42
sS'bloody'
p410
I42
sS'ipcpr'
p411
I42
sS'fake'
p412
I41
sS'working'
p413
I41
sS'pero'
p414
I42
sS'only'
p415
I39
sS'live'
p416
I40
sS'iphone'
p417
I42
sS'wondering'
p418
I42
sS'black'
p419
I41
sS'today'
p420
I37
sS'deserved'
p421
I42
sS'niggas'
p422
I42
sS'car'
p423
I38
sS'homie'
p424
I42
sS'can'
p425
I32
sS'making'
p426
I41
sS'dosage'
p427
I42
sS'heart'
p428
I42
sS'crazy'
p429
I42
sS'stream'
p430
I42
sS'uruguay'
p431
I42
sS"didn't"
p432
I42
sS'fuck'
p433
I35
sS'agent'
p434
I42
sS'chivito'
p435
I42
sS'pink'
p436
I42
sS'1'
p437
I42
sS'till'
p438
I42
sS'pure'
p439
I42
sS'dope'
p440
I42
sS'staying'
p441
I41
sS'140'
p442
I42
sS'birthday'
p443
I40
sS'such'
p444
I42
sS'suck'
p445
I41
sS'guys'
p446
I40
sS'grow'
p447
I42
sS'man'
p448
I36
sS'remember'
p449
I42
sS'whenever'
p450
I41
sS'maybe'
p451
I42
sS'esmeohhesme'
p452
I42
sS'si'
p453
I41
sS'truck'
p454
I41
sS'tall'
p455
I42
sS'pulled'
p456
I42
sS'se'
p457
I41
sS'cute'
p458
I42
sS'shoes'
p459
I42
sS'food'
p460
I41
sS'kona'
p461
I42
sS'midnight'
p462
I42
sS'years'
p463
I41
sS'cold'
p464
I40
sS'still'
p465
I33
sS'thank'
p466
I37
sS"he's"
p467
I40
sS'thang'
p468
I41
sS'window'
p469
I42
sS'ahh'
p470
I42
sS'srsly'
p471
I42
sS'adrenaline'
p472
I42
sS'not'
p473
I26
sS'alexisia'
p474
I42
sS'now'
p475
I39
sS'james'
p476
I42
sS'squats1'
p477
I42
sS'em'
p478
I42
sS'el'
p479
I42
sS'en'
p480
I42
sS'fired'
p481
I42
sS'ea'
p482
I42
sS'yeah'
p483
I41
sS'begun'
p484
I42
sS'year'
p485
I42
sS'girl'
p486
I40
sS'salads'
p487
I42
sS'es'
p488
I40
sS'car>>>>>'
p489
I42
sS'living'
p490
I42
sS'3rd'
p491
I42
sS'looking'
p492
I42
sS'receiving'
p493
I42
sS'shows'
p494
I42
sS'cars'
p495
I42
sS'million'
p496
I40
sS'oasis'
p497
I42
sS'california'
p498
I42
sS'grandma'
p499
I41
sS'card'
p500
I42
sS'training'
p501
I42
sS'yup'
p502
I42
sS'100%'
p503
I41
sS'turn'
p504
I40
sS'place'
p505
I42
sS'redbone'
p506
I42
sS'think'
p507
I41
sS'cheese'
p508
I42
sS'apocalypse'
p509
I42
sS'one'
p510
I34
sS'vote'
p511
I40
sS'sounds'
p512
I42
sS'open'
p513
I41
sS'tomorrow'
p514
I39
sS'tingling'
p515
I42
sS'little'
p516
I38
sS'breed'
p517
I42
sS'anyone'
p518
I42
sS'2'
p519
I40
sS'tell'
p520
I39
sS'friend'
p521
I42
sS'hug'
p522
I42
sS'that'
p523
I21
sS'huh'
p524
I42
sS'butt'
p525
I41
sS'steimer'
p526
I42
sS'than'
p527
I41
sS'10'
p528
I33
sS'15'
p529
I42
sS'lmao'
p530
I38
sS'17'
p531
I42
sS'16'
p532
I42
sS'18'
p533
I42
sS'gotta'
p534
I42
sS'r'
p535
I42
sS'were'
p536
I39
sS'asleep'
p537
I42
sS'and'
p538
I15
sS'sam'
p539
I41
sS'turned'
p540
I42
sS'sad'
p541
I42
sS'say'
p542
I42
sS'saw'
p543
I40
sS'aside'
p544
I42
sS'take'
p545
I41
sS'preschoolers'
p546
I42
sS'blunt'
p547
I42
sS'sure'
p548
I41
sS'pain'
p549
I42
sS'arguing'
p550
I41
sS'knew'
p551
I42
sS'paid'
p552
I42
sS'jajajaja'
p553
I42
sS'floorboard'
p554
I42
sS'forever'
p555
I42
sS'proud'
p556
I42
sS'hungry'
p557
I39
sS'sunset'
p558
I42
sS'"taxi"'
p559
I42
sS'show'
p560
I37
sS'takin'
p561
I41
sS'\xe2\x9c\x8b'
p562
I42
sS'latelierimports'
p563
I42
sS'3'
p564
I40
sS'tears'
p565
I42
sS'going'
p566
I35
sS'lorenzo'
p567
I42
sS'hockey'
p568
I41
sS'plums'
p569
I42
sS'get'
p570
I29
sS'nearly'
p571
I42
sS'freaking'
p572
I42
sS'prime'
p573
I42
sS'31ferno'
p574
I42
sS'colossus'
p575
I42
sS'i-10'
p576
I3
sS'morning'
p577
I40
sS'naked'
p578
I41
sS'stupid'
p579
I42
sS'finishing'
p580
I42
sS'where'
p581
I40
sS"y'all"
p582
I42
sS'concert'
p583
I40
sS'college'
p584
I42
sS'hoes'
p585
I41
sS'crooked'
p586
I42
sS'outside'
p587
I42
sS'tux'
p588
I42
sS'jobs'
p589
I42
sS'august'
p590
I42
sS'artfag'
p591
I42
sS'blame'
p592
I42
sS'c\xc3\xa1ncer'
p593
I42
sS'armenian'
p594
I42
sS'como'
p595
I42
sS'hurts'
p596
I42
sS'come'
p597
I40
sS'tuck'
p598
I42
sS'many'
p599
I39
sS'sketchy'
p600
I41
sS"can't"
p601
I35
sS'madness'
p602
I42
sS'whisperer'
p603
I42
sS'color'
p604
I41
sS'por'
p605
I42
sS'64'
p606
I42
sS"couldn't"
p607
I42
sS'west'
p608
I32
sS'mary'
p609
I42
sS'..it'
p610
I42
sS'thousand'
p611
I42
sS'photos'
p612
I42
sS'wake'
p613
I42
sS'wordslameass'
p614
I42
sS'those'
p615
I40
sS'case'
p616
I42
sS'myself'
p617
I40
sS'klaus'
p618
I42
sS'these'
p619
I42
sS'guats'
p620
I42
sS'blue,90016\n482410940135006208,bryanpoca,2014-06-27'
p621
I42
sS'california+driving+rain='
p622
I42
sS'coffee'
p623
I41
sS'middle'
p624
I41
sS'evening'
p625
I42
sS'property'
p626
I42
sS'different'
p627
I42
sS'shuts'
p628
I42
sS'pay'
p629
I42
sS'bowl'
p630
I42
sS'same'
p631
I39
sS'ya'
p632
I41
sS'week'
p633
I40
sS'driver'
p634
I41
sS'bumpin'
p635
I42
sS'totally'
p636
I42
sS'\xe2\x9c\x8c\xef\xb8\x8f'
p637
I42
sS'ranch'
p638
I42
sS'magical'
p639
I42
sS'mean,90016\n512288304075526144,domenic_reyes28,2014-09-17'
p640
I42
sS'bottle'
p641
I42
sS'taxi'
p642
I42
sS'money'
p643
I41
sS'kill'
p644
I42
sS'touch'
p645
I41
sS'zoebowe'
p646
I42
sS'ps4'
p647
I42
sS'thinking'
p648
I42
sS'"ballywood"'
p649
I42
sS':(sorry'
p650
I42
sS'lets'
p651
I42
sS'4'
p652
I40
sS'tuesday'
p653
I42
sS'real'
p654
I39
sS'starving'
p655
I42
sS'kills'
p656
I42
sS'cuando'
p657
I42
sS'gonna'
p658
I40
sS'early'
p659
I41
sS'traffic'
p660
I33
sS'listening'
p661
I42
sS'using'
p662
I42
sS'accepted'
p663
I42
sS'correcting'
p664
I42
sS'hallelujah'
p665
I42
sS'$500000'
p666
I42
sS'gross'
p667
I41
sS'slice'
p668
I42
sS'drenched'
p669
I42
sS'juices'
p670
I42
sS'\xe2\x9c\x88\xef\xb8\x8f'
p671
I42
sS'power'
p672
I42
sS'dicen'
p673
I42
sS'nails'
p674
I42
sS'throwback'
p675
I42
sS';)'
p676
I42
sS'throw'
p677
I42
sS'on'
p678
I20
sS'central'
p679
I42
sS'oh'
p680
I38
sS'of'
p681
I21
sS'favorite'
p682
I42
sS'meal'
p683
I42
sS'decent'
p684
I41
sS'ow'
p685
I42
sS'or'
p686
I36
sS'knits'
p687
I42
sS'2nite'
p688
I42
sS'accounts'
p689
I41
sS'apologize'
p690
I42
sS'elementary'
p691
I42
sS'your'
p692
I33
sS'her'
p693
I39
sS'area'
p694
I42
sS'there'
p695
I40
sS'racism'
p696
I42
sS'lol'
p697
I26
sS'start'
p698
I42
sS'low'
p699
I42
sS'midcity'
p700
I42
sS'valley'
p701
I41
sS'coolin'
p702
I42
sS'$800'
p703
I42
sS'trying'
p704
I41
sS'with'
p705
I22
sS"they're"
p706
I42
sS'rush'
p707
I42
sS"wasn't"
p708
I42
sS'agree'
p709
I42
sS'gone'
p710
I42
sS'videos'
p711
I42
sS'af'
p712
I41
sS'am'
p713
I41
sS'an'
p714
I39
sS'as'
p715
I42
sS'\xe2\x9d\xa4\xef\xb8\x8f\xe2\x98\xba\xef\xb8\x8f'
p716
I42
sS'tasty'
p717
I42
sS'at'
p718
I2
sS'fill'
p719
I42
sS'again'
p720
I40
sS'5'
p721
I39
sS'you'
p722
I16
sS'separate'
p723
I42
sS'time'
p724
I29
sS'midget'
p725
I42
sS'06:58:12.0,34.03404501,-118.36407032,2184,my'
p726
I42
sS'building'
p727
I42
sS"life's"
p728
I42
sS'wifi'
p729
I42
sS'vines'
p730
I42
sS'u'
p731
I41
sS'songs'
p732
I39
sS'all'
p733
I32
sS'ale'
p734
I42
sS'showing"'
p735
I42
sS'commute'
p736
I42
sS'parmesan'
p737
I42
sS'cameron'
p738
I42
sS'tv'
p739
I42
sS'baddest'
p740
I42
sS'wassup'
p741
I42
sS'thursday'
p742
I42
sS'to'
p743
I11
sS'program'
p744
I41
sS'dressing'
p745
I42
sS'smile'
p746
I41
sS'woman'
p747
I41
sS'sitting'
p748
I42
sS'very'
p749
I41
sS'fav'
p750
I42
sS'selfies'
p751
I42
sS'worst'
p752
I42
sS'fall'
p753
I42
sS'hoes"'
p754
I42
sS'trippin'
p755
I41
sS'peor'
p756
I42
sS'--'
p757
I42
sS'celebrity'
p758
I41
sS'list'
p759
I42
sS'techno/house'
p760
I42
sS'small'
p761
I42
sS"i'll"
p762
I41
sS'instagram'
p763
I41
sS'tea'
p764
I42
sS'past'
p765
I39
sS'burger'
p766
I42
sS'cigars'
p767
I40
sS'will'
p768
I37
sS'what'
p769
I30
sS'sub'
p770
I42
sS'twatch'
p771
I42
sS'learned'
p772
I42
sS'full'
p773
I42
sS'hours'
p774
I41
sS'legend'
p775
I42
sS'm_mrsth'
p776
I42
sS'creepy'
p777
I42
sS'fwy'
p778
I42
sS'pick'
p779
I42
sS"would've"
p780
I42
sS'family'
p781
I42
sS'put'
p782
I42
sS'analyzing'
p783
I42
sS'takes'
p784
I41
sS'two'
p785
I40
sS'zedd'
p786
I42
sS'pearl'
p787
I42
sS'6'
p788
I42
sS'taken'
p789
I42
sS'wipes'
p790
I42
sS'more'
p791
I41
sS'hundo'
p792
I42
sS'producing'
p793
I42
sS'town'
p794
I41
sS'hour'
p795
I41
sS'canceled'
p796
I42
sS'sucks'
p797
I41
sS'roosevelt'
p798
I42
sS'dew'
p799
I42
sS'mall'
p800
I42
sS'learn'
p801
I41
sS'luda'
p802
I42
sS'embarrassing'
p803
I42
sS'numbers'
p804
I42
sS'zanzibar'
p805
I42
sS'wisely'
p806
I42
sS'court'
p807
I42
sS'awkward'
p808
I42
sS'rather'
p809
I41
sS"heart's"
p810
I42
sS'"murph"for'
p811
I42
sS'plans'
p812
I41
sS'rude'
p813
I41
sS'soundtrack'
p814
I42
sS'coming'
p815
I42
sS'a'
p816
I13
sS'short'
p817
I42
sS'playing'
p818
I42
sS"that's"
p819
I36
sS'help'
p820
I40
sS"don't"
p821
I35
sS'september'
p822
I42
sS'soon'
p823
I40
sS'through'
p824
I42
sS'hell'
p825
I41
sS'its'
p826
I40
sS'style'
p827
I42
sS'pray'
p828
I42
sS'late'
p829
I41
sS'cutie'
p830
I41
sS'might'
p831
I42
sS"haven't"
p832
I39
sS'fool'
p833
I42
sS'good'
p834
I36
sS'yo'
p835
I38
sS'c\xc3\xb3mase'
p836
I42
sS'clippers'
p837
I42
sS'easily'
p838
I41
sS'everytime'
p839
I42
sS'always'
p840
I36
sS'someone'
p841
I39
sS'found'
p842
I42
sS'friendship'
p843
I42
sS"isn't"
p844
I42
sS'everyone'
p845
I41
sS'house'
p846
I39
sS'energy'
p847
I42
sS'hard'
p848
I37
sS'really'
p849
I37
sS'ftw'
p850
I42
sS'since'
p851
I41
sS'$3.2'
p852
I42
sS'acting'
p853
I42
sS'tokidoki'
p854
I41
sS'highway'
p855
I42
sS'ass'
p856
I38
sS'dirt'
p857
I42
sS'friday'
p858
I41
sS'story'
p859
I42
sS'reason'
p860
I41
sS'heroin'
p861
I42
sS'ask'
p862
I42
sS'teach'
p863
I42
sS'w'
p864
I41
sS'blush'
p865
I42
sS'fallen'
p866
I42
sS'major'
p867
I42
sS'dont'
p868
I41
sS'feel'
p869
I41
sS'number'
p870
I42
sS'enlarged'
p871
I42
sS'done'
p872
I39
sS'miss'
p873
I36
sS'guess'
p874
I41
sS'"'
p875
I42
sS'nomi'
p876
I42
sS'station'
p877
I42
sS'mama'
p878
I42
sS'hundred'
p879
I42
sS'jen'
p880
I41
sS'lease'
p881
I42
sS'para'
p882
I42
sS'behind'
p883
I42
sS'helloooo'
p884
I42
sS'jordan'
p885
I42
sS'believe'
p886
I42
sS'obama'
p887
I42
sS'kind'
p888
I41
sS'god\xe2\x80\x9d'
p889
I42
sS'double'
p890
I42
sS'deciding'
p891
I42
sS'imports'
p892
I39
sS'fillets'
p893
I42
sS'tonicia'
p894
I42
sS'lie'
p895
I41
sS'nights'
p896
I42
sS'lil'
p897
I41
sS'h20'
p898
I42
sS'lit'
p899
I42
sS'also'
p900
I41
sS'cream'
p901
I42
sS'added'
p902
I42
sS'hombres'
p903
I42
sS'quote'
p904
I42
sS'kam'
p905
I42
sS'most'
p906
I40
sS'plan'
p907
I42
sS'cover'
p908
I41
sS'\xe2\x98\x80\xef\xb8\x8f'
p909
I41
sS'lying'
p910
I42
sS'ugh'
p911
I42
sS'weedster'
p912
I42
sS'alcanza'
p913
I42
sS'ruin'
p914
I42
sS'wayne'
p915
I42
sS'pretty'
p916
I42
sS'hip'
p917
I42
sS'his'
p918
I38
sS'trees'
p919
I42
sS'him'
p920
I41
sS'cry'
p921
I42
sS'eyes/eyebrows'
p922
I42
sS'x'
p923
I42
sS'see'
p924
I36
sS'dumb'
p925
I42
sS'are'
p926
I29
sS'retweet'
p927
I42
sS'analog'
p928
I42
sS'wow'
p929
I42
sS'please'
p930
I39
sS'won'
p931
I42
sS'wod'
p932
I42
sS'nope'
p933
I42
sS'korea'
p934
I42
sS'sold'
p935
I42
sS'spray'
p936
I42
sS'last'
p937
I38
sS'license'
p938
I42
sS'barely'
p939
I42
sS'connection'
p940
I42
sS'pepperdine'
p941
I42
sS'weirdo'
p942
I42
sS'whole'
p943
I41
sS'liked'
p944
I41
sS'point'
p945
I42
sS'simple'
p946
I42
sS'smith'
p947
I42
sS'church'
p948
I41
sS'expensive'
p949
I42
sS"'it's"
p950
I42
sS'naps'
p951
I42
sS'pt'
p952
I42
sS'dug'
p953
I42
sS'rivals'
p954
I42
sS'damn'
p955
I37
sS'woke'
p956
I42
sS'gay'
p957
I40
sS'packs'
p958
I42
sS'fire'
p959
I42
sS"what's"
p960
I42
sS'gas'
p961
I42
sS'cinco'
p962
I42
sS'awake'
p963
I42
sS'crenshaw'
p964
I42
sS'look'
p965
I41
sS'straight'
p966
I42
sS'while'
p967
I42
sS'ropa'
p968
I42
sS'homework'
p969
I40
sS'behavior'
p970
I42
sS'fun'
p971
I39
sS'dominic'
p972
I42
sS'theres'
p973
I42
sS'casino'
p974
I42
sS'<3'
p975
I42
sS'triple'
p976
I42
sS'circle*'
p977
I42
sS'ready'
p978
I40
sS'raiders'
p979
I41
sS'shirt'
p980
I42
sS'noooo'
p981
I42
sS'itchy'
p982
I42
sS'used'
p983
I42
sS'mavin'
p984
I42
sS'keys'
p985
I42
sS'yesterday'
p986
I42
sS'moment'
p987
I41
sS'moving'
p988
I42
sS'older'
p989
I42
sS'chickens'
p990
I42
sS'y'
p991
I42
sS'cut'
p992
I41
sS'hated'
p993
I42
sS'arriba'
p994
I42
sS'snap'
p995
I42
sS'big'
p996
I42
sS'sittin'
p997
I42
sS'game'
p998
I38
sS'bit'
p999
I42
sS'd'
p1000
I42
sS'fault'
p1001
I42
sS'push-ups300'
p1002
I42
sS'fucking'
p1003
I40
sS'tambi\xc3\xa9n'
p1004
I42
sS'buble'
p1005
I42
sS'magnificent'
p1006
I42
sS'back'
p1007
I36
sS'passion.his'
p1008
I42
sS'palm'
p1009
I42
sS'contacts'
p1010
I42
sS'pee'
p1011
I42
sS'epic'
p1012
I42
sS'be'
p1013
I27
sS'run'
p1014
I42
sS'bc'
p1015
I39
sS'kelsey'
p1016
I42
sS'costumes'
p1017
I42
sS's/o'
p1018
I42
sS'zombie'
p1019
I42
sS'step'
p1020
I42
sS'usc'
p1021
I42
sS'raspberry'
p1022
I42
sS'chola'
p1023
I42
sS'by'
p1024
I36
sS'anything'
p1025
I42
sS'graduation'
p1026
I42
sS'idk'
p1027
I41
sS'wanna'
p1028
I39
sS'seeing'
p1029
I42
sS'into'
p1030
I41
sS'(inbetween)wla'
p1031
I42
sS'statistics'
p1032
I42
sS'infuriating'
p1033
I42
sS'question'
p1034
I41
sS'ca)'
p1035
I7
sS'long'
p1036
I39
sS"we're"
p1037
I42
sS'beyonces'
p1038
I42
sS'bored'
p1039
I41
sS'chaddup'
p1040
I42
sS'hoped'
p1041
I42
sS'line'
p1042
I42
sS'posted'
p1043
I42
sS'fries'
p1044
I42
sS'up'
p1045
I25
sS'us'
p1046
I41
sS'un'
p1047
I42
sS'freeway)'
p1048
I6
sS'tyrese'
p1049
I42
sS'lemon'
p1050
I42
sS'fears'
p1051
I42
sS'nap'
p1052
I42
sS'preguntan'
p1053
I42
sS'nice'
p1054
I41
sS'pacqiuao'
p1055
I42
sS'helping'
p1056
I41
sS'ago'
p1057
I42
sS'gr8'
p1058
I42
sS"bree's"
p1059
I42
sS'far'
p1060
I42
sS'having'
p1061
I40
sS'once'
p1062
I41
sS'essay'
p1063
I42
sS'"primm"'
p1064
I42
sS'go'
p1065
I33
sS'gn'
p1066
I42
sS'seno'
p1067
I42
sS'ponga'
p1068
I42
sS'*sigh'
p1069
I42
sS'telling'
p1070
I42
sS'drinking'
p1071
I42
sS'entire'
p1072
I42
sS'magic'
p1073
I42
sS'michael'
p1074
I42
sS'this'
p1075
I23
sS'session'
p1076
I42
sS'booty'
p1077
I42
sS"you'd"
p1078
I42
sS'traveling'
p1079
I41
sS'picked'
p1080
I42
sS'body'
p1081
I42
sS'pushing'
p1082
I42
sS'let'
p1083
I42
sS'others'
p1084
I42
sS'great'
p1085
I40
sS'38'
p1086
I42
sS'didnt'
p1087
I42
sS'mclaren'
p1088
I42
sS'35'
p1089
I42
sS'leaving'
p1090
I42
sS'headless'
p1091
I42
sS'lujah'
p1092
I42
sS'popcorn'
p1093
I42
sS'makes'
p1094
I40
sS'thats'
p1095
I41
sS'apple'
p1096
I42
sS'app'
p1097
I42
sS'cloud'
p1098
I42
sS'use'
p1099
I39
sS'beatrepeat'
p1100
I42
sS'from'
p1101
I37
sS'figure'
p1102
I42
sS'&'
p1103
I36
sS'yeassir\xe2\x9d\x95'
p1104
I42
sS'procrastinate'
p1105
I42
sS'vehicle'
p1106
I42
sS'sort'
p1107
I42
sS'babe'
p1108
I42
sS'1/2'
p1109
I42
sS'impress'
p1110
I42
sS'about'
p1111
I35
sS'baby'
p1112
I40
sS'ok'
p1113
I35
sS'(santa'
p1114
I3
sS'balls'
p1115
I41
sS'midterm'
p1116
I42
sS'slaps'
p1117
I42
sS'ride'
p1118
I42
sS'theeeze'
p1119
I42
sS'strategically'
p1120
I42
sS'unreal'
p1121
I42
sS'praise'
p1122
I42
sS'meet'
p1123
I42
sS'*straightens'
p1124
I42
sS'woooooow'
p1125
I42
sS'monica'
p1126
I4
sS'halloween'
p1127
I42
sS'blvd'
p1128
I42
sS'ooomggg'
p1129
I42
sS'restauraunts'
p1130
I42
sS'swear'
p1131
I42
sS'yayyyyy'
p1132
I42
sS'instead'
p1133
I42
sS'comedy'
p1134
I42
sS'shiiit'
p1135
I42
sS'watch'
p1136
I42
sS'fiats'
p1137
I42
sS'coast'
p1138
I42
sS'travailleurs-'
p1139
I42
sS'issa'
p1140
I42
sS'road'
p1141
I41
sS'move'
p1142
I42
sS'frigggggin'
p1143
I42
sS'looks'
p1144
I41
sS'perfect'
p1145
I41
sS'la'
p1146
I34
sS'lo'
p1147
I42
sS'choose'
p1148
I42
sS'2014'
p1149
I42
sS'bye'
p1150
I41
sS'dad'
p1151
I41
sS'crash'
p1152
I42
sS'greater'
p1153
I42
sS'dam'
p1154
I40
sS'dan'
p1155
I42
sS'practice'
p1156
I39
sS'legendary'
p1157
I42
sS'day'
p1158
I35
sS'gareth'
p1159
I42
sS'importante'
p1160
I41
sS"ya'll"
p1161
I42
sS'glasses'
p1162
I42
sS'nighas'
p1163
I42
sS'doing'
p1164
I39
sS'strip'
p1165
I42
sS'mas'
p1166
I42
sS'our'
p1167
I42
sS'special'
p1168
I42
sS'out'
p1169
I32
sS'matt'
p1170
I42
sS'as\xc3\xad'
p1171
I42
sS'cause'
p1172
I42
sS'red'
p1173
I40
sS'que'
p1174
I41
sS'craving'
p1175
I42
sS'could'
p1176
I42
sS'florida'
p1177
I42
sS'times'
p1178
I42
sS'conversation'
p1179
I42
sS'south'
p1180
I42
sS'hey'
p1181
I41
sS'bitch'
p1182
I38
sS'hehe'
p1183
I42
sS'braces'
p1184
I42
sS"doesn't"
p1185
I42
sS'los'
p1186
I36
sS'their'
p1187
I41
sS'lapd'
p1188
I42
sS'beard'
p1189
I42
sS'bieber'
p1190
I42
sS'*when'
p1191
I42
sS'glamorous'
p1192
I42
sS'loves'
p1193
I42
sS'false'
p1194
I42
sS'prescense'
p1195
I42
sS'tonight'
p1196
I36
sS'have'
p1197
I25
sS'need'
p1198
I38
sS'2weeks'
p1199
I42
sS'screw'
p1200
I40
sS'congrats'
p1201
I42
sS'mia'
p1202
I42
sS'studying'
p1203
I42
sS'switch'
p1204
I42
sS'so'
p1205
I24
sS'korean'
p1206
I42
sS'='
p1207
I42
sS'bitches'
p1208
I41
sS'unless'
p1209
I42
sS'aww'
p1210
I42
sS'who'
p1211
I40
sS'damnyou'
p1212
I42
sS"where's"
p1213
I42
sS'future'
p1214
I42
sS'short!"'
p1215
I42
sS'class'
p1216
I40
sS'prueban'
p1217
I42
sS'sometime:)'
p1218
I42
sS'face'
p1219
I39
sS'talk'
p1220
I40
sS'1995'
p1221
I42
sS'fact'
p1222
I39
sS'bring'
p1223
I42
sS'wheeew'
p1224
I42
sS'chicken'
p1225
I41
sS'thicker'
p1226
I42
sS'"shots'
p1227
I42
sS'should'
p1228
I39
sS'buttons'
p1229
I42
sS'jam'
p1230
I42
sS'tape'
p1231
I42
sS'riding'
p1232
I40
sS'meant'
p1233
I42
sS'watching'
p1234
I40
sS'beat'
p1235
I42
sS'wishing'
p1236
I42
sS'photography'
p1237
I42
sS'goodmornin'
p1238
I42
sS'lucky'
p1239
I42
sS'bear'
p1240
I42
sS'bean'
p1241
I42
sS'apreciate'
p1242
I42
sS'words'
p1243
I41
sS'bestest'
p1244
I42
sS'married'
p1245
I41
sS'stuff'
p1246
I42
sS'she'
p1247
I32
sS'motorcycle'
p1248
I42
sS'madam'
p1249
I42
sS'humans'
p1250
I42
sS'luv'
p1251
I42
sS'horrible'
p1252
I42
sS'luh'
p1253
I42
sS'lul'
p1254
I42
sS'joy'
p1255
I42
sS'job'
p1256
I42
sS'joke'
p1257
I42
sS'taking'
p1258
I42
sS'admit'
p1259
I41
sS'atleast'
p1260
I42
sS'gorgeous'
p1261
I42
sS'hehehe'
p1262
I42
sS'ca'
p1263
I36
sS'cousin'
p1264
I41
sS'worldstar'
p1265
I42
sS'5432'
p1266
I42
sS"it's"
p1267
I33
sS'sara'
p1268
I42
sS'lowkey..i'
p1269
I42
sS'spygate'
p1270
I42
sS'yah'
p1271
I42
sS'bbq'
p1272
I42
sS'username'
p1273
I42
sS'finished'
p1274
I42
sS'kicks'
p1275
I42
sS'spain'
p1276
I42
sS'plain'
p1277
I42
sS'harden'
p1278
I42
sS'gucci'
p1279
I42
sS'hahaha'
p1280
I40
sS'frustrating'
p1281
I42
sS'almost'
p1282
I42
sS'ave'
p1283
I42
sS'grinder'
p1284
I42
sS')'
p1285
I41
sS'inch'
p1286
I42
sS'party'
p1287
I41
sS'gets'
p1288
I42
sS'drink'
p1289
I41
sS'collab'
p1290
I42
sS'fucker'
p1291
I42
sS'beast'
p1292
I42
sS'fucken'
p1293
I42
sS'fucked'
p1294
I42
sS'l.a'
p1295
I41
sS'off'
p1296
I41
sS'i'
p1297
I8
sS'well'
p1298
I39
sS'thought'
p1299
I42
sS'clinic'
p1300
I42
sS'old-school'
p1301
I42
sS'happiness'
p1302
I41
sS'sufren'
p1303
I42
sS'wed'
p1304
I42
sS'drive'
p1305
I41
sS'sky'
p1306
I42
sS'drew'
p1307
I42
sS'battery'
p1308
I42
sS'add'
p1309
I40
sS'fudged'
p1310
I42
sS'smart'
p1311
I41
sS'sonic'
p1312
I42
sS'mean...he'
p1313
I42
sS'screammmmmmm'
p1314
I42
sS'know'
p1315
I31
sS'facial'
p1316
I42
sS'press'
p1317
I42
sS'10/10'
p1318
I42
sS'like'
p1319
I33
sS'sofa'
p1320
I42
sS'loser'
p1321
I42
sS'become'
p1322
I42
sS'soft'
p1323
I42
sS'nigga'
p1324
I41
sS'twitter'
p1325
I39
sS'hair'
p1326
I42
sS'demeanor'
p1327
I42
sS'home'
p1328
I39
sS'time:1'
p1329
I42
sS'literally'
p1330
I41
sS'avoid'
p1331
I42
sS'woohoo'
p1332
I42
sS'truffle'
p1333
I42
sS'pepper'
p1334
I42
sS'kool-aid'
p1335
I42
sS'schedule'
p1336
I42
sS'pike'
p1337
I42
sS'sister'
p1338
I42
sS':-)'
p1339
I35
sS'justin'
p1340
I41
sS'getting'
p1341
I38
sS'shipping'
p1342
I42
sS'angeles'
p1343
I5
sS'rodeo'
p1344
I42
sS'blessings'
p1345
I42
sS'more."'
p1346
I42
sS',90016\n498362663773425664,mariiisaa_,2014-08-10'
p1347
I42
sS'own'
p1348
I41
sS'tiny'
p1349
I42
sS'artists'
p1350
I42
sS'naturally'
p1351
I42
sS'buy'
p1352
I41
sS"i've"
p1353
I42
sS'hq'
p1354
I41
sS'hw'
p1355
I40
sS'but'
p1356
I34
sS'hi'
p1357
I42
sS'goals'
p1358
I42
sS'eat'
p1359
I41
sS'he'
p1360
I37
sS'made'
p1361
I40
sS'wish'
p1362
I41
sS'signed'
p1363
I42
sS'volvo'
p1364
I42
sS'limit'
p1365
I42
sS'minutes'
p1366
I41
sS'beats'
p1367
I42
sS'goodness'
p1368
I42
sS"party'd"
p1369
I42
sS'other'
p1370
I42
sS'yuuusssss'
p1371
I42
sS'sick'
p1372
I41
sS'album'
p1373
I42
sS'monday'
p1374
I40
sS'outlets'
p1375
I42
sS'stay'
p1376
I41
sS'kinda'
p1377
I41
sS'friends'
p1378
I42
sS'ghost'
p1379
I42
sS'eos'
p1380
I42
sS'understand'
p1381
I42
sS'passossssss'
p1382
I42
s.