(dp0
S''
p1
I1
sS'edc'
p2
I13
sS'all'
p3
I12
sS'chinese'
p4
I13
sS'dance'
p5
I13
sS'asian'
p6
I13
sS'go'
p7
I11
sS'follow'
p8
I13
sS'to'
p9
I3
sS'sorry'
p10
I13
sS'fan'
p11
I12
sS'labor'
p12
I13
sS'cool'
p13
I12
sS'treating'
p14
I13
sS'school'
p15
I12
sS'did'
p16
I10
sS'leave'
p17
I12
sS'team'
p18
I13
sS'ups'
p19
I13
sS"i'll"
p20
I13
sS'upper'
p21
I13
sS'tired'
p22
I13
sS'irritates'
p23
I13
sS'second'
p24
I11
sS'nba'
p25
I13
sS'what'
p26
I11
sS'waiting'
p27
I13
sS'freaky'
p28
I13
sS'vamos'
p29
I12
sS'body'
p30
I13
sS'toes'
p31
I13
sS'leg'
p32
I13
sS'funeral'
p33
I13
sS'never'
p34
I13
sS'here'
p35
I13
sS'hours'
p36
I13
sS'vanillur'
p37
I13
sS'let'
p38
I13
sS'alone'
p39
I12
sS'hoops'
p40
I13
sS'wait'
p41
I13
sS'great'
p42
I13
sS'shades'
p43
I13
sS'lakers'
p44
I13
sS'amazing\xe2\x9b\x85\xef\xb8\x8f'
p45
I13
sS'boo'
p46
I13
sS"i'm"
p47
I11
sS'fantastic'
p48
I13
sS'love'
p49
I12
sS'cowardly'
p50
I13
sS'liesssss'
p51
I13
sS'khan'
p52
I13
sS'&'
p53
I13
sS'donuts'
p54
I13
sS'throw'
p55
I13
sS'ca)'
p56
I13
sS'today'
p57
I12
sS'more'
p58
I13
sS'glass'
p59
I13
sS"ain't"
p60
I13
sS'baby'
p61
I10
sS'me'
p62
I5
sS'word'
p63
I13
sS'hour'
p64
I13
sS'this'
p65
I10
sS'car'
p66
I13
sS'work'
p67
I13
sS'movies'
p68
I13
sS'del'
p69
I13
sS'can'
p70
I9
sS'my'
p71
I4
sS'beautiful'
p72
I13
sS'awesome'
p73
I13
sS'fuck'
p74
I13
sS'heard'
p75
I13
sS'homie'
p76
I12
sS'want'
p77
I13
sS'moving\xe2\x80\xa6'
p78
I13
sS'kian'
p79
I13
sS'cielo'
p80
I13
sS'end'
p81
I13
sS'awkward'
p82
I13
sS'turn'
p83
I13
sS'rather'
p84
I13
sS'six'
p85
I13
sS'how'
p86
I12
sS'amazing'
p87
I13
sS'hawt'
p88
I13
sS'bday'
p89
I13
sS'stop'
p90
I13
sS'after'
p91
I13
sS'plane'
p92
I13
sS'mad'
p93
I13
sS'date'
p94
I13
sS'...hago'
p95
I13
sS'man'
p96
I13
sS'a'
p97
I3
sS'superbad'
p98
I13
sS'mayweather'
p99
I13
sS'maybe'
p100
I13
sS'sit'
p101
I13
sS'appreciate'
p102
I13
sS'su'
p103
I13
sS'sluuuut'
p104
I13
sS'si'
p105
I13
sS'so'
p106
I8
sS'wilfred'
p107
I13
sS'wine'
p108
I13
sS'burn'
p109
I13
sS"don't"
p110
I13
sS'mainly'
p111
I13
sS'years'
p112
I13
sS'becomfg'
p113
I13
sS'looks'
p114
I13
sS'still'
p115
I13
sS'avenue'
p116
I12
sS'before'
p117
I13
sS'ima'
p118
I13
sS'le'
p119
I13
sS'canta'
p120
I13
sS'la'
p121
I12
sS'glee'
p122
I13
sS'winning'
p123
I12
sS'madre'
p124
I13
sS'grade'
p125
I13
sS'laces'
p126
I13
sS'tweets'
p127
I13
sS'bye'
p128
I12
sS'yaaass'
p129
I13
sS'good'
p130
I13
sS'food'
p131
I13
sS'workout'
p132
I13
sS'sooner'
p133
I13
sS"you've"
p134
I13
sS'they'
p135
I13
sS'hands'
p136
I13
sS'not'
p137
I10
sS'now'
p138
I11
sS'day'
p139
I13
sS'bank'
p140
I13
sS'always'
p141
I13
sS'\xe2\x98\xb9\xe2\x98\xb9'
p142
I13
sS'el'
p143
I13
sS'diana'
p144
I13
sS'begun'
p145
I13
sS'girl'
p146
I12
sS'calling'
p147
I13
sS'saturday'
p148
I13
sS'really'
p149
I11
sS'avenue\xe2\x80\xa6'
p150
I13
sS'waaaaah'
p151
I13
sS'restricted'
p152
I13
sS'looking'
p153
I11
sS'got'
p154
I12
sS'foundation'
p155
I13
sS'bulls'
p156
I13
sS'members'
p157
I13
sS'imagine'
p158
I13
sS'put'
p159
I13
sS'mares'
p160
I12
sS'brasil'
p161
I13
sS'starts'
p162
I13
sS'could'
p163
I13
sS'moment'
p164
I13
sS'keep'
p165
I12
sS'thing'
p166
I13
sS'4th'
p167
I13
sS'margaritas'
p168
I13
sS'think'
p169
I11
sS'feel'
p170
I13
sS'one'
p171
I10
sS'bitch'
p172
I12
sS'maidana'
p173
I13
sS'miss'
p174
I13
sS"you're"
p175
I13
sS'little'
p176
I13
sS'monkey'
p177
I13
sS'5th'
p178
I13
sS'too'
p179
I13
sS'listen'
p180
I13
sS'ceiling'
p181
I13
sS'that'
p182
I12
sS'season'
p183
I12
sS'lax\xe2\x9c\x88\xef\xb8\x8ford'
p184
I13
sS'nigga'
p185
I13
sS'believe'
p186
I13
sS'than'
p187
I9
sS'coo'
p188
I13
sS'lmao'
p189
I12
sS'azteca'
p190
I13
sS'gotta'
p191
I13
sS'bed'
p192
I12
sS'knives'
p193
I13
sS'6th'
p194
I11
sS'and'
p195
I7
sS'addressing'
p196
I13
sS'outta'
p197
I13
sS'slay'
p198
I13
sS'tonight'
p199
I12
sS'have'
p200
I11
sS'any'
p201
I13
sS'lil'
p202
I13
sS'self'
p203
I13
sS'oh'
p204
I13
sS'note'
p205
I13
sS'omfg'
p206
I13
sS'take'
p207
I13
sS'meeting'
p208
I13
sS'='
p209
I13
sS'most'
p210
I13
sS'america'
p211
I13
sS'why'
p212
I13
sS'episode'
p213
I13
sS'later'
p214
I13
sS'hungry'
p215
I13
sS'yours'
p216
I13
sS"that's"
p217
I12
sS'saying'
p218
I12
sS'radio'
p219
I13
sS'chicken'
p220
I13
sS'crashing'
p221
I13
sS'completion'
p222
I13
sS'slow'
p223
I13
sS'('
p224
I13
sS'zee'
p225
I13
sS'bust'
p226
I13
sS'should'
p227
I13
sS'only'
p228
I13
sS'going'
p229
I13
sS'thennnnn'
p230
I13
sS'do'
p231
I13
sS'his'
p232
I13
sS'get'
p233
I13
sS'watch'
p234
I10
sS'lighter'
p235
I13
sS'nigguh'
p236
I13
sS'him'
p237
I11
sS'freaking'
p238
I13
sS'runs'
p239
I13
sS'emo'
p240
I13
sS'morning'
p241
I13
sS'bad'
p242
I13
sS'bae'
p243
I13
sS'she'
p244
I13
sS"andrew's"
p245
I13
sS'through'
p246
I13
sS'where'
p247
I13
sS'see'
p248
I12
sS'are'
p249
I13
sS'said'
p250
I13
sS'movie'
p251
I13
sS'props'
p252
I13
sS'probably'
p253
I13
sS'reading'
p254
I13
sS'dumber'
p255
I13
sS'job'
p256
I13
sS'(los'
p257
I13
sS'spoil'
p258
I13
sS'cousin'
p259
I13
sS'precious'
p260
I13
sS'come'
p261
I13
sS'last'
p262
I13
sS'joke'
p263
I13
sS'barely'
p264
I13
sS'games'
p265
I13
sS'jersey'
p266
I13
sS'hackers'
p267
I13
sS'pop'
p268
I13
sS'respect'
p269
I13
sS'trust'
p270
I13
sS'better'
p271
I13
sS"it's"
p272
I11
sS'three'
p273
I13
sS'been'
p274
I12
sS'damn'
p275
I13
sS'treat'
p276
I12
sS'louisiana'
p277
I13
sS'wanna'
p278
I13
sS'catch'
p279
I13
sS'chill'
p280
I13
sS'soccer'
p281
I13
sS'onesie'
p282
I13
sS'act'
p283
I13
sS'will'
p284
I13
sS'while'
p285
I13
sS'teachers'
p286
I13
sS'is'
p287
I9
sS'it'
p288
I9
sS'im'
p289
I9
sS'swinging'
p290
I13
sS'in'
p291
I8
sS'ready'
p292
I13
sS'everyday'
p293
I13
sS'if'
p294
I13
sS'funny'
p295
I13
sS'different'
p296
I13
sS'parte'
p297
I13
sS'perform'
p298
I13
sS'we"ll'
p299
I13
sS'slave'
p300
I13
sS'drives'
p301
I13
sS'fucken'
p302
I13
sS'clippers'
p303
I13
sS'caen'
p304
I13
sS'i'
p305
I3
sS'youre'
p306
I12
sS"can't"
p307
I11
sS'y'
p308
I13
sS'the'
p309
I2
sS'fugggg'
p310
I13
sS'summer'
p311
I13
sS'just'
p312
I9
sS'less'
p313
I13
sS'yes'
p314
I10
sS'thinking'
p315
I13
sS'had'
p316
I12
sS'lets'
p317
I13
sS'humping'
p318
I13
sS'soooooo'
p319
I13
sS'has'
p320
I13
sS'real'
p321
I13
sS'gonna'
p322
I13
sS'game'
p323
I12
sS'mom'
p324
I13
sS'knock'
p325
I13
sS'like'
p326
I9
sS'-_-'
p327
I13
sS'hunt'
p328
I13
sS'manual'
p329
I13
sS'muthafuckas'
p330
I13
sS'either'
p331
I13
sS'lose'
p332
I13
sS'chanate'
p333
I13
sS'because'
p334
I12
sS'ole'
p335
I9
sS'people'
p336
I12
sS'fucking'
p337
I11
sS'some'
p338
I13
sS'doppppeeee'
p339
I13
sS'eyeing'
p340
I13
sS'zealously'
p341
I13
sS'playin'
p342
I13
sS'for'
p343
I6
sS'literally'
p344
I13
sS'slushie'
p345
I13
sS'stopped'
p346
I13
sS'trout'
p347
I13
sS'be'
p348
I9
sS'night'
p349
I13
sS'from'
p350
I13
sS'by'
p351
I13
sS'on'
p352
I5
sS'about'
p353
I11
sS'ok'
p354
I13
sS'getting'
p355
I12
sS'of'
p356
I8
sS'graduation'
p357
I13
sS'angeles'
p358
I13
sS'chi'
p359
I13
sS'curry'
p360
I13
sS'or'
p361
I13
sS'garbage'
p362
I13
sS'down'
p363
I12
sS'weather'
p364
I13
sS'accounts'
p365
I13
sS'elementary'
p366
I12
sS'your'
p367
I6
sS'technically'
p368
I13
sS'limones'
p369
I13
sS'2k15'
p370
I13
sS'hehe'
p371
I13
sS'lol'
p372
I8
sS'fight'
p373
I13
sS'way'
p374
I12
sS'suit'
p375
I13
sS'forward'
p376
I13
sS'was'
p377
I13
sS"i've"
p378
I13
sS'lmaooo'
p379
I13
sS'but'
p380
I9
sS'26th'
p381
I13
sS'with'
p382
I10
sS'he'
p383
I9
sS'somedays'
p384
I13
sS'up'
p385
I11
sS'planes'
p386
I13
sS'faggot'
p387
I13
sS'fried'
p388
I13
sS'al'
p389
I13
sS'an'
p390
I12
sS'right'
p391
I12
sS'at'
p392
I9
sS'shit'
p393
I13
sS'balcony'
p394
I13
sS'selfish'
p395
I12
sS'nl'
p396
I13
sS'no'
p397
I13
sS'agreeing'
p398
I13
sS'nah'
p399
I12
sS'when'
p400
I12
sS'5'
p401
I11
sS'friggin'
p402
I13
sS'you'
p403
I8
sS'out'
p404
I11
sS'nice'
p405
I13
sS'championship'
p406
I13
sS'class'
p407
I13
sS'time'
p408
I13
sS'chance'
p409
I12
sS'purp'
p410
I13
sS'friends'
p411
I13
sS'finals'
p412
I13
sS'ago'
p413
I13
sS'dog'
p414
I13
sS'amir'
p415
I13
sS'u'
p416
I13
sS'everythang'
p417
I13
sS'wooooooooo'
p418
I13
s.