(dp0
S''
p1
I2
sS'essay'
p2
I32
sS'all'
p3
I21
sS'code'
p4
I32
sS':('
p5
I32
sS'represent'
p6
I32
sS'skip'
p7
I32
sS'"h"'
p8
I32
sS'month'
p9
I32
sS'apts'
p10
I32
sS'gf'
p11
I32
sS':/'
p12
I32
sS'sleep'
p13
I32
sS'go'
p14
I30
sS'hate'
p15
I30
sS'milk'
p16
I32
sS'buddy'
p17
I32
sS'doe'
p18
I32
sS"when's"
p19
I32
sS'young'
p20
I29
sS'send'
p21
I32
sS'over...but'
p22
I32
sS'to'
p23
I4
sS'tl'
p24
I32
sS'text'
p25
I31
sS'sorry'
p26
I32
sS'me'
p27
I17
sS"they'll"
p28
I32
sS'song'
p29
I32
sS'very'
p30
I32
sS'vegas'
p31
I32
sS'every'
p32
I29
sS'fam'
p33
I32
sS'join'
p34
I32
sS'drinking'
p35
I32
sS'fuckkkk'
p36
I32
sS'minute'
p37
I32
sS'cool'
p38
I32
sS'tickets'
p39
I32
sS'steve'
p40
I32
sS"we'll"
p41
I32
sS'baking'
p42
I32
sS'did'
p43
I29
sS'button'
p44
I32
sS'list'
p45
I32
sS'grandfather'
p46
I32
sS'leave'
p47
I32
sS'this'
p48
I22
sS"week's"
p49
I32
sS'flashy'
p50
I32
sS'nothin....we'
p51
I32
sS'heading'
p52
I32
sS'cvs/pharmacy'
p53
I32
sS'clothes'
p54
I32
sS"i'll"
p55
I32
sS"you'd"
p56
I32
sS'james'
p57
I32
sS'bleeding'
p58
I32
sS'5s\xe2\x80\x9d'
p59
I32
sS'sign'
p60
I32
sS'cost'
p61
I32
sS'video'
p62
I32
sS'pls'
p63
I32
sS'click'
p64
I32
sS'(just'
p65
I32
sS'even'
p66
I31
sS'what'
p67
I28
sS'wide'
p68
I32
sS'giving'
p69
I32
sS'dirt'
p70
I32
sS'espresso'
p71
I32
sS'4'
p72
I32
sS'crush'
p73
I32
sS'waiting'
p74
I32
sS'sus'
p75
I32
sS'new'
p76
I29
sS'ever'
p77
I32
sS'bird'
p78
I32
sS'contrast'
p79
I32
sS'dem'
p80
I32
sS'tattoos'
p81
I32
sS'wu-tang'
p82
I32
sS'kicked'
p83
I32
sS'never'
p84
I31
sS'(los'
p85
I25
sS'met'
p86
I32
sS'minor'
p87
I32
sS'let'
p88
I31
sS'others'
p89
I31
sS'alone'
p90
I32
sS'sing'
p91
I32
sS'appears'
p92
I32
sS'change'
p93
I32
sS'wait'
p94
I28
sS'box'
p95
I32
sS'boy'
p96
I30
sS'great'
p97
I31
sS'voice'
p98
I32
sS'exasms'
p99
I32
sS'metro'
p100
I22
sS'bow'
p101
I32
sS'1537'
p102
I32
sS'\xe2\x80\x9cknow'
p103
I32
sS'arent'
p104
I32
sS'boo'
p105
I31
sS"i'm"
p106
I9
sS"denny's"
p107
I32
sS'makes'
p108
I32
sS'wig'
p109
I32
sS'fantastic'
p110
I32
sS'kylebagley'
p111
I32
sS'love'
p112
I24
sS'members'
p113
I32
sS'family'
p114
I32
sS'liemert'
p115
I32
sS'logical'
p116
I32
sS'bestf'
p117
I32
sS'county'
p118
I32
sS'thought'
p119
I32
sS'eastwood'
p120
I32
sS'rarely'
p121
I32
sS'ebony'
p122
I32
sS'everybody'
p123
I32
sS'cha'
p124
I31
sS'use'
p125
I32
sS'rancho'
p126
I32
sS'from'
p127
I32
sS'takes'
p128
I32
sS':*)'
p129
I32
sS'&'
p130
I28
sS'tmmrw'
p131
I30
sS'idiots'
p132
I32
sS'next'
p133
I30
sS'rustic'
p134
I32
sS'ca)'
p135
I25
sS'wayne'
p136
I32
sS'music'
p137
I31
sS'iphone'
p138
I32
sS'wondering'
p139
I32
sS'roshes'
p140
I32
sS'thru'
p141
I32
sS'type'
p142
I32
sS'tell'
p143
I30
sS'today'
p144
I27
sS'more'
p145
I31
sS'tryna'
p146
I30
sS'females'
p147
I31
sS'knows'
p148
I32
sS'started'
p149
I32
sS'tax'
p150
I32
sS'under'
p151
I32
sS'haha'
p152
I30
sS'confused'
p153
I32
sS'meant'
p154
I32
sS'phone'
p155
I32
sS'train'
p156
I30
sS'stick'
p157
I32
sS'baby'
p158
I29
sS'cases'
p159
I32
sS'hola'
p160
I32
sS'kiddin)'
p161
I32
sS'shoot'
p162
I32
sS'none'
p163
I31
sS'word'
p164
I32
sS'room'
p165
I30
sS'supply"'
p166
I32
sS'niggas'
p167
I25
sS'watchu'
p168
I32
sS'ride'
p169
I31
sS'work'
p170
I24
sS'sucks'
p171
I32
sS'soul'
p172
I31
sS'movies'
p173
I32
sS'can'
p174
I28
sS"deedee's"
p175
I32
sS'kendrick'
p176
I32
sS'cab'
p177
I32
sS'darleen'
p178
I32
sS'my'
p179
I5
sS'47958'
p180
I32
sS'def'
p181
I32
sS'bend'
p182
I32
sS'heart'
p183
I32
sS'crazy'
p184
I31
sS'picture'
p185
I32
sS'goood'
p186
I32
sS'thirsty'
p187
I32
sS'give'
p188
I32
sS'lobbying'
p189
I32
sS"didn't"
p190
I30
sS'fuck'
p191
I22
sS'heard'
p192
I31
sS'way'
p193
I32
sS'salty'
p194
I32
sS'something'
p195
I31
sS'want'
p196
I27
sS'sense'
p197
I32
sS'jeebus'
p198
I32
sS'station'
p199
I23
sS'dress'
p200
I32
sS'sis'
p201
I31
sS'sir'
p202
I31
sS'str8'
p203
I32
sS'clint'
p204
I32
sS'awkward'
p205
I32
sS'turn'
p206
I30
sS'hol'
p207
I30
sS'means'
p208
I32
sS'lounge'
p209
I31
sS'till'
p210
I31
sS'instead'
p211
I32
sS'beach'
p212
I32
sS'economy'
p213
I32
sS'profile'
p214
I31
sS'map'
p215
I32
sS'okay'
p216
I32
sS'maaaaaaaaad'
p217
I32
sS'beauty'
p218
I32
sS'bags'
p219
I32
sS'may'
p220
I32
sS'coworker'
p221
I32
sS'dive'
p222
I32
sS'tattoo'
p223
I32
sS'wrong'
p224
I32
sS'4th'
p225
I32
sS'blood'
p226
I31
sS'coming'
p227
I31
sS'date'
p228
I32
sS'president'
p229
I32
sS'guys'
p230
I30
sS'excited'
p231
I32
sS'man'
p232
I27
sS'a'
p233
I7
sS'roses'
p234
I32
sS'remember'
p235
I32
sS'light'
p236
I32
sS"gov't"
p237
I32
sS'lame'
p238
I32
sS'rowdy'
p239
I32
sS'tale'
p240
I32
sS'so'
p241
I16
sS'worst'
p242
I32
sS'dream'
p243
I32
sS'playing'
p244
I31
sS'talk'
p245
I29
sS"that's"
p246
I28
sS'replied'
p247
I32
sS'cute'
p248
I32
sS'mexican'
p249
I32
sS'help'
p250
I31
sS'office'
p251
I32
sS"don't"
p252
I22
sS'numbers'
p253
I32
sS'over'
p254
I32
sS'migos'
p255
I32
sS'course'
p256
I32
sS'embassy'
p257
I32
sS'through'
p258
I32
sS'shake'
p259
I31
sS'smart'
p260
I32
sS'cold'
p261
I32
sS'still'
p262
I31
sS'before'
p263
I31
sS'ima'
p264
I31
sS'1'
p265
I32
sS'thank'
p266
I32
sS'la'
p267
I30
sS'left-'
p268
I32
sS'fix'
p269
I32
sS'[pic]'
p270
I30
sS'better'
p271
I31
sS'grade'
p272
I32
sS'swishasweetray'
p273
I32
sS'bout'
p274
I32
sS'might'
p275
I32
sS'into'
p276
I32
sS'underestimate'
p277
I32
sS'then'
p278
I28
sS'them'
p279
I28
sS'good'
p280
I24
sS'greater'
p281
I32
sS'yo'
p282
I29
sS'food'
p283
I32
sS'publo'
p284
I32
sS'ye'
p285
I32
sS'school'
p286
I31
sS'woulda'
p287
I32
sS'break'
p288
I32
sS'mention'
p289
I32
sS'starbucks'
p290
I31
sS'\xe2\x98\xba\xef\xb8\x8f'
p291
I32
sS'hands'
p292
I32
sS'not'
p293
I22
sS'now'
p294
I28
sS'day'
p295
I30
sS'bank'
p296
I32
sS'iced'
p297
I32
sS'always'
p298
I31
sS'lucy'
p299
I32
sS'drake'
p300
I32
sS'"follows'
p301
I32
sS"nano'seconds"
p302
I32
sS'trap'
p303
I32
sS"doctor's"
p304
I32
sS'crossing'
p305
I32
sS'entirely'
p306
I32
sS'pizza'
p307
I32
sS"isn't"
p308
I32
sS'mean'
p309
I31
sS'em'
p310
I32
sS'lie'
p311
I32
sS'doing'
p312
I32
sS'house'
p313
I31
sS'energy'
p314
I31
sS'yeah'
p315
I32
sS'year'
p316
I31
sS'ft'
p317
I32
sS'girl'
p318
I31
sS'standards'
p319
I32
sS'saturday'
p320
I32
sS'braided'
p321
I32
sS'really'
p322
I28
sS'rt'
p323
I29
sS'try'
p324
I32
sS"'"
p325
I32
sS'<<<'
p326
I32
sS'crip'
p327
I32
sS'since'
p328
I31
sS'looking'
p329
I30
sS'acting'
p330
I32
sS'stuff'
p331
I32
sS'hill'
p332
I32
sS'tommorow'
p333
I32
sS'smh'
p334
I32
sS'got'
p335
I28
sS'gov'
p336
I32
sS'cause'
p337
I30
sS'red'
p338
I32
sS'moonraker'
p339
I32
sS'ass'
p340
I26
sS"doesn't"
p341
I31
sS'cars'
p342
I32
sS'aerospace'
p343
I32
sS'free'
p344
I32
sS'asf'
p345
I32
sS'dorsey'
p346
I32
sS'grandma'
p347
I32
sS'put'
p348
I32
sS'beginning'
p349
I32
sS'urban)'
p350
I32
sS'(minus'
p351
I32
sS'could'
p352
I30
sS'headphones'
p353
I32
sS'levi'
p354
I32
sS'keep'
p355
I31
sS'conversation'
p356
I32
sS'hames'
p357
I32
sS'place'
p358
I32
sS'w'
p359
I32
sS'(at'
p360
I32
sS'think'
p361
I29
sS'first'
p362
I29
sS'major'
p363
I32
sS'already'
p364
I31
sS'feel'
p365
I31
sS'meet'
p366
I32
sS'bars'
p367
I32
sS'valentine'
p368
I31
sS'groundbreaking'
p369
I32
sS'done'
p370
I29
sS'bitch'
p371
I29
sS'another'
p372
I31
sS'ova'
p373
I32
sS'$10'
p374
I32
sS'blows'
p375
I32
sS'drove'
p376
I32
sS'youuuuu'
p377
I32
sS'regret'
p378
I32
sS"you're"
p379
I31
sS'little'
p380
I29
sS'long'
p381
I30
sS'stuck'
p382
I32
sS'prostate'
p383
I32
sS'girls'
p384
I30
sS'bike-friendly'
p385
I32
sS'their'
p386
I31
sS'vagina'
p387
I32
sS'2'
p388
I31
sS'dumbass'
p389
I32
sS'too'
p390
I28
sS'(not'
p391
I32
sS'white'
p392
I31
sS'messing'
p393
I32
sS'challenge'
p394
I32
sS'store'
p395
I32
sS'"suburban"'
p396
I32
sS'homemade'
p397
I32
sS'that'
p398
I12
sS'season'
p399
I30
sS'hotel'
p400
I32
sS'park'
p401
I32
sS'took'
p402
I32
sS'part'
p403
I32
sS'nigga'
p404
I32
sS'somewhat'
p405
I32
sS'twittersportscenter'
p406
I32
sS'$4'
p407
I32
sS'believe'
p408
I30
sS'memy'
p409
I32
sS'than'
p410
I32
sS"here's"
p411
I28
sS'coo'
p412
I32
sS'10'
p413
I28
sS'13'
p414
I32
sS'b'
p415
I32
sS'15'
p416
I32
sS'lmao'
p417
I27
sS'kickback'
p418
I32
sS'18'
p419
I32
sS'gotta'
p420
I31
sS'bed'
p421
I32
sS'jarvis'
p422
I32
sS'expo'
p423
I21
sS'friend'
p424
I32
sS'chipotleee'
p425
I32
sS'were'
p426
I32
sS'feeling'
p427
I32
sS'and'
p428
I6
sS'service)'
p429
I32
sS'fashion'
p430
I32
sS'san'
p431
I32
sS'palace'
p432
I31
sS'face'
p433
I32
sS'generation'
p434
I32
sS'sad'
p435
I31
sS'tonight'
p436
I31
sS'say'
p437
I28
sS'graffiti'
p438
I32
sS'have'
p439
I29
sS'need'
p440
I29
sS'breakfast'
p441
I32
sS'saw'
p442
I30
sS'clearly'
p443
I32
sS'kush'
p444
I31
sS'thaaaaaannkkkkk'
p445
I32
sS'magnus'
p446
I32
sS'lil'
p447
I31
sS'coliseum'
p448
I32
sS'-'
p449
I23
sS'oh'
p450
I32
sS'aint'
p451
I32
sS'potential'
p452
I32
sS'take'
p453
I29
sS'online'
p454
I32
sS'nahhhhhhhh'
p455
I32
sS'begin'
p456
I32
sS'murphy'
p457
I32
sS'multiple'
p458
I32
sS'though'
p459
I31
sS'track'
p460
I32
sS'who'
p461
I32
sS'reach'
p462
I32
sS'marin'
p463
I32
sS'most'
p464
I30
sS'visa'
p465
I32
sS'mouth'
p466
I32
sS'plan'
p467
I32
sS'nothing'
p468
I30
sS'america'
p469
I32
sS'why'
p470
I27
sS'forever'
p471
I32
sS'episode'
p472
I32
sS'boys'
p473
I32
sS'eachother'
p474
I32
sS'upset'
p475
I32
sS'order'
p476
I32
sS'investing'
p477
I32
sS'pic'
p478
I32
sS'clean'
p479
I32
sS'joys'
p480
I32
sS'krisbagley'
p481
I32
sS'sweater'
p482
I32
sS'came'
p483
I32
sS'shop'
p484
I32
sS'cooking'
p485
I32
sS'commas'
p486
I32
sS'reductions'
p487
I32
sS'lewis'
p488
I32
sS'ike)'
p489
I32
sS'stfu'
p490
I32
sS'lstn'
p491
I32
sS'rough'
p492
I32
sS'screenshots'
p493
I32
sS'find'
p494
I31
sS'one'
p495
I23
sS'tire'
p496
I32
sS'giants'
p497
I32
sS'true'
p498
I32
sS"baby's"
p499
I32
sS'should'
p500
I30
sS'here'
p501
I32
sS'only'
p502
I30
sS'going'
p503
I27
sS'lemme'
p504
I32
sS'pretty'
p505
I32
sS'expo/crenshaw'
p506
I31
sS'chipotle'
p507
I32
sS'handsome'
p508
I32
sS'hope'
p509
I32
sS'wearing'
p510
I31
sS'do'
p511
I22
sS'his'
p512
I32
sS'get'
p513
I18
sS'beat'
p514
I31
sS'comeback\xe2\x9c\x8a'
p515
I32
sS'dc'
p516
I32
sS'bear'
p517
I32
sS'taya'
p518
I32
sS'cannot'
p519
I32
sS'rugged'
p520
I32
sS'him'
p521
I31
sS'ghetto'
p522
I32
sS'grrrr'
p523
I32
sS'bar'
p524
I32
sS'angry'
p525
I32
sS'morning'
p526
I26
sS"somebody's"
p527
I31
sS'threading'
p528
I32
sS'bad'
p529
I32
sS'stupid'
p530
I31
sS'she'
p531
I31
sS'pants'
p532
I32
sS'where'
p533
I28
sS'thanks'
p534
I32
sS"y'all"
p535
I31
sS'knowing'
p536
I32
sS'optimus'
p537
I32
sS'set'
p538
I32
sS'concert'
p539
I32
sS'fascinating'
p540
I32
sS'w/'
p541
I31
sS'frame'
p542
I32
sS'see'
p543
I31
sS'defense'
p544
I32
sS'dumb'
p545
I31
sS'are'
p546
I27
sS'parking'
p547
I32
sS'close'
p548
I32
sS'tommy'
p549
I32
sS'wonder'
p550
I32
sS'listening'
p551
I32
sS'runs'
p552
I32
sS'movie'
p553
I31
sS'wow'
p554
I32
sS'please'
p555
I32
sS'slapped'
p556
I32
sS'behind'
p557
I32
sS"there's"
p558
I32
sS'probably'
p559
I32
sS'reading'
p560
I32
sS'nope'
p561
I32
sS'bought'
p562
I31
sS'affordable'
p563
I32
sS'we'
p564
I24
sS'omg'
p565
I31
sS'humble'
p566
I32
sS'25'
p567
I32
sS'sold'
p568
I32
sS'faded'
p569
I32
sS'outfit'
p570
I32
sS'job'
p571
I31
sS'death'
p572
I32
sS'coffee'
p573
I32
sS'wear'
p574
I31
sS'wtf'
p575
I31
sS'coma'
p576
I32
sS'cousin'
p577
I31
sS'come'
p578
I32
sS'etc)'
p579
I32
sS'last'
p580
I29
sS'signed'
p581
I32
sS'license'
p582
I32
sS'many'
p583
I32
sS"he's"
p584
I31
sS'quiet'
p585
I32
sS'tattle'
p586
I32
sS'games'
p587
I32
sS'lookin'
p588
I32
sS'passing'
p589
I32
sS'here-jb'
p590
I32
sS"can't"
p591
I25
sS'nearby'
p592
I32
sS'withdraws'
p593
I32
sS'cc'
p594
I32
sS'sweet'
p595
I32
sS'address'
p596
I32
sS'jeans'
p597
I32
sS'period'
p598
I32
sS'dudes'
p599
I32
sS'lauryn'
p600
I32
sS'running'
p601
I32
sS'twin'
p602
I32
sS"couldn't"
p603
I32
sS'church'
p604
I32
sS'dependent'
p605
I32
sS'respect'
p606
I31
sS'actually'
p607
I32
sS'math'
p608
I32
sS"it's"
p609
I26
sS'50%'
p610
I32
sS'been'
p611
I27
sS'beer'
p612
I32
sS'much'
p613
I31
sS'damn'
p614
I32
sS'ph'
p615
I30
sS'lovely'
p616
I32
sS'woke'
p617
I32
sS'threw'
p618
I32
sS'life'
p619
I32
sS'shia'
p620
I32
sS'shopping'
p621
I32
sS'fwm'
p622
I32
sS"what's"
p623
I31
sS'accident'
p624
I32
sS'understand'
p625
I31
sS'deep'
p626
I32
sS'impress'
p627
I32
sS'prices'
p628
I32
sS'disxussion'
p629
I32
sS'thing'
p630
I32
sS'those'
p631
I32
sS'reverse'
p632
I32
sS'play'
p633
I32
sS'myself'
p634
I32
sS'crenshaw'
p635
I20
sS'look'
p636
I31
sS'these'
p637
I30
sS'defining'
p638
I32
sS'inn'
p639
I32
sS'n'
p640
I32
sS'will'
p641
I31
sS'ugly'
p642
I31
sS'while'
p643
I32
sS'abou'
p644
I32
sS'transpo'
p645
I32
sS'ultra'
p646
I32
sS'stop'
p647
I32
sS'livibg'
p648
I32
sS'played'
p649
I32
sS'almost'
p650
I32
sS'is'
p651
I13
sS'it'
p652
I9
sS'rip'
p653
I32
sS'cant'
p654
I31
sS'miss'
p655
I32
sS'im'
p656
I29
sS'avi'
p657
I32
sS'ms.ridley'
p658
I32
sS'in'
p659
I19
sS'jenny'
p660
I32
sS'(downzonings'
p661
I32
sS'obnoxious'
p662
I32
sS'seem'
p663
I32
sS'if'
p664
I26
sS'funny'
p665
I32
sS'intense'
p666
I32
sS'errrrr'
p667
I32
sS'shirt'
p668
I32
sS'open'
p669
I32
sS'noooo'
p670
I32
sS'things'
p671
I31
sS'make'
p672
I29
sS"setting-you're"
p673
I32
sS'any'
p674
I32
sS'ya'
p675
I32
sS'parts'
p676
I32
sS'belly'
p677
I32
sS'babies'
p678
I32
sS'brag'
p679
I32
sS'hamster'
p680
I32
sS'week'
p681
I32
sS'used'
p682
I32
sS'1000s'
p683
I32
sS'promo'
p684
I32
sS'roost'
p685
I32
sS'hang'
p686
I32
sS"franco's"
p687
I32
sS'fucken'
p688
I31
sS'????\xe2\x80\x9d'
p689
I32
sS'fucked'
p690
I31
sS'syill'
p691
I32
sS'warming'
p692
I32
sS'weave'
p693
I32
sS'\xe2\x9c\x8c\xef\xb8\x8f'
p694
I32
sS'peeing'
p695
I32
sS'tracking'
p696
I32
sS'off'
p697
I25
sS'kotkin'
p698
I32
sS'i'
p699
I1
sS'min'
p700
I32
sS'well'
p701
I31
sS'tho'
p702
I31
sS'person'
p703
I30
sS'flexing'
p704
I32
sS'comes'
p705
I31
sS'pitbull'
p706
I32
sS'traffic'
p707
I32
sS'the'
p708
I3
sS'dark'
p709
I32
sS'drawing'
p710
I32
sS'left'
p711
I31
sS'summer'
p712
I32
sS'they'
p713
I27
sS'just'
p714
I10
sS'being'
p715
I32
sS'money'
p716
I30
sS'sleepy'
p717
I32
sS'effects'
p718
I32
sS'front'
p719
I32
sS'kill'
p720
I32
sS'wifey'
p721
I32
sS'yes'
p722
I32
sS'yaaas'
p723
I32
sS"keira's"
p724
I32
sS'morals'
p725
I32
sS'density'
p726
I32
sS'thinking'
p727
I32
sS'workers'
p728
I32
sS'had'
p729
I32
sS'cuz'
p730
I32
sS'5s'
p731
I32
sS'overthinking'
p732
I32
sS'nicki'
p733
I32
sS'combine'
p734
I32
sS'location'
p735
I31
sS'thoughts'
p736
I32
sS'has'
p737
I30
sS'city'
p738
I32
sS'surprised'
p739
I32
sS'real'
p740
I28
sS'book'
p741
I32
sS'customers'
p742
I32
sS'around'
p743
I30
sS'read'
p744
I32
sS'big'
p745
I32
sS'showing'
p746
I32
sS"who's"
p747
I31
sS'early'
p748
I32
sS'redeem'
p749
I32
sS'killa'
p750
I32
sS'know'
p751
I29
sS'mom'
p752
I30
sS'lady'
p753
I30
sS'mariah'
p754
I32
sS'naturally'
p755
I32
sS'frolic'
p756
I32
sS'like'
p757
I15
sS'piece'
p758
I32
sS"dc's"
p759
I32
sS'5c'
p760
I32
sS'chico'
p761
I32
sS'making'
p762
I32
sS'accessible'
p763
I32
sS'because'
p764
I29
sS'old'
p765
I31
sS'often'
p766
I32
sS'people'
p767
I31
sS'fucking'
p768
I32
sS'twitter'
p769
I32
sS'some'
p770
I24
sS'back'
p771
I31
sS'driving'
p772
I32
sS'hair'
p773
I32
sS'lips'
p774
I32
sS'kbbq'
p775
I32
sS'home'
p776
I30
sS'finna'
p777
I32
sS'for'
p778
I11
sS'bottom'
p779
I32
sS'alg2'
p780
I32
sS'mines'
p781
I32
sS'/'
p782
I24
sS'prop'
p783
I32
sS'prom'
p784
I32
sS'asking'
p785
I32
sS'yoooo'
p786
I32
sS'prob'
p787
I32
sS'tht'
p788
I32
sS'locate'
p789
I32
sS'be'
p790
I17
sS'run'
p791
I32
sS'business'
p792
I31
sS'coronas'
p793
I32
sS'pose'
p794
I32
sS'piercings'
p795
I32
sS'slut'
p796
I32
sS'ridley'
p797
I32
sS'how'
p798
I27
sS'plots'
p799
I32
sS'by'
p800
I31
sS'on'
p801
I18
sS'about'
p802
I28
sS'passionate'
p803
I32
sS'ok'
p804
I32
sS'yelling'
p805
I32
sS'anything'
p806
I32
sS'getting'
p807
I31
sS'of'
p808
I8
sS'industry'
p809
I32
sS'valentines'
p810
I31
sS'favorite'
p811
I31
sS'angeles'
p812
I25
sS'anime'
p813
I32
sS'blocked'
p814
I32
sS'luck'
p815
I32
sS'or'
p816
I30
sS'block'
p817
I32
sS'seeing'
p818
I32
sS'ladies'
p819
I32
sS'trilogy'
p820
I32
sS'presence'
p821
I32
sS'selfie'
p822
I32
sS'within'
p823
I32
sS'negative'
p824
I32
sS'down'
p825
I29
sS'freaked'
p826
I32
sS'momma'
p827
I32
sS'right'
p828
I29
sS'happening'
p829
I32
sS'your'
p830
I25
sS'wack'
p831
I32
sS'hahahaha'
p832
I32
sS'her'
p833
I29
sS'spending'
p834
I32
sS'weekend'
p835
I32
sS'housing'
p836
I31
sS'there'
p837
I30
sS'relocation'
p838
I32
sS'hey'
p839
I31
sS'lol'
p840
I19
sS'start'
p841
I31
sS'watched'
p842
I32
sS'lot'
p843
I32
sS'suit'
p844
I32
sS'was'
p845
I25
sS'happy'
p846
I30
sS'adidas'
p847
I32
sS'buy'
p848
I31
sS'iont'
p849
I32
sS"i've"
p850
I32
sS'poster'
p851
I32
sS'heal'
p852
I32
sS'bitches'
p853
I28
sS'you"'
p854
I31
sS'but'
p855
I26
sS'fuckkkkkk'
p856
I32
sS'buckingham'
p857
I31
sS'heat'
p858
I32
sS'strawberries'
p859
I32
sS'hear'
p860
I32
sS'boyz'
p861
I32
sS'life-ing'
p862
I32
sS'line'
p863
I29
sS'with'
p864
I21
sS'eat'
p865
I30
sS'raising'
p866
I32
sS'he'
p867
I27
sS"they're"
p868
I32
sS'made'
p869
I30
sS'wish'
p870
I32
sS'up'
p871
I20
sS'us'
p872
I31
sS'until'
p873
I31
sS'limit'
p874
I32
sS'dirty'
p875
I32
sS'nerdy'
p876
I32
sS'cake'
p877
I32
sS'problem'
p878
I32
sS'daddy'
p879
I31
sS'minutes'
p880
I32
sS'called'
p881
I32
sS'uber'
p882
I31
sS'gone'
p883
I29
sS'ab'
p884
I32
sS'sticks'
p885
I32
sS'flat'
p886
I32
sS'taste'
p887
I32
sS'todd'
p888
I32
sS'am'
p889
I30
sS"you've"
p890
I32
sS'an'
p891
I31
sS'fly'
p892
I31
sS'as'
p893
I27
sS'at'
p894
I14
sS'our'
p895
I32
sS'-____-'
p896
I32
sS'door'
p897
I32
sS'annoying'
p898
I31
sS'check'
p899
I32
sS'shit'
p900
I24
sS'posting'
p901
I32
sS'again'
p902
I32
sS'yoga'
p903
I32
sS'pensive'
p904
I32
sS'calm'
p905
I32
sS'no'
p906
I26
sS'nah'
p907
I31
sS'peace'
p908
I31
sS'when'
p909
I18
sS'afford'
p910
I32
sS'setting'
p911
I32
sS'5'
p912
I31
sS'diego'
p913
I32
sS'you'
p914
I4
sS'out'
p915
I25
sS'tia'
p916
I31
sS'nice'
p917
I30
sS'album'
p918
I31
sS'brothers'
p919
I32
sS'monday'
p920
I32
sS'af'
p921
I32
sS'surprise'
p922
I32
sS'football'
p923
I32
sS'forgot'
p924
I32
sS'stay'
p925
I32
sS'a1'
p926
I32
sS'massaaaaadddddddd'
p927
I32
sS'friends'
p928
I31
sS'goin'
p929
I32
sS'remix'
p930
I32
sS'"mama'
p931
I32
sS'longer'
p932
I31
sS'wifi'
p933
I32
sS'loyal'
p934
I32
sS'u'
p935
I26
sS'time'
p936
I25
sS'far'
p937
I32
sS"she's"
p938
I32
sS'having'
p939
I29
sS'once'
p940
I32
s.