(dp0
S''
p1
I2
sS'all'
p2
I14
sS'felicidades'
p3
I25
sS':('
p4
I25
sS':)'
p5
I24
sS'nah...it'
p6
I25
sS'dance'
p7
I25
sS'highways'
p8
I25
sS'manager'
p9
I25
sS'sleep'
p10
I25
sS'go'
p11
I24
sS'bomb'
p12
I25
sS'decisions'
p13
I25
sS'milk'
p14
I24
sS'causes'
p15
I25
sS'seemed'
p16
I25
sS'lukaku'
p17
I25
sS'ver'
p18
I25
sS'j.cole'
p19
I25
sS'concerned'
p20
I25
sS'tu'
p21
I25
sS'vez'
p22
I25
sS'young'
p23
I24
sS'to'
p24
I3
sS'program'
p25
I25
sS'gynn'
p26
I25
sS'holla'
p27
I25
sS'sorry'
p28
I24
sS'te'
p29
I25
sS'friendly'
p30
I25
sS'shoot'
p31
I25
sS'paychecks'
p32
I25
sS'sitting'
p33
I25
sS'far'
p34
I25
sS'than'
p35
I25
sS'fav'
p36
I25
sS'fat'
p37
I25
sS'tacos'
p38
I23
sS'every'
p39
I24
sS'jack'
p40
I24
sS'fall'
p41
I25
sS'blast'
p42
I25
sS'cool'
p43
I24
sS'tickets'
p44
I25
sS'level'
p45
I25
sS'did'
p46
I25
sS'die'
p47
I24
sS'having'
p48
I25
sS'hawaii'
p49
I25
sS'large'
p50
I25
sS'solid'
p51
I25
sS'subway'
p52
I25
sS'team'
p53
I25
sS'quick'
p54
I25
sS'guy'
p55
I24
sS"i'll"
p56
I25
sS'angeles)'
p57
I25
sS'instagram'
p58
I25
sS'tired'
p59
I25
sS'cambiando'
p60
I25
sS'sign'
p61
I25
sS'street'
p62
I25
sS'500k'
p63
I25
sS'pls'
p64
I25
sS'pedo'
p65
I25
sS'10w'
p66
I25
sS'even'
p67
I25
sS'what'
p68
I21
sS'giving'
p69
I23
sS'sun'
p70
I24
sS'+'
p71
I25
sS'gucci'
p72
I25
sS'f*ck'
p73
I25
sS'consistently'
p74
I25
sS'waiting'
p75
I24
sS'fuerza'
p76
I25
sS'capital'
p77
I25
sS'new'
p78
I22
sS'ever'
p79
I24
sS'burn'
p80
I25
sS'mea'
p81
I25
sS'funeral'
p82
I25
sS'never'
p83
I22
sS'commercial'
p84
I25
sS'(los'
p85
I24
sS'\xe2\x9d\xa4\xef\xb8\x8f'
p86
I25
sS'tracks'
p87
I25
sS'studio'
p88
I25
sS'apache'
p89
I25
sS'strong'
p90
I25
sS'teacher'
p91
I25
sS'wait'
p92
I23
sS'box'
p93
I24
sS'great'
p94
I23
sS'standout'
p95
I25
sS'tanzilli)'
p96
I25
sS'ahead'
p97
I25
sS'30'
p98
I25
sS'pics'
p99
I25
sS'fwy'
p100
I25
sS'smoke'
p101
I24
sS"would've"
p102
I25
sS"i'm"
p103
I8
sS'makes'
p104
I25
sS'via'
p105
I25
sS'love'
p106
I20
sS'extra'
p107
I25
sS'siri'
p108
I25
sS'bro'
p109
I24
sS'forsureeeee'
p110
I25
sS'w?\xe2\x80\x9d'
p111
I25
sS'dumbest'
p112
I25
sS'sooooo'
p113
I25
sS'sugar'
p114
I25
sS'use'
p115
I25
sS'from'
p116
I21
sS'would'
p117
I24
sS'&'
p118
I22
sS'runyon'
p119
I25
sS'dude'
p120
I24
sS'tears'
p121
I25
sS'next'
p122
I22
sS'ca)'
p123
I24
sS'going'
p124
I25
sS'call'
p125
I25
sS'thru'
p126
I25
sS'intend'
p127
I25
sS'until'
p128
I25
sS'today'
p129
I19
sS'more'
p130
I24
sS'reventon'
p131
I25
sS'maribel'
p132
I25
sS'laughs'
p133
I25
sS'getting'
p134
I25
sS'corrected'
p135
I25
sS'sister'
p136
I25
sS'chocolate'
p137
I25
sS'99'
p138
I25
sS'phone'
p139
I25
sS'everywhere'
p140
I25
sS'broke'
p141
I25
sS'excellent'
p142
I25
sS"wtf...that's"
p143
I25
sS'me'
p144
I9
sS'tnt'
p145
I25
sS'keeping'
p146
I25
sS'balls'
p147
I25
sS'anything'
p148
I25
sS'hour'
p149
I25
sS'this'
p150
I17
sS'car'
p151
I25
sS'work'
p152
I21
sS'mi'
p153
I25
sS'ranch"'
p154
I25
sS'worth'
p155
I25
sS'sour'
p156
I24
sS'can'
p157
I23
sS'9th'
p158
I25
sS"ravens'"
p159
I25
sS'making'
p160
I25
sS'drops'
p161
I25
sS'my'
p162
I5
sS'dropped'
p163
I25
sS'tree.that'
p164
I25
sS'heart'
p165
I24
sS'give'
p166
I25
sS'indie'
p167
I25
sS"didn't"
p168
I24
sS'fuck'
p169
I23
sS'high'
p170
I24
sS'thug'
p171
I25
sS'stroke'
p172
I25
sS'pulling'
p173
I25
sS'something'
p174
I23
sS'want'
p175
I20
sS'blvd'
p176
I25
sS'tan'
p177
I24
sS'ughhhh'
p178
I25
sS'comes'
p179
I25
sS'sideline'
p180
I25
sS'bunk'
p181
I25
sS'watching'
p182
I24
sS'1'
p183
I25
sS'how'
p184
I23
sS'hot'
p185
I25
sS'ent'
p186
I25
sS'now!!\xe2\x80\x9dthat'
p187
I25
sS'chase'
p188
I24
sS'idk'
p189
I25
sS'snf'
p190
I25
sS'okay'
p191
I25
sS'mess'
p192
I25
sS'max'
p193
I25
sS'after'
p194
I25
sS'expectation'
p195
I25
sS'fb'
p196
I25
sS'barbershop)'
p197
I25
sS'guys'
p198
I25
sS'huevo'
p199
I25
sS'man'
p200
I24
sS'a'
p201
I6
sS'remember'
p202
I25
sS'sept'
p203
I25
sS'appreciate'
p204
I25
sS'st'
p205
I25
sS'q'
p206
I25
sS'so'
p207
I13
sS'sb'
p208
I25
sS'avances'
p209
I25
sS'talk'
p210
I24
sS"that's"
p211
I22
sS'cute'
p212
I23
sS'materialistic'
p213
I25
sS'help'
p214
I25
sS'zed'
p215
I25
sS"don't"
p216
I21
sS'numbers'
p217
I25
sS'over'
p218
I23
sS'kickoff'
p219
I25
sS'lands'
p220
I25
sS'through'
p221
I25
sS'guadalajara'
p222
I25
sS'hell'
p223
I24
sS'still'
p224
I24
sS'its'
p225
I25
sS'roots'
p226
I25
sS'before'
p227
I25
sS'mejores'
p228
I25
sS'needa'
p229
I25
sS'maywheter'
p230
I25
sS'la'
p231
I19
sS'bolsius'
p232
I25
sS'[pic]'
p233
I24
sS'better'
p234
I25
sS'plant.chocolate'
p235
I25
sS'dolly'
p236
I25
sS'for"'
p237
I25
sS'bout'
p238
I25
sS'bye'
p239
I24
sS'might'
p240
I25
sS'pixel'
p241
I25
sS'2013'
p242
I24
sS'happened'
p243
I25
sS'then'
p244
I24
sS'them'
p245
I25
sS'good'
p246
I18
sS'yo'
p247
I24
sS'ya'
p248
I24
sS'nada'
p249
I25
sS'ralphs'
p250
I25
sS'starbucks'
p251
I25
sS'they'
p252
I24
sS'not'
p253
I19
sS'nov'
p254
I25
sS'now'
p255
I20
sS'yu'
p256
I24
sS'day'
p257
I20
sS'nor'
p258
I25
sS'sucked'
p259
I25
sS'cocoa'
p260
I25
sS'failed'
p261
I25
sS'always'
p262
I25
sS'nfl'
p263
I25
sS'ewwww'
p264
I25
sS'irrelevance'
p265
I25
sS'stopped'
p266
I25
sS'05:52:05.0,34.0292129,-118.3541641,2198,i'
p267
I25
sS"isn't"
p268
I25
sS'el'
p269
I23
sS'en'
p270
I25
sS'doing'
p271
I24
sS'there'
p272
I23
sS'buena'
p273
I25
sS'hard'
p274
I24
sS'idea'
p275
I25
sS'dia'
p276
I25
sS'owner'
p277
I25
sS'toda'
p278
I25
sS'tonite'
p279
I25
sS'year'
p280
I25
sS'our'
p281
I25
sS'girl'
p282
I24
sS'saturday'
p283
I25
sS'out'
p284
I16
sS'rt'
p285
I21
sS'driving'
p286
I25
sS'jokes'
p287
I25
sS'open'
p288
I25
sS'since'
p289
I24
sS'looking'
p290
I22
sS'may'
p291
I25
sS'internet'
p292
I25
sS'got'
p293
I20
sS'rn'
p294
I24
sS'cause'
p295
I24
sS'red'
p296
I24
sS'ass'
p297
I23
sS'shut'
p298
I25
sS'tiooo\xe2\x9d\xa4\xef\xb8\x8f'
p299
I25
sS"doesn't"
p300
I24
sS'friday'
p301
I24
sS'little'
p302
I25
sS'free'
p303
I25
sS'release'
p304
I25
sS'hott'
p305
I25
sS'que'
p306
I21
sS'asf'
p307
I25
sS'besides'
p308
I25
sS'x'
p309
I25
sS'put'
p310
I24
sS'largo'
p311
I25
sS'aisle'
p312
I25
sS'100+'
p313
I25
sS'elastic'
p314
I25
sS'visit'
p315
I25
sS'yup'
p316
I25
sS'could'
p317
I25
sS'honest'
p318
I25
sS'thing'
p319
I25
sS'w'
p320
I24
sS'(at'
p321
I24
sS'think'
p322
I25
sS'first'
p323
I24
sS'enjoy'
p324
I25
sS'already'
p325
I24
sS'blown'
p326
I24
sS'feel'
p327
I24
sS'hoop'
p328
I25
sS'one'
p329
I24
sS'fantasy'
p330
I25
sS'bitch'
p331
I24
sS'carry'
p332
I25
sS'sounds'
p333
I25
sS'miss'
p334
I25
sS'tomorrow'
p335
I25
sS'city'
p336
I24
sS'story'
p337
I24
sS'toy'
p338
I25
sS'waffle'
p339
I25
sS'start'
p340
I24
sS'hawks'
p341
I24
sS'least'
p342
I25
sS'their'
p343
I25
sS'california'
p344
I25
sS'too'
p345
I23
sS'grimy'
p346
I25
sS'white'
p347
I25
sS'final'
p348
I25
sS'williams'
p349
I25
sS'\xe2\x9c\x8c\xef\xb8\x8f'
p350
I25
sS'eyes'
p351
I25
sS'way'
p352
I25
sS'that'
p353
I14
sS'season'
p354
I23
sS'took'
p355
I25
sS'cops'
p356
I25
sS'because'
p357
I25
sS'rain'
p358
I25
sS'mobn'
p359
I25
sS'flowers'
p360
I25
sS'hollywood'
p361
I25
sS"here's"
p362
I25
sS'10'
p363
I22
sS'kind'
p364
I25
sS'12'
p365
I25
sS'later)'
p366
I25
sS'gotten'
p367
I25
sS'gotta'
p368
I24
sS'deceos'
p369
I25
sS'war'
p370
I25
sS'decided'
p371
I25
sS'friend'
p372
I25
sS'were'
p373
I25
sS'oath'
p374
I25
sS'bet'
p375
I25
sS'and'
p376
I7
sS'{get'
p377
I25
sS'p.s'
p378
I25
sS'lmaooooo'
p379
I25
sS'alley'
p380
I25
sS'sad'
p381
I24
sS'tonight'
p382
I23
sS'say'
p383
I24
sS'rent'
p384
I25
sS'have'
p385
I21
sS'need'
p386
I24
sS'seen'
p387
I25
sS'breakfast'
p388
I25
sS'vaca'
p389
I25
sS'saw'
p390
I25
sS'nba'
p391
I25
sS'jacks'
p392
I25
sS'nights'
p393
I25
sS'date'
p394
I25
sS'skittles'
p395
I25
sS'-'
p396
I20
sS'mid'
p397
I25
sS'fimilia'
p398
I25
sS'majority'
p399
I25
sS'jefferson'
p400
I25
sS'take'
p401
I25
sS'which'
p402
I25
sS'lindo'
p403
I25
sS'accuracy'
p404
I25
sS'bitching'
p405
I25
sS'play'
p406
I25
sS'sure'
p407
I25
sS'though'
p408
I25
sS'jeff'
p409
I25
sS'who'
p410
I21
sS'kan'
p411
I25
sS',90016\n500882736769277953,monkaypowaa,2014-08-17'
p412
I25
sS'76'
p413
I25
sS'beta'
p414
I25
sS'fountains'
p415
I25
sS'seas'
p416
I25
sS'nothing'
p417
I25
sS'//'
p418
I25
sS'extremely'
p419
I25
sS'why'
p420
I25
sS'forever'
p421
I25
sS'grams'
p422
I25
sS'pulled'
p423
I25
sS'sometimes'
p424
I25
sS'upset'
p425
I25
sS'drive'
p426
I24
sS'brea'
p427
I24
sS'est\xc3\xa1n'
p428
I25
sS'aqu\xc3\xad'
p429
I25
sS'up\xe2\x80\x9d'
p430
I25
sS'came'
p431
I25
sS'pi\xc3\xb1a'
p432
I22
sS'freak'
p433
I25
sS'walking'
p434
I24
sS'playoffs'
p435
I25
sS'show'
p436
I25
sS'pennies'
p437
I25
sS'random'
p438
I25
sS'brother'
p439
I25
sS'longevity'
p440
I25
sS'bring'
p441
I25
sS'fear'
p442
I25
sS'find'
p443
I24
sS'shoes'
p444
I25
sS'aint'
p445
I25
sS'wyrm'
p446
I25
sS'music'
p447
I25
sS'wut'
p448
I25
sS'state'
p449
I25
sS'should'
p450
I25
sS'moments'
p451
I25
sS'only'
p452
I25
sS'wood'
p453
I25
sS'pretty'
p454
I24
sS'gods'
p455
I25
sS'accurate'
p456
I25
sS'lynch'
p457
I25
sS'hip'
p458
I25
sS'do'
p459
I22
sS'00:14:36.0,34.03282386,-118.35526959,2198,girl'
p460
I25
sS'his'
p461
I23
sS'hit'
p462
I24
sS'get'
p463
I19
sS'beat'
p464
I25
sS'dope'
p465
I25
sS'de'
p466
I24
sS'stop'
p467
I25
sS'lucky'
p468
I24
sS'da'
p469
I25
sS'awww'
p470
I25
sS'ones'
p471
I25
sS'happiest'
p472
I25
sS"floyd's"
p473
I25
sS'him'
p474
I23
sS'ghetto'
p475
I25
sS'crawl.\xe2\x80\x9d'
p476
I25
sS'boost'
p477
I25
sS'busiest'
p478
I25
sS'morning'
p479
I24
sS'bag'
p480
I25
sS'bad'
p481
I23
sS'stupid'
p482
I25
sS'gloves'
p483
I25
sS'she'
p484
I22
sS'shots'
p485
I25
sS'hype'
p486
I25
sS"won't"
p487
I25
sS'where'
p488
I24
sS'coward'
p489
I25
sS'blew'
p490
I25
sS'art'
p491
I25
sS'concert'
p492
I24
sS'w/'
p493
I25
sS'see'
p494
I18
sS'defense'
p495
I25
sS'are'
p496
I23
sS'ruined'
p497
I25
sS'arm'
p498
I25
sS'pics...what'
p499
I25
sS'fails'
p500
I25
sS'said'
p501
I24
sS'stats'
p502
I25
sS'movie'
p503
I25
sS'missing'
p504
I25
sS'glorious'
p505
I25
sS'3'
p506
I25
sS'r'
p507
I25
sS'closed'
p508
I25
sS'hopefully'
p509
I25
sS'email'
p510
I25
sS'we'
p511
I21
sS'!,90016\n498984907473842176,this_be_cesar,2014-08-12'
p512
I25
sS'terms'
p513
I25
sS'ability'
p514
I25
sS'opening'
p515
I25
sS'job'
p516
I24
sS'broncos'
p517
I25
sS'here'
p518
I24
sS'news'
p519
I25
sS'cities'
p520
I25
sS'come'
p521
I25
sS'pissed'
p522
I25
sS'deceiving'
p523
I25
sS'store'
p524
I25
sS'last'
p525
I25
sS'pals'
p526
I25
sS'met'
p527
I25
sS'taking'
p528
I25
sS"he's"
p529
I25
sS'metered'
p530
I25
sS'somewhere'
p531
I25
sS'tour'
p532
I25
sS'let'
p533
I25
sS"can't"
p534
I24
sS'con'
p535
I25
sS'comment'
p536
I25
sS'madness'
p537
I25
sS'acostumbra'
p538
I25
sS'seems'
p539
I25
sS'endless'
p540
I25
sS'leon'
p541
I25
sS'cd'
p542
I25
sS'boda'
p543
I25
sS'rpg'
p544
I25
sS'tony'
p545
I25
sS'kings'
p546
I25
sS'crew'
p547
I25
sS'hablame'
p548
I25
sS'yay'
p549
I25
sS"it's"
p550
I20
sS'add'
p551
I25
sS'been'
p552
I23
sS'telemundo'
p553
I25
sS'much'
p554
I23
sS'damn'
p555
I24
sS'bby'
p556
I25
sS'lmao'
p557
I25
sS'ph'
p558
I22
sS'schoolboy'
p559
I25
sS'life'
p560
I20
sS'i\xe2\x80\xa6'
p561
I25
sS'freeway'
p562
I25
sS'gay'
p563
I25
sS'benoit'
p564
I25
sS"what's"
p565
I25
sS'gas'
p566
I25
sS'-.-'
p567
I25
sS'catch'
p568
I25
sS'foggy'
p569
I25
sS'ravens'
p570
I25
sS'jell-o'
p571
I25
sS'cunt'
p572
I25
sS'stolen'
p573
I25
sS'look'
p574
I24
sS'these'
p575
I24
sS'bill'
p576
I25
sS'beats'
p577
I25
sS'fux'
p578
I25
sS'air'
p579
I25
sS'will'
p580
I24
sS'while'
p581
I24
sS'"ballziest"'
p582
I25
sS'ceilings'
p583
I25
sS"haven't"
p584
I25
sS'hahaha'
p585
I24
sS'property'
p586
I25
sS'robin'
p587
I25
sS'2night'
p588
I25
sS'rap'
p589
I25
sS'played'
p590
I25
sS'is'
p591
I7
sS'ir'
p592
I25
sS'it'
p593
I10
sS'rip'
p594
I25
sS'someone'
p595
I25
sS'im'
p596
I24
sS'in'
p597
I10
sS'ready'
p598
I25
sS'debes'
p599
I25
sS'if'
p600
I24
sS'different'
p601
I24
sS'mins'
p602
I25
sS'fkn'
p603
I25
sS'pay'
p604
I25
sS'make'
p605
I21
sS'3rd'
p606
I25
sS'same'
p607
I25
sS'any'
p608
I25
sS'followers'
p609
I25
sS'babies'
p610
I25
sS'gets'
p611
I24
sS'week'
p612
I23
sS'independent'
p613
I25
sS'tiempo'
p614
I25
sS'vegasssss'
p615
I25
sS'lawyers'
p616
I25
sS'20\xc2\xb0'
p617
I25
sS'upon'
p618
I25
sS'issak'
p619
I25
sS'romeo'
p620
I25
sS'novela'
p621
I25
sS'guardians'
p622
I25
sS'fucked'
p623
I25
sS'angle'
p624
I25
sS'weird'
p625
I24
sS'butter'
p626
I25
sS'kno'
p627
I25
sS'off'
p628
I23
sS'thx'
p629
I24
sS'i'
p630
I4
sS'niiice'
p631
I25
sS'well'
p632
I25
sS'tho'
p633
I25
sS'client'
p634
I25
sS'sucio'
p635
I25
sS'y'
p636
I24
sS'the'
p637
I1
sS'spend'
p638
I25
sS'fuerte'
p639
I25
sS'just'
p640
I16
sS'being'
p641
I24
sS'money'
p642
I24
sS'gunna'
p643
I25
sS'front'
p644
I25
sS'tennis'
p645
I25
sS'thanks'
p646
I23
sS'yes'
p647
I25
sS'psychotic'
p648
I25
sS'quiero'
p649
I24
sS'hills'
p650
I25
sS'also'
p651
I25
sS'officially'
p652
I25
sS'lady'
p653
I25
sS'lolllll'
p654
I25
sS'headed'
p655
I25
sS'had'
p656
I21
sS'burrito'
p657
I25
sS'trina'
p658
I25
sS'verse'
p659
I25
sS'ahhhh'
p660
I25
sS'abrazos'
p661
I25
sS'twerk'
p662
I25
sS'283'
p663
I25
sS'has'
p664
I22
sS'excited'
p665
I25
sS'smart'
p666
I25
sS'sandwiches'
p667
I25
sS'real'
p668
I25
sS'concert!}'
p669
I25
sS'around'
p670
I24
sS'blowout'
p671
I25
sS'big'
p672
I24
sS'possible'
p673
I25
sS'gonna'
p674
I24
sS'pass/gas'
p675
I25
sS'game'
p676
I20
sS'traffic'
p677
I24
sS'know'
p678
I20
sS'listening'
p679
I24
sS'everton'
p680
I25
sS'huh\xe2\x80\x9d'
p681
I25
sS'adams'
p682
I25
sS'knock'
p683
I25
sS'(5100'
p684
I25
sS'like'
p685
I11
sS'93\xc2\xb0'
p686
I25
sS'56'
p687
I25
sS'know...i'
p688
I25
sS'cosas'
p689
I25
sS'(ill'
p690
I25
sS'night'
p691
I24
sS'beverly'
p692
I25
sS'chick'
p693
I25
sS'two'
p694
I25
sS'soccer'
p695
I25
sS'shed'
p696
I25
sS'right'
p697
I22
sS'laugh'
p698
I25
sS'people'
p699
I22
sS'scared'
p700
I24
sS'some'
p701
I20
sS'back'
p702
I24
sS'dead'
p703
I25
sS'hair'
p704
I25
sS'lips'
p705
I25
sS'home'
p706
I25
sS'finna'
p707
I24
sS'boulevard'
p708
I25
sS'trust'
p709
I25
sS'unfunny'
p710
I25
sS'mood'
p711
I25
sS'for'
p712
I11
sS'decision'
p713
I25
sS'per'
p714
I25
sS'moon'
p715
I25
sS'algunas'
p716
I25
sS'everything'
p717
I23
sS'does'
p718
I25
sS'21:56:45.0,34.03287347,-118.35075717,2198,this'
p719
I25
sS'be'
p720
I15
sS'claimed'
p721
I25
sS'welcome'
p722
I25
sS'\xe2\x9c\x88\xef\xb8\x8f'
p723
I25
sS'business'
p724
I25
sS'bc'
p725
I25
sS'seconds'
p726
I25
sS'lose'
p727
I25
sS'laker'
p728
I25
sS'00:10:47.0,34.03279112,-118.35536479,2198,when'
p729
I25
sS'\xe2\x98\x86~'
p730
I25
sS'eye'
p731
I25
sS'post'
p732
I24
sS'super'
p733
I25
sS'by'
p734
I23
sS'on'
p735
I14
sS'about'
p736
I20
sS'ok'
p737
I25
sS'working'
p738
I25
sS'deserved'
p739
I25
sS'oh'
p740
I25
sS'of'
p741
I12
sS'favorite'
p742
I25
sS',90016\n498985870179844097,this_be_cesar,2014-08-12'
p743
I25
sS'angeles'
p744
I23
sS'plus'
p745
I25
sS'sweat'
p746
I25
sS'mixed'
p747
I25
sS'shit,90016\n486267600968482818,khadidjabreezy,2014-07-07'
p748
I25
sS'wanna'
p749
I24
sS'or'
p750
I24
sS'road'
p751
I25
sS'ppl'
p752
I25
sS'own'
p753
I25
sS'auntie'
p754
I25
sS'texting'
p755
I24
sS'into'
p756
I24
sS'snapchat'
p757
I25
sS'son'
p758
I25
sS'down'
p759
I23
sS'nigga'
p760
I24
sS'actually'
p761
I25
sS'your'
p762
I22
sS'east'
p763
I25
sS'1984'
p764
I25
sS'fast'
p765
I25
sS'her'
p766
I23
sS'transfer'
p767
I25
sS'support'
p768
I25
sS'placing'
p769
I25
sS'live'
p770
I25
sS'lol'
p771
I18
sS'fight'
p772
I25
sS'los'
p773
I24
sS'development'
p774
I25
sS"we're"
p775
I25
sS'lot'
p776
I25
sS'biggest'
p777
I25
sS'dynamite'
p778
I25
sS'was'
p779
I18
sS'twitter'
p780
I24
sS'happy'
p781
I22
sS'head'
p782
I25
sS'buy'
p783
I25
sS'invite'
p784
I25
sS"i've"
p785
I24
sS'bus'
p786
I24
sS'bitches'
p787
I25
sS'qbr'
p788
I25
sS'but'
p789
I18
sS'06:23:48.0,34.02562874,-118.3553181,2198,can'
p790
I25
sS'loving'
p791
I25
sS'jus'
p792
I25
sS'heat'
p793
I25
sS'atlantic'
p794
I25
sS'line'
p795
I25
sS'trying'
p796
I25
sS'with'
p797
I21
sS'buying'
p798
I25
sS'he'
p799
I20
sS'throw'
p800
I25
sS'pharrell'
p801
I25
sS'fries'
p802
I25
sS'up'
p803
I20
sS'us'
p804
I25
sS'ur'
p805
I24
sS'dick'
p806
I25
sS'un'
p807
I25
sS'jumbo'
p808
I25
sS'>'
p809
I25
sS'ac'
p810
I25
sS'ordered'
p811
I25
sS'jenny'
p812
I24
sS'forgot'
p813
I25
sS'an'
p814
I18
sS'fly'
p815
I25
sS'as'
p816
I21
sS'at'
p817
I14
sS'cura'
p818
I25
sS'check'
p819
I25
sS'shit'
p820
I18
sS'again'
p821
I24
sS'no'
p822
I19
sS'rains'
p823
I25
sS'peace'
p824
I25
sS'when'
p825
I21
sS'treatment'
p826
I25
sS'finish'
p827
I25
sS'5'
p828
I25
sS'culver'
p829
I25
sS'you'
p830
I6
sS'really'
p831
I21
sS"you're"
p832
I24
sS'nice'
p833
I23
sS'scored'
p834
I25
sS'album'
p835
I24
sS'noche'
p836
I25
sS'haha'
p837
I25
sS'lorez'
p838
I25
sS'stay'
p839
I25
sS"let's"
p840
I25
sS'town'
p841
I25
sS"she's"
p842
I24
sS'chris'
p843
I24
sS'song'
p844
I25
sS'weekend'
p845
I25
sS'demographically'
p846
I25
sS'\xe2\x80\x94'
p847
I23
sS'wife'
p848
I25
sS'aceptarlo'
p849
I25
sS'saved'
p850
I25
sS'loyal'
p851
I25
sS'fresh'
p852
I25
sS'u'
p853
I15
sS'time'
p854
I22
sS'alright'
p855
I25
sS"ain't"
p856
I24
sS's\xc3\xb3lo'
p857
I25
sS'corpse'
p858
I25
sS'"works'
p859
I25
sS'hope'
p860
I25
s.