(dp0
S''
p1
I1
sS'jaja'
p2
I30
sS'all'
p3
I29
sS'muero'
p4
I32
sS':('
p5
I21
sS':)'
p6
I30
sS'dance'
p7
I31
sS'bien'
p8
I32
sS'penis'
p9
I32
sS'go'
p10
I23
sS'jason'
p11
I32
sS'sue\xc3\xb1o'
p12
I32
sS'hate'
p13
I31
sS':3'
p14
I32
sS'otro'
p15
I32
sS'looking'
p16
I32
sS'ver'
p17
I32
sS'zone'
p18
I32
sS'ty'
p19
I32
sS'30mil'
p20
I32
sS'tecnolog\xc3\xada'
p21
I32
sS'tweet'
p22
I32
sS'tu'
p23
I32
sS'vez'
p24
I31
sS'otra'
p25
I31
sS'igual'
p26
I32
sS'to'
p27
I5
sS'bonitos'
p28
I32
sS'ti'
p29
I31
sS'ven'
p30
I31
sS'veo'
p31
I32
sS'sorry'
p32
I32
sS'te'
p33
I16
sS'worth'
p34
I32
sS'shoot'
p35
I32
sS'yr'
p36
I32
sS'woman'
p37
I32
sS'esa'
p38
I32
sS'ukulele'
p39
I32
sS'ense\xc3\xb1o'
p40
I32
sS'very'
p41
I32
sS'"little'
p42
I32
sS'tacos'
p43
I31
sS'eso'
p44
I31
sS'vegas'
p45
I32
sS'fan'
p46
I31
sS'jack'
p47
I32
sS'telling'
p48
I32
sS'drinking'
p49
I32
sS'minute'
p50
I31
sS'cool'
p51
I32
sS'pogba'
p52
I32
sS'entire'
p53
I31
sS"we'll"
p54
I30
sS'bajen'
p55
I32
sS'cleaners'
p56
I32
sS'niggas'
p57
I32
sS'haber'
p58
I32
sS'so\xc3\xb1aste'
p59
I32
sS'leave'
p60
I31
sS'"atomic'
p61
I32
sS'diy'
p62
I32
sS'aprendieron'
p63
I32
sS'guy'
p64
I29
sS'rack'
p65
I32
sS"i'll"
p66
I30
sS'the'
p67
I2
sS'says'
p68
I32
sS'instagram'
p69
I32
sS'tired'
p70
I32
sS'ingenue'
p71
I32
sS'carly'
p72
I32
sS'est\xc3\xa1'
p73
I32
sS'sign'
p74
I32
sS'past'
p75
I32
sS'we\xe2\x80\xa6'
p76
I32
sS'basura'
p77
I32
sS'\xe2\x80\x9cqu\xc3\xa9date'
p78
I32
sS'muffs'
p79
I31
sS'suben'
p80
I32
sS'defender'
p81
I32
sS'puedo'
p82
I32
sS'haci\xc3\xa9ndome'
p83
I32
sS'growers'
p84
I32
sS'bruhhhh'
p85
I32
sS'even'
p86
I32
sS'what'
p87
I26
sS'giving'
p88
I32
sS'+'
p89
I31
sS'anniversary'
p90
I32
sS'nea'
p91
I31
sS'waiting'
p92
I32
sS'new'
p93
I23
sS'ever'
p94
I31
sS'estupidos'
p95
I32
sS'nacho'
p96
I32
sS'million'
p97
I32
sS'led'
p98
I32
sS'sept'
p99
I32
sS'50th'
p100
I32
sS'never'
p101
I32
sS'dill'
p102
I32
sS'(los'
p103
I21
sS'cibo'
p104
I32
sS'\xe2\x9d\xa4\xef\xb8\x8f'
p105
I25
sS'juro'
p106
I32
sS'extra\xc3\xb1a'
p107
I32
sS'let'
p108
I32
sS'yummy'
p109
I32
sS"aren't"
p110
I32
sS'extra\xc3\xb1o'
p111
I29
sS'change'
p112
I32
sS'wait'
p113
I32
sS'dry'
p114
I32
sS'boy'
p115
I32
sS'great'
p116
I32
sS'ahead'
p117
I32
sS'changed'
p118
I32
sS'neoyorqui\xc3\xb1o'
p119
I32
sS'bow'
p120
I32
sS'suggests'
p121
I32
sS'airport'
p122
I32
sS'ramos'
p123
I32
sS'situations'
p124
I32
sS"i'm"
p125
I14
sS'portas'
p126
I32
sS'friendzone'
p127
I32
sS'control'
p128
I32
sS'wassup'
p129
I32
sS'love'
p130
I30
sS'saunders'
p131
I32
sS'family'
p132
I32
sS'clara'
p133
I32
sS'long\xe2\x80\x9di'
p134
I32
sS'camino'
p135
I32
sS'ask'
p136
I32
sS'kno'
p137
I32
sS'lurked'
p138
I32
sS'official'
p139
I32
sS'buenas'
p140
I32
sS'so....we'
p141
I32
sS'should'
p142
I32
sS'singing'
p143
I32
sS'minneapolis'
p144
I32
sS'drys'
p145
I32
sS'sweating'
p146
I32
sS'siempre'
p147
I31
sS'from'
p148
I27
sS'would'
p149
I26
sS'&'
p150
I30
sS'illegal'
p151
I32
sS'pulling'
p152
I32
sS'coraz\xc3\xb3n'
p153
I32
sS'visit'
p154
I31
sS'two'
p155
I32
sS'exhausted'
p156
I32
sS'next'
p157
I31
sS'collage/mosaic'
p158
I32
sS'ca)'
p159
I20
sS'vivir'
p160
I32
sS'mother!)'
p161
I32
sS'thru'
p162
I32
sS'tell'
p163
I29
sS'today'
p164
I30
sS'more'
p165
I31
sS'twerked'
p166
I32
sS'entrance'
p167
I32
sS'sharing'
p168
I32
sS'door'
p169
I32
sS'defraudar'
p170
I32
sS'started'
p171
I32
sS'culver'
p172
I32
sS'dar\xc3\xa1s'
p173
I32
sS'under'
p174
I32
sS'haha'
p175
I30
sS'sister'
p176
I32
sS'americano'
p177
I32
sS'mixtape'
p178
I32
sS'eeeeeekkkkkk'
p179
I32
sS'championships'
p180
I32
sS"ain't"
p181
I31
sS'baby'
p182
I32
sS'sabor'
p183
I32
sS'saben'
p184
I32
sS'me'
p185
I6
sS'bomb'
p186
I32
sS'macho'
p187
I31
sS'diosito'
p188
I32
sS'room'
p189
I32
sS'hour'
p190
I31
sS'f'
p191
I32
sS'this'
p192
I15
sS'car'
p193
I32
sS'mi'
p194
I21
sS'niggaz'
p195
I32
sS'nariz'
p196
I32
sS'muhfucka'
p197
I32
sS'del'
p198
I31
sS'can'
p199
I28
sS'ms'
p200
I32
sS'v'
p201
I32
sS'meet'
p202
I32
sS'my'
p203
I10
sS'invierno'
p204
I32
sS'beautiful'
p205
I32
sS'heart'
p206
I32
sS'barbers'
p207
I32
sS'robando'
p208
I32
sS'abrazo'
p209
I32
sS'monica'
p210
I31
sS'cierra'
p211
I32
sS'feos'
p212
I32
sS'awesome'
p213
I30
sS'novio'
p214
I32
sS'fuck'
p215
I32
sS'terrible'
p216
I32
sS'homie'
p217
I32
sS'gorda'
p218
I32
sS'something'
p219
I32
sS'asustas'
p220
I32
sS'dj'
p221
I32
sS'tan'
p222
I32
sS'times'
p223
I32
sS"10's"
p224
I32
sS'decirle'
p225
I32
sS'needs'
p226
I32
sS'end'
p227
I32
sS'awkward'
p228
I32
sS'quit\xc3\xb3'
p229
I32
sS'hoo'
p230
I32
sS'49ers'
p231
I32
sS'comedians'
p232
I32
sS'id'
p233
I32
sS'so\xc3\xb1\xc3\xa9'
p234
I32
sS'how'
p235
I30
sS'amazing'
p236
I30
sS'comedy'
p237
I32
sS'panic'
p238
I32
sS'sin'
p239
I32
sS'\xe2\x80\xa2'
p240
I32
sS'hoy'
p241
I32
sS'staying'
p242
I32
sS'desespera'
p243
I32
sS'bday'
p244
I32
sS'max'
p245
I32
sS'spot'
p246
I32
sS'lab'
p247
I32
sS'birthday'
p248
I31
sS'4to'
p249
I32
sS'titos'
p250
I32
sS'pendejo'
p251
I32
sS'quisiera'
p252
I32
sS'hahahaha'
p253
I32
sS'ties'
p254
I32
sS'mal'
p255
I32
sS'man'
p256
I31
sS'a'
p257
I3
sS'crap'
p258
I32
sS'durmi\xc3\xb3'
p259
I32
sS'\xc3\xa9stos'
p260
I32
sS'sculptures'
p261
I32
sS'exra\xc3\xb1o'
p262
I32
sS'su'
p263
I30
sS'idc'
p264
I32
sS'hasta'
p265
I32
sS'so'
p266
I25
sS'tonights'
p267
I32
sS'worst'
p268
I32
sS'playing'
p269
I32
sS'se'
p270
I24
sS'anyone'
p271
I31
sS'fifa'
p272
I32
sS'cute'
p273
I32
sS'blark'
p274
I32
sS'help'
p275
I31
sS'office'
p276
I32
sS"don't"
p277
I27
sS'faaav'
p278
I32
sS"ma'am"
p279
I32
sS'soon'
p280
I32
sS'migos'
p281
I31
sS'years'
p282
I32
sS'through'
p283
I32
sS'looks'
p284
I31
sS'lmk'
p285
I32
sS'cold'
p286
I32
sS'still'
p287
I29
sS'"eleanor\'s'
p288
I28
sS'its'
p289
I32
sS'24'
p290
I32
sS'1'
p291
I32
sS'style'
p292
I32
sS'detr\xc3\xa1s'
p293
I32
sS'alla'
p294
I32
sS'la'
p295
I16
sS'lo'
p296
I28
sS'gente'
p297
I30
sS'pantalla'
p298
I32
sS'escribiendo'
p299
I32
sS'[pic]'
p300
I30
sS'late'
p301
I32
sS'>>>'
p302
I31
sS'd\xc3\xadas'
p303
I32
sS'pena'
p304
I32
sS'personas'
p305
I30
sS'holiday'
p306
I32
sS'might'
p307
I32
sS'cree'
p308
I32
sS"haven't"
p309
I31
sS'flex'
p310
I32
sS'them'
p311
I32
sS'good'
p312
I29
sS'yo'
p313
I30
sS'food'
p314
I30
sS'workout'
p315
I32
sS'valoran'
p316
I32
sS'jajajajaja'
p317
I32
sS'11'
p318
I32
sS'fuerte'
p319
I32
sS'\xe2\x98\xba\xef\xb8\x8f'
p320
I29
sS'das'
p321
I32
sS'not'
p322
I31
sS'now'
p323
I26
sS'cage'
p324
I32
sS'day'
p325
I25
sS'drogadicto'
p326
I32
sS'nos'
p327
I32
sS'milagro'
p328
I32
sS'tenga.\xe2\x80\x9d'
p329
I32
sS'always'
p330
I29
sS'drop'
p331
I32
sS'ruined'
p332
I32
sS'lucy'
p333
I32
sS'm\xc3\xa1s'
p334
I30
sS'eleanor'
p335
I32
sS'idk'
p336
I32
sS'trap'
p337
I32
sS"hitler's"
p338
I28
sS'sido'
p339
I32
sS'parezco'
p340
I32
sS'went'
p341
I31
sS'side'
p342
I32
sS'mean'
p343
I31
sS'el'
p344
I23
sS'en'
p345
I24
sS'bueno'
p346
I32
sS'latin'
p347
I32
sS'hallway'
p348
I32
sS'doing'
p349
I30
sS'do-do)'
p350
I32
sS'hard'
p351
I31
sS'idea'
p352
I31
sS'$375k'
p353
I32
sS'posible'
p354
I32
sS'society'
p355
I32
sS'calmando'
p356
I32
sS'normandie)'
p357
I32
sS'year'
p358
I32
sS'our'
p359
I32
sS'girl'
p360
I25
sS'calling'
p361
I32
sS'todo'
p362
I31
sS'event'
p363
I26
sS'es'
p364
I29
sS'out'
p365
I25
sS'rt'
p366
I31
sS'somos'
p367
I32
sS'won'
p368
I32
sS'driving'
p369
I32
sS'disgusts'
p370
I32
sS'fiji'
p371
I32
sS'since'
p372
I32
sS'sand'
p373
I32
sS'stumble'
p374
I32
sS'hermoso'
p375
I32
sS'"que'
p376
I32
sS'seriously'
p377
I32
sS'hilarious'
p378
I32
sS'got'
p379
I32
sS'rn'
p380
I30
sS'estresa'
p381
I32
sS'tremenda'
p382
I32
sS'ass'
p383
I30
sS'liftoff"'
p384
I32
sS'foto'
p385
I32
sS'arizona'
p386
I32
sS'bass'
p387
I32
sS'tienen'
p388
I32
sS'friday'
p389
I30
sS'little'
p390
I32
sS'attending'
p391
I32
sS'reason'
p392
I32
sS'base'
p393
I32
sS'que'
p394
I8
sS'put'
p395
I31
sS'van'
p396
I32
sS'asi'
p397
I32
sS'sidewalk'
p398
I32
sS'card'
p399
I32
sS'm.a.a.d'
p400
I32
sS'luego'
p401
I32
sS'route'
p402
I32
sS'days'
p403
I31
sS'show"'
p404
I32
sS'ups'
p405
I32
sS'thing'
p406
I28
sS'american'
p407
I28
sS'fc'
p408
I32
sS'place'
p409
I28
sS'massive'
p410
I32
sS'w'
p411
I28
sS'swing'
p412
I32
sS'dejo'
p413
I32
sS'lax'
p414
I32
sS'(at'
p415
I24
sS'think'
p416
I31
sS'fuckin'
p417
I32
sS'first'
p418
I32
sS'hora'
p419
I32
sS'daniels'
p420
I32
sS'pase'
p421
I32
sS'feel'
p422
I32
sS'taco'
p423
I32
sS'crib'
p424
I32
sS'one'
p425
I29
sS'embarrassed'
p426
I32
sS'again.nothing'
p427
I32
sS'done'
p428
I31
sS'bitch'
p429
I31
sS'delicious'
p430
I32
sS'podr\xc3\xada'
p431
I32
sS'happi'
p432
I32
sS'miss'
p433
I27
sS'tomorrow'
p434
I32
sS'hood'
p435
I32
sS'le\xc3\xaddo'
p436
I32
sS'city'
p437
I30
sS'story'
p438
I28
sS'aire'
p439
I32
sS'start'
p440
I32
sS'esas'
p441
I32
sS'redondo'
p442
I32
sS'bonito'
p443
I32
sS'realidad'
p444
I32
sS'caen'
p445
I32
sS'mami'
p446
I31
sS'attack'
p447
I32
sS'too'
p448
I28
sS'imma'
p449
I32
sS'mama'
p450
I32
sS'dfd'
p451
I32
sS'hollywood'
p452
I32
sS'las'
p453
I29
sS'friend'
p454
I31
sS'cuddling'
p455
I32
sS'lot'
p456
I32
sS'para'
p457
I32
sS'that'
p458
I21
sS'season'
p459
I32
sS'despertar'
p460
I32
sS'park'
p461
I32
sS'took'
p462
I31
sS"i'ma"
p463
I32
sS'burlesque'
p464
I32
sS'because'
p465
I32
sS'cafe-club'
p466
I16
sS'perforaci\xc3\xb3n'
p467
I32
sS'burrito'
p468
I32
sS'overwhelming'
p469
I32
sS'than'
p470
I29
sS'stocking'
p471
I32
sS'"you'
p472
I32
sS'begins'
p473
I32
sS'chef'
p474
I32
sS'bored'
p475
I32
sS'lmao'
p476
I32
sS'gotta'
p477
I32
sS'bed'
p478
I32
sS'matter'
p479
I30
sS'reus'
p480
I32
sS'hemos'
p481
I32
sS'were'
p482
I29
sS'as\xc3\xad'
p483
I32
sS'for\xe2\x80\xa6'
p484
I32
sS'and'
p485
I7
sS'este'
p486
I32
sS'esta'
p487
I30
sS'esto'
p488
I32
sS'mind'
p489
I32
sS'alley'
p490
I32
sS'horrors'
p491
I32
sS'juice'
p492
I32
sS'say'
p493
I32
sS'seco'
p494
I32
sS'have'
p495
I27
sS'hagas'
p496
I32
sS'need'
p497
I27
sS'saw'
p498
I32
sS'deseo'
p499
I32
sS'sat'
p500
I32
sS'sings'
p501
I32
sS'nights'
p502
I31
sS'creek"'
p503
I32
sS'dude'
p504
I32
sS'dancing'
p505
I32
sS'lil'
p506
I32
sS'-'
p507
I24
sS'mueve'
p508
I32
sS'shocked'
p509
I32
sS'zoo'
p510
I32
sS'tiempo'
p511
I32
sS'damn'
p512
I32
sS'v\xc3\xa1monos'
p513
I32
sS'squad'
p514
I32
sS'take'
p515
I31
sS'rafters'
p516
I32
sS'linda'
p517
I32
sS'mis'
p518
I32
sS'='
p519
I29
sS'celular'
p520
I32
sS'nivel'
p521
I32
sS'play'
p522
I30
sS'you&i'
p523
I32
sS'fondo'
p524
I32
sS'vali\xc3\xb3'
p525
I32
sS'who'
p526
I30
sS'que..."'
p527
I32
sS'brags'
p528
I32
sS'jajajaja'
p529
I32
sS'piso'
p530
I32
sS'pair'
p531
I32
sS'\xe2\x80\x94'
p532
I32
sS'ma\xc3\xb1anita'
p533
I32
sS'why'
p534
I28
sS'check'
p535
I32
sS'maria'
p536
I31
sS'zealand'
p537
I32
sS'bumping'
p538
I32
sS'refreshing'
p539
I32
sS'babby'
p540
I32
sS'sale'
p541
I32
sS"you'll"
p542
I32
sS'talk'
p543
I32
sS'aqu\xc3\xad'
p544
I28
sS'responden'
p545
I32
sS'dos'
p546
I31
sS'cama'
p547
I32
sS"that's"
p548
I31
sS'nube'
p549
I32
sS'fact'
p550
I32
sS'zeppelin'
p551
I32
sS'son'
p552
I32
sS'walking'
p553
I32
sS'ugh'
p554
I31
sS'dijo'
p555
I30
sS'\xe2\x9c\xa8'
p556
I32
sS'summer'
p557
I32
sS'tener'
p558
I30
sS'olvidar'
p559
I32
sS'carne'
p560
I32
sS'estoy'
p561
I32
sS'bright'
p562
I32
sS'bedroom'
p563
I32
sS'hace'
p564
I31
sS'cursi'
p565
I32
sS'wuv'
p566
I32
sS'execution'
p567
I32
sS'slow'
p568
I32
sS'giants'
p569
I32
sS'('
p570
I31
sS'baddie'
p571
I32
sS'woo'
p572
I32
sS'stand'
p573
I32
sS'piedra'
p574
I32
sS'nooooo'
p575
I32
sS'terminan'
p576
I32
sS'dreamers'
p577
I32
sS'ah\xc3\xad'
p578
I32
sS'employee'
p579
I32
sS'quieres'
p580
I32
sS'posted'
p581
I32
sS'truck)'
p582
I32
sS'libro'
p583
I31
sS'hope'
p584
I32
sS'rica'
p585
I32
sS'porque'
p586
I31
sS'do'
p587
I18
sS'his'
p588
I30
sS'hit'
p589
I32
sS'get'
p590
I28
sS'df'
p591
I31
sS'dope'
p592
I32
sS'de'
p593
I14
sS'stop'
p594
I32
sS'throw'
p595
I32
sS'llorar'
p596
I32
sS'state'
p597
I32
sS'neta'
p598
I32
sS'reallllyyyy'
p599
I32
sS'during'
p600
I32
sS'him'
p601
I31
sS'audio'
p602
I32
sS'veeeeeen'
p603
I32
sS'sandwich'
p604
I32
sS'comprar'
p605
I32
sS'book'
p606
I32
sS'bad'
p607
I29
sS'bae'
p608
I32
sS'she'
p609
I30
sS'verdad'
p610
I31
sS'where'
p611
I32
sS'16th'
p612
I32
sS'yippie'
p613
I32
sS'recuerdos'
p614
I32
sS'siguiera'
p615
I32
sS'set'
p616
I32
sS'fais'
p617
I13
sS'w/'
p618
I29
sS'hosting'
p619
I32
sS'mueven'
p620
I32
sS'see'
p621
I28
sS'relatable'
p622
I32
sS'are'
p623
I29
sS'contar'
p624
I32
sS'bloqueada'
p625
I32
sS'vacaciones'
p626
I32
sS'estamos'
p627
I32
sS'best'
p628
I30
sS'dungeon'
p629
I32
sS'said'
p630
I32
sS'hambre'
p631
I32
sS'venden'
p632
I32
sS'anfo'
p633
I32
sS'harvey'
p634
I32
sS'wow'
p635
I31
sS'nebula'
p636
I32
sS'muy'
p637
I31
sS'ventr\xc3\xadculo'
p638
I32
sS'injuries'
p639
I32
sS'dodgers'
p640
I32
sS'fans'
p641
I32
sS'destino'
p642
I32
sS'estas'
p643
I30
sS'hopefully'
p644
I32
sS':d'
p645
I32
sS'vender'
p646
I32
sS'alguien'
p647
I27
sS'we'
p648
I27
sS'makeup'
p649
I32
sS'omg'
p650
I32
sS'moment'
p651
I32
sS'era'
p652
I32
sS'sold'
p653
I32
sS'attention'
p654
I32
sS'cheap'
p655
I32
sS'boss'
p656
I32
sS'the\xe2\x80\xa6'
p657
I32
sS'debiste'
p658
I32
sS'despu\xc3\xa9s'
p659
I32
sS'here'
p660
I32
sS'como'
p661
I29
sS'hurts'
p662
I32
sS'condo'
p663
I32
sS'agarren'
p664
I32
sS'come'
p665
I32
sS'pissed'
p666
I32
sS'kitchen'
p667
I32
sS'both'
p668
I32
sS'horrifying'
p669
I32
sS'last'
p670
I27
sS'restaurant'
p671
I30
sS'regreeeet'
p672
I32
sS'taking'
p673
I32
sS'ahora'
p674
I31
sS'una'
p675
I27
sS'do-do'
p676
I16
sS'context'
p677
I32
sS'quien'
p678
I32
sS'china'
p679
I32
sS'desastre'
p680
I32
sS'whole'
p681
I32
sS"can't"
p682
I29
sS'con'
p683
I23
sS'dm'
p684
I32
sS'motherfuckers'
p685
I32
sS'wtf'
p686
I31
sS'headed'
p687
I31
sS'had'
p688
I31
sS'ca'
p689
I31
sS'rocktde'
p690
I32
sS'cuando'
p691
I30
sS'dolla'
p692
I32
sS'"baby'
p693
I32
sS'envidia'
p694
I32
sS'matto'
p695
I32
sS'pensamiento'
p696
I32
sS'jays'
p697
I32
sS'101'
p698
I32
sS'<<<<'
p699
I32
sS'xabi'
p700
I32
sS'ribery'
p701
I32
sS"it's"
p702
I29
sS'lets'
p703
I32
sS'been'
p704
I29
sS'aunque'
p705
I32
sS'mueran'
p706
I32
sS'telemundo'
p707
I32
sS'much'
p708
I32
sS'arte'
p709
I32
sS'basic'
p710
I32
sS'curtain'
p711
I32
sS'celebration'
p712
I32
sS'reply'
p713
I32
sS'repetido'
p714
I32
sS'field'
p715
I32
sS'aquellos'
p716
I32
sS'shopping'
p717
I32
sS'fire'
p718
I32
sS'going'
p719
I32
sS"what's"
p720
I32
sS'star'
p721
I32
sS'al'
p722
I30
sS'defensive'
p723
I32
sS'understand'
p724
I31
sS'-.-'
p725
I32
sS'aqui'
p726
I32
sS'tis'
p727
I32
sS'sound'
p728
I32
sS'remy'
p729
I32
sS'bye'
p730
I32
sS'casa'
p731
I30
sS'look'
p732
I31
sS'these'
p733
I32
sS'vees'
p734
I32
sS'sex'
p735
I32
sS'as'
p736
I30
sS'd\xc3\xadgaselo'
p737
I32
sS'while'
p738
I30
sS'pressed'
p739
I32
sS'hahaha'
p740
I32
sS'paco'
p741
I32
sS'ustedes'
p742
I32
sS"wouldn't"
p743
I32
sS'comingggg'
p744
I32
sS'va'
p745
I31
sS'unos'
p746
I32
sS'balling'
p747
I32
sS'susi'
p748
I29
sS'is'
p749
I9
sS'it'
p750
I25
sS'middle'
p751
I32
sS'cant'
p752
I32
sS'im'
p753
I32
sS'in'
p754
I11
sS'ready'
p755
I30
sS'encargamos'
p756
I32
sS'pics'
p757
I32
sS'd\xc3\xada'
p758
I32
sS'voy'
p759
I29
sS'if'
p760
I32
sS'happy'
p761
I32
sS'ilusionar'
p762
I32
sS'shirt'
p763
I32
sS'anymore'
p764
I32
sS'credit'
p765
I32
sS')'
p766
I32
sS'pay'
p767
I32
sS'make'
p768
I30
sS'thoo'
p769
I32
sS'same'
p770
I31
sS'any'
p771
I32
sS'ya'
p772
I19
sS'shooting'
p773
I32
sS'castillo'
p774
I32
sS'taxidermy'
p775
I32
sS'waste'
p776
I32
sS'party'
p777
I32
sS'gets'
p778
I31
sS'nada'
p779
I32
sS'todos'
p780
I30
sS'week'
p781
I32
sS'horrores'
p782
I32
sS'yooo'
p783
I32
sS'alot'
p784
I32
sS'buscando'
p785
I32
sS'tambi\xc3\xa9n'
p786
I32
sS'blue'
p787
I32
sS'fridge'
p788
I32
sS'running'
p789
I32
sS'illara'
p790
I32
sS'deff'
p791
I32
sS'kim'
p792
I31
sS'jealous'
p793
I31
sS'darle'
p794
I32
sS'mayra'
p795
I32
sS'costa'
p796
I32
sS'off'
p797
I32
sS'center'
p798
I32
sS'i'
p799
I4
sS'try'
p800
I32
sS'hago'
p801
I32
sS'regretting'
p802
I32
sS'cheer'
p803
I32
sS'without'
p804
I31
sS'pupusas'
p805
I32
sS'noticiero'
p806
I32
sS'y'
p807
I17
sS'nachos'
p808
I31
sS'chemistry'
p809
I32
sS'flakey'
p810
I32
sS'left'
p811
I31
sS'halamadrid'
p812
I32
sS'they'
p813
I32
sS'just'
p814
I26
sS'being'
p815
I32
sS'photo'
p816
I32
sS'enjoy'
p817
I32
sS'f\xc3\xa1cil'
p818
I32
sS'blueray'
p819
I32
sS'nishavida'
p820
I32
sS'germany"'
p821
I28
sS'momento'
p822
I30
sS'thanks'
p823
I30
sS'mirandose'
p824
I32
sS'guille'
p825
I32
sS'yes'
p826
I32
sS'doran'
p827
I32
sS'yet'
p828
I32
sS'nuestro'
p829
I32
sS's\xc3\xad'
p830
I31
sS'handshake'
p831
I32
sS'quiero'
p832
I31
sS'helping'
p833
I32
sS'errand'
p834
I32
sS'normandie'
p835
I31
sS'tim'
p836
I32
sS'thinking'
p837
I32
sS'vida'
p838
I31
sS"everyone's"
p839
I32
sS'seems'
p840
I31
sS'cuz'
p841
I31
sS'odio'
p842
I32
sS'hay'
p843
I31
sS'shout'
p844
I32
sS'nicki'
p845
I32
sS'sydney'
p846
I32
sS'has'
p847
I32
sS'excited'
p848
I32
sS'match'
p849
I32
sS'gave'
p850
I32
sS'real'
p851
I30
sS'complaint'
p852
I32
sS'australia'
p853
I32
sS'around'
p854
I31
sS'amo'
p855
I30
sS'gustas'
p856
I32
sS'por'
p857
I32
sS'showing'
p858
I32
sS'triste'
p859
I31
sS'witchu'
p860
I32
sS'game'
p861
I30
sS'laggin'
p862
I32
sS'know'
p863
I28
sS'mom'
p864
I31
sS'tanto'
p865
I31
sS'world'
p866
I32
sS'amaneci\xc3\xb3'
p867
I32
sS'like'
p868
I29
sS'shoulder'
p869
I32
sS'venderla'
p870
I32
sS'depot'
p871
I29
sS'c\xc3\xa1mara'
p872
I32
sS'adams'
p873
I31
sS'puedes'
p874
I32
sS'rides'
p875
I32
sS'performing'
p876
I32
sS'honestly'
p877
I32
sS'52'
p878
I32
sS'cosas'
p879
I31
sS'true'
p880
I32
sS'oaxaca'
p881
I32
sS't'
p882
I32
sS'night'
p883
I30
sS'amor'
p884
I31
sS'page'
p885
I32
sS'nigga'
p886
I31
sS'salvadore\xc3\xb1os'
p887
I32
sS'school'
p888
I32
sS'deal'
p889
I32
sS'people'
p890
I32
sS'fucking'
p891
I32
sS'madrid'
p892
I31
sS'twitter'
p893
I31
sS'tonites'
p894
I32
sS'some'
p895
I28
sS'back'
p896
I31
sS'unnecessary'
p897
I32
sS'wonderland'
p898
I32
sS'home'
p899
I31
sS'gonna'
p900
I32
sS'ourselves'
p901
I32
sS'yesss'
p902
I32
sS'mood'
p903
I32
sS'for'
p904
I12
sS'pues'
p905
I32
sS'killing'
p906
I32
sS'ese'
p907
I31
sS'does'
p908
I32
sS'cray...man'
p909
I32
sS'"dumb"'
p910
I32
sS'oxley'
p911
I32
sS'screwed'
p912
I32
sS'mucho'
p913
I32
sS'be'
p914
I25
sS'eating'
p915
I32
sS'asap'
p916
I32
sS'flossing'
p917
I32
sS'laker'
p918
I32
sS'use'
p919
I32
sS'puede'
p920
I32
sS'nuevo'
p921
I31
sS'santa'
p922
I31
sS'yay'
p923
I32
sS'r'
p924
I32
sS'actuaci\xc3\xb3n'
p925
I32
sS'by'
p926
I31
sS'stage'
p927
I31
sS'on'
p928
I24
sS'about'
p929
I28
sS'veces'
p930
I31
sS'ok'
p931
I31
sS'oh'
p932
I29
sS'esperamos'
p933
I32
sS'of'
p934
I19
sS'mommy'
p935
I32
sS'howard'
p936
I32
sS'hot'
p937
I32
sS'angeles'
p938
I19
sS'watch'
p939
I32
sS'range'
p940
I32
sS'swear'
p941
I32
sS'algo'
p942
I30
sS'cuantos'
p943
I32
sS'esperar'
p944
I32
sS'wanna'
p945
I30
sS'or'
p946
I30
sS'decidi\xc3\xb3'
p947
I32
sS'arriero'
p948
I32
sS'tribe'
p949
I32
sS'client'
p950
I32
sS'mets'
p951
I32
sS'pero'
p952
I25
sS'into'
p953
I32
sS'ahi'
p954
I32
sS'afecta'
p955
I32
sS'three'
p956
I32
sS'nothing'
p957
I32
sS'right'
p958
I29
sS'show'
p959
I32
sS'moreeee'
p960
I32
sS'steven'
p961
I32
sS'soy'
p962
I31
sS'honduras'
p963
I32
sS'happening'
p964
I32
sS'your'
p965
I27
sS'behind'
p966
I32
sS'encontre'
p967
I32
sS'guerra"'
p968
I32
sS't\xc3\xba'
p969
I32
sS'her'
p970
I27
sS'weekend'
p971
I32
sS'there'
p972
I28
sS'hey'
p973
I31
sS'lol'
p974
I30
sS'raped'
p975
I32
sS'los'
p976
I28
sS'tacks'
p977
I32
sS'died'
p978
I32
sS'way'
p979
I32
sS'bruh'
p980
I32
sS'biggest'
p981
I32
sS'vas'
p982
I31
sS'icon'
p983
I32
sS'was'
p984
I28
sS'boo'
p985
I32
sS'coolin'
p986
I32
sS'north'
p987
I32
sS'drive'
p988
I32
sS"i've"
p989
I32
sS'fasho'
p990
I32
sS'siga'
p991
I32
sS'but'
p992
I26
sS'completo'
p993
I32
sS'tanques'
p994
I32
sS'familia'
p995
I32
sS'yhu'
p996
I32
sS'robar'
p997
I31
sS'necesidad'
p998
I32
sS'with'
p999
I21
sS'eat'
p1000
I29
sS'he'
p1001
I28
sS'viva'
p1002
I32
sS"they're"
p1003
I32
sS'||'
p1004
I32
sS'lovely'
p1005
I32
sS'full'
p1006
I32
sS'wish'
p1007
I32
sS'morning'
p1008
I32
sS'annoying'
p1009
I32
sS'up'
p1010
I25
sS'peso'
p1011
I32
sS'un'
p1012
I27
sS'qu\xc3\xa9'
p1013
I32
sS'daddy'
p1014
I32
sS'olvida'
p1015
I32
sS'gone'
p1016
I32
sS'freak'
p1017
I32
sS'baseball."'
p1018
I32
sS'af'
p1019
I32
sS'minaj'
p1020
I32
sS'feliz'
p1021
I31
sS'pienses'
p1022
I32
sS'am'
p1023
I31
sS'life'
p1024
I30
sS'mundo'
p1025
I31
sS'an'
p1026
I22
sS'deb\xc3\xad'
p1027
I32
sS'salir'
p1028
I32
sS'tengo'
p1029
I31
sS'at'
p1030
I14
sS'bagsnbikes'
p1031
I32
sS'cafe'
p1032
I29
sS'happen'
p1033
I31
sS'shit'
p1034
I32
sS'posting'
p1035
I32
sS'alg\xc3\xban'
p1036
I32
sS'rainy'
p1037
I32
sS'maybe'
p1038
I32
sS'loud'
p1039
I32
sS'no'
p1040
I13
sS'open'
p1041
I32
sS'pale'
p1042
I32
sS'when'
p1043
I27
sS'mente'
p1044
I32
sS'cuenta'
p1045
I31
sS'3years'
p1046
I32
sS'club'
p1047
I32
sS'other'
p1048
I32
sS'5'
p1049
I32
sS'boom'
p1050
I32
sS'sick'
p1051
I32
sS'test'
p1052
I32
sS'you'
p1053
I7
sS'really'
p1054
I31
sS'pacifico'
p1055
I32
sS'10'
p1056
I32
sS'stat'
p1057
I32
sS'ur'
p1058
I32
sS'chiodos'
p1059
I32
sS'offensive'
p1060
I32
sS'miren'
p1061
I32
sS'class'
p1062
I32
sS'teeth'
p1063
I32
sS'papa'
p1064
I32
sS"let's"
p1065
I32
sS"m&m's"
p1066
I32
sS'chance'
p1067
I32
sS'important'
p1068
I32
sS'kinda'
p1069
I32
sS'terry'
p1070
I32
sS'chris'
p1071
I32
sS'siento'
p1072
I30
sS'aprendido'
p1073
I32
sS'slang'
p1074
I32
sS'remix'
p1075
I32
sS'land'
p1076
I32
sS'studio'
p1077
I32
sS'longer'
p1078
I31
sS'dvd'
p1079
I32
sS'dog'
p1080
I32
sS'having'
p1081
I32
sS'dayone'
p1082
I32
sS'write'
p1083
I32
sS'u'
p1084
I28
sS'chafa'
p1085
I32
sS'time'
p1086
I24
sS'far'
p1087
I32
sS'wake'
p1088
I32
sS'callo'
p1089
I32
sS'hello'
p1090
I32
sS'songs'
p1091
I32
s.