(dp0
S''
p1
I1
sS'all'
p2
I16
sS':('
p3
I19
sS':)'
p4
I17
sS'dinero-'
p5
I19
sS'dranks'
p6
I19
sS'sleep'
p7
I19
sS'go'
p8
I18
sS'follow'
p9
I19
sS'sue\xc3\xb1o'
p10
I19
sS'chillin'
p11
I19
sS'forget'
p12
I19
sS'mucho'
p13
I18
sS'mexicali'
p14
I19
sS'feeding'
p15
I19
sS'yummy'
p16
I19
sS'young'
p17
I19
sS'igual'
p18
I19
sS'to'
p19
I6
sS'bike'
p20
I19
sS'helps'
p21
I19
sS'under'
p22
I19
sS'women'
p23
I19
sS'tb'
p24
I19
sS'worth'
p25
I19
sS'me'
p26
I8
sS'woman'
p27
I19
sS'papi!"'
p28
I19
sS'vera'
p29
I19
sS'alcoholics'
p30
I19
sS'putting'
p31
I19
sS'got'
p32
I19
sS'cook'
p33
I19
sS'exact'
p34
I19
sS'monkeys'
p35
I19
sS'minute'
p36
I19
sS'margarita'
p37
I19
sS'bestfriend'
p38
I19
sS'did'
p39
I18
sS'leave'
p40
I19
sS'llo'
p41
I19
sS'fairfax'
p42
I19
sS'clothes'
p43
I19
sS"i'll"
p44
I19
sS'instagram'
p45
I19
sS'intensives'
p46
I19
sS'street'
p47
I19
sS'video'
p48
I19
sS'tree"\xe2\x80\x9d'
p49
I19
sS'bake'
p50
I19
sS'port'
p51
I19
sS'shining'
p52
I19
sS'will'
p53
I18
sS'what'
p54
I17
sS'giving'
p55
I19
sS'sweaty'
p56
I18
sS'babies?\xe2\x80\x9d'
p57
I19
sS'waiting'
p58
I19
sS'version'
p59
I19
sS'abt'
p60
I19
sS'goes'
p61
I19
sS'new'
p62
I17
sS'told'
p63
I19
sS'led'
p64
I19
sS'never'
p65
I17
sS'diapers'
p66
I19
sS'here'
p67
I18
sS'met'
p68
I19
sS'sealed'
p69
I19
sS'let'
p70
I16
sS'quite'
p71
I19
sS'change'
p72
I19
sS'settling'
p73
I19
sS'boy'
p74
I19
sS'talent'
p75
I19
sS'k'
p76
I18
sS'changed'
p77
I19
sS'creepy'
p78
I19
sS'complicated'
p79
I19
sS"i'm"
p80
I14
sS'fallecio'
p81
I19
sS'love'
p82
I16
sS'fake'
p83
I19
sS"sister's"
p84
I19
sS'total'
p85
I19
sS'skreets'
p86
I19
sS"rip'd"
p87
I19
sS'from'
p88
I14
sS'&'
p89
I13
sS'wiped'
p90
I19
sS'pero'
p91
I19
sS'two'
p92
I19
sS'next'
p93
I18
sS"hillary's"
p94
I19
sS'jam'
p95
I19
sS'until'
p96
I19
sS'today'
p97
I18
sS'more'
p98
I19
sS'babe'
p99
I19
sS'club'
p100
I19
sS'getting'
p101
I19
sS'haha'
p102
I14
sS'award'
p103
I18
sS'fuck'
p104
I18
sS'phone'
p105
I19
sS"ain't"
p106
I19
sS'dios'
p107
I19
sS'baby'
p108
I16
sS'karaoke'
p109
I19
sS'must'
p110
I19
sS'annoy'
p111
I19
sS'none'
p112
I19
sS'word'
p113
I19
sS'this'
p114
I12
sS'work'
p115
I17
sS'mi'
p116
I19
sS'can'
p117
I18
sS'ms'
p118
I19
sS'criticizing'
p119
I19
sS'hansel'
p120
I19
sS'diooosssss'
p121
I19
sS'my'
p122
I5
sS'heart'
p123
I18
sS'activities'
p124
I19
sS'confused'
p125
I19
sS'boycott'
p126
I19
sS'high'
p127
I19
sS'slit'
p128
I19
sS'breathing'
p129
I19
sS'something'
p130
I18
sS'want'
p131
I19
sS'blvd'
p132
I19
sS'skirt'
p133
I19
sS'wayyyy'
p134
I19
sS'purr'
p135
I19
sS'end'
p136
I19
sS'song'
p137
I18
sS'how'
p138
I17
sS'sunday'
p139
I19
sS'beach'
p140
I19
sS'slappin'
p141
I19
sS'laundry'
p142
I19
sS'bish'
p143
I19
sS'may'
p144
I19
sS'stop'
p145
I19
sS'swiiiiirrrl'
p146
I19
sS'crashed'
p147
I19
sS'wrong'
p148
I19
sS'wrist'
p149
I19
sS'jajaja'
p150
I19
sS'coming'
p151
I19
sS'hahahaha'
p152
I16
sS'man'
p153
I18
sS'a'
p154
I4
sS'selfies'
p155
I19
sS'whenever'
p156
I19
sS'tweeting'
p157
I19
sS'thangs'
p158
I19
sS'bruh'
p159
I19
sS'honestly'
p160
I19
sS'every'
p161
I19
sS'"boom'
p162
I19
sS'wind'
p163
I19
sS"that's"
p164
I17
sS'cute'
p165
I19
sS'office'
p166
I19
sS"don't"
p167
I17
sS'soon'
p168
I19
sS'artichoke'
p169
I19
sS'^___^'
p170
I19
sS'still'
p171
I18
sS'its'
p172
I17
sS'ima'
p173
I19
sS'thank'
p174
I19
sS'la'
p175
I19
sS'buscan'
p176
I19
sS'[pic]'
p177
I19
sS'better'
p178
I19
sS'platform'
p179
I19
sS'production'
p180
I19
sS'tweets'
p181
I19
sS'cool'
p182
I19
sS'might'
p183
I19
sS'happened'
p184
I19
sS'then'
p185
I19
sS'them'
p186
I18
sS'good'
p187
I18
sS'somebody'
p188
I19
sS'yo'
p189
I18
sS'ya'
p190
I18
sS'peeing'
p191
I19
sS'they'
p192
I18
sS'not'
p193
I16
sS'now'
p194
I15
sS'day'
p195
I18
sS'alex'
p196
I19
sS'bless'
p197
I19
sS'readyd'
p198
I19
sS'rock'
p199
I19
sS'done'
p200
I19
sS'friendship'
p201
I19
sS"isn't"
p202
I19
sS'knowwww'
p203
I19
sS'everyone'
p204
I19
sS'barios'
p205
I19
sS'doing'
p206
I18
sS'house'
p207
I19
sS'energy'
p208
I19
sS'yeah'
p209
I17
sS'crawlin'
p210
I19
sS'line'
p211
I19
sS'our'
p212
I19
sS'girl'
p213
I18
sS'out'
p214
I16
sS'rt'
p215
I19
sS'living'
p216
I19
sS'driving'
p217
I19
sS'god'
p218
I18
sS'ha'
p219
I19
sS'seriously'
p220
I19
sS'bae'
p221
I18
sS'formula'
p222
I19
sS'smog'
p223
I19
sS'she'
p224
I19
sS'ass'
p225
I19
sS'cutest'
p226
I19
sS'hang'
p227
I19
sS'friday'
p228
I19
sS'fthe'
p229
I19
sS'kayla'
p230
I19
sS'que'
p231
I17
sS'wanted'
p232
I19
sS'starts'
p233
I19
sS'days'
p234
I19
sS'american'
p235
I19
sS'w'
p236
I19
sS'fuckin'
p237
I19
sS'first'
p238
I19
sS'already'
p239
I19
sS'feel'
p240
I17
sS'number'
p241
I19
sS'xd'
p242
I18
sS'one'
p243
I18
sS'twinkie'
p244
I19
sS'bitch'
p245
I19
sS'another'
p246
I18
sS'blows'
p247
I19
sS'tomorrow'
p248
I19
sS"you're"
p249
I19
sS'little'
p250
I17
sS'basketball'
p251
I19
sS'girls'
p252
I19
sS"he'll"
p253
I19
sS'reppin'
p254
I19
sS'2'
p255
I18
sS'too'
p256
I17
sS'passed'
p257
I19
sS'time'
p258
I19
sS'white'
p259
I19
sS'bitter'
p260
I19
sS'queria'
p261
I19
sS'lot'
p262
I19
sS'that'
p263
I15
sS'dtla'
p264
I19
sS'exactly'
p265
I19
sS'took'
p266
I19
sS'zeppelin'
p267
I19
sS'nahh'
p268
I18
sS'believe'
p269
I19
sS'lmao'
p270
I17
sS'appealing'
p271
I19
sS'flame'
p272
I19
sS'gigantic'
p273
I19
sS'feeling'
p274
I19
sS'quoteables'
p275
I19
sS'and'
p276
I7
sS'outta'
p277
I19
sS'san'
p278
I19
sS'angel'
p279
I19
sS'mine'
p280
I19
sS'tonight'
p281
I18
sS'talking'
p282
I17
sS'buy'
p283
I19
sS'comedian'
p284
I19
sS'priestlytemple'
p285
I18
sS'have'
p286
I13
sS'need'
p287
I19
sS'importa'
p288
I19
sS'saw'
p289
I18
sS'any'
p290
I18
sS'gear'
p291
I19
sS'lie'
p292
I19
sS'wilson'
p293
I19
sS'lil'
p294
I19
sS'-'
p295
I18
sS'peligro'
p296
I19
sS'click'
p297
I19
sS'also'
p298
I19
sS'take'
p299
I17
sS'babes'
p300
I19
sS'academy'
p301
I19
sS'so'
p302
I13
sS'korean'
p303
I19
sS'begin'
p304
I19
sS'quote'
p305
I19
sS'who'
p306
I19
sS'off\xe2\x80\x9d'
p307
I19
sS'multiply'
p308
I19
sS'knee'
p309
I19
sS'why'
p310
I19
sS'forever'
p311
I19
sS'especially'
p312
I19
sS'camp'
p313
I19
sS'omahh'
p314
I19
sS'face'
p315
I19
sS"miguel's"
p316
I19
sS'pineapple'
p317
I19
sS'annoyed'
p318
I19
sS'.work'
p319
I19
sS'saying'
p320
I19
sS'\xe2\x9c\xa8'
p321
I19
sS'lyrics'
p322
I19
sS'show'
p323
I19
sS'text'
p324
I19
sS'agreed'
p325
I19
sS'colors'
p326
I19
sS'radio'
p327
I19
sS'hace'
p328
I18
sS'find'
p329
I19
sS'nemesis'
p330
I19
sS'tire'
p331
I19
sS'('
p332
I18
sS'should'
p333
I19
sS'kse'
p334
I19
sS'theme'
p335
I19
sS'going'
p336
I19
sS'pretty'
p337
I18
sS'\xe2\x98\x80\xe2\x80\x9d'
p338
I19
sS'coronaca'
p339
I19
sS'posted'
p340
I19
sS'hope'
p341
I16
sS'meant'
p342
I19
sS'do'
p343
I17
sS'his'
p344
I18
sS'get'
p345
I16
sS'beat'
p346
I19
sS'de'
p347
I19
sS'watch'
p348
I19
sS'lucky'
p349
I19
sS'da'
p350
I19
sS"all'lat"
p351
I19
sS'nigguh'
p352
I18
sS'dye'
p353
I19
sS'roadster'
p354
I19
sS'$10000000'
p355
I19
sS'artist'
p356
I19
sS'mnoni:-('
p357
I19
sS'54k'
p358
I19
sS'stuff'
p359
I19
sS'common'
p360
I19
sS'x'
p361
I19
sS'yeasss'
p362
I19
sS'w/a'
p363
I19
sS'preach'
p364
I18
sS"y'all"
p365
I18
sS'blew'
p366
I19
sS'set'
p367
I19
sS'honesty'
p368
I19
sS'see'
p369
I18
sS'are'
p370
I15
sS'corro'
p371
I19
sS'retweet'
p372
I18
sS'said'
p373
I18
sS'stats'
p374
I19
sS'visiting'
p375
I19
sS'movie'
p376
I19
sS'please'
p377
I19
sS'birds'
p378
I19
sS'3'
p379
I19
sS'vocals'
p380
I19
sS'across'
p381
I19
sS'alguien'
p382
I19
sS'piss'
p383
I19
sS'llsma'
p384
I19
sS'we'
p385
I16
sS'men'
p386
I19
sS'omg'
p387
I18
sS'amen'
p388
I19
sS'zone)'
p389
I19
sS'philanthropist'
p390
I19
sS'd.i.y'
p391
I19
sS'jk'
p392
I18
sS'come'
p393
I19
sS'cos'
p394
I19
sS'girl-then'
p395
I19
sS'last'
p396
I19
sS'aloe'
p397
I19
sS'pimping'
p398
I19
sS"wouldn't"
p399
I19
sS'restroom'
p400
I19
sS'una'
p401
I19
sS's'
p402
I19
sS'busted'
p403
I19
sS'games'
p404
I19
sS"can't"
p405
I14
sS'seems'
p406
I19
sS'tons'
p407
I19
sS"couldn't"
p408
I19
sS'winning'
p409
I19
sS'cramps'
p410
I19
sS'three'
p411
I19
sS'wright'
p412
I19
sS"it's"
p413
I19
sS'ingrata'
p414
I19
sS'been'
p415
I18
sS'hitting'
p416
I19
sS'motives'
p417
I19
sS'venir'
p418
I19
sS'trueeee'
p419
I19
sS'sunshine'
p420
I19
sS'"hola'
p421
I19
sS'gal'
p422
I19
sS'lives'
p423
I19
sS'compromised'
p424
I19
sS'those'
p425
I19
sS'soccer'
p426
I19
sS'look'
p427
I18
sS'these'
p428
I18
sS'vanilla'
p429
I18
sS'wyatt'
p430
I19
sS'ugly'
p431
I19
sS'while'
p432
I18
sS'boom"'
p433
I19
sS'many'
p434
I19
sS'fun'
p435
I19
sS'taking'
p436
I19
sS'chilling'
p437
I19
sS'moth'
p438
I19
sS'is'
p439
I9
sS'it'
p440
I11
sS'helped'
p441
I19
sS'someone'
p442
I19
sS'im'
p443
I14
sS'experience'
p444
I19
sS'in'
p445
I15
sS'ready'
p446
I18
sS'conditioner'
p447
I19
sS'everyday'
p448
I19
sS'ig'
p449
I19
sS'if'
p450
I15
sS'things'
p451
I19
sS'make'
p452
I15
sS'naaah'
p453
I19
sS'clearly'
p454
I19
sS'food'
p455
I19
sS'babies'
p456
I18
sS'gets'
p457
I19
sS'pumas'
p458
I19
sS'arctic'
p459
I19
sS'driver'
p460
I19
sS'crazayyyy'
p461
I19
sS'fucken'
p462
I19
sS'purpose'
p463
I19
sS'lol\xe2\x80\x9d'
p464
I19
sS'totally'
p465
I19
sS'aka'
p466
I19
sS'hahaha'
p467
I19
sS'weave'
p468
I19
sS'underneath'
p469
I19
sS'off'
p470
I19
sS'i'
p471
I2
sS'drip'
p472
I19
sS'grind'
p473
I19
sS'thought'
p474
I19
sS'y'
p475
I18
sS'the'
p476
I3
sS'kaksdns'
p477
I19
sS'yours'
p478
I19
sS'belee'
p479
I19
sS'okie-doke'
p480
I19
sS'cous'
p481
I19
sS'just'
p482
I13
sS'being'
p483
I18
sS'money'
p484
I19
sS"should've"
p485
I19
sS'actress'
p486
I19
sS'idol-actually'
p487
I19
sS'yes'
p488
I18
sS'yr'
p489
I19
sS'cus'
p490
I19
sS'cup'
p491
I19
sS'had'
p492
I17
sS'gavw'
p493
I19
sS'sometimes'
p494
I19
sS'shouting'
p495
I19
sS'homies'
p496
I19
sS'has'
p497
I18
sS'real'
p498
I18
sS'around'
p499
I19
sS'pharell'
p500
I19
sS'gonna'
p501
I16
sS'swirl'
p502
I19
sS'know'
p503
I19
sS'world'
p504
I19
sS'lady'
p505
I18
sS'fools'
p506
I19
sS'fortune'
p507
I19
sS'like'
p508
I10
sS'obligaron'
p509
I19
sS'gangsters'
p510
I19
sS'true'
p511
I19
sS'keke'
p512
I19
sS'either'
p513
I18
sS'night'
p514
I18
sS'become'
p515
I19
sS'right'
p516
I15
sS'old'
p517
I18
sS'laugh'
p518
I19
sS'fucking'
p519
I19
sS'"beautiful"'
p520
I19
sS'back'
p521
I17
sS'alive'
p522
I19
sS'hair'
p523
I19
sS'lips'
p524
I19
sS'homo'
p525
I19
sS'home'
p526
I18
sS'yesss'
p527
I19
sS'booming'
p528
I19
sS'gosh'
p529
I19
sS'mood'
p530
I19
sS'for'
p531
I16
sS'em*'
p532
I19
sS'daddy'
p533
I19
sS'overlap'
p534
I19
sS'cannabis'
p535
I19
sS'ahahahah'
p536
I19
sS'steps'
p537
I19
sS'dat'
p538
I19
sS'hustle'
p539
I19
sS'bd'
p540
I19
sS'be'
p541
I11
sS'pls'
p542
I19
sS'lmfao'
p543
I17
sS'post'
p544
I19
sS'by'
p545
I19
sS'on'
p546
I12
sS'about'
p547
I17
sS'oh'
p548
I19
sS'of'
p549
I15
sS'boldly'
p550
I19
sS'swear'
p551
I19
sS'hueva'
p552
I19
sS'idk'
p553
I19
sS'neighbor'
p554
I19
sS'or'
p555
I19
sS'seeing'
p556
I19
sS'own'
p557
I18
sS'pussy'
p558
I18
sS'aliens'
p559
I19
sS'parsley'
p560
I19
sS'down'
p561
I19
sS'juicing'
p562
I19
sS'hija'
p563
I19
sS'learning'
p564
I19
sS'actually'
p565
I19
sS'your'
p566
I18
sS'impressed'
p567
I19
sS'her'
p568
I16
sS'flying'
p569
I19
sS'lol'
p570
I9
sS"we're"
p571
I18
sS'way'
p572
I17
sS'dumping'
p573
I19
sS'was'
p574
I13
sS'fish'
p575
I19
sS'happy'
p576
I19
sS'vicente'
p577
I19
sS'only'
p578
I19
sS"i've"
p579
I19
sS'but'
p580
I14
sS'hi'
p581
I18
sS'eas'
p582
I19
sS'\xe2\x99\xa5'
p583
I19
sS'with'
p584
I11
sS'he'
p585
I18
sS'.i'
p586
I19
sS'made'
p587
I19
sS'nigga\xe2\x80\x9d'
p588
I19
sS"flyin'"
p589
I19
sS'up'
p590
I17
sS'ur'
p591
I19
sS'whiskey'
p592
I19
sS'faded'
p593
I19
sS'loving'
p594
I19
sS'called'
p595
I19
sS'gone'
p596
I19
sS'flop'
p597
I19
sS'classic'
p598
I19
sS'tesla'
p599
I19
sS'upset'
p600
I19
sS'pic'
p601
I19
sS'am'
p602
I19
sS'deep'
p603
I19
sS'an'
p604
I18
sS'"cousin"'
p605
I19
sS'as'
p606
I19
sS'exist'
p607
I19
sS'at'
p608
I19
sS'ay'
p609
I19
sS'lifetime'
p610
I19
sS'annoying'
p611
I19
sS'eric'
p612
I19
sS'shit'
p613
I17
sS'no'
p614
I18
sS'45'
p615
I19
sS'when'
p616
I16
sS'lately'
p617
I19
sS'started'
p618
I19
sS'definitely'
p619
I19
sS'whet'
p620
I19
sS'test'
p621
I19
sS'tie'
p622
I19
sS'you'
p623
I6
sS'really'
p624
I18
sS'dresser'
p625
I19
sS'star'
p626
I19
sS'backbone'
p627
I19
sS'papa'
p628
I18
sS'kinda'
p629
I19
sS'a\xc3\xb1o'
p630
I19
sS'chocolate'
p631
I16
sS'friends'
p632
I19
sS'original'
p633
I19
sS'lift'
p634
I19
sS'u'
p635
I19
sS'literally'
p636
I19
sS"she's"
p637
I19
sS'having'
p638
I18
s.