(dp0
S''
p1
I2
sS'all'
p2
I21
sS'faded!,90018\n492576247621234688,cali_lyftim,2014-07-25'
p3
I24
sS':('
p4
I24
sS'forget'
p5
I24
sS'chinese'
p6
I24
sS'impression'
p7
I24
sS'olympians'
p8
I24
sS'walking'
p9
I24
sS'burritos'
p10
I24
sS'woods'
p11
I24
sS'sleep'
p12
I22
sS'two,90018\n491071227885150211,jcruuise,2014-07-21'
p13
I24
sS'go'
p14
I18
sS'bomb'
p15
I24
sS'mill'
p16
I24
sS'milk'
p17
I24
sS'gi'
p18
I23
sS'daaaaaamnnnn'
p19
I24
sS'tu'
p20
I24
sS'clark\xe2\x80\xa6'
p21
I24
sS'send'
p22
I23
sS'to'
p23
I3
sS'finally'
p24
I24
sS'sorry'
p25
I24
sS'must'
p26
I24
sS'worth'
p27
I24
sS'town'
p28
I24
sS'woman'
p29
I24
sS'worse'
p30
I24
sS'far'
p31
I24
sS'keeping'
p32
I24
sS'ahhhhhh,90018\n401893332676120576,ruthdances247,2013-11-17'
p33
I24
sS'every'
p34
I23
sS"won't"
p35
I24
sS'fall'
p36
I24
sS'drinking'
p37
I24
sS'blast'
p38
I24
sS'monkeys'
p39
I24
sS'biceps'
p40
I24
sS'did'
p41
I22
sS'brother'
p42
I24
sS'leave'
p43
I24
sS'01:52:59.0,34.03129984,-118.31765809,2214.01,no'
p44
I24
sS'soooo'
p45
I24
sS'engrossing'
p46
I24
sS'by..witcha'
p47
I24
sS'14:02:42.0,34.0317117,-118.3147036,2214.01,i'
p48
I24
sS'21-1'
p49
I24
sS'bonfire'
p50
I24
sS'clothes'
p51
I24
sS"i'll"
p52
I22
sS'olympic'
p53
I23
sS'says'
p54
I24
sS'foundation'
p55
I22
sS'bacon'
p56
I24
sS'lately,90018\n495570388534198273,erionaudio,2014-08-02'
p57
I24
sS'discussing'
p58
I24
sS'street'
p59
I24
sS'pass'
p60
I24
sS'gimotorsports_la'
p61
I24
sS'patient'
p62
I23
sS'olympism'
p63
I24
sS'odd'
p64
I24
sS'others)'
p65
I24
sS'even'
p66
I22
sS'what'
p67
I18
sS'chicago'
p68
I24
sS'giving'
p69
I24
sS'fine'
p70
I24
sS'sum'
p71
I24
sS'liberty'
p72
I24
sS'crush'
p73
I24
sS'lights'
p74
I24
sS'cuddle'
p75
I24
sS'la84'
p76
I22
sS'jackasses'
p77
I24
sS'new'
p78
I21
sS'learned'
p79
I24
sS'supporting'
p80
I24
sS'million'
p81
I24
sS'hungover'
p82
I24
sS'never'
p83
I22
sS'here'
p84
I24
sS'leo'
p85
I24
sS'water'
p86
I24
sS'explore'
p87
I24
sS'let'
p88
I24
sS'andrews'
p89
I23
sS'alone'
p90
I24
sS'mulroney'
p91
I24
sS"aren't"
p92
I24
sS'nooks'
p93
I24
sS'wait'
p94
I23
sS'great'
p95
I23
sS'crime)'
p96
I24
sS'shift'
p97
I24
sS'later'
p98
I24
sS'smoke'
p99
I24
sS'boo'
p100
I23
sS"i'm"
p101
I19
sS'thats'
p102
I24
sS'streak'
p103
I24
sS'ipa'
p104
I24
sS'love'
p105
I15
sS'clark'
p106
I22
sS'extra'
p107
I24
sS'win'
p108
I24
sS'logical'
p109
I24
sS'bro'
p110
I24
sS'put'
p111
I24
sS'duck'
p112
I24
sS'txt'
p113
I24
sS'la-la'
p114
I24
sS'fed'
p115
I24
sS'from'
p116
I22
sS'metropolitan'
p117
I23
sS'working'
p118
I24
sS'&'
p119
I24
sS'donuts'
p120
I24
sS'hospital'
p121
I24
sS'00:55:12.0,34.0365789,-118.3160418,2214.01,eye'
p122
I24
sS'visit'
p123
I24
sS'two'
p124
I24
sS'next'
p125
I23
sS'ca)'
p126
I24
sS'wayne'
p127
I24
sS'music'
p128
I24
sS'iphone'
p129
I24
sS'6'
p130
I23
sS'means'
p131
I24
sS'hiding'
p132
I24
sS'type'
p133
I23
sS'today'
p134
I19
sS'more'
p135
I22
sS'tryna'
p136
I23
sS'booty'
p137
I24
sS'door'
p138
I24
sS'19:23:18.0,34.03506061,-118.30934799,2214.01,so'
p139
I24
sS'haha'
p140
I23
sS'sister'
p141
I24
sS'award'
p142
I24
sS'motorsports'
p143
I23
sS'dood'
p144
I24
sS'everywhere'
p145
I24
sS'broke'
p146
I24
sS'19:24:31.0,34.03647639,-118.30900717,2214.01,going'
p147
I24
sS'glad'
p148
I24
sS'whisky'
p149
I23
sS'me'
p150
I11
sS'states'
p151
I24
sS'account'
p152
I24
sS'word'
p153
I24
sS'room'
p154
I23
sS'this'
p155
I13
sS'car'
p156
I24
sS'athlete'
p157
I24
sS'work'
p158
I24
sS'donut'
p159
I24
sS'hardest'
p160
I24
sS'anywhere'
p161
I23
sS'obvious'
p162
I24
sS'can'
p163
I21
sS'meet'
p164
I24
sS'my'
p165
I8
sS'reviewing'
p166
I24
sS'beautiful'
p167
I22
sS'crazy'
p168
I23
sS'give'
p169
I23
sS'awesome'
p170
I24
sS'tax'
p171
I24
sS'fuck'
p172
I24
sS'honey'
p173
I23
sS'something'
p174
I23
sS'want'
p175
I21
sS'allowed'
p176
I24
sS'2946'
p177
I23
sS'b4'
p178
I24
sS'keep'
p179
I24
sS'huge'
p180
I24
sS'needs'
p181
I23
sS'united'
p182
I24
sS'06:23:54.0,34.03661947,-118.31111144,2214.01,i'
p183
I24
sS'watching'
p184
I22
sS'nuts'
p185
I24
sS'how'
p186
I23
sS'amazing'
p187
I24
sS'cual'
p188
I24
sS'puns'
p189
I24
sS'tepee'
p190
I24
sS'gurl'
p191
I24
sS'de'
p192
I24
sS'gtfo'
p193
I24
sS'briefcase'
p194
I23
sS'monica'
p195
I24
sS'may'
p196
I24
sS'stop'
p197
I24
sS'saddens'
p198
I24
sS',90018\n465695288032624640,kaisolecita,2014-05-12'
p199
I24
sS'birthday'
p200
I24
sS'lay'
p201
I23
sS'malt'
p202
I24
sS'coming'
p203
I24
sS'fitzgerald'
p204
I24
sS'types'
p205
I24
sS'man'
p206
I23
sS'a'
p207
I7
sS'remember'
p208
I24
sS'johnson'
p209
I24
sS'light'
p210
I24
sS'bashing'
p211
I24
sS'so'
p212
I12
sS'1000'
p213
I24
sS'athletes'
p214
I24
sS'playing'
p215
I24
sS"that's"
p216
I23
sS'voltz'
p217
I24
sS'acts'
p218
I24
sS'help'
p219
I23
sS"don't"
p220
I18
sS'06:34:53.0,34.0361089,-118.3130523,2214.01,santa'
p221
I24
sS'over'
p222
I21
sS'sooo'
p223
I22
sS'soon'
p224
I24
sS'years'
p225
I24
sS'brain'
p226
I24
sS'through'
p227
I24
sS'looks'
p228
I22
sS'chu,90018\n472701256419782656,nvkf_,2014-05-31'
p229
I24
sS'still'
p230
I23
sS'its'
p231
I22
sS'before'
p232
I24
sS'ima'
p233
I23
sS'police'
p234
I24
sS'thank'
p235
I24
sS'la'
p236
I22
sS'lo'
p237
I24
sS'appetizers'
p238
I24
sS'sunday'
p239
I24
sS'crew'
p240
I23
sS'lv'
p241
I24
sS'macallan'
p242
I24
sS'dawwwww'
p243
I24
sS'dermot'
p244
I24
sS'nerding'
p245
I24
sS'2014'
p246
I24
sS'might'
p247
I24
sS'easier'
p248
I24
sS'fight,90018\n444259630852501504,nvkf_,2014-03-13'
p249
I24
sS'2012'
p250
I24
sS'then'
p251
I21
sS'them'
p252
I24
sS'good'
p253
I22
sS'somebody'
p254
I24
sS'ya'
p255
I23
sS'lunch'
p256
I23
sS"you've"
p257
I24
sS'\xe2\x98\xba\xef\xb8\x8f'
p258
I23
sS'not'
p259
I22
sS'now'
p260
I21
sS'day'
p261
I18
sS'good,90018\n462820305065373696,nvkf_,2014-05-04'
p262
I24
sS'bryan'
p263
I24
sS'impresario'
p264
I24
sS'alex'
p265
I24
sS"07:58:52.0,34.03659152,-118.30920372,2214.01,i'm"
p266
I24
sS'historic\xe2\x80\xa6'
p267
I24
sS'l'
p268
I24
sS'ales'
p269
I24
sS'03:35:31.0,34.03506061,-118.30934799,2214.01,good'
p270
I24
sS'weather'
p271
I24
sS'triceps'
p272
I24
sS'found'
p273
I23
sS'photoshoot'
p274
I24
sS'el'
p275
I24
sS'everyone'
p276
I21
sS'weeknd'
p277
I24
sS'delicious'
p278
I24
sS'benita'
p279
I24
sS'doing'
p280
I24
sS'house'
p281
I24
sS'twatching'
p282
I24
sS'idea'
p283
I24
sS'behold'
p284
I24
sS'impossible'
p285
I24
sS'our'
p286
I20
sS'girl'
p287
I23
sS'calling'
p288
I24
sS'event'
p289
I24
sS'es'
p290
I24
sS'out'
p291
I20
sS'try'
p292
I24
sS'love,90018\n467795011350720512,nvkf_,2014-05-17'
p293
I24
sS'god'
p294
I24
sS'robert'
p295
I24
sS'hours,90018\n472627255135322114,sergioorock,2014-05-31'
p296
I24
sS'daniel'
p297
I23
sS'smh'
p298
I24
sS'got'
p299
I23
sS'rn'
p300
I24
sS'receiving'
p301
I24
sS'ass'
p302
I24
sS'eagle'
p303
I24
sS'shut'
p304
I24
sS'hula'
p305
I24
sS"you're"
p306
I22
sS'cars'
p307
I24
sS'friday'
p308
I22
sS'free'
p309
I22
sS'extraordinary'
p310
I24
sS'git'
p311
I24
sS'ask'
p312
I24
sS'teach'
p313
I24
sS'hand'
p314
I24
sS'weird,90018\n468951161878634496,nvkf_,2014-05-21'
p315
I24
sS'dammit'
p316
I24
sS'service'
p317
I24
sS'cigarette,90018\n497950490965966848,logannorris11,2014-08-09'
p318
I24
sS'yup'
p319
I24
sS'could'
p320
I24
sS'times'
p321
I24
sS'thing'
p322
I24
sS'place'
p323
I23
sS'w'
p324
I24
sS'promotion'
p325
I24
sS'think'
p326
I24
sS'mad'
p327
I23
sS'angelou'
p328
I24
sS'major'
p329
I24
sS'dont'
p330
I23
sS'>>'
p331
I24
sS'hoop'
p332
I24
sS'one'
p333
I20
sS'infinite'
p334
I24
sS'head,90018\n498377928938242049,jamescorleone26,2014-08-10'
p335
I24
sS'long'
p336
I24
sS'another'
p337
I21
sS'vote'
p338
I23
sS'neighborhood'
p339
I23
sS'sounds'
p340
I23
sS'open'
p341
I24
sS'conga'
p342
I24
sS"'em"
p343
I23
sS'rented'
p344
I24
sS"doesn't"
p345
I23
sS'little'
p346
I23
sS'guest'
p347
I24
sS'district'
p348
I22
sS'ceviche'
p349
I24
sS'l.a'
p350
I24
sS'caught'
p351
I23
sS'girls'
p352
I24
sS'least'
p353
I24
sS'mami'
p354
I24
sS'w/'
p355
I24
sS'wonderful'
p356
I24
sS'dumbass'
p357
I24
sS'too'
p358
I22
sS'white'
p359
I24
sS'eyes'
p360
I24
sS'rewards'
p361
I23
sS'lot'
p362
I23
sS'allegedly'
p363
I24
sS'that'
p364
I11
sS'academy'
p365
I24
sS'nobody'
p366
I24
sS'park'
p367
I24
sS'part'
p368
I23
sS'grandpa'
p369
I24
sS'western'
p370
I24
sS'theater'
p371
I24
sS'.,90018\n467946318128631808,abvndbyd,2014-05-18'
p372
I24
sS'believe'
p373
I24
sS'elite'
p374
I24
sS'than'
p375
I23
sS'royal'
p376
I24
sS'lmao'
p377
I22
sS'showed'
p378
I24
sS"15:56:08.0,34.03506061,-118.30934799,2214.01,let's"
p379
I24
sS'double'
p380
I24
sS'gotta'
p381
I24
sS'youth'
p382
I24
sS'r'
p383
I21
sS'loves'
p384
I24
sS'were'
p385
I24
sS'feeling'
p386
I24
sS'unfollowwd'
p387
I24
sS'for\xe2\x80\xa6'
p388
I24
sS'and'
p389
I5
sS'mini'
p390
I24
sS'outta'
p391
I24
sS'cohen'
p392
I24
sS'mind'
p393
I23
sS'cheeseburger'
p394
I24
sS'tonight'
p395
I23
sS'talking'
p396
I23
sS'say'
p397
I24
sS'slam'
p398
I24
sS'well)'
p399
I24
sS'have'
p400
I19
sS'need'
p401
I20
sS'breakfast'
p402
I24
sS'j/k'
p403
I24
sS'any'
p404
I23
sS',90018\n411743330855165952,ruthdances247,2013-12-14'
p405
I24
sS'04:04:39.0,34.0310787,-118.3172883,2214.01,blue'
p406
I24
sS'screw'
p407
I24
sS'wilson'
p408
I24
sS'jans'
p409
I24
sS'relationship'
p410
I24
sS'congrats'
p411
I24
sS'studying'
p412
I24
sS'mic'
p413
I24
sS'-'
p414
I24
sS'oh'
p415
I24
sS'oak'
p416
I24
sS'mix'
p417
I23
sS'high'
p418
I24
sS'hookah'
p419
I24
sS'take'
p420
I23
sS',90018\n406253353589420033,arinhayes,2013-11-29'
p421
I24
sS'performance'
p422
I24
sS'02:03:31.0,34.03363996,-118.30917053,2214.01,i'
p423
I24
sS'salle'
p424
I23
sS'blue'
p425
I24
sS'play'
p426
I24
sS'bitches'
p427
I24
sS'patterson'
p428
I24
sS'sfx'
p429
I24
sS'though'
p430
I23
sS'\xe2\x9d\xa4\xef\xb8\x8f,90018\n410998875508326400,ruthdances247,2013-12-12'
p431
I24
sS'collaboration'
p432
I23
sS'it!,90018\n440524085106188288,ruthdances247,2014-03-03'
p433
I24
sS"where's"
p434
I24
sS'rumble'
p435
I24
sS'voice)'
p436
I24
sS'nothing'
p437
I22
sS'\xe2\x80\x94'
p438
I24
sS'why'
p439
I23
sS'funnier'
p440
I24
sS'won'
p441
I24
sS'dream'
p442
I24
sS'medical'
p443
I24
sS'adopt'
p444
I24
sS'drive'
p445
I24
sS'spill'
p446
I24
sS'adams\xe2\x80\xa6'
p447
I24
sS'doves'
p448
I24
sS'takis'
p449
I24
sS'poppers'
p450
I24
sS'shot'
p451
I24
sS'310.913.6909'
p452
I24
sS'gold'
p453
I24
sS'text'
p454
I24
sS'(in'
p455
I24
sS'random'
p456
I23
sS'bring'
p457
I24
sS'twitters'
p458
I24
sS"windermere's"
p459
I24
sS'change,90018\n'
p460
I24
sS'chicken'
p461
I24
sS'planninh'
p462
I24
sS'find'
p463
I23
sS'02:48:41.0,34.03378072,-118.31759809,2214.01,i'
p464
I24
sS'flowers'
p465
I24
sS'wut'
p466
I24
sS"gotta'"
p467
I23
sS'bust'
p468
I24
sS'should'
p469
I23
sS'(victimless'
p470
I24
sS'only'
p471
I24
sS'landia'
p472
I24
sS'black'
p473
I23
sS'money'
p474
I23
sS'pirate'
p475
I24
sS'first'
p476
I24
sS'do'
p477
I18
sS"vista's"
p478
I24
sS'his'
p479
I24
sS'hit'
p480
I23
sS'brelyevans'
p481
I24
sS'godzilla'
p482
I24
sS'get'
p483
I16
sS'beat'
p484
I24
sS'08:14:58.0,34.0364414,-118.3129979,2214.01,im'
p485
I24
sS'watch'
p486
I23
sS'saturday'
p487
I24
sS'ira'
p488
I24
sS'2'
p489
I24
sS'trade'
p490
I24
sS'him'
p491
I23
sS'(meaning'
p492
I24
sS'classier'
p493
I24
sS'cry'
p494
I22
sS'morning'
p495
I23
sS":'("
p496
I24
sS'stupid'
p497
I23
sS'gloves'
p498
I24
sS'she'
p499
I20
sS'lyric'
p500
I24
sS'where'
p501
I22
sS'set'
p502
I22
sS'alllllrighhhhhty'
p503
I24
sS'physically'
p504
I24
sS'316'
p505
I24
sS'see'
p506
I23
sS'computer'
p507
I24
sS'asleep'
p508
I24
sS'are'
p509
I19
sS'parking'
p510
I24
sS'best'
p511
I22
sS'seems'
p512
I24
sS'said'
p513
I24
sS'luv'
p514
I23
sS'nailed'
p515
I24
sS'please'
p516
I23
sS'enough'
p517
I23
sS'from\xe2\x80\xa6'
p518
I24
sS'hopefully'
p519
I24
sS'probably'
p520
I24
sS'against,90018\n495569109359534081,erionaudio,2014-08-02'
p521
I24
sS'nope'
p522
I23
sS'slugs'
p523
I24
sS'we'
p524
I20
sS'men'
p525
I23
sS'gramercy'
p526
I24
sS'22:33:16.0,34.03635437,-118.31519885,2214.01,damn'
p527
I24
sS'sold'
p528
I24
sS'attention'
p529
I24
sS'however'
p530
I24
sS'otherwise'
p531
I24
sS'weat'
p532
I24
sS'wear'
p533
I24
sS'hunnid'
p534
I24
sS'jk'
p535
I23
sS'come'
p536
I24
sS'fan"'
p537
I24
sS'cashing'
p538
I23
sS'many'
p539
I21
sS"wouldn't"
p540
I24
sS"he's"
p541
I23
sS'x)'
p542
I24
sS'conference'
p543
I24
sS'mmmhmm'
p544
I24
sS'games'
p545
I24
sS'atleast'
p546
I24
sS'puff'
p547
I24
sS'whole'
p548
I23
sS"can't"
p549
I21
sS'grounds'
p550
I24
sS'10:30pm'
p551
I24
sS'afterwards'
p552
I24
sS'cancer'
p553
I23
sS'point'
p554
I24
sS'sweet'
p555
I23
sS'jeans'
p556
I23
sS'pop'
p557
I24
sS',90018\n491363658199351296,jcruuise,2014-07-21'
p558
I24
sS'anti'
p559
I24
sS'rave'
p560
I24
sS'respect'
p561
I23
sS'dj'
p562
I24
sS'west'
p563
I18
sS'ucla'
p564
I24
sS'been'
p565
I22
sS'beer'
p566
I24
sS'much'
p567
I22
sS'damn'
p568
I24
sS'"lady'
p569
I24
sS'05:05:42.0,34.03658469,-118.30917648,2214.01,so'
p570
I24
sS',90018\n401792920203718656,ruthdances247,2013-11-16'
p571
I24
sS'life'
p572
I21
sS'champion'
p573
I24
sS'graveyard'
p574
I24
sS'drugs'
p575
I24
sS'going'
p576
I24
sS"what's"
p577
I22
sS'andrew'
p578
I24
sS'kisser'
p579
I24
sS'buyin'
p580
I24
sS'hmm'
p581
I24
sS'whatever'
p582
I24
sS'awake'
p583
I23
sS'pleasse'
p584
I24
sS'smoking'
p585
I24
sS'chili'
p586
I24
sS'champions'
p587
I24
sS'chill'
p588
I24
sS'case'
p589
I24
sS'homes'
p590
I23
sS'myself'
p591
I24
sS'righteous'
p592
I24
sS'kyoryug'
p593
I24
sS'look'
p594
I24
sS'these'
p595
I24
sS'polls'
p596
I24
sS'single'
p597
I24
sS'n'
p598
I24
sS'will'
p599
I19
sS'while'
p600
I24
sS'country'
p601
I24
sS'11:28:56.0,34.03620507,-118.30917078,2214.01,homegirl'
p602
I24
sS'decides'
p603
I24
sS'ill'
p604
I24
sS'pronounce,90018\n482436914813743104,simonhedvat,2014-06-27'
p605
I24
sS'guestlist'
p606
I24
sS'03:07:24.0,34.03300671,-118.31071247,2214.01,i'
p607
I24
sS'is'
p608
I6
sS'it'
p609
I11
sS'sleeping'
p610
I24
sS'00s'
p611
I24
sS'someone'
p612
I22
sS'im'
p613
I23
sS'in'
p614
I9
sS'partner'
p615
I24
sS'(l.)'
p616
I24
sS'if'
p617
I15
sS'gone'
p618
I24
sS'funny'
p619
I24
sS'memorial'
p620
I23
sS'juan'
p621
I24
sS'bottles'
p622
I24
sS'friendster'
p623
I24
sS'perhaps'
p624
I24
sS'things'
p625
I23
sS'make'
p626
I22
sS'dope!,90018\n439850600256524289,petrol_girl,2014-03-01'
p627
I24
sS'same'
p628
I24
sS'member'
p629
I24
sS'food'
p630
I24
sS'pepper'
p631
I24
sS'party'
p632
I24
sS'gets'
p633
I24
sS'bunny'
p634
I23
sS'week'
p635
I23
sS'independent'
p636
I23
sS'finish'
p637
I24
sS'23:26:39.0,34.0310787,-118.3172883,2214.01,get'
p638
I24
sS'morenos'
p639
I24
sS'weed'
p640
I23
sS'fruit'
p641
I24
sS'fucked'
p642
I24
sS'totally'
p643
I24
sS'mentally'
p644
I24
sS'\xe2\x9c\x8c\xef\xb8\x8f'
p645
I24
sS'support\xe2\x80\xa6'
p646
I24
sS'off'
p647
I23
sS'center'
p648
I24
sS'smokey'
p649
I24
sS'i'
p650
I4
sS'stack)'
p651
I24
sS'well'
p652
I22
sS'roughly'
p653
I24
sS'357'
p654
I24
sS'person'
p655
I22
sS'bottle'
p656
I24
sS'03:40:23.0,34.03665749,-118.3158633,2214.01,l-o-v-e'
p657
I24
sS'very'
p658
I24
sS'traffic'
p659
I24
sS'the'
p660
I1
sS'homeward'
p661
I24
sS'wake'
p662
I24
sS'left'
p663
I24
sS'summer'
p664
I24
sS'outdoor'
p665
I24
sS'they'
p666
I23
sS'just'
p667
I20
sS'photo'
p668
I23
sS'kill'
p669
I24
sS'yet'
p670
I24
sS'cut'
p671
I24
sS'helping'
p672
I24
sS'cm'
p673
I24
sS'baldwin\xe2\x80\xa6'
p674
I24
sS'guts'
p675
I24
sS'had'
p676
I23
sS'west\xe2\x80\xa6'
p677
I24
sS'hag'
p678
I24
sS'blog'
p679
I23
sS'hay'
p680
I23
sS'lets'
p681
I24
sS'other'
p682
I24
sS'4'
p683
I23
sS'easy'
p684
I24
sS'has'
p685
I24
sS'08:34:30.0,34.03292066,-118.30897775,2214.01,wow'
p686
I24
sS'15:08:03.0,34.0367851,-118.31594478,2214.01,coffee'
p687
I24
sS'maya'
p688
I24
sS'duhh'
p689
I24
sS'here!,90018\n491332204954275841,jcruuise,2014-07-21'
p690
I24
sS'big'
p691
I24
sS'gonna'
p692
I23
sS'several'
p693
I24
sS'historic'
p694
I22
sS'biz'
p695
I24
sS'know'
p696
I21
sS'mom'
p697
I22
sS'world'
p698
I23
sS'pier'
p699
I24
sS'fools'
p700
I24
sS'adams'
p701
I17
sS'like'
p702
I16
sS'lost'
p703
I24
sS"ain't"
p704
I24
sS'bound\xe2\x98\xba\xef\xb8\x8f,90018\n501547342244237313,heshlif3,2014-08-19'
p705
I24
sS'noted'
p706
I24
sS'either'
p707
I24
sS'night'
p708
I23
sS'prepping'
p709
I24
sS'19:52:09.0,34.03506061,-118.30934799,2214.01,early'
p710
I24
sS'right'
p711
I23
sS'old'
p712
I23
sS'people'
p713
I22
sS'(insert'
p714
I24
sS'twitter'
p715
I23
sS'some'
p716
I21
sS'back'
p717
I24
sS'library'
p718
I22
sS'betta'
p719
I24
sS'hair'
p720
I23
sS'polo'
p721
I24
sS'sure'
p722
I24
sS'home'
p723
I18
sS'01:40:14.0,34.03351325,-118.31725142,2214.01,rip,90018\n415499114315386880,sabrinaschalk,2013-12-24'
p724
I24
sS'yesss'
p725
I23
sS'for'
p726
I15
sS'comments'
p727
I24
sS'moon'
p728
I24
sS'intently'
p729
I24
sS'fog'
p730
I24
sS'moderated'
p731
I24
sS'ripped'
p732
I24
sS'mosley'
p733
I24
sS'adorable'
p734
I24
sS'be'
p735
I17
sS'poets'
p736
I24
sS'run'
p737
I24
sS'corn'
p738
I24
sS'communicate'
p739
I24
sS'host'
p740
I24
sS'bw'
p741
I24
sS'crap'
p742
I24
sS'quaffs'
p743
I24
sS'by'
p744
I23
sS'panel'
p745
I24
sS'on'
p746
I10
sS'about'
p747
I21
sS'ok'
p748
I22
sS'would'
p749
I21
sS'getting'
p750
I24
sS'of'
p751
I13
sS'favorite'
p752
I23
sS'o'
p753
I24
sS'angeles'
p754
I24
sS'ounce'
p755
I24
sS'wolf'
p756
I24
sS'idk'
p757
I23
sS'craftsman'
p758
I22
sS"it's"
p759
I23
sS'wanna'
p760
I24
sS'or'
p761
I19
sS'chulo'
p762
I24
sS'seeing'
p763
I23
sS'own'
p764
I24
sS'kinnda'
p765
I24
sS'into'
p766
I24
sS'crying'
p767
I24
sS'son'
p768
I24
sS'martinez'
p769
I24
sS'guard'
p770
I24
sS'square'
p771
I23
sS'tiny'
p772
I24
sS'homeless'
p773
I24
sS'superplexbomb'
p774
I24
sS'your'
p775
I20
sS'smells'
p776
I24
sS'05:05:34.0,34.03331098,-118.31137614,2214.01,meek'
p777
I24
sS'16:28:21.0,34.03562576,-118.30914346,2214.01,i'
p778
I24
sS'van'
p779
I24
sS'her'
p780
I20
sS'support'
p781
I24
sS'there'
p782
I20
sS'lol'
p783
I16
sS'start'
p784
I24
sS'development'
p785
I24
sS"we're"
p786
I24
sS'way'
p787
I19
sS'pecs'
p788
I24
sS'bored'
p789
I24
sS'was'
p790
I14
sS'happy'
p791
I24
sS'head'
p792
I23
sS'buy'
p793
I24
sS'invite'
p794
I24
sS'13:57:37.0,34.0317117,-118.3147036,2214.01,im'
p795
I24
sS'gardenschoolfoundation'
p796
I22
sS'gorgeous'
p797
I24
sS'but'
p798
I16
sS"03:29:43.0,34.0368633,-118.3133101,2214.01,i've"
p799
I24
sS'dead'
p800
I24
sS'villains'
p801
I24
sS'with'
p802
I17
sS'buying'
p803
I24
sS'he'
p804
I21
sS'info'
p805
I24
sS'(los'
p806
I24
sS'made'
p807
I24
sS'wise'
p808
I24
sS'places'
p809
I24
sS'up'
p810
I14
sS'azz'
p811
I24
sS'thn'
p812
I24
sS'problem'
p813
I24
sS'fried'
p814
I24
sS'cigrettes'
p815
I23
sS'affection'
p816
I24
sS'model'
p817
I24
sS'proud'
p818
I24
sS'af'
p819
I24
sS'taste'
p820
I24
sS'ah'
p821
I24
sS'pic'
p822
I24
sS'am'
p823
I24
sS"07:45:03.0,34.0316791,-118.3155508,2214.01,i'd"
p824
I24
sS'starbucks'
p825
I24
sS'an'
p826
I22
sS'as'
p827
I23
sS'at'
p828
I7
sS'shooting'
p829
I24
sS'trip'
p830
I24
sS'again'
p831
I22
sS'maybe'
p832
I24
sS'no'
p833
I20
sS'when'
p834
I21
sS'ourselves'
p835
I24
sS'til'
p836
I23
sS'intercontinental'
p837
I24
sS'nap'
p838
I24
sS'interested'
p839
I24
sS'5'
p840
I24
sS'you'
p841
I8
sS'really'
p842
I24
sS'papi'
p843
I24
sS'nice'
p844
I23
sS'winking'
p845
I24
sS'matthewpoley'
p846
I24
sS'surprise'
p847
I24
sS'felt'
p848
I24
sS'william'
p849
I22
sS'fell'
p850
I24
sS'stab'
p851
I24
sS'thumping'
p852
I24
sS"she's"
p853
I24
sS'of\xe2\x80\xa6'
p854
I24
sS'else'
p855
I24
sS'friends'
p856
I24
sS'sides'
p857
I24
sS',90018\n477615200376332288,big_daddy_dylon,2014-06-14'
p858
I24
sS'energy,90018\n440651206755504128,armand_fhkabq,2014-03-04'
p859
I24
sS'calls'
p860
I24
sS'glass'
p861
I24
sS'tricks'
p862
I24
sS'mask'
p863
I24
sS'together'
p864
I23
sS'u'
p865
I16
sS'came'
p866
I24
sS'volumes'
p867
I24
sS'time'
p868
I22
sS'alright'
p869
I24
sS'serious'
p870
I23
sS'original'
p871
I23
s.