(dp0
S''
p1
I3
sS'all'
p2
I24
sS'childs'
p3
I31
sS':('
p4
I27
sS':)'
p5
I31
sS'chinese'
p6
I31
sS'whoever'
p7
I31
sS'rob'
p8
I31
sS'dollar'
p9
I31
sS'(5)'
p10
I31
sS'\xe2\x9d\xa4\xef\xb8\x8f'
p11
I31
sS'sleep'
p12
I30
sS'errythang'
p13
I31
sS'go'
p14
I23
sS'gossip'
p15
I30
sS'gl'
p16
I31
sS'hate'
p17
I29
sS'children'
p18
I30
sS'issues'
p19
I31
sS'row'
p20
I31
sS'relationships'
p21
I31
sS'me!\xc2\xa1'
p22
I31
sS'hurry'
p23
I31
sS'depend'
p24
I31
sS'aug'
p25
I31
sS'fufken'
p26
I31
sS'puigs'
p27
I31
sS'burnout'
p28
I31
sS'disability'
p29
I31
sS'to'
p30
I4
sS'finally'
p31
I25
sS'program'
p32
I31
sS'certain'
p33
I31
sS'those'
p34
I31
sS'ven'
p35
I31
sS'te'
p36
I31
sS'tb'
p37
I31
sS'worth'
p38
I31
sS'finallt'
p39
I31
sS'zubert'
p40
I31
sS'woman'
p41
I31
sS'amarte'
p42
I31
sS'song'
p43
I31
sS'very'
p44
I30
sS'rise'
p45
I31
sS'pierce'
p46
I31
sS':|'
p47
I31
sS'vegas'
p48
I31
sS'worst'
p49
I31
sS'fam'
p50
I31
sS'drinking'
p51
I30
sS'tutu'
p52
I31
sS'meracial'
p53
I31
sS'cool'
p54
I31
sS'school'
p55
I30
sS'respectful'
p56
I31
sS'did'
p57
I28
sS'button'
p58
I31
sS'girfriend'
p59
I31
sS'leave'
p60
I30
sS'covering'
p61
I31
sS'red'
p62
I31
sS'wsw'
p63
I31
sS'harry'
p64
I31
sS'quick'
p65
I30
sS'guy'
p66
I31
sS'tru'
p67
I31
sS'teeflii'
p68
I31
sS'yall'
p69
I29
sS'40oz'
p70
I31
sS"i'll"
p71
I27
sS'cookies'
p72
I31
sS'talked'
p73
I31
sS'neighborhood'
p74
I31
sS'tired'
p75
I30
sS'mi'
p76
I30
sS'hating'
p77
I31
sS'waking'
p78
I31
sS'street'
p79
I31
sS'video'
p80
I28
sS'sheeran'
p81
I31
sS'herido'
p82
I31
sS'pass'
p83
I31
sS'eating'
p84
I31
sS'nba'
p85
I31
sS'chem'
p86
I26
sS'm&ms'
p87
I31
sS'even'
p88
I29
sS'52%'
p89
I30
sS'what'
p90
I22
sS'abc'
p91
I31
sS'stressful'
p92
I31
sS'chicago'
p93
I31
sS'streten'
p94
I31
sS'+'
p95
I31
sS'asap'
p96
I31
sS'milk'
p97
I31
sS'crush'
p98
I31
sS'seconds'
p99
I31
sS'waiting'
p100
I31
sS'capital'
p101
I31
sS'new'
p102
I27
sS'new/current'
p103
I31
sS'ever'
p104
I31
sS'disney'
p105
I31
sS'told'
p106
I31
sS'n.n'
p107
I31
sS'friday'
p108
I31
sS"c'mon"
p109
I31
sS'never'
p110
I25
sS'disposable'
p111
I31
sS'songs'
p112
I31
sS'(los'
p113
I30
sS'hours'
p114
I29
sS'dommybravo'
p115
I31
sS'snack'
p116
I31
sS'let'
p117
I31
sS'descansar'
p118
I31
sS'sing'
p119
I31
sS'along'
p120
I31
sS'strong'
p121
I31
sS'earthquake'
p122
I31
sS'change'
p123
I31
sS'wait'
p124
I28
sS'boy'
p125
I31
sS'great'
p126
I29
sS'kids'
p127
I31
sS'daughter'
p128
I31
sS'houses'
p129
I31
sS'didnt'
p130
I31
sS'experience'
p131
I31
sS'suggests'
p132
I31
sS"i'd"
p133
I31
sS'negative'
p134
I31
sS'kemp'
p135
I31
sS'usually'
p136
I30
sS'california'
p137
I31
sS"i'm"
p138
I15
sS'makes'
p139
I31
sS"country's"
p140
I31
sS'foooooor'
p141
I31
sS'thats'
p142
I31
sS'wid'
p143
I31
sS'love'
p144
I24
sS'apple'
p145
I30
sS'win'
p146
I31
sS'sign'
p147
I31
sS'apt'
p148
I31
sS'feelings'
p149
I31
sS'bro'
p150
I30
sS'till'
p151
I31
sS'semester'
p152
I31
sS'indoors'
p153
I31
sS'jose'
p154
I31
sS'1st'
p155
I30
sS'>'
p156
I31
sS'market'
p157
I31
sS'(kygo'
p158
I31
sS'everybody'
p159
I31
sS'from'
p160
I21
sS'franco'
p161
I30
sS'would'
p162
I29
sS'&'
p163
I28
sS'give'
p164
I29
sS'dude'
p165
I28
sS'two'
p166
I30
sS'irritate'
p167
I31
sS'next'
p168
I27
sS'lakers'
p169
I31
sS'ca)'
p170
I30
sS'camera'
p171
I31
sS'music'
p172
I27
sS'iphone'
p173
I30
sS'ahhh'
p174
I31
sS'angels'
p175
I31
sS'tell'
p176
I30
sS'today'
p177
I27
sS'cheeks'
p178
I30
sS'teen'
p179
I31
sS'tryna'
p180
I31
sS'door'
p181
I31
sS'knows'
p182
I31
sS'holy'
p183
I30
sS'relax'
p184
I31
sS'started'
p185
I31
sS'bullshitting'
p186
I31
sS'haha'
p187
I29
sS'occurred'
p188
I31
sS'brothas'
p189
I31
sS'tf'
p190
I31
sS'dunking'
p191
I31
sS'hold'
p192
I31
sS'harvest'
p193
I31
sS'women'
p194
I31
sS'me'
p195
I12
sS'mf'
p196
I31
sS'locked'
p197
I31
sS'room'
p198
I28
sS'hour'
p199
I31
sS'amor'
p200
I31
sS'this'
p201
I18
sS'car'
p202
I29
sS'der'
p203
I31
sS'getting'
p204
I30
sS'sucks'
p205
I30
sS'cat'
p206
I31
sS'pendejaaaaa'
p207
I31
sS'enjoying'
p208
I31
sS'unreal'
p209
I31
sS'obvious'
p210
I31
sS'can'
p211
I29
sS'"barbs"'
p212
I31
sS'u-turnpull'
p213
I31
sS'making'
p214
I29
sS'my'
p215
I5
sS'something'
p216
I31
sS'control'
p217
I30
sS'crazy'
p218
I29
sS'estate'
p219
I30
sS'coraz\xc3\xb3n'
p220
I30
sS'alba'
p221
I31
sS'awesome'
p222
I31
sS'nemo'
p223
I31
sS"didn't"
p224
I31
sS'fuck'
p225
I22
sS'heartless'
p226
I31
sS'high'
p227
I31
sS'heard'
p228
I31
sS'dropped'
p229
I31
sS'want'
p230
I27
sS'ave'
p231
I29
sS'sunglasses'
p232
I31
sS'story'
p233
I31
sS'cardio'
p234
I31
sS'pink'
p235
I31
sS'educational'
p236
I31
sS'embodiment'
p237
I31
sS'turn'
p238
I31
sS'harens'
p239
I31
sS'chops'
p240
I31
sS'watching'
p241
I27
sS'lounge'
p242
I28
sS'how'
p243
I29
sS'amazing'
p244
I31
sS'bisonmade'
p245
I31
sS'ig'
p246
I31
sS'fourth'
p247
I31
sS'answer'
p248
I31
sS'instead'
p249
I30
sS'beach'
p250
I30
sS'stand'
p251
I30
sS'map'
p252
I31
sS'obama'
p253
I31
sS'okay'
p254
I30
sS'tried'
p255
I31
sS'cocktail'
p256
I31
sS'tattoo'
p257
I31
sS'strokes'
p258
I31
sS'stop'
p259
I29
sS'after'
p260
I31
sS'internet'
p261
I31
sS'collection'
p262
I31
sS'wrong'
p263
I31
sS'birthday'
p264
I30
sS'mad'
p265
I31
sS'taco'
p266
I30
sS'improving'
p267
I31
sS'end'
p268
I31
sS'da'
p269
I31
sS'guys'
p270
I30
sS'response'
p271
I31
sS'man'
p272
I31
sS'a'
p273
I7
sS'short'
p274
I31
sS'chasing'
p275
I31
sS'remember'
p276
I28
sS'dafne'
p277
I31
sS'tweeting'
p278
I31
sS'sit'
p279
I31
sS'st'
p280
I31
sS'bruh'
p281
I31
sS'so'
p282
I11
sS'taking'
p283
I31
sS'pleasure'
p284
I31
sS'addiction'
p285
I30
sS'playing'
p286
I29
sS'talk'
p287
I31
sS"that's"
p288
I30
sS'cute'
p289
I30
sS'bendita'
p290
I31
sS'help'
p291
I30
sS"don't"
p292
I24
sS'september'
p293
I31
sS'over'
p294
I24
sS'soon'
p295
I30
sS'years'
p296
I31
sS'course'
p297
I29
sS'isnt'
p298
I30
sS'finest'
p299
I31
sS'through'
p300
I29
sS'bcus'
p301
I30
sS'still'
p302
I28
sS'its'
p303
I28
sS'galaxy'
p304
I31
sS'kennedy-'
p305
I31
sS'perfect'
p306
I30
sS'1'
p307
I30
sS'blake'
p308
I30
sS'apes'
p309
I31
sS'20'
p310
I31
sS'thank'
p311
I30
sS'\xe2\x99\xa1\xe2\x99\xa5\xe2\x99\xa1\xe2\x99\xa5\xe2\x99\xa1\xe2\x99\xa5'
p312
I31
sS"he's"
p313
I30
sS'jim'
p314
I29
sS'faves'
p315
I31
sS'actually'
p316
I27
sS'better'
p317
I30
sS'feel'
p318
I31
sS'territorial'
p319
I31
sS'tyler'
p320
I31
sS'jinxed'
p321
I31
sS'peanuts'
p322
I31
sS'bout'
p323
I31
sS'gents'
p324
I26
sS'saaaaaame'
p325
I31
sS'outside'
p326
I31
sS'dad'
p327
I29
sS'then'
p328
I28
sS'them'
p329
I29
sS'good'
p330
I29
sS'crash'
p331
I30
sS'yo'
p332
I30
sS'3'
p333
I31
sS'ya'
p334
I31
sS'dam'
p335
I31
sS'dan'
p336
I31
sS'grand'
p337
I31
sS"we'll"
p338
I31
sS'eat'
p339
I31
sS"i've"
p340
I31
sS'craaaaaaaaaaaaaazy'
p341
I31
sS"you've"
p342
I31
sS'they'
p343
I22
sS'half'
p344
I30
sS'not'
p345
I16
sS'announcers'
p346
I31
sS'now'
p347
I19
sS'day'
p348
I24
sS'.2km'
p349
I31
sS'name'
p350
I30
sS'ahs'
p351
I31
sS'james'
p352
I30
sS'debut'
p353
I31
sS'skills'
p354
I31
sS'donde'
p355
I30
sS'holdin'
p356
I31
sS'truth'
p357
I31
sS'rock'
p358
I31
sS'found'
p359
I30
sS'went'
p360
I29
sS'mamon'
p361
I31
sS"isn't"
p362
I31
sS'luck'
p363
I31
sS'turtle'
p364
I31
sS'el'
p365
I29
sS'en'
p366
I30
sS'latin'
p367
I31
sS'hopefully'
p368
I31
sS'house'
p369
I30
sS'fish'
p370
I31
sS'hard'
p371
I31
sS'ft'
p372
I31
sS'yeah'
p373
I30
sS'line'
p374
I31
sS'ahhahahahahahahahha'
p375
I31
sS'remove'
p376
I31
sS'our'
p377
I27
sS'girl'
p378
I28
sS'morning'
p379
I31
sS'event'
p380
I30
sS'out'
p381
I19
sS'rt'
p382
I28
sS'ratchetness'
p383
I31
sS'matt'
p384
I31
sS'beauty'
p385
I31
sS'driving'
p386
I31
sS'crazy"'
p387
I31
sS'god'
p388
I31
sS'ha'
p389
I31
sS'since'
p390
I31
sS'trainers'
p391
I31
sS'george'
p392
I31
sS'looking'
p393
I31
sS'poco'
p394
I31
sS'seriously'
p395
I31
sS'stuff'
p396
I31
sS'hood'
p397
I31
sS'chicccaaa'
p398
I31
sS'hanging'
p399
I31
sS'got'
p400
I26
sS'rn'
p401
I30
sS'cause'
p402
I31
sS'hermosa'
p403
I31
sS'ass'
p404
I31
sS'dodgers'
p405
I31
sS"doesn't"
p406
I30
sS'devuelveme'
p407
I31
sS'million'
p408
I31
sS'forgive'
p409
I31
sS'free'
p410
I30
sS'small'
p411
I31
sS'reason'
p412
I31
sS'90043'
p413
I31
sS'rly'
p414
I31
sS'asf'
p415
I31
sS'gentslounge'
p416
I31
sS'mullet'
p417
I31
sS'card'
p418
I31
sS'mvp'
p419
I31
sS'g'
p420
I31
sS'geometry'
p421
I30
sS'discussing'
p422
I31
sS'could'
p423
I29
sS'keep'
p424
I31
sS'facetime'
p425
I31
sS'thing'
p426
I30
sS'deja'
p427
I31
sS'shoooow'
p428
I31
sS'malece'
p429
I31
sS'castle'
p430
I31
sS'chills'
p431
I31
sS'think'
p432
I31
sS'fuckin'
p433
I31
sS'first'
p434
I28
sS'tooter'
p435
I31
sS'ihy'
p436
I31
sS'dont'
p437
I31
sS'emblazoned'
p438
I31
sS'stitch'
p439
I31
sS'coming'
p440
I29
sS'xd'
p441
I30
sS'one'
p442
I28
sS'rooter'
p443
I31
sS'done'
p444
I30
sS'bitch'
p445
I31
sS'such'
p446
I31
sS'noticed'
p447
I31
sS'miss'
p448
I26
sS'tomorrow'
p449
I31
sS"'em"
p450
I31
sS"you're"
p451
I29
sS'little'
p452
I28
sS'rated'
p453
I31
sS"there's"
p454
I31
sS'swisher'
p455
I31
sS'los'
p456
I29
sS'festival'
p457
I31
sS'caught'
p458
I31
sS'night'
p459
I30
sS'girls'
p460
I30
sS'least'
p461
I29
sS'grow'
p462
I31
sS'anyone'
p463
I31
sS'their'
p464
I29
sS'2'
p465
I29
sS'too'
p466
I31
sS'passed'
p467
I31
sS'woo-hoooooo!!!!\xe2\x80\x9d'
p468
I31
sS'white'
p469
I30
sS'food>'
p470
I31
sS'banana'
p471
I30
sS'friend'
p472
I30
sS'headache'
p473
I31
sS'potluck?\xc2\xa1'
p474
I31
sS'eyes'
p475
I31
sS'x)'
p476
I30
sS'summertime'
p477
I31
sS'relationship'
p478
I31
sS'that'
p479
I13
sS'season'
p480
I31
sS'gym'
p481
I31
sS'exactly'
p482
I31
sS'took'
p483
I29
sS'nigga'
p484
I31
sS'bieber'
p485
I31
sS'believe'
p486
I30
sS'neck'
p487
I31
sS'loved'
p488
I29
sS'dianica'
p489
I31
sS'legs'
p490
I31
sS'lmao'
p491
I29
sS'away'
p492
I31
sS'boring'
p493
I31
sS'gotta'
p494
I30
sS'admiring'
p495
I31
sS'bed'
p496
I30
sS'politics'
p497
I31
sS'matter'
p498
I31
sS'decided'
p499
I31
sS'speaking'
p500
I31
sS'loves'
p501
I31
sS'were'
p502
I31
sS'design'
p503
I31
sS'dane'
p504
I31
sS'listen'
p505
I31
sS'hahhhaaaaa'
p506
I31
sS'shirts'
p507
I31
sS'and'
p508
I6
sS'este'
p509
I31
sS'anf'
p510
I31
sS'wakes'
p511
I31
sS'1.3'
p512
I31
sS'wasnt'
p513
I31
sS'julian'
p514
I31
sS'pretend'
p515
I31
sS'mind'
p516
I31
sS'mine'
p517
I31
sS'sad'
p518
I30
sS'tonight'
p519
I29
sS'talking'
p520
I29
sS'say'
p521
I30
sS'adele'
p522
I31
sS'have'
p523
I26
sS'need'
p524
I28
sS'interrogating'
p525
I31
sS'harley'
p526
I31
sS'p.e'
p527
I29
sS'any'
p528
I30
sS'spade'
p529
I31
sS'hello'
p530
I31
sS'changies'
p531
I31
sS'olvido'
p532
I31
sS'millz'
p533
I31
sS'person'
p534
I31
sS'lilo'
p535
I31
sS'scott'
p536
I31
sS'-'
p537
I28
sS'drunk-'
p538
I31
sS'also'
p539
I31
sS'take'
p540
I30
sS'babes'
p541
I31
sS'finding'
p542
I31
sS'green'
p543
I30
sS'hookah*'
p544
I31
sS'switching'
p545
I31
sS'youuuu'
p546
I31
sS'whities'
p547
I31
sS'younger'
p548
I31
sS'play'
p549
I30
sS'sure'
p550
I29
sS'pain'
p551
I31
sS'though'
p552
I31
sS'ahogado'
p553
I31
sS'who'
p554
I27
sS'jorge'
p555
I31
sS'[official'
p556
I30
sS'fuckeeen'
p557
I31
sS'victoria'
p558
I31
sS"where's"
p559
I31
sS'admire'
p560
I31
sS'sheets'
p561
I31
sS'services'
p562
I31
sS'decision'
p563
I31
sS'woude'
p564
I31
sS'why'
p565
I21
sS'practically'
p566
I31
sS'immac'
p567
I30
sS'especially'
p568
I31
sS'dom'
p569
I31
sS'child??\xe2\x80\x9d'
p570
I31
sS'later'
p571
I31
sS'upset'
p572
I31
sS'est\xc3\xa1s'
p573
I31
sS'face'
p574
I31
sS'return'
p575
I31
sS'tech'
p576
I31
sS'movie'
p577
I31
sS'everything'
p578
I31
sS'gents\xe2\x80\xa6'
p579
I31
sS'institutions'
p580
I31
sS'came'
p581
I31
sS'50'
p582
I31
sS'saying'
p583
I31
sS'r.kelly'
p584
I30
sS'hyper'
p585
I31
sS'show'
p586
I30
sS'tequila'
p587
I31
sS'cheap'
p588
I31
sS'1hr20min'
p589
I31
sS'weaaaak'
p590
I31
sS'estoy'
p591
I29
sS'12s'
p592
I31
sS'radio'
p593
I31
sS'shoe'
p594
I31
sS'nevada'
p595
I31
sS'find'
p596
I29
sS'aint'
p597
I30
sS'current'
p598
I31
sS'slow'
p599
I30
sS'ratin'
p600
I31
sS'paranoid'
p601
I31
sS'situations'
p602
I31
sS'explain'
p603
I31
sS'state'
p604
I30
sS'bust'
p605
I31
sS'should'
p606
I27
sS'here'
p607
I31
sS'only'
p608
I26
sS'going'
p609
I27
sS'black'
p610
I31
sS'notes'
p611
I31
sS'pretty'
p612
I30
sS'8'
p613
I31
sS'chipotle'
p614
I31
sS'\xe2\x99\xa1'
p615
I29
sS'hope'
p616
I29
sS'feela'
p617
I31
sS'do'
p618
I23
sS'his'
p619
I31
sS'hit'
p620
I31
sS'get'
p621
I21
sS'dope'
p622
I31
sS'de'
p623
I31
sS'watch'
p624
I29
sS'kind'
p625
I31
sS'truly'
p626
I31
sS'booooaaa'
p627
I31
sS'perfection'
p628
I31
sS'ayy'
p629
I31
sS"o'brian"
p630
I31
sS'home...now'
p631
I31
sS'slacks'
p632
I31
sS'9pmbyob6833'
p633
I31
sS'him'
p634
I26
sS'14'
p635
I31
sS'typos'
p636
I31
sS'following'
p637
I31
sS'evolution'
p638
I31
sS'pics/vids'
p639
I31
sS'bar'
p640
I30
sS'held'
p641
I31
sS'versions'
p642
I31
sS'awwwww'
p643
I31
sS'calling'
p644
I31
sS":'("
p645
I31
sS'jokes'
p646
I31
sS'bad'
p647
I31
sS'stupid'
p648
I30
sS'she'
p649
I28
sS'kickbacks'
p650
I31
sS'clavado'
p651
I31
sS'wouldve'
p652
I31
sS'where'
p653
I29
sS'yasss'
p654
I31
sS"y'all"
p655
I30
sS'7:27'
p656
I31
sS'concert'
p657
I31
sS'exists'
p658
I31
sS'w/'
p659
I30
sS'jade'
p660
I31
sS'haaaaard'
p661
I31
sS'sey'
p662
I31
sS'sex'
p663
I31
sS'cocktails'
p664
I31
sS'habib'
p665
I31
sS'see'
p666
I29
sS'profiling'
p667
I31
sS'asleep'
p668
I31
sS'are'
p669
I26
sS'steal'
p670
I31
sS'ur'
p671
I31
sS'arm'
p672
I31
sS'best'
p673
I30
sS"cat's"
p674
I31
sS'said'
p675
I31
sS'hosting'
p676
I31
sS'modafucka'
p677
I31
sS'pictures'
p678
I30
sS'wow'
p679
I29
sS'currently'
p680
I31
sS'please'
p681
I29
sS'shaved'
p682
I31
sS"father's"
p683
I31
sS'enough'
p684
I30
sS'future'
p685
I31
sS'prada'
p686
I31
sS'probably'
p687
I30
sS'before'
p688
I31
sS'pants'
p689
I31
sS'gives'
p690
I31
sS'we'
p691
I22
sS'men'
p692
I31
sS'omg'
p693
I25
sS'exam'
p694
I30
sS'missing'
p695
I30
sS'job'
p696
I31
sS'wear'
p697
I30
sS'wtf'
p698
I27
sS'come'
p699
I31
sS'david'
p700
I31
sS'both'
p701
I30
sS'z'
p702
I31
sS'last'
p703
I29
sS's\xc3\xa1came'
p704
I31
sS'license'
p705
I30
sS'always'
p706
I29
sS'normande'
p707
I30
sS'la'
p708
I31
sS'sweat'
p709
I31
sS'malia'
p710
I31
sS'mana'
p711
I31
sS's'
p712
I31
sS'became'
p713
I31
sS'games'
p714
I30
sS'atleast'
p715
I31
sS'lookin'
p716
I31
sS'comes'
p717
I30
sS'potluck'
p718
I31
sS'liked'
p719
I31
sS'key'
p720
I31
sS'drunk'
p721
I30
sS'whyyyyyyy'
p722
I31
sS'sweet'
p723
I31
sS'ca'
p724
I31
sS'each'
p725
I31
sS'smashing'
p726
I31
sS'walk'
p727
I31
sS'karen'
p728
I31
sS'written'
p729
I31
sS"couldn't"
p730
I31
sS'gotdamn'
p731
I31
sS"wouldn't"
p732
I31
sS'lame-o'
p733
I31
sS'bathroom'
p734
I31
sS'yay'
p735
I29
sS'videos'
p736
I31
sS'basis'
p737
I31
sS"it's"
p738
I22
sS'binge'
p739
I31
sS'add'
p740
I31
sS'been'
p741
I30
sS'literal'
p742
I31
sS'much'
p743
I28
sS'damn'
p744
I28
sS'parenting'
p745
I31
sS'pe'
p746
I30
sS'staring'
p747
I31
sS'attire'
p748
I31
sS'woke'
p749
I30
sS'swv'
p750
I31
sS'on\xe2\x80\xa6'
p751
I31
sS'resting'
p752
I31
sS'life'
p753
I27
sS'sore'
p754
I31
sS'moved'
p755
I31
sS"what's"
p756
I30
sS'rincon'
p757
I31
sS'wish'
p758
I31
sS'founders'
p759
I31
sS'understand'
p760
I30
sS'comfortable'
p761
I31
sS'funk'
p762
I31
sS'chill'
p763
I31
sS'myself'
p764
I30
sS'.__'
p765
I31
sS'look'
p766
I30
sS'phora'
p767
I30
sS'these'
p768
I27
sS'straight'
p769
I31
sS'missouri'
p770
I31
sS'seee'
p771
I31
sS'joyful'
p772
I31
sS'will'
p773
I24
sS'w'
p774
I31
sS'while'
p775
I30
sS'ratchet'
p776
I28
sS'smart'
p777
I31
sS'fun'
p778
I28
sS'frustrating'
p779
I31
sS'prepubescent'
p780
I31
sS'mistake'
p781
I31
sS'dehaan'
p782
I31
sS'stink'
p783
I31
sS'is'
p784
I9
sS'xian'
p785
I31
sS'it'
p786
I11
sS'sleeping'
p787
I31
sS'someone'
p788
I30
sS'im'
p789
I16
sS'nigguhs'
p790
I31
sS'in'
p791
I14
sS'ready'
p792
I28
sS'bucks'
p793
I30
sS'fame'
p794
I31
sS'worry'
p795
I31
sS'if'
p796
I21
sS'for\xe2\x80\xa6'
p797
I31
sS'funny'
p798
I31
sS'handsome'
p799
I31
sS'denial'
p800
I31
sS'anymore'
p801
I31
sS'doctor'
p802
I31
sS'make'
p803
I29
sS'views'
p804
I31
sS'tour'
p805
I31
sS'same'
p806
I30
sS'ina'
p807
I31
sS'strange'
p808
I30
sS'semesters'
p809
I31
sS'bands'
p810
I31
sS'party'
p811
I30
sS'ladies'
p812
I31
sS"bumpin'"
p813
I31
sS'layups'
p814
I31
sS'kool'
p815
I31
sS'8am'
p816
I31
sS'hank'
p817
I30
sS'hallway'
p818
I31
sS"who's"
p819
I31
sS'screenshot'
p820
I31
sS'seinabo'
p821
I31
sS':"('
p822
I31
sS'hang'
p823
I31
sS'yesterday'
p824
I31
sS'kik'
p825
I31
sS'fucken'
p826
I29
sS'fridays'
p827
I31
sS'moving'
p828
I31
sS'fancy'
p829
I31
sS'fucked'
p830
I31
sS'tix'
p831
I31
sS'totally'
p832
I30
sS'identity'
p833
I31
sS'kid'
p834
I30
sS'heaaad\xe2\x99\xa1'
p835
I31
sS'dylan'
p836
I31
sS'off'
p837
I26
sS'older'
p838
I31
sS'i'
p839
I1
sS'porchcops'
p840
I31
sS'modeled'
p841
I31
sS'seth'
p842
I31
sS'anybody'
p843
I31
sS'thought'
p844
I31
sS'regretting'
p845
I31
sS'without'
p846
I30
sS"can't"
p847
I27
sS'pandora'
p848
I31
sS'y'
p849
I31
sS'the'
p850
I2
sS'redistribution'
p851
I31
sS'yours'
p852
I31
sS'left'
p853
I31
sS'summer'
p854
I31
sS'custom'
p855
I31
sS'listening'
p856
I30
sS'just'
p857
I22
sS'being'
p858
I27
sS'money'
p859
I31
sS'laptop'
p860
I31
sS'dignify'
p861
I31
sS'sleepy'
p862
I29
sS'rest'
p863
I30
sS'schools'
p864
I31
sS'thanks'
p865
I31
sS"spm's"
p866
I31
sS'yes'
p867
I31
sS'yet'
p868
I31
sS'happiness'
p869
I30
sS'tables'
p870
I31
sS'cut'
p871
I31
sS'legitimately'
p872
I31
sS'cup'
p873
I29
sS'thinking'
p874
I28
sS"everyone's"
p875
I31
sS'had'
p876
I28
sS'advancement'
p877
I31
sS'natt'
p878
I31
sS'lets'
p879
I29
sS'other'
p880
I30
sS'4'
p881
I30
sS'homies'
p882
I31
sS'basketball'
p883
I31
sS'has'
p884
I25
sS'excited'
p885
I30
sS'cuties\xe2\x99\xa1'
p886
I31
sS'details'
p887
I31
sS'real'
p888
I26
sS'asff'
p889
I31
sS'starving'
p890
I31
sS'around'
p891
I30
sS'applie'
p892
I31
sS'read'
p893
I31
sS'big'
p894
I30
sS'hendy'
p895
I31
sS'skies'
p896
I31
sS'tacuba'
p897
I31
sS'gonna'
p898
I26
sS'dark'
p899
I31
sS'posey'
p900
I31
sS'game'
p901
I31
sS'leggoo'
p902
I31
sS'know'
p903
I27
sS'mom'
p904
I28
sS'wanting'
p905
I31
sS'warped'
p906
I31
sS'world'
p907
I29
sS'juice'
p908
I31
sS'transgender'
p909
I31
sS'thrill'
p910
I31
sS'clan'
p911
I31
sS'pranks'
p912
I31
sS'like'
p913
I16
sS'lost'
p914
I31
sS'story"'
p915
I31
sS'retake'
p916
I31
sS'collective'
p917
I31
sS'\xe2\x99\xa1\xe2\x99\xa1\xe2\x99\xa1\xe2\x99\xa1'
p918
I31
sS'honestly'
p919
I31
sS'upme'
p920
I31
sS'pnuts'
p921
I31
sS'lose'
p922
I31
sS'true'
p923
I31
sS'63'
p924
I31
sS'trade-in'
p925
I31
sS'lorena'
p926
I29
sS'nerves'
p927
I31
sS"patrick's"
p928
I31
sS'right'
p929
I28
sS'old'
p930
I31
sS'deal'
p931
I31
sS'people'
p932
I30
sS'fucking'
p933
I27
sS'osborn'
p934
I31
sS'scared'
p935
I30
sS'church'
p936
I31
sS'some'
p937
I22
sS'back'
p938
I30
sS'standing'
p939
I31
sS'hair'
p940
I25
sS'born'
p941
I31
sS'eddie'
p942
I31
sS'home'
p943
I27
sS'guess'
p944
I31
sS'thinks'
p945
I30
sS'sister'
p946
I31
sS'hondure\xc3\xb1o'
p947
I31
sS'for'
p948
I11
sS'3.11mi'
p949
I31
sS'literally'
p950
I30
sS'tmz'
p951
I31
sS'daddy'
p952
I31
sS'cordialchurchmn'
p953
I31
sS'ice'
p954
I31
sS'creative'
p955
I30
sS'competitions'
p956
I31
sS'filming'
p957
I30
sS'ese'
p958
I31
sS'does'
p959
I30
sS'tl'
p960
I31
sS'innovation'
p961
I31
sS'screwed'
p962
I31
sS'pee'
p963
I31
sS'content'
p964
I31
sS'kangaroos'
p965
I31
sS'hustle'
p966
I31
sS'be'
p967
I18
sS'biased'
p968
I30
sS'run'
p969
I30
sS'power'
p970
I30
sS'bc'
p971
I29
sS'lmfao'
p972
I31
sS'burn'
p973
I30
sS'plz'
p974
I31
sS's/o'
p975
I31
sS'weirdest'
p976
I31
sS'paid'
p977
I31
sS'become'
p978
I31
sS'naps'
p979
I31
sS';)'
p980
I30
sS'r'
p981
I31
sS'super'
p982
I29
sS'by'
p983
I28
sS'assed'
p984
I31
sS'hearing'
p985
I31
sS'on'
p986
I19
sS'about'
p987
I22
sS'oreo'
p988
I31
sS'justin'
p989
I31
sS'anything'
p990
I29
sS'oh'
p991
I29
sS'of'
p992
I8
sS'industry'
p993
I31
sS'cafe'
p994
I31
sS'harder'
p995
I31
sS'o'
p996
I31
sS'concerts'
p997
I31
sS'angeles'
p998
I27
sS'swear'
p999
I30
sS'wolf'
p1000
I31
sS'idk'
p1001
I30
sS'wanna'
p1002
I30
sS'or'
p1003
I27
sS'enhancement'
p1004
I31
sS'seeing'
p1005
I31
sS'clan-hood'
p1006
I31
sS'own'
p1007
I31
sS'whats'
p1008
I30
sS'cracking'
p1009
I31
sS'oomf'
p1010
I31
sS'texting'
p1011
I31
sS'into'
p1012
I30
sS'lounge!enjoy'
p1013
I31
sS'snapchat'
p1014
I31
sS'son'
p1015
I31
sS'down'
p1016
I27
sS'gtfo'
p1017
I31
sS'momma'
p1018
I31
sS'because'
p1019
I30
sS"celebrity's"
p1020
I31
sS'strip'
p1021
I31
sS'ayyy'
p1022
I31
sS'lebron'
p1023
I31
sS'your'
p1024
I29
sS'impressed'
p1025
I31
sS'metido'
p1026
I31
sS'van'
p1027
I31
sS'brownies'
p1028
I31
sS'her'
p1029
I24
sS'there'
p1030
I27
sS'live'
p1031
I31
sS'lol'
p1032
I16
sS'pages'
p1033
I31
sS'start'
p1034
I30
sS'anderson'
p1035
I31
sS'development'
p1036
I31
sS"we're"
p1037
I27
sS'way'
p1038
I27
sS'ed'
p1039
I31
sS'weakasses'
p1040
I31
sS'call'
p1041
I31
sS'was'
p1042
I20
sS'twitter'
p1043
I31
sS'happy'
p1044
I28
sS'yasiel'
p1045
I31
sS'ago'
p1046
I31
sS'buy'
p1047
I29
sS'invite'
p1048
I31
sS'educate'
p1049
I31
sS'bus'
p1050
I31
sS'forever'
p1051
I31
sS'but'
p1052
I16
sS'idea'
p1053
I31
sS't-shirt'
p1054
I31
sS'magnitude'
p1055
I31
sS'omfg'
p1056
I31
sS'remix)'
p1057
I31
sS'trying'
p1058
I31
sS'with'
p1059
I16
sS'junior'
p1060
I31
sS'he'
p1061
I28
sS"they're"
p1062
I30
sS'follow\xe2\x80\x9d'
p1063
I31
sS'licorice-eating'
p1064
I31
sS'ux'
p1065
I31
sS'hitter'
p1066
I31
sS'"too'
p1067
I31
sS"wasn't"
p1068
I31
sS'fiba'
p1069
I31
sS'raspado'
p1070
I31
sS'up'
p1071
I17
sS'until'
p1072
I31
sS'planet'
p1073
I31
sS"tomorrow's"
p1074
I30
sS'un'
p1075
I29
sS'spot)'
p1076
I31
sS'faded'
p1077
I31
sS'desire'
p1078
I31
sS'more'
p1079
I28
sS'minutes'
p1080
I31
sS'agree'
p1081
I30
sS'desesperado'
p1082
I31
sS'camp'
p1083
I31
sS'eggslut'
p1084
I31
sS'fans'
p1085
I31
sS'taste'
p1086
I31
sS'm'
p1087
I31
sS'am'
p1088
I28
sS'an'
p1089
I29
sS'sibling'
p1090
I31
sS'single'
p1091
I31
sS'at'
p1092
I12
sS'fuuuuuuck'
p1093
I31
sS'watched'
p1094
I31
sS'horse'
p1095
I31
sS'pit'
p1096
I31
sS'happen'
p1097
I31
sS'shit'
p1098
I26
sS'cream'
p1099
I31
sS'yoga'
p1100
I31
sS'no'
p1101
I24
sS'video]'
p1102
I30
sS'when'
p1103
I19
sS'40'
p1104
I30
sS'club'
p1105
I31
sS'book'
p1106
I30
sS'naw'
p1107
I31
sS'test'
p1108
I30
sS'you'
p1109
I10
sS'really'
p1110
I19
sS'youuuuuuuuuu'
p1111
I31
sS'nice'
p1112
I30
sS'championship'
p1113
I30
sS'hey'
p1114
I31
sS"sayin'"
p1115
I31
sS'spoilers'
p1116
I31
sS'class'
p1117
I31
sS'welcome'
p1118
I30
sS'saaaame'
p1119
I31
sS'jacara'
p1120
I31
sS'stay'
p1121
I30
sS'push'
p1122
I31
sS'important'
p1123
I31
sS'booboo'
p1124
I31
sS"she's"
p1125
I31
sS'chris'
p1126
I31
sS'mishkathebier'
p1127
I31
sS'weekend'
p1128
I31
sS'missed'
p1129
I31
sS'jones'
p1130
I31
sS'max'
p1131
I31
sS'abre'
p1132
I31
sS'assets'
p1133
I31
sS'5:43'
p1134
I31
sS'wife'
p1135
I31
sS'rescued'
p1136
I31
sS'wifi'
p1137
I31
sS'shoutout'
p1138
I31
sS'topanga'
p1139
I31
sS'u'
p1140
I22
sS'time'
p1141
I24
sS'alright'
p1142
I31
sS'fresh'
p1143
I31
sS'8th'
p1144
I31
sS'starting'
p1145
I30
sS'having'
p1146
I30
sS'noooooooo'
p1147
I31
s.