(dp0
S''
p1
I4
sS'all'
p2
I15
sS':('
p3
I18
sS':)'
p4
I18
sS'dance'
p5
I18
sS'rob'
p6
I18
sS'month'
p7
I18
sS'woods'
p8
I18
sS'go'
p9
I17
sS'follow'
p10
I18
sS'hate'
p11
I18
sS'tweet'
p12
I18
sS'father'
p13
I18
sS'to'
p14
I3
sS'finally'
p15
I18
sS'alvarez'
p16
I18
sS'under'
p17
I18
sS'tf'
p18
I18
sS'woman'
p19
I17
sS':d'
p20
I18
sS'frapp'
p21
I18
sS'fat'
p22
I18
sS'fall'
p23
I18
sS'00:28:06.0,34.02198295,-118.26115773,2264.10,best'
p24
I18
sS'cool'
p25
I17
sS'school'
p26
I18
sS'mm'
p27
I18
sS'team'
p28
I18
sS'guy'
p29
I17
sS'barbara'
p30
I18
sS"i'll"
p31
I18
sS'says'
p32
I18
sS'fence'
p33
I18
sS'tea'
p34
I18
sS'sign'
p35
I18
sS'past'
p36
I18
sS'battle'
p37
I18
sS'haircut,90011\n518083408627396608,melok_crook,2014-10-03'
p38
I18
sS'street'
p39
I18
sS"bryan's"
p40
I18
sS'\xee\x90\x91'
p41
I18
sS'irritated'
p42
I18
sS'even'
p43
I18
sS'what'
p44
I14
sS'plays'
p45
I18
sS'cutest'
p46
I17
sS'giving'
p47
I17
sS'crush'
p48
I17
sS'new'
p49
I17
sS'6ft'
p50
I18
sS'dismissal'
p51
I18
sS'never'
p52
I16
sS'here'
p53
I17
sS'water'
p54
I17
sS'(:<3'
p55
I18
sS'earthquake'
p56
I18
sS'wait'
p57
I18
sS'experience'
p58
I17
sS"i'd"
p59
I18
sS"i'm"
p60
I12
sS'makes'
p61
I17
sS'love'
p62
I17
sS'toughness'
p63
I18
sS'put'
p64
I18
sS'patriots'
p65
I18
sS'<3'
p66
I18
sS'fee'
p67
I18
sS'from'
p68
I17
sS'would'
p69
I17
sS'iced'
p70
I18
sS'next'
p71
I18
sS'6'
p72
I18
sS'taken'
p73
I18
sS'survive'
p74
I18
sS'tell'
p75
I17
sS'today'
p76
I17
sS'more'
p77
I17
sS'babe'
p78
I18
sS'club'
p79
I18
sS'haha'
p80
I18
sS'occurred'
p81
I18
sS'it'
p82
I8
sS'baby'
p83
I18
sS'me'
p84
I14
sS'room'
p85
I18
sS'this'
p86
I8
sS'mo'
p87
I18
sS'work'
p88
I16
sS'21:51:15.0,34.02182663,-118.26145378,2264.10,done'
p89
I18
sS'anywhere'
p90
I18
sS'can'
p91
I12
sS'making'
p92
I18
sS'my'
p93
I5
sS'dee'
p94
I18
sS'def'
p95
I18
sS'months'
p96
I18
sS'give'
p97
I18
sS'saltalamacchia'
p98
I17
sS'high'
p99
I18
sS'salty'
p100
I17
sS'something'
p101
I18
sS'want'
p102
I15
sS'gallon'
p103
I18
sS'court'
p104
I18
sS'backpacking'
p105
I18
sS'awkward'
p106
I18
sS'panthers!\xe2\x80\x9d'
p107
I18
sS'1'
p108
I18
sS'how'
p109
I16
sS'toxic'
p110
I18
sS'map'
p111
I18
sS'blocks'
p112
I18
sS'advice'
p113
I18
sS'latte'
p114
I18
sS'umpires'
p115
I18
sS'wrong'
p116
I18
sS'birthday'
p117
I18
sS'girl!,90011\n519753836311764992,melok_crook,2014-10-08'
p118
I18
sS'coming'
p119
I18
sS'man'
p120
I18
sS'a'
p121
I4
sS'waist'
p122
I18
sS'whenever'
p123
I17
sS'wins'
p124
I18
sS'green'
p125
I18
sS'road'
p126
I18
sS'dream'
p127
I18
sS"that's"
p128
I18
sS"don't"
p129
I11
sS'over'
p130
I18
sS'move'
p131
I18
sS'soon'
p132
I18
sS'trade'
p133
I18
sS'sperm'
p134
I18
sS'looks'
p135
I17
sS'knocks'
p136
I18
sS'hell'
p137
I18
sS'machine'
p138
I18
sS'20'
p139
I18
sS'thank'
p140
I16
sS'la'
p141
I16
sS'better'
p142
I18
sS'ruining'
p143
I18
sS'criminal'
p144
I18
sS'them'
p145
I18
sS'someone'
p146
I17
sS'cornerback'
p147
I18
sS'combination'
p148
I17
sS'kellys_8'
p149
I18
sS'they'
p150
I14
sS'not'
p151
I16
sS'now'
p152
I18
sS'ahaha'
p153
I18
sS'day'
p154
I18
sS'bryan'
p155
I18
sS'magnitude'
p156
I18
sS'found'
p157
I18
sS'luck'
p158
I18
sS'signing'
p159
I18
sS'everyone'
p160
I18
sS'england'
p161
I18
sS'hard'
p162
I18
sS'begun'
p163
I18
sS'year'
p164
I18
sS'bendo'
p165
I18
sS'out'
p166
I15
sS'god'
p167
I18
sS'defend'
p168
I18
sS'bad'
p169
I17
sS'looking'
p170
I18
sS'seriously'
p171
I18
sS'safety'
p172
I18
sS'boegarts'
p173
I18
sS'got'
p174
I16
sS'ass'
p175
I18
sS'foundation'
p176
I18
sS'pathetic'
p177
I18
sS'dirt'
p178
I18
sS'welker'
p179
I18
sS'boobs'
p180
I18
sS'bleaching'
p181
I18
sS'cut'
p182
I18
sS'california'
p183
I17
sS'grandma'
p184
I18
sS'ask'
p185
I18
sS'beginning'
p186
I18
sS'thrown'
p187
I18
sS'napoli'
p188
I18
sS'me,90011\n'
p189
I18
sS'terrible'
p190
I18
sS'keep'
p191
I18
sS'thing'
p192
I18
sS'heck'
p193
I18
sS'place'
p194
I18
sS'annoyin'
p195
I18
sS'think'
p196
I17
sS'south'
p197
I18
sS'already'
p198
I18
sS'feel'
p199
I18
sS'bama'
p200
I18
sS'xd'
p201
I18
sS'one'
p202
I18
sS'bitch'
p203
I18
sS'another'
p204
I18
sS'tomorrow'
p205
I18
sS"you're"
p206
I16
sS'start'
p207
I18
sS'top'
p208
I18
sS'system'
p209
I18
sS'draft'
p210
I18
sS'too'
p211
I16
sS'doesnt'
p212
I18
sS'store'
p213
I18
sS'that'
p214
I12
sS'season'
p215
I18
sS'nobody'
p216
I18
sS'park'
p217
I18
sS'part'
p218
I18
sS'hazelnut'
p219
I18
sS'than'
p220
I17
sS'remember'
p221
I17
sS'king'
p222
I18
sS'lmao'
p223
I17
sS'showed'
p224
I18
sS'gotten'
p225
I18
sS'gotta'
p226
I18
sS'tree'
p227
I18
sS'ss'
p228
I18
sS'supposed'
p229
I18
sS'feeling'
p230
I18
sS'dana'
p231
I18
sS'and'
p232
I4
sS'1.6'
p233
I18
sS'mine'
p234
I18
sS'talib'
p235
I17
sS'graffiti'
p236
I18
sS'have'
p237
I15
sS'need'
p238
I16
sS'saw'
p239
I18
sS'any'
p240
I18
sS'these'
p241
I16
sS'wilson'
p242
I18
sS'milner'
p243
I18
sS'ideas'
p244
I18
sS'omfg'
p245
I17
sS'take'
p246
I17
sS'so'
p247
I14
sS'pimple'
p248
I18
sS'play'
p249
I17
sS'who'
p250
I18
sS'medal'
p251
I18
sS'why'
p252
I18
sS',90011\n490709289804111873,nutellajohnson,2014-07-20'
p253
I18
sS'camp'
p254
I18
sS'cover'
p255
I18
sS'hungry'
p256
I18
sS'badd'
p257
I18
sS'notch'
p258
I18
sS'brenda'
p259
I18
sS'show'
p260
I18
sS'text'
p261
I18
sS'spanking'
p262
I18
sS'pops'
p263
I18
sS'bring'
p264
I18
sS'corner'
p265
I17
sS'chicken'
p266
I18
sS'pleased'
p267
I18
sS'nervous'
p268
I18
sS'should'
p269
I14
sS'only'
p270
I18
sS'going'
p271
I18
sS'pretty'
p272
I18
sS'boyfriend'
p273
I18
sS'hope'
p274
I18
sS'do'
p275
I14
sS'his'
p276
I17
sS'get'
p277
I8
sS'ssw'
p278
I18
sS'stop'
p279
I18
sS'yogurt'
p280
I18
sS'cannot'
p281
I18
sS'shit,90011\n475737866203443200,itsluisgarcia_,2014-06-08'
p282
I18
sS'3b'
p283
I18
sS'dye'
p284
I17
sS'nasty'
p285
I18
sS'1.86mi'
p286
I18
sS'him'
p287
I16
sS'14:25:13.0,34.02685708,-118.26322426,2264.10,at'
p288
I18
sS'morning'
p289
I18
sS'thots'
p290
I18
sS'you,90011\n517433412613705728,melok_crook,2014-10-01'
p291
I18
sS'stupid'
p292
I18
sS'wish'
p293
I18
sS',90011\n444841751539224576,krascherrera,2014-03-15'
p294
I18
sS"y'all"
p295
I18
sS'set'
p296
I18
sS'art'
p297
I18
sS'see'
p298
I17
sS'asleep'
p299
I18
sS'are'
p300
I15
sS'said'
p301
I18
sS'matter'
p302
I18
sS'won'
p303
I18
sS'hopefully'
p304
I17
sS'luh'
p305
I18
sS'we'
p306
I8
sS'men'
p307
I18
sS'august'
p308
I18
sS'joy'
p309
I18
sS'weak'
p310
I18
sS'blame'
p311
I18
sS'job'
p312
I16
sS'concentrate'
p313
I18
sS'drew'
p314
I18
sS'wtf'
p315
I18
sS'hurts'
p316
I18
sS'picking'
p317
I18
sS'come'
p318
I18
sS'pissed'
p319
I18
sS'protect'
p320
I18
sS'last'
p321
I17
sS'taking'
p322
I18
sS'rams'
p323
I18
sS'bet'
p324
I18
sS"can't"
p325
I15
sS'"mamasita"'
p326
I18
sS'point'
p327
I18
sS'color'
p328
I18
sS'ca'
p329
I18
sS'dudes'
p330
I18
sS'walk'
p331
I18
sS'respect'
p332
I18
sS"it's"
p333
I14
sS'been'
p334
I17
sS'thottie'
p335
I18
sS'motherfuck'
p336
I18
sS'wants'
p337
I18
sS'life'
p338
I18
sS'spit'
p339
I18
sS"what's"
p340
I18
sS'hits'
p341
I18
sS'sad'
p342
I17
sS'those'
p343
I18
sS'solid'
p344
I18
sS'will'
p345
I17
sS'hahaha'
p346
I18
sS'fun'
p347
I17
sS"wouldn't"
p348
I18
sS'hoping'
p349
I17
sS'is'
p350
I6
sS'"i'
p351
I18
sS'elsiemayi'
p352
I18
sS'cant'
p353
I18
sS'good'
p354
I14
sS'im'
p355
I17
sS'in'
p356
I13
sS'everyday'
p357
I17
sS'if'
p358
I12
sS'daquandequan'
p359
I18
sS'tattoo'
p360
I17
sS')'
p361
I18
sS'hendricks'
p362
I18
sS'lol,90011\n505350001866715136,ernestoreform11,2014-08-29'
p363
I18
sS'week'
p364
I18
sS'ball'
p365
I18
sS'mariscos'
p366
I17
sS'hang'
p367
I18
sS'mmkay'
p368
I18
sS'gsp'
p369
I18
sS'off'
p370
I18
sS'scenario'
p371
I18
sS'i'
p372
I1
sS'settled'
p373
I18
sS'dancing'
p374
I18
sS'well'
p375
I17
sS'bottle'
p376
I18
sS'the'
p377
I2
sS'just'
p378
I16
sS'less'
p379
I18
sS'yea'
p380
I18
sS'micheladas'
p381
I18
sS'thanks'
p382
I17
sS'yes'
p383
I17
sS'yet'
p384
I18
sS'hah'
p385
I18
sS'broncos'
p386
I18
sS'also'
p387
I16
sS'had'
p388
I18
sS'except'
p389
I18
sS'mccourty'
p390
I17
sS'wes'
p391
I18
sS'lets'
p392
I18
sS'homies'
p393
I18
sS'ever,90011\n504062698280464384,pantydropper__,2014-08-26'
p394
I18
sS'has'
p395
I17
sS'17:01:24.0,34.02274709,-118.26128522,2264.10,lost'
p396
I18
sS'tuesday'
p397
I18
sS'homework'
p398
I18
sS'gave'
p399
I18
sS'real'
p400
I18
sS'possible'
p401
I18
sS'early'
p402
I17
sS'game'
p403
I18
sS'know'
p404
I17
sS'loss'
p405
I18
sS'mclogans'
p406
I18
sS'like'
p407
I16
sS'bracelet'
p408
I18
sS'officer'
p409
I18
sS'punny'
p410
I18
sS'because'
p411
I18
sS'people'
p412
I18
sS'fucking'
p413
I18
sS'some'
p414
I16
sS'hair'
p415
I15
sS'growth'
p416
I18
sS'home'
p417
I18
sS'liking'
p418
I18
sS'vs'
p419
I18
sS'for'
p420
I9
sS'absolutely'
p421
I18
sS'ice'
p422
I18
sS'everything'
p423
I18
sS'throat'
p424
I18
sS'foo'
p425
I18
sS'be'
p426
I15
sS'sewing'
p427
I18
sS'eating'
p428
I18
sS'bc'
p429
I18
sS'burn'
p430
I18
sS'santa'
p431
I18
sS';('
p432
I18
sS'throw'
p433
I18
sS'on'
p434
I12
sS'about'
p435
I17
sS'anything'
p436
I18
sS'of'
p437
I7
sS'&'
p438
I17
sS'favorite'
p439
I18
sS'o'
p440
I18
sS'angeles'
p441
I16
sS'toppings'
p442
I18
sS'or'
p443
I17
sS'block'
p444
I18
sS'whats'
p445
I18
sS'emotionless\xe2\x80\x9d'
p446
I18
sS'son'
p447
I18
sS'down'
p448
I17
sS'right'
p449
I18
sS'strip'
p450
I18
sS'your'
p451
I17
sS'luvvvvvv'
p452
I18
sS'her'
p453
I16
sS'lol'
p454
I14
sS'fight'
p455
I16
sS'los'
p456
I16
sS'lions'
p457
I18
sS"we're"
p458
I18
sS'lot'
p459
I16
sS'forward'
p460
I18
sS'boom'
p461
I18
sS'was'
p462
I15
sS'happy'
p463
I18
sS'an'
p464
I18
sS'lmaooo'
p465
I18
sS'but'
p466
I15
sS'blaming'
p467
I18
sS'shits'
p468
I18
sS'reed'
p469
I18
sS'gain'
p470
I18
sS'trying'
p471
I18
sS'with'
p472
I16
sS'he'
p473
I14
sS'hire'
p474
I18
sS'made'
p475
I18
sS'hitter'
p476
I18
sS'papi"'
p477
I18
sS'conor'
p478
I18
sS'fries'
p479
I18
sS'up'
p480
I13
sS'us'
p481
I16
sS'minutes'
p482
I18
sS'trips'
p483
I18
sS'citizenship'
p484
I18
sS'johnny'
p485
I18
sS'am'
p486
I18
sS'ferrell'
p487
I17
sS'as'
p488
I18
sS'exist'
p489
I18
sS'at'
p490
I11
sS'annoying'
p491
I18
sS'trip'
p492
I18
sS'shit'
p493
I17
sS'physical'
p494
I18
sS'echo'
p495
I18
sS'again'
p496
I17
sS'jesus'
p497
I18
sS'no'
p498
I18
sS'when'
p499
I15
sS'field'
p500
I18
sS'details'
p501
I18
sS'test'
p502
I18
sS'you'
p503
I10
sS'really'
p504
I18
sS'roll'
p505
I18
sS'nice'
p506
I17
sS'picture'
p507
I18
sS'jeremey'
p508
I18
sS'welcome'
p509
I18
sS'andrew'
p510
I18
sS"let's"
p511
I18
sS'building'
p512
I18
sS'waived'
p513
I18
sS'07:39:05.0,34.02232844,-118.26494198,2264.10,i'
p514
I18
sS'time'
p515
I17
sS'robert'
p516
I18
s.