(dp0
S''
p1
I1
sS'essay'
p2
I28
sS'all'
p3
I19
sS':/'
p4
I29
sS':('
p5
I28
sS'forget'
p6
I29
sS'dance'
p7
I29
sS'ale'
p8
I29
sS'sleep'
p9
I28
sS'go'
p10
I21
sS'gossip'
p11
I29
sS'expressions'
p12
I29
sS'hate'
p13
I26
sS'ready....see'
p14
I29
sS"01:50:23.0,34.0204627,-118.25263955,2270.10,i'm"
p15
I29
sS'santee'
p16
I29
sS'tweet'
p17
I29
sS'send'
p18
I29
sS'to'
p19
I5
sS'finally'
p20
I29
sS'how\xe2\x80\xa6'
p21
I29
sS'shouuld'
p22
I29
sS'sorry'
p23
I29
sS'enjoying'
p24
I29
sS'sent'
p25
I28
sS'ghana'
p26
I29
sS'shoot'
p27
I29
sS'woman'
p28
I29
sS'sitting'
p29
I27
sS'very'
p30
I29
sS'smh'
p31
I29
sS'w/the'
p32
I29
sS'tacos'
p33
I28
sS'actial'
p34
I29
sS'balls'
p35
I29
sS'every'
p36
I28
sS'surprise'
p37
I29
sS'jacob'
p38
I28
sS'drinking'
p39
I28
sS'fan'
p40
I29
sS"we'll"
p41
I29
sS'mexicans'
p42
I29
sS'bestfriend'
p43
I29
sS'did'
p44
I27
sS'killed'
p45
I29
sS'loneliness'
p46
I29
sS'turnt'
p47
I29
sS'leave'
p48
I29
sS'dick_jaso13'
p49
I29
sS'walked'
p50
I29
sS'ekolekua'
p51
I29
sS'quick'
p52
I29
sS'guy'
p53
I24
sS'fairfax'
p54
I29
sS'straight'
p55
I29
sS'sideburns...its'
p56
I29
sS'dis'
p57
I29
sS"i'll"
p58
I27
sS'talked'
p59
I29
sS'esos'
p60
I29
sS'00:25:41.0,34.01812553,-118.24877237,2270.10,she'
p61
I29
sS'japanese'
p62
I29
sS'past'
p63
I29
sS'mansion'
p64
I28
sS'zero'
p65
I29
sS'street'
p66
I28
sS'video'
p67
I29
sS'miley'
p68
I29
sS'brewing\xe2\x80\xa6'
p69
I28
sS'holdout'
p70
I29
sS'even'
p71
I26
sS'what'
p72
I20
sS'tipo'
p73
I29
sS'nana'
p74
I29
sS'+'
p75
I29
sS'matty_monster2'
p76
I29
sS'seconds'
p77
I29
sS'waiting'
p78
I28
sS'goes'
p79
I29
sS'new'
p80
I26
sS'racing'
p81
I29
sS'told'
p82
I29
sS'n.n'
p83
I29
sS'\xec\xa7\x80\xeb\x82\x98\xeb\x8a\x94'
p84
I29
sS'woozy'
p85
I29
sS'never'
p86
I28
sS'here'
p87
I22
sS'finest'
p88
I29
sS'\xe2\x9d\xa4\xef\xb8\x8f'
p89
I29
sS'let'
p90
I27
sS'alone'
p91
I29
sS'beard...mine'
p92
I29
sS'along'
p93
I29
sS"aren't"
p94
I29
sS'earthquake'
p95
I28
sS'dry'
p96
I29
sS'onihrkcalbanaho'
p97
I29
sS'great'
p98
I28
sS'kids'
p99
I29
sS'yessss'
p100
I29
sS'vaporized'
p101
I29
sS'30'
p102
I29
sS'jackie'
p103
I29
sS'leaving'
p104
I28
sS"i'd"
p105
I29
sS'smoke'
p106
I29
sS'social'
p107
I29
sS'priceless'
p108
I29
sS"i'm"
p109
I14
sS'makes'
p110
I28
sS'honor'
p111
I29
sS'point'
p112
I29
sS'beautiful'
p113
I28
sS'ipa'
p114
I28
sS'love'
p115
I25
sS'extra'
p116
I29
sS'win'
p117
I29
sS'vii'
p118
I26
sS'unlocked'
p119
I29
sS'\xed\x95\x84\xec\x9a\x94\xed\x95\x9c\xea\xb1\xb4\xec\x95\x84\xec\x9d\xb4\xec\x8a\xa4'
p120
I29
sS'put'
p121
I29
sS'smacked'
p122
I29
sS'otros'
p123
I29
sS'gosh'
p124
I29
sS'sweating'
p125
I29
sS'charge'
p126
I29
sS'from'
p127
I23
sS'would'
p128
I26
sS'&'
p129
I21
sS'give'
p130
I29
sS'pero'
p131
I29
sS'two'
p132
I28
sS'next'
p133
I28
sS'goaaaaaaallllllll'
p134
I29
sS'few'
p135
I28
sS'live'
p136
I28
sS'wood'
p137
I29
sS'call'
p138
I28
sS'6'
p139
I29
sS'taken'
p140
I29
sS'tape'
p141
I29
sS'means'
p142
I29
sS'tryin'
p143
I29
sS'type'
p144
I29
sS'today'
p145
I22
sS'more'
p146
I26
sS'females'
p147
I29
sS'relax'
p148
I29
sS'started'
p149
I29
sS'company'
p150
I10
sS'haha'
p151
I27
sS'sister'
p152
I29
sS'confused'
p153
I29
sS'phone'
p154
I27
sS'everywhere'
p155
I29
sS'baby'
p156
I29
sS'ok'
p157
I29
sS'5.5%abv'
p158
I29
sS'me'
p159
I15
sS'mf'
p160
I29
sS'word'
p161
I29
sS'room'
p162
I29
sS'this'
p163
I14
sS'malt'
p164
I29
sS'oh'
p165
I27
sS'sucks'
p166
I28
sS'entertained'
p167
I29
sS'cat'
p168
I29
sS'escorted'
p169
I29
sS'can'
p170
I26
sS'making'
p171
I27
sS'my'
p172
I6
sS'control'
p173
I28
sS'crazy'
p174
I28
sS'purchased'
p175
I29
sS'figure'
p176
I29
sS'monica'
p177
I29
sS"mcdonald's"
p178
I29
sS'awesome'
p179
I29
sS'fuck'
p180
I25
sS'honey'
p181
I28
sS'heard'
p182
I29
sS'something'
p183
I26
sS'want'
p184
I25
sS'acallin'
p185
I29
sS'matty!\xe2\x80\xa6'
p186
I29
sS'smoked'
p187
I29
sS'sis'
p188
I29
sS'huge'
p189
I28
sS'needs'
p190
I27
sS'\xec\xbb\xa4\xed\x94\xbc\xed\x96\xa5\xec\x9d\x80'
p191
I29
sS'end'
p192
I29
sS'sit'
p193
I29
sS'vibe'
p194
I29
sS'yeast'
p195
I29
sS'sudden'
p196
I29
sS'lunchbox'
p197
I29
sS'1'
p198
I28
sS'how'
p199
I25
sS'hot'
p200
I29
sS'hop'
p201
I29
sS'beach'
p202
I28
sS"doesn't"
p203
I28
sS'sweat'
p204
I29
sS'fireee'
p205
I29
sS'gtfo'
p206
I29
sS'mat'
p207
I28
sS'replacing'
p208
I29
sS'watch'
p209
I28
sS'after'
p210
I28
sS'them'
p211
I28
sS'face,90011\n511631401767022592,sixelaafiercee,2014-09-15'
p212
I29
sS'birthday'
p213
I26
sS'adventure'
p214
I29
sS'coming'
p215
I29
sS'date'
p216
I29
sS'such'
p217
I29
sS'guys'
p218
I28
sS'grow'
p219
I29
sS'man'
p220
I29
sS'a'
p221
I4
sS'realized'
p222
I29
sS'remember'
p223
I29
sS'third'
p224
I29
sS'light'
p225
I28
sS'lame'
p226
I29
sS'party,90058\n501454835942981635,klinger716,2014-08-18'
p227
I29
sS'anytime'
p228
I29
sS'q'
p229
I29
sS'rather'
p230
I29
sS'so'
p231
I13
sS'south'
p232
I29
sS'pay'
p233
I29
sS'worst'
p234
I28
sS'dream'
p235
I29
sS'playing'
p236
I29
sS'talk'
p237
I28
sS"that's"
p238
I29
sS'replied'
p239
I29
sS'cute'
p240
I25
sS'ha'
p241
I29
sS'mexican'
p242
I28
sS'office'
p243
I29
sS"don't"
p244
I24
sS'over'
p245
I28
sS'batch2'
p246
I29
sS'soon'
p247
I29
sS'sabrina'
p248
I29
sS'years'
p249
I29
sS'clowns.,90011\n358521694148763648,tr3ndykid,2013-07-20'
p250
I29
sS"won't"
p251
I27
sS'horns'
p252
I29
sS'hell'
p253
I29
sS'cold'
p254
I28
sS'still'
p255
I29
sS'its'
p256
I28
sS'ima'
p257
I28
sS'superior'
p258
I29
sS'20'
p259
I29
sS'thank'
p260
I28
sS'la'
p261
I26
sS'interesting'
p262
I29
sS'imo'
p263
I29
sS'actually'
p264
I27
sS'better'
p265
I26
sS'feel'
p266
I28
sS'window'
p267
I29
sS'tweets'
p268
I29
sS'weeks'
p269
I29
sS'soccer'
p270
I27
sS'goodmorning'
p271
I28
sS'happened'
p272
I29
sS'dad'
p273
I26
sS'then'
p274
I28
sS'coffee'
p275
I27
sS'good'
p276
I23
sS'growlahs'
p277
I29
sS'ya'
p278
I29
sS'dam'
p279
I29
sS'bein'
p280
I29
sS'safe'
p281
I29
sS'bouts'
p282
I29
sS'finish'
p283
I29
sS'break'
p284
I28
sS'lunch'
p285
I29
sS'therapy'
p286
I29
sS'shameful'
p287
I29
sS'\xe2\x98\xba\xef\xb8\x8f'
p288
I28
sS'hands'
p289
I29
sS'not'
p290
I18
sS'now'
p291
I25
sS'bullshit'
p292
I28
sS'gassed'
p293
I29
sS'fyi'
p294
I29
sS'ohana\xe2\x80\xa6'
p295
I28
sS'alex'
p296
I29
sS'name'
p297
I26
sS'\xeb\x84\xa4'
p298
I29
sS'apedriemos'
p299
I29
sS'"rhino"'
p300
I29
sS'follow'
p301
I29
sS'jersey'
p302
I29
sS'roll'
p303
I29
sS'went'
p304
I29
sS'ochoa'
p305
I29
sS"ya'll"
p306
I29
sS'side'
p307
I29
sS'mean'
p308
I29
sS'heavy'
p309
I29
sS'everyone'
p310
I25
sS'lowkey'
p311
I29
sS'\xec\x98\xa4\xed\x9b\x84'
p312
I29
sS'concord'
p313
I29
sS'doing'
p314
I27
sS'series'
p315
I29
sS'energy'
p316
I29
sS'hard'
p317
I29
sS'yeah'
p318
I27
sS'banquet'
p319
I29
sS'group'
p320
I29
sS'ball'
p321
I28
sS'ey'
p322
I29
sS'forgot'
p323
I28
sS'2day'
p324
I29
sS'our'
p325
I28
sS'girl'
p326
I24
sS'calling'
p327
I29
sS'thick'
p328
I29
sS'neighbourhood'
p329
I29
sS'really'
p330
I25
sS'rt'
p331
I29
sS'weekend)'
p332
I29
sS'lola'
p333
I29
sS'nigga'
p334
I29
sS'god'
p335
I29
sS'tried'
p336
I29
sS'since'
p337
I28
sS'seriously'
p338
I29
sS'7'
p339
I29
sS'paradise'
p340
I29
sS'got'
p341
I22
sS'rn'
p342
I27
sS'cause'
p343
I27
sS'ass'
p344
I27
sS'bye'
p345
I29
sS'shut'
p346
I29
sS'dodgers'
p347
I29
sS'monster'
p348
I29
sS"you're"
p349
I27
sS'cars'
p350
I29
sS'ipod'
p351
I29
sS'nuit'
p352
I24
sS'little'
p353
I29
sS'mmm'
p354
I29
sS'small'
p355
I29
sS'reason'
p356
I29
sS'que'
p357
I29
sS'grandma'
p358
I28
sS'ask'
p359
I28
sS'bites'
p360
I29
sS'stay\xe2\x80\xa6'
p361
I29
sS'juan'
p362
I29
sS'thrown'
p363
I29
sS'director'
p364
I29
sS'ate'
p365
I29
sS'reply'
p366
I29
sS'gell'
p367
I29
sS'could'
p368
I28
sS'enjoy'
p369
I29
sS'gaff'
p370
I29
sS'days'
p371
I28
sS'keep'
p372
I29
sS'thing'
p373
I29
sS'plane'
p374
I29
sS'place'
p375
I29
sS'20th'
p376
I29
sS'black"'
p377
I29
sS'retail'
p378
I29
sS'\xec\x9d\xb4'
p379
I29
sS'think'
p380
I25
sS'fuckin'
p381
I29
sS'first'
p382
I27
sS'emotion'
p383
I29
sS'cheese'
p384
I29
sS'earache'
p385
I29
sS'flying'
p386
I29
sS'ono'
p387
I29
sS'14:18:01.0,34.0200617,-118.25269226,2270.10,so'
p388
I29
sS'gisselle'
p389
I28
sS'chased'
p390
I29
sS'taco'
p391
I29
sS'xd'
p392
I27
sS'one'
p393
I21
sS'set'
p394
I29
sS'bitch'
p395
I29
sS'another'
p396
I27
sS'comin'
p397
I29
sS'message'
p398
I29
sS'kidding'
p399
I28
sS'quality'
p400
I28
sS'ripping'
p401
I29
sS'city'
p402
I27
sS'guess'
p403
I28
sS'long'
p404
I29
sS'monkey'
p405
I29
sS'start'
p406
I28
sS'caught'
p407
I29
sS'night'
p408
I29
sS'girls'
p409
I25
sS'\xec\xa7\x80\xea\xb8\x88'
p410
I29
sS'their'
p411
I28
sS'flamebroiler'
p412
I29
sS'2'
p413
I29
sS'too'
p414
I28
sS'ordered'
p415
I29
sS'nelson'
p416
I29
sS'store'
p417
I28
sS'danish'
p418
I29
sS'eyes'
p419
I29
sS'selling'
p420
I29
sS'way'
p421
I29
sS'that'
p422
I15
sS'gym'
p423
I29
sS'bruh'
p424
I29
sS'took'
p425
I29
sS'fittings'
p426
I29
sS'depressing'
p427
I29
sS'cops'
p428
I29
sS'ridiculous'
p429
I29
sS'grandpa'
p430
I29
sS'sinsemilla'
p431
I29
sS'pasadena'
p432
I29
sS'kept'
p433
I29
sS'ramzy'
p434
I29
sS'flowers'
p435
I29
sS'dt'
p436
I29
sS'than'
p437
I28
sS'$1'
p438
I29
sS'ipad'
p439
I29
sS'tires'
p440
I29
sS'13'
p441
I29
sS'lmao'
p442
I29
sS'18'
p443
I29
sS'gotta'
p444
I29
sS'bed'
p445
I28
sS'(california'
p446
I29
sS'matter'
p447
I29
sS'blonde\xe2\x80\x9d'
p448
I29
sS'gatos'
p449
I28
sS'friend'
p450
I28
sS'colab'
p451
I28
sS'were'
p452
I27
sS'8th'
p453
I29
sS'fermentation'
p454
I29
sS'and'
p455
I13
sS'mini'
p456
I29
sS'lbs'
p457
I29
sS'rae'
p458
I29
sS'false'
p459
I29
sS'turned'
p460
I29
sS'sad'
p461
I29
sS'tonight'
p462
I25
sS'talking'
p463
I28
sS'say'
p464
I27
sS'himself'
p465
I29
sS'have'
p466
I22
sS'need'
p467
I25
sS'turn'
p468
I29
sS'saw'
p469
I29
sS'afraid'
p470
I27
sS'bullshit...im'
p471
I29
sS'congrats'
p472
I29
sS'ohana'
p473
I7
sS'-'
p474
I29
sS'trash'
p475
I29
sS'mix'
p476
I29
sS'best'
p477
I28
sS'performance'
p478
I29
sS'jawline...which'
p479
I29
sS'latino'
p480
I29
sS'oops'
p481
I29
sS'time."'
p482
I29
sS'7%'
p483
I29
sS'though'
p484
I28
sS'very\xe2\x80\xa6'
p485
I29
sS'knew'
p486
I28
sS"where's"
p487
I29
sS'most'
p488
I28
sS'matty'
p489
I29
sS'20%'
p490
I29
sS'dudeeeeee'
p491
I29
sS"l.a.'s"
p492
I29
sS'why'
p493
I20
sS'miel'
p494
I29
sS'zealand'
p495
I29
sS'forever'
p496
I28
sS'bumping'
p497
I29
sS'\xeb\x82\xb4\xea\xb2\x8c'
p498
I29
sS'bug'
p499
I29
sS'cloth'
p500
I29
sS'windows'
p501
I29
sS'face'
p502
I29
sS'freeway'
p503
I29
sS'\xea\xb0\x80\xeb\x93\x9d\xed\x95\x98\xec\xa7\x80\xeb\xa7\x8c'
p504
I29
sS'aunt'
p505
I29
sS'backdrop'
p506
I29
sS'exp'
p507
I29
sS'brew'
p508
I28
sS'hear'
p509
I29
sS'blend'
p510
I29
sS'wow'
p511
I29
sS'came'
p512
I27
sS'shop'
p513
I29
sS'eazy-e'
p514
I29
sS'unleashed'
p515
I29
sS'bomb'
p516
I28
sS'text'
p517
I28
sS'random'
p518
I29
sS'ciroc'
p519
I29
sS'bring'
p520
I29
sS'\xec\x9e\x94'
p521
I29
sS'chicken'
p522
I29
sS'out!!!,90058\n409619376426713088,pkdestorya,2013-12-08'
p523
I29
sS'find'
p524
I27
sS'o'
p525
I29
sS'partially'
p526
I29
sS'specifically'
p527
I29
sS'noir'
p528
I24
sS'sourced'
p529
I28
sS'music'
p530
I29
sS'hops'
p531
I29
sS'('
p532
I25
sS'explain'
p533
I29
sS'at\xe2\x80\x9d'
p534
I29
sS'3'
p535
I29
sS'should'
p536
I26
sS'bush'
p537
I29
sS'going'
p538
I26
sS'black'
p539
I28
sS'buying'
p540
I29
sS'photo'
p541
I28
sS'quememos'
p542
I29
sS'watching'
p543
I29
sS'he'
p544
I25
sS'hope'
p545
I29
sS'carolina'
p546
I29
sS'porque'
p547
I29
sS'do'
p548
I19
sS'his'
p549
I26
sS'get'
p550
I22
sS'beat'
p551
I28
sS'stop'
p552
I25
sS'lucky'
p553
I29
sS'tbh'
p554
I27
sS'09:40:07.0,34.01787145,-118.24189566,2270.10,i'
p555
I29
sS'watermelon'
p556
I29
sS'fetish'
p557
I29
sS'nasty'
p558
I29
sS'beards'
p559
I29
sS'him'
p560
I27
sS'freaking'
p561
I28
sS'nicely'
p562
I29
sS'ever'
p563
I29
sS'morning'
p564
I27
sS'naked'
p565
I29
sS'topaz'
p566
I29
sS'bad'
p567
I25
sS'stuff'
p568
I29
sS'caramel'
p569
I29
sS'she'
p570
I21
sS'x'
p571
I28
sS'wheeling'
p572
I29
sS'where'
p573
I28
sS'husband'
p574
I29
sS'bars'
p575
I29
sS'untrue'
p576
I29
sS'art'
p577
I29
sS'concert'
p578
I29
sS'dump'
p579
I29
sS'nut'
p580
I29
sS'keyboard'
p581
I29
sS'dickhead'
p582
I29
sS'see'
p583
I29
sS'horse'
p584
I29
sS'are'
p585
I19
sS'holding'
p586
I29
sS'retweet'
p587
I29
sS'analog'
p588
I24
sS'wonder'
p589
I29
sS'practice'
p590
I29
sS'said'
p591
I27
sS'destiny'
p592
I29
sS'anigga'
p593
I29
sS'cried'
p594
I29
sS'currently'
p595
I29
sS'case'
p596
I29
sS'written'
p597
I29
sS"there's"
p598
I29
sS'gaga'
p599
I29
sS'alegar'
p600
I29
sS'morales'
p601
I29
sS'routine'
p602
I29
sS'probably'
p603
I29
sS'reading'
p604
I29
sS'conditions'
p605
I29
sS'monsters'
p606
I29
sS'bought'
p607
I29
sS'kreayshawn'
p608
I29
sS'we'
p609
I21
sS'latin'
p610
I29
sS'omg'
p611
I27
sS'messed'
p612
I29
sS'joy'
p613
I29
sS'brewing'
p614
I8
sS'job'
p615
I29
sS'(los'
p616
I29
sS'spoil'
p617
I29
sS'hurts'
p618
I28
sS'cousin'
p619
I28
sS'picking'
p620
I28
sS'come'
p621
I28
sS'thumb'
p622
I29
sS'league'
p623
I29
sS'c'
p624
I29
sS'mans'
p625
I28
sS'last'
p626
I29
sS'signed'
p627
I29
sS'always'
p628
I29
sS'many'
p629
I29
sS'taking'
p630
I29
sS"he's"
p631
I27
sS'minds'
p632
I28
sS'creeping'
p633
I29
sS'tlc'
p634
I28
sS'players'
p635
I28
sS'admit'
p636
I29
sS'grain'
p637
I29
sS'bbs'
p638
I29
sS'"farts'
p639
I29
sS'baseball'
p640
I29
sS'asked'
p641
I28
sS"can't"
p642
I27
sS'honestly'
p643
I29
sS'clowns'
p644
I29
sS'co'
p645
I28
sS'drunk'
p646
I27
sS'listening'
p647
I29
sS'community'
p648
I28
sS'running'
p649
I28
sS'revving'
p650
I29
sS'non'
p651
I29
sS'laugh'
p652
I29
sS'church'
p653
I29
sS'outta'
p654
I29
sS'nicole'
p655
I29
sS'600'
p656
I29
sS'save'
p657
I29
sS'yay'
p658
I28
sS'engines'
p659
I29
sS"it's"
p660
I20
sS'locally'
p661
I28
sS'reggae'
p662
I29
sS'due'
p663
I29
sS'been'
p664
I28
sS'cyrus'
p665
I29
sS'mart'
p666
I29
sS'much'
p667
I25
sS'damn'
p668
I28
sS'noel'
p669
I29
sS'meeting'
p670
I28
sS'duv'
p671
I29
sS'schoolboy'
p672
I29
sS'wants'
p673
I28
sS'eko'
p674
I29
sS'life'
p675
I29
sS'lanc\xc3\xb4me'
p676
I29
sS'noooo'
p677
I29
sS'puberty'
p678
I29
sS'andrew'
p679
I29
sS'moment'
p680
I27
sS'javier'
p681
I29
sS'lives'
p682
I29
sS'-.-'
p683
I23
sS'careful'
p684
I29
sS'chill'
p685
I29
sS'sound'
p686
I29
sS'myself'
p687
I29
sS'criminal'
p688
I28
sS'look'
p689
I29
sS'grains'
p690
I29
sS'these'
p691
I26
sS'mount'
p692
I24
sS'bill'
p693
I29
sS'appearance'
p694
I29
sS'single'
p695
I29
sS'n'
p696
I27
sS'will'
p697
I28
sS'while'
p698
I26
sS'2013'
p699
I29
sS'stopping'
p700
I29
sS'spider'
p701
I29
sS'remembering'
p702
I29
sS'fool'
p703
I29
sS'periodistas'
p704
I29
sS'barely'
p705
I29
sS'<3'
p706
I29
sS'mexico'
p707
I29
sS'vi'
p708
I28
sS'is'
p709
I8
sS'it'
p710
I11
sS'sleeping'
p711
I29
sS'someone'
p712
I28
sS'im'
p713
I27
sS'in'
p714
I9
sS'ready'
p715
I28
sS'carbon'
p716
I29
sS'if'
p717
I23
sS'gone'
p718
I29
sS'confirmed'
p719
I29
sS'troublemaker'
p720
I29
sS'bottles'
p721
I29
sS'shirt'
p722
I29
sS'8:00'
p723
I29
sS'etc'
p724
I29
sS'things'
p725
I28
sS'make'
p726
I28
sS'reminded'
p727
I29
sS'same'
p728
I29
sS'when'
p729
I22
sS'"i'
p730
I29
sS'party'
p731
I29
sS'elliott'
p732
I29
sS'\xeb\x8d\xa5\xeb\x8b\xa4'
p733
I29
sS'grows'
p734
I29
sS'higher'
p735
I29
sS'week'
p736
I29
sS'outside'
p737
I29
sS'used'
p738
I28
sS'bald'
p739
I29
sS'coffe'
p740
I29
sS'please\xe2\x80\x9d'
p741
I29
sS'cheers'
p742
I28
sS'fucken'
p743
I28
sS'\xea\xb7\xb8\xeb\x9e\x80\xeb\x8d\xb0...\xed\x95\x9c'
p744
I29
sS'barber'
p745
I29
sS'infused'
p746
I29
sS'hombrenoticialiebers'
p747
I29
sS'l.a'
p748
I29
sS'\xe2\x9c\x8c\xef\xb8\x8f'
p749
I29
sS'\xec\x95\x84\xec\x9d\xb4\xec\x8a\xa4\xec\xbb\xa4\xed\x94\xbc'
p750
I29
sS'off'
p751
I29
sS'hopping'
p752
I29
sS"mother's"
p753
I29
sS'i'
p754
I2
sS'try'
p755
I29
sS'dancing'
p756
I29
sS'grind'
p757
I29
sS'thought'
p758
I29
sS'comes'
p759
I29
sS'bottle'
p760
I29
sS'\xeb\xa7\x89'
p761
I29
sS'the'
p762
I3
sS'hubby'
p763
I28
sS'loveeee'
p764
I29
sS'away'
p765
I29
sS'tha'
p766
I29
sS'3pm'
p767
I29
sS'summer'
p768
I29
sS'they'
p769
I25
sS'just'
p770
I14
sS'sentence'
p771
I29
sS'being'
p772
I28
sS'money'
p773
I28
sS'accurate'
p774
I29
sS'jusy'
p775
I29
sS'thanks'
p776
I29
sS'human'
p777
I28
sS'yep'
p778
I29
sS'yes'
p779
I28
sS'makt'
p780
I29
sS'clueless'
p781
I29
sS'$'
p782
I29
sS'thinking'
p783
I29
sS',90011\n501210170974691328,satsumy,2014-08-18'
p784
I29
sS'had'
p785
I28
sS'\xec\x8b\x9c\xec\xa0\x90\xec\x97\x90'
p786
I29
sS'day'
p787
I23
sS'hoppy'
p788
I29
sS'cud'
p789
I29
sS'4'
p790
I29
sS'riverside'
p791
I29
sS'has'
p792
I26
sS'take'
p793
I29
sS'around'
p794
I28
sS'rules'
p795
I29
sS'big'
p796
I29
sS'showing'
p797
I29
sS"who's"
p798
I29
sS'fridge'
p799
I29
sS'gonna'
p800
I26
sS'early'
p801
I28
sS'game'
p802
I29
sS'traffic'
p803
I29
sS'know'
p804
I19
sS'mom'
p805
I27
sS'using'
p806
I28
sS'bit'
p807
I29
sS'wings'
p808
I29
sS'whitesides'
p809
I29
sS'tl'
p810
I29
sS'like'
p811
I23
sS'pounds'
p812
I29
sS'hustling'
p813
I29
sS'future'
p814
I29
sS'twin'
p815
I29
sS'background'
p816
I29
sS'tia'
p817
I29
sS'true'
p818
I29
sS'either'
p819
I29
sS'angels'
p820
I29
sS'lose'
p821
I29
sS'5$'
p822
I29
sS'beerculees1'
p823
I29
sS'overslept'
p824
I29
sS'sremmurd'
p825
I29
sS'right'
p826
I25
sS"couldn't"
p827
I29
sS'people'
p828
I26
sS'fucking'
p829
I25
sS'scared'
p830
I28
sS'yolo'
p831
I29
sS'some'
p832
I21
sS'back'
p833
I26
sS'10'
p834
I29
sS'hair'
p835
I29
sS'palm'
p836
I29
sS'salir'
p837
I29
sS'home'
p838
I26
sS'hoongry'
p839
I29
sS'\xec\x97\x98\xec\x97\x90\xec\x9d\xb4'
p840
I29
sS'\xec\xa0\x95\xeb\xa7\x90'
p841
I29
sS'for'
p842
I15
sS'snicker'
p843
I29
sS'literally'
p844
I28
sS'tube'
p845
I29
sS"ou'chea"
p846
I29
sS'\xec\xb0\x90~\xed\x95\x9c'
p847
I29
sS'everything'
p848
I28
sS'critical'
p849
I29
sS'passion'
p850
I29
sS'bites!"'
p851
I29
sS'^-^'
p852
I29
sS'pee'
p853
I29
sS'nuggets'
p854
I29
sS'nose'
p855
I29
sS'be'
p856
I20
sS'who'
p857
I26
sS'asap'
p858
I29
sS'lmfao'
p859
I29
sS'09:44:04.0,34.01809372,-118.24188803,2270.10,living'
p860
I29
sS'santa'
p861
I29
sS'raul'
p862
I29
sS'\xed\x95\x9c\xec\x8b\x9c\xeb\xa5\xbc'
p863
I29
sS'by'
p864
I25
sS'hearing'
p865
I29
sS'on'
p866
I22
sS'about'
p867
I22
sS'works'
p868
I29
sS'central'
p869
I28
sS'yelling'
p870
I29
sS'8pm'
p871
I29
sS'getting'
p872
I27
sS'of'
p873
I12
sS'likely,90011\n488023627468509186,jackxlyn,2014-07-12'
p874
I29
sS'prove'
p875
I29
sS'favorite'
p876
I29
sS'shits."'
p877
I29
sS'angeles'
p878
I27
sS'swear'
p879
I29
sS'idk'
p880
I28
sS'west'
p881
I29
sS'wanna'
p882
I28
sS'or'
p883
I29
sS'liar'
p884
I29
sS'ppl'
p885
I29
sS'reptile'
p886
I29
sS'formerly'
p887
I29
sS'chels'
p888
I29
sS'into'
p889
I29
sS'soo'
p890
I29
sS',90011\n488024656901726208,jackxlyn,2014-07-12'
p891
I29
sS'down'
p892
I29
sS'wray'
p893
I29
sS'poly'
p894
I29
sS'weather'
p895
I28
sS'city\xe2\x80\xa6'
p896
I29
sS'golpean'
p897
I29
sS'dreaming'
p898
I29
sS'happening'
p899
I29
sS'bombay'
p900
I29
sS'your'
p901
I27
sS'smells'
p902
I29
sS'van'
p903
I29
sS'weight'
p904
I29
sS'her'
p905
I27
sS'renewal'
p906
I29
sS'there'
p907
I28
sS'\xec\x8a\xa4\xed\x83\x80\xeb\xb2\x85\xec\x8a\xa4'
p908
I29
sS'ca)'
p909
I29
sS'lol'
p910
I15
sS'fight'
p911
I28
sS'los'
p912
I27
sS'burning'
p913
I29
sS'cats'
p914
I29
sS'missy'
p915
I29
sS"we're"
p916
I28
sS'03:33:11.0,34.02037743,-118.25256683,2270.10,that'
p917
I29
sS'wax'
p918
I29
sS'stand'
p919
I29
sS'bored'
p920
I28
sS'was'
p921
I18
sS'twitter'
p922
I29
sS'happy'
p923
I26
sS'memory'
p924
I29
sS'media'
p925
I29
sS'buy'
p926
I28
sS'north'
p927
I29
sS'pimpin'
p928
I29
sS'pointless'
p929
I29
sS"i've"
p930
I28
sS'w/mold'
p931
I29
sS'believe'
p932
I29
sS'bitches'
p933
I29
sS'but'
p934
I20
sS'idea'
p935
I29
sS'jus'
p936
I28
sS'hi'
p937
I29
sS'uncle'
p938
I29
sS'dead'
p939
I29
sS'._'
p940
I28
sS'beech'
p941
I29
sS'trying'
p942
I28
sS'with'
p943
I17
sS'eat'
p944
I29
sS'bud'
p945
I28
sS'posted'
p946
I28
sS'outchea'
p947
I29
sS'made'
p948
I28
sS'wish'
p949
I28
sS'inside'
p950
I28
sS'fries'
p951
I29
sS'up'
p952
I21
sS'us'
p953
I28
sS'ur'
p954
I29
sS'um'
p955
I29
sS'treasure'
p956
I29
sS'dawg'
p957
I29
sS'woke'
p958
I29
sS'piece'
p959
I29
sS'called'
p960
I28
sS'hahahahhahahah'
p961
I29
sS'ac'
p962
I29
sS'vigorously'
p963
I29
sS'craft_is_king'
p964
I29
sS'pimples'
p965
I29
sS'tmrws'
p966
I29
sS'pic'
p967
I29
sS'am'
p968
I28
sS'al'
p969
I29
sS'an'
p970
I26
sS'as'
p971
I27
sS'at'
p972
I16
sS'girlfriend'
p973
I29
sS'watched'
p974
I29
sS'hahahahahhahah'
p975
I29
sS'annoying'
p976
I28
sS'shit'
p977
I25
sS'again'
p978
I28
sS'jesus'
p979
I29
sS'peach'
p980
I29
sS'no'
p981
I25
sS'roly'
p982
I29
sS'dressed'
p983
I29
sS'nd'
p984
I28
sS'cfuck'
p985
I29
sS'rubber'
p986
I29
sS'tight'
p987
I29
sS'nap'
p988
I28
sS'other'
p989
I29
sS'2da'
p990
I29
sS'naw'
p991
I29
sS'sick'
p992
I29
sS'you'
p993
I13
sS'out'
p994
I23
sS'smell'
p995
I29
sS'enjoyable!,90011\n501184299874254848,satsumy,2014-08-18'
p996
I29
sS'rid'
p997
I29
sS'nice'
p998
I28
sS'gaining'
p999
I29
sS'picture'
p1000
I28
sS'titles'
p1001
I29
sS'sauvin'
p1002
I29
sS'class'
p1003
I29
sS'welcome'
p1004
I29
sS"let's"
p1005
I29
sS'important'
p1006
I28
sS'kinda'
p1007
I26
sS'fresh'
p1008
I29
sS'song'
p1009
I29
sS'friends'
p1010
I28
sS'gets'
p1011
I29
sS'earphones'
p1012
I28
sS'19:45:24.0,34.01794986,-118.23983154,2270.10,talk'
p1013
I29
sS'"driving'
p1014
I29
sS'\xec\x9d\xb4\xec\xa0\x9c'
p1015
I29
sS'\xe2\x80\x94'
p1016
I28
sS'wifi'
p1017
I27
sS'500lbs'
p1018
I29
sS'gr8'
p1019
I29
sS'grips'
p1020
I29
sS'ombr\xc3\xa9'
p1021
I29
sS'races'
p1022
I29
sS'u'
p1023
I26
sS'lying'
p1024
I29
sS'time'
p1025
I26
sS"she's"
p1026
I28
sS'wouldve'
p1027
I29
sS'parole'
p1028
I29
sS'starting'
p1029
I28
sS'saison'
p1030
I28
s.