(dp0
S''
p1
I1
sS'limited'
p2
I26
sS'all'
p3
I25
sS':)'
p4
I25
sS'takis'
p5
I26
sS'hats'
p6
I26
sS'\xeb\xb0\xa9\xed\x95\x99'
p7
I26
sS'tomorrow\xee\x80\x8e\xee\x85\x8c'
p8
I26
sS'dynasty'
p9
I26
sS'in-n-out'
p10
I26
sS'sleep'
p11
I26
sS'go'
p12
I20
sS'follow'
p13
I22
sS'liam'
p14
I26
sS'consider'
p15
I26
sS'$120'
p16
I26
sS'imma'
p17
I26
sS'simios'
p18
I26
sS'hunger'
p19
I26
sS'vez'
p20
I26
sS'young'
p21
I26
sS'otra'
p22
I26
sS'igual'
p23
I26
sS'to'
p24
I4
sS'chewing'
p25
I26
sS'/.\\'
p26
I26
sS'tf'
p27
I26
sS'mefor'
p28
I26
sS'enjoying'
p29
I26
sS'woman'
p30
I24
sS'cruising'
p31
I26
sS'very'
p32
I23
sS'apoco'
p33
I26
sS'regional'
p34
I24
sS'fav'
p35
I26
sS'fat'
p36
I26
sS':c'
p37
I26
sS'tatted'
p38
I26
sS'bestie'
p39
I26
sS'fall'
p40
I26
sS'screaming'
p41
I26
sS'present\xe2\x80\xa6'
p42
I26
sS'tickets'
p43
I26
sS'school'
p44
I25
sS'salad'
p45
I26
sS'\xeb\xb3\xb4\xeb\x8b\xa4'
p46
I26
sS'die'
p47
I26
sS'today....sad'
p48
I26
sS'gum'
p49
I26
sS'guy'
p50
I26
sS"i'll"
p51
I26
sS'work'
p52
I24
sS'angeles)'
p53
I26
sS'sign'
p54
I22
sS'past'
p55
I26
sS'talks'
p56
I26
sS'second'
p57
I26
sS'gatos'
p58
I26
sS'may'
p59
I26
sS'n'
p60
I26
sS'hopefully'
p61
I26
sS'drinks'
p62
I26
sS'even'
p63
I23
sS'what'
p64
I19
sS'plays'
p65
I26
sS'giving'
p66
I25
sS'coasters'
p67
I26
sS'\xec\x9d\xb4\xeb\x94\xb0'
p68
I26
sS'ever'
p69
I26
sS'filled'
p70
I26
sS'told'
p71
I25
sS'body'
p72
I26
sS'full'
p73
I26
sS'dazed'
p74
I26
sS'(los'
p75
I26
sS'hours'
p76
I26
sS'fuck'
p77
I25
sS'change'
p78
I26
sS'wait'
p79
I25
sS'dry'
p80
I26
sS'boy'
p81
I26
sS'great'
p82
I25
sS'kids'
p83
I26
sS'\xed\x95\x98\xeb\x8a\x98'
p84
I26
sS'metro'
p85
I25
sS'\xed\x95\x98\xeb\x8a\x94'
p86
I26
sS'\xec\xa0\x80\xec\xaa\xbd\xec\x9d\xb4\xeb\xa9\xb4'
p87
I26
sS'30'
p88
I26
sS'tolerating'
p89
I24
sS'amount'
p90
I26
sS'social'
p91
I26
sS"i'm"
p92
I18
sS'makes'
p93
I26
sS'beautiful'
p94
I26
sS'love'
p95
I17
sS'family'
p96
I26
sS'slices'
p97
I26
sS'feelings'
p98
I26
sS'bro'
p99
I26
sS'ask'
p100
I26
sS'wit'
p101
I25
sS'contemplating'
p102
I26
sS'duck'
p103
I26
sS'tuesday'
p104
I26
sS'verlo'
p105
I26
sS'from'
p106
I22
sS'perf'
p107
I26
sS'would'
p108
I24
sS'&'
p109
I24
sS'hartosexuals'
p110
I25
sS'comparing'
p111
I26
sS'ca)'
p112
I26
sS'dreamers'
p113
I26
sS'call'
p114
I26
sS'\xeb\x90\x98\xeb\x8a\x94\xeb\x8d\xb0\xec\x9a\x94..\xe3\x85\x8b\xe3\x85\x8b'
p115
I26
sS'themselves'
p116
I26
sS'tell'
p117
I26
sS'today'
p118
I26
sS'more'
p119
I24
sS"love's"
p120
I26
sS'1/5'
p121
I26
sS'babe'
p122
I26
sS"'gracias'"
p123
I26
sS'saber'
p124
I26
sS'satanas'
p125
I26
sS'haha'
p126
I26
sS'sister'
p127
I25
sS'confused'
p128
I26
sS'phone'
p129
I26
sS'train'
p130
I26
sS'adult'
p131
I26
sS'olive'
p132
I26
sS'hold'
p133
I26
sS'me'
p134
I7
sS'none'
p135
I26
sS'animals'
p136
I26
sS'anything'
p137
I25
sS'hour'
p138
I26
sS'niggas'
p139
I25
sS'this'
p140
I13
sS'\xec\xa7\x91\xec\x97\x90\xea\xb0\x80\xec\x84\x9c'
p141
I26
sS'mi'
p142
I26
sS'can'
p143
I23
sS'morgan'
p144
I26
sS'cal'
p145
I26
sS'making'
p146
I25
sS'my'
p147
I8
sS'coffin'
p148
I26
sS'\xec\x8b\xa4\xec\x97\x88\xec\x9c\xbc\xeb\xa9\xb4'
p149
I26
sS'\xe3\x85\x8b\xe3\x85\x8b'
p150
I26
sS'claim'
p151
I26
sS'crazy'
p152
I26
sS'give'
p153
I26
sS"didn't"
p154
I26
sS'stressing'
p155
I26
sS'\xee\x94\x96'
p156
I26
sS'sike'
p157
I26
sS'heard'
p158
I26
sS'want'
p159
I25
sS'station'
p160
I26
sS'tan'
p161
I26
sS'sis'
p162
I26
sS'sir'
p163
I26
sS'nevin'
p164
I26
sS'end'
p165
I26
sS'thing'
p166
I25
sS'washin'
p167
I26
sS'watching'
p168
I26
sS'trophies'
p169
I26
sS'everyday'
p170
I26
sS'1'
p171
I26
sS'how'
p172
I24
sS'hot'
p173
I25
sS'swear'
p174
I26
sS'fools'
p175
I26
sS'3\xed\x95\x99\xeb\x85\x84\xec\x9d\xb4\xeb\x8b\xb9'
p176
I26
sS'answer'
p177
I26
sS'sati'
p178
I26
sS'luster'
p179
I26
sS'grinds'
p180
I26
sS'okay'
p181
I26
sS'killroy'
p182
I26
sS'\xed\x82\xa4\xec\x9b\xa0\xeb\x82\xb4'
p183
I26
sS'>>>>>>>>>>>'
p184
I26
sS'\xec\x82\xac\xeb\x9e\x8c\xeb\x93\xa4'
p185
I26
sS'after'
p186
I26
sS'vicious'
p187
I26
sS'reflect'
p188
I26
sS'wrong'
p189
I25
sS'4th'
p190
I26
sS'mad'
p191
I23
sS'suck'
p192
I26
sS'fuuuu'
p193
I26
sS'data'
p194
I26
sS'man'
p195
I25
sS'a'
p196
I5
sS'wins'
p197
I26
sS'appreciate'
p198
I26
sS'st'
p199
I26
sS'so'
p200
I16
sS'every'
p201
I26
sS'dream'
p202
I26
sS'se'
p203
I25
sS'cute'
p204
I23
sS'mexican'
p205
I25
sS'help'
p206
I26
sS"don't"
p207
I19
sS'over'
p208
I26
sS'haircut'
p209
I26
sS'jocy'
p210
I26
sS'birdy'
p211
I26
sS'still'
p212
I24
sS'avenue'
p213
I26
sS'before'
p214
I23
sS'perfect'
p215
I26
sS'thank'
p216
I26
sS'till'
p217
I26
sS'pronto'
p218
I26
sS'lo'
p219
I26
sS'(1569'
p220
I26
sS'sunday'
p221
I26
sS'[pic]'
p222
I26
sS'better'
p223
I25
sS'\xeb\x8d\x94'
p224
I26
sS'given...live'
p225
I26
sS'2015'
p226
I26
sS'\xec\x82\xac\xec\x8b\xa4'
p227
I26
sS'cutie'
p228
I26
sS"haven't"
p229
I25
sS'dad'
p230
I26
sS'then'
p231
I25
sS'them'
p232
I25
sS'good'
p233
I22
sS'disrespectful'
p234
I26
sS'drama'
p235
I26
sS'ya'
p236
I24
sS'weakness'
p237
I26
sS'break'
p238
I26
sS"you've"
p239
I25
sS'they'
p240
I21
sS'wealthy'
p241
I26
sS'not'
p242
I22
sS'now'
p243
I21
sS'day'
p244
I22
sS'bank'
p245
I26
sS'name'
p246
I26
sS'always'
p247
I25
sS'fag'
p248
I26
sS'differenter."'
p249
I26
sS'\xee\x8c\xaa'
p250
I26
sS'\xeb\xb8\x8c\xeb\x9e\x9c\xeb\x8b\xa4\xec\x9d\x98'
p251
I26
sS'el'
p252
I26
sS'lowkey'
p253
I26
sS'hiccups'
p254
I26
sS'hanged'
p255
I26
sS'year'
p256
I24
sS'our'
p257
I25
sS'girl'
p258
I25
sS'morning'
p259
I26
sS'event'
p260
I26
sS'funnnyy'
p261
I26
sS'out'
p262
I18
sS'rt'
p263
I23
sS'network'
p264
I26
sS'space'
p265
I26
sS'\xeb\xa1\xa4\xeb\xaa\xa8\xeb\x8d\xb8\xec\x9d\xb4\xec\x8b\xa0'
p266
I26
sS'god'
p267
I26
sS'\xeb\xaa\xbb\xed\x95\x98\xeb\x82\x98\xec\x9a\x94'
p268
I26
sS'seriously'
p269
I26
sS'stupid'
p270
I26
sS'health'
p271
I26
sS'smh'
p272
I25
sS'got'
p273
I22
sS'rn'
p274
I24
sS'cause'
p275
I26
sS'blasting'
p276
I26
sS'gears'
p277
I26
sS'ass'
p278
I26
sS'\xec\x9e\x88\xeb\x8a\x94\xeb\x8d\xb0..\xeb\x82\x98\xeb\x8f\x84'
p279
I26
sS'friday'
p280
I26
sS'friends'
p281
I26
sS'little'
p282
I26
sS'yesterday'
p283
I26
sS'que'
p284
I25
sS"people's"
p285
I26
sS'put'
p286
I26
sS'beginning'
p287
I26
sS'care'
p288
I26
sS'ate'
p289
I26
sS'3.\xed\x95\x99.\xeb\x85\x84\xe3\x85\x8b\xe3\x85\x8b'
p290
I26
sS'yup'
p291
I26
sS'headphones'
p292
I26
sS'days'
p293
I25
sS'conversation'
p294
I26
sS'\xed\x97\x88\xec\x9c\x84'
p295
I26
sS'birthday'
p296
I26
sS'tempting'
p297
I26
sS'turf'
p298
I26
sS'\xec\x9d\xb4'
p299
I26
sS'think'
p300
I25
sS'first'
p301
I25
sS'\xea\xb7\xb8\xeb\xa0\x87\xea\xb2\x8c\xeb\x82\x98'
p302
I26
sS'already'
p303
I26
sS'\xeb\x93\x9c\xeb\xac\xb8'
p304
I25
sS'feel'
p305
I26
sS'number'
p306
I26
sS'one'
p307
I24
sS'embarrassed'
p308
I26
sS'fucked'
p309
I26
sS'done'
p310
I24
sS'bitch'
p311
I24
sS'another'
p312
I24
sS'spanish'
p313
I26
sS'booty'
p314
I26
sS'\xeb\x8c\x80\xed\x95\x9c\xeb\xaf\xbc\xea\xb5\xad\xec\x9d\xb4'
p315
I26
sS'miss'
p316
I26
sS'tomorrow'
p317
I26
sS'ripping'
p318
I26
sS"you're"
p319
I26
sS'guess'
p320
I26
sS'\xec\x97\xac\xea\xb8\xb0'
p321
I26
sS'personalities'
p322
I26
sS'guys'
p323
I26
sS'redondo'
p324
I26
sS'our\xe2\x80\xa6'
p325
I26
sS'least'
p326
I26
sS'their'
p327
I25
sS'2'
p328
I24
sS'too'
p329
I25
sS'mama'
p330
I26
sS'dwell'
p331
I26
sS'white'
p332
I26
sS'store'
p333
I26
sS'headache'
p334
I26
sS'foodbank'
p335
I24
sS'that'
p336
I16
sS'season'
p337
I26
sS'gym'
p338
I26
sS'park'
p339
I25
sS'\xec\x9a\xb0\xeb\xa6\xac\xeb\x82\x98\xeb\x9d\xbc'
p340
I25
sS'\xe2\x9c\x8btry'
p341
I26
sS'swells'
p342
I26
sS'waking'
p343
I26
sS'colada!\xe2\x80\x9d'
p344
I26
sS'than'
p345
I26
sS'\xec\x95\x88\xed\x95\x98\xec\x8b\x9c\xeb\x82\x98\xec\x9a\x94'
p346
I26
sS'loved'
p347
I26
sS'dryin'
p348
I26
sS'tree'
p349
I26
sS'arb'
p350
I26
sS'bed'
p351
I26
sS'future'
p352
I26
sS'were'
p353
I26
sS'k'
p354
I26
sS'shampoos'
p355
I26
sS'angeles\xe2\x80\xa6'
p356
I26
sS'and'
p357
I11
sS'me?diamonds'
p358
I26
sS'2014'
p359
I26
sS'barf'
p360
I26
sS'mind'
p361
I26
sS'street'
p362
I26
sS'theeee'
p363
I26
sS'sad'
p364
I25
sS'tonight'
p365
I25
sS'talking'
p366
I26
sS'say'
p367
I26
sS'\xeb\x82\xa0\xea\xb0\x9c'
p368
I25
sS'starship\xe2\x80\xa6'
p369
I26
sS'have'
p370
I22
sS'need'
p371
I20
sS'seen'
p372
I26
sS'\xeb\xaa\xb8\xec\x9d\x84'
p373
I26
sS'mins'
p374
I26
sS'saw'
p375
I26
sS'lie'
p376
I24
sS'ohana'
p377
I25
sS'shorts'
p378
I26
sS'somethings'
p379
I26
sS'\xec\xa0\x80'
p380
I26
sS'\xeb\x8c\x80\xed\x95\x9c\xed\x95\xad\xea\xb3\xb5'
p381
I26
sS'ideal'
p382
I26
sS'take'
p383
I26
sS'wanting'
p384
I26
sS'has\xe2\x80\xa6'
p385
I26
sS'='
p386
I26
sS'blue'
p387
I26
sS'play'
p388
I26
sS'added'
p389
I26
sS'bands'
p390
I26
sS'moms'
p391
I26
sS'\xec\x97\xac\xeb\xa6\x84'
p392
I26
sS'approves'
p393
I26
sS'who'
p394
I26
sS'lovefor'
p395
I26
sS'intergalactic'
p396
I26
sS'plan'
p397
I25
sS'**'
p398
I26
sS'entry'
p399
I26
sS'nothing'
p400
I26
sS'\xeb\xb0\x9b\xec\x9c\xbc\xeb\xa9\xb4'
p401
I26
sS'forever'
p402
I26
sS'don'
p403
I26
sS'talk'
p404
I26
sS'pi\xc3\xb1a'
p405
I26
sS'advisory'
p406
I26
sS'show'
p407
I25
sS'queen'
p408
I26
sS'ending'
p409
I26
sS'ants'
p410
I26
sS'radio'
p411
I26
sS'cashk'
p412
I26
sS'pleaee'
p413
I26
sS'tuesdays'
p414
I26
sS'find'
p415
I25
sS'trying'
p416
I26
sS'dice'
p417
I26
sS'jay'
p418
I26
sS'('
p419
I25
sS'explain'
p420
I26
sS'waiting'
p421
I26
sS'should'
p422
I25
sS'only'
p423
I24
sS'going'
p424
I25
sS'black'
p425
I24
sS'photo'
p426
I26
sS'8'
p427
I26
sS'hope'
p428
I26
sS'porque'
p429
I26
sS'do'
p430
I18
sS'\xea\xb7\xb8\xeb\xa0\x87\xea\xb2\x8c'
p431
I26
sS'get'
p432
I23
sS"'tis"
p433
I26
sS'de'
p434
I23
sS'7-11'
p435
I26
sS'metroooo'
p436
I26
sS'cannot'
p437
I26
sS'coordinating'
p438
I26
sS'tba'
p439
I26
sS'banner'
p440
I26
sS'him'
p441
I24
sS'southcentral'
p442
I26
sS'\xea\xb3\xa0\xed\x96\xa5(?)\xec\x97\x90\xec\x84\x9c'
p443
I26
sS'cry'
p444
I26
sS'calling'
p445
I26
sS'thots'
p446
I26
sS'bad'
p447
I24
sS'bae'
p448
I26
sS'she'
p449
I25
sS'where'
p450
I26
sS'bachata'
p451
I26
sS"y'all"
p452
I23
sS'\xec\xab\x8c'
p453
I26
sS'creaciones'
p454
I26
sS'concert'
p455
I26
sS'w/'
p456
I26
sS'see'
p457
I24
sS'decided'
p458
I26
sS'are'
p459
I25
sS'highs'
p460
I26
sS'disturbing'
p461
I26
sS'best'
p462
I25
sS'tripping'
p463
I26
sS"gonethey'll"
p464
I26
sS'currently'
p465
I26
sS'please'
p466
I15
sS'mexicans'
p467
I26
sS"there's"
p468
I26
sS'turn'
p469
I26
sS'riidiiiiing'
p470
I26
sS'it'
p471
I18
sS'steelers'
p472
I26
sS'24'
p473
I26
sS'we'
p474
I26
sS'never'
p475
I26
sS'omg'
p476
I26
sS'august'
p477
I26
sS'trynna'
p478
I25
sS'opening'
p479
I26
sS'brewing'
p480
I25
sS'\xeb\x84\x88\xeb\xa8\xb8\xec\x97\x94'
p481
I26
sS'concentrate'
p482
I26
sS'here'
p483
I26
sS'wtf'
p484
I26
sS'news'
p485
I26
sS'come'
p486
I26
sS'pissed'
p487
I26
sS'\xec\xa0\x80~\xec\xaa\xbd\xec\x9c\xbc\xeb\xa1\x9c'
p488
I26
sS'titties'
p489
I26
sS'last'
p490
I22
sS'restaurant'
p491
I26
sS'many'
p492
I26
sS'thinkla'
p493
I25
sS'annual'
p494
I24
sS'jelly'
p495
I26
sS'\xea\xb3\xb5\xec\x97\xb0'
p496
I26
sS'april'
p497
I26
sS'interesting'
p498
I26
sS'dopest'
p499
I26
sS"can't"
p500
I25
sS'con'
p501
I26
sS'co'
p502
I25
sS'drunk'
p503
I26
sS'ca'
p504
I26
sS'por'
p505
I26
sS'dudes'
p506
I26
sS'2nd'
p507
I26
sS'likes'
p508
I26
sS'koolest'
p509
I26
sS'speak'
p510
I26
sS'\xec\x9a\xb8'
p511
I26
sS'yay'
p512
I26
sS"it's"
p513
I23
sS'karla'
p514
I26
sS'acceptance'
p515
I26
sS'been'
p516
I21
sS'beer'
p517
I26
sS'much'
p518
I24
sS'damn'
p519
I22
sS'treat'
p520
I26
sS'choose'
p521
I26
sS'wants'
p522
I26
sS'life'
p523
I26
sS'flight'
p524
I26
sS'fire'
p525
I26
sS'\xec\x96\xb8\xec\xa0\x9c'
p526
I26
sS'offered'
p527
I26
sS'cruelty'
p528
I24
sS'photos'
p529
I26
sS'\xec\x9a\xb0\xeb\xa6\xac\xec\x9d\x98'
p530
I26
sS'awake'
p531
I26
sS'deep'
p532
I26
sS'hooooome'
p533
I26
sS'ravens'
p534
I26
sS'volunteer'
p535
I25
sS'myself'
p536
I25
sS'look'
p537
I25
sS'\xec\x82\xac\xec\x9d\xb4\xeb\xa1\x9c'
p538
I26
sS'these'
p539
I24
sS'air'
p540
I26
sS'will'
p541
I26
sS'ugly'
p542
I26
sS'while'
p543
I26
sS'accidently'
p544
I26
sS'2013'
p545
I26
sS'hahaha'
p546
I26
sS'fun'
p547
I26
sS'maradi'
p548
I26
sS'ill'
p549
I26
sS'va'
p550
I26
sS'compton'
p551
I24
sS'is'
p552
I10
sS'coffee'
p553
I25
sS'ive'
p554
I26
sS'someone'
p555
I24
sS'im'
p556
I24
sS'in'
p557
I9
sS'ready'
p558
I25
sS'voy'
p559
I26
sS'feed'
p560
I26
sS'if'
p561
I19
sS'different'
p562
I26
sS'soldier('
p563
I26
sS'wearing'
p564
I26
sS'make'
p565
I25
sS'bowl'
p566
I26
sS'same'
p567
I26
sS'food'
p568
I26
sS'speech'
p569
I26
sS'big'
p570
I26
sS'success'
p571
I26
sS'week'
p572
I26
sS'ball'
p573
I26
sS'\xeb\xb2\x8c\xec\x8d\xa8'
p574
I26
sS'motivational'
p575
I26
sS'hawt'
p576
I26
sS'coachella'
p577
I26
sS'rain'
p578
I26
sS'romeo'
p579
I26
sS'credit\xe2\x80\xa6'
p580
I26
sS'moment'
p581
I25
sS'jealous'
p582
I26
sS'totally'
p583
I26
sS'\xe2\x9c\x8c\xef\xb8\x8f'
p584
I26
sS'tracking'
p585
I26
sS'off'
p586
I25
sS'unlike'
p587
I26
sS'i'
p588
I2
sS'32nd'
p589
I26
sS'fighting'
p590
I26
sS'person'
p591
I26
sS'without'
p592
I26
sS'bey'
p593
I26
sS'english'
p594
I26
sS'y'
p595
I26
sS'hearts'
p596
I26
sS'the'
p597
I3
sS'spend'
p598
I26
sS'left'
p599
I26
sS'mom'
p600
I26
sS'just'
p601
I20
sS'true'
p602
I26
sS'money'
p603
I25
sS'sleepy'
p604
I26
sS'thanks'
p605
I25
sS'human'
p606
I26
sS'yes'
p607
I25
sS'yet'
p608
I25
sS'jose'
p609
I26
sS'hiking'
p610
I26
sS'\xeb\x8b\xa4\xec\x9a\xb4'
p611
I26
sS'had'
p612
I23
sS'book'
p613
I26
sS'parents'
p614
I26
sS'4'
p615
I26
sS'save'
p616
I26
sS'josy'
p617
I26
sS'joke'
p618
I26
sS'real'
p619
I25
sS'jeans'
p620
I26
sS'early'
p621
I26
sS'game'
p622
I25
sS'\xed\x95\x9c\xea\xb0\x80\xec\x9a\x94'
p623
I26
sS'spittin'
p624
I26
sS'know'
p625
I22
sS'zayn'
p626
I26
sS'\xec\xa0\x95\xed\x98\x84\xeb\x8b\x98'
p627
I26
sS'taking'
p628
I26
sS'bit'
p629
I26
sS'alchy'
p630
I26
sS'stuff'
p631
I26
sS'towel'
p632
I26
sS'like'
p633
I21
sS'\xed\x83\x9c.\xed\x8f\x89.\xec\x96\x91..??\xec\xa0\x80'
p634
I26
sS'darling'
p635
I26
sS'candy'
p636
I26
sS'heart'
p637
I26
sS'night'
p638
I26
sS'nerves'
p639
I26
sS'\xec\x9c\xa0\xed\x8f\xac'
p640
I26
sS'page'
p641
I26
sS'right'
p642
I25
sS'old'
p643
I25
sS"couldn't"
p644
I26
sS'people'
p645
I23
sS'\xed\x8c\x8c\xeb\x9e\x80'
p646
I25
sS'\xec\xa4\x80\xeb\xb9\x84'
p647
I26
sS'some'
p648
I24
sS'back'
p649
I23
sS'cowboys'
p650
I26
sS'home'
p651
I26
sS'finna'
p652
I26
sS'for'
p653
I12
sS'\xec\x96\xb4\xeb\x96\xbb\xea\xb2\x8c'
p654
I26
sS'separate'
p655
I26
sS'religion'
p656
I26
sS'asking'
p657
I26
sS'eso'
p658
I26
sS'brats'
p659
I26
sS'be'
p660
I20
sS'goooooo'
p661
I26
sS'pls'
p662
I26
sS'530'
p663
I26
sS'laker'
p664
I26
sS'putting'
p665
I26
sS'\xec\xa0\x9c\xeb\xb0\x9c'
p666
I24
sS'super'
p667
I26
sS'by'
p668
I21
sS'on'
p669
I17
sS'about'
p670
I24
sS'working'
p671
I26
sS'volunteering'
p672
I25
sS'package'
p673
I26
sS'meow'
p674
I26
sS'of'
p675
I19
sS'angeles'
p676
I23
sS'camels'
p677
I26
sS'\xeb\x82\xbc'
p678
I26
sS'west'
p679
I26
sS'sadistic'
p680
I26
sS'kat'
p681
I26
sS'wanna'
p682
I24
sS'or'
p683
I22
sS'fan'
p684
I26
sS'into'
p685
I25
sS'\xeb\xb6\x80\xed\x84\xb4'
p686
I26
sS'son'
p687
I26
sS'down'
p688
I26
sS'inbox'
p689
I26
sS'elementary'
p690
I26
sS'\xea\xb0\x84\xeb\x8b\xa4'
p691
I26
sS'your'
p692
I25
sS'\xeb\x81\x9d'
p693
I25
sS'often'
p694
I26
sS'existed'
p695
I26
sS'"even'
p696
I26
sS'encontra'
p697
I26
sS'cali'
p698
I26
sS'weekend'
p699
I26
sS'there'
p700
I25
sS'question'
p701
I25
sS'lol'
p702
I23
sS'\xeb\x94\xb8\xeb\x9e\x98\xeb\xaf\xb8'
p703
I25
sS'los'
p704
I20
sS'downey'
p705
I26
sS'way'
p706
I24
sS'bored'
p707
I26
sS'was'
p708
I25
sS'happy'
p709
I24
sS'function'
p710
I26
sS'buy'
p711
I25
sS"i've"
p712
I25
sS'hr'
p713
I26
sS'bitches'
p714
I26
sS'\xea\xb5\xac\xeb\xa6\x84'
p715
I26
sS'but'
p716
I21
sS'\xeb\x82\xa0\xea\xb0\x9c\xec\x97\x90'
p717
I26
sS'hear'
p718
I25
sS'lows'
p719
I26
sS'line'
p720
I26
sS'\xe2\x99\xa5'
p721
I25
sS'with'
p722
I15
sS'eat'
p723
I26
sS'he'
p724
I26
sS'throw'
p725
I26
sS'identificados'
p726
I26
sS'whether'
p727
I26
sS'wish'
p728
I25
sS'layin'
p729
I26
sS'up'
p730
I22
sS'us'
p731
I25
sS'sienten'
p732
I26
sS'excitement'
p733
I26
sS'dirty'
p734
I26
sS'agree'
p735
I26
sS'djing'
p736
I26
sS'gone'
p737
I26
sS'planeta'
p738
I26
sS'morning\xe2\x80\xa6'
p739
I26
sS'af'
p740
I26
sS'feliz'
p741
I26
sS'forgot'
p742
I26
sS'am'
p743
I24
sS'direction'
p744
I26
sS'starbucks'
p745
I26
sS'an'
p746
I26
sS'as'
p747
I23
sS'at'
p748
I14
sS'watched'
p749
I26
sS"tastes'"
p750
I26
sS'happen'
p751
I26
sS'shit'
p752
I25
sS'again'
p753
I25
sS'song*'
p754
I26
sS'no'
p755
I22
sS'when'
p756
I23
sS'\xeb\x8f\x84'
p757
I26
sS'\xeb\x93\x9c\xeb\x94\x94\xec\x96\xb4'
p758
I26
sS'uh-oh'
p759
I26
sS'other'
p760
I26
sS'5'
p761
I25
sS'you'
p762
I6
sS'really'
p763
I23
sS'nice'
p764
I26
sS'**breaks'
p765
I26
sS'la'
p766
I25
sS'monday'
p767
I26
sS"o'clock"
p768
I26
sS'problems'
p769
I26
sS'stay'
p770
I26
sS"let's"
p771
I25
sS'fell'
p772
I26
sS'kinda'
p773
I26
sS"she's"
p774
I26
sS'kitten'
p775
I26
sS'empowers'
p776
I24
sS'dolphins'
p777
I23
sS'e'
p778
I26
sS'faster'
p779
I26
sS"he's"
p780
I25
sS'\xed\x97\x88\xec\x88\xa0'
p781
I26
sS'teams'
p782
I26
sS'stripping'
p783
I26
sS'\xec\x97\x98\xec\x97\x90\xec\x9d\xb4\xeb\x8a\x94'
p784
I26
sS'time'
p785
I22
sS'push'
p786
I26
sS'wake'
p787
I26
sS'starting'
p788
I26
s.