(dp0
S''
p1
I1
sS'all'
p2
I29
sS':)'
p3
I42
sS'hands'
p4
I43
sS'af\xe2\x80\x9d'
p5
I43
sS'leads'
p6
I43
sS'sleep'
p7
I41
sS'gb'
p8
I42
sS'skin'
p9
I43
sS'go'
p10
I37
sS'follow'
p11
I43
sS'chillin'
p12
I42
sS'santee'
p13
I42
sS'imma'
p14
I43
sS"a'f"
p15
I37
sS'tweet'
p16
I43
sS'wassup'
p17
I42
sS'ultraviolence'
p18
I42
sS'young'
p19
I42
sS'thursday'
p20
I43
sS'to'
p21
I4
sS'finally'
p22
I37
sS'walks'
p23
I43
sS'beats'
p24
I43
sS'artpop'
p25
I42
sS'terror'
p26
I43
sS'smile'
p27
I42
sS'te'
p28
I42
sS'ta'
p29
I43
sS'breathing'
p30
I43
sS'song'
p31
I37
sS'stfu'
p32
I43
sS'horror'
p33
I41
sS'hilarious'
p34
I43
sS'\xc2\xbfquien'
p35
I43
sS"knowi'm"
p36
I43
sS'every'
p37
I41
sS'jack'
p38
I43
sS"dolla'"
p39
I43
sS'blast'
p40
I43
sS'expectations'
p41
I43
sS'minute'
p42
I43
sS'cool'
p43
I43
sS'man\xc3\xa1'
p44
I43
sS'school'
p45
I31
sS'heaven'
p46
I42
sS'magic'
p47
I43
sS'couches'
p48
I43
sS'grey'
p49
I43
sS'did'
p50
I43
sS'die'
p51
I42
sS'marry'
p52
I43
sS'works'
p53
I43
sS'wednesday'
p54
I43
sS'try'
p55
I40
sS'nono'
p56
I43
sS'soooo'
p57
I42
sS'tomorrowand'
p58
I43
sS'querer'
p59
I43
sS'diz'
p60
I43
sS'lessen'
p61
I43
sS'quick'
p62
I43
sS'venus'
p63
I43
sS'eggshells'
p64
I43
sS'clothes'
p65
I43
sS"i'll"
p66
I36
sS'open'
p67
I42
sS'work'
p68
I33
sS'booty'
p69
I41
sS'tired'
p70
I16
sS'tea'
p71
I43
sS'past'
p72
I43
sS'burger'
p73
I43
sS'video'
p74
I41
sS'sheeran'
p75
I41
sS'anaconda'
p76
I41
sS'stressing'
p77
I43
sS'mine\xe2\x80\x9d'
p78
I43
sS'even'
p79
I37
sS'army'
p80
I43
sS'what'
p81
I35
sS'sweats'
p82
I42
sS'jokes'
p83
I43
sS'giving'
p84
I43
sS'hate'
p85
I29
sS'tienen'
p86
I43
sS'"idc"'
p87
I43
sS'fucks'
p88
I43
sS'sweaty'
p89
I43
sS'lmfao'
p90
I21
sS'waiting'
p91
I41
sS'version'
p92
I43
sS'soooooon'
p93
I43
sS'pic*'
p94
I43
sS'new'
p95
I40
sS"hefe's"
p96
I43
sS'ever'
p97
I39
sS'guns'
p98
I43
sS'body'
p99
I41
sS'full'
p100
I43
sS'pirujas'
p101
I43
sS'loose'
p102
I41
sS'fatter'
p103
I43
sS'here'
p104
I39
sS'\xe2\x9d\xa4\xef\xb8\x8f'
p105
I42
sS'weirdo'
p106
I43
sS'making'
p107
I40
sS'alone'
p108
I43
sS'sexy'
p109
I43
sS'x-x-x-t-t-t-i-i-i-n-n-n-a'
p110
I43
sS'strong'
p111
I42
sS'teacher'
p112
I43
sS'change'
p113
I43
sS'box'
p114
I43
sS'boy'
p115
I43
sS'lol'
p116
I32
sS'talent'
p117
I43
sS'ahead'
p118
I43
sS'broken'
p119
I43
sS'cero'
p120
I43
sS'bruises'
p121
I43
sS'upjust'
p122
I43
sS'shades'
p123
I43
sS'jackie'
p124
I43
sS'tv'
p125
I43
sS'smoke'
p126
I43
sS'stressed'
p127
I42
sS'opinion'
p128
I41
sS"i'm"
p129
I6
sS'visit'
p130
I43
sS'makes'
p131
I42
sS'massage'
p132
I43
sS'reds'
p133
I43
sS'dumb'
p134
I43
sS'love'
p135
I29
sS'family'
p136
I38
sS'food\xe2\x80\x9d'
p137
I43
sS'staaaaahp'
p138
I43
sS'paradise'
p139
I43
sS'feelings'
p140
I42
sS'put'
p141
I43
sS'vip'
p142
I43
sS'you\xe2\x80\x99re'
p143
I43
sS'fake'
p144
I39
sS'earphone'
p145
I43
sS'gosh'
p146
I43
sS'singing'
p147
I41
sS';)'
p148
I43
sS'cloud'
p149
I43
sS'lime'
p150
I43
sS'everybody'
p151
I43
sS'plot'
p152
I42
sS'use'
p153
I41
sS'wayartpopcheek'
p154
I43
sS'from'
p155
I34
sS'working'
p156
I40
sS'&'
p157
I39
sS'lockers'
p158
I43
sS'pero'
p159
I43
sS'tears'
p160
I43
sS'next'
p161
I41
sS'pearl'
p162
I43
sS'live'
p163
I43
sS'call'
p164
I42
sS'iphone'
p165
I42
sS'typo'
p166
I43
sS'memory'
p167
I43
sS'wow\xe2\x80\x9d'
p168
I43
sS'type'
p169
I43
sS'tell'
p170
I40
sS'today'
p171
I29
sS'more'
p172
I35
sS'tryna'
p173
I43
sS'(at'
p174
I43
sS'babe'
p175
I42
sS'knows'
p176
I43
sS"something's"
p177
I43
sS'started'
p178
I43
sS'share'
p179
I42
sS'ooh'
p180
I42
sS'hurt'
p181
I42
sS'admissions'
p182
I43
sS'phone'
p183
I42
sS'vmas'
p184
I43
sS"ain't"
p185
I41
sS'basically'
p186
I43
sS'glam'
p187
I43
sS'baby'
p188
I29
sS'hold'
p189
I43
sS'trainor'
p190
I43
sS'women'
p191
I42
sS'me'
p192
I10
sS'none'
p193
I42
sS'balls'
p194
I42
sS'mouthmy'
p195
I43
sS'britney'
p196
I43
sS'f'
p197
I43
sS'this'
p198
I13
sS'challenge'
p199
I43
sS'getting'
p200
I41
sS'sucks'
p201
I41
sS'bomb'
p202
I43
sS'london'
p203
I43
sS'cat'
p204
I42
sS'wallet'
p205
I43
sS'mall'
p206
I43
sS'anywhere'
p207
I43
sS'del'
p208
I41
sS'can'
p209
I33
sS'v'
p210
I41
sS'meet'
p211
I42
sS'my'
p212
I3
sS'quarrel'
p213
I43
sS'saturday'
p214
I43
sS'heart'
p215
I42
sS'crazy'
p216
I40
sS'everyone'
p217
I43
sS'tap'
p218
I43
sS'(with'
p219
I43
sS'thirsty'
p220
I43
sS'give'
p221
I36
sS'\xe2\x9a\xbe'
p222
I43
sS"didn't"
p223
I39
sS'fuck'
p224
I32
sS'high'
p225
I41
sS'heard'
p226
I42
sS'his'
p227
I40
sS'something'
p228
I40
sS'want'
p229
I32
sS'station'
p230
I43
sS'dress'
p231
I43
sS'absolute'
p232
I43
sS'needs'
p233
I43
sS'end'
p234
I43
sS'awkward'
p235
I43
sS'mouse'
p236
I43
sS'yaaaas'
p237
I43
sS'watching'
p238
I43
sS'quien'
p239
I43
sS'viendo'
p240
I43
sS'1'
p241
I40
sS'how'
p242
I38
sS'hot'
p243
I41
sS'brian'
p244
I43
sS'worry'
p245
I43
sS'familiar'
p246
I43
sS'interview'
p247
I43
sS'expecting'
p248
I43
sS'g.u.y'
p249
I42
sS'slays'
p250
I43
sS'gurl'
p251
I43
sS'pizza'
p252
I43
sS'poker'
p253
I43
sS'de'
p254
I42
sS'okay'
p255
I43
sS'beauty'
p256
I43
sS'watch'
p257
I43
sS'chines'
p258
I43
sS'earlier'
p259
I43
sS'spot'
p260
I43
sS'wrong'
p261
I43
sS'birthday'
p262
I42
sS'*deletes'
p263
I43
sS'mad'
p264
I40
sS'coming'
p265
I43
sS'such'
p266
I42
sS'cabbage'
p267
I43
sS'guys'
p268
I42
sS'grow'
p269
I43
sS'man'
p270
I35
sS'a'
p271
I8
sS'fckn'
p272
I43
sS'remember'
p273
I40
sS'together'
p274
I43
sS'whenever'
p275
I43
sS'light'
p276
I42
sS'wallis'
p277
I42
sS'corona'
p278
I43
sS'or'
p279
I41
sS'cannot'
p280
I43
sS'honestly'
p281
I41
sS'grande'
p282
I43
sS'goodbye'
p283
I42
sS'pay'
p284
I42
sS'lmfaooooo'
p285
I43
sS'coors'
p286
I43
sS'playing'
p287
I43
sS'talk'
p288
I41
sS"that's"
p289
I39
sS'cute'
p290
I42
sS'school)'
p291
I42
sS'help'
p292
I43
sS"don't"
p293
I23
sS'over'
p294
I40
sS'move'
p295
I41
sS'sooo'
p296
I43
sS'mission'
p297
I43
sS'top'
p298
I43
sS'through'
p299
I43
sS'shit\xe2\x80\x9d'
p300
I43
sS'hell'
p301
I43
sS'cold'
p302
I43
sS'still'
p303
I35
sS'its'
p304
I43
sS'famethe'
p305
I43
sS'cola'
p306
I43
sS'you\xe2\x9d\xa4\xef\xb8\x8f'
p307
I43
sS'thank'
p308
I42
sS'fit'
p309
I43
sS'la'
p310
I41
sS'personal'
p311
I43
sS'sia'
p312
I42
sS"neighbor's"
p313
I43
sS'yeaaaaars'
p314
I43
sS'better'
p315
I42
sS'tramp'
p316
I43
sS'fade'
p317
I43
sS'orange'
p318
I43
sS'bout'
p319
I43
sS'about.\xe2\x80\x9d'
p320
I43
sS'setting'
p321
I43
sS"haven't"
p322
I41
sS'outside'
p323
I42
sS'dad'
p324
I43
sS'then'
p325
I41
sS'them'
p326
I43
sS'good'
p327
I36
sS'return'
p328
I43
sS'yo'
p329
I43
sS'ya'
p330
I43
sS'devastated'
p331
I43
sS'practice'
p332
I43
sS'camaron'
p333
I43
sS'veux'
p334
I42
sS"trini's"
p335
I43
sS'break'
p336
I41
sS'lunch'
p337
I43
sS'srsly'
p338
I42
sS"you've"
p339
I43
sS'they'
p340
I38
sS'weeds'
p341
I42
sS'not'
p342
I32
sS'now'
p343
I36
sS'class'
p344
I43
sS'day'
p345
I34
sS'bigger'
p346
I43
sS'officially'
p347
I43
sS'iced'
p348
I43
sS'everytime'
p349
I43
sS'tram'
p350
I43
sS'always'
p351
I36
sS'l'
p352
I41
sS'payed'
p353
I43
sS'someone'
p354
I43
sS'stopped'
p355
I43
sS'truth'
p356
I43
sS'each'
p357
I43
sS'addicted'
p358
I43
sS'found'
p359
I42
sS'went'
p360
I43
sS"cyrus's"
p361
I43
sS"ya'll"
p362
I42
sS'side'
p363
I43
sS"isn't"
p364
I41
sS'mean'
p365
I41
sS'seniors'
p366
I43
sS'reactions'
p367
I43
sS'studios'
p368
I41
sS'en'
p369
I42
sS'weight'
p370
I43
sS'doing'
p371
I39
sS'ed'
p372
I41
sS'energy'
p373
I43
sS'hard'
p374
I42
sS'yeah'
p375
I42
sS'brother'
p376
I43
sS'goose'
p377
I43
sS'year'
p378
I42
sS'our'
p379
I41
sS'girl'
p380
I42
sS'beyond'
p381
I43
sS'marley'
p382
I43
sS'pills'
p383
I42
sS'neighbourhood'
p384
I43
sS'out'
p385
I33
sS'album'
p386
I41
sS'gus'
p387
I43
sS'rey'
p388
I41
sS'missed'
p389
I43
sS'ughhhhh'
p390
I41
sS'sluts'
p391
I43
sS'god'
p392
I42
sS'since'
p393
I42
sS'freeze'
p394
I43
sS'astray'
p395
I43
sS'seriously'
p396
I42
sS'stupid'
p397
I40
sS'ra'
p398
I42
sS'internet'
p399
I41
sS'got'
p400
I29
sS'rn'
p401
I32
sS'cause'
p402
I31
sS'red'
p403
I43
sS'ass'
p404
I40
sS'shut'
p405
I41
sS'arizona'
p406
I43
sS'pathetic'
p407
I43
sS"you're"
p408
I23
sS'ipod'
p409
I42
sS'friday'
p410
I43
sS'guess'
p411
I42
sS'free'
p412
I36
sS'you.\xe2\x80\x9d'
p413
I43
sS'toy'
p414
I43
sS'que'
p415
I43
sS'grandma'
p416
I43
sS'viejo'
p417
I43
sS'earliest'
p418
I43
sS'care'
p419
I41
sS'thinks'
p420
I43
sS'sure'
p421
I43
sS'ate'
p422
I43
sS'shine'
p423
I43
sS'telenovela'
p424
I43
sS'could'
p425
I42
sS'headphones'
p426
I43
sS'days'
p427
I41
sS'keep'
p428
I42
sS'itjust'
p429
I43
sS'thing'
p430
I40
sS"frontin'"
p431
I43
sS'kardashian\xe2\x80\x9d'
p432
I43
sS'w'
p433
I41
sS'swing'
p434
I43
sS'potions'
p435
I43
sS'loud'
p436
I42
sS'think'
p437
I38
sS'waitress'
p438
I43
sS'first'
p439
I40
sS'enjoy'
p440
I43
sS'rang'
p441
I43
sS'already'
p442
I39
sS'statue'
p443
I43
sS'upper'
p444
I43
sS'feel'
p445
I38
sS'girls'
p446
I43
sS'painbut'
p447
I43
sS'supper'
p448
I43
sS'one'
p449
I39
sS'xx'
p450
I43
sS"spear's"
p451
I43
sS'done'
p452
I39
sS'bitch'
p453
I38
sS'bionic'
p454
I43
sS'blank'
p455
I43
sS'radiate'
p456
I43
sS'scarsbut'
p457
I43
sS'miss'
p458
I39
sS'tomorrow'
p459
I33
sS"doesn't"
p460
I38
sS'little'
p461
I40
sS'"'
p462
I43
sS'start'
p463
I43
sS'letting'
p464
I43
sS'caught'
p465
I42
sS"fuckin'"
p466
I43
sS'twisted'
p467
I43
sS'least'
p468
I42
sS'up"'
p469
I43
sS'well\xe2\x80\x9d'
p470
I43
sS'their'
p471
I41
sS'2'
p472
I36
sS'ton'
p473
I43
sS'too'
p474
I38
sS'statement'
p475
I43
sS'mama'
p476
I43
sS'legs'
p477
I43
sS'friend'
p478
I43
sS'misunderstood'
p479
I43
sS'//'
p480
I38
sS'eyes'
p481
I42
sS'x)'
p482
I37
sS'stomach'
p483
I37
sS'lot'
p484
I41
sS'para'
p485
I43
sS'that'
p486
I14
sS'camuflajearlo'
p487
I43
sS'hun'
p488
I43
sS'trippy'
p489
I43
sS'nighti'
p490
I43
sS'part'
p491
I43
sS'nigga'
p492
I43
sS'butt'
p493
I43
sS'wasted'
p494
I43
sS'fooled'
p495
I43
sS'believe'
p496
I42
sS'than'
p497
I40
sS'boyfriend'
p498
I29
sS'11'
p499
I43
sS'king'
p500
I43
sS'15'
p501
I43
sS'lmao'
p502
I38
sS'horizons'
p503
I43
sS'double'
p504
I43
sS'gotta'
p505
I42
sS'see'
p506
I40
sS'bed'
p507
I42
sS'project'
p508
I43
sS'matter'
p509
I43
sS'express'
p510
I43
sS'r'
p511
I39
sS'silly'
p512
I43
sS'tweeting'
p513
I42
sS'dang'
p514
I43
sS'asleep'
p515
I43
sS'drink.1'
p516
I43
sS'feeling'
p517
I38
sS'treated'
p518
I43
sS'and'
p519
I12
sS'bridge'
p520
I43
sS'lulz'
p521
I43
sS'sam'
p522
I40
sS'\xe2\x9c\xa8je'
p523
I43
sS'stahp'
p524
I43
sS'mind'
p525
I41
sS'head'
p526
I43
sS'sad'
p527
I41
sS'tonight'
p528
I41
sS'talking'
p529
I43
sS'say'
p530
I37
sS'hangout'
p531
I43
sS'rlly'
p532
I43
sS'have'
p533
I33
sS'need'
p534
I38
sS'seen'
p535
I43
sS'breakfast'
p536
I43
sS'saw'
p537
I42
sS'clearly'
p538
I43
sS'superman'
p539
I43
sS'lie'
p540
I38
sS'nights'
p541
I41
sS'buns'
p542
I43
sS'dancing'
p543
I43
sS'blanca'
p544
I43
sS'self'
p545
I40
sS'neenah'
p546
I43
sS'aside'
p547
I43
sS'omfg'
p548
I26
sS'breeze'
p549
I43
sS'take'
p550
I39
sS'pop'
p551
I43
sS'so'
p552
I11
sS'pimple'
p553
I43
sS'pain'
p554
I43
sS'soar'
p555
I43
sS'circles'
p556
I43
sS'play'
p557
I42
sS'bitches'
p558
I37
sS'unless'
p559
I42
sS'fab\xe2\x9c\xa8check'
p560
I43
sS'shall'
p561
I43
sS'eggs'
p562
I43
sS'who'
p563
I43
sS'netflix'
p564
I42
sS'most'
p565
I43
sS'brooklyn'
p566
I43
sS'down.\xe2\x80\x9d'
p567
I43
sS'mouth'
p568
I42
sS'amour\xe2\x9c\xa8\xe2\x9c\xa8et'
p569
I43
sS'plenty'
p570
I43
sS'nothing'
p571
I41
sS'knee'
p572
I43
sS'why'
p573
I30
sS'oyster'
p574
I43
sS'revanche'
p575
I43
sS'putas'
p576
I41
sS'scariest'
p577
I43
sS'moonshine'
p578
I43
sS'headed'
p579
I43
sS'calling'
p580
I43
sS'cover'
p581
I43
sS'hungry'
p582
I42
sS'face'
p583
I42
sS'looked'
p584
I42
sS'trapped'
p585
I43
sS'place'
p586
I43
sS'movie'
p587
I43
sS'voodoo'
p588
I42
sS'club'
p589
I43
sS'senior'
p590
I43
sS'cuddled'
p591
I43
sS'away'
p592
I43
sS'love?will'
p593
I43
sS'son'
p594
I43
sS'saying'
p595
I42
sS'walking'
p596
I42
sS'ugh'
p597
I37
sS'shot'
p598
I43
sS'\xe2\x9c\xa8'
p599
I41
sS'show'
p600
I40
sS'text'
p601
I43
sS'lay'
p602
I40
sS'queen'
p603
I42
sS'assholes'
p604
I43
sS"tbh's"
p605
I43
sS'bring'
p606
I41
sS'colors'
p607
I43
sS'chandelier'
p608
I40
sS'<333333333'
p609
I43
sS'nephew'
p610
I43
sS'ohhhh'
p611
I43
sS'pull'
p612
I43
sS'waited'
p613
I43
sS'<<<<<<<<<<'
p614
I43
sS'slow'
p615
I43
sS'\xe2\x9c\x8b'
p616
I41
sS'jaw'
p617
I43
sS'explain'
p618
I42
sS'dick'
p619
I42
sS'enough'
p620
I41
sS'unhappy'
p621
I43
sS'should'
p622
I42
sS'buttons'
p623
I43
sS'only'
p624
I39
sS'going'
p625
I37
sS'black'
p626
I40
sS'pretty'
p627
I42
sS'hope'
p628
I42
sS'dn'
p629
I42
sS'do'
p630
I29
sS'haircut'
p631
I41
sS'strip'
p632
I43
sS'pleading'
p633
I43
sS'triple'
p634
I43
sS'get'
p635
I28
sS'neon'
p636
I42
sS'jazz'
p637
I42
sS'stop'
p638
I38
sS'trees'
p639
I42
sS'da'
p640
I42
sS'tbh'
p641
I34
sS'feels'
p642
I42
sS'ones'
p643
I43
sS'watermelon'
p644
I43
sS'words'
p645
I42
sS'probably'
p646
I43
sS'during'
p647
I43
sS'nasty'
p648
I43
sS'him'
p649
I42
sS'shoutouts'
p650
I43
sS"gaga's"
p651
I43
sS'champagne'
p652
I43
sS'are\xe2\x9d\xa4\xef\xb8\x8f'
p653
I43
sS'h'
p654
I42
sS'cry'
p655
I43
sS'morning'
p656
I42
sS'thots'
p657
I43
sS'bad'
p658
I38
sS'bae'
p659
I34
sS'she'
p660
I39
sS'witches'
p661
I43
sS'ban'
p662
I43
sS'miley'
p663
I41
sS'"drive"'
p664
I43
sS'where'
p665
I42
sS'bother'
p666
I43
sS'"dots"'
p667
I43
sS'widow'
p668
I43
sS"y'all"
p669
I42
sS'btw'
p670
I43
sS'learn'
p671
I43
sS'decides'
p672
I43
sS'w/'
p673
I41
sS'cuddle'
p674
I43
sS'notice'
p675
I42
sS"hasn't"
p676
I43
sS"shouldn't"
p677
I43
sS'goodnight'
p678
I36
sS'allure'
p679
I43
sS'horse'
p680
I43
sS'are'
p681
I37
sS"tellin'"
p682
I43
sS'fail'
p683
I43
sS'close'
p684
I43
sS'bobblehead'
p685
I43
sS'noodles'
p686
I43
sS'best'
p687
I41
sS'wonder'
p688
I43
sS'shower'
p689
I43
sS'said'
p690
I41
sS'whiskey'
p691
I43
sS'pictures'
p692
I43
sS'wow'
p693
I39
sS'sadness'
p694
I43
sS'terrified'
p695
I43
sS'tend'
p696
I43
sS"mu'fuckin"
p697
I43
sS'glorious'
p698
I43
sS'3'
p699
I37
sS"there's"
p700
I40
sS'gaga'
p701
I37
sS'unplugged'
p702
I43
sS'flirting'
p703
I43
sS'hopefully'
p704
I42
sS'guilt'
p705
I43
sS'reading'
p706
I43
sS'bought'
p707
I41
sS'gives'
p708
I43
sS'we'
p709
I31
sS'never'
p710
I36
sS'omg'
p711
I35
sS'ability'
p712
I43
sS'attention'
p713
I43
sS'deliver'
p714
I43
sS'caldo'
p715
I43
sS'job'
p716
I43
sS'wear'
p717
I41
sS'como'
p718
I43
sS'hurts'
p719
I32
sS'fame'
p720
I43
sS'news'
p721
I43
sS'come'
p722
I42
sS'pissed'
p723
I43
sS'thumb'
p724
I43
sS'both'
p725
I42
sS'c'
p726
I43
sS'last'
p727
I41
sS'.-'
p728
I43
sS'many'
p729
I43
sS"wouldn't"
p730
I43
sS's'
p731
I43
sS'buzz'
p732
I43
sS'china'
p733
I43
sS'whole'
p734
I41
sS'summertime'
p735
I43
sS"can't"
p736
I35
sS'uno'
p737
I43
sS'6'
p738
I43
sS'motherfuckers'
p739
I43
sS'key'
p740
I43
sS'homies'
p741
I43
sS'point'
p742
I42
sS'reasons'
p743
I43
sS'had'
p744
I41
sS'whatever'
p745
I39
sS'walk'
p746
I41
sS'flames'
p747
I43
sS'gypsy'
p748
I43
sS"couldn't"
p749
I43
sS'je'
p750
I43
sS'blonde'
p751
I42
sS'trust'
p752
I42
sS"ev'ry"
p753
I43
sS'now\xe2\x80\x9d'
p754
I43
sS'bathroom'
p755
I43
sS"aren't"
p756
I43
sS'bible'
p757
I43
sS"it's"
p758
I32
sS'vacation'
p759
I43
sS'been'
p760
I41
sS'cyrus'
p761
I43
sS'breath'
p762
I43
sS'much'
p763
I36
sS'puta'
p764
I43
sS'treat'
p765
I40
sS'monsterborn'
p766
I43
sS'"bitch'
p767
I43
sS'empty'
p768
I43
sS'loosen'
p769
I43
sS'unsupportive'
p770
I43
sS'dry'
p771
I43
sS'life'
p772
I24
sS'pic'
p773
I43
sS'tailor'
p774
I43
sS'gay'
p775
I42
sS'fire'
p776
I43
sS'turned'
p777
I43
sS"what's"
p778
I43
sS'bi$h'
p779
I43
sS'sooooo'
p780
I43
sS'ray'
p781
I43
sS'ariana'
p782
I43
sS'else'
p783
I42
sS'tweets'
p784
I43
sS'finished'
p785
I42
sS'lift'
p786
I42
sS'wake'
p787
I41
sS'irrelevant'
p788
I43
sS'randomly'
p789
I43
sS'save'
p790
I43
sS'look'
p791
I42
sS'juice'
p792
I43
sS'these'
p793
I36
sS'also'
p794
I43
sS'starts'
p795
I43
sS'stars'
p796
I43
sS'inn'
p797
I43
sS'n'
p798
I43
sS'will'
p799
I39
sS'ugly'
p800
I42
sS'while'
p801
I43
sS'reaally'
p802
I43
sS'wild'
p803
I42
sS'situation'
p804
I43
sS'di'
p805
I43
sS'happened'
p806
I43
sS'mistake'
p807
I43
sS'va'
p808
I43
sS'orientation'
p809
I43
sS'is'
p810
I9
sS'squid'
p811
I43
sS'lush'
p812
I42
sS'it'
p813
I15
sS'sleeping'
p814
I42
sS'cant'
p815
I43
sS'sudden'
p816
I42
sS'im'
p817
I43
sS'avi'
p818
I43
sS'swinging'
p819
I42
sS'in'
p820
I17
sS'ready'
p821
I43
sS'throwing'
p822
I43
sS'shift'
p823
I43
sS'south'
p824
I43
sS'ivy'
p825
I43
sS'ig'
p826
I42
sS'if'
p827
I36
sS'different'
p828
I42
sS'refill'
p829
I43
sS'anymore'
p830
I38
sS'soldier'
p831
I43
sS'wearing'
p832
I43
sS'things'
p833
I42
sS'make'
p834
I42
sS'belong'
p835
I43
sS'tour'
p836
I43
sS'same'
p837
I40
sS'campus'
p838
I43
sS'romance'
p839
I43
sS'food'
p840
I43
sS'acoustic'
p841
I43
sS'meghan'
p842
I43
sS'underestimate'
p843
I43
sS'party'
p844
I42
sS'itchy'
p845
I43
sS'gets'
p846
I41
sS'week'
p847
I40
sS'ball'
p848
I42
sS'fine.\xe2\x80\x9d'
p849
I43
sS'damn'
p850
I43
sS'drink'
p851
I41
sS'evil'
p852
I43
sS'weed'
p853
I43
sS'kik'
p854
I43
sS'moment'
p855
I43
sS'maaaaaaan'
p856
I43
sS'student'
p857
I43
sS'foxhills'
p858
I43
sS'jealous'
p859
I43
sS'factory!!!!!!\xe2\x9c\xa8\xe2\x9c\xa8'
p860
I43
sS'bob'
p861
I43
sS'understand'
p862
I43
sS'potra'
p863
I43
sS'\xe2\x9c\x8c\xef\xb8\x8f'
p864
I41
sS'early'
p865
I43
sS'lower'
p866
I43
sS'off'
p867
I40
sS'glitter'
p868
I43
sS'i'
p869
I2
sS'cheek'
p870
I39
sS'well'
p871
I37
sS'bang'
p872
I42
sS'tho'
p873
I39
sS'person'
p874
I42
sS'haircuts'
p875
I43
sS'without'
p876
I43
sS'comes'
p877
I42
sS'pandora'
p878
I43
sS'ravine'
p879
I41
sS'the'
p880
I5
sS"eiffel's"
p881
I43
sS'spend'
p882
I43
sS'left'
p883
I43
sS'i\xe2\x80\x99m'
p884
I43
sS'summer'
p885
I41
sS'listening'
p886
I41
sS'just'
p887
I25
sS'camel'
p888
I43
sS'being'
p889
I43
sS'tip'
p890
I43
sS"should've"
p891
I43
sS'half'
p892
I43
sS'sleepy'
p893
I41
sS'rest'
p894
I43
sS'gun'
p895
I43
sS'mfs'
p896
I43
sS'thanks'
p897
I42
sS'using'
p898
I43
sS'touch'
p899
I39
sS'regardless'
p900
I43
sS'yes'
p901
I42
sS'happiness'
p902
I42
sS'begin'
p903
I43
sS'web'
p904
I43
sS'quiero'
p905
I43
sS'listen'
p906
I43
sS'cup'
p907
I43
sS'thinking'
p908
I41
sS'cherry'
p909
I43
sS'seems'
p910
I43
sS'drunk'
p911
I42
sS'smith'
p912
I40
sS'5s'
p913
I43
sS'bullshit'
p914
I42
sS'tht'
p915
I43
sS'hay'
p916
I43
sS'overthinking'
p917
I43
sS'book'
p918
I43
sS'snapchatted'
p919
I43
sS'crying'
p920
I43
sS'sweet'
p921
I43
sS'funand'
p922
I43
sS'5'
p923
I43
sS'has'
p924
I42
sS'excited'
p925
I38
sS'scheduled'
p926
I43
sS'starving'
p927
I43
sS'around'
p928
I42
sS'kills'
p929
I42
sS'say.\xe2\x80\x9d'
p930
I43
sS'read'
p931
I43
sS'big'
p932
I42
sS'gonna'
p933
I37
sS"whatevaaaaa'"
p934
I43
sS'dark'
p935
I41
sS'shitty'
p936
I43
sS'game'
p937
I40
sS'were'
p938
I43
sS'pistea'
p939
I43
sS'know'
p940
I30
sS'mom'
p941
I38
sS"boyfriend's"
p942
I43
sS'judge'
p943
I43
sS'world'
p944
I40
sS'bit'
p945
I43
sS'lady'
p946
I41
sS'vodonana'
p947
I43
sS'd'
p948
I43
sS'desire'
p949
I43
sS'denise'
p950
I43
sS'stuff'
p951
I42
sS'like'
p952
I21
sS'-_-'
p953
I43
sS'tbh!!!!!!!\xe2\x80\x9d'
p954
I43
sS'schei\xc3\x9fe'
p955
I43
sS'candy'
p956
I43
sS'cosas'
p957
I43
sS'sissy'
p958
I43
sS't'
p959
I41
sS'night'
p960
I40
sS'chick'
p961
I43
sS'tower'
p962
I43
sS'rich'
p963
I43
sS'page'
p964
I43
sS'right'
p965
I39
sS'old'
p966
I41
sS'twatch'
p967
I43
sS'deal'
p968
I42
sS'people'
p969
I33
sS'fucking'
p970
I16
sS"tony's"
p971
I43
sS'twitter'
p972
I43
sS'easy'
p973
I43
sS'some'
p974
I37
sS'back'
p975
I39
sS'dead'
p976
I43
sS'hair'
p977
I43
sS'born'
p978
I42
sS'clubs'
p979
I43
sS'added'
p980
I43
sS'hassle'
p981
I43
sS'leniz'
p982
I43
sS'3.1'
p983
I43
sS'dear'
p984
I42
sS'home'
p985
I38
sS'pod'
p986
I43
sS'happens'
p987
I42
sS'mood'
p988
I41
sS'for'
p989
I24
sS'literally'
p990
I42
sS'absolutely'
p991
I43
sS'fox'
p992
I43
sS'slide'
p993
I43
sS'ice'
p994
I43
sS'everything'
p995
I37
sS'does'
p996
I43
sS'ago.\xe2\x80\x9d'
p997
I43
sS'pee'
p998
I43
sS'parties.i'
p999
I43
sS'laughing'
p1000
I43
sS'somehow'
p1001
I43
sS'be'
p1002
I28
sS'bf'
p1003
I43
sS'blowing'
p1004
I43
sS'bold'
p1005
I43
sS'deleted'
p1006
I41
sS":'-("
p1007
I43
sS'aguilerabeyonc\xc3\xa9lana'
p1008
I43
sS'step'
p1009
I42
sS'him\xe2\x80\x9d'
p1010
I43
sS'nowhere'
p1011
I43
sS'muchas'
p1012
I43
sS'post'
p1013
I43
sS'falls'
p1014
I43
sS'super'
p1015
I43
sS'by'
p1016
I41
sS'after'
p1017
I43
sS"bitch's"
p1018
I43
sS'hearing'
p1019
I43
sS'on'
p1020
I22
sS'about'
p1021
I37
sS'bills'
p1022
I43
sS'would'
p1023
I41
sS'anything'
p1024
I40
sS'oh'
p1025
I41
sS'of'
p1026
I19
sS'months'
p1027
I43
sS'favorite'
p1028
I40
sS'o'
p1029
I42
sS'bearable\xe2\x80\x9d'
p1030
I43
sS'remains'
p1031
I43
sS'dolares'
p1032
I43
sS'idk'
p1033
I42
sS'act'
p1034
I43
sS'wanna'
p1035
I38
sS'idc'
p1036
I41
sS'plan'
p1037
I43
sS'ppl'
p1038
I43
sS'annenberg'
p1039
I42
sS'gagachristina'
p1040
I43
sS'dude'
p1041
I43
sS'bound'
p1042
I43
sS'usa'
p1043
I43
sS'two'
p1044
I43
sS'down'
p1045
I41
sS'lies'
p1046
I20
sS'momma'
p1047
I42
sS'because'
p1048
I41
sS'parties'
p1049
I43
sS'elementary'
p1050
I43
sS'annoys'
p1051
I43
sS'happening'
p1052
I43
sS'soon'
p1053
I43
sS'your'
p1054
I18
sS'east'
p1055
I43
sS'fast'
p1056
I42
sS'1983'
p1057
I43
sS'her'
p1058
I36
sS'friends'
p1059
I43
sS'there'
p1060
I43
sS'question'
p1061
I43
sS'long'
p1062
I41
sS'fight'
p1063
I43
sS'lmfaooo'
p1064
I43
sS'stuck'
p1065
I41
sS'aldair'
p1066
I43
sS"we're"
p1067
I43
sS'way'
p1068
I34
sS'house'
p1069
I43
sS'biggest'
p1070
I43
sS'music'
p1071
I42
sS'bored'
p1072
I43
sS'was'
p1073
I35
sS'war'
p1074
I43
sS'happy'
p1075
I38
sS'sex'
p1076
I43
sS'buy'
p1077
I43
sS'invite'
p1078
I43
sS"i've"
p1079
I42
sS'ditch'
p1080
I43
sS'fireworks'
p1081
I42
sS'but'
p1082
I31
sS'undress'
p1083
I43
sS'\xe2\x9c\x85\xe2\x9c\x85\xe2\x9c\x85\xe2\x9c\x85\xe2\x9c\x85'
p1084
I43
sS'hi'
p1085
I42
sS'hear'
p1086
I43
sS'gain'
p1087
I43
sS'sick'
p1088
I43
sS'[pic]'
p1089
I43
sS'stand'
p1090
I43
sS'with'
p1091
I22
sS'eat'
p1092
I43
sS'he'
p1093
I42
sS'woah'
p1094
I43
sS"they're"
p1095
I43
sS'made'
p1096
I43
sS'calls'
p1097
I43
sS'happen'
p1098
I43
sS'understood'
p1099
I43
sS'wish'
p1100
I42
sS'inside'
p1101
I42
sS'attached'
p1102
I43
sS'up'
p1103
I27
sS'us'
p1104
I42
sS'erica'
p1105
I43
sS'planet'
p1106
I43
sS"tomorrow's"
p1107
I42
sS'cruel'
p1108
I42
sS'nicest'
p1109
I43
sS'dirty'
p1110
I42
sS'acting'
p1111
I43
sS'cake'
p1112
I43
sS'problem'
p1113
I43
sS'cheeks'
p1114
I43
sS'called'
p1115
I43
sS'lovers'
p1116
I43
sS'ughhhhhh'
p1117
I43
sS'gone'
p1118
I42
sS';('
p1119
I43
sS'leaked'
p1120
I43
sS'taste'
p1121
I43
sS'stronger'
p1122
I43
sS'universal'
p1123
I41
sS'forgot'
p1124
I43
sS'am'
p1125
I40
sS'haunt'
p1126
I43
sS'ketch-up'
p1127
I43
sS'an'
p1128
I41
sS'twist'
p1129
I42
sS'as'
p1130
I39
sS'exist'
p1131
I43
sS'at'
p1132
I30
sS'aw'
p1133
I41
sS'candle'
p1134
I43
sS'annoying'
p1135
I41
sS'trip'
p1136
I43
sS'shit'
p1137
I26
sS'balcony'
p1138
I43
sS'maybe'
p1139
I42
sS'dying'
p1140
I43
sS'no'
p1141
I40
sS'sexual'
p1142
I43
sS'when'
p1143
I21
sS"you'll"
p1144
I43
sS'cuenta'
p1145
I43
sS'lately'
p1146
I43
sS'milf'
p1147
I43
sS'other'
p1148
I43
sS'happiest'
p1149
I43
sS"mom's"
p1150
I43
sS'holding'
p1151
I41
sS'you'
p1152
I7
sS'really'
p1153
I37
sS'tia'
p1154
I43
sS'karma'
p1155
I43
sS'picture'
p1156
I43
sS'draw'
p1157
I43
sS'chavez'
p1158
I41
sS'quiere'
p1159
I43
sS"sayin'"
p1160
I43
sS'living'
p1161
I43
sS'marlboro'
p1162
I43
sS'raaaaa'
p1163
I43
sS"parliament's"
p1164
I43
sS'wh3t'
p1165
I43
sS'update'
p1166
I43
sS'stay'
p1167
I41
sS"let's"
p1168
I43
sS'\xe2\x98\x80\xef\xb8\x8f'
p1169
I43
sS'important'
p1170
I43
sS'restore'
p1171
I43
sS'kinda'
p1172
I42
sS'serious'
p1173
I43
sS'millones'
p1174
I43
sS'weekend'
p1175
I42
sS'mames'
p1176
I43
sS'tummy'
p1177
I43
sS'sayyou'
p1178
I43
sS'fuckin'
p1179
I43
sS'yaaaaaaaaaassss'
p1180
I43
sS'thingy'
p1181
I43
sS'e'
p1182
I38
sS'\xe2\x80\x94'
p1183
I42
sS'lana'
p1184
I40
sS'wifi'
p1185
I41
sS'fergie'
p1186
I43
sS'hello'
p1187
I43
sS'fresh'
p1188
I43
sS'u'
p1189
I41
sS'came'
p1190
I43
sS'time'
p1191
I37
sS'alright'
p1192
I43
sS"she's"
p1193
I42
sS'once'
p1194
I42
sS'having'
p1195
I39
sS'restored'
p1196
I43
sS'songs'
p1197
I41
s.