(dp0
S''
p1
I3
sS'all'
p2
I21
sS':)'
p3
I21
sS'chinese'
p4
I21
sS'hangovers'
p5
I23
sS'four'
p6
I23
sS'go'
p7
I18
sS'bomb'
p8
I23
sS'hate'
p9
I23
sS'(all'
p10
I23
sS'seemed'
p11
I23
sS'pedro'
p12
I15
sS'up*'
p13
I23
sS'referring'
p14
I22
sS'tweet'
p15
I23
sS'beasting'
p16
I23
sS'up"'
p17
I22
sS'"ay'
p18
I23
sS'to'
p19
I4
sS'finally'
p20
I22
sS'underdogs'
p21
I23
sS'sorry'
p22
I23
sS'regrets'
p23
I23
sS'me'
p24
I7
sS':o'
p25
I23
sS'*woke'
p26
I23
sS':d'
p27
I22
sS'paradise'
p28
I23
sS'fat'
p29
I23
sS'sons'
p30
I23
sS'every'
p31
I22
sS'vestido'
p32
I23
sS'chan'
p33
I23
sS':p'
p34
I13
sS'vero'
p35
I23
sS'cool'
p36
I20
sS'tickets'
p37
I23
sS'school'
p38
I23
sS'bestfriend'
p39
I23
sS'exaggerate'
p40
I23
sS'did'
p41
I23
sS'die'
p42
I23
sS'niggas'
p43
I23
sS'michael'
p44
I23
sS'dia'
p45
I21
sS'leave'
p46
I23
sS'non-soccer'
p47
I23
sS'team'
p48
I23
sS'guy'
p49
I22
sS'yall'
p50
I23
sS"i'll"
p51
I23
sS'consistent'
p52
I23
sS'yourself'
p53
I23
sS'boots'
p54
I23
sS'consists'
p55
I22
sS'haah'
p56
I23
sS'link'
p57
I23
sS'depression'
p58
I23
sS'irritated'
p59
I22
sS'what'
p60
I10
sS'chicago'
p61
I22
sS'aparecio'
p62
I22
sS'lead'
p63
I23
sS'brief'
p64
I23
sS'prison."'
p65
I23
sS'lights'
p66
I23
sS'waiting'
p67
I23
sS'500'
p68
I23
sS'crackdown'
p69
I23
sS'nurse'
p70
I23
sS'guns'
p71
I22
sS'can'
p72
I20
sS'rappers'
p73
I23
sS'kicked'
p74
I23
sS'never'
p75
I23
sS'here'
p76
I23
sS'hours'
p77
I23
sS'let'
p78
I22
sS'others'
p79
I23
sS'hers'
p80
I23
sS'sexy'
p81
I23
sS'wait'
p82
I23
sS'talent'
p83
I23
sS'\xe2\x9c\x8b'
p84
I23
sS'lazy'
p85
I23
sS'my'
p86
I6
sS'cohesive'
p87
I23
sS'jackie'
p88
I23
sS'lakers'
p89
I22
sS'leaving'
p90
I23
sS'los'
p91
I23
sS"i'm"
p92
I8
sS'siner'
p93
I23
sS'trainer'
p94
I23
sS'named'
p95
I23
sS'love'
p96
I20
sS'hiking'
p97
I23
sS'toda\xe2\x80\xa6'
p98
I23
sS'fireworks'
p99
I23
sS'bro'
p100
I21
sS'put'
p101
I23
sS'fake'
p102
I22
sS'chicos'
p103
I22
sS'bra'
p104
I22
sS'everybody'
p105
I23
sS'plot'
p106
I23
sS'from'
p107
I21
sS'would'
p108
I23
sS'&'
p109
I21
sS'asta'
p110
I23
sS'visit'
p111
I23
sS'cali'
p112
I23
sS'call'
p113
I23
sS'tell'
p114
I22
sS'today'
p115
I23
sS'reminiscing'
p116
I23
sS'chicken."'
p117
I23
sS'comparison'
p118
I23
sS'inclined'
p119
I23
sS'haha'
p120
I13
sS'award'
p121
I23
sS'clue'
p122
I23
sS'phone'
p123
I23
sS"ain't"
p124
I19
sS'ashamed'
p125
I23
sS'effort'
p126
I23
sS'glad'
p127
I23
sS'shoot'
p128
I23
sS'ma'
p129
I23
sS'room'
p130
I23
sS'hour'
p131
I23
sS'f'
p132
I23
sS'this'
p133
I18
sS'avoiding'
p134
I23
sS'work'
p135
I20
sS'mi'
p136
I20
sS'anywhere'
p137
I23
sS'era'
p138
I22
sS'root'
p139
I23
sS'shook'
p140
I23
sS'beautiful'
p141
I23
sS'heart'
p142
I23
sS'crazy'
p143
I22
sS'(with'
p144
I23
sS'thirsty'
p145
I22
sS'give'
p146
I23
sS'expanding'
p147
I23
sS'coolness'
p148
I23
sS'fuck'
p149
I18
sS'accept'
p150
I23
sS'honey'
p151
I23
sS'something'
p152
I23
sS'want'
p153
I20
sS'mmmmmm'
p154
I23
sS'iggy'
p155
I23
sS'dreads'
p156
I23
sS'sit'
p157
I22
sS'means'
p158
I23
sS'underware'
p159
I23
sS'till'
p160
I23
sS'answer'
p161
I23
sS'beach'
p162
I13
sS'okay'
p163
I23
sS'ufff'
p164
I23
sS'beauty'
p165
I23
sS'after'
p166
I22
sS'long'
p167
I23
sS'wrong'
p168
I23
sS'4th'
p169
I23
sS'mad'
p170
I23
sS'taco'
p171
I22
sS'date'
p172
I23
sS'guys'
p173
I23
sS'a'
p174
I7
sS'anymore'
p175
I23
sS'jijijij\xe2\x80\xa6'
p176
I23
sS'light'
p177
I22
sS'chief'
p178
I23
sS'so'
p179
I17
sS'fan'
p180
I23
sS'dream'
p181
I23
sS'talk'
p182
I20
sS"that's"
p183
I21
sS'fifa'
p184
I23
sS'cute'
p185
I22
sS"don't"
p186
I16
sS'fakedra'
p187
I23
sS'over'
p188
I23
sS'move'
p189
I22
sS'soon'
p190
I23
sS'years'
p191
I22
sS'through'
p192
I23
sS'thesis'
p193
I23
sS'its'
p194
I16
sS'refs'
p195
I23
sS'perfect'
p196
I23
sS'thank'
p197
I23
sS'la'
p198
I16
sS'trying'
p199
I23
sS'[pic]'
p200
I22
sS'better'
p201
I23
sS'followers'
p202
I23
sS'bout'
p203
I23
sS'main'
p204
I21
sS'might'
p205
I23
sS'happened'
p206
I23
sS'fool'
p207
I23
sS'then'
p208
I22
sS'them'
p209
I17
sS'good'
p210
I22
sS'woken'
p211
I23
sS'speech??\xe2\x80\x9d'
p212
I23
sS'workout'
p213
I21
sS'practice'
p214
I22
sS'jajajajaja'
p215
I23
sS'break'
p216
I23
sS'yupppp'
p217
I23
sS"you've"
p218
I22
sS'they'
p219
I18
sS'half'
p220
I23
sS'not'
p221
I11
sS'now'
p222
I20
sS'day'
p223
I22
sS'name'
p224
I22
sS'always'
p225
I20
sS"motha'fuck"
p226
I23
sS'ewwww'
p227
I23
sS'morris'
p228
I23
sS'mode'
p229
I23
sS'each'
p230
I23
sS'found'
p231
I23
sS"isn't"
p232
I23
sS'mean'
p233
I23
sS'el'
p234
I23
sS'everyone'
p235
I18
sS'another'
p236
I23
sS'doing'
p237
I23
sS'house)'
p238
I22
sS'\xc2\xb0\xc2\xa5\xc2\xb0'
p239
I23
sS'toda'
p240
I23
sS'books'
p241
I23
sS'sponsor'
p242
I23
sS'our'
p243
I22
sS'girl'
p244
I22
sS'calling'
p245
I23
sS'out'
p246
I17
sS'fuck\xe2\x80\xa6'
p247
I23
sS'gullible'
p248
I23
sS"nigga'z"
p249
I23
sS'huck'
p250
I23
sS'jackson'
p251
I23
sS'beefing'
p252
I23
sS'defend'
p253
I23
sS'since'
p254
I23
sS'thirst'
p255
I23
sS'looking'
p256
I23
sS'misses'
p257
I23
sS'stupid'
p258
I23
sS'time)'
p259
I23
sS'stud'
p260
I23
sS'smh'
p261
I23
sS'got'
p262
I16
sS'rn'
p263
I23
sS'cause'
p264
I23
sS'gram'
p265
I23
sS'ass'
p266
I22
sS'bye'
p267
I22
sS'jessica'
p268
I22
sS"doesn't"
p269
I23
sS'friday'
p270
I23
sS'given'
p271
I23
sS'fred'
p272
I23
sS'cabrillo'
p273
I15
sS'reason'
p274
I23
sS'que'
p275
I22
sS'dorsey'
p276
I23
sS'ask'
p277
I22
sS'asi'
p278
I22
sS'headband'
p279
I23
sS'vamonos'
p280
I23
sS'shot'
p281
I23
sS'care'
p282
I22
sS'100+'
p283
I23
sS'could'
p284
I23
sS'blahhh'
p285
I23
sS'fucken'
p286
I23
sS'place'
p287
I23
sS'papito'
p288
I23
sS'w'
p289
I23
sS'keef'
p290
I23
sS'think'
p291
I19
sS'first'
p292
I21
sS'\xe2\x98\x86\xe2\x98\x85\xe2\x98\x86\xe2\x98\x85\xe2\x98\x86\xe2\x98\x85'
p293
I23
sS'major'
p294
I23
sS'already'
p295
I22
sS'relate'
p296
I23
sS'coming'
p297
I21
sS'jesus'
p298
I23
sS'fucked'
p299
I23
sS'bitch'
p300
I16
sS'flacco'
p301
I23
sS'miss'
p302
I23
sS'tomorrow'
p303
I22
sS'owning'
p304
I23
sS"you're"
p305
I22
sS'little'
p306
I22
sS'"'
p307
I23
sS'checked'
p308
I23
sS"there's"
p309
I23
sS'stuck'
p310
I23
sS'tate'
p311
I23
sS'top'
p312
I23
sS'bonito'
p313
I23
sS'girls'
p314
I22
sS'least'
p315
I23
sS'2'
p316
I23
sS'too'
p317
I21
sS'alfred'
p318
I23
sS'option'
p319
I23
sS'para'
p320
I21
sS'that'
p321
I12
sS'season'
p322
I20
sS'took'
p323
I23
sS'part'
p324
I23
sS'jordan'
p325
I23
sS'butt'
p326
I22
sS'ashley'
p327
I23
sS'july'
p328
I21
sS'believe'
p329
I22
sS'ben'
p330
I23
sS'lmao'
p331
I18
sS'horizons'
p332
I23
sS'muerte'
p333
I22
sS'gotta'
p334
I23
sS'second'
p335
I23
sS'defends'
p336
I23
sS'don\xe2\x80\x99t'
p337
I23
sS'future'
p338
I23
sS'"got'
p339
I22
sS'loves'
p340
I22
sS'maybe'
p341
I21
sS'college'
p342
I23
sS'naturally'
p343
I23
sS'cleo'
p344
I23
sS'and'
p345
I6
sS'este'
p346
I23
sS'san'
p347
I15
sS'mind'
p348
I22
sS'talking'
p349
I23
sS'say'
p350
I22
sS'have'
p351
I21
sS'need'
p352
I21
sS'allen'
p353
I23
sS'aburrido'
p354
I23
sS'worst'
p355
I23
sS'lie'
p356
I23
sS'hood'
p357
I23
sS'push-ups'
p358
I22
sS'lil'
p359
I23
sS'able'
p360
I23
sS'omfg'
p361
I23
sS'take'
p362
I22
sS'finding'
p363
I23
sS'truck'
p364
I23
sS'kuss'
p365
I22
sS'portia'
p366
I23
sS'motivational'
p367
I23
sS'though'
p368
I23
sS'price'
p369
I23
sS'who'
p370
I20
sS'netflix'
p371
I23
sS'jajajaja'
p372
I23
sS'most'
p373
I23
sS'germany'
p374
I22
sS'11:11'
p375
I23
sS'model'
p376
I23
sS'26th'
p377
I23
sS'singer'
p378
I23
sS'professor'
p379
I23
sS'sometimes'
p380
I20
sS'sale'
p381
I23
sS"you'll"
p382
I23
sS'dawgs'
p383
I23
sS'clean'
p384
I23
sS'hear'
p385
I23
sS'jaycee'
p386
I23
sS'away'
p387
I22
sS'son'
p388
I23
sS'saying'
p389
I23
sS'parker'
p390
I23
sS'dijo'
p391
I22
sS'spteading'
p392
I23
sS'text'
p393
I22
sS'celebrities'
p394
I23
sS'wins'
p395
I23
sS'v.v'
p396
I23
sS'gues'
p397
I23
sS'fine'
p398
I23
sS'200'
p399
I23
sS'count'
p400
I23
sS'one'
p401
I18
sS'upgrade'
p402
I23
sS'raggedy'
p403
I23
sS'title'
p404
I23
sS'cousins'
p405
I22
sS'dick'
p406
I22
sS'mexicans'
p407
I23
sS'should'
p408
I21
sS'rico'
p409
I23
sS'only'
p410
I21
sS'going'
p411
I23
sS'black'
p412
I23
sS'money'
p413
I21
sS'watching'
p414
I23
sS'posted'
p415
I21
sS'griselleija'
p416
I23
sS'wearing'
p417
I23
sS'do'
p418
I17
sS'his'
p419
I23
sS'hit'
p420
I23
sS'caprichito'
p421
I23
sS'get'
p422
I19
sS'de'
p423
I20
sS'stop'
p424
I22
sS'7-11'
p425
I23
sS'main)'
p426
I23
sS'shutting'
p427
I23
sS'ones'
p428
I22
sS'3235346963'
p429
I23
sS'during'
p430
I23
sS'trade'
p431
I23
sS'him'
p432
I20
sS'de\xe2\x80\xa6'
p433
I23
sS'angelo'
p434
I23
sS'morning'
p435
I23
sS'bae'
p436
I22
sS'she'
p437
I21
sS'boring'
p438
I23
sS'x'
p439
I23
sS'where'
p440
I22
sS"y'all"
p441
I23
sS'cutie'
p442
I23
sS'beso'
p443
I23
sS"church's"
p444
I23
sS'w/'
p445
I23
sS'vine'
p446
I23
sS'osito'
p447
I22
sS'gangster'
p448
I23
sS'see'
p449
I20
sS'bagas'
p450
I23
sS'sec'
p451
I23
sS'are'
p452
I17
sS'chicas'
p453
I22
sS'sport'
p454
I23
sS'jabari'
p455
I23
sS'best'
p456
I22
sS'brazil'
p457
I23
sS'said'
p458
I23
sS'wow'
p459
I21
sS'please'
p460
I22
sS'case'
p461
I23
sS'enough'
p462
I23
sS'...and'
p463
I23
sS'closed'
p464
I23
sS'grisel'
p465
I22
sS'mission)'
p466
I23
sS'knowing'
p467
I22
sS'ima'
p468
I23
sS'we'
p469
I22
sS'trynna'
p470
I23
sS'lover'
p471
I23
sS'vernon'
p472
I20
sS'cut'
p473
I23
sS'wear'
p474
I22
sS'key'
p475
I23
sS'jk'
p476
I23
sS'cousin'
p477
I23
sS'come'
p478
I21
sS'lopez'
p479
I23
sS'staring'
p480
I23
sS'last'
p481
I23
sS'brown'
p482
I22
sS'many'
p483
I23
sS"he's"
p484
I22
sS'job'
p485
I23
sS'drug'
p486
I23
sS'players'
p487
I23
sS's'
p488
I22
sS'faces'
p489
I23
sS':*'
p490
I23
sS'asked'
p491
I23
sS"can't"
p492
I21
sS'con'
p493
I23
sS'among'
p494
I23
sS'(w/'
p495
I23
sS'carreta'
p496
I23
sS'wtf'
p497
I23
sS'point'
p498
I22
sS'color'
p499
I23
sS'ca'
p500
I16
sS'likes'
p501
I23
sS'sing'
p502
I23
sS'tony'
p503
I23
sS'writing'
p504
I23
sS'save'
p505
I23
sS"it's"
p506
I20
sS'been'
p507
I23
sS'much'
p508
I22
sS'treat'
p509
I23
sS'lovely'
p510
I23
sS'woke'
p511
I23
sS'website'
p512
I23
sS'life'
p513
I21
sS'lived'
p514
I23
sS'yeee'
p515
I23
sS"what's"
p516
I22
sS'though?lol'
p517
I23
sS'wounds'
p518
I23
sS'else'
p519
I22
sS'>_<'
p520
I23
sS'understand'
p521
I23
sS'-.-'
p522
I23
sS'those'
p523
I22
sS'sound'
p524
I23
sS'entertaine'
p525
I23
sS'myself'
p526
I23
sS'soccer'
p527
I21
sS'look'
p528
I22
sS'these'
p529
I23
sS'straight'
p530
I23
sS'cash'
p531
I23
sS'n'
p532
I23
sS'will'
p533
I20
sS'vicks'
p534
I23
sS'while'
p535
I23
sS'hahaha'
p536
I18
sS'cuba'
p537
I23
sS'tetel'
p538
I22
sS'changed'
p539
I23
sS'is'
p540
I10
sS'it'
p541
I8
sS'equal'
p542
I23
sS'player'
p543
I23
sS'despues'
p544
I23
sS'someone'
p545
I23
sS'im'
p546
I23
sS'brutal'
p547
I23
sS'in'
p548
I5
sS'ready'
p549
I23
sS'if'
p550
I18
sS'-___-'
p551
I23
sS'james'
p552
I23
sS'make'
p553
I22
sS'same'
p554
I23
sS'speaker'
p555
I23
sS'9'
p556
I23
sS'party'
p557
I22
sS'daughters'
p558
I23
sS'used'
p559
I23
sS'hang'
p560
I23
sS'wilson'
p561
I23
sS'kik'
p562
I23
sS'moment'
p563
I23
sS'student'
p564
I23
sS'jealous'
p565
I23
sS'niggah'
p566
I23
sS'weird'
p567
I23
sS'shamed'
p568
I23
sS'fasting'
p569
I23
sS'calmar'
p570
I23
sS'off'
p571
I23
sS'jajaja'
p572
I23
sS'i'
p573
I4
sS'well'
p574
I22
sS'game'
p575
I23
sS'tho'
p576
I22
sS'comes'
p577
I23
sS'wya'
p578
I23
sS'y'
p579
I19
sS'the'
p580
I2
sS'dark'
p581
I23
sS'karina'
p582
I23
sS'underdog'
p583
I23
sS'just'
p584
I14
sS'being'
p585
I22
sS'photo'
p586
I21
sS"should've"
p587
I23
sS'chill\xe2\x9c\x8b'
p588
I23
sS'front'
p589
I23
sS'kill'
p590
I23
sS'thanks'
p591
I22
sS'facts'
p592
I23
sS'yet'
p593
I23
sS'letting'
p594
I23
sS'*looks'
p595
I23
sS'cus'
p596
I23
sS'tablet'
p597
I23
sS'cup'
p598
I23
sS'jeff'
p599
I23
sS'had'
p600
I23
sS'morrissey?"'
p601
I23
sS'book'
p602
I21
sS'4'
p603
I22
sS'homies'
p604
I23
sS'snap'
p605
I22
sS'has'
p606
I23
sS'malcolm'
p607
I23
sS'real'
p608
I20
sS'crusty'
p609
I23
sS'big'
p610
I22
sS'couple'
p611
I23
sS'triste'
p612
I23
sS'early'
p613
I23
sS'yell'
p614
I23
sS'touch\xc3\xa9'
p615
I23
sS'know'
p616
I15
sS'wanting'
p617
I23
sS'world'
p618
I23
sS'mis'
p619
I23
sS'clan'
p620
I23
sS'morale'
p621
I23
sS'like'
p622
I17
sS'-_-'
p623
I22
sS'rancho\xe2\x9c\x8a'
p624
I23
sS'either'
p625
I22
sS'night'
p626
I20
sS'roscoes'
p627
I23
sS'works'
p628
I23
sS'newton'
p629
I23
sS'nigga'
p630
I21
sS'joking'
p631
I23
sS'people'
p632
I19
sS'fucking'
p633
I22
sS'scared'
p634
I23
sS'some'
p635
I19
sS'back'
p636
I21
sS'disfruten'
p637
I23
sS'hair'
p638
I23
sS'lips'
p639
I23
sS'mmmmm'
p640
I22
sS'pancho'
p641
I23
sS'sight'
p642
I23
sS'home'
p643
I22
sS'wiggins'
p644
I23
sS'preachmy'
p645
I23
sS'for'
p646
I9
sS'volunteering'
p647
I23
sS'foo'
p648
I22
sS'christmas'
p649
I22
sS'be'
p650
I13
sS'football'
p651
I23
sS'power'
p652
I22
sS'lmfao'
p653
I21
sS'nails'
p654
I22
sS'smiths'
p655
I23
sS'nuevo'
p656
I23
sS'how'
p657
I19
sS'post'
p658
I23
sS'super'
p659
I22
sS'by'
p660
I23
sS'on'
p661
I15
sS'about'
p662
I22
sS'anything'
p663
I23
sS'getting'
p664
I22
sS'of'
p665
I10
sS'fea'
p666
I23
sS'greater'
p667
I23
sS'angeles'
p668
I23
sS'idk'
p669
I23
sS'efforts'
p670
I23
sS'or'
p671
I10
sS"leo's"
p672
I23
sS'chulo'
p673
I23
sS'lied'
p674
I23
sS'snapchat'
p675
I23
sS'bulgar'
p676
I23
sS'down'
p677
I22
sS'right'
p678
I20
sS'strip'
p679
I23
sS'actually'
p680
I23
sS'your'
p681
I8
sS'trabajar'
p682
I23
sS'buds'
p683
I23
sS'neymar'
p684
I23
sS'yea'
p685
I23
sS'there'
p686
I23
sS'hey'
p687
I23
sS'lol'
p688
I14
sS'kidding'
p689
I23
sS'start'
p690
I23
sS'cats'
p691
I23
sS'uffffff'
p692
I23
sS'way'
p693
I22
sS'was'
p694
I20
sS'happy'
p695
I22
sS'chats'
p696
I22
sS'head'
p697
I23
sS'hard'
p698
I23
sS'amateur'
p699
I23
sS"i've"
p700
I23
sS'bitches'
p701
I23
sS'sabadito\xe2\x99\xa7\xe2\x99\xa3\xe2\x99\xa7\xe2\x99\xa3\xe2\x99\xa7\xe2\x98\x86\xe2\x98\x85\xe2\x98\x86\xe2\x99\xa7\xe2\x99\xa3\xe2\x98\x85'
p702
I23
sS'faceass'
p703
I23
sS'but'
p704
I19
sS'volume'
p705
I23
sS'boys'
p706
I23
sS'understandable'
p707
I22
sS'ha'
p708
I20
sS'with'
p709
I15
sS'he'
p710
I19
sS'viva'
p711
I23
sS"they're"
p712
I23
sS'tengan'
p713
I23
sS'places'
p714
I23
sS'up'
p715
I17
sS'until'
p716
I23
sS'un'
p717
I22
sS'stories'
p718
I23
sS'dropkick'
p719
I23
sS'usher'
p720
I23
sS'more'
p721
I20
sS'called'
p722
I23
sS'gone'
p723
I21
sS'af'
p724
I23
sS"chan's"
p725
I23
sS'feliz'
p726
I22
sS'am'
p727
I21
sS'deep'
p728
I23
sS'as'
p729
I21
sS'at'
p730
I15
sS'ay'
p731
I23
sS'check'
p732
I23
sS'shit'
p733
I21
sS'compared'
p734
I23
sS'rumors'
p735
I23
sS'dying'
p736
I23
sS'no'
p737
I13
sS'idiot'
p738
I23
sS'nah'
p739
I23
sS'when'
p740
I20
sS'other'
p741
I22
sS'sick'
p742
I22
sS'you'
p743
I1
sS'really'
p744
I23
sS'nice'
p745
I23
sS'poor'
p746
I23
sS'rt'
p747
I23
sS'erica'
p748
I23
sS'kinds'
p749
I23
sS'monday'
p750
I23
sS'aser'
p751
I23
sS'why'
p752
I23
sS'haircut'
p753
I23
sS'stay'
p754
I23
sS"let's"
p755
I22
sS'class'
p756
I23
sS'terry'
p757
I23
sS'chris'
p758
I22
sS'carlos'
p759
I23
sS'\xe2\x80\x94'
p760
I22
sS'itself'
p761
I23
sS'hella'
p762
I23
sS'u'
p763
I21
sS'overseas'
p764
I23
sS'having'
p765
I22
s.