(dp0
S''
p1
I2
sS'all'
p2
I21
sS':)'
p3
I28
sS'global'
p4
I29
sS'felt'
p5
I29
sS'month'
p6
I29
sS'sleep'
p7
I27
sS'spiders'
p8
I29
sS'go'
p9
I20
sS'sue\xc3\xb1o'
p10
I29
sS'hate'
p11
I27
sS'up"'
p12
I29
sS'young'
p13
I28
sS'thursday'
p14
I22
sS'duolingo'
p15
I29
sS'presents'
p16
I29
sS'to'
p17
I5
sS'finally'
p18
I29
sS'program'
p19
I29
sS'tf'
p20
I29
sS'charity'
p21
I29
sS"a's"
p22
I28
sS'worth'
p23
I29
sS'saves'
p24
I29
sS'advantage'
p25
I29
sS'vegas'
p26
I27
sS'every'
p27
I28
sS'bringing'
p28
I29
sS'sonora'
p29
I29
sS'cool'
p30
I29
sS'edad'
p31
I29
sS'school'
p32
I18
sS'nfl'
p33
I29
sS'bestfriend'
p34
I28
sS'whish'
p35
I29
sS'did'
p36
I29
sS'turns'
p37
I29
sS'f'
p38
I29
sS'peeps'
p39
I29
sS'accidentally'
p40
I29
sS'hooray'
p41
I29
sS'team'
p42
I28
sS'quick'
p43
I29
sS'dodger'
p44
I29
sS'heading'
p45
I29
sS'yall'
p46
I29
sS'clothes'
p47
I28
sS"i'll"
p48
I29
sS'someday'
p49
I29
sS'work'
p50
I25
sS'angeles)'
p51
I28
sS'tired'
p52
I29
sS'till'
p53
I29
sS'penalties'
p54
I29
sS'danira'
p55
I29
sS'smfh'
p56
I29
sS'nail'
p57
I27
sS'second'
p58
I28
sS'street'
p59
I28
sS'59%'
p60
I28
sS'shirts'
p61
I29
sS'rato'
p62
I29
sS'ill'
p63
I29
sS'elca'
p64
I29
sS'even'
p65
I29
sS'south'
p66
I29
sS'what'
p67
I27
sS'donut'
p68
I29
sS'creating'
p69
I29
sS'cah'
p70
I29
sS'him*'
p71
I29
sS'flowing'
p72
I29
sS'new'
p73
I25
sS'nurse'
p74
I29
sS'ever'
p75
I29
sS'told'
p76
I28
sS'benet'
p77
I29
sS'pats'
p78
I29
sS'full'
p79
I27
sS'archives'
p80
I29
sS'leg'
p81
I28
sS'never'
p82
I29
sS'sentimental\xc3\xadsmos'
p83
I29
sS'here'
p84
I28
sS'herd'
p85
I29
sS'water'
p86
I29
sS'met'
p87
I29
sS'china'
p88
I29
sS'andrews'
p89
I29
sS'alone'
p90
I29
sS'100'
p91
I29
sS'hoops'
p92
I29
sS'legend'
p93
I29
sS'celebration'
p94
I29
sS'luther'
p95
I29
sS'kids'
p96
I29
sS'daughter'
p97
I29
sS'scientist"'
p98
I29
sS'didnt'
p99
I29
sS'eastside'
p100
I29
sS'grandes'
p101
I29
sS'leaving'
p102
I29
sS'bay\xe2\x80\xa6'
p103
I29
sS'cousins'
p104
I29
sS'weird'
p105
I27
sS'asf'
p106
I29
sS'love'
p107
I20
sS'win'
p108
I29
sS'bro'
p109
I29
sS'keeper'
p110
I29
sS'wit'
p111
I28
sS'1st'
p112
I29
sS'week...sigh'
p113
I29
sS'armed'
p114
I29
sS'alamitos'
p115
I29
sS'environment'
p116
I29
sS'swings'
p117
I28
sS'from'
p118
I19
sS'spoke'
p119
I29
sS'usa'
p120
I29
sS'&'
p121
I26
sS'give'
p122
I29
sS'dude'
p123
I29
sS'next'
p124
I25
sS'few'
p125
I28
sS'ca)'
p126
I26
sS'camera'
p127
I29
sS'call'
p128
I27
sS'l.a.)'
p129
I27
sS'6'
p130
I29
sS'injury'
p131
I29
sS'angels'
p132
I29
sS'prep'
p133
I29
sS'today'
p134
I24
sS'more'
p135
I29
sS'knows'
p136
I29
sS'pilgram'
p137
I29
sS'sessions'
p138
I28
sS'smokin'
p139
I29
sS'kamasi'
p140
I29
sS'stone'
p141
I29
sS'oregon'
p142
I29
sS'hurt'
p143
I29
sS'----'
p144
I29
sS'phone'
p145
I29
sS'train'
p146
I29
sS"ain't"
p147
I29
sS'former'
p148
I29
sS'east'
p149
I29
sS'baby'
p150
I27
sS'ok'
p151
I29
sS'saben'
p152
I29
sS'must'
p153
I29
sS'me'
p154
I10
sS'refrescante'
p155
I29
sS'none'
p156
I28
sS'l.a.))'
p157
I29
sS'niggas'
p158
I27
sS'this'
p159
I12
sS'car'
p160
I29
sS'ride'
p161
I28
sS'getting'
p162
I26
sS'mi'
p163
I29
sS'movies'
p164
I29
sS'ryuryo874'
p165
I29
sS'sudden'
p166
I28
sS'can'
p167
I25
sS'ms'
p168
I29
sS'cal'
p169
I29
sS'making'
p170
I29
sS'jamal'
p171
I29
sS'my'
p172
I4
sS'100%'
p173
I29
sS'beautiful'
p174
I28
sS'heart'
p175
I26
sS'snacks'
p176
I29
sS'rodriguez'
p177
I29
sS'empiezo'
p178
I29
sS"didn't"
p179
I29
sS'fuck'
p180
I26
sS'high'
p181
I28
sS'donating'
p182
I29
sS'homie'
p183
I29
sS'want'
p184
I22
sS'w/help'
p185
I29
sS'audition'
p186
I29
sS'mannnnn'
p187
I29
sS'vibe'
p188
I29
sS'watching'
p189
I29
sS'class"'
p190
I29
sS'struggles'
p191
I29
sS'snippet'
p192
I29
sS'how'
p193
I23
sS'hot'
p194
I28
sS'beach'
p195
I27
sS'secrets...no'
p196
I29
sS'idk'
p197
I29
sS'de'
p198
I28
sS'okay'
p199
I29
sS'beauty'
p200
I29
sS'bday'
p201
I28
sS'after'
p202
I28
sS'southern'
p203
I29
sS'lmfaoo'
p204
I29
sS'wrong'
p205
I29
sS'birthday'
p206
I28
sS'mad'
p207
I29
sS'opening'
p208
I29
sS'softball'
p209
I29
sS'italy'
p210
I29
sS'suck'
p211
I29
sS'guys'
p212
I27
sS'grow'
p213
I29
sS'man'
p214
I28
sS'a'
p215
I7
sS'stress'
p216
I29
sS'tbh'
p217
I29
sS'appreciate'
p218
I29
sS'st'
p219
I29
sS'switch'
p220
I29
sS'ones'
p221
I29
sS'so'
p222
I20
sS'cascada'
p223
I28
sS'keeps'
p224
I29
sS'deck'
p225
I29
sS'pulled'
p226
I29
sS'order'
p227
I29
sS"that's"
p228
I28
sS'feeds'
p229
I29
sS"don't"
p230
I26
sS'john'
p231
I29
sS'over'
p232
I28
sS'goody'
p233
I29
sS'years'
p234
I27
sS'professors'
p235
I29
sS"won't"
p236
I28
sS'terrace'
p237
I29
sS'shake'
p238
I29
sS'cold'
p239
I28
sS'still'
p240
I26
sS'avenue'
p241
I11
sS'mayor'
p242
I27
sS'before'
p243
I29
sS'perfect'
p244
I28
sS'jig'
p245
I29
sS'lb'
p246
I29
sS'thank'
p247
I29
sS'22'
p248
I29
sS'la'
p249
I25
sS'somewhere'
p250
I29
sS'gerald'
p251
I28
sS'muskies'
p252
I29
sS'sunday'
p253
I29
sS'ensue'
p254
I29
sS'winning'
p255
I29
sS'405'
p256
I29
sS'offers'
p257
I29
sS'molcajete'
p258
I29
sS'2014'
p259
I29
sS'bout'
p260
I29
sS'soccer'
p261
I29
sS"haven't"
p262
I29
sS'dad'
p263
I29
sS'then'
p264
I29
sS'them'
p265
I28
sS'good'
p266
I26
sS'somebody'
p267
I29
sS'yo'
p268
I29
sS'ya'
p269
I28
sS'practice'
p270
I29
sS'break'
p271
I29
sS'band'
p272
I28
sS'afecta'
p273
I29
sS'they'
p274
I28
sS'not'
p275
I26
sS'now'
p276
I25
sS'cage'
p277
I28
sS'day'
p278
I22
sS'sworn'
p279
I29
sS'drop'
p280
I29
sS'ewwww'
p281
I29
sS'weather'
p282
I29
sS'affiliate'
p283
I29
sS"w's"
p284
I29
sS'rock'
p285
I29
sS'found'
p286
I29
sS'went'
p287
I27
sS'|'
p288
I27
sS'glasses'
p289
I29
sS'em'
p290
I29
sS'el'
p291
I29
sS'en'
p292
I28
sS'mexico'
p293
I29
sS'doing'
p294
I29
sS'house'
p295
I27
sS'haley'
p296
I29
sS'brother'
p297
I29
sS'celebrating'
p298
I29
sS'ex'
p299
I29
sS'forgot'
p300
I28
sS'our'
p301
I29
sS'girl'
p302
I28
sS'morning'
p303
I28
sS'saturday'
p304
I28
sS'really'
p305
I23
sS'rt'
p306
I29
sS'try'
p307
I29
sS'guzm\xc3\xa1n'
p308
I29
sS'and\xe2\x80\xa6'
p309
I29
sS'missed'
p310
I29
sS'ernie'
p311
I29
sS'bag'
p312
I29
sS'open'
p313
I29
sS'chaos'
p314
I29
sS'george'
p315
I26
sS'seriously'
p316
I29
sS'bae'
p317
I29
sS'smh'
p318
I29
sS'got'
p319
I23
sS'cause'
p320
I29
sS'correct'
p321
I29
sS'red'
p322
I29
sS'lasted'
p323
I29
sS'ass'
p324
I27
sS'shut'
p325
I29
sS'wallpaper'
p326
I29
sS'pathetic'
p327
I29
sS'kaused'
p328
I29
sS'bitches'
p329
I29
sS'harry'
p330
I29
sS'story'
p331
I29
sS'extraordinary'
p332
I29
sS'que'
p333
I29
sS'disneyland'
p334
I28
sS'lausd'
p335
I29
sS'ciudaaad'
p336
I29
sS'card'
p337
I29
sS'training'
p338
I29
sS'kept'
p339
I29
sS'waiter'
p340
I29
sS'amanda'
p341
I29
sS'could'
p342
I27
sS'days'
p343
I29
sS'place'
p344
I29
sS'w'
p345
I29
sS'think'
p346
I27
sS'omia'
p347
I29
sS'kamasiwashington\xe2\x80\xa6'
p348
I29
sS'hombre'
p349
I29
sS'one'
p350
I22
sS'sisters'
p351
I29
sS'bitch'
p352
I28
sS'another'
p353
I29
sS'tickets......lol'
p354
I29
sS'says'
p355
I28
sS'miss'
p356
I29
sS'tomorrow'
p357
I28
sS'hood'
p358
I26
sS"you're"
p359
I27
sS'little'
p360
I28
sS'long'
p361
I28
sS'broadous'
p362
I29
sS'festival'
p363
I26
sS'rancho'
p364
I29
sS'night'
p365
I29
sS'girls'
p366
I29
sS'least'
p367
I29
sS'tradition'
p368
I29
sS'carson'
p369
I28
sS'their'
p370
I27
sS'feared'
p371
I29
sS'2'
p372
I28
sS'draft'
p373
I29
sS'too'
p374
I27
sS'nigeria'
p375
I29
sS'las'
p376
I29
sS'final'
p377
I29
sS'friend'
p378
I28
sS'stomach'
p379
I29
sS'way'
p380
I29
sS'that'
p381
I24
sS'you\xe2\x80\x9d'
p382
I29
sS'hotel'
p383
I27
sS'al'
p384
I29
sS'took'
p385
I29
sS'hut'
p386
I29
sS'part'
p387
I29
sS'because'
p388
I29
sS'butt'
p389
I29
sS'baja'
p390
I29
sS'constituent'
p391
I28
sS'than'
p392
I29
sS'boyfriend'
p393
I29
sS'ipad'
p394
I29
sS'10'
p395
I29
sS'b'
p396
I28
sS'15'
p397
I29
sS'lmao'
p398
I26
sS'boring'
p399
I29
sS'gotta'
p400
I29
sS'store'
p401
I29
sS'insulted'
p402
I29
sS'were'
p403
I28
sS'sister'
p404
I29
sS'feeling'
p405
I29
sS'bet'
p406
I29
sS'booth'
p407
I29
sS'and'
p408
I13
sS'gathering'
p409
I29
sS'piza'
p410
I29
sS'pro'
p411
I29
sS'mind'
p412
I29
sS'mine'
p413
I29
sS'slap'
p414
I29
sS'comfortable'
p415
I29
sS'tonight'
p416
I29
sS'talking'
p417
I27
sS'say'
p418
I29
sS'enforcer'
p419
I29
sS'alike'
p420
I29
sS'have'
p421
I26
sS'need'
p422
I25
sS'seen'
p423
I27
sS'breakfast'
p424
I28
sS'saw'
p425
I29
sS'any'
p426
I29
sS'batting'
p427
I27
sS'wilson'
p428
I28
sS'congrats'
p429
I29
sS'able'
p430
I29
sS'si'
p431
I28
sS'omfg'
p432
I29
sS'contact'
p433
I29
sS'take'
p434
I29
sS'which'
p435
I29
sS'wanting'
p436
I28
sS'latino'
p437
I29
sS'gym'
p438
I29
sS'bets'
p439
I29
sS'\xc2\xa1ya'
p440
I29
sS'play'
p441
I29
sS'sure'
p442
I29
sS'pain'
p443
I29
sS'vali\xc3\xb3'
p444
I29
sS'arguing'
p445
I29
sS'doin'
p446
I29
sS'knew'
p447
I29
sS'thts'
p448
I29
sS'most'
p449
I28
sS'germany'
p450
I28
sS'forreal'
p451
I29
sS'services'
p452
I28
sS'why'
p453
I27
sS'laughing'
p454
I29
sS'lee'
p455
I29
sS'considered'
p456
I29
sS'dream'
p457
I29
sS'clear'
p458
I29
sS'devastating'
p459
I29
sS'cover'
p460
I29
sS'thanksgiving'
p461
I29
sS'artistas'
p462
I29
sS'looked'
p463
I29
sS'lots'
p464
I29
sS'dawgs'
p465
I29
sS'aunt'
p466
I29
sS'acabo'
p467
I29
sS'hear'
p468
I29
sS"david's"
p469
I29
sS'came'
p470
I29
sS'perspective'
p471
I29
sS'madison'
p472
I29
sS'ugh'
p473
I28
sS'shot'
p474
I29
sS'\xe2\x9c\xa8'
p475
I29
sS'show'
p476
I29
sS'violation'
p477
I29
sS'tequila'
p478
I29
sS'twee'
p479
I29
sS'bring'
p480
I29
sS'bright'
p481
I29
sS"90's"
p482
I29
sS'la\xe2\x80\xa6'
p483
I29
sS'sneaking'
p484
I29
sS'find'
p485
I29
sS'nipples'
p486
I29
sS'aint'
p487
I29
sS'slow'
p488
I29
sS'\xe2\x9c\x8b'
p489
I29
sS'favor'
p490
I29
sS'4-rolls'
p491
I29
sS'nervous'
p492
I29
sS'dick'
p493
I29
sS'should'
p494
I28
sS'moments'
p495
I29
sS'going'
p496
I28
sS'instaplace'
p497
I29
sS'jag'
p498
I29
sS'posted'
p499
I29
sS"discussin'"
p500
I29
sS'hope'
p501
I29
sS'hip'
p502
I28
sS'do'
p503
I26
sS'lobo'
p504
I29
sS'stay'
p505
I29
sS'get'
p506
I22
sS'beat'
p507
I29
sS'michigan'
p508
I29
sS'jazz'
p509
I15
sS'wiggle'
p510
I27
sS'rodriquez'
p511
I29
sS'humbled'
p512
I29
sS'churros'
p513
I29
sS'him'
p514
I29
sS'celebrate'
p515
I29
sS'tccarson'
p516
I29
sS'do\xe2\x80\xa6'
p517
I29
sS'die'
p518
I29
sS'i-10'
p519
I29
sS'bay'
p520
I28
sS'twice'
p521
I29
sS'bad'
p522
I29
sS'stupid'
p523
I29
sS'she'
p524
I23
sS'shots'
p525
I28
sS'blood.\xe2\x80\x9d'
p526
I29
sS'home....how'
p527
I29
sS'where'
p528
I29
sS'in\xe2\x80\xa6'
p529
I29
sS'p\xc3\xa9sima'
p530
I29
sS'set'
p531
I29
sS'national'
p532
I29
sS"killin'"
p533
I29
sS'schizophrenic'
p534
I29
sS'touch'
p535
I29
sS'see'
p536
I28
sS'dumb'
p537
I29
sS'are'
p538
I26
sS'13th||||wiltern\xe2\x80\x9d'
p539
I29
sS'parking'
p540
I28
sS'close'
p541
I29
sS'yes'
p542
I29
sS'best'
p543
I29
sS'wears'
p544
I29
sS'kamasiwashington'
p545
I29
sS'said'
p546
I27
sS'fastballs'
p547
I29
sS'porque'
p548
I29
sS'ways'
p549
I29
sS'movie'
p550
I29
sS'wow'
p551
I29
sS'missing'
p552
I29
sS'please'
p553
I29
sS'its'
p554
I29
sS'bailadora'
p555
I29
sS'3'
p556
I28
sS'closed'
p557
I29
sS'rendition'
p558
I29
sS'champagne'
p559
I29
sS'you...no'
p560
I29
sS'prepped'
p561
I29
sS'solo'
p562
I29
sS'we'
p563
I27
sS'gradnight'
p564
I29
sS'august'
p565
I28
sS'messed'
p566
I29
sS'weak'
p567
I29
sS'flow'
p568
I29
sS'the\xe2\x80\xa6'
p569
I29
sS'vernon'
p570
I26
sS'death'
p571
I29
sS'vale'
p572
I28
sS'wtf'
p573
I29
sS'cousin'
p574
I28
sS'come'
p575
I29
sS'nahhhh'
p576
I29
sS'pissed'
p577
I29
sS'both'
p578
I29
sS'c'
p579
I29
sS'last'
p580
I29
sS'talented'
p581
I29
sS'many'
p582
I29
sS'taking'
p583
I29
sS'barely'
p584
I29
sS'dar'
p585
I29
sS'job'
p586
I29
sS'amazing'
p587
I29
sS'una'
p588
I29
sS'tour'
p589
I29
sS'became'
p590
I27
sS'games'
p591
I29
sS'context'
p592
I28
sS'baseball'
p593
I29
sS'whole'
p594
I29
sS"can't"
p595
I28
sS'con'
p596
I29
sS'vent'
p597
I29
sS"grandy's"
p598
I29
sS'color'
p599
I29
sS'sweet'
p600
I29
sS'malcolm'
p601
I29
sS'por'
p602
I29
sS'groupon'
p603
I29
sS'walk'
p604
I28
sS'lex'
p605
I29
sS'twin'
p606
I28
sS'repostapp'
p607
I29
sS'church'
p608
I29
sS'tony'
p609
I29
sS'oakland'
p610
I28
sS'"mad'
p611
I29
sS'tercer'
p612
I29
sS'raise'
p613
I29
sS'union'
p614
I29
sS"it's"
p615
I26
sS'been'
p616
I29
sS'hutton'
p617
I29
sS'beer'
p618
I29
sS'much'
p619
I29
sS'damn'
p620
I28
sS'stadium'
p621
I29
sS'sesh'
p622
I29
sS'wait'
p623
I29
sS'po'
p624
I29
sS'woke'
p625
I29
sS'>'
p626
I29
sS'life'
p627
I25
sS'i\xe2\x80\xa6'
p628
I29
sS'fire'
p629
I28
sS'-'
p630
I29
sS'great'
p631
I22
sS'central\xe2\x80\xa6'
p632
I28
sS'fest'
p633
I20
sS'brunch'
p634
I29
sS'dialing'
p635
I29
sS'chill'
p636
I29
sS'twist'
p637
I29
sS'bye'
p638
I29
sS'look'
p639
I27
sS'todoooo'
p640
I29
sS'these'
p641
I29
sS'plasma'
p642
I29
sS'straight'
p643
I27
sS'nd'
p644
I29
sS',90011\n471464639700557824,getcamachoed,2014-05-28'
p645
I29
sS'will'
p646
I27
sS'while'
p647
I28
sS'teachers'
p648
I29
sS'wild'
p649
I28
sS"wouldn't"
p650
I29
sS'cages'
p651
I29
sS'/take'
p652
I29
sS'grip'
p653
I29
sS'centralavejazz\xe2\x80\xa6'
p654
I29
sS'played'
p655
I29
sS'almost'
p656
I29
sS'is'
p657
I12
sS'canon'
p658
I29
sS'it'
p659
I16
sS'rip'
p660
I29
sS'jelly'
p661
I29
sS'middle'
p662
I26
sS'someone'
p663
I27
sS'im'
p664
I29
sS'in'
p665
I9
sS'ready'
p666
I29
sS'ave'
p667
I26
sS'sits'
p668
I29
sS'voy'
p669
I29
sS'if'
p670
I26
sS'for\xe2\x80\xa6'
p671
I29
sS'funny'
p672
I28
sS'kissed'
p673
I29
sS'let'
p674
I29
sS'shirt'
p675
I25
sS'fkn'
p676
I28
sS'wearing'
p677
I29
sS'goddess'
p678
I29
sS'make'
p679
I27
sS'0'
p680
I29
sS's'
p681
I29
sS'same'
p682
I29
sS'check'
p683
I29
sS'grand'
p684
I29
sS'success'
p685
I29
sS'gets'
p686
I28
sS'madree'
p687
I29
sS'couple'
p688
I29
sS'week'
p689
I27
sS'meets'
p690
I29
sS'byyyeeeeeeeee\xe2\x9c\x8c\xef\xb8\x8f'
p691
I29
sS'villavaso'
p692
I29
sS'drink'
p693
I29
sS'discuss'
p694
I29
sS'yesterday'
p695
I26
sS'waves'
p696
I29
sS'beast'
p697
I29
sS'coaches'
p698
I29
sS'moment'
p699
I28
sS'student'
p700
I29
sS'fucked'
p701
I27
sS'totally'
p702
I29
sS"i'm"
p703
I17
sS'warming'
p704
I29
sS'//'
p705
I29
sS'bluesy'
p706
I29
sS'off'
p707
I20
sS'center'
p708
I28
sS'centralavejazz'
p709
I22
sS'lunch'
p710
I29
sS'i'
p711
I3
sS'well'
p712
I28
sS'anybody'
p713
I29
sS'carnitas'
p714
I29
sS'person'
p715
I29
sS'1'
p716
I29
sS'jersey'
p717
I29
sS'wya'
p718
I28
sS'organization'
p719
I29
sS'the'
p720
I1
sS'3$'
p721
I29
sS'yours'
p722
I29
sS'left'
p723
I28
sS'rocker'
p724
I29
sS'summer'
p725
I29
sS'taller'
p726
I29
sS'\xe2\x9d\xa4'
p727
I29
sS'just'
p728
I15
sS'being'
p729
I29
sS'photo'
p730
I28
sS'sleepy'
p731
I29
sS'porqu\xc3\xa9'
p732
I29
sS"1990's"
p733
I29
sS'front'
p734
I29
sS'par\xc3\xads'
p735
I29
sS'thanks'
p736
I28
sS'slugger'
p737
I29
sS'1:00'
p738
I29
sS'polish'
p739
I29
sS'paul'
p740
I28
sS'cut'
p741
I28
sS'elo'
p742
I29
sS'thinking'
p743
I29
sS'27th'
p744
I29
sS'percent'
p745
I29
sS'had'
p746
I29
sS"gf's"
p747
I29
sS'(los'
p748
I24
sS'location'
p749
I29
sS'easy'
p750
I29
sS'crack'
p751
I29
sS'has'
p752
I27
sS'hat'
p753
I29
sS'kick'
p754
I28
sS"deck's"
p755
I29
sS'real'
p756
I28
sS'|||november'
p757
I29
sS'around'
p758
I29
sS'checking'
p759
I28
sS'big'
p760
I29
sS'breaks'
p761
I29
sS"who's"
p762
I28
sS'early'
p763
I29
sS'matters'
p764
I29
sS'game'
p765
I28
sS'know'
p766
I28
sS'mom'
p767
I26
sS'linda'
p768
I29
sS'judge'
p769
I29
sS'2nd'
p770
I29
sS'wings'
p771
I29
sS'd'
p772
I29
sS'carnitas>>>>ihop'
p773
I29
sS'like'
p774
I23
sS'lost'
p775
I29
sS'bobby'
p776
I28
sS'clegg'
p777
I29
sS'signal'
p778
I29
sS'hunt'
p779
I29
sS'unnecessary'
p780
I29
sS'true'
p781
I29
sS'steps'
p782
I29
sS'either'
p783
I29
sS'james'
p784
I29
sS'everyone'
p785
I29
sS'works'
p786
I29
sS'right'
p787
I23
sS'old'
p788
I29
sS'creek'
p789
I29
sS'people'
p790
I29
sS'fucking'
p791
I28
sS'spring'
p792
I28
sS'twitter'
p793
I28
sS'some'
p794
I26
sS'back'
p795
I23
sS'bounce'
p796
I29
sS'standing'
p797
I29
sS'hair'
p798
I29
sS'110'
p799
I29
sS'home'
p800
I28
sS'brothers'
p801
I29
sS'delivered'
p802
I29
sS'trust'
p803
I29
sS'mood'
p804
I29
sS'for'
p805
I14
sS'literally'
p806
I29
sS'ice'
p807
I29
sS'everything'
p808
I29
sS'does'
p809
I29
sS'connecting'
p810
I29
sS'ugly\xe2\x80\x9d'
p811
I29
sS'beating'
p812
I29
sS't'
p813
I29
sS'be'
p814
I27
sS'who'
p815
I29
sS'run'
p816
I29
sS'spurs"5'
p817
I29
sS'asap'
p818
I29
sS'lmfao'
p819
I22
sS'lmaoooo'
p820
I29
sS'martin'
p821
I29
sS's/o'
p822
I29
sS'step'
p823
I28
sS'cheating'
p824
I29
sS'confrontation'
p825
I29
sS'throwback'
p826
I21
sS'pitchers'
p827
I29
sS'byeeeeeeeeeeeeeeee!\xe2\x9c\x8c\xef\xb8\x8f'
p828
I29
sS'by'
p829
I25
sS'earlier'
p830
I29
sS'stage'
p831
I26
sS'on'
p832
I6
sS'about'
p833
I22
sS'central'
p834
I8
sS'anything'
p835
I29
sS'oh'
p836
I28
sS'of'
p837
I7
sS'dollars'
p838
I29
sS'legendary'
p839
I29
sS'graduation'
p840
I29
sS'angeles'
p841
I24
sS'him.\xe2\x80\x9d'
p842
I29
sS'stand'
p843
I29
sS'warner'
p844
I29
sS'documentary'
p845
I29
sS'or'
p846
I29
sS'block'
p847
I29
sS'plan'
p848
I29
sS'everything\xe2\x80\xa6'
p849
I29
sS'bow/tie'
p850
I29
sS're-watching'
p851
I29
sS'into'
p852
I29
sS'washington'
p853
I26
sS'soo'
p854
I29
sS'son'
p855
I28
sS'down'
p856
I25
sS'chris'
p857
I29
sS'nigga'
p858
I25
sS'soy'
p859
I29
sS'sox'
p860
I29
sS'wings\xe2\x80\x9d'
p861
I29
sS'your'
p862
I27
sS'1987'
p863
I28
sS'mandalay'
p864
I27
sS'her'
p865
I26
sS'weekend'
p866
I29
sS'support'
p867
I29
sS'there'
p868
I27
sS'hey'
p869
I29
sS'lol'
p870
I24
sS'los'
p871
I27
sS"we're"
p872
I29
sS'dodgers'
p873
I29
sS'was'
p874
I16
sS'scared'
p875
I29
sS'happy'
p876
I27
sS'head'
p877
I29
sS'buy'
p878
I28
sS"i've"
p879
I29
sS'bus'
p880
I28
sS'bullshit'
p881
I29
sS'lmaooo'
p882
I29
sS'but'
p883
I23
sS'heat'
p884
I29
sS'uncle'
p885
I29
sS'(south'
p886
I26
sS'ha'
p887
I28
sS'with'
p888
I14
sS'he'
p889
I24
sS'again'
p890
I29
sS'baptist'
p891
I29
sS'made'
p892
I29
sS'maccabi'
p893
I29
sS'donuts)'
p894
I29
sS"wasn't"
p895
I29
sS'type'
p896
I29
sS'mtv'
p897
I29
sS'up'
p898
I20
sS'wardrobe'
p899
I29
sS'nicest'
p900
I29
sS"chillin'"
p901
I29
sS'\xe2\x99\xa1\xe2\x99\xa1\xe2\x99\xa1my'
p902
I29
sS'carver'
p903
I26
sS'af'
p904
I29
sS'thotful'
p905
I29
sS'year'
p906
I29
sS'am'
p907
I28
sS'robben'
p908
I29
sS'an'
p909
I29
sS'eric\xe2\x80\xa6'
p910
I29
sS'tengo'
p911
I29
sS'sometime'
p912
I29
sS'rolling'
p913
I29
sS'at'
p914
I17
sS'18-20'
p915
I29
sS'corita'
p916
I29
sS'tooth'
p917
I29
sS'eric'
p918
I29
sS'shit'
p919
I24
sS'mariscos'
p920
I29
sS'no'
p921
I29
sS'when'
p922
I22
sS'elway'
p923
I29
sS'cuenta'
p924
I29
sS'event'
p925
I29
sS'tim'
p926
I29
sS'book'
p927
I29
sS'sick'
p928
I29
sS'you'
p929
I9
sS'out'
p930
I24
sS'nice'
p931
I26
sS'blackburn'
p932
I29
sS'plate'
p933
I29
sS'haha'
p934
I29
sS'football'
p935
I29
sS'dave'
p936
I29
sS'actor'
p937
I29
sS'birds'
p938
I29
sS'of\xe2\x80\xa6'
p939
I28
sS'brotha\xe2\x80\xa6'
p940
I29
sS'disclosure'
p941
I29
sS'pool'
p942
I29
sS'ago'
p943
I28
sS'fuckin'
p944
I29
sS'chill,90011\n472228712679608320,getcamachoed,2014-05-30'
p945
I29
sS'e'
p946
I29
sS'dunbar'
p947
I27
sS"he's"
p948
I29
sS'lot'
p949
I29
sS'\xe2\x80\x9c'
p950
I29
sS'toooooooooooooooo'
p951
I29
sS'u'
p952
I27
sS'natasha\xe2\x80\xa6'
p953
I29
sS'time'
p954
I24
sS'buffalo'
p955
I28
s.