(dp0
S''
p1
I1
sS'cheetos'
p2
I31
sS'all'
p3
I23
sS'69th'
p4
I30
sS'forget'
p5
I31
sS'foul'
p6
I30
sS'22:17:49.0,34.0005903,-118.25253381,2287.10,sooo'
p7
I31
sS'four'
p8
I30
sS'yelling'
p9
I31
sS'lmaooooo\xe2\x80\x9d'
p10
I31
sS'sleep'
p11
I29
sS'go'
p12
I17
sS'humid'
p13
I31
sS'hate'
p14
I28
sS'issues'
p15
I31
sS':)'
p16
I31
sS"13:39:58.0,34.00046579,-118.25249755,2287.10,it's"
p17
I31
sS'imma'
p18
I31
sS'tweet'
p19
I31
sS'tu'
p20
I30
sS'young'
p21
I31
sS'lilll'
p22
I31
sS'asado'
p23
I31
sS'0'
p24
I30
sS'finally'
p25
I29
sS'retweets'
p26
I31
sS'tf'
p27
I27
sS'dislike'
p28
I31
sS'enjoying'
p29
I31
sS'worth'
p30
I31
sS'sent'
p31
I31
sS'sound'
p32
I31
sS'song'
p33
I31
sS'pierce'
p34
I31
sS'tacos'
p35
I27
sS'fan'
p36
I30
sS'fall'
p37
I31
sS'fuckkkk'
p38
I31
sS'tickets'
p39
I30
sS'steve'
p40
I31
sS'school'
p41
I28
sS'bestfriend'
p42
I31
sS'level'
p43
I31
sS'did'
p44
I30
sS'trappin'
p45
I31
sS'go.,90011\n497757492873416705,dorarosass,2014-08-08'
p46
I31
sS'leave'
p47
I30
sS'walked'
p48
I31
sS'hyu'
p49
I31
sS'waaaakkeee'
p50
I31
sS'team'
p51
I31
sS'quick'
p52
I31
sS'fuuuck'
p53
I31
sS'guy'
p54
I30
sS'u\xe2\x80\x9d'
p55
I31
sS'round'
p56
I31
sS'yall'
p57
I31
sS'dis'
p58
I31
sS"i'll"
p59
I27
sS'creepin'
p60
I31
sS'booty'
p61
I31
sS'20:20:45.0,34.00050983,-118.25245485,2287.10,yasssss'
p62
I31
sS'tired'
p63
I28
sS'trend'
p64
I31
sS'penalties'
p65
I28
sS'yourself'
p66
I31
sS'bacon'
p67
I30
sS'boca'
p68
I31
sS'ate*'
p69
I31
sS'nail'
p70
I31
sS'talks'
p71
I29
sS'street'
p72
I29
sS'video'
p73
I31
sS'uppppp'
p74
I31
sS'eating'
p75
I31
sS'cesar'
p76
I28
sS',90011\n498968460689276929,dorarosass,2014-08-11'
p77
I31
sS'even'
p78
I29
sS'mariooooo'
p79
I31
sS'what'
p80
I23
sS'plays'
p81
I31
sS'g\xc3\x96tze'
p82
I30
sS'chicago'
p83
I31
sS'fact'
p84
I31
sS'sweaty'
p85
I31
sS'waiting'
p86
I31
sS'selena'
p87
I31
sS'goes'
p88
I28
sS'new'
p89
I28
sS'order'
p90
I31
sS'ever'
p91
I30
sS'lie\xe2\x80\x9d'
p92
I31
sS'satisfy'
p93
I31
sS'full'
p94
I31
sS'17:26:52.0,34.00135203,-118.25637409,2287.10,lunch'
p95
I31
sS'degree'
p96
I31
sS'matches'
p97
I31
sS'men'
p98
I31
sS'here'
p99
I29
sS'hours'
p100
I30
sS'following'
p101
I31
sS'let'
p102
I30
sS'more.,90011\n465656823706427392,5exasaweapon,2014-05-12'
p103
I31
sS'100'
p104
I31
sS'23:16:01.0,34.00056432,-118.25250464,2287.10,my'
p105
I31
sS"ya'"
p106
I31
sS'change'
p107
I31
sS'wait'
p108
I30
sS'box'
p109
I31
sS'boy'
p110
I30
sS'great'
p111
I30
sS'kids'
p112
I30
sS'daughter'
p113
I31
sS'ahead'
p114
I30
sS'pearls'
p115
I30
sS'k'
p116
I30
sS'changed'
p117
I31
sS'piercing'
p118
I30
sS'periods'
p119
I31
sS'women'
p120
I31
sS'pico'
p121
I31
sS'falcao'
p122
I31
sS'boo'
p123
I30
sS'popcorn'
p124
I31
sS"would've"
p125
I31
sS"i'm"
p126
I15
sS'deserves'
p127
I31
sS'hummels'
p128
I31
sS'fell'
p129
I31
sS'thats'
p130
I27
sS'julio'
p131
I28
sS'coo'
p132
I31
sS'howedes'
p133
I31
sS'wassup'
p134
I31
sS'love'
p135
I25
sS'family'
p136
I31
sS'extra'
p137
I30
sS'win'
p138
I27
sS'compare'
p139
I31
sS'brought'
p140
I30
sS'dirk'
p141
I31
sS'thought'
p142
I31
sS'fake'
p143
I31
sS'buenas'
p144
I31
sS'00:56:52.0,34.0,-118.25282627,2287.10,in'
p145
I31
sS',90011\n497825848733364226,dorarosass,2014-08-08'
p146
I31
sS'market'
p147
I31
sS'everybody'
p148
I30
sS'once'
p149
I31
sS'ear'
p150
I31
sS'from'
p151
I25
sS'score'
p152
I31
sS'would'
p153
I28
sS'to'
p154
I4
sS'aye'
p155
I31
sS'moneyyy'
p156
I31
sS'klose'
p157
I31
sS'theme'
p158
I31
sS'next'
p159
I28
sS'mia,90011\n499678667534901248,dorarosass,2014-08-13'
p160
I31
sS'ca)'
p161
I31
sS'wayne'
p162
I30
sS'music'
p163
I29
sS'until'
p164
I31
sS'ahhh'
p165
I26
sS'typa'
p166
I31
sS'themselves'
p167
I31
sS'type'
p168
I31
sS'tell'
p169
I27
sS'today'
p170
I26
sS'more'
p171
I29
sS'tryna'
p172
I31
sS'babe'
p173
I31
sS'condom'
p174
I31
sS'23:07:17.0,34.00063561,-118.2524469,2287.10,my'
p175
I31
sS'started'
p176
I30
sS'00:07:41.0,34.00041239,-118.25243662,2287.10,stay'
p177
I31
sS',90011\n498969860555030528,dorarosass,2014-08-11'
p178
I31
sS'haha'
p179
I26
sS'eazy'
p180
I31
sS'flag'
p181
I31
sS"ain't"
p182
I28
sS'broke'
p183
I31
sS'8'
p184
I31
sS'baby'
p185
I29
sS'ok'
p186
I30
sS'glad'
p187
I28
sS'must'
p188
I31
sS'me'
p189
I13
sS'sike'
p190
I31
sS'balls'
p191
I30
sS'ma'
p192
I26
sS'fosho'
p193
I31
sS'hour'
p194
I31
sS'niggas'
p195
I25
sS'this'
p196
I14
sS'work'
p197
I30
sS'sucks'
p198
I30
sS',90011\n498927017161539584,dorarosass,2014-08-11'
p199
I31
sS't-raw'
p200
I31
sS'can'
p201
I27
sS'growing'
p202
I31
sS'making'
p203
I30
sS'drops'
p204
I31
sS'my'
p205
I7
sS'concert?,90011\n486976044935553024,lovelykaii,2014-07-09'
p206
I31
sS'tennis'
p207
I31
sS'beautiful'
p208
I31
sS'heart'
p209
I31
sS'crazy'
p210
I31
sS'toms'
p211
I31
sS'subscibe'
p212
I31
sS'give'
p213
I31
sS'it,90011\n497019614841155584,super_jayy15,2014-08-06'
p214
I31
sS',90011\n499191329650253825,_ruthy_bear,2014-08-12'
p215
I31
sS'rii'
p216
I31
sS"didn't"
p217
I31
sS'fuck'
p218
I16
sS'goooo'
p219
I31
sS'ochoa'
p220
I31
sS'high'
p221
I31
sS'lolol'
p222
I30
sS'homie'
p223
I31
sS'salty'
p224
I30
sS'something'
p225
I31
sS'want'
p226
I27
sS'csun'
p227
I31
sS'needs'
p228
I31
sS'end'
p229
I31
sS'goal'
p230
I30
sS'thing'
p231
I31
sS'22:07:32.0,34.00060928,-118.25249654,2287.10,tu'
p232
I31
sS'watching'
p233
I30
sS'dinner'
p234
I31
sS'gasol'
p235
I31
sS'1'
p236
I29
sS'till'
p237
I30
sS'amazing'
p238
I29
sS'hop'
p239
I31
sS',90011\n499695902580150272,dorarosass,2014-08-13'
p240
I31
sS'answer'
p241
I31
sS'suppoerting'
p242
I31
sS'bianca\xe2\x80\x9dawh'
p243
I31
sS'goat'
p244
I31
sS'gallo'
p245
I31
sS'josue'
p246
I31
sS'snaps'
p247
I31
sS'de'
p248
I31
sS'okay'
p249
I27
sS'tried'
p250
I31
sS'shiiit'
p251
I31
sS'after'
p252
I29
sS'spot'
p253
I29
sS'will,90011\n499192203764170752,_ruthy_bear,2014-08-12'
p254
I31
sS'birthday'
p255
I30
sS'mad'
p256
I31
sS'taco'
p257
I28
sS'salsa'
p258
I31
sS'coast'
p259
I31
sS'guys'
p260
I30
sS'fo'
p261
I31
sS'a'
p262
I5
sS'nowitzki'
p263
I31
sS'neck'
p264
I31
sS'third'
p265
I31
sS'wins'
p266
I27
sS'g-eazy'
p267
I31
sS'nosey'
p268
I31
sS'sowwie'
p269
I31
sS'so'
p270
I14
sS'waited'
p271
I31
sS'noches'
p272
I31
sS'every'
p273
I31
sS'duetoconsentido'
p274
I31
sS'dream'
p275
I31
sS'playing'
p276
I30
sS'talk'
p277
I30
sS'sd'
p278
I30
sS'hunnid'
p279
I30
sS'cute'
p280
I31
sS'20:51:51.0,33.9982771,-118.2536995,2287.10,who'
p281
I31
sS'mexican'
p282
I30
sS"don't"
p283
I25
sS'defenders'
p284
I31
sS'over'
p285
I29
sS'move'
p286
I31
sS'14:30:02.0,33.9998999,-118.2562542,2287.10,drive'
p287
I31
sS'soon'
p288
I31
sS'years'
p289
I31
sS'course'
p290
I31
sS"won't"
p291
I31
sS'looks'
p292
I31
sS'shit\xe2\x80\x9d'
p293
I31
sS'pitch'
p294
I30
sS'hater'
p295
I31
sS'still'
p296
I25
sS'its'
p297
I25
sS'blocked'
p298
I31
sS'24'
p299
I29
sS'blake'
p300
I31
sS'20'
p301
I31
sS'thank'
p302
I29
sS'la'
p303
I28
sS'c'
p304
I31
sS'interesting'
p305
I31
sS'23:15:02.0,33.9971691,-118.2526453,2287.10,ever'
p306
I31
sS'28'
p307
I31
sS'hot'
p308
I30
sS',90011\n498966862432960512,dorarosass,2014-08-11'
p309
I31
sS'winning'
p310
I31
sS'better'
p311
I29
sS'soccer'
p312
I31
sS'might'
p313
I30
sS'22:58:06.0,34.00053185,-118.25246236,2287.10,fancy'
p314
I31
sS"haven't"
p315
I31
sS'instantly'
p316
I31
sS'upppp'
p317
I31
sS'them'
p318
I31
sS'good'
p319
I23
sS'somebody'
p320
I31
sS'calm'
p321
I31
sS'yo'
p322
I25
sS'delish'
p323
I31
sS'ya'
p324
I19
sS'clippers'
p325
I30
sS'tucker'
p326
I31
sS"i've"
p327
I31
sS'21:44:11.0,34.0038711,-118.253858,2287.10,cute'
p328
I31
sS'they'
p329
I20
sS'hands'
p330
I31
sS'not'
p331
I18
sS'now'
p332
I24
sS'ahaha'
p333
I31
sS'day'
p334
I25
sS'10pm'
p335
I31
sS'netherlands'
p336
I31
sS'all"'
p337
I31
sS'pregnant'
p338
I30
sS'always'
p339
I30
sS',90011\n498944460827287552,dorarosass,2014-08-11'
p340
I31
sS'l'
p341
I30
sS'alexis'
p342
I31
sS'bless'
p343
I31
sS',90011\n500052522245963779,dorarosass,2014-08-14'
p344
I31
sS'weather'
p345
I31
sS'rapper?\xe2\x80\x9d'
p346
I31
sS'rock'
p347
I31
sS'$50'
p348
I30
sS'went'
p349
I31
sS',90011\n503232972460679168,marciee19,2014-08-23'
p350
I31
sS'persie'
p351
I30
sS"isn't"
p352
I30
sS'mean'
p353
I31
sS'el'
p354
I31
sS'2900'
p355
I31
sS'colombia'
p356
I31
sS'doing'
p357
I31
sS'house'
p358
I30
sS'yeah'
p359
I28
sS',90011\n506236542965125121,amber_jocelyne,2014-09-01'
p360
I31
sS'year'
p361
I31
sS'gtfo'
p362
I31
sS'girl'
p363
I31
sS'bay'
p364
I31
sS'sexual'
p365
I31
sS'sneijder'
p366
I31
sS'out'
p367
I24
sS'rt'
p368
I29
sS'00:25:27.0,33.99633403,-118.25453873,2287.10,i'
p369
I31
sS'by'
p370
I31
sS'gon'
p371
I27
sS'missed'
p372
I30
sS'3rd'
p373
I31
sS'pussies'
p374
I31
sS'god'
p375
I27
sS'since'
p376
I31
sS'semi'
p377
I31
sS'thirst'
p378
I31
sS'd.rose'
p379
I31
sS'seriously'
p380
I31
sS'brazil.!\xe2\x80\x9d'
p381
I31
sS'smh'
p382
I31
sS'got'
p383
I16
sS'rn'
p384
I29
sS"nigga'll"
p385
I31
sS"could've"
p386
I31
sS'ass'
p387
I21
sS'shut'
p388
I30
sS'working'
p389
I31
sS'goto'
p390
I31
sS'city'
p391
I31
sS'frank'
p392
I31
sS'million'
p393
I31
sS'guess'
p394
I30
sS'bulls'
p395
I31
sS'reason'
p396
I30
sS'california'
p397
I31
sS'struggle'
p398
I29
sS'grandma'
p399
I31
sS'put'
p400
I30
sS'bites'
p401
I31
sS'wanted'
p402
I31
sS'certified'
p403
I31
sS'care'
p404
I31
sS'mvp'
p405
I31
sS'riririuri'
p406
I31
sS'ate'
p407
I31
sS'bring'
p408
I31
sS'22:53:06.0,34.00050952,-118.25247948,2287.10,cuando'
p409
I31
sS'g'
p410
I31
sS'you\xe2\x80\x99ve'
p411
I31
sS'could'
p412
I30
sS'times'
p413
I31
sS'turn'
p414
I30
sS'4th'
p415
I31
sS'place'
p416
I31
sS'massive'
p417
I31
sS'5sos'
p418
I31
sS'can\xe2\x80\x99t'
p419
I30
sS'00:22:54.0,34.00058482,-118.25241876,2287.10,craving'
p420
I31
sS'think'
p421
I29
sS'south'
p422
I31
sS'first'
p423
I30
sS'enjoy'
p424
I31
sS'waaaakkeeeee'
p425
I31
sS'already'
p426
I29
sS'dont'
p427
I30
sS'feel'
p428
I31
sS'coming'
p429
I31
sS'one'
p430
I26
sS'whoop'
p431
I31
sS'hook'
p432
I31
sS',90011\n497821218200768512,dorarosass,2014-08-08'
p433
I31
sS'done'
p434
I28
sS'bitch'
p435
I16
sS'another'
p436
I29
sS'spanish'
p437
I31
sS'idc'
p438
I31
sS'sounds'
p439
I30
sS'miss'
p440
I28
sS'tomorrow'
p441
I27
sS'braces'
p442
I31
sS'23rd\xe2\x80\x9d'
p443
I31
sS"you're"
p444
I28
sS'story'
p445
I30
sS'today.\xe2\x80\x9d'
p446
I31
sS'heads'
p447
I31
sS'monkey'
p448
I30
sS'koo'
p449
I31
sS'needed'
p450
I31
sS'opportunity'
p451
I31
sS'top'
p452
I31
sS'girls'
p453
I30
sS'dressed'
p454
I31
sS',90011\n500432928849936384,dorarosass,2014-08-16'
p455
I31
sS'priority'
p456
I30
sS'their'
p457
I28
sS'2'
p458
I30
sS'dumbass'
p459
I31
sS'too'
p460
I26
sS'wrapped'
p461
I31
sS'white'
p462
I31
sS'lol'
p463
I9
sS'dogs'
p464
I31
sS'williams'
p465
I31
sS'2-0'
p466
I30
sS'stomach'
p467
I31
sS'relationship'
p468
I31
sS'that'
p469
I10
sS'season'
p470
I30
sS'you\xe2\x80\x9d'
p471
I31
sS'exactly'
p472
I31
sS'park'
p473
I31
sS'mama'
p474
I31
sS'least'
p475
I31
sS'because'
p476
I30
sS'sm,90011\n500437510778941441,dorarosass,2014-08-16'
p477
I31
sS'commentators'
p478
I31
sS'$1'
p479
I31
sS'10'
p480
I28
sS'kind'
p481
I31
sS'b'
p482
I29
sS'lmao'
p483
I29
sS'psh'
p484
I31
sS'burger'
p485
I30
sS'fucktards'
p486
I31
sS'double'
p487
I31
sS'gotta'
p488
I31
sS'tree'
p489
I31
sS'richer'
p490
I31
sS'bed'
p491
I31
sS'jinx'
p492
I31
sS'cost'
p493
I31
sS'me,90011\n503233704094072833,marciee19,2014-08-23'
p494
I31
sS'supposed'
p495
I31
sS'maybe'
p496
I31
sS'21:56:31.0,34.00061382,-118.25248295,2287.10,need'
p497
I31
sS'snitches'
p498
I31
sS'compton?\xe2\x80\x9d'
p499
I31
sS'bet'
p500
I31
sS'and'
p501
I14
sS'mini'
p502
I31
sS'donkey'
p503
I31
sS'angel'
p504
I31
sS',90011\n509432919085969408,dorarosass,2014-09-09'
p505
I31
sS'slap'
p506
I31
sS'sad'
p507
I28
sS'novak'
p508
I31
sS'talking'
p509
I29
sS'growin'
p510
I31
sS'live'
p511
I31
sS'have'
p512
I25
sS'need'
p513
I30
sS'...u'
p514
I31
sS'breakfast'
p515
I31
sS'gooooooooooool'
p516
I31
sS'any'
p517
I29
sS'diiiirty'
p518
I31
sS'sell'
p519
I31
sS'screw'
p520
I31
sS'shhhhhhhhh'
p521
I31
sS"let's"
p522
I31
sS'mio'
p523
I31
sS'min'
p524
I28
sS'lil'
p525
I30
sS'00:26:11.0,33.99603383,-118.25595641,2287.10,can'
p526
I31
sS'self'
p527
I31
sS'gooooooooooooolaso'
p528
I31
sS'trash'
p529
I31
sS'sinatra'
p530
I30
sS'squad'
p531
I31
sS'take'
p532
I28
sS'mia'
p533
I31
sS'17:38:54.0,34.00174994,-118.25435987,2287.10,breakfast'
p534
I31
sS'destroy'
p535
I31
sS'suks'
p536
I31
sS'im.about'
p537
I31
sS'blunt'
p538
I31
sS'pringles'
p539
I31
sS'01:41:26.0,33.99761064,-118.25239856,2287.10,make'
p540
I31
sS"girl's"
p541
I31
sS'so*'
p542
I31
sS'track'
p543
I31
sS'who'
p544
I26
sS'marcelooooo'
p545
I31
sS'williams...,90011\n457695506479599616,thatchickeunice,2014-04-20'
p546
I31
sS'regular'
p547
I31
sS'germany'
p548
I30
sS'signtothestreets2\xe2\x80\x9d'
p549
I31
sS'plenty'
p550
I31
sS'freshman'
p551
I31
sS'much?\xe2\x80\x9d'
p552
I31
sS'friend'
p553
I31
sS'why'
p554
I29
sS'maria'
p555
I31
sS'cellphone'
p556
I31
sS'cuerpo'
p557
I31
sS'especially'
p558
I31
sS'won'
p559
I30
sS'cover'
p560
I31
sS'sale'
p561
I31
sS'face'
p562
I28
sS'pipe'
p563
I31
sS'1000000000000xxx'
p564
I31
sS'had'
p565
I31
sS'cebollas'
p566
I31
sS'thot'
p567
I31
sS'then'
p568
I31
sS'came'
p569
I31
sS'foootttbbaaaalllllll'
p570
I31
sS'shop'
p571
I31
sS'wheeeeerw'
p572
I31
sS'ugh'
p573
I30
sS'bomb'
p574
I31
sS'lyrics'
p575
I31
sS"one'"
p576
I31
sS'lay'
p577
I31
sS'nominated'
p578
I31
sS'pops'
p579
I31
sS'forsure'
p580
I31
sS'stfu'
p581
I30
sS'manchester'
p582
I31
sS'welp'
p583
I31
sS'ootd'
p584
I31
sS'king'
p585
I29
sS'corner'
p586
I31
sS'chicken'
p587
I30
sS'determined'
p588
I31
sS'fine'
p589
I31
sS'find'
p590
I31
sS'slow'
p591
I31
sS'sleeps'
p592
I31
sS'comfort'
p593
I31
sS'nervous'
p594
I31
sS'dick'
p595
I30
sS',90011\n492722665468076032,letsrollittruck,2014-07-25'
p596
I31
sS'hrs'
p597
I31
sS'should'
p598
I30
sS'yea'
p599
I31
sS'only'
p600
I30
sS'going'
p601
I27
sS'black'
p602
I31
sS'lemme'
p603
I29
sS'pretty'
p604
I30
sS'offsides'
p605
I31
sS'riding'
p606
I30
sS'waay'
p607
I31
sS'22:59:05.0,34.00078678,-118.25249798,2287.10,supposedly'
p608
I31
sS'hoeing'
p609
I31
sS'giants'
p610
I31
sS'do'
p611
I24
sS'his'
p612
I26
sS'hit'
p613
I28
sS'stay'
p614
I31
sS'get'
p615
I17
sS'uhhh'
p616
I31
sS'stop'
p617
I31
sS'goalie'
p618
I31
sS'ahahaha'
p619
I30
sS'pocket'
p620
I31
sS'14:53:28.0,34.0006511,-118.25242811,2287.10,shower'
p621
I31
sS'bompton'
p622
I31
sS'this"'
p623
I31
sS'chase\xe2\x80\x9d'
p624
I31
sS'tierra'
p625
I31
sS'nigguh'
p626
I30
sS'ashanti'
p627
I31
sS'him'
p628
I28
sS'celebrate'
p629
I31
sS'unfortunately'
p630
I31
sS'llenando'
p631
I31
sS',90011\n500432982323109889,dorarosass,2014-08-16'
p632
I31
sS'artist'
p633
I31
sS'18:38:24.0,34.00067572,-118.25233937,2287.10,the'
p634
I31
sS'16'
p635
I31
sS'rapper'
p636
I31
sS'downlow'
p637
I31
sS'morning'
p638
I29
sS'bag'
p639
I31
sS'bad'
p640
I28
sS'stupid'
p641
I27
sS'she'
p642
I27
sS'ag\xc3\xbcero'
p643
I31
sS'goooolaso'
p644
I31
sS'grab'
p645
I31
sS'where'
p646
I28
sS"yg's"
p647
I31
sS'knowing'
p648
I31
sS'alsina'
p649
I29
sS'set'
p650
I30
sS'w/'
p651
I23
sS'graduate'
p652
I31
sS'liquor'
p653
I31
sS'watersheds'
p654
I31
sS'lazy'
p655
I31
sS'nun'
p656
I31
sS'see'
p657
I25
sS'are'
p658
I23
sS'close'
p659
I30
sS'ruined'
p660
I31
sS'jerseys'
p661
I31
sS'paul'
p662
I31
sS'best'
p663
I28
sS'wonder'
p664
I31
sS'brazil'
p665
I29
sS'said'
p666
I26
sS'luv'
p667
I31
sS'wow'
p668
I31
sS"21:30:04.0,34.00053706,-118.2524723,2287.10,didn't"
p669
I31
sS"wasn't"
p670
I31
sS'3'
p671
I29
sS"there's"
p672
I30
sS'horrible'
p673
I31
sS'before'
p674
I31
sS'perfectly'
p675
I31
sS'steelers'
p676
I31
sS'pain:('
p677
I31
sS'perfect'
p678
I31
sS'we'
p679
I25
sS'never'
p680
I31
sS'omg'
p681
I31
sS'august'
p682
I28
sS',90011\n500433677940035584,dorarosass,2014-08-16'
p683
I31
sS'opening'
p684
I31
sS'are,90011\n521863997264760832,dat_niggacarlos,2014-10-14'
p685
I31
sS'were'
p686
I31
sS'weak'
p687
I31
sS'muthafucka'
p688
I31
sS',90011\n498968802332114946,dorarosass,2014-08-11'
p689
I31
sS'job'
p690
I31
sS'(los'
p691
I31
sS'wtf'
p692
I29
sS'hurts'
p693
I31
sS'come'
p694
I28
sS'pissed'
p695
I31
sS'david'
p696
I31
sS'luiz'
p697
I31
sS',90011\n499691391513923584,dorarosass,2014-08-13'
p698
I31
sS'store'
p699
I31
sS'last'
p700
I30
sS'reverse'
p701
I31
sS'\xe2\x9d\xa4\xef\xb8\x8f'
p702
I31
sS'many'
p703
I31
sS'taking'
p704
I31
sS"he's"
p705
I31
sS'such'
p706
I31
sS'sweat'
p707
I31
sS'\xe2\x80\x9clie'
p708
I31
sS'faces'
p709
I31
sS'prove'
p710
I31
sS'whole'
p711
I31
sS"can't"
p712
I28
sS'con'
p713
I31
sS'6'
p714
I31
sS'liked'
p715
I31
sS'lol\xe2\x80\x9dtoo*'
p716
I31
sS'point'
p717
I31
sS'legs'
p718
I31
sS'tuesday'
p719
I31
sS'gooool'
p720
I31
sS'pop'
p721
I30
sS'walk'
p722
I31
sS'makes'
p723
I31
sS'header'
p724
I31
sS'oxnard'
p725
I31
sS'"can\'t'
p726
I31
sS'am,90011\n498967972258406401,dorarosass,2014-08-11'
p727
I31
sS"couldn't"
p728
I31
sS'church'
p729
I31
sS'14:29:39.0,33.9998999,-118.2562542,2287.10,my'
p730
I31
sS'durk'
p731
I31
sS'tururuuu'
p732
I31
sS'along'
p733
I31
sS',90011\n499188547648122880,dorarosass,2014-08-12'
p734
I31
sS'00:51:54.0,34.0,-118.25282627,2287.10,true'
p735
I31
sS'nope'
p736
I31
sS':/\xe2\x80\x9d'
p737
I31
sS'110n'
p738
I31
sS"it's"
p739
I29
sS'basios,90011\n499677957615411201,dorarosass,2014-08-13'
p740
I31
sS'been'
p741
I29
sS'):\xe2\x80\x9d'
p742
I31
sS'much'
p743
I29
sS'myyy'
p744
I31
sS'stadium'
p745
I31
sS'blowed'
p746
I31
sS'staring'
p747
I31
sS'pm'
p748
I31
sS'life'
p749
I29
sS'que"'
p750
I31
sS'both'
p751
I31
sS'knowledge'
p752
I31
sS'disssss'
p753
I31
sS'hits'
p754
I31
sS'else'
p755
I31
sS"doesn't"
p756
I31
sS'whatever'
p757
I31
sS'lives'
p758
I30
sS'chile'
p759
I31
sS'an'
p760
I31
sS'censored'
p761
I31
sS'those'
p762
I30
sS'enamoro'
p763
I31
sS'<3333333,90011\n474786111806799872,yulissaax_,2014-06-06'
p764
I31
sS'cravings'
p765
I31
sS"00:36:01.0,33.9981225,-118.2536254,2287.10,can't"
p766
I31
sS'look'
p767
I30
sS'these'
p768
I28
sS'00:52:50.0,34.0,-118.25282627,2287.10,lol'
p769
I31
sS'straight'
p770
I31
sS'nd'
p771
I31
sS'ahah'
p772
I31
sS'single'
p773
I31
sS'will'
p774
I31
sS'w'
p775
I31
sS'while'
p776
I30
sS'fooo,90011\n500042248382193664,dorarosass,2014-08-14'
p777
I31
sS'fun'
p778
I31
sS'situation'
p779
I31
sS'di'
p780
I31
sS'mixtape'
p781
I31
sS'robin'
p782
I31
sS'chilling'
p783
I31
sS'pack'
p784
I31
sS'vc'
p785
I31
sS'chat'
p786
I31
sS'mexico'
p787
I29
sS'is'
p788
I9
sS'purse'
p789
I31
sS'it'
p790
I12
sS'rip'
p791
I31
sS'wife'
p792
I31
sS'vs'
p793
I30
sS'im'
p794
I14
sS'in'
p795
I10
sS'ready'
p796
I29
sS'uggs'
p797
I31
sS'shift'
p798
I31
sS'ohhhh'
p799
I31
sS'if'
p800
I22
sS'funny'
p801
I25
sS'different'
p802
I30
sS'annoying'
p803
I31
sS'!,90011\n499678875387830272,dorarosass,2014-08-13'
p804
I31
sS'fkn'
p805
I30
sS'james'
p806
I31
sS'make'
p807
I29
sS'same'
p808
I29
sS'clearly'
p809
I31
sS'gooo'
p810
I30
sS'followers'
p811
I31
sS'big'
p812
I31
sS'party'
p813
I30
sS'gets'
p814
I30
sS'eww'
p815
I31
sS'05:33:24.0,33.9997448,-118.2528299,2287.10,,90011\n427598190154502145,kimisinger,2014-01-27'
p816
I31
sS'week'
p817
I31
sS'ball'
p818
I30
sS'21:53:30.0,34.00052543,-118.25244649,2287.10,&'
p819
I31
sS'smoke'
p820
I31
sS'19:12:46.0,34.00049995,-118.25256995,2287.10,tragus'
p821
I31
sS'lie'
p822
I31
sS'1-0'
p823
I30
sS'gorgeous'
p824
I31
sS'fucken'
p825
I31
sS'swear*'
p826
I31
sS'sisters'
p827
I31
sS'l.a'
p828
I27
sS'navas'
p829
I31
sS'weave'
p830
I31
sS'\xe2\x9c\x8c\xef\xb8\x8f'
p831
I29
sS'neuer'
p832
I30
sS'bidness'
p833
I31
sS'off'
p834
I30
sS'00:04:42.0,34.00044404,-118.25241859,2287.10,i'
p835
I31
sS'i'
p836
I2
sS'try'
p837
I31
sS'yup\xe2\x80\x9d'
p838
I31
sS'well'
p839
I26
sS'anybody'
p840
I31
sS'lucky'
p841
I31
sS'ocean'
p842
I31
sS'tho'
p843
I28
sS'person'
p844
I29
sS'sorry,90011\n465655805732462593,5exasaweapon,2014-05-12'
p845
I31
sS'comes'
p846
I31
sS'goals'
p847
I31
sS'english'
p848
I31
sS'y'
p849
I26
sS'the'
p850
I3
sS'only,90011\n503233944297689089,marciee19,2014-08-23'
p851
I31
sS'left'
p852
I30
sS'i\xe2\x80\x99m'
p853
I31
sS'20:07:27.0,34.00039364,-118.2523737,2287.10,sushi'
p854
I31
sS'bette'
p855
I31
sS'kiss'
p856
I31
sS'just'
p857
I24
sS'being'
p858
I30
sS'money'
p859
I27
sS"should've"
p860
I30
sS'heck,90011\n427597416712269824,kimisinger,2014-01-27'
p861
I31
sS'front'
p862
I31
sS'money!!!!\xe2\x80\x9d'
p863
I31
sS'kill'
p864
I31
sS'thanks'
p865
I31
sS'asf,90011\n499681255663747073,dorarosass,2014-08-13'
p866
I31
sS'touch'
p867
I31
sS'yep'
p868
I31
sS'yes'
p869
I30
sS',90011\n498967544376483840,dorarosass,2014-08-11'
p870
I31
sS'prince'
p871
I31
sS'blow'
p872
I31
sS'eli'
p873
I30
sS"g's"
p874
I31
sS'cup'
p875
I30
sS'thinking'
p876
I31
sS'drive'
p877
I31
sS'josh'
p878
I31
sS'cuz'
p879
I27
sS'wet'
p880
I31
sS'it\xe2\x80\x99s'
p881
I30
sS"everyone's"
p882
I31
sS'lets'
p883
I26
sS'ahhhh'
p884
I31
sS'4'
p885
I31
sS'crying'
p886
I30
sS'homies'
p887
I30
sS'snap'
p888
I31
sS'has'
p889
I31
sS'throne'
p890
I31
sS'hates'
p891
I31
sS'22:04:43.0,34.00050412,-118.25263015,2287.10,bailando,90011\n499675350079524864,dorarosass,2014-08-13'
p892
I31
sS'real'
p893
I26
sS'shove'
p894
I31
sS'starving'
p895
I31
sS'pennaaaaalty'
p896
I31
sS'around'
p897
I30
sS'myth'
p898
I31
sS'knock'
p899
I31
sS'mor'
p900
I31
sS'gonna'
p901
I28
sS'early'
p902
I29
sS'jersey'
p903
I31
sS'game'
p904
I28
sS'know'
p905
I27
sS'mom'
p906
I30
sS'moi'
p907
I31
sS'world'
p908
I31
sS'nvm'
p909
I31
sS'neymaar'
p910
I31
sS',90011\n498951119800762369,dorarosass,2014-08-11'
p911
I31
sS'bro'
p912
I31
sS'panties'
p913
I31
sS'like'
p914
I17
sS'lost'
p915
I31
sS'00:22:23.0,33.99643756,-118.25456677,2287.10,if'
p916
I31
sS'honestly'
p917
I31
sS',90011\n500042491244998658,dorarosass,2014-08-14'
p918
I31
sS'loses'
p919
I30
sS'serious'
p920
I31
sS'night'
p921
I26
sS'bunch'
p922
I31
sS"smd!'"
p923
I31
sS'fault'
p924
I31
sS'soft'
p925
I30
sS',90011\n500041199311257600,dorarosass,2014-08-14'
p926
I31
sS'meeeee'
p927
I31
sS'nigga'
p928
I11
sS',90011\n499675135641534466,dorarosass,2014-08-13'
p929
I31
sS'dancing'
p930
I31
sS'people'
p931
I29
sS'fucking'
p932
I24
sS'madrid'
p933
I31
sS'twitter'
p934
I28
sS'some'
p935
I28
sS'back'
p936
I25
sS'idgaf'
p937
I31
sS'standing'
p938
I31
sS'hair'
p939
I30
sS'whaaaaat'
p940
I31
sS'sure'
p941
I31
sS'lmaoyesterday'
p942
I31
sS'home'
p943
I30
sS'15:41:54.0,34.00046756,-118.25244893,2287.10,i'
p944
I31
sS'gooolaso'
p945
I31
sS'yesss'
p946
I30
sS'payed'
p947
I31
sS'trust'
p948
I31
sS'for'
p949
I11
sS'muthafuken'
p950
I31
sS'ballerina'
p951
I31
sS'daddy'
p952
I31
sS'microwave'
p953
I31
sS'does'
p954
I30
sS'exit'
p955
I31
sS',90011\n497769678945517568,dorarosass,2014-08-08'
p956
I31
sS'19:06:42.0,34.00058703,-118.25243063,2287.10,got'
p957
I31
sS'foo'
p958
I31
sS'yg'
p959
I31
sS'goooool'
p960
I30
sS'noise'
p961
I31
sS'run'
p962
I28
sS'cry'
p963
I31
sS'20:10:27.0,33.9971691,-118.2526453,2287.10,who'
p964
I31
sS'lmfao'
p965
I29
sS'lose'
p966
I30
sS'how'
p967
I29
sS'03:24:07.0,33.9972552,-118.25644038,2287.10,daamn'
p968
I31
sS'22:58:09.0,34.00078678,-118.25249798,2287.10,hot'
p969
I31
sS'losing'
p970
I30
sS'eye'
p971
I31
sS'post'
p972
I31
sS'r'
p973
I31
sS'in\xe2\x80\x9d6,90011\n'
p974
I31
sS'throw'
p975
I30
sS'stage'
p976
I31
sS'hearing'
p977
I31
sS'on'
p978
I8
sS'about'
p979
I25
sS'ol'
p980
I30
sS'central'
p981
I28
sS'usa'
p982
I31
sS'anything'
p983
I31
sS'oh'
p984
I30
sS'of'
p985
I18
sS'&'
p986
I12
sS'favorite'
p987
I29
sS'angeles'
p988
I31
sS'03:08:31.0,34.000598,-118.25232169,2287.10,i'
p989
I31
sS'biotch'
p990
I31
sS'swear'
p991
I27
sS'idk'
p992
I30
sS'west'
p993
I31
sS'ow'
p994
I31
sS'\xe2\x9a\xa1\xef\xb8\x8f\xe2\x9a\xa1\xef\xb8\x8f\xe2\x9a\xa1\xef\xb8\x8f'
p995
I31
sS'wanna'
p996
I28
sS'or'
p997
I25
sS'block'
p998
I27
sS'"ya'
p999
I31
sS'seeing'
p1000
I31
sS'whats'
p1001
I31
sS'it,90011\n491678803962261504,lovelykaii,2014-07-22'
p1002
I31
sS'owe'
p1003
I31
sS"00:04:55.0,34.00035362,-118.25240124,2287.10,she's"
p1004
I31
sS'snitch'
p1005
I31
sS',90011\n499674940052750336,dorarosass,2014-08-13'
p1006
I31
sS'chula'
p1007
I31
sS'getting'
p1008
I30
sS'down'
p1009
I30
sS'chris'
p1010
I31
sS'right'
p1011
I26
sS'show'
p1012
I31
sS'fuuuummmbbbllleeeeee'
p1013
I31
sS'tickets,90011\n491678478253580288,lovelykaii,2014-07-22'
p1014
I31
sS'actually'
p1015
I31
sS"c's"
p1016
I31
sS'your'
p1017
I28
sS'smells'
p1018
I31
sS',90011\n502957555245518849,dorarosass,2014-08-22'
p1019
I31
sS'omfg'
p1020
I30
sS'rely'
p1021
I31
sS'fast'
p1022
I30
sS'van'
p1023
I30
sS'ahahah'
p1024
I31
sS'her'
p1025
I25
sS'fans,90011\n491676670475001856,lovelykaii,2014-07-22'
p1026
I31
sS'there'
p1027
I27
sS'question'
p1028
I31
sS'hey'
p1029
I31
sS'long'
p1030
I29
sS'class'
p1031
I31
sS'start'
p1032
I30
sS'ag'
p1033
I31
sS'dropping'
p1034
I31
sS"we're"
p1035
I30
sS'way'
p1036
I29
sS'bruh'
p1037
I30
sS"buffalo's"
p1038
I31
sS'wat'
p1039
I31
sS'was'
p1040
I19
sS'scared'
p1041
I31
sS'happy'
p1042
I29
sS'memory'
p1043
I31
sS'ago'
p1044
I31
sS'buy'
p1045
I31
sS'north'
p1046
I31
sS'complete'
p1047
I31
sS'enough'
p1048
I31
sS'naah'
p1049
I31
sS'hp'
p1050
I31
sS'bitches'
p1051
I27
sS'lane'
p1052
I31
sS'but'
p1053
I21
sS'failure'
p1054
I31
sS'yesssss'
p1055
I31
sS'hear'
p1056
I31
sS'ughhh'
p1057
I31
sS'wnt'
p1058
I31
sS'elimination'
p1059
I31
sS'didnt'
p1060
I31
sS'be'
p1061
I18
sS'haaa'
p1062
I31
sS'with'
p1063
I19
sS'bug'
p1064
I31
sS'he'
p1065
I15
sS'made'
p1066
I30
sS'21:54:21.0,34.00046721,-118.25245809,2287.10,aw'
p1067
I31
sS',90011\n500040537005490177,dorarosass,2014-08-14'
p1068
I31
sS'inside'
p1069
I31
sS'out,90011\n499563435252674561,babesss99,2014-08-13'
p1070
I31
sS'fries'
p1071
I31
sS'up'
p1072
I17
sS'ur'
p1073
I29
sS'dirty'
p1074
I31
sS'acting'
p1075
I31
sS'manuel'
p1076
I31
sS'piru'
p1077
I31
sS'loving'
p1078
I30
sS'myy'
p1079
I31
sS'cmon'
p1080
I30
sS'ohh'
p1081
I30
sS'lately'
p1082
I31
sS'johnny'
p1083
I31
sS'alameda'
p1084
I31
sS'flow'
p1085
I31
sS'robben'
p1086
I31
sS'general'
p1087
I30
sS'as'
p1088
I27
sS'at'
p1089
I25
sS'fumbling'
p1090
I31
sS'huntelaar'
p1091
I31
sS'watched'
p1092
I31
sS'himself'
p1093
I31
sS'moves'
p1094
I30
sS'sister,90011\n447161082608496640,hannahmariej1,2014-03-22'
p1095
I31
sS'check'
p1096
I31
sS'shit'
p1097
I22
sS'balcony'
p1098
I31
sS'again'
p1099
I29
sS'vista'
p1100
I31
sS'22:08:22.0,34.00053712,-118.25254989,2287.10,y'
p1101
I31
sS',90011\n498901263417761792,dorarosass,2014-08-11'
p1102
I31
sS'no'
p1103
I21
sS'idiot'
p1104
I30
sS'na'
p1105
I30
sS'nah'
p1106
I31
sS'14:01:25.0,34.0036467,-118.2555761,2287.10,my'
p1107
I31
sS'when'
p1108
I13
sS"22:05:28.0,34.00066038,-118.25245801,2287.10,didn't"
p1109
I31
sS'21:52:43.0,34.00059033,-118.25243679,2287.10,why'
p1110
I31
sS'rally'
p1111
I31
sS'23:16:40.0,34.00055459,-118.25234638,2287.10,,90011\n501203964218441729,dorarosass,2014-08-18'
p1112
I31
sS'tin'
p1113
I27
sS'other'
p1114
I31
sS'5'
p1115
I30
sS'tuff'
p1116
I31
sS',90011\n497822747997638656,dorarosass,2014-08-08'
p1117
I31
sS'you'
p1118
I6
sS'really'
p1119
I22
sS'roll'
p1120
I31
sS'dresses'
p1121
I31
sS'scored'
p1122
I31
sS'trip'
p1123
I31
sS'repeat'
p1124
I30
sS'goooooool'
p1125
I31
sS'monday'
p1126
I31
sS'pau'
p1127
I31
sS'football'
p1128
I30
sS'problems'
p1129
I29
sS'illinois'
p1130
I31
sS',90011\n505470995054870528,babesss99,2014-08-29'
p1131
I31
sS'bianca'
p1132
I31
sS'willian'
p1133
I31
sS'kinda'
p1134
I30
sS'boreddd'
p1135
I31
sS'rolling'
p1136
I31
sS'grupo'
p1137
I31
sS'hurt'
p1138
I31
sS'finals'
p1139
I31
sS"'i"
p1140
I31
sS'ghost'
p1141
I30
sS',90011\n498966631591071744,dorarosass,2014-08-11'
p1142
I31
sS'cheated'
p1143
I31
sS'fuuck'
p1144
I31
sS'rich'
p1145
I31
sS'together'
p1146
I31
sS'ahahahahah'
p1147
I31
sS'open'
p1148
I31
sS'u'
p1149
I8
sS'lying'
p1150
I31
sS'time'
p1151
I25
sS'11:30-2:30,90011\n449634920608968704,letsrollittruck,2014-03-28'
p1152
I31
sS'songs'
p1153
I31
sS'stacks'
p1154
I31
sS'daygo'
p1155
I31
sS'hope'
p1156
I31
s.