(dp0
S''
p1
I1
sS'essay'
p2
I27
sS'all'
p3
I25
sS':('
p4
I27
sS':)'
p5
I27
sS'dance'
p6
I22
sS'\xe2\x99\xa5\xe2\x99\xa1'
p7
I27
sS'sleep'
p8
I24
sS'go'
p9
I21
sS'hate'
p10
I26
sS'otro'
p11
I27
sS"''john"
p12
I27
sS'graves'
p13
I27
sS'imma'
p14
I27
sS'tweet'
p15
I27
sS'flash'
p16
I27
sS'young'
p17
I27
sS'to'
p18
I4
sS'tl'
p19
I26
sS"sucks''"
p20
I27
sS'dressing'
p21
I27
sS'existir'
p22
I27
sS'tb'
p23
I27
sS'by.,90011\n504499995190374401,melissaa_ka,2014-08-27'
p24
I27
sS'advantage'
p25
I27
sS'center)'
p26
I27
sS'far'
p27
I27
sS'playing*'
p28
I27
sS'05:06:22.0,33.9913462,-118.24327789,2289,roll'
p29
I27
sS'facebook'
p30
I27
sS'llama'
p31
I26
sS'fam'
p32
I26
sS'minute'
p33
I27
sS"hardy's"
p34
I27
sS'pueblo'
p35
I26
sS'school'
p36
I24
sS'did'
p37
I27
sS'die'
p38
I27
sS'celebrity'
p39
I27
sS'brother'
p40
I25
sS'try'
p41
I26
sS'spiderman'
p42
I27
sS'dia.,90011\n496652185464102913,r__y__c__h__,2014-08-05'
p43
I27
sS'guy'
p44
I25
sS'leonardo'
p45
I26
sS'straight'
p46
I27
sS'ashely'
p47
I23
sS"i'll"
p48
I26
sS'work'
p49
I22
sS'neighborhood'
p50
I27
sS'18:44:21.0,33.99019307,-118.24712604,2289,talking'
p51
I27
sS'tired'
p52
I27
sS'bravo'
p53
I27
sS'streets'
p54
I27
sS'second'
p55
I27
sS'ill'
p56
I27
sS'blue'
p57
I26
sS'will'
p58
I19
sS'what'
p59
I26
sS'christ'
p60
I27
sS'tipo'
p61
I27
sS'd-generation'
p62
I27
sS'giving'
p63
I26
sS'roches'
p64
I27
sS'fuckk'
p65
I27
sS'guzmans'
p66
I27
sS'reply'
p67
I26
sS'learned'
p68
I27
sS'ever'
p69
I27
sS'bird'
p70
I27
sS'body'
p71
I26
sS',90058\n512052899996631040,melissaa_ka,2014-09-17'
p72
I27
sS'never'
p73
I24
sS'here'
p74
I24
sS'leo'
p75
I22
sS'\xe2\x9d\xa4\xef\xb8\x8f'
p76
I27
sS'mewe'
p77
I27
sS'let'
p78
I26
sS'active'
p79
I27
sS'sexy'
p80
I27
sS'wait'
p81
I27
sS'every'
p82
I27
sS'great'
p83
I24
sS'kids'
p84
I26
sS'teeth'
p85
I27
sS'hbk'
p86
I20
sS'maguire'
p87
I27
sS'talmbout'
p88
I27
sS'changed'
p89
I27
sS'piercing'
p90
I27
sS'creepy'
p91
I27
sS'finger*'
p92
I27
sS'smoke'
p93
I27
sS'stressed'
p94
I27
sS"i'm"
p95
I9
sS'makes'
p96
I27
sS'love'
p97
I19
sS'bloody'
p98
I27
sS'brought'
p99
I27
sS'hardy'
p100
I25
sS'fake'
p101
I27
sS'singing'
p102
I26
sS'everybody'
p103
I27
sS'iglesias'
p104
I27
sS'eye'
p105
I27
sS'would'
p106
I27
sS'&'
p107
I14
sS'dude'
p108
I27
sS'finally'
p109
I27
sS'next'
p110
I27
sS'.\xe2\x80\x9d'
p111
I27
sS'live'
p112
I27
sS'randy'
p113
I27
sS'call'
p114
I27
sS'chinchilla'
p115
I27
sS'6'
p116
I27
sS'pocahont'
p117
I27
sS'thru'
p118
I27
sS'type'
p119
I27
sS'today'
p120
I22
sS'more'
p121
I22
sS'barbaro...,90011\n101098464498290688,kat_91,2011-08-10'
p122
I27
sS'tryna'
p123
I27
sS'door'
p124
I27
sS'knows'
p125
I27
sS'beholder'
p126
I27
sS'haha'
p127
I27
sS'chocolate'
p128
I27
sS'phone'
p129
I27
sS'train'
p130
I27
sS"ain't"
p131
I24
sS'ashamed'
p132
I27
sS'baby'
p133
I27
sS'hold'
p134
I27
sS'must'
p135
I27
sS'me'
p136
I8
sS'dwarf'
p137
I27
sS'mf'
p138
I27
sS'join'
p139
I27
sS'room'
p140
I27
sS'hour'
p141
I24
sS'rio'
p142
I26
sS'this'
p143
I16
sS'getting'
p144
I23
sS'soul'
p145
I27
sS'cat'
p146
I27
sS'del'
p147
I26
sS'can'
p148
I22
sS'01:37:32.0,33.9941568,-118.247699,2289,i'
p149
I27
sS'learn'
p150
I27
sS'my'
p151
I5
sS'streak'
p152
I27
sS'heart'
p153
I27
sS'crazy'
p154
I27
sS'18:03:52.0,33.9919732,-118.2434105,2289,deberia'
p155
I27
sS'halloween'
p156
I26
sS'fuck'
p157
I23
sS'high'
p158
I27
sS'something'
p159
I27
sS'want'
p160
I21
sS'enrique'
p161
I27
sS'hhh'
p162
I22
sS'pink'
p163
I27
sS'end'
p164
I27
sS'sit'
p165
I26
sS'rather'
p166
I27
sS'get'
p167
I24
sS'how'
p168
I20
sS'instead'
p169
I27
sS'beach'
p170
I26
sS'pizza'
p171
I27
sS'hof'
p172
I27
sS'okay'
p173
I27
sS'charms'
p174
I27
sS'tattoo'
p175
I27
sS'bday'
p176
I27
sS'watch'
p177
I26
sS'nakshawani'
p178
I27
sS'oleta'
p179
I27
sS'coming'
p180
I27
sS'fits'
p181
I27
sS'such'
p182
I27
sS'suck'
p183
I27
sS'guys'
p184
I24
sS'parallel'
p185
I27
sS'man'
p186
I23
sS'a'
p187
I6
sS'stress'
p188
I26
sS'remember'
p189
I27
sS'robot'
p190
I27
sS'volleyball'
p191
I27
sS'or'
p192
I23
sS'so'
p193
I11
sS'sm'
p194
I27
sS'keeps'
p195
I27
sS'fan'
p196
I27
sS'dream'
p197
I27
sS"that's"
p198
I24
sS'chicks'
p199
I26
sS'six'
p200
I27
sS'shoes'
p201
I27
sS"don't"
p202
I17
sS'over'
p203
I24
sS'ramadan'
p204
I27
sS'years'
p205
I27
sS',90011\n495337764137598976,_giaannixoxo,2014-08-01'
p206
I27
sS"won't"
p207
I26
sS'looks'
p208
I27
sS'shake'
p209
I26
sS'smiling'
p210
I27
sS'its'
p211
I26
sS'before'
p212
I25
sS'style'
p213
I27
sS'ull'
p214
I27
sS"he's"
p215
I27
sS'writing'
p216
I27
sS'better'
p217
I23
sS'world&'
p218
I27
sS'2015'
p219
I27
sS'followers'
p220
I27
sS'weeks'
p221
I27
sS'holiday'
p222
I27
sS'might'
p223
I27
sS"haven't"
p224
I27
sS'hurting'
p225
I27
sS'someone'
p226
I25
sS'somebody'
p227
I27
sS'calm'
p228
I27
sS'moms'
p229
I27
sS'cowboy'
p230
I27
sS'break'
p231
I27
sS'lunch'
p232
I27
sS'they'
p233
I25
sS'mgmt'
p234
I27
sS'not'
p235
I17
sS'now'
p236
I23
sS'day'
p237
I27
sS'nor'
p238
I26
sS'cemeteryu'
p239
I27
sS'always'
p240
I24
sS'suprise'
p241
I27
sS'refresh'
p242
I27
sS'arlene'
p243
I27
sS'good'
p244
I27
sS'practice,90011\n346666754812022785,tafarai,2013-06-17'
p245
I27
sS"isn't"
p246
I27
sS'mean'
p247
I27
sS'everyone'
p248
I22
sS'financial'
p249
I27
sS'gunna'
p250
I27
sS'house'
p251
I23
sS'hard'
p252
I27
sS'idea'
p253
I27
sS'finish'
p254
I25
sS'forgot'
p255
I26
sS'our'
p256
I27
sS'girl'
p257
I27
sS'really'
p258
I19
sS'matt'
p259
I27
sS'gon'
p260
I27
sS'space'
p261
I27
sS'god'
p262
I27
sS'since'
p263
I24
sS'hooked'
p264
I27
sS'douglas'
p265
I26
sS'seriously'
p266
I27
sS'stupid'
p267
I27
sS'smh'
p268
I27
sS'got'
p269
I24
sS'rn'
p270
I25
sS'cause'
p271
I25
sS'ass'
p272
I23
sS"you're"
p273
I25
sS'cars'
p274
I27
sS'confused'
p275
I27
sS'reason'
p276
I27
sS'"'
p277
I27
sS'que'
p278
I26
sS'rain'
p279
I27
sS'x'
p280
I27
sS'craving'
p281
I27
sS'care'
p282
I25
sS'ate'
p283
I27
sS"daisy's"
p284
I27
sS'could'
p285
I27
sS'headphones'
p286
I27
sS'keep'
p287
I26
sS'thing'
p288
I27
sS'place'
p289
I26
sS'w'
p290
I26
sS'think'
p291
I24
sS'first'
p292
I26
sS'already'
p293
I27
sS'feel'
p294
I24
sS'fancy'
p295
I26
sS'one'
p296
I24
sS'whoop'
p297
I27
sS'wash'
p298
I27
sS'sailor'
p299
I26
sS'done'
p300
I25
sS'bitch'
p301
I26
sS'booty'
p302
I27
sS'message'
p303
I27
sS'miss'
p304
I22
sS'tomorrow'
p305
I26
sS"you'd"
p306
I27
sS"doesn't"
p307
I26
sS'guess'
p308
I26
sS'rated'
p309
I27
sS'girls'
p310
I25
sS'least'
p311
I27
sS'their'
p312
I27
sS'too'
p313
I22
sS'passed'
p314
I27
sS'show'
p315
I27
sS'white'
p316
I26
sS'lol'
p317
I10
sS'dogs'
p318
I27
sS'\xe2\x9c\x8c\xef\xb8\x8f'
p319
I27
sS'lot'
p320
I27
sS'that'
p321
I15
sS'shawn'
p322
I27
sS'nobody'
p323
I27
sS'park'
p324
I27
sS'took'
p325
I26
sS'than'
p326
I22
sS'kind'
p327
I27
sS'john'
p328
I27
sS'15'
p329
I27
sS'lmao'
p330
I14
sS'lying'
p331
I27
sS'gotta'
p332
I27
sS'project'
p333
I27
sS'r'
p334
I27
sS'loves'
p335
I26
sS'hottie'
p336
I26
sS'asleep'
p337
I27
sS'drake'
p338
I27
sS'are'
p339
I26
sS'and'
p340
I21
sS'cuttieee'
p341
I27
sS'parking'
p342
I27
sS'mind'
p343
I27
sS'sad'
p344
I27
sS'dash'
p345
I27
sS'juice'
p346
I27
sS'say'
p347
I27
sS'buy'
p348
I27
sS'have'
p349
I21
sS'need'
p350
I20
sS'seen'
p351
I26
sS'breakfast'
p352
I27
sS'st'
p353
I27
sS'saw'
p354
I26
sS'any'
p355
I27
sS'sell'
p356
I27
sS'angle'
p357
I27
sS'dallas'
p358
I27
sS'self'
p359
I27
sS'take'
p360
I25
sS'bus'
p361
I27
sS'truck'
p362
I27
sS'asshole'
p363
I27
sS'even'
p364
I26
sS'sure'
p365
I27
sS'huh'
p366
I27
sS'knew'
p367
I27
sS'nothing'
p368
I25
sS'why'
p369
I26
sS'truuee'
p370
I27
sS'forever'
p371
I25
sS'especially'
p372
I27
sS'consequences'
p373
I27
sS'clear'
p374
I27
sS'sometimes'
p375
I27
sS'hungry'
p376
I26
sS'tuitazos'
p377
I27
sS'undertakers'
p378
I27
sS'clean'
p379
I27
sS'youuu'
p380
I27
sS'fact'
p381
I27
sS"they're"
p382
I27
sS'walking'
p383
I27
sS'bomb'
p384
I27
sS'cute'
p385
I27
sS'666'
p386
I27
sS'dicaprio'
p387
I26
sS'sage'
p388
I27
sS'anyway'
p389
I27
sS'forsure'
p390
I27
sS'booze'
p391
I27
sS'em!"'
p392
I27
sS'fine'
p393
I27
sS'line'
p394
I27
sS'shield'
p395
I27
sS'aint'
p396
I27
sS'slow'
p397
I27
sS'\xe2\x9c\x8b'
p398
I26
sS'\xe2\x9c\x8a'
p399
I18
sS'true'
p400
I27
sS'less'
p401
I27
sS'quel'
p402
I27
sS'should'
p403
I25
sS'brighter'
p404
I27
sS'theme'
p405
I24
sS'going'
p406
I22
sS'professional.\xe2\x80\x9d'
p407
I27
sS'05:25:46.0,33.9944662,-118.2439881,2289,beauty'
p408
I27
sS'pretty'
p409
I25
sS'rice'
p410
I27
sS'otay'
p411
I27
sS'hope'
p412
I27
sS'do'
p413
I19
sS'his'
p414
I24
sS'hit'
p415
I27
sS'watching'
p416
I21
sS'toby'
p417
I27
sS'de'
p418
I26
sS'stop'
p419
I20
sS'lucky'
p420
I26
sS'tbh'
p421
I26
sS'feels'
p422
I27
sS"01:12:06.0,33.9935222,-118.2431482,2289,i'm"
p423
I27
sS'dx'
p424
I24
sS'new'
p425
I25
sS'during'
p426
I27
sS'"jesus'
p427
I27
sS'him'
p428
I23
sS'celebrate'
p429
I27
sS'evolution'
p430
I27
sS'ended'
p431
I27
sS'married'
p432
I27
sS'bad'
p433
I25
sS'bae'
p434
I27
sS'she'
p435
I18
sS'gerson'
p436
I27
sS',90011\n507242662793998336,flores__63,2014-09-03'
p437
I27
sS'woaahhh'
p438
I27
sS'inside'
p439
I27
sS'medicated'
p440
I27
sS'vine'
p441
I25
sS'lazy'
p442
I27
sS'see'
p443
I22
sS'dumb'
p444
I26
sS'anyways'
p445
I26
sS'erika'
p446
I26
sS'best'
p447
I25
sS'wonder'
p448
I27
sS'said'
p449
I25
sS'movie'
p450
I27
sS'wow'
p451
I26
sS'opening'
p452
I27
sS'please'
p453
I27
sS'junky'
p454
I27
sS'favor'
p455
I27
sS'outside'
p456
I27
sS'finger'
p457
I27
sS'bought'
p458
I27
sS'we'
p459
I25
sS'men'
p460
I27
sS'missing'
p461
I27
sS'timmy'
p462
I24
sS'01:38:19.0,33.9941782,-118.2477014,2289,and'
p463
I27
sS'death'
p464
I27
sS'nahhh'
p465
I27
sS'wear'
p466
I27
sS'wtf'
p467
I26
sS'outfit'
p468
I27
sS'come'
p469
I25
sS'thank'
p470
I27
sS'regret'
p471
I27
sS'superstar'
p472
I27
sS'bray'
p473
I27
sS'ramp'
p474
I27
sS'tour'
p475
I27
sS'alot'
p476
I27
sS'share'
p477
I27
sS'whole'
p478
I26
sS"can't"
p479
I22
sS'ily'
p480
I27
sS'myy'
p481
I27
sS'jeff'
p482
I27
sS'simple'
p483
I27
sS'sky'
p484
I27
sS'pos'
p485
I27
sS'community'
p486
I26
sS'walk'
p487
I26
sS'guzman'
p488
I27
sS'header'
p489
I27
sS"couldn't"
p490
I27
sS'away'
p491
I27
sS'volunteered'
p492
I27
sS'actually'
p493
I27
sS'worldstar'
p494
I27
sS'late'
p495
I27
sS'consuming'
p496
I27
sS"it's"
p497
I23
sS'karla'
p498
I27
sS'ca)'
p499
I27
sS'been'
p500
I26
sS'much'
p501
I19
sS'damn'
p502
I26
sS'*kurt'
p503
I27
sS'interest'
p504
I27
sS'cena'
p505
I26
sS'>'
p506
I27
sS'faced'
p507
I27
sS'life'
p508
I25
sS'blink-i82'
p509
I27
sS'beach)'
p510
I27
sS'relaxing'
p511
I27
sS'drugs'
p512
I27
sS"what's"
p513
I27
sS'sunshine'
p514
I27
sS'andrew'
p515
I27
sS'else'
p516
I27
sS'13:41:23.0,33.9898934,-118.2443263,2289,no'
p517
I27
sS'understand'
p518
I26
sS'catch'
p519
I27
sS'chill'
p520
I27
sS'myself'
p521
I26
sS'look'
p522
I27
sS'raw'
p523
I27
sS'hollywood'
p524
I27
sS'geeked'
p525
I27
sS'vanilla'
p526
I27
sS'thruuu'
p527
I27
sS'ughhhhhh'
p528
I27
sS'garfield'
p529
I27
sS'hopsin'
p530
I27
sS'wyatt'
p531
I27
sS'suppose'
p532
I27
sS'fun'
p533
I27
sS'kissing'
p534
I27
sS'voice'
p535
I27
sS'taking'
p536
I27
sS'picturing'
p537
I27
sS'is'
p538
I7
sS'it'
p539
I11
sS'sting'
p540
I27
sS'middle'
p541
I26
sS'vs'
p542
I27
sS'im'
p543
I27
sS'in'
p544
I12
sS'ready'
p545
I27
sS'alone'
p546
I27
sS'everyday'
p547
I27
sS'whore'
p548
I26
sS'if'
p549
I26
sS'funny'
p550
I24
sS'your*'
p551
I27
sS'anymore'
p552
I27
sS'journal'
p553
I27
sS'pay'
p554
I27
sS'make'
p555
I25
sS'ammar'
p556
I27
sS'bowl'
p557
I27
sS'same'
p558
I26
sS"flexin'"
p559
I27
sS'catfish'
p560
I27
sS'grand'
p561
I27
sS'vegetable'
p562
I27
sS'gets'
p563
I27
sS'used'
p564
I26
sS'waaayy'
p565
I27
sS'boo'
p566
I27
sS'coachella'
p567
I25
sS'evil'
p568
I27
sS'weed'
p569
I27
sS'fruit'
p570
I27
sS'two'
p571
I26
sS'suit'
p572
I27
sS'weird'
p573
I26
sS'kid'
p574
I27
sS'kella'
p575
I26
sS'off'
p576
I26
sS'center'
p577
I27
sS'think.,90011\n512052700872077312,melissaa_ka,2014-09-17'
p578
I27
sS'i'
p579
I2
sS'charlie'
p580
I27
sS'well'
p581
I26
sS'thought'
p582
I26
sS'edge'
p583
I24
sS'flags'
p584
I27
sS'entry'
p585
I27
sS'the'
p586
I3
sS'canceled'
p587
I27
sS'yours'
p588
I27
sS'left'
p589
I23
sS'things'
p590
I27
sS'taller'
p591
I27
sS'\xe2\x98\xba\xef\xb8\x8f'
p592
I27
sS'just'
p593
I14
sS'w.e'
p594
I27
sS'being'
p595
I27
sS'ratchet'
p596
I27
sS'sleepy'
p597
I24
sS'gavin'
p598
I26
sS'pissing'
p599
I27
sS'thanks'
p600
I26
sS'human'
p601
I27
sS'roasted'
p602
I27
sS'yes'
p603
I27
sS'cut'
p604
I27
sS'waste'
p605
I27
sS'workers'
p606
I27
sS'had'
p607
I23
sS'go*'
p608
I27
sS'has'
p609
I27
sS'city'
p610
I27
sS'useless'
p611
I27
sS'real'
p612
I27
sS'around'
p613
I26
sS'big'
p614
I27
sS'couple'
p615
I27
sS'gonna'
p616
I26
sS'yea'
p617
I27
sS'know'
p618
I23
sS'mom'
p619
I22
sS'lady'
p620
I27
sS'knock'
p621
I27
sS'like'
p622
I12
sS'lost'
p623
I27
sS'performing'
p624
I27
sS'candy'
p625
I27
sS'steph'
p626
I27
sS'laughing'
p627
I27
sS'night'
p628
I27
sS'nigga'
p629
I26
sS'deal'
p630
I27
sS'people'
p631
I24
sS'fucking'
p632
I27
sS'spring'
p633
I27
sS'twitter'
p634
I26
sS'cheerleader'
p635
I27
sS'some'
p636
I26
sS'back'
p637
I27
sS'dead'
p638
I27
sS'wwe'
p639
I26
sS"4'1"
p640
I27
sS'debating'
p641
I27
sS'home'
p642
I25
sS'pickles'
p643
I26
sS'thinks'
p644
I26
sS'for'
p645
I15
sS"gettin'"
p646
I27
sS'pet'
p647
I27
sS'literally'
p648
I27
sS'/'
p649
I18
sS'moon'
p650
I25
sS'everything'
p651
I27
sS'umm'
p652
I27
sS'nose'
p653
I27
sS'be'
p654
I16
sS'shaker'
p655
I27
sS'eating'
p656
I27
sS'lmfao'
p657
I27
sS'nails'
p658
I27
sS'bo'
p659
I27
sS'from'
p660
I27
sS'by'
p661
I26
sS'on'
p662
I13
sS'about'
p663
I19
sS'ok'
p664
I27
sS'working'
p665
I27
sS'anything'
p666
I27
sS'oh'
p667
I24
sS'of'
p668
I13
sS'favorite'
p669
I27
sS'(5436'
p670
I27
sS'angeles'
p671
I27
sS'swear'
p672
I26
sS'plus'
p673
I27
sS'idk'
p674
I27
sS'neighbor'
p675
I27
sS'wanna'
p676
I24
sS'cudi'
p677
I27
sS"leo's"
p678
I27
sS'seeing'
p679
I26
sS'ayye'
p680
I27
sS'visit'
p681
I27
sS'snapchat'
p682
I27
sS'yourself'
p683
I26
sS'down'
p684
I26
sS'services'
p685
I27
sS'right'
p686
I26
sS"turnin'"
p687
I27
sS'your'
p688
I19
sS'fast'
p689
I27
sS'her'
p690
I24
sS'sneaky'
p691
I27
sS'there'
p692
I25
sS"didn't"
p693
I27
sS'long'
p694
I24
sS'class'
p695
I27
sS'los'
p696
I27
sS'way'
p697
I27
sS'series'
p698
I27
sS'was'
p699
I23
sS'happy'
p700
I25
sS'head'
p701
I27
sS'only'
p702
I25
sS"i've"
p703
I27
sS'poster'
p704
I24
sS'but'
p705
I17
sS'spider'
p706
I27
sS'shyness'
p707
I27
sS'hear'
p708
I26
sS'boyz'
p709
I25
sS'mice'
p710
I27
sS'trying'
p711
I25
sS'with'
p712
I20
sS'eat'
p713
I27
sS'he'
p714
I27
sS'hair'
p715
I27
sS'made'
p716
I26
sS'wish'
p717
I25
sS'\xe2\x99\xa5'
p718
I27
sS'up'
p719
I21
sS'us'
p720
I27
sS'ur'
p721
I27
sS'18:04:49.0,33.9919732,-118.2434105,2289,3on3,90011\n498530182433484802,r__y__c__h__,2014-08-10'
p722
I27
sS'emotional'
p723
I27
sS'fried'
p724
I27
sS',90058\n480939903056740352,sincerlyy_angie,2014-06-23'
p725
I27
sS'videos'
p726
I27
sS'af'
p727
I27
sS'an'
p728
I26
sS'as'
p729
I25
sS'gemini'
p730
I27
sS'at'
p731
I18
sS'perez'
p732
I27
sS'himself'
p733
I27
sS'kissed'
p734
I27
sS'shit'
p735
I26
sS'again'
p736
I24
sS'no'
p737
I22
sS'nah'
p738
I27
sS'when'
p739
I23
sS'40'
p740
I27
sS'you'
p741
I7
sS'out'
p742
I24
sS'nice'
p743
I27
sS'poor'
p744
I27
sS'16:32:49.0,33.99019307,-118.24712604,2289,we'
p745
I27
sS"natt's"
p746
I27
sS'surprise'
p747
I27
sS'felt'
p748
I27
sS'stay'
p749
I27
sS'21:40:28.0,33.98989346,-118.24327863,2289,i'
p750
I27
sS'fell'
p751
I27
sS'gatsby'
p752
I23
sS'serious'
p753
I27
sS'song'
p754
I24
sS'sides'
p755
I27
sS'structure'
p756
I27
sS'19:04:09.0,33.98991456,-118.24114494,2289,anyone'
p757
I27
sS'babe'
p758
I27
sS'glass'
p759
I27
sS'navel'
p760
I27
sS'age'
p761
I26
sS'dog'
p762
I27
sS'together'
p763
I27
sS'hello'
p764
I27
sS'fresh'
p765
I27
sS'u'
p766
I27
sS'came'
p767
I25
sS'volumes'
p768
I27
sS'time'
p769
I20
sS'everywhere'
p770
I27
sS'having'
p771
I27
s.