(dp0
S''
p1
I4
sS'putua'
p2
I45
sS'saver'
p3
I45
sS'tratas'
p4
I45
sS'sleep'
p5
I43
sS'conjuring'
p6
I45
sS'escribo'
p7
I45
sS'escribi'
p8
I45
sS'"tonto"'
p9
I45
sS'otro'
p10
I40
sS'porno'
p11
I45
sS'tweet'
p12
I45
sS'otra'
p13
I45
sS'aun'
p14
I40
sS'under'
p15
I45
sS'trollea'
p16
I45
sS'hermano'
p17
I44
sS'sorry'
p18
I45
sS'worth'
p19
I45
sS'empezara'
p20
I45
sS'reforma'
p21
I45
sS'guatemalteco'
p22
I45
sS'confirmando'
p23
I45
sS'risa'
p24
I45
sS'algunos'
p25
I45
sS'sucede'
p26
I45
sS'(ojo'
p27
I45
sS'sweettie'
p28
I45
sS'decime'
p29
I44
sS'haber'
p30
I45
sS'tuits'
p31
I43
sS'monsanto'
p32
I45
sS'cient\xc3\xadficos'
p33
I45
sS'peeeeroooo'
p34
I45
sS'importantes'
p35
I45
sS'hora'
p36
I44
sS'chew'
p37
I45
sS'fuera'
p38
I44
sS'esos'
p39
I44
sS'tired'
p40
I45
sS'hellokittyliebers'
p41
I45
sS'we\xe2\x80\x9dthere'
p42
I45
sS'chef'
p43
I45
sS'futon'
p44
I45
sS'street'
p45
I44
sS'olvida'
p46
I45
sS'cangrejismo.,90011\n494350609072390145,r__y__c__h__,2014-07-30'
p47
I45
sS'hijos'
p48
I45
sS'blue'
p49
I45
sS'nel'
p50
I45
sS'chelas"'
p51
I45
sS'contraten'
p52
I45
sS'tipo'
p53
I45
sS'hate'
p54
I45
sS'panama'
p55
I45
sS'decepci\xc3\xb3n'
p56
I45
sS'lights'
p57
I45
sS'estuvo'
p58
I45
sS'sobre'
p59
I45
sS'ever'
p60
I43
sS'fotografos'
p61
I45
sS'culo'
p62
I45
sS'cambiar'
p63
I45
sS'mensajes'
p64
I45
sS'never'
p65
I43
sS'sacarle'
p66
I45
sS'(los'
p67
I41
sS'\xe2\x9d\xa4\xef\xb8\x8f'
p68
I45
sS'china'
p69
I45
sS"aren't"
p70
I45
sS'106'
p71
I45
sS'preocupado?,90011\n494717259143602176,r__y__c__h__,2014-07-31'
p72
I45
sS'kids'
p73
I44
sS'k'
p74
I45
sS'imma'
p75
I45
sS'smoke'
p76
I45
sS"i'm"
p77
I24
sS'colesterol'
p78
I45
sS'unio'
p79
I45
sS'yeeei-yeeeee'
p80
I45
sS'putota'
p81
I44
sS'feelings'
p82
I45
sS'hablar'
p83
I41
sS'igual'
p84
I45
sS'chavo'
p85
I45
sS'arjona'
p86
I44
sS'disculpa'
p87
I45
sS'pais...ahh'
p88
I45
sS'colegialas'
p89
I45
sS'exacta'
p90
I45
sS'manifiestan'
p91
I45
sS'cali'
p92
I44
sS'call'
p93
I43
sS'until'
p94
I45
sS'funciona'
p95
I45
sS'playboy'
p96
I45
sS'saber'
p97
I41
sS'culver'
p98
I45
sS'haha'
p99
I45
sS'hurt'
p100
I45
sS'phone'
p101
I43
sS'escenico'
p102
I45
sS'sabor'
p103
I45
sS'saben'
p104
I45
sS'orgulloso'
p105
I45
sS'hola'
p106
I44
sS'must'
p107
I45
sS'me'
p108
I9
sS'viejitos'
p109
I45
sS'arbys'
p110
I45
sS'concepto'
p111
I45
sS'mi'
p112
I27
sS'hizo'
p113
I45
sS'era'
p114
I43
sS'freno'
p115
I45
sS'my'
p116
I18
sS'momish'
p117
I45
sS'novia'
p118
I45
sS'empieza'
p119
I45
sS'concachampions'
p120
I44
sS'alcoholica"'
p121
I45
sS'empiezo'
p122
I45
sS'darwing'
p123
I45
sS'invertido'
p124
I45
sS'ambos'
p125
I45
sS'want'
p126
I45
sS'keep'
p127
I44
sS'colonia'
p128
I45
sS'inentendible'
p129
I45
sS'how'
p130
I43
sS'ebribari'
p131
I45
sS'ballenato'
p132
I45
sS'cordialmente'
p133
I45
sS'gata'
p134
I45
sS'hoy'
p135
I43
sS'alegro'
p136
I44
sS'after'
p137
I45
sS'cervezas'
p138
I45
sS'fotos'
p139
I44
sS'hannah...\xe2\x80\x9d'
p140
I45
sS'las'
p141
I34
sS'sentir'
p142
I45
sS'appreciate'
p143
I45
sS'hasta'
p144
I38
sS'owls'
p145
I45
sS'sentia'
p146
I45
sS'reggeaton'
p147
I45
sS'tuiteando'
p148
I45
sS'mamosh'
p149
I44
sS'cerrada'
p150
I45
sS'segun'
p151
I45
sS'dejen'
p152
I45
sS'anglosajona'
p153
I45
sS'ma\xc3\xb1ana'
p154
I44
sS'before'
p155
I44
sS'cerrar'
p156
I44
sS'personal'
p157
I44
sS'gente'
p158
I45
sS'vida"'
p159
I45
sS'vente'
p160
I45
sS'crei'
p161
I45
sS'creo'
p162
I41
sS'comento'
p163
I45
sS'fin'
p164
I40
sS'then'
p165
I42
sS'them'
p166
I43
sS'3asc'
p167
I45
sS'borracho'
p168
I45
sS'cuties'
p169
I45
sS'vicios'
p170
I45
sS'they'
p171
I44
sS'one'
p172
I38
sS'alex'
p173
I45
sS'\xe2\x80\x94\xc2\xbfa'
p174
I45
sS'pobre'
p175
I45
sS'05:09:49.0,33.9904798,-118.2481095,2291,que'
p176
I45
sS'went'
p177
I45
sS'encayado'
p178
I45
sS'side'
p179
I45
sS'carlos'
p180
I44
sS'mean'
p181
I44
sS'descifrar'
p182
I45
sS'liga'
p183
I43
sS'cuenta?vaya'
p184
I45
sS'congeniaron'
p185
I45
sS'verguera'
p186
I45
sS'bay-'
p187
I45
sS"we'd"
p188
I45
sS'mojarras'
p189
I45
sS'logo'
p190
I44
sS'tiraria'
p191
I45
sS'profesora'
p192
I45
sS'rt'
p193
I42
sS'gol'
p194
I43
sS'god'
p195
I45
sS'nunca'
p196
I44
sS'muero'
p197
I45
sS'mande'
p198
I45
sS'smh'
p199
I45
sS'got'
p200
I40
sS'burlan'
p201
I45
sS'pretenden'
p202
I45
sS'aprovecharlos'
p203
I45
sS'foto'
p204
I41
sS'whath3malth3ko'
p205
I45
sS'verdadero'
p206
I45
sS'aprecia'
p207
I45
sS'revenge'
p208
I45
sS'ventilando'
p209
I45
sS'genericos.,90011\n494716019592544257,r__y__c__h__,2014-07-31'
p210
I45
sS'-________-'
p211
I45
sS'lanzadas'
p212
I45
sS'recomendaciones'
p213
I45
sS'wanted'
p214
I45
sS'metallica'
p215
I45
sS"valentine's"
p216
I45
sS'messages'
p217
I45
sS'mandabas'
p218
I45
sS'disfruta'
p219
I45
sS'05:32:40.0,33.9903206,-118.2482924,2291,cuques'
p220
I45
sS'podemos'
p221
I45
sS'fuckin'
p222
I44
sS'tijuana'
p223
I45
sS'already'
p224
I43
sS'embarazada.por'
p225
I45
sS'guanabis'
p226
I44
sS'darme'
p227
I45
sS'darle'
p228
I45
sS'chingar'
p229
I45
sS'instagram'
p230
I45
sS'echaste'
p231
I45
sS'empezo'
p232
I44
sS'emigrado'
p233
I45
sS'reputota'
p234
I45
sS'top'
p235
I45
sS'historias'
p236
I45
sS'too'
p237
I43
sS'hollywood'
p238
I45
sS'queria'
p239
I45
sS'coatepeque'
p240
I45
sS'alonso'
p241
I45
sS'gym'
p242
I45
sS'is\xe2\x80\x9d'
p243
I45
sS'digo'
p244
I43
sS'diga'
p245
I42
sS'spoiler'
p246
I45
sS'verte'
p247
I45
sS'mierda'
p248
I37
sS'matter'
p249
I45
sS'haya'
p250
I45
sS'si.obvio'
p251
I45
sS'tres'
p252
I45
sS'feeling'
p253
I45
sS'equipos'
p254
I45
sS'este'
p255
I38
sS'esta'
p256
I38
sS'madrid'
p257
I45
sS'esto'
p258
I43
sS'"hola'
p259
I45
sS'guapo'
p260
I44
sS'muchisimo.,90011\n494719699058302976,r__y__c__h__,2014-07-31'
p261
I45
sS'mins'
p262
I45
sS'brahva...-'
p263
I45
sS'voltean'
p264
I45
sS'primaria'
p265
I45
sS'-'
p266
I38
sS'even'
p267
I45
sS'calorsh...,90011\n494724966793740288,r__y__c__h__,2014-07-31'
p268
I45
sS'pa\xc3\xb1ales'
p269
I45
sS'ah\xc3\xac'
p270
I45
sS'05:15:02.0,33.9905506,-118.2480304,2291,pero'
p271
I45
sS'llaman'
p272
I45
sS'obvio'
p273
I41
sS'hacen'
p274
I45
sS'responder'
p275
I45
sS'obvia'
p276
I45
sS'maripusuda'
p277
I45
sS'lamenteibould'
p278
I45
sS'cambio'
p279
I45
sS'dos'
p280
I45
sS'mensaje'
p281
I42
sS'saying'
p282
I45
sS'desvelo'
p283
I45
sS'disfrutan.-'
p284
I45
sS'saga'
p285
I45
sS'mostraron'
p286
I45
sS'proba'
p287
I45
sS'd='
p288
I45
sS'radio'
p289
I44
sS'cooking'
p290
I45
sS'cu\xc3\xa1l'
p291
I45
sS'iconografica'
p292
I45
sS'quieren'
p293
I44
sS'hacerle'
p294
I44
sS'saludos'
p295
I44
sS'habias'
p296
I45
sS'xeneizes'
p297
I45
sS'wearing'
p298
I45
sS'do'
p299
I40
sS'dj'
p300
I44
sS'wide'
p301
I45
sS'de'
p302
I1
sS'stop'
p303
I43
sS'fabrica'
p304
I45
sS'guatemala'
p305
I40
sS'christopher'
p306
I45
sS'ballena'
p307
I44
sS'estupido'
p308
I45
sS'digamos'
p309
I45
sS'bar'
p310
I45
sS'bad'
p311
I45
sS'subnormales'
p312
I45
sS'cerote'
p313
I44
sS'3ermundista'
p314
I45
sS'momentos'
p315
I45
sS'hagan'
p316
I45
sS'liquor'
p317
I45
sS'02:50'
p318
I45
sS'higua\xc3\xadn'
p319
I45
sS'iglesia'
p320
I43
sS'05:38:16.0,33.990314,-118.2483663,2291,hardwell'
p321
I45
sS'tomorrowland'
p322
I42
sS'best'
p323
I44
sS'bargain)'
p324
I45
sS'eres'
p325
I45
sS'said'
p326
I44
sS'hambre'
p327
I45
sS'peto'
p328
I43
sS'muy'
p329
I44
sS'bien'
p330
I36
sS'"ok'
p331
I45
sS'c\xc3\xb3mo'
p332
I44
sS'hopefully'
p333
I45
sS'alguien'
p334
I40
sS'we'
p335
I42
sS'omg'
p336
I44
sS'sera'
p337
I45
sS'mmissing'
p338
I45
sS'nahhh'
p339
I45
sS'here'
p340
I42
sS'petapa'
p341
I45
sS'wth'
p342
I45
sS'hours'
p343
I45
sS'unv'
p344
I45
sS'bachelorette'
p345
I45
sS'ill'
p346
I44
sS'ahora'
p347
I38
sS'ilk'
p348
I45
sS'against'
p349
I45
sS'"ladino'
p350
I45
sS'una'
p351
I27
sS'une'
p352
I45
sS'lookin'
p353
I45
sS'con'
p354
I22
sS'pre'
p355
I45
sS'levanto'
p356
I45
sS'lanzamiento'
p357
I45
sS'you!ouch'
p358
I45
sS'defendiendolo'
p359
I45
sS'trust'
p360
I45
sS'"ups'
p361
I45
sS'been'
p362
I44
sS'pute'
p363
I45
sS'hiletrado'
p364
I45
sS'much'
p365
I44
sS'puta'
p366
I43
sS'tenemos'
p367
I45
sS'basic'
p368
I45
sS'recien'
p369
I45
sS'life'
p370
I40
sS'mariposas'
p371
I45
sS'relaxing'
p372
I45
sS'equivocado"'
p373
I45
sS'dave'
p374
I45
sS'craft'
p375
I45
sS'chile'
p376
I45
sS'worked'
p377
I45
sS'gracias'
p378
I42
sS'n'
p379
I45
sS'encontras'
p380
I45
sS'encontrar'
p381
I44
sS'near'
p382
I45
sS'gna'
p383
I45
sS'importancia'
p384
I45
sS'tomar'
p385
I45
sS'unos'
p386
I44
sS'juegan'
p387
I45
sS'impaktas'
p388
I45
sS'ir'
p389
I39
sS'it'
p390
I28
sS'im'
p391
I42
sS'"indignense"'
p392
I45
sS'in'
p393
I33
sS'chi'
p394
I45
sS'if'
p395
I37
sS'europeas'
p396
I45
sS'"secret"'
p397
I45
sS'make'
p398
I43
sS'bella'
p399
I45
sS'migratoria'
p400
I45
sS'osease'
p401
I45
sS'whicha'
p402
I45
sS'lunes'
p403
I45
sS'mujeres'
p404
I45
sS'ella'
p405
I44
sS'rain'
p406
I45
sS'putoootaaa'
p407
I45
sS'kid'
p408
I44
sS'hacer'
p409
I44
sS'tienes'
p410
I45
sS'algun'
p411
I42
sS'olvidado'
p412
I45
sS'maximo'
p413
I45
sS'programa'
p414
I44
sS'"estas'
p415
I45
sS'the'
p416
I14
sS'invitan'
p417
I45
sS'05:42:22.0,33.9903548,-118.2482176,2291,veo'
p418
I45
sS'epa'
p419
I45
sS'just'
p420
I40
sS'desaparecer'
p421
I45
sS'prometo'
p422
I44
sS'mientras'
p423
I45
sS'thanks'
p424
I44
sS'cadenas'
p425
I45
sS'yes'
p426
I45
sS'yet'
p427
I45
sS'antes'
p428
I43
sS'putero'
p429
I45
sS's\xc3\xa9'
p430
I43
sS'had'
p431
I43
sS'interpreta'
p432
I45
sS'hay'
p433
I37
sS'quemado'
p434
I45
sS'victima...),90011\n494349960591065088,r__y__c__h__,2014-07-30'
p435
I45
sS'"vamosporla30"'
p436
I45
sS'nalgas'
p437
I45
sS'whatsapp'
p438
I45
sS'has'
p439
I43
sS'followback'
p440
I45
sS'aficion'
p441
I45
sS'linda'
p442
I45
sS'everton'
p443
I45
sS'banda'
p444
I45
sS'dreams'
p445
I45
sS'shoulder'
p446
I45
sS'gift'
p447
I45
sS'conocieron'
p448
I45
sS'avila'
p449
I45
sS'pasion'
p450
I45
sS'avatar'
p451
I45
sS'night'
p452
I42
sS'amor'
p453
I40
sS'creen'
p454
I44
sS'ola'
p455
I45
sS'right'
p456
I39
sS'old'
p457
I43
sS'deal'
p458
I45
sS'people'
p459
I45
sS'ustedes'
p460
I37
sS'adelantado'
p461
I45
sS'tercermundista'
p462
I43
sS'salir'
p463
I45
sS'vato'
p464
I45
sS'crees'
p465
I45
sS'esquema'
p466
I45
sS'moneytalks'
p467
I45
sS'for'
p468
I32
sS'falta...,90011\n494349119960264704,r__y__c__h__,2014-07-30'
p469
I45
sS'brb'
p470
I45
sS'inguat'
p471
I45
sS'everything'
p472
I45
sS'umf'
p473
I45
sS'foc'
p474
I45
sS'3:30'
p475
I45
sS'foo'
p476
I45
sS'jugador'
p477
I45
sS'cuatro!\xe2\x80\x94el'
p478
I45
sS'hacias'
p479
I45
sS'encima'
p480
I45
sS'queda'
p481
I45
sS'quedo'
p482
I45
sS'numero'
p483
I45
sS'antepone'
p484
I45
sS'super'
p485
I44
sS'sepa'
p486
I45
sS'dollars'
p487
I45
sS'o'
p488
I39
sS'coronado'
p489
I45
sS'algo'
p490
I43
sS'preocupado'
p491
I45
sS'mismo'
p492
I44
sS'esperar'
p493
I45
sS'animo'
p494
I45
sS'evolucionen'
p495
I45
sS'raised'
p496
I45
sS'dilemma'
p497
I45
sS'ac\xc3\xa1'
p498
I45
sS'ahh'
p499
I41
sS'ahi'
p500
I40
sS'obtaining'
p501
I45
sS'bound'
p502
I45
sS'ultrasonicas'
p503
I45
sS'son'
p504
I41
sS"'bout"
p505
I45
sS'sos'
p506
I44
sS'soy'
p507
I41
sS'armo'
p508
I45
sS'fight'
p509
I45
sS'stuck'
p510
I45
sS'16000'
p511
I45
sS'lago'
p512
I45
sS'way'
p513
I45
sS'was'
p514
I39
sS'olvidemos'
p515
I45
sS'head'
p516
I44
sS'fireworks'
p517
I44
sS'seguis'
p518
I45
sS'verde'
p519
I45
sS'foquin'
p520
I45
sS'vive'
p521
I45
sS'fogueos'
p522
I45
sS'vivo'
p523
I44
sS'peso'
p524
I45
sS'supa'
p525
I45
sS'more'
p526
I45
sS'"la'
p527
I43
sS'azu'
p528
I45
sS'tengas'
p529
I45
sS'$110'
p530
I45
sS'scandalous'
p531
I45
sS'caistesn'
p532
I45
sS'empate'
p533
I45
sS'tardes'
p534
I45
sS'check'
p535
I45
sS'shit'
p536
I44
sS'ni'
p537
I33
sS'teor\xc3\xadas'
p538
I45
sS'leer'
p539
I40
sS'viste'
p540
I45
sS'ticos'
p541
I45
sS'nd'
p542
I45
sS'ny'
p543
I45
sS'definitivamente'
p544
I45
sS'leen'
p545
I45
sS'picture'
p546
I44
sS'tontas'
p547
I45
sS"'s"
p548
I45
sS'polito'
p549
I45
sS'reconozco'
p550
I45
sS'*salta'
p551
I45
sS"let's"
p552
I44
sS'fell'
p553
I44
sS'siente'
p554
I44
sS'rolling'
p555
I45
sS'weekend'
p556
I45
sS'djokovic'
p557
I45
sS'dicha'
p558
I45
sS'domingo'
p559
I45
sS'tacharon'
p560
I45
sS'pseudo'
p561
I45
sS'pet'
p562
I45
sS'fact'
p563
I45
sS'time'
p564
I42
sS'lovebaby'
p565
I45
sS'rockero'
p566
I45
sS':('
p567
I45
sS':)'
p568
I43
sS':*'
p569
I45
sS'dejando'
p570
I45
sS'costumbrismo'
p571
I45
sS'menos'
p572
I43
sS':9'
p573
I44
sS'skin'
p574
I45
sS'cancion'
p575
I42
sS'milk'
p576
I45
sS':3'
p577
I45
sS'pobreza'
p578
I45
sS'ver'
p579
I43
sS'zone'
p580
I45
sS'suicido'
p581
I45
sS'vez'
p582
I44
sS'quienes'
p583
I44
sS'empwzaron'
p584
I45
sS'mesaje'
p585
I45
sS'decir'
p586
I41
sS'decis'
p587
I44
sS'veo'
p588
I42
sS'noticia'
p589
I44
sS'alcoholica'
p590
I45
sS'hacerputa'
p591
I45
sS'bosteros'
p592
I43
sS'ganador'
p593
I45
sS'vegas'
p594
I45
sS'cumple'
p595
I44
sS'brows'
p596
I45
sS'cumplo'
p597
I45
sS'cool'
p598
I45
sS'dio'
p599
I44
sS'dia'
p600
I45
sS'gum'
p601
I45
sS'leave'
p602
I45
sS'siete?yo'
p603
I45
sS'settle'
p604
I45
sS'querer'
p605
I44
sS'guy'
p606
I43
sS'round'
p607
I45
sS'work'
p608
I43
sS'regret'
p609
I45
sS'cosa'
p610
I44
sS'esforzando'
p611
I45
sS'boca'
p612
I44
sS'sigo'
p613
I45
sS'pedo'
p614
I45
sS'idiotez'
p615
I45
sS'12:20'
p616
I45
sS'corazon'
p617
I45
sS'suelo'
p618
I45
sS'carga'
p619
I45
sS'goes'
p620
I45
sS'reply'
p621
I44
sS'pachuca'
p622
I45
sS'haciendolos'
p623
I45
sS'gawd'
p624
I44
sS'agosto'
p625
I45
sS'pregunte'
p626
I45
sS'solterito'
p627
I45
sS'alone'
p628
I45
sS'aunque'
p629
I44
sS'viaje'
p630
I45
sS'lazy'
p631
I45
sS'culpa'
p632
I45
sS'extorsion'
p633
I45
sS'faptime?,90011\n494725256217513984,r__y__c__h__,2014-07-31'
p634
I45
sS'weird'
p635
I44
sS'estadio'
p636
I45
sS'chapines'
p637
I45
sS'love'
p638
I39
sS'mutantes'
p639
I45
sS'enorme'
p640
I45
sS'verga'
p641
I42
sS'semana'
p642
I44
sS'guatemala.,90011\n494348512704753665,r__y__c__h__,2014-07-30'
p643
I45
sS'ando'
p644
I44
sS'cabala'
p645
I45
sS'ahshombre'
p646
I45
sS'chapin'
p647
I42
sS'anda'
p648
I43
sS'only'
p649
I42
sS'siemprw'
p650
I45
sS'ca)'
p651
I41
sS'going'
p652
I42
sS'todas'
p653
I43
sS'iphone'
p654
I44
sS'contradecir'
p655
I45
sS'today'
p656
I44
sS'rios'
p657
I40
sS"it!!!('"
p658
I45
sS'club'
p659
I43
sS'ooo'
p660
I45
sS'gordibuena'
p661
I45
sS'bicicleta'
p662
I44
sS'espero'
p663
I42
sS'everywhere'
p664
I45
sS'botella'
p665
I45
sS'scratches'
p666
I45
sS'oliva'
p667
I43
sS'hiiiiiii'
p668
I45
sS'slogan'
p669
I45
sS'fosho'
p670
I45
sS'iba'
p671
I43
sS'cat'
p672
I45
sS'homie'
p673
I45
sS'niggaa'
p674
I45
sS'kendrick'
p675
I45
sS'problemas'
p676
I45
sS'making'
p677
I45
sS'tirar'
p678
I45
sS'imposible.pero'
p679
I45
sS'fuck'
p680
I42
sS'madridistas'
p681
I45
sS'apunto'
p682
I45
sS'tercmundismo'
p683
I45
sS'quieresm\xc3\xa1s?\xe2\x80\x94quiero'
p684
I45
sS'manuela'
p685
I45
sS'trasvesti'
p686
I45
sS'cuba'
p687
I45
sS'aquel'
p688
I45
sS'viendo'
p689
I45
sS'1'
p690
I44
sS'till'
p691
I44
sS'pura'
p692
I45
sS'ligas'
p693
I45
sS'maestro'
p694
I45
sS'llego'
p695
I43
sS'puro'
p696
I45
sS't-shirts'
p697
I45
sS'mas'
p698
I30
sS'entienden'
p699
I45
sS'misma'
p700
I43
sS'max'
p701
I45
sS'existencial"'
p702
I45
sS'spot'
p703
I45
sS'maaaaaaaldiiitooooooooooaaaaaamooooooorrrrrr'
p704
I45
sS'crashed'
p705
I45
sS'hombre'
p706
I45
sS'date'
p707
I45
sS'such'
p708
I45
sS'suck'
p709
I45
sS'mal'
p710
I44
sS'man'
p711
I43
sS'aburre'
p712
I45
sS'maybe'
p713
I45
sS'"indignacion"'
p714
I45
sS'benny'
p715
I45
sS'su'
p716
I40
sS'q'
p717
I45
sS'si'
p718
I17
sS'so'
p719
I34
sS'vaya'
p720
I45
sS'kurt'
p721
I45
sS'tali'
p722
I45
sS'se'
p723
I12
sS'cute'
p724
I45
sS'no"'
p725
I45
sS'pelicula'
p726
I44
sS'orgullo'
p727
I45
sS'cold'
p728
I45
sS'still'
p729
I45
sS'thank'
p730
I43
sS'curly'
p731
I45
sS"he's"
p732
I45
sS'jugando'
p733
I45
sS'dimaria'
p734
I45
sS'perdi'
p735
I45
sS'hamilton'
p736
I44
sS'afecta'
p737
I45
sS'inbependiente'
p738
I45
sS'not'
p739
I43
sS'now'
p740
I35
sS'nor'
p741
I45
sS'nos'
p742
I45
sS'down'
p743
I43
sS'05:46:31.0,33.9905162,-118.2481112,2291,para'
p744
I45
sS'sexosas'
p745
I45
sS'leyendo'
p746
I45
sS'desde'
p747
I43
sS'rock'
p748
I45
sS'mamon'
p749
I44
sS'el'
p750
I10
sS'en'
p751
I8
sS'yeah'
p752
I44
sS'recibir'
p753
I45
sS'ex'
p754
I44
sS'okay'
p755
I45
sS'girl'
p756
I43
sS'es'
p757
I11
sS'er'
p758
I45
sS'living'
p759
I45
sS'ejo'
p760
I45
sS'requieroooooooo'
p761
I45
sS'looking'
p762
I41
sS'stuff'
p763
I45
sS'internet'
p764
I45
sS'saludos."'
p765
I45
sS'astral'
p766
I45
sS'conste'
p767
I45
sS'ubico'
p768
I45
sS'tienen'
p769
I45
sS'carp'
p770
I45
sS'quita'
p771
I45
sS'\xc3\x91ooooo'
p772
I45
sS'gustos'
p773
I45
sS'cart'
p774
I45
sS'vision.y'
p775
I45
sS'kemocion'
p776
I45
sS'amigos'
p777
I44
sS'care'
p778
I45
sS'brasilero'
p779
I45
sS'luego'
p780
I43
sS'guste'
p781
I45
sS'honest'
p782
I45
sS'equipos...y'
p783
I45
sS'think'
p784
I44
sS'first'
p785
I43
sS'blind'
p786
I45
sS'mucho'
p787
I43
sS'tenia'
p788
I45
sS'drove'
p789
I45
sS'tomorrow'
p790
I43
sS'sheep'
p791
I45
sS'city'
p792
I45
sS'little'
p793
I43
sS'law'
p794
I45
sS'llegar'
p795
I45
sS'fiera'
p796
I45
sS'fml'
p797
I45
sS'2'
p798
I45
sS'friend'
p799
I45
sS'eyes'
p800
I45
sS'that'
p801
I38
sS'mezclaba'
p802
I45
sS'inteligentes'
p803
I45
sS'becuz'
p804
I45
sS'10'
p805
I44
sS'13'
p806
I45
sS'15'
p807
I45
sS'lmao'
p808
I40
sS'gotta'
p809
I42
sS'tecnico'
p810
I45
sS'panzon'
p811
I45
sS'future'
p812
I45
sS'were'
p813
I45
sS'preocupense'
p814
I45
sS'and'
p815
I40
sS'san'
p816
I43
sS'sam'
p817
I45
sS'siendo'
p818
I45
sS'dash'
p819
I45
sS'say'
p820
I45
sS'tipazo'
p821
I45
sS'kush'
p822
I45
sS'mueve'
p823
I45
sS'so\xc3\xb1ados"'
p824
I45
sS'retroceso'
p825
I45
sS'take'
p826
I44
sS'damn-'
p827
I45
sS'guanabi'
p828
I45
sS'-mira'
p829
I45
sS'septiembre'
p830
I45
sS'sure'
p831
I45
sS'pain'
p832
I45
sS'normal'
p833
I45
sS'knew'
p834
I44
sS'paid'
p835
I45
sS'jajajaja'
p836
I45
sS'jugsr'
p837
I45
sS'drogadicto"'
p838
I45
sS'cualquier'
p839
I44
sS'decirte'
p840
I45
sS'pais'
p841
I39
sS'queens'
p842
I45
sS'forever'
p843
I45
sS'alguno'
p844
I45
sS'retrica'
p845
I45
sS'alguna'
p846
I41
sS'later'
p847
I45
sS'hungry'
p848
I45
sS'seguir'
p849
I44
sS'ridiculo...-'
p850
I45
sS've\xc3\xb1'
p851
I45
sS'tercermundismo'
p852
I44
sS'walking'
p853
I45
sS'idioteces'
p854
I45
sS'show'
p855
I45
sS'hustled'
p856
I45
sS'alegale'
p857
I45
sS'llamaron'
p858
I45
sS'estoy'
p859
I41
sS'hace'
p860
I37
sS'estos'
p861
I45
sS'iq'
p862
I45
sS'slow'
p863
I45
sS'dice'
p864
I42
sS'travesti'
p865
I45
sS'icecream'
p866
I45
sS'penetrar'
p867
I45
sS'3'
p868
I44
sS'nadie'
p869
I43
sS'desea'
p870
I45
sS'get'
p871
I39
sS'toca'
p872
I45
sS'a\xc3\xb1os)'
p873
I45
sS'is'
p874
I35
sS'hoyo'
p875
I45
sS'vienen'
p876
I45
sS'gt.que'
p877
I45
sS'"hola"'
p878
I45
sS'farmacia'
p879
I45
sS'morning'
p880
I43
sS":')"
p881
I43
sS'"hoy'
p882
I45
sS',90011\n494350434614513664,r__y__c__h__,2014-07-30'
p883
I45
sS'where'
p884
I44
sS'pi\xc3\xa9nselo'
p885
I45
sS'afirmacion'
p886
I44
sS'seas'
p887
I44
sS'up'
p888
I37
sS'asleep'
p889
I43
sS'sean'
p890
I44
sS'contar'
p891
I45
sS'stanley'
p892
I45
sS'sport'
p893
I45
sS'estan'
p894
I43
sS'pesimas'
p895
I45
sS'marcador'
p896
I45
sS'outside'
p897
I45
sS'estar'
p898
I43
sS'estas'
p899
I45
sS'llorar'
p900
I45
sS'affordable'
p901
I45
sS'notice'
p902
I45
sS'notica'
p903
I45
sS'dinero'
p904
I45
sS'tus'
p905
I41
sS'como'
p906
I37
sS'"pierde'
p907
I45
sS'come'
p908
I44
sS'lopez'
p909
I44
sS'javier'
p910
I44
sS'many'
p911
I45
sS'dedicate'
p912
I45
sS'cheeequeeeeteeetaaaa'
p913
I45
sS'agrandado'
p914
I45
sS'concierto'
p915
I45
sS'agregarlo'
p916
I45
sS'quien'
p917
I42
sS'quedarme'
p918
I45
sS'comer'
p919
I45
sS'panico'
p920
I45
sS'cabal'
p921
I44
sS'gangnam'
p922
I45
sS'cuando'
p923
I40
sS'pos'
p924
I36
sS'60'
p925
I45
sS'acabas'
p926
I45
sS'actually'
p927
I44
sS'despertando'
p928
I45
sS'siete'
p929
I45
sS'west'
p930
I45
sS'agarraron'
p931
I45
sS'rudo.,90011\n494703529857015809,r__y__c__h__,2014-07-31'
p932
I45
sS'arte'
p933
I45
sS'cre\xc3\xad'
p934
I45
sS'crawford'
p935
I45
sS'mary'
p936
I45
sS'venis'
p937
I45
sS'venir'
p938
I45
sS'00:49:07.0,33.9903371,-118.2481498,2291,en'
p939
I45
sS'partido'
p940
I44
sS'personas'
p941
I45
sS'conozco'
p942
I45
sS'jueves'
p943
I45
sS'so\xc3\xb1e'
p944
I44
sS'sirven'
p945
I45
sS'jugadores'
p946
I45
sS'sound'
p947
I45
sS'tatoos'
p948
I45
sS'casa'
p949
I45
sS'these'
p950
I45
sS'caso'
p951
I41
sS'casi'
p952
I45
sS'buen'
p953
I45
sS'encuentran'
p954
I45
sS'"verdadero'
p955
I45
sS'comprendamos'
p956
I45
sS'sleeping'
p957
I44
sS'middle'
p958
I44
sS'"inn"'
p959
I45
sS'good'
p960
I42
sS'juntos'
p961
I45
sS'hazlas'
p962
I45
sS'par'
p963
I44
sS'media'
p964
I45
sS'bocas'
p965
I45
sS'trip'
p966
I43
sS'pac'
p967
I45
sS'urself'
p968
I45
sS'5:50'
p969
I45
sS'bbpin'
p970
I45
sS'workout'
p971
I44
sS'todos'
p972
I42
sS'5:55'
p973
I45
sS'aclaran'
p974
I45
sS'entonces'
p975
I45
sS'confirmado'
p976
I45
sS'aparece'
p977
I45
sS'mentally'
p978
I45
sS'\xe2\x9c\x8c\xef\xb8\x8f'
p979
I44
sS'ahorita'
p980
I45
sS'conos'
p981
I45
sS'no'
p982
I6
sS'caliente'
p983
I45
sS'dupla'
p984
I45
sS"can't"
p985
I44
sS'vamo'
p986
I44
sS'being'
p987
I45
sS'when'
p988
I44
sS'topor'
p989
I45
sS'rest'
p990
I44
sS'verdad'
p991
I44
sS'pongas'
p992
I45
sS'flavor'
p993
I45
sS'blow'
p994
I45
sS'nombre!-'
p995
I45
sS'thinking'
p996
I45
sS'habemos'
p997
I45
sS'seems'
p998
I45
sS'rosa'
p999
I44
sS'parar'
p1000
I45
sS'4'
p1001
I45
sS'real'
p1002
I43
sS'cangrejista'
p1003
I45
sS'quezaltenanga'
p1004
I45
sS'amo'
p1005
I44
sS'dejalo'
p1006
I45
sS'envio'
p1007
I45
sS'por'
p1008
I19
sS'lado'
p1009
I44
sS'gonna'
p1010
I41
sS'infierno'
p1011
I45
sS'dark'
p1012
I44
sS'chipluc'
p1013
I45
sS'psy'
p1014
I45
sS'mom'
p1015
I45
sS'tanto'
p1016
I40
sS'hacerme'
p1017
I45
sS'furniture'
p1018
I45
sS'tratando'
p1019
I45
sS'either'
p1020
I45
sS'callan'
p1021
I45
sS'clap'
p1022
I44
sS'tuiterfashionpolice'
p1023
I45
sS'"fotito"'
p1024
I44
sS'tefa'
p1025
I45
sS'interesante'
p1026
I45
sS'05:07:24.0,33.9903028,-118.2481207,2291,entro'
p1027
I45
sS'hoooliiii'
p1028
I45
sS'chocolate.,90011\n494718474548019201,r__y__c__h__,2014-07-31'
p1029
I45
sS'05:23:37.0,33.9905379,-118.2482827,2291,en'
p1030
I45
sS'kings'
p1031
I45
sS'madrit'
p1032
I45
sS'thinks'
p1033
I45
sS'echaron'
p1034
I44
sS'perdio'
p1035
I45
sS'criticar'
p1036
I45
sS'mandando'
p1037
I45
sS'anticristo"'
p1038
I45
sS'amigo'
p1039
I45
sS'05:13:09.0,33.9904095,-118.2480166,2291,y'
p1040
I45
sS'power'
p1041
I45
sS'dicen'
p1042
I43
sS'llevado'
p1043
I45
sS'despicable'
p1044
I45
sS'on'
p1045
I33
sS'aca'
p1046
I43
sS'cremas'
p1047
I45
sS'central'
p1048
I44
sS'oh'
p1049
I44
sS'of'
p1050
I29
sS'feis'
p1051
I45
sS'hueva'
p1052
I45
sS'vieran'
p1053
I45
sS'huevo'
p1054
I45
sS'or'
p1055
I43
sS'snapchat'
p1056
I45
sS'ayuda'
p1057
I45
sS'your'
p1058
I43
sS'aplaudiste'
p1059
I45
sS'intentado'
p1060
I45
sS'unas'
p1061
I45
sS'her'
p1062
I45
sS'lucir'
p1063
I45
sS'hey'
p1064
I45
sS'lol'
p1065
I38
sS'los'
p1066
I21
sS'firmas'
p1067
I44
sS'low'
p1068
I44
sS'vacuna'
p1069
I45
sS'completa'
p1070
I45
sS'dormir'
p1071
I45
sS'complementaban'
p1072
I45
sS'enough'
p1073
I43
sS'ofendido"'
p1074
I45
sS'plgp'
p1075
I44
sS'idea'
p1076
I45
sS'sirve'
p1077
I45
sS'arjoniana'
p1078
I45
sS'trying'
p1079
I44
sS'with'
p1080
I33
sS"they're"
p1081
I45
sS'ronaldo'
p1082
I45
sS'qu\xc3\xa9'
p1083
I40
sS'qu\xc3\xa8'
p1084
I45
sS'kryzthal'
p1085
I45
sS'usted'
p1086
I43
sS'"chapines'
p1087
I45
sS'entiende'
p1088
I44
sS'videos'
p1089
I45
sS'af'
p1090
I44
sS'feliz'
p1091
I43
sS'doblemoralistas'
p1092
I45
sS'ofendia'
p1093
I45
sS'am'
p1094
I40
sS'al'
p1095
I26
sS'entiendo'
p1096
I41
sS'an'
p1097
I44
sS'tengo'
p1098
I42
sS'at'
p1099
I37
sS'aw'
p1100
I45
sS'pedestal'
p1101
I45
sS'deezer'
p1102
I45
sS'santamarina'
p1103
I45
sS'deserve'
p1104
I45
sS'pedia'
p1105
I45
sS'porfavor'
p1106
I45
sS'\xc3\xb1o\xc3\xb1o'
p1107
I45
sS'5'
p1108
I45
sS'besos'
p1109
I45
sS'you'
p1110
I15
sS'selecci\xc3\xb3n'
p1111
I45
sS'pedir'
p1112
I45
sS'muere'
p1113
I45
sS'cuerpo'
p1114
I45
sS'volvio'
p1115
I45
sS'05:27:45.0,33.990722,-118.2484786,2291,mientras'
p1116
I45
sS'mente'
p1117
I45
sS'masa'
p1118
I45
sS'cocina'
p1119
I45
sS'garganta'
p1120
I45
sS'u'
p1121
I41
sS'jajajajajajaa'
p1122
I45
sS'wake'
p1123
I45
sS'd\xc3\xa1ndole'
p1124
I45
sS'all'
p1125
I37
sS'shazam'
p1126
I45
sS'igles...-'
p1127
I45
sS'momumental'
p1128
I45
sS'correr'
p1129
I45
sS'ala'
p1130
I45
sS'deben'
p1131
I45
sS'dejame'
p1132
I45
sS'habla'
p1133
I45
sS'tv'
p1134
I42
sS'tu'
p1135
I31
sS'alabas'
p1136
I45
sS'to'
p1137
I20
sS'lanchita'
p1138
I45
sS'smile'
p1139
I45
sS'te'
p1140
I25
sS'estaba'
p1141
I45
sS'far'
p1142
I45
sS'llegue'
p1143
I44
sS'grandezas'
p1144
I45
sS'fat'
p1145
I45
sS'fan'
p1146
I45
sS'"fotografo'
p1147
I45
sS'rn'
p1148
I45
sS'list'
p1149
I45
sS'smile....!"'
p1150
I45
sS'vibes'
p1151
I45
sS'meses'
p1152
I44
sS'mundial'
p1153
I45
sS"i'll"
p1154
I45
sS'pasa'
p1155
I44
sS'paso'
p1156
I44
sS'hice'
p1157
I45
sS'bandera'
p1158
I45
sS'perspective'
p1159
I45
sS'rato'
p1160
I44
sS'argumentos'
p1161
I44
sS'juicio'
p1162
I45
sS'what'
p1163
I37
sS'red\xe2\x80\x9d'
p1164
I45
sS'ayfreak'
p1165
I45
sS'dijeran'
p1166
I45
sS'"borracho'
p1167
I45
sS'enoja'
p1168
I45
sS'sus'
p1169
I39
sS'metalero'
p1170
I45
sS'dias'
p1171
I44
sS'vamos'
p1172
I42
sS'insultando'
p1173
I45
sS'hahaha'
p1174
I45
sS'lack'
p1175
I45
sS'trezeguet'
p1176
I45
sS'tfti\xe2\x80\x9d'
p1177
I45
sS'bailar'
p1178
I45
sS'conta'
p1179
I44
sS'carajos'
p1180
I45
sS'estupido"'
p1181
I45
sS'stella'
p1182
I45
sS'habra'
p1183
I45
sS'via'
p1184
I45
sS'fagget'
p1185
I45
sS'electoral"'
p1186
I45
sS'escuchar'
p1187
I45
sS'traumatized'
p1188
I45
sS'hellhuesos'
p1189
I45
sS'glitch'
p1190
I45
sS'jrs'
p1191
I45
sS'buenas'
p1192
I43
sS'otros'
p1193
I44
sS'know-'
p1194
I45
sS'bloquearon'
p1195
I45
sS'done'
p1196
I45
sS'takes'
p1197
I45
sS'two'
p1198
I44
sS'chespirito'
p1199
I45
sS'imagino'
p1200
I45
sS'comun'
p1201
I45
sS'6'
p1202
I45
sS'trabajo'
p1203
I45
sS'reminiscing'
p1204
I45
sS'llora'
p1205
I45
sS'oreja'
p1206
I44
sS'miro'
p1207
I45
sS'knows'
p1208
I45
sS'pobres'
p1209
I44
sS'impulsa'
p1210
I45
sS'gentleman'
p1211
I45
sS"ain't"
p1212
I44
sS'stick'
p1213
I45
sS'broke'
p1214
I45
sS'dios'
p1215
I44
sS'hour'
p1216
I45
sS'sarcasmo'
p1217
I43
sS'malo'
p1218
I45
sS'del'
p1219
I31
sS'nini'
p1220
I45
sS',90011\n494352592722329601,r__y__c__h__,2014-07-30'
p1221
I45
sS'diganme'
p1222
I45
sS'lejos'
p1223
I45
sS'punked'
p1224
I45
sS'buenos'
p1225
I44
sS'guatemamala'
p1226
I45
sS'ft'
p1227
I45
sS'eterno'
p1228
I45
sS'viene'
p1229
I45
sS'different'
p1230
I45
sS'fb'
p1231
I37
sS'dreads\xe2\x80\x9dwtf'
p1232
I45
sS'jajaja'
p1233
I41
sS'coming'
p1234
I44
sS'aporte'
p1235
I45
sS'fm'
p1236
I45
sS'a'
p1237
I3
sS'marico'
p1238
I44
sS'haciendolo'
p1239
I45
sS'margarito'
p1240
I45
sS'dentro'
p1241
I45
sS'rojos'
p1242
I45
sS'grande'
p1243
I44
sS':-)))'
p1244
I45
sS'dream'
p1245
I45
sS"that's"
p1246
I42
sS'help'
p1247
I45
sS"don't"
p1248
I37
sS'mojado'
p1249
I45
sS'sooo'
p1250
I45
sS'porfi'
p1251
I45
sS'relato'
p1252
I45
sS'through'
p1253
I45
sS'celular'
p1254
I45
sS'its'
p1255
I42
sS'loco.,90011\n494725617565171712,r__y__c__h__,2014-07-31'
p1256
I45
sS'suicidio'
p1257
I45
sS'digan'
p1258
I45
sS'25'
p1259
I45
sS'style'
p1260
I45
sS'20'
p1261
I45
sS'alla'
p1262
I44
sS'pronto'
p1263
I45
sS':p'
p1264
I45
sS'2jerk'
p1265
I45
sS'ricardo'
p1266
I41
sS'late'
p1267
I44
sS'pena'
p1268
I45
sS'sinaloense'
p1269
I45
sS'bout'
p1270
I45
sS'goodmorning'
p1271
I45
sS'someone'
p1272
I42
sS'idolo'
p1273
I44
sS'yo'
p1274
I25
sS'ya'
p1275
I13
sS'cel'
p1276
I45
sS'miedo'
p1277
I45
sS'starbucks'
p1278
I45
sS'oki'
p1279
I45
sS'bryan'
p1280
I45
sS'subir'
p1281
I45
sS'sundays'
p1282
I45
sS'always'
p1283
I44
sS'tragica'
p1284
I45
sS'found'
p1285
I45
sS'morrita'
p1286
I45
sS'everyone'
p1287
I45
sS'weeknd'
p1288
I45
sS'mental'
p1289
I45
sS'house'
p1290
I44
sS'hare'
p1291
I45
sS'comin'
p1292
I45
sS'tiempo'
p1293
I44
sS'hara'
p1294
I44
sS'(bue'
p1295
I45
sS'todo'
p1296
I40
sS'really'
p1297
I41
sS'perry'
p1298
I45
sS'parecio'
p1299
I45
sS'coooleeegiaaaaalaaaaass'
p1300
I45
sS'7'
p1301
I45
sS'ass'
p1302
I44
sS'honestos'
p1303
I45
sS'combate'
p1304
I45
sS'asf'
p1305
I45
sS'put'
p1306
I44
sS'asi'
p1307
I37
sS'pasado'
p1308
I45
sS'bulla'
p1309
I45
sS'plot'
p1310
I45
sS'deja'
p1311
I44
sS'dejo'
p1312
I44
sS'hablamos'
p1313
I45
sS'sintoma'
p1314
I45
sS'self-reflection'
p1315
I45
sS'quemando'
p1316
I45
sS'feel'
p1317
I44
sS'lucys'
p1318
I45
sS'seleccion'
p1319
I45
sS'cada'
p1320
I45
sS'guau'
p1321
I41
sS'talked'
p1322
I45
sS'dominating'
p1323
I45
sS'genios'
p1324
I45
sS'miss'
p1325
I45
sS'jet'
p1326
I45
sS'esas'
p1327
I45
sS'obligatory'
p1328
I45
sS'contra'
p1329
I45
sS'fanpage'
p1330
I45
sS'aver'
p1331
I45
sS'perdonameeeeeee'
p1332
I45
sS'toooomaaaaaa'
p1333
I45
sS'razon'
p1334
I45
sS'headache'
p1335
I45
sS'verdades'
p1336
I45
sS'campa\xc3\xb1a'
p1337
I45
sS'para'
p1338
I24
sS'segui'
p1339
I45
sS'talvez'
p1340
I45
sS'discover'
p1341
I45
sS'arcoiris'
p1342
I44
sS'part'
p1343
I45
sS'jajajaja,90011\n494723221694840833,r__y__c__h__,2014-07-31'
p1344
I45
sS'trolls'
p1345
I45
sS'mencion'
p1346
I45
sS'pary'
p1347
I45
sS'$1'
p1348
I45
sS'superluna'
p1349
I45
sS'edades'
p1350
I45
sS'seriamente'
p1351
I45
sS'fights'
p1352
I45
sS'novak'
p1353
I45
sS'phora'
p1354
I45
sS'importo'
p1355
I45
sS'cobrar'
p1356
I45
sS'gastando'
p1357
I45
sS'built'
p1358
I45
sS'dancing'
p1359
I45
sS'parece'
p1360
I45
sS'quepo'
p1361
I45
sS'quie...-'
p1362
I45
sS'"echandose'
p1363
I45
sS'redes'
p1364
I45
sS'nivel'
p1365
I44
sS'towards'
p1366
I45
sS'amoooo'
p1367
I45
sS'csdmunicipal'
p1368
I39
sS'independencia'
p1369
I45
sS'nothing'
p1370
I45
sS'11:11'
p1371
I45
sS'sometimes'
p1372
I45
sS'uuuyyy'
p1373
I45
sS'asco'
p1374
I44
sS'futbol'
p1375
I44
sS'them.\xe2\x80\x9d'
p1376
I45
sS'bound\xe2\x9d\xa4'
p1377
I45
sS'publicidad'
p1378
I44
sS'cantinflas'
p1379
I45
sS'poooooooor'
p1380
I45
sS'candelaria'
p1381
I45
sS'idiota'
p1382
I45
sS'pinche'
p1383
I43
sS'quej'
p1384
I45
sS'jugar'
p1385
I45
sS'california"'
p1386
I45
sS'frescas'
p1387
I45
sS'8'
p1388
I44
sS'darwin'
p1389
I44
sS'peoduccion'
p1390
I45
sS'ruiz'
p1391
I42
sS'porque'
p1392
I42
sS'hablando'
p1393
I44
sS'his'
p1394
I43
sS'hit'
p1395
I45
sS'hoooliiissshh'
p1396
I45
sS'gratis'
p1397
I45
sS'distance'
p1398
I45
sS'salud'
p1399
I45
sS'eltourdefrance'
p1400
I45
sS'him'
p1401
I45
sS'tmobile'
p1402
I45
sS'diganle'
p1403
I45
sS'(via'
p1404
I45
sS'leclub'
p1405
I45
sS'kill'
p1406
I45
sS'river'
p1407
I45
sS'restaurants'
p1408
I45
sS'set'
p1409
I45
sS'ser'
p1410
I34
sS'cynical'
p1411
I45
sS'throwing'
p1412
I45
sS'crearon'
p1413
I45
sS'laaa'
p1414
I45
sS'see'
p1415
I43
sS'supermercado'
p1416
I45
sS'are'
p1417
I38
sS'sea'
p1418
I45
sS'disculpenme'
p1419
I45
sS'bodorrio'
p1420
I45
sS'pictures'
p1421
I45
sS'wow'
p1422
I45
sS'currently'
p1423
I45
sS'errores'
p1424
I45
sS'estrellar'
p1425
I45
sS'monsters'
p1426
I45
sS'solo'
p1427
I39
sS'leido'
p1428
I45
sS'creating'
p1429
I45
sS'missing'
p1430
I45
sS'sold'
p1431
I45
sS'parecen'
p1432
I45
sS'pregunta'
p1433
I45
sS'pareces'
p1434
I45
sS'"bocabaret"'
p1435
I45
sS'sexo'
p1436
I45
sS'pagan'
p1437
I45
sS'complementara'
p1438
I45
sS'last'
p1439
I45
sS'mega'
p1440
I45
sS'thou'
p1441
I45
sS'sleep\xe2\x80\x9d'
p1442
I45
sS'salgo'
p1443
I45
sS'extra\xc3\xb1a'
p1444
I45
sS'thoe'
p1445
I45
sS'let'
p1446
I45
sS'gt.y'
p1447
I45
sS'whole'
p1448
I45
sS'cierto'
p1449
I43
sS'celebre'
p1450
I45
sS'point'
p1451
I45
sS'simple'
p1452
I45
sS'fumar'
p1453
I45
sS'andas'
p1454
I42
sS'andar'
p1455
I44
sS'andan'
p1456
I41
sS'sexy'
p1457
I45
sS'angeles'
p1458
I41
sS'deber\xc3\xadamos'
p1459
I45
sS'chimando'
p1460
I44
sS'echado'
p1461
I45
sS'sabela'
p1462
I45
sS'secret'
p1463
I45
sS'damn'
p1464
I45
sS'bailarines'
p1465
I45
sS'damm'
p1466
I44
sS'po'
p1467
I45
sS'woke'
p1468
I44
sS'pm'
p1469
I45
sS'transmision'
p1470
I45
sS'frontera'
p1471
I45
sS'recibi'
p1472
I45
sS'04:38:07.0,33.9907296,-118.2484942,2291,mientras'
p1473
I45
sS'awake'
p1474
I45
sS'defendian'
p1475
I45
sS'look'
p1476
I45
sS'regla'
p1477
I45
sS'abierta'
p1478
I45
sS'while'
p1479
I44
sS'fue'
p1480
I45
sS'fernandez'
p1481
I45
sS'fui'
p1482
I45
sS'pulgqs'
p1483
I45
sS'<<'
p1484
I45
sS'rip'
p1485
I45
sS'vos'
p1486
I40
sS'monta\xc3\xb1as'
p1487
I45
sS'arenas'
p1488
I45
sS'(cortesia'
p1489
I45
sS'voy'
p1490
I45
sS'around'
p1491
I45
sS'santos'
p1492
I45
sS'shirt'
p1493
I45
sS'acabo'
p1494
I44
sS'fueron'
p1495
I45
sS'bostero'
p1496
I43
sS'caes'
p1497
I45
sS'used'
p1498
I45
sS'sym'
p1499
I45
sS'ovejas'
p1500
I45
sS'gsp'
p1501
I45
sS'penta'
p1502
I45
sS'anybody'
p1503
I43
sS'hago'
p1504
I43
sS'person'
p1505
I45
sS'y'
p1506
I8
sS'aprueben'
p1507
I45
sS'true'
p1508
I45
sS'bosta'
p1509
I45
sS'listening'
p1510
I45
sS'porqu\xc3\xa9'
p1511
I41
sS'joder'
p1512
I45
sS'cabaret'
p1513
I45
sS'letting'
p1514
I45
sS'mandas'
p1515
I45
sS'garcho'
p1516
I44
sS'arriba'
p1517
I45
sS'parents'
p1518
I45
sS'location'
p1519
I45
sS'acerca'
p1520
I45
sS'levantarme'
p1521
I45
sS'bin'
p1522
I45
sS'mujer'
p1523
I45
sS'deberia'
p1524
I45
sS'vangaal'
p1525
I45
sS'big'
p1526
I44
sS'biw'
p1527
I45
sS'd'
p1528
I45
sS'excolegas'
p1529
I45
sS'callorda'
p1530
I42
sS'howell'
p1531
I45
sS'marquez'
p1532
I45
sS'invertir'
p1533
I45
sS'raparse'
p1534
I45
sS'often'
p1535
I45
sS'ramsey'
p1536
I45
sS'1st'
p1537
I45
sS'some'
p1538
I43
sS'back'
p1539
I42
sS'disfrutes'
p1540
I45
sS'3.0'
p1541
I45
sS'apoyar'
p1542
I45
sS'nicaragua'
p1543
I45
sS'judios'
p1544
I44
sS'contactos'
p1545
I45
sS'andaban'
p1546
I45
sS'metetelas'
p1547
I45
sS'favorite\xe2\x80\x9d'
p1548
I45
sS'pros'
p1549
I45
sS'retro'
p1550
I45
sS'pele'
p1551
I45
sS'andabas'
p1552
I45
sS'be'
p1553
I41
sS'bf'
p1554
I45
sS'run'
p1555
I45
sS'ufc'
p1556
I45
sS'siempre'
p1557
I45
sS'nuevo'
p1558
I45
sS'nowhere'
p1559
I45
sS'tocar'
p1560
I45
sS'by'
p1561
I45
sS'nueva'
p1562
I45
sS'a\xc3\xb1os'
p1563
I44
sS'passionate'
p1564
I45
sS'anything'
p1565
I45
sS'mario'
p1566
I45
sS'setlist'
p1567
I45
sS'trato'
p1568
I44
sS'positive'
p1569
I45
sS'hermosisima'
p1570
I45
sS'wanna'
p1571
I44
sS'pedaleada'
p1572
I44
sS'ppl'
p1573
I45
sS'rollo'
p1574
I45
sS'pero'
p1575
I23
sS'within'
p1576
I45
sS'momma'
p1577
I45
sS'because'
p1578
I43
sS'deberian'
p1579
I45
sS'ontario'
p1580
I45
sS'"el'
p1581
I45
sS'"pipita"'
p1582
I45
sS'agujero'
p1583
I45
sS"we're"
p1584
I45
sS'bruh'
p1585
I45
sS'colocarte'
p1586
I45
sS'murphy'
p1587
I45
sS'invito'
p1588
I45
sS'seria'
p1589
I42
sS'familia'
p1590
I45
sS'line'
p1591
I45
sS'serio'
p1592
I43
sS'\xe2\x99\xa1'
p1593
I44
sS'motive'
p1594
I45
sS"hasn't"
p1595
I45
sS'ur'
p1596
I44
sS'un'
p1597
I21
sS'faded'
p1598
I45
sS'uf'
p1599
I45
sS'yaaaayaaaaayaaaaay'
p1600
I45
sS'genial'
p1601
I44
sS'flow'
p1602
I45
sS'estilo'
p1603
I45
sS'comming'
p1604
I44
sS'hoyperdieronlosrojos'
p1605
I45
sS'pm"its'
p1606
I45
sS'indocumentado'
p1607
I45
sS'nac'
p1608
I45
sS'muestra'
p1609
I44
sS'preguntas'
p1610
I45
sS'malicious'
p1611
I45
sS'cuenta'
p1612
I41
sS'freestyle'
p1613
I45
sS'definitely'
p1614
I45
sS'recordar'
p1615
I45
sS'grind'
p1616
I45
sS'nice'
p1617
I45
sS'dale'
p1618
I45
sS'everybodys'
p1619
I45
sS'noche'
p1620
I43
sS'visits'
p1621
I45
sS'a\xc3\xb1o'
p1622
I45
sS'acaso'
p1623
I45
sS'evolucion'
p1624
I45
sS'funcionaria'
p1625
I45
sS'problema'
p1626
I45
sS'ago'
p1627
I45
sS'e'
p1628
I45
sS'muchos'
p1629
I39
sS'preferencias'
p1630
I45
sS'tristisimo"'
p1631
I45
sS"she's"
p1632
I45
sS'having'
p1633
I43
sS'gt'
p1634
I44
sS'slick'
p1635
I45
sS'resulto'
p1636
I45
sS'borrachera'
p1637
I45
sS'go'
p1638
I38
sS'chillin'
p1639
I45
sS'centers'
p1640
I45
sS'issues'
p1641
I45
sS'resulta'
p1642
I44
sS'thinkingam'
p1643
I45
sS'cuanto'
p1644
I45
sS'quizo'
p1645
I45
sS'igual.\xe2\x80\x94\xc2\xa1pero'
p1646
I45
sS'send'
p1647
I45
sS'huiteco'
p1648
I45
sS'jajajajajajajajajajaja'
p1649
I45
sS'sent'
p1650
I44
sS'11:37'
p1651
I45
sS'05:56:22.0,33.9907473,-118.2484545,2291,papos'
p1652
I45
sS'shawtyy'
p1653
I45
sS'continues'
p1654
I45
sS'agua'
p1655
I45
sS'condones...-'
p1656
I45
sS'wavy'
p1657
I45
sS'zacapa'
p1658
I45
sS'dando'
p1659
I45
sS'deportados'
p1660
I45
sS'calenturas'
p1661
I45
sS'\xc2\xa1hola'
p1662
I45
sS'estabamos'
p1663
I45
sS'entendes'
p1664
I45
sS'entender'
p1665
I45
sS'atletico'
p1666
I45
sS'"pescadolieber"'
p1667
I45
sS'small'
p1668
I45
sS'bleeding'
p1669
I45
sS'terminanding'
p1670
I45
sS'\xe2\x9d\xa4'
p1671
I42
sS'video'
p1672
I45
sS'ummm'
p1673
I45
sS'\xc3\x89l'
p1674
I45
sS'graduating'
p1675
I45
sS'usando'
p1676
I45
sS'lmfao'
p1677
I45
sS'playa'
p1678
I45
sS'porfavor.,90011\n494707075541262337,r__y__c__h__,2014-07-31'
p1679
I45
sS'mouppet'
p1680
I45
sS'can'
p1681
I42
sS'lei'
p1682
I45
sS'mierdas'
p1683
I45
sS'herido'
p1684
I45
sS'leo'
p1685
I44
sS'les'
p1686
I35
sS'focused'
p1687
I45
sS'prefiere'
p1688
I45
sS'ley'
p1689
I43
sS'squirming'
p1690
I45
sS'paquiao'
p1691
I45
sS'prefiero'
p1692
I44
sS'extra\xc3\xb1o'
p1693
I44
sS'concepto,90011\n494720745948184576,r__y__c__h__,2014-07-31'
p1694
I45
sS'grandes'
p1695
I45
sS'clima'
p1696
I45
sS'thats'
p1697
I45
sS'fake'
p1698
I44
sS'tipico'
p1699
I44
sS'app'
p1700
I44
sS'clara'
p1701
I45
sS'anuncian'
p1702
I45
sS'>'
p1703
I45
sS'serias'
p1704
I45
sS'dejar'
p1705
I45
sS'from'
p1706
I41
sS'usa'
p1707
I44
sS'&'
p1708
I29
sS'uso'
p1709
I45
sS'feo'
p1710
I44
sS'next'
p1711
I44
sS'few'
p1712
I45
sS'chu'
p1713
I45
sS'cualquiera'
p1714
I45
sS'ironico'
p1715
I45
sS'babe'
p1716
I43
sS'defraudar'
p1717
I45
sS'porch'
p1718
I45
sS'duper'
p1719
I45
sS'sister'
p1720
I45
sS'voces'
p1721
I45
sS'precioso?-'
p1722
I45
sS'yomp'
p1723
I45
sS'baby'
p1724
I44
sS'ok'
p1725
I41
sS'this'
p1726
I34
sS'meet'
p1727
I45
sS'pedaleo'
p1728
I45
sS'tampoco'
p1729
I45
sS'sabe'
p1730
I44
sS'dedicar'
p1731
I45
sS'chickenbutter'
p1732
I45
sS'teniya'
p1733
I45
sS'plate'
p1734
I45
sS'espa\xc3\xb1a'
p1735
I45
sS'chish'
p1736
I44
sS'latinos.se'
p1737
I45
sS'llamare'
p1738
I45
sS'something'
p1739
I45
sS'tiran'
p1740
I45
sS'tal'
p1741
I44
sS'tan'
p1742
I43
sS'comes'
p1743
I45
sS'united'
p1744
I44
sS'vibe'
p1745
I45
sS'boxing'
p1746
I45
sS'centroamericano'
p1747
I45
sS'cual'
p1748
I42
sS'sin'
p1749
I41
sS'circular'
p1750
I45
sS'aguantan'
p1751
I45
sS'falta'
p1752
I42
sS'notebook'
p1753
I45
sS'pincheputota'
p1754
I45
sS'da'
p1755
I43
sS'stank'
p1756
I45
sS'cuddling'
p1757
I45
sS'infieles'
p1758
I45
sS'light'
p1759
I45
sS'counter'
p1760
I45
sS'corran'
p1761
I45
sS'serios'
p1762
I45
sS'noches'
p1763
I44
sS'guatemala"'
p1764
I45
sS'linea'
p1765
I45
sS'primero'
p1766
I45
sS'borro'
p1767
I45
sS'ofende'
p1768
I45
sS'directa'
p1769
I45
sS'promeme'
p1770
I45
sS'psga'
p1771
I45
sS"won't"
p1772
I45
sS'bunch'
p1773
I45
sS'thanking'
p1774
I45
sS'le'
p1775
I33
sS'cristo"'
p1776
I45
sS'la'
p1777
I5
sS'rojo'
p1778
I44
sS'lo'
p1779
I16
sS'[pic]'
p1780
I45
sS'madre'
p1781
I44
sS'05:37:30.0,33.9903457,-118.2482306,2291,realmente'
p1782
I45
sS'2011'
p1783
I45
sS'dam'
p1784
I45
sS'nada'
p1785
I38
sS'cago'
p1786
I45
sS'day'
p1787
I43
sS'importante'
p1788
I45
sS'katty'
p1789
I45
sS'recuerdo'
p1790
I44
sS'-mamaaa'
p1791
I45
sS'moda'
p1792
I45
sS'prioridades'
p1793
I45
sS'traspaso'
p1794
I45
sS'photoshopear'
p1795
I45
sS'myself'
p1796
I45
sS"veneno's"
p1797
I45
sS'bueno'
p1798
I42
sS'mija'
p1799
I45
sS'buena'
p1800
I44
sS'mijo'
p1801
I45
sS'tuirer'
p1802
I45
sS'mira'
p1803
I43
sS'sexual'
p1804
I45
sS'meto'
p1805
I45
sS'out'
p1806
I39
sS'grito'
p1807
I45
sS'camiseta'
p1808
I45
sS'depresion'
p1809
I45
sS'causa'
p1810
I45
sS'cause'
p1811
I43
sS'red'
p1812
I45
sS'qur'
p1813
I45
sS'perreo'
p1814
I45
sS'change'
p1815
I45
sS'\xe2\x80\x9csometimes'
p1816
I45
sS'princesa'
p1817
I45
sS'que'
p1818
I2
sS'enviara'
p1819
I45
sS'contigo'
p1820
I45
sS'peeve'
p1821
I45
sS'06:04:27.0,33.9907052,-118.2485262,2291,pute'
p1822
I45
sS'(8)'
p1823
I45
sS'times'
p1824
I45
sS'hacerte'
p1825
I45
sS'chalupa'
p1826
I44
sS'mortal'
p1827
I45
sS'mayas"'
p1828
I45
sS'south'
p1829
I43
sS'terromoto'
p1830
I45
sS'saco'
p1831
I45
sS'chana"'
p1832
I45
sS'bitch'
p1833
I43
sS'espera'
p1834
I45
sS"you're"
p1835
I45
sS'start'
p1836
I45
sS'be"'
p1837
I45
sS'lamentabla'
p1838
I44
sS'wins-'
p1839
I45
sS'their'
p1840
I44
sS'final'
p1841
I43
sS'nobody'
p1842
I44
sS'poetuit'
p1843
I45
sS'biggest'
p1844
I45
sS"nah?it's"
p1845
I45
sS'05:03:28.0,33.9903715,-118.2481766,2291,no'
p1846
I45
sS'sex'
p1847
I45
sS'coughed'
p1848
I45
sS'loved'
p1849
I45
sS'danyel'
p1850
I45
sS'sabido'
p1851
I45
sS'canales3y7'
p1852
I45
sS'bed'
p1853
I45
sS'enterandome'
p1854
I45
sS'tonight'
p1855
I44
sS'ahorrar'
p1856
I45
sS'mornings'
p1857
I45
sS'6to'
p1858
I45
sS'have'
p1859
I40
sS'need'
p1860
I45
sS'mil'
p1861
I45
sS'haciendo'
p1862
I44
sS'babes'
p1863
I45
sS'lindo'
p1864
I44
sS'equivocarme'
p1865
I45
sS'mis'
p1866
I45
sS'lugar'
p1867
I45
sS'book....now'
p1868
I45
sS'who'
p1869
I44
sS'pensando'
p1870
I45
sS'intentions'
p1871
I45
sS'forreal'
p1872
I45
sS'why'
p1873
I44
sS'putas'
p1874
I45
sS'face'
p1875
I45
sS"you'll"
p1876
I43
sS'talk'
p1877
I45
sS'nochez'
p1878
I45
sS'positivity'
p1879
I45
sS'atributos'
p1880
I45
sS'oreos'
p1881
I45
sS'"estamos'
p1882
I45
sS'\xc3\xb1ooooooo'
p1883
I45
sS'dije'
p1884
I44
sS'bring'
p1885
I45
sS'fricciones'
p1886
I45
sS'2morrow'
p1887
I45
sS'suceptibles'
p1888
I45
sS'('
p1889
I43
sS'terminar'
p1890
I45
sS'should'
p1891
I43
sS'pensar'
p1892
I45
sS'perdon'
p1893
I45
sS'he'
p1894
I41
sS'libro'
p1895
I45
sS'hope'
p1896
I45
sS'watching'
p1897
I45
sS'circulando'
p1898
I45
sS'overall'
p1899
I45
sS'tbh'
p1900
I45
sS'ones'
p1901
I44
sS'werent'
p1902
I45
sS'juro."-'
p1903
I45
sS'funcionaron'
p1904
I45
sS'indirecta'
p1905
I44
sS'borrachitas'
p1906
I45
sS'colo'
p1907
I45
sS'partir'
p1908
I45
sS'ganar'
p1909
I45
sS'ganas'
p1910
I44
sS'uuuyy'
p1911
I45
sS'she'
p1912
I44
sS'gran'
p1913
I43
sS'vayan'
p1914
I44
sS'fixed'
p1915
I45
sS'entrara'
p1916
I45
sS'btw'
p1917
I45
sS'perdido'
p1918
I45
sS'lamar'
p1919
I45
sS'humano'
p1920
I45
sS'mexicana'
p1921
I45
sS'pasen'
p1922
I45
sS'masivo'
p1923
I45
sS'mexicans'
p1924
I45
sS'cruda'
p1925
I45
sS'cristiano'
p1926
I45
sS'experiencia'
p1927
I45
sS'hardwell'
p1928
I45
sS'recaudar'
p1929
I44
sS'key'
p1930
I45
sS'rapero'
p1931
I45
sS'david'
p1932
I45
sS'figured'
p1933
I45
sS'aqui'
p1934
I39
sS'career'
p1935
I45
sS'conocido'
p1936
I45
sS'jajajajajajajajajajajaja'
p1937
I45
sS'sencillo'
p1938
I44
sS'irresponsable'
p1939
I45
sS'ca'
p1940
I45
sS'llegado'
p1941
I44
sS'escudo'
p1942
I45
sS'desperto'
p1943
I45
sS'table'
p1944
I45
sS'rubias'
p1945
I45
sS'tiene'
p1946
I39
sS"it's"
p1947
I42
sS'faltar'
p1948
I45
sS'bby'
p1949
I45
sS'ah'
p1950
I45
sS'cena'
p1951
I45
sS'equipo'
p1952
I45
sS'define'
p1953
I45
sS'hernandez'
p1954
I43
sS'hmu'
p1955
I45
sS'coche'
p1956
I45
sS'mundo'
p1957
I45
sS'falling'
p1958
I45
sS'desamor'
p1959
I45
sS'unlike'
p1960
I45
sS'7-3'
p1961
I45
sS'"galanes'
p1962
I45
sS'will'
p1963
I43
sS'contexto'
p1964
I45
sS'dude'
p1965
I45
sS'"abuelos'
p1966
I45
sS'ultra'
p1967
I45
sS'matame'
p1968
I45
sS'va'
p1969
I35
sS've'
p1970
I43
sS'fondo'
p1971
I45
sS'almost'
p1972
I44
sS'vi'
p1973
I45
sS'pesca'
p1974
I45
sS'despues'
p1975
I45
sS'vs'
p1976
I44
sS'acidez'
p1977
I45
sS'partynextdoor'
p1978
I45
sS'claimed'
p1979
I45
sS'sociales'
p1980
I45
sS')'
p1981
I43
sS'o.o\xe2\x80\x9d'
p1982
I45
sS'dandole'
p1983
I45
sS'clase'
p1984
I45
sS'sharapova'
p1985
I45
sS'another'
p1986
I45
sS'hendricks'
p1987
I44
sS'comportate'
p1988
I45
sS'gets'
p1989
I44
sS'dan'
p1990
I44
sS'yooo'
p1991
I45
sS'supuesta'
p1992
I45
sS'emotionally'
p1993
I45
sS'$745'
p1994
I45
sS'-_______-'
p1995
I45
sS'tambien'
p1996
I43
sS'bullying'
p1997
I45
sS'ion'
p1998
I45
sS'fucken'
p1999
I44
sS'repitiendo'
p2000
I45
sS'caaaalorssshhhh'
p2001
I45
sS'//'
p2002
I44
sS'off'
p2003
I41
sS'i'
p2004
I7
sS'well'
p2005
I44
sS'aparte'
p2006
I44
sS'thought'
p2007
I43
sS'perfectos'
p2008
I45
sS'pendiente'
p2009
I43
sS'harto'
p2010
I45
sS'uno'
p2011
I45
sS'onda'
p2012
I44
sS'less'
p2013
I45
sS'05:14:38.0,33.9905317,-118.2482031,2291,y'
p2014
I45
sS'momento'
p2015
I45
sS'happiness'
p2016
I43
sS'quiero'
p2017
I44
sS'estupidez'
p2018
I45
sS'quiere'
p2019
I45
sS'vida'
p2020
I40
sS'drunk'
p2021
I45
sS":')brotherhood"
p2022
I45
sS'nacional'
p2023
I44
sS'sonrisa'
p2024
I44
sS'crack'
p2025
I45
sS'kick'
p2026
I45
sS'lleno'
p2027
I45
sS'quirra'
p2028
I45
sS'so\xc3\xb1ando'
p2029
I45
sS'bacelona'
p2030
I45
sS'historia'
p2031
I42
sS'know'
p2032
I39
sS'ense\xc3\xb1ando'
p2033
I44
sS'necessary'
p2034
I45
sS'like'
p2035
I35
sS'lost'
p2036
I43
sS'disfruto'
p2037
I45
sS'cosas'
p2038
I44
sS'soft'
p2039
I45
sS'regresar'
p2040
I45
sS'cagan'
p2041
I45
sS'nigga'
p2042
I44
sS'otras'
p2043
I45
sS'dieron'
p2044
I45
sS'scared'
p2045
I45
sS'hair'
p2046
I43
sS'leert'
p2047
I45
sS'sunderland'
p2048
I45
sS'enfermo'
p2049
I45
sS'preguntando'
p2050
I45
sS'home'
p2051
I42
sS'car!:0'
p2052
I45
sS'tmw'
p2053
I45
sS'pues'
p2054
I37
sS'andaaa....!!!,90011\n494350330335735808,r__y__c__h__,2014-07-30'
p2055
I45
sS'grinding'
p2056
I45
sS'ese'
p2057
I43
sS'does'
p2058
I45
sS'keystone'
p2059
I45
sS'esa'
p2060
I41
sS'eso'
p2061
I31
sS'saludenme'
p2062
I45
sS'puedo'
p2063
I44
sS'usan'
p2064
I45
sS'tuuuuu'
p2065
I45
sS'artois'
p2066
I45
sS'escuchando'
p2067
I45
sS'about'
p2068
I43
sS'rare'
p2069
I45
sS'getting'
p2070
I45
sS'l\xc3\xa1stima'
p2071
I45
sS'amatitl\xc3\xa1n'
p2072
I45
sS'iknow'
p2073
I45
sS'hot'
p2074
I45
sS'cadena'
p2075
I44
sS'reggea'
p2076
I45
sS'swear'
p2077
I44
sS'tongue'
p2078
I45
sS'zz\xc5\xbazzzzzzz\xc5\xba'
p2079
I45
sS'own'
p2080
I44
sS'artista'
p2081
I45
sS'panam\xc3\xa1'
p2082
I45
sS'donde'
p2083
I40
sS'promise'
p2084
I45
sS'forget'
p2085
I45
sS'compadre'
p2086
I45
sS'van'
p2087
I42
sS'esperando'
p2088
I44
sS'daniels'
p2089
I45
sS'produccion'
p2090
I45
sS'adelante'
p2091
I44
sS'vas'
p2092
I41
sS'sexuales'
p2093
I45
sS'muerte'
p2094
I45
sS'entiendelo'
p2095
I45
sS'demas'
p2096
I44
sS'buy'
p2097
I45
sS"i've"
p2098
I45
sS'but'
p2099
I38
sS'ultima'
p2100
I45
sS'goals'
p2101
I45
sS'que?!,90011\n494718669058887680,r__y__c__h__,2014-07-31'
p2102
I45
sS'ha'
p2103
I45
sS'ultimo'
p2104
I45
sS'bue'
p2105
I37
sS'rumbo'
p2106
I45
sS'made'
p2107
I44
sS'calls'
p2108
I45
sS'ccsd'
p2109
I45
sS'itif'
p2110
I45
sS'pl'
p2111
I45
sS'cobrarian'
p2112
I45
sS'\xc2\xbf'
p2113
I45
sS'recognize'
p2114
I45
sS'tuitea'
p2115
I45
sS'disfrutar'
p2116
I45
sS'twist'
p2117
I45
sS'"so'
p2118
I45
sS'mejor'
p2119
I38
sS'cronaldo'
p2120
I45
sS'demostro'
p2121
I45
sS'tuiter'
p2122
I45
sS'diego'
p2123
I43
sS'ciudad'
p2124
I45
sS'other'
p2125
I43
sS'sick'
p2126
I45
sS'parecido'
p2127
I45
sS'anuncios'
p2128
I45
sS'ladina'
p2129
I45
sS'chance'
p2130
I45
sS'moupet\xc3\xada'
p2131
I45
sS'millones'
p2132
I45
sS'else'
p2133
I45
sS'friends'
p2134
I45
sS'reclamo'
p2135
I45
sS'this\xe2\x80\xa6'
p2136
I45
sS'madrugue'
p2137
I45
s.