(dp0
S''
p1
I2
sS'all'
p2
I12
sS':)'
p3
I13
sS'dance'
p4
I11
sS'month'
p5
I12
sS'known'
p6
I13
sS'sleep'
p7
I13
sS'go'
p8
I12
sS'chestpains'
p9
I13
sS'venice'
p10
I13
sS'buddy'
p11
I13
sS'father'
p12
I13
sS'to'
p13
I5
sS'center)'
p14
I13
sS'dwts'
p15
I13
sS'little'
p16
I13
sS'brother'
p17
I13
sS':]'
p18
I13
sS'enjoy'
p19
I13
sS'corner'
p20
I13
sS'drinks'
p21
I13
sS'even'
p22
I13
sS'what'
p23
I12
sS'new'
p24
I13
sS'told'
p25
I13
sS'never'
p26
I12
sS'here'
p27
I12
sS'\xe2\x9c\xa8\xe2\x9c\xa8\xe2\x9d\xa4\xef\xb8\x8f\xe2\x9c\xa8'
p28
I13
sS'let'
p29
I11
sS'separation'
p30
I13
sS'making'
p31
I13
sS'wait'
p32
I13
sS'sportscenter'
p33
I13
sS'soon.\xe2\x80\x9d'
p34
I13
sS"would've"
p35
I12
sS"i'm"
p36
I12
sS"dad's"
p37
I13
sS'love'
p38
I11
sS'south\xe2\x80\xa6'
p39
I13
sS'wit'
p40
I11
sS'use'
p41
I13
sS'from'
p42
I12
sS'next'
p43
I13
sS'music'
p44
I13
sS'until'
p45
I13
sS'quebrame'
p46
I13
sS'haha'
p47
I13
sS'account(just'
p48
I13
sS'baby'
p49
I13
sS'me'
p50
I8
sS'refrescante'
p51
I12
sS'niggas'
p52
I13
sS'this'
p53
I11
sS'netflix'
p54
I13
sS'can'
p55
I10
sS'meet'
p56
I13
sS'male'
p57
I13
sS'my'
p58
I3
sS'crazy'
p59
I13
sS'fucc'
p60
I13
sS"didn't"
p61
I13
sS'fuck'
p62
I12
sS'high'
p63
I13
sS'villain'
p64
I13
sS'his'
p65
I13
sS'something'
p66
I13
sS'sis'
p67
I13
sS'hoe'
p68
I12
sS'id'
p69
I13
sS'needa'
p70
I13
sS'how'
p71
I13
sS'if'
p72
I11
sS'sweat'
p73
I13
sS'ceremony'
p74
I13
sS'after'
p75
I13
sS'santos'
p76
I13
sS'lab'
p77
I13
sS'birthday'
p78
I13
sS'mad'
p79
I13
sS'arch'
p80
I13
sS'man'
p81
I11
sS'a'
p82
I5
sS'mango'
p83
I13
sS'so'
p84
I9
sS'cascada'
p85
I12
sS'allow'
p86
I12
sS'things'
p87
I13
sS'talk'
p88
I12
sS'mexican'
p89
I13
sS'shoes'
p90
I13
sS"don't"
p91
I12
sS'course'
p92
I13
sS'hell'
p93
I13
sS'still'
p94
I12
sS'la'
p95
I13
sS'interesting'
p96
I13
sS'actually'
p97
I12
sS'orange'
p98
I13
sS'2014'
p99
I13
sS'bout'
p100
I13
sS'back.oh'
p101
I13
sS'then'
p102
I12
sS'someone'
p103
I12
sS'ya'
p104
I11
sS'docs'
p105
I13
sS'they'
p106
I12
sS'half'
p107
I13
sS'not'
p108
I13
sS'now'
p109
I12
sS'yesssss'
p110
I13
sS'day'
p111
I13
sS'wagon'
p112
I13
sS'alex'
p113
I13
sS'james'
p114
I13
sS'doing'
p115
I13
sS'turnin'
p116
I13
sS'yeah'
p117
I13
sS'forgot'
p118
I12
sS'our'
p119
I13
sS'girl'
p120
I12
sS'saturday'
p121
I12
sS'really'
p122
I12
sS'7'
p123
I13
sS'internet'
p124
I13
sS'got'
p125
I13
sS'induction'
p126
I13
sS'ass'
p127
I12
sS'liddo'
p128
I13
sS'put'
p129
I12
sS'scary'
p130
I13
sS'could'
p131
I13
sS'thing'
p132
I13
sS'afternoon'
p133
I13
sS'south'
p134
I13
sS'first'
p135
I13
sS'one'
p136
I12
sS'sisters'
p137
I13
sS'bitch'
p138
I9
sS'another'
p139
I13
sS'spanish'
p140
I13
sS'tomorrow'
p141
I13
sS'guess'
p142
I13
sS'start'
p143
I13
sS'5th'
p144
I13
sS'their'
p145
I13
sS'fml'
p146
I13
sS'mama'
p147
I13
sS'white'
p148
I13
sS'kid'
p149
I13
sS'store'
p150
I13
sS'that'
p151
I6
sS'season'
p152
I13
sS'explanation'
p153
I13
sS'park'
p154
I11
sS'believe'
p155
I13
sS'subbed'
p156
I13
sS'boyfriend'
p157
I13
sS'anxiety'
p158
I13
sS'gotten'
p159
I13
sS'eyebrowssssss'
p160
I13
sS'shower'
p161
I13
sS'stalk'
p162
I13
sS'loves'
p163
I13
sS'feeling'
p164
I13
sS'anyways'
p165
I13
sS'and'
p166
I8
sS'tht'
p167
I13
sS'pro'
p168
I13
sS'fuuuuuuud'
p169
I13
sS'dictate'
p170
I13
sS'need'
p171
I9
sS'saw'
p172
I13
sS'didint'
p173
I13
sS'lil'
p174
I12
sS'take'
p175
I13
sS'play'
p176
I13
sS'sure'
p177
I11
sS'who'
p178
I11
sS'voice*'
p179
I13
sS'why'
p180
I13
sS'grove'
p181
I13
sS'doggie'
p182
I13
sS'dog'
p183
I11
sS'looked'
p184
I13
sS'dos'
p185
I13
sS'ugh'
p186
I13
sS'bring'
p187
I13
sS'immaturity'
p188
I13
sS'aint'
p189
I13
sS'('
p190
I12
sS'should'
p191
I13
sS'only'
p192
I13
sS'black'
p193
I13
sS'riding'
p194
I12
sS'hope'
p195
I13
sS'do'
p196
I11
sS'chill\xe2\x9c\x8b'
p197
I13
sS"casey's"
p198
I13
sS'watch'
p199
I12
sS'b'
p200
I13
sS'nasty'
p201
I13
sS'is'
p202
I7
sS'southcentral'
p203
I13
sS'tights'
p204
I13
sS'bad'
p205
I13
sS'she'
p206
I12
sS'where'
p207
I13
sS"y'all"
p208
I13
sS'see'
p209
I13
sS'are'
p210
I11
sS'close'
p211
I13
sS'best'
p212
I13
sS'knees'
p213
I13
sS'said'
p214
I13
sS'24/7'
p215
I13
sS'solo'
p216
I13
sS'we'
p217
I13
sS'attention'
p218
I12
sS'however'
p219
I13
sS'boss'
p220
I13
sS'hbff'
p221
I13
sS'come'
p222
I13
sS'hours'
p223
I13
sS'last'
p224
I13
sS"he's"
p225
I13
sS'sip'
p226
I13
sS'brag'
p227
I13
sS'madness'
p228
I13
sS'period'
p229
I13
sS'community'
p230
I13
sS'laugh'
p231
I13
sS'poe'
p232
I13
sS'duh'
p233
I13
sS'poed'
p234
I13
sS'muddy'
p235
I13
sS'been'
p236
I13
sS'hitting'
p237
I13
sS'*joselines'
p238
I13
sS'damn'
p239
I13
sS'pm'
p240
I13
sS'vans'
p241
I13
sS'shopping'
p242
I13
sS'silverlake'
p243
I12
sS'those'
p244
I13
sS'chill'
p245
I13
sS'save'
p246
I13
sS'these'
p247
I13
sS'will'
p248
I13
sS'fun'
p249
I13
sS'showers'
p250
I13
sS'mexico'
p251
I13
sS'almost'
p252
I13
sS'pub)'
p253
I13
sS'it'
p254
I12
sS'good'
p255
I12
sS'punched'
p256
I13
sS'in'
p257
I8
sS'fame'
p258
I13
sS'backstabbing'
p259
I13
sS'different'
p260
I13
sS'barney'
p261
I13
sS'\xe2\x99\xa1\xe2\x99\xa1\xe2\x99\xa1'
p262
I13
sS'anymore'
p263
I13
sS'pay'
p264
I12
sS'stepped'
p265
I13
sS'gets'
p266
I13
sS'daughters'
p267
I13
sS'wheel'
p268
I13
sS'hang'
p269
I13
sS'avalon-carver'
p270
I13
sS'fucked'
p271
I13
sS'video.im'
p272
I13
sS'i'
p273
I1
sS'changes'
p274
I13
sS'no'
p275
I13
sS'tho'
p276
I13
sS'mother'
p277
I13
sS'y'
p278
I13
sS'the'
p279
I4
sS'just'
p280
I10
sS'being'
p281
I13
sS'money'
p282
I12
sS'hands'
p283
I13
sS'transporting'
p284
I13
sS'happiness'
p285
I13
sS'cus'
p286
I13
sS'bombbbb'
p287
I13
sS'hall'
p288
I13
sS'has'
p289
I13
sS'kick'
p290
I13
sS'real'
p291
I12
sS'around'
p292
I13
sS'gonna'
p293
I13
sS'know'
p294
I12
sS'password'
p295
I13
sS'like'
p296
I12
sS'specific'
p297
I13
sS'desmadre'
p298
I13
sS'have'
p299
I12
sS'always'
p300
I13
sS'chick'
p301
I13
sS'right'
p302
I13
sS'old'
p303
I13
sS'people'
p304
I12
sS'some'
p305
I13
sS'back'
p306
I13
sS'hair'
p307
I13
sS'born'
p308
I13
sS'tonight)'
p309
I13
sS'for'
p310
I10
sS'la.about'
p311
I13
sS'lean'
p312
I13
sS'be'
p313
I12
sS'schedule'
p314
I13
sS'bm'
p315
I13
sS'reguardless'
p316
I13
sS'((('
p317
I13
sS'super'
p318
I13
sS'by'
p319
I13
sS'on'
p320
I9
sS'about'
p321
I13
sS'central'
p322
I13
sS'getting'
p323
I11
sS'of'
p324
I7
sS'angeles'
p325
I12
sS'*it'
p326
I13
sS'stand'
p327
I13
sS'wanna'
p328
I13
sS'or'
p329
I12
sS'own'
p330
I13
sS'lied'
p331
I13
sS'maslow'
p332
I13
sS'down'
p333
I13
sS'nigga'
p334
I13
sS'couldnt'
p335
I13
sS'your'
p336
I13
sS'buds'
p337
I13
sS'her'
p338
I13
sS'there'
p339
I13
sS'lol'
p340
I10
sS'class'
p341
I13
sS'los'
p342
I12
sS'way'
p343
I13
sS'was'
p344
I10
sS'bus'
p345
I13
sS'bitches'
p346
I12
sS'but'
p347
I11
sS'heat'
p348
I13
sS'goals'
p349
I13
sS'with'
p350
I9
sS'he'
p351
I11
sS'inside'
p352
I13
sS'up'
p353
I11
sS'tell'
p354
I13
sS'crystal'
p355
I13
sS'today'
p356
I13
sS'irish'
p357
I13
sS'stealing'
p358
I13
sS'am'
p359
I13
sS'life'
p360
I13
sS'at'
p361
I10
sS'et'
p362
I13
sS'shit'
p363
I10
sS'again'
p364
I13
sS'nae'
p365
I12
sS'when'
p366
I11
sS'bragging'
p367
I13
sS'you'
p368
I9
sS'out'
p369
I13
sS'brothers'
p370
I13
sS'football'
p371
I13
sS'stay'
p372
I13
sS'espn2\xc2\xa0-via'
p373
I13
sS'scores'
p374
I13
sS"in'"
p375
I13
sS'friends'
p376
I12
sS'ago'
p377
I12
sS'im'
p378
I12
sS'carts'
p379
I13
sS'time'
p380
I13
s.