(dp0
S''
p1
I6
sS'all'
p2
I22
sS':('
p3
I26
sS'celebs'
p4
I26
sS'ohmygawd'
p5
I26
sS'gf'
p6
I26
sS'sleep'
p7
I26
sS'thirst'
p8
I26
sS'shit,90062\n494305736596267008,akakanow,2014-07-30'
p9
I26
sS'skin'
p10
I26
sS'go'
p11
I18
sS'follow'
p12
I9
sS'hijos'
p13
I26
sS'conversation'
p14
I26
sS'hate'
p15
I22
sS'(which'
p16
I26
sS'asada'
p17
I26
sS'feeding'
p18
I26
sS'yummy'
p19
I26
sS'seriously'
p20
I26
sS'send'
p21
I26
sS'answered'
p22
I26
sS'finally'
p23
I26
sS'promoting'
p24
I26
sS'street,90062\n492571585539108864,monterrozajose,2014-07-25'
p25
I26
sS'sent'
p26
I26
sS'shoot'
p27
I26
sS'woman'
p28
I23
sS'far'
p29
I26
sS'00:54:04.0,34.01582276,-118.31169491,2314,espys,90062\n489064255635742723,tonyshitdope,2014-07-15'
p30
I26
sS'3weeks'
p31
I26
sS'vespa'
p32
I26
sS'vegan'
p33
I26
sS'tacos'
p34
I26
sS'worst'
p35
I25
sS'untaxed'
p36
I26
sS'daily'
p37
I26
sS':p'
p38
I26
sS'margarita'
p39
I26
sS'olaf'
p40
I26
sS'level'
p41
I26
sS'tixmaster'
p42
I26
sS'die'
p43
I26
sS'02:44:50.0,34.01098188,-118.31344388,2314,heyy'
p44
I26
sS'gun'
p45
I26
sS'turnt'
p46
I26
sS'proud'
p47
I26
sS'try'
p48
I26
sS'solid'
p49
I26
sS'vibes'
p50
I26
sS'red'
p51
I26
sS'team'
p52
I26
sS'quick'
p53
I26
sS'deleting'
p54
I26
sS'03:41:13.0,34.0148378,-118.3094699,2314,pasadena'
p55
I26
sS'cookies'
p56
I25
sS'work'
p57
I22
sS'says'
p58
I25
sS"21:02:05.0,34.01233942,-118.30902223,2314,it's"
p59
I26
sS'freakin'
p60
I26
sS'yasssss'
p61
I26
sS'waking'
p62
I25
sS'past'
p63
I26
sS'second'
p64
I26
sS'street'
p65
I26
sS'video'
p66
I25
sS'pass'
p67
I26
sS'ummm'
p68
I26
sS'jesus'
p69
I26
sS'what'
p70
I17
sS'hide'
p71
I25
sS'christ'
p72
I26
sS'+'
p73
I26
sS'02:15:24.0,34.01807426,-118.30892863,2314,peds'
p74
I26
sS'addy'
p75
I26
sS'milk'
p76
I26
sS'3k'
p77
I26
sS'goes'
p78
I26
sS'sup'
p79
I26
sS'new'
p80
I25
sS'21:13:43.0,34.0180958,-118.30893097,2314,champion'
p81
I26
sS'ever'
p82
I26
sS'told'
p83
I26
sS'body'
p84
I25
sS'some.,90062\n489576660266536960,tonyshitdope,2014-07-17'
p85
I26
sS'full'
p86
I26
sS'house?,90062\n330081311354146816,franster00,2013-05-02'
p87
I26
sS'8=\xe2\x9c\x8a==d,90062\n491836770703536128,tonyshitdope,2014-07-23'
p88
I26
sS'never'
p89
I25
sS'(los'
p90
I17
sS'04:59:20.0,34.01823229,-118.3131589,2314,if'
p91
I26
sS'liquors'
p92
I26
sS'expo/western'
p93
I26
sS'let'
p94
I24
sS'address'
p95
I26
sS'active'
p96
I26
sS'sexy'
p97
I25
sS'along'
p98
I26
sS'change'
p99
I26
sS'great'
p100
I25
sS'metro'
p101
I18
sS'septum'
p102
I26
sS'pics'
p103
I24
sS"i'd"
p104
I25
sS"i'm"
p105
I9
sS'holmes'
p106
I26
sS'motherfucking'
p107
I26
sS',90062\n512775639003181059,love_emily13,2014-09-19'
p108
I26
sS'love'
p109
I21
sS'bitch,90062\n519634634858983425,katvonschweetz,2014-10-07'
p110
I26
sS'family'
p111
I25
sS'win'
p112
I26
sS'put'
p113
I26
sS'wit'
p114
I25
sS',90062\n478346920373395457,bigbeliebero9x,2014-06-16'
p115
I26
sS'total'
p116
I26
sS'yourself'
p117
I26
sS'from'
p118
I23
sS'takes'
p119
I26
sS'working'
p120
I26
sS'to'
p121
I2
sS'dude'
p122
I24
sS'only'
p123
I23
sS'intense'
p124
I26
sS'few'
p125
I26
sS'ca)'
p126
I17
sS'music'
p127
I25
sS'iphone'
p128
I26
sS'unfortunately'
p129
I26
sS'taken'
p130
I26
sS'06:04:10.0,34.01445548,-118.30997317,2314,goood'
p131
I26
sS'tryin'
p132
I26
sS'good.,90062\n489653600746893312,tonyshitdope,2014-07-17'
p133
I26
sS'tell'
p134
I25
sS'today'
p135
I22
sS'more'
p136
I24
sS'tryna'
p137
I26
sS'relax'
p138
I26
sS'club'
p139
I26
sS'flying'
p140
I26
sS'mad'
p141
I26
sS'haha'
p142
I26
sS'it'
p143
I20
sS'phone'
p144
I26
sS'train'
p145
I25
sS'everywhere'
p146
I26
sS'baby'
p147
I26
sS',90062\n500793172608708608,princessmiggy_,2014-08-16'
p148
I26
sS'locksmith'
p149
I26
sS'glad'
p150
I26
sS'me'
p151
I4
sS'tomorrow.,90062\n511016824817729537,de274r,2014-09-14'
p152
I26
sS'niggas'
p153
I23
sS'this'
p154
I19
sS'getting'
p155
I25
sS'refusing'
p156
I26
sS'donut'
p157
I26
sS'tiiiiime'
p158
I26
sS'days,90062\n519634975922978817,katvonschweetz,2014-10-07'
p159
I26
sS'can'
p160
I24
sS'cam'
p161
I25
sS'of'
p162
I11
sS'following'
p163
I26
sS'making'
p164
I26
sS'my'
p165
I7
sS'history'
p166
I26
sS'beautiful'
p167
I26
sS'crazy'
p168
I26
sS',90062\n478345585678749696,bigbeliebero9x,2014-06-16'
p169
I26
sS'00:47:49.0,34.01676247,-118.31400231,2314,been'
p170
I26
sS'awesome'
p171
I26
sS'share'
p172
I25
sS'fuck'
p173
I25
sS'ready'
p174
I26
sS'home.,90062\n338898401510965248,franster00,2013-05-27'
p175
I26
sS'acacia'
p176
I26
sS'want'
p177
I24
sS'offense'
p178
I26
sS'station'
p179
I19
sS'dress'
p180
I26
sS'cusa,90062\n491830863059906562,tonyshitdope,2014-07-23'
p181
I26
sS',90062\n478346962639388673,bigbeliebero9x,2014-06-16'
p182
I26
sS'needs'
p183
I26
sS'sideline'
p184
I26
sS'sit'
p185
I26
sS'watching'
p186
I26
sS'till'
p187
I26
sS'hop'
p188
I26
sS',90062\n478346007076298753,bigbeliebero9x,2014-06-16'
p189
I26
sS'intelligent'
p190
I26
sS"usc's"
p191
I26
sS'01:30:13.0,34.01163252,-118.30917128,2314,excuse'
p192
I26
sS'plans'
p193
I24
sS'fw'
p194
I26
sS'mess'
p195
I26
sS'stop'
p196
I26
sS'after'
p197
I25
sS'spot'
p198
I26
sS'yacusa'
p199
I26
sS'wrong'
p200
I25
sS'birthday'
p201
I26
sS'lax'
p202
I26
sS'fat'
p203
I26
sS'such'
p204
I26
sS'coast'
p205
I26
sS'guys'
p206
I25
sS'destiney'
p207
I26
sS'man'
p208
I25
sS'a'
p209
I3
sS'stress'
p210
I26
sS'light'
p211
I25
sS'cigarettes'
p212
I26
sS'so'
p213
I16
sS'ultimate'
p214
I26
sS'things'
p215
I26
sS',90062\n512808797102800896,dmian_123,2014-09-19'
p216
I26
sS'putting'
p217
I26
sS'sa'
p218
I22
sS'edwin'
p219
I26
sS'talk'
p220
I26
sS"that's"
p221
I24
sS'cute'
p222
I26
sS'14:55:58.0,34.01660529,-118.31407717,2314,i'
p223
I26
sS'mexican'
p224
I26
sS'producer'
p225
I26
sS"don't"
p226
I22
sS'over'
p227
I25
sS'shit.,90062\n490607112163041281,tonyshitdope,2014-07-19'
p228
I26
sS'midnight'
p229
I26
sS'years'
p230
I25
sS'isnt'
p231
I26
sS'through'
p232
I26
sS'cold'
p233
I26
sS'still'
p234
I23
sS'mayor'
p235
I26
sS'07:26:17.0,34.01570143,-118.31174067,2314,man'
p236
I26
sS'cheesecake"'
p237
I26
sS'nothing!,90062\n519634186739544065,katvonschweetz,2014-10-07'
p238
I26
sS'police'
p239
I25
sS'thank'
p240
I25
sS'twitter'
p241
I26
sS'how'
p242
I25
sS'dope!,90062\n330166042938712064,franster00,2013-05-03'
p243
I26
sS'him'
p244
I26
sS'better'
p245
I24
sS',90062\n478346752647393280,bigbeliebero9x,2014-06-16'
p246
I26
sS',90062\n519632773762404352,katvonschweetz,2014-10-07'
p247
I26
sS'thanx'
p248
I26
sS'soccer'
p249
I26
sS'might'
p250
I26
sS',90062\n500172363049480193,princessmiggy_,2014-08-15'
p251
I26
sS'them'
p252
I26
sS'good'
p253
I21
sS',90062\n478346947514740736,bigbeliebero9x,2014-06-16'
p254
I26
sS'ya'
p255
I25
sS"jack's"
p256
I25
sS'window.,90062\n491830444338331648,tonyshitdope,2014-07-23'
p257
I26
sS'mouth\xe2\x80\x9d'
p258
I26
sS'zac'
p259
I10
sS'dat'
p260
I26
sS'sweets'
p261
I25
sS'they'
p262
I20
sS'half'
p263
I26
sS'not'
p264
I19
sS'olvera'
p265
I26
sS'now'
p266
I24
sS'day'
p267
I21
sS'03:41:59.0,34.0148115,-118.3162624,2314,have'
p268
I26
sS'name'
p269
I26
sS'always'
p270
I24
sS'nfl'
p271
I25
sS'each'
p272
I25
sS'went'
p273
I26
sS'funny'
p274
I26
sS"ya'll"
p275
I25
sS'side'
p276
I25
sS'bitch'
p277
I26
sS'el'
p278
I26
sS'en'
p279
I26
sS'drizzy'
p280
I26
sS'house'
p281
I26
sS'twitta'
p282
I26
sS'brodie'
p283
I26
sS'girl'
p284
I24
sS'panda?,90062\n327478696153853953,franster00,2013-04-25'
p285
I26
sS'saturday'
p286
I26
sS'braided'
p287
I26
sS'out'
p288
I19
sS'rt'
p289
I25
sS'lin?,90062\n487479017247764481,tonyshitdope,2014-07-11'
p290
I26
sS'lipstick'
p291
I26
sS'god'
p292
I24
sS'childish'
p293
I26
sS'23:44:06.0,34.01657726,-118.31401954,2314,i'
p294
I26
sS'accounts.,90062\n487420573715136514,tonyshitdope,2014-07-11'
p295
I26
sS',90062\n500175263008034816,princessmiggy_,2014-08-15'
p296
I26
sS'watch.\xe2\x80\x9d'
p297
I26
sS'acting'
p298
I26
sS"shouldn't"
p299
I25
sS'gping'
p300
I26
sS'smh'
p301
I25
sS'got'
p302
I20
sS',90062\n478346916938264576,bigbeliebero9x,2014-06-16'
p303
I26
sS'ya.,90062\n491831687861399552,tonyshitdope,2014-07-23'
p304
I26
sS'nudes'
p305
I26
sS'tecate'
p306
I26
sS'ass'
p307
I23
sS'textin'
p308
I26
sS'earlier'
p309
I26
sS'city'
p310
I26
sS'friday'
p311
I26
sS'molly'
p312
I26
sS'free'
p313
I26
sS'small'
p314
I26
sS'completely'
p315
I26
sS'ask'
p316
I25
sS'heads'
p317
I26
sS'westside'
p318
I26
sS'comfy'
p319
I26
sS'bbq."'
p320
I26
sS'days'
p321
I26
sS'brah,90062\n488947644232761345,tonyshitdope,2014-07-15'
p322
I26
sS'keep'
p323
I26
sS'thing'
p324
I26
sS'shipped'
p325
I26
sS'pigs'
p326
I26
sS'place'
p327
I26
sS',90062\n478345990924038144,bigbeliebero9x,2014-06-16'
p328
I26
sS'think'
p329
I26
sS'south'
p330
I26
sS'first'
p331
I26
sS',90062\n478346034301509632,bigbeliebero9x,2014-06-16'
p332
I26
sS'singleton'
p333
I26
sS'already'
p334
I26
sS'feel'
p335
I26
sS',90062\n478346601593704448,bigbeliebero9x,2014-06-16'
p336
I26
sS'scene'
p337
I25
sS'one'
p338
I24
sS'feet'
p339
I26
sS'lol'
p340
I22
sS'another'
p341
I26
sS'vote'
p342
I26
sS'drove'
p343
I26
sS'tomorrow'
p344
I26
sS"you're"
p345
I22
sS'little'
p346
I26
sS'23:56:51.0,34.0179863,-118.309513,2314,beach'
p347
I26
sS'start'
p348
I23
sS',90062\n251450734812471296,anaeboo7,2012-09-27'
p349
I26
sS'asses\xe2\x80\x9d'
p350
I26
sS'system'
p351
I26
sS'her\xe2\x80\x9d'
p352
I26
sS'their'
p353
I26
sS'21:20:25.0,34.01591609,-118.31169072,2314,baby'
p354
I26
sS'2'
p355
I25
sS'too'
p356
I24
sS'really,90062\n450299921812713472,kleiderg,2014-03-30'
p357
I26
sS'gilbert'
p358
I26
sS'fo'
p359
I26
sS'painful'
p360
I26
sS'selling'
p361
I26
sS'allegedly'
p362
I26
sS'that'
p363
I15
sS'centered'
p364
I26
sS'park'
p365
I26
sS'wisdom'
p366
I26
sS'part'
p367
I25
sS'western'
p368
I17
sS'23:46:47.0,34.01669492,-118.3140944,2314,10'
p369
I26
sS'number'
p370
I26
sS'06:23:10.0,34.01579229,-118.31172324,2314,all'
p371
I26
sS'king'
p372
I24
sS'kind'
p373
I26
sS'lmao'
p374
I24
sS'gotta'
p375
I26
sS'depends'
p376
I26
sS'recording'
p377
I26
sS'matter'
p378
I26
sS'expo'
p379
I20
sS'supposed'
p380
I26
sS'maybe'
p381
I25
sS'college'
p382
I26
sS'feeling'
p383
I23
sS'ousted'
p384
I26
sS'and'
p385
I6
sS'coconut'
p386
I26
sS'sam'
p387
I26
sS'wish,90062\n489634646250905601,tonyshitdope,2014-07-17'
p388
I26
sS'sad'
p389
I26
sS'tonight'
p390
I26
sS'pedestrian'
p391
I26
sS'say'
p392
I26
sS'mkre'
p393
I26
sS'have'
p394
I18
sS'need'
p395
I21
sS'turn'
p396
I26
sS'saw'
p397
I26
sS'any'
p398
I26
sS',90062\n512775541053612032,love_emily13,2014-09-19'
p399
I26
sS'15:08:11.0,34.01687188,-118.31411351,2314,no'
p400
I26
sS'strongs'
p401
I26
sS'mostly'
p402
I26
sS'dancing'
p403
I26
sS'self'
p404
I26
sS'-'
p405
I19
sS'06:11:30.0,34.01595702,-118.31161103,2314,make'
p406
I26
sS'doors'
p407
I26
sS'03:44:53.0,34.01513442,-118.31301801,2314,what'
p408
I26
sS'green'
p409
I26
sS'='
p410
I26
sS'bb!,90062\n506550491984064512,angelenorick,2014-09-01'
p411
I26
sS'03:37:49.0,34.01273118,-118.30900647,2314,we'
p412
I26
sS'play'
p413
I26
sS'though'
p414
I26
sS',90062\n511016901166645248,de274r,2014-09-14'
p415
I26
sS'who'
p416
I26
sS'coworker'
p417
I26
sS'most'
p418
I24
sS'23:59:20.0,34.01666652,-118.31392894,2314,11'
p419
I26
sS'plays'
p420
I26
sS'why'
p421
I25
sS'18:51:16.0,34.01527315,-118.31185224,2314,why'
p422
I26
sS'forever'
p423
I26
sS'cause'
p424
I26
sS'feminine'
p425
I26
sS'average'
p426
I26
sS'later'
p427
I26
sS'drive'
p428
I26
sS"you'll"
p429
I26
sS'points'
p430
I26
sS'mustache'
p431
I26
sS'michells'
p432
I26
sS',90062\n478348563122880512,bigbeliebero9x,2014-06-16'
p433
I26
sS'sum'
p434
I26
sS'shop'
p435
I25
sS'saying'
p436
I26
sS'walking'
p437
I25
sS'ugh'
p438
I26
sS'yacusa!,90062\n487428612602068992,tonyshitdope,2014-07-11'
p439
I26
sS'gold'
p440
I26
sS'exclusive'
p441
I26
sS'random'
p442
I26
sS'is....imma'
p443
I26
sS'label'
p444
I26
sS'23:47:03.0,34.012651,-118.30951278,2314,,90062\n251458112496734208,anaeboo7,2012-09-27'
p445
I26
sS'slow'
p446
I26
sS'consciousness'
p447
I26
sS'justice'
p448
I26
sS'true'
p449
I26
sS'dick'
p450
I26
sS'state'
p451
I26
sS'should'
p452
I26
sS'rihanna'
p453
I26
sS'theme'
p454
I26
sS'going'
p455
I24
sS'black'
p456
I26
sS'central'
p457
I26
sS'pretty'
p458
I24
sS'gods'
p459
I26
sS'02:18:15.0,34.01565914,-118.31177244,2314,my'
p460
I26
sS'circle'
p461
I26
sS'hope'
p462
I26
sS',90062\n478346310991372288,bigbeliebero9x,2014-06-16'
p463
I26
sS'hip'
p464
I26
sS'do'
p465
I21
sS'his'
p466
I26
sS'hit'
p467
I25
sS'get'
p468
I18
sS'sooo'
p469
I26
sS'de'
p470
I24
sS'watch'
p471
I25
sS'da'
p472
I26
sS',90062\n478346347423076352,bigbeliebero9x,2014-06-16'
p473
I26
sS'words'
p474
I26
sS'tweettweet'
p475
I26
sS'learned'
p476
I26
sS'ghetto'
p477
I26
sS'prime'
p478
I25
sS'morning'
p479
I26
sS'bad'
p480
I25
sS'common'
p481
I26
sS',90062\n478345669380300800,bigbeliebero9x,2014-06-16'
p482
I26
sS'grilled'
p483
I26
sS'bam'
p484
I26
sS'where'
p485
I25
sS'view'
p486
I26
sS"y'all"
p487
I25
sS'at?,90062\n489599588685189122,tonyshitdope,2014-07-17'
p488
I26
sS'gawd'
p489
I26
sS'w/'
p490
I26
sS'notice'
p491
I26
sS'packet'
p492
I26
sS'lmaooo!!,90062\n487428287644172288,tonyshitdope,2014-07-11'
p493
I26
sS'23:56:11.0,34.0180532,-118.3095614,2314,finally'
p494
I26
sS'see'
p495
I25
sS'defense'
p496
I26
sS'05:44:13.0,34.01566756,-118.31185567,2314,he'
p497
I26
sS'are'
p498
I19
sS'best'
p499
I23
sS'project'
p500
I26
sS'game"'
p501
I26
sS'pedicure'
p502
I26
sS'lots'
p503
I26
sS'away'
p504
I25
sS',90062\n478346378263789569,bigbeliebero9x,2014-06-16'
p505
I26
sS'voice*,90062\n490589342453080064,tonyshitdope,2014-07-19'
p506
I26
sS't-mobile'
p507
I26
sS'3'
p508
I26
sS"there's"
p509
I25
sS'email'
p510
I26
sS'ima'
p511
I26
sS'we'
p512
I21
sS'men'
p513
I26
sS'missing'
p514
I26
sS'jr'
p515
I26
sS'job'
p516
I25
sS'awards'
p517
I26
sS'here'
p518
I24
sS'news'
p519
I26
sS',90062\n478347011888930817,bigbeliebero9x,2014-06-16'
p520
I26
sS'come'
p521
I25
sS'kitchen'
p522
I25
sS"wouldn't"
p523
I25
sS'la'
p524
I26
sS'spray'
p525
I26
sS's'
p526
I26
sS"she's"
p527
I26
sS'brah'
p528
I26
sS'whole'
p529
I26
sS'comes'
p530
I25
sS'uno'
p531
I26
sS'\xe2\x98\xba'
p532
I26
sS'sweet'
p533
I24
sS'stuck'
p534
I26
sS'period'
p535
I26
sS'cousin'
p536
I26
sS'respect'
p537
I26
sS',90062\n478346254653460480,bigbeliebero9x,2014-06-16'
p538
I26
sS',90062\n478347268945240064,bigbeliebero9x,2014-06-16'
p539
I26
sS'hijo'
p540
I26
sS'u.o.e.n.o.,90062\n491834501794783232,tonyshitdope,2014-07-23'
p541
I26
sS'yay'
p542
I26
sS'dieim'
p543
I26
sS'union'
p544
I26
sS"it's"
p545
I22
sS'02:36:52.0,34.01591877,-118.31173715,2314,micheal'
p546
I26
sS'three'
p547
I26
sS'been'
p548
I25
sS'hitting'
p549
I26
sS'hahahhaha'
p550
I26
sS'power.,90062\n489656770160111616,tonyshitdope,2014-07-17'
p551
I26
sS'much'
p552
I25
sS'damn'
p553
I26
sS'judging'
p554
I26
sS'ph'
p555
I26
sS'lovely'
p556
I26
sS'meeting'
p557
I26
sS'universal'
p558
I26
sS'empty'
p559
I26
sS'>'
p560
I25
sS'wants'
p561
I25
sS'life'
p562
I26
sS"what's"
p563
I25
sS'luther'
p564
I26
sS'finished'
p565
I26
sS"15:54:02.0,34.017601,-118.308998,2314,i'm"
p566
I26
sS'wake'
p567
I26
sS'catch'
p568
I26
sS'gaf'
p569
I26
sS'those'
p570
I26
sS'case'
p571
I26
sS'myself'
p572
I26
sS'06:24:06.0,34.01581294,-118.31177555,2314,thank'
p573
I26
sS'couple'
p574
I26
sS'look'
p575
I25
sS'talking'
p576
I26
sS'these'
p577
I24
sS'2011'
p578
I26
sS'lmaooooo,90062\n519501392768028672,katvonschweetz,2014-10-07'
p579
I26
sS',90062\n478319906941698048,bigbeliebero9x,2014-06-15'
p580
I26
sS'n'
p581
I24
sS'pedicure,90062\n419371547292213249,sccgreen17,2014-01-04'
p582
I26
sS"23:07:40.0,34.012651,-118.30951278,2314,it's"
p583
I26
sS'near'
p584
I26
sS'b-day'
p585
I26
sS'mistake'
p586
I26
sS'remembering'
p587
I26
sS'barely'
p588
I26
sS'century'
p589
I26
sS'almost'
p590
I26
sS'is'
p591
I10
sS'mixtape'
p592
I26
sS'rip'
p593
I26
sS'adventures'
p594
I26
sS'strain'
p595
I26
sS'someone'
p596
I26
sS'im'
p597
I22
sS'avi'
p598
I26
sS'in'
p599
I14
sS'thug'
p600
I26
sS'ave'
p601
I26
sS',90062\n512776037822767105,love_emily13,2014-09-19'
p602
I26
sS'everyday'
p603
I26
sS'ig'
p604
I26
sS'if'
p605
I22
sS'tattoo'
p606
I25
sS'different'
p607
I26
sS'shirt'
p608
I26
sS'anymore'
p609
I25
sS'pay'
p610
I26
sS'make'
p611
I23
sS'same'
p612
I24
sS'trip'
p613
I26
sS'food'
p614
I25
sS'hahah'
p615
I26
sS'evaluate'
p616
I26
sS'party'
p617
I26
sS'gets'
p618
I25
sS'events'
p619
I26
sS'sleep!,90062\n488921957467832320,tonyshitdope,2014-07-15'
p620
I26
sS'used'
p621
I26
sS'thrirsty'
p622
I26
sS'drink'
p623
I26
sS',90062\n478347037776162816,bigbeliebero9x,2014-06-16'
p624
I26
sS'producers'
p625
I26
sS'lastest'
p626
I26
sS'u.s'
p627
I26
sS'fucked'
p628
I26
sS'lemon'
p629
I26
sS'vute'
p630
I26
sS'totally'
p631
I26
sS'cusa'
p632
I26
sS'rubbed'
p633
I26
sS',90062\n478346989365497856,bigbeliebero9x,2014-06-16'
p634
I26
sS'i'
p635
I3
sS'well'
p636
I23
sS'thought'
p637
I26
sS"nidia's"
p638
I26
sS"can't"
p639
I26
sS'bottle'
p640
I26
sS'trains'
p641
I26
sS'06:21:30.0,34.01577871,-118.31172969,2314,i'
p642
I26
sS'gift'
p643
I26
sS'the'
p644
I1
sS'muscle'
p645
I26
sS',90062\n500793341458780160,princessmiggy_,2014-08-16'
p646
I26
sS'summer'
p647
I26
sS'jst'
p648
I26
sS'just'
p649
I17
sS"day's"
p650
I26
sS'money'
p651
I25
sS'accurate'
p652
I26
sS'indulge'
p653
I26
sS'front'
p654
I26
sS'kill'
p655
I26
sS'thanks'
p656
I25
sS'questions'
p657
I26
sS'followed'
p658
I26
sS'yes'
p659
I25
sS'happiness'
p660
I26
sS'waste'
p661
I26
sS'complain'
p662
I26
sS'arrest'
p663
I26
sS'add'
p664
I26
sS'cb'
p665
I26
sS'has'
p666
I25
sS'match'
p667
I26
sS'gave'
p668
I26
sS'real'
p669
I26
sS'around'
p670
I24
sS'43.83-yard'
p671
I26
sS'read'
p672
I26
sS'big'
p673
I25
sS',90062\n478345630109020161,bigbeliebero9x,2014-06-16'
p674
I26
sS'utah'
p675
I26
sS'gonna'
p676
I22
sS'early'
p677
I25
sS'sides,90062\n513118985421062144,dmian_123,2014-09-20'
p678
I26
sS'know'
p679
I26
sS'listening'
p680
I26
sS'world'
p681
I26
sS'bit'
p682
I26
sS'like'
p683
I21
sS'lost'
p684
I26
sS'01:05:46.0,34.01593189,-118.31175593,2314,drizzy..,90062\n489573716540391424,tonyshitdope,2014-07-17'
p685
I26
sS'performing'
p686
I26
sS'loses'
p687
I26
sS'continue'
p688
I26
sS'james'
p689
I26
sS'chick'
p690
I26
sS'soft'
p691
I26
sS'attempting'
p692
I26
sS'right'
p693
I23
sS'councilmember'
p694
I26
sS'people'
p695
I23
sS'absolutely'
p696
I26
sS'scared'
p697
I25
sS'ser\xc3\xa1'
p698
I26
sS'some'
p699
I21
sS'back'
p700
I23
sS'bounce'
p701
I26
sS'act'
p702
I26
sS'business....,90062\n444941627585359872,anaeboo7,2014-03-15'
p703
I26
sS'revines'
p704
I26
sS'happens'
p705
I26
sS'jeremy'
p706
I26
sS'for'
p707
I8
sS'literally'
p708
I26
sS'/'
p709
I20
sS'everything'
p710
I26
sS'prom'
p711
I26
sS',90062\n519504465053773824,katvonschweetz,2014-10-07'
p712
I26
sS'wangs'
p713
I26
sS'good)'
p714
I26
sS'now...quite'
p715
I26
sS'cheese'
p716
I26
sS'be'
p717
I17
sS'pepper'
p718
I25
sS'welcome'
p719
I26
sS'run'
p720
I26
sS'bold'
p721
I26
sS'power'
p722
I26
sS'martin'
p723
I26
sS'sprung'
p724
I25
sS's/o'
p725
I26
sS'^_^'
p726
I26
sS'throwback'
p727
I26
sS'memorable'
p728
I25
sS'by'
p729
I23
sS'you.,90062\n519504038711144448,katvonschweetz,2014-10-07'
p730
I26
sS'on'
p731
I12
sS'about'
p732
I23
sS'zayummmmm'
p733
I26
sS'ok'
p734
I25
sS'would'
p735
I25
sS'ace'
p736
I26
sS'oh'
p737
I24
sS'wut'
p738
I26
sS'06:49:18.0,34.0129728,-118.3095001,2314,goodnight'
p739
I26
sS'&'
p740
I25
sS'mixer'
p741
I26
sS'yew\xe2\x9d\xa4\xef\xb8\x8f'
p742
I26
sS'angeles'
p743
I16
sS'stretch'
p744
I26
sS'swear'
p745
I26
sS'west'
p746
I26
sS'threesome'
p747
I26
sS'or'
p748
I23
sS'pussy'
p749
I26
sS'into'
p750
I23
sS'two'
p751
I26
sS'because'
p752
I26
sS'inbox'
p753
I26
sS'parties'
p754
I26
sS'hookahhh'
p755
I26
sS'next'
p756
I26
sS'your'
p757
I13
sS'lol,90062\n520375110683725824,katvonschweetz,2014-10-10'
p758
I26
sS"02:21:27.0,34.01422907,-118.31106028,2314,aldo's"
p759
I26
sS'holla'
p760
I26
sS'her'
p761
I25
sS'spam'
p762
I26
sS'sneeze'
p763
I26
sS'support'
p764
I26
sS'there'
p765
I26
sS'secret'
p766
I26
sS'long'
p767
I25
sS'los'
p768
I25
sS'drank'
p769
I26
sS'preordered'
p770
I26
sS'way'
p771
I24
sS'call'
p772
I26
sS'was'
p773
I20
sS'footage'
p774
I26
sS'happy'
p775
I26
sS'01:31:48.0,34.01117414,-118.30932851,2314,he'
p776
I26
sS'shower'
p777
I26
sS'buy'
p778
I24
sS"i've"
p779
I26
sS'attempted'
p780
I26
sS'coke'
p781
I26
sS'bitches'
p782
I26
sS'but'
p783
I24
sS'searching'
p784
I26
sS'boys'
p785
I26
sS'^_<,90062\n330092608439345152,franster00,2013-05-02'
p786
I26
sS'uncle'
p787
I26
sS'dead'
p788
I26
sS'sanmo'
p789
I26
sS'line'
p790
I26
sS'with'
p791
I19
sS'featuring'
p792
I26
sS'he'
p793
I22
sS'22:38:21.0,34.012651,-118.30951278,2314,i'
p794
I26
sS'october'
p795
I26
sS'wish'
p796
I26
sS'23:43:39.0,34.01673089,-118.3140462,2314,i'
p797
I26
sS'up'
p798
I13
sS'whiskey'
p799
I26
sS',90062\n491687179177828352,lovehisskiaa,2014-07-22'
p800
I26
sS'smashed'
p801
I26
sS'minutes'
p802
I26
sS'01:29:50.0,34.01168109,-118.30919132,2314,i'
p803
I26
sS'sometimes'
p804
I26
sS'freak'
p805
I26
sS'fans'
p806
I26
sS'sheldooon'
p807
I26
sS'citation'
p808
I26
sS',90062\n478346257786609664,bigbeliebero9x,2014-06-16'
p809
I26
sS'as'
p810
I21
sS'at'
p811
I10
sS'ink'
p812
I25
sS'girlfriend'
p813
I26
sS'account,90062\n489611237131436034,tonyshitdope,2014-07-17'
p814
I26
sS'*young'
p815
I26
sS'check'
p816
I26
sS'shit'
p817
I25
sS'facebook'
p818
I26
sS'again'
p819
I25
sS'compared'
p820
I26
sS'tix'
p821
I25
sS'dying'
p822
I26
sS'no'
p823
I23
sS'when'
p824
I18
sS'sportsnation'
p825
I26
sS'other'
p826
I24
sS',90062\n478346308768370688,bigbeliebero9x,2014-06-16'
p827
I26
sS'you'
p828
I5
sS'really'
p829
I22
sS',90062\n519634300912693249,katvonschweetz,2014-10-07'
p830
I26
sS'realize'
p831
I26
sS'claudine'
p832
I26
sS'picture'
p833
I26
sS'hey'
p834
I26
sS'00:14:34.0,34.0146541,-118.3163756,2314,my'
p835
I26
sS'football'
p836
I26
sS'problems'
p837
I26
sS"let's"
p838
I26
sS'day.,90062\n519638134745595904,katvonschweetz,2014-10-07'
p839
I26
sS'kinda'
p840
I26
sS'06:10:29.0,34.01570103,-118.31184311,2314,sa'
p841
I26
sS'friends'
p842
I26
sS'pool'
p843
I25
sS'ago'
p844
I26
sS'20:09:48.0,34.01566727,-118.3117421,2314,hiii'
p845
I26
sS'yeaaa'
p846
I26
sS'together'
p847
I26
sS'annoyed'
p848
I26
sS'u'
p849
I24
sS'time'
p850
I20
sS'push'
p851
I26
sS"ain't"
p852
I26
s.