(dp0
S''
p1
I1
sS'all'
p2
I32
sS':/'
p3
I33
sS':('
p4
I34
sS':)'
p5
I33
sS'perch'
p6
I34
sS'aids'
p7
I34
sS'players,90037\n428048146279567360,_saraida,2014-01-28'
p8
I34
sS'ala'
p9
I34
sS'besitos'
p10
I34
sS'gt'
p11
I34
sS'sleep'
p12
I34
sS'hanging'
p13
I34
sS'go'
p14
I27
sS'mill'
p15
I34
sS'only'
p16
I34
sS'hate'
p17
I31
sS'milk'
p18
I34
sS'apartment'
p19
I34
sS'quizcross'
p20
I33
sS'buddy'
p21
I34
sS'tv'
p22
I34
sS'ahron'
p23
I34
sS'north)'
p24
I33
sS'send'
p25
I34
sS'to'
p26
I3
sS'finally'
p27
I33
sS'bike'
p28
I33
sS'those'
p29
I34
sS'camarones'
p30
I34
sS'me.,90037\n491507641034612736,realtreday,2014-07-22'
p31
I34
sS'ven'
p32
I34
sS'ouija'
p33
I34
sS'sent'
p34
I33
sS'shoot'
p35
I34
sS'stranger\xe2\x80\xa6'
p36
I34
sS'song'
p37
I31
sS'very'
p38
I34
sS'ajo'
p39
I34
sS':)\xe2\x80\xa6'
p40
I34
sS'tacos'
p41
I29
sS'selfies'
p42
I34
sS'sons'
p43
I34
sS'putting'
p44
I34
sS'fall'
p45
I34
sS'looooove'
p46
I34
sS'star'
p47
I34
sS'minute'
p48
I34
sS'margarita'
p49
I33
sS"we'll"
p50
I33
sS'(kapernick'
p51
I34
sS'parrot'
p52
I34
sS'level'
p53
I34
sS'did'
p54
I34
sS'turns'
p55
I34
sS'button'
p56
I34
sS'dia'
p57
I32
sS'turnt'
p58
I34
sS'hed2'
p59
I34
sS'anxious'
p60
I34
sS'these'
p61
I34
sS'planning'
p62
I34
sS'vamonos'
p63
I34
sS'noted'
p64
I34
sS'yall'
p65
I34
sS'9pm'
p66
I34
sS"i'll"
p67
I31
sS'07:42:12.0,34.0038968,-118.2756877,2318,planks'
p68
I34
sS'talked'
p69
I34
sS'tired'
p70
I33
sS'favorites'
p71
I34
sS'sucks'
p72
I34
sS'consistent'
p73
I34
sS'yourself'
p74
I34
sS'\xe2\x9d\xa4'
p75
I34
sS'past'
p76
I34
sS'second'
p77
I34
sS'designs'
p78
I34
sS'perfect'
p79
I34
sS'ill'
p80
I34
sS'yesssir'
p81
I34
sS'bruhhhh'
p82
I34
sS'trashy'
p83
I34
sS'even'
p84
I31
sS'what'
p85
I30
sS'chavas'
p86
I34
sS'giving'
p87
I34
sS'sun'
p88
I34
sS'exactly'
p89
I34
sS'stars'
p90
I34
sS'lying'
p91
I34
sS'cell'
p92
I34
sS'remembered'
p93
I34
sS'waiting'
p94
I34
sS'faded'
p95
I34
sS'goes'
p96
I34
sS'quedo'
p97
I34
sS'new'
p98
I11
sS'officially'
p99
I34
sS'marketer'
p100
I34
sS'08:11:56.0,34.0039065,-118.2757563,2318,planks'
p101
I34
sS'dem'
p102
I34
sS'aint'
p103
I34
sS'kicked'
p104
I34
sS'lift....love'
p105
I34
sS'interns'
p106
I34
sS'funeral'
p107
I34
sS'never'
p108
I34
sS'(los'
p109
I16
sS'leo'
p110
I34
sS'hours'
p111
I33
sS'\xe2\x9d\xa4\xef\xb8\x8f'
p112
I34
sS'ramsey'
p113
I34
sS'let'
p114
I33
sS'making'
p115
I34
sS'yummy'
p116
I34
sS'along'
p117
I34
sS'me\xe2\x9d\xa4\xe2\x9c\xa8'
p118
I34
sS'because'
p119
I34
sS'change'
p120
I33
sS'wait'
p121
I30
sS'boy'
p122
I34
sS'great'
p123
I32
sS'it\xe2\x9d\xa4\xef\xb8\x8f'
p124
I34
sS'tomorrow,90037\n455976099726385152,marrdashian,2014-04-15'
p125
I34
sS'didnt'
p126
I34
sS'proud'
p127
I34
sS'walkin'
p128
I34
sS'imma'
p129
I34
sS'women'
p130
I34
sS'loop'
p131
I34
sS'smoke'
p132
I34
sS'boo'
p133
I30
sS"i'm"
p134
I7
sS'changes'
p135
I33
sS'almost'
p136
I34
sS'asf'
p137
I34
sS'control'
p138
I34
sS'via'
p139
I34
sS'love'
p140
I26
sS'apple'
p141
I34
sS'mobility'
p142
I33
sS'win'
p143
I32
sS'sooooo'
p144
I34
sS'singing'
p145
I33
sS'wiz'
p146
I34
sS'\xd8\xa7\xd9\x84\xd9\x8a'
p147
I34
sS'everybody'
p148
I34
sS'use'
p149
I34
sS'cheating'
p150
I34
sS'eye'
p151
I32
sS'would'
p152
I33
sS'&'
p153
I29
sS'double'
p154
I34
sS'hospital'
p155
I34
sS'mumford'
p156
I34
sS'two'
p157
I34
sS'next'
p158
I32
sS'few'
p159
I33
sS'ca)'
p160
I16
sS'program'
p161
I34
sS'call'
p162
I33
sS'iphone'
p163
I34
sS'taken'
p164
I34
sS'amigas-'
p165
I34
sS'tell'
p166
I33
sS'today'
p167
I30
sS'more'
p168
I33
sS'horses'
p169
I34
sS'flat'
p170
I33
sS'popped'
p171
I34
sS'sharing'
p172
I34
sS'panederia'
p173
I34
sS'under'
p174
I34
sS'haha'
p175
I34
sS':-('
p176
I34
sS'restaurant<3'
p177
I34
sS'besosssss'
p178
I34
sS'downtown'
p179
I34
sS'phone'
p180
I34
sS'ol'
p181
I34
sS'excellent'
p182
I34
sS'baby'
p183
I30
sS'central'
p184
I34
sS'hold'
p185
I34
sS'glad'
p186
I33
sS'charity'
p187
I34
sS'me'
p188
I15
sS'grill'
p189
I28
sS'mf'
p190
I34
sS'word'
p191
I34
sS'hour'
p192
I34
sS'niggas'
p193
I34
sS'this'
p194
I20
sS'work'
p195
I29
sS'mi'
p196
I32
sS'anywhere'
p197
I34
sS'can'
p198
I29
sS'install'
p199
I34
sS'meet'
p200
I34
sS'my'
p201
I5
sS'doooooo'
p202
I34
sS'proof'
p203
I34
sS'beautiful'
p204
I32
sS'heart'
p205
I33
sS'crazy'
p206
I34
sS'loca'
p207
I34
sS',90037\n492583013713072128,realtreday,2014-07-25'
p208
I34
sS'(with'
p209
I34
sS'patron'
p210
I34
sS'16:07:16.0,34.00474,-118.274135,2318,sirpopington'
p211
I34
sS'awesome'
p212
I32
sS"comin'"
p213
I34
sS"didn't"
p214
I34
sS'fuck'
p215
I31
sS'terrible'
p216
I34
sS'high'
p217
I34
sS'something'
p218
I34
sS'want'
p219
I32
sS'spa'
p220
I33
sS'mmmmmm'
p221
I34
sS'station'
p222
I33
sS'twitpic'
p223
I34
sS'crimes'
p224
I34
sS'saturday'
p225
I34
sS'hoe'
p226
I33
sS'awkward'
p227
I34
sS'conversation'
p228
I34
sS'rather'
p229
I34
sS'means'
p230
I34
sS'everyday'
p231
I34
sS'1'
p232
I34
sS'till'
p233
I32
sS'twitching'
p234
I34
sS'weed'
p235
I34
sS'punkest'
p236
I34
sS'beach'
p237
I34
sS'hoy'
p238
I34
sS'me.,90037\n491486836284329984,realtreday,2014-07-22'
p239
I34
sS'fr'
p240
I33
sS'okay'
p241
I33
sS'tattoo'
p242
I34
sS'stop'
p243
I34
sS'after'
p244
I33
sS'spot'
p245
I34
sS'raiders'
p246
I34
sS'mac'
p247
I34
sS'birthday'
p248
I29
sS'shooting'
p249
I34
sS'coming'
p250
I33
sS'such'
p251
I34
sS'suck'
p252
I34
sS'wave'
p253
I19
sS'guys'
p254
I31
sS'man'
p255
I31
sS'a'
p256
I4
sS'refuse'
p257
I34
sS'furthest'
p258
I34
sS'council'
p259
I34
sS'maybe'
p260
I33
sS'chef'
p261
I34
sS'appreciate'
p262
I34
sS'awww'
p263
I34
sS'volleyball'
p264
I34
sS'wanye'
p265
I34
sS'9am'
p266
I34
sS'callback'
p267
I34
sS'si'
p268
I33
sS'vegas'
p269
I34
sS'so'
p270
I17
sS'fuckin'
p271
I34
sS'goodbye'
p272
I34
sS'music"'
p273
I34
sS'hates'
p274
I34
sS'dream'
p275
I34
sS'playing'
p276
I34
sS'talk'
p277
I34
sS"that's"
p278
I33
sS'kendall'
p279
I34
sS'school)'
p280
I33
sS'whoopin'
p281
I34
sS'mexican'
p282
I28
sS'help'
p283
I34
sS'office'
p284
I34
sS"don't"
p285
I23
sS'indeed'
p286
I34
sS'over'
p287
I32
sS'move'
p288
I34
sS'event'
p289
I34
sS'years'
p290
I33
sS'course'
p291
I34
sS'deducted'
p292
I34
sS'paper'
p293
I34
sS'through'
p294
I34
sS'looks'
p295
I33
sS'hell'
p296
I34
sS'"it'
p297
I34
sS'still'
p298
I27
sS'its'
p299
I30
sS'before'
p300
I33
sS'bummed'
p301
I34
sS'messed'
p302
I34
sS'felicia'
p303
I32
sS'thank'
p304
I31
sS'la'
p305
I22
sS'interesting'
p306
I34
sS'masterchef'
p307
I33
sS'amazing'
p308
I34
sS'[pic]'
p309
I31
sS'better'
p310
I30
sS'2%'
p311
I34
sS'ladera'
p312
I34
sS'degrees'
p313
I34
sS'hiva'
p314
I34
sS'hidden'
p315
I34
sS'holiday'
p316
I32
sS',90037\n505607532572708864,kissadillaa,2014-08-30'
p317
I34
sS"haven't"
p318
I34
sS'dad'
p319
I32
sS'then'
p320
I34
sS'them'
p321
I31
sS'good'
p322
I16
sS'somebody'
p323
I34
sS'calm'
p324
I34
sS'yo'
p325
I33
sS'ya'
p326
I29
sS'workout'
p327
I34
sS'practice'
p328
I34
sS'hunter'
p329
I34
sS'school'
p330
I30
sS'clippers'
p331
I33
sS'course!i'
p332
I34
sS'dat'
p333
I34
sS'lunch'
p334
I33
sS'try'
p335
I34
sS"you've"
p336
I34
sS'they'
p337
I26
sS'not'
p338
I25
sS'now'
p339
I28
sS'twilight'
p340
I34
sS'day'
p341
I29
sS'literacy'
p342
I33
sS'name'
p343
I34
sS'07:49:08.0,34.00382695,-118.27966564,2318,got'
p344
I34
sS'lies'
p345
I34
sS'always'
p346
I30
sS"y'all"
p347
I34
sS'l'
p348
I34
sS'-lady'
p349
I34
sS'cute'
p350
I34
sS'mode'
p351
I34
sS'mother<3'
p352
I33
sS'each'
p353
I34
sS'went'
p354
I32
sS'side'
p355
I33
sS'luck'
p356
I34
sS'el'
p357
I21
sS'everyone'
p358
I32
sS'tenia'
p359
I34
sS'doing'
p360
I34
sS'house'
p361
I34
sS'hard'
p362
I33
sS'yeah'
p363
I32
sS'used'
p364
I34
sS'brother'
p365
I33
sS'rojas'
p366
I34
sS'celebrating'
p367
I34
sS'catching'
p368
I34
sS'awwwww'
p369
I34
sS'forgot'
p370
I34
sS'('
p371
I34
sS'our'
p372
I30
sS'girl'
p373
I33
sS'bay'
p374
I33
sS'message'
p375
I34
sS'await'
p376
I34
sS'really'
p377
I23
sS'leave'
p378
I34
sS'matt'
p379
I33
sS'(at'
p380
I34
sS'driving'
p381
I34
sS'god'
p382
I34
sS'motel'
p383
I34
sS'since'
p384
I33
sS'mojo'
p385
I34
sS'looking'
p386
I33
sS'seriously'
p387
I34
sS'stuff'
p388
I34
sS'health'
p389
I19
sS'smh'
p390
I33
sS'got'
p391
I26
sS'rn'
p392
I34
sS'katie'
p393
I34
sS'cause'
p394
I33
sS'housing'
p395
I34
sS'ass'
p396
I32
sS'la...brain'
p397
I34
sS'insecurities'
p398
I34
sS'l.a.)'
p399
I34
sS'city'
p400
I34
sS'nigga,90037\n342356721051762689,ishmaellawrence,2013-06-05'
p401
I34
sS'guess'
p402
I34
sS'free'
p403
I34
sS'cut'
p404
I34
sS'que'
p405
I29
sS'disneyland'
p406
I34
sS'eyelash'
p407
I34
sS'put'
p408
I34
sS'org'
p409
I34
sS'chavo'
p410
I34
sS'wanted'
p411
I33
sS'card'
p412
I34
sS'care'
p413
I18
sS'mvp'
p414
I34
sS'scary'
p415
I34
sS'training'
p416
I34
sS'm.a.a.d'
p417
I34
sS'shishes'
p418
I34
sS'could'
p419
I32
sS'hollywood'
p420
I34
sS'kiss'
p421
I34
sS'days'
p422
I32
sS'katcoot'
p423
I34
sS'keep'
p424
I34
sS'thing'
p425
I31
sS'49ers'
p426
I34
sS'heck'
p427
I34
sS'place'
p428
I34
sS'"help'
p429
I34
sS'austin'
p430
I33
sS'think'
p431
I30
sS'south'
p432
I24
sS'first'
p433
I33
sS'blind'
p434
I34
sS'enjoy'
p435
I34
sS'already'
p436
I34
sS'dont'
p437
I34
sS'feel'
p438
I30
sS'third'
p439
I34
sS'saco'
p440
I34
sS'waves'
p441
I34
sS'mucho'
p442
I34
sS'jealous'
p443
I34
sS'done'
p444
I31
sS'long'
p445
I30
sS'another'
p446
I33
sS'backyard'
p447
I34
sS'frwy'
p448
I26
sS'sounds'
p449
I33
sS'miss'
p450
I31
sS'tomorrow'
p451
I34
sS'braces'
p452
I34
sS'cereal...breakfast'
p453
I34
sS"you're"
p454
I32
sS'little'
p455
I34
sS'basketball'
p456
I34
sS',90037\n428048007250976768,_saraida,2014-01-28'
p457
I34
sS'spinach'
p458
I34
sS'together'
p459
I34
sS'top'
p460
I33
sS'bestfwaaannddd'
p461
I34
sS'least'
p462
I34
sS'plastic'
p463
I34
sS'mami'
p464
I34
sS'paint'
p465
I34
sS'2'
p466
I32
sS'master'
p467
I34
sS'too'
p468
I32
sS'white'
p469
I34
sS'las'
p470
I34
sS'west'
p471
I32
sS'unbroken'
p472
I34
sS'gives'
p473
I34
sS'way'
p474
I33
sS'para'
p475
I34
sS'that'
p476
I12
sS'season'
p477
I34
sS'gym'
p478
I34
sS'hotel'
p479
I34
sS'segun'
p480
I34
sS'part'
p481
I34
sS'nigga'
p482
I34
sS'burrito'
p483
I34
sS'roomies'
p484
I34
sS'believe'
p485
I34
sS'than'
p486
I33
sS'$1'
p487
I34
sS'10'
p488
I33
sS'anxiety'
p489
I34
sS'lmao'
p490
I31
sS'17'
p491
I34
sS'toliet'
p492
I34
sS'alameda'
p493
I34
sS'gotta'
p494
I33
sS'goodnight'
p495
I34
sS'banana'
p496
I34
sS'project'
p497
I34
sS'r'
p498
I34
sS'1%'
p499
I34
sS'store'
p500
I34
sS'were'
p501
I32
sS'dang'
p502
I34
sS'video'
p503
I34
sS'other'
p504
I34
sS'ousted'
p505
I34
sS"oe's"
p506
I34
sS'bet'
p507
I34
sS'and'
p508
I10
sS'mini'
p509
I34
sS'alcohol<3333'
p510
I34
sS'ana'
p511
I34
sS'confirmo'
p512
I34
sS'chicas'
p513
I34
sS'mind'
p514
I34
sS'sad'
p515
I33
sS'tonight'
p516
I32
sS'say'
p517
I34
sS'mornings'
p518
I34
sS'snooze'
p519
I34
sS'have'
p520
I27
sS'need'
p521
I32
sS'seen'
p522
I34
sS'breakfast'
p523
I34
sS'breezy'
p524
I34
sS'saw'
p525
I33
sS'batting'
p526
I34
sS'screw'
p527
I34
sS'speaking'
p528
I34
sS'person'
p529
I34
sS'lil'
p530
I34
sS'blanca'
p531
I34
sS'offer'
p532
I34
sS'-'
p533
I34
sS'accelerated'
p534
I33
sS'aww'
p535
I34
sS'succeed'
p536
I34
sS'take'
p537
I33
sS'games.,90037\n507752627593949184,kissadillaa,2014-09-05'
p538
I34
sS'asshole'
p539
I34
sS'latino'
p540
I34
sS'lol,90037\n491488365095550976,realtreday,2014-07-22'
p541
I34
sS';-)'
p542
I34
sS'play'
p543
I33
sS'sure'
p544
I33
sS'pain'
p545
I34
sS'manos'
p546
I34
sS'track'
p547
I34
sS'who'
p548
I31
sS'centro'
p549
I34
sS'audition'
p550
I34
sS'charm'
p551
I34
sS'nothing'
p552
I34
sS'friend'
p553
I34
sS'approved'
p554
I34
sS'dorsal'
p555
I34
sS'hottaman'
p556
I34
sS'obvio'
p557
I34
sS'give'
p558
I34
sS'treats'
p559
I34
sS'shop)'
p560
I34
sS'flor'
p561
I34
sS'sometimes'
p562
I33
sS"boxer!there's"
p563
I34
sS'face'
p564
I33
sS'freeway'
p565
I33
sS"you'll"
p566
I34
sS'points'
p567
I34
sS'se'
p568
I34
sS'fund."\xe2\x80\xa6'
p569
I34
sS'pictures'
p570
I34
sS'newsfeed'
p571
I34
sS'tubes'
p572
I34
sS'basemen'
p573
I34
sS'kristen'
p574
I34
sS'shop'
p575
I34
sS'advisory'
p576
I33
sS'shot'
p577
I34
sS'\xe2\x9c\xa8'
p578
I34
sS'2500+'
p579
I34
sS'show'
p580
I34
sS'aaaaand'
p581
I34
sS'soto'
p582
I34
sS'queen'
p583
I34
sS'bracelet)'
p584
I34
sS'chge'
p585
I34
sS'peaches'
p586
I34
sS'bring'
p587
I34
sS'serving'
p588
I34
sS'radio'
p589
I34
sS'germany'
p590
I34
sS'la\xe2\x80\xa6'
p591
I34
sS'fina'
p592
I34
sS'nephew'
p593
I34
sS'chicken'
p594
I34
sS'disfruten\xe2\x80\xa6'
p595
I34
sS'inn'
p596
I34
sS'kale'
p597
I34
sS'one'
p598
I30
sS'<33333'
p599
I34
sS'waaayyyy'
p600
I34
sS'snack'
p601
I34
sS'tire'
p602
I32
sS'nervous'
p603
I34
sS'explain'
p604
I34
sS'less'
p605
I34
sS'woo'
p606
I34
sS"won't"
p607
I34
sS'should'
p608
I34
sS'jijijiji'
p609
I34
sS'rico'
p610
I34
sS'flights'
p611
I34
sS'going'
p612
I30
sS'lemme'
p613
I34
sS'pretty'
p614
I33
sS'photo'
p615
I34
sS'watching'
p616
I34
sS'posted'
p617
I34
sS'lacma'
p618
I33
sS'do'
p619
I26
sS'his'
p620
I34
sS'hit'
p621
I33
sS'bahahaha'
p622
I34
sS'get'
p623
I22
sS'bend'
p624
I34
sS'de'
p625
I33
sS'watch'
p626
I34
sS'lucky'
p627
I34
sS'bear'
p628
I32
sS'broncos'
p629
I34
sS'feels'
p630
I34
sS'made'
p631
I34
sS'fandangooo'
p632
I34
sS'during'
p633
I33
sS'07:11:50.0,34.00639579,-118.28026671,2318,walking'
p634
I34
sS'scrolling'
p635
I34
sS'him'
p636
I33
sS'bat'
p637
I34
sS'tod'
p638
I34
sS'bar'
p639
I34
sS'goodbyes'
p640
I34
sS'offical'
p641
I34
sS'eyebrow'
p642
I34
sS'morning'
p643
I29
sS'bad'
p644
I31
sS'stupid'
p645
I34
sS'18'
p646
I34
sS'x'
p647
I34
sS'fixed'
p648
I34
sS'where'
p649
I33
sS'bak'
p650
I34
sS'us'
p651
I34
sS'respond'
p652
I34
sS'picture'
p653
I34
sS"church's"
p654
I34
sS'w/'
p655
I33
sS'council...saturday'
p656
I34
sS"hasn't"
p657
I34
sS'culture'
p658
I34
sS'see'
p659
I28
sS'niners'
p660
I33
sS'asleep'
p661
I34
sS'are'
p662
I22
sS'reframed'
p663
I34
sS'broadway'
p664
I34
sS'jobs'
p665
I34
sS'cold'
p666
I34
sS'best'
p667
I31
sS'brazil'
p668
I34
sS'youth'
p669
I34
sS'said'
p670
I32
sS'jumped'
p671
I34
sS'wow'
p672
I34
sS'please'
p673
I33
sS'-calvin'
p674
I34
sS'mayor'
p675
I34
sS'genius'
p676
I34
sS'fans'
p677
I34
sS'gaga'
p678
I34
sS'...so'
p679
I34
sS'hopefully'
p680
I34
sS'probably'
p681
I34
sS'cola'
p682
I34
sS'viernes'
p683
I34
sS'ima'
p684
I34
sS'we'
p685
I21
sS'makeup'
p686
I34
sS'omg'
p687
I33
sS'pleassseeeee'
p688
I34
sS'literally'
p689
I34
sS'zipped'
p690
I34
sS'\xd8\xaf\xd9\x88\xd9\x86'
p691
I34
sS'yumm'
p692
I34
sS'killing'
p693
I34
sS'hair&makeup'
p694
I34
sS'vernon'
p695
I31
sS'street.,90037\n457693971632775168,misscarlscas,2014-04-20'
p696
I34
sS'here'
p697
I31
sS'como'
p698
I34
sS'office...inspired'
p699
I34
sS'20'
p700
I34
sS'picking'
p701
I34
sS'come'
p702
I33
sS'jiji\xe2\x80\xa6'
p703
I34
sS'water'
p704
I34
sS'c'
p705
I34
sS'last'
p706
I32
sS'celebration.pretty'
p707
I34
sS'brown'
p708
I34
sS'taking'
p709
I32
sS"he's"
p710
I34
sS'ahora'
p711
I34
sS'job'
p712
I34
sS'17:50:46.0,34.0077045,-118.2779668,2318,aww'
p713
I34
sS'became'
p714
I34
sS'games'
p715
I34
sS'thang'
p716
I34
sS'lofty'
p717
I34
sS'whole'
p718
I34
sS"can't"
p719
I29
sS'comer'
p720
I34
sS'yearly'
p721
I34
sS'exhibit'
p722
I34
sS'jeany'
p723
I34
sS'point'
p724
I34
sS'listening'
p725
I34
sS'avocado'
p726
I34
sS'jes\xc3\xbas'
p727
I34
sS'coconut'
p728
I34
sS'pop'
p729
I32
sS'nooooo'
p730
I34
sS'denise'
p731
I34
sS'tennessee'
p732
I34
sS'scalamoosh'
p733
I33
sS'sing'
p734
I34
sS'actually'
p735
I33
sS'speak'
p736
I34
sS'conference'
p737
I34
sS'late'
p738
I33
sS'bathroom'
p739
I33
sS'most'
p740
I34
sS'lol,90037\n491488996418007040,realtreday,2014-07-22'
p741
I34
sS"it's"
p742
I23
sS'create'
p743
I34
sS'classic'
p744
I34
sS'political'
p745
I34
sS'lets'
p746
I34
sS'been'
p747
I27
sS'mart'
p748
I34
sS'much'
p749
I31
sS'2900'
p750
I34
sS'mars'
p751
I34
sS'nottingham"'
p752
I34
sS'ph'
p753
I34
sS'105'
p754
I34
sS'meeting'
p755
I34
sS'christmas..."'
p756
I34
sS'bullshit'
p757
I34
sS'board'
p758
I34
sS'wants'
p759
I32
sS'life'
p760
I32
sS'shopping'
p761
I34
sS'easy'
p762
I34
sS'gay'
p763
I34
sS'gavilan'
p764
I29
sS'kisses'
p765
I34
sS"what's"
p766
I34
sS'homies'
p767
I34
sS'gas'
p768
I33
sS'sabadito'
p769
I34
sS'jueves'
p770
I34
sS'turn'
p771
I34
sS'catch'
p772
I34
sS'smoking'
p773
I34
sS'rocking'
p774
I34
sS'careful'
p775
I34
sS'present'
p776
I34
sS'dash'
p777
I34
sS'myself'
p778
I34
sS'has'
p779
I32
sS'look'
p780
I34
sS'solid'
p781
I34
sS'selfie'
p782
I34
sS'aubrey'
p783
I34
sS'tengo'
p784
I34
sS'n'
p785
I34
sS'will'
p786
I29
sS'helping\xe2\x80\xa6'
p787
I34
sS'texas'
p788
I34
sS'coca'
p789
I34
sS'fun'
p790
I34
sS'invited'
p791
I34
sS'buen'
p792
I33
sS'~'
p793
I34
sS'annual'
p794
I34
sS'<3'
p795
I33
sS'\xe2\x9b\xbd\xef\xb8\x8f'
p796
I34
sS'is'
p797
I11
sS'it'
p798
I16
sS'ii'
p799
I34
sS'player'
p800
I34
sS'cant'
p801
I33
sS'someone'
p802
I34
sS'im'
p803
I34
sS'yogurt...peaches..blueberries..organic'
p804
I34
sS'in'
p805
I11
sS'id'
p806
I34
sS'worry'
p807
I34
sS'if'
p808
I29
sS'grown'
p809
I33
sS'funny'
p810
I34
sS'mas'
p811
I34
sS'bottles'
p812
I34
sS'noooo'
p813
I33
sS'08:23:16.0,34.01077165,-118.27994273,2318,just'
p814
I34
sS'things'
p815
I34
sS'make'
p816
I31
sS'same'
p817
I32
sS'check'
p818
I34
sS'01:35:21.0,34.01017008,-118.28057491,2318,finally'
p819
I34
sS'delicious'
p820
I34
sS'\xd8\xad\xd8\xb6\xd9\x88\xd8\xb1\xd9\x87'
p821
I34
sS'hey'
p822
I34
sS'jajajajaja'
p823
I34
sS'9'
p824
I34
sS'party'
p825
I34
sS'start'
p826
I34
sS'week'
p827
I31
sS',90037\n503819886766727169,kevin_yebri,2014-08-25'
p828
I34
sS'ball'
p829
I34
sS'ni'
p830
I33
sS'drink'
p831
I34
sS'hang'
p832
I34
sS'holidays'
p833
I33
sS'helped'
p834
I34
sS'harris'
p835
I34
sS'moving'
p836
I34
sS'painful'
p837
I34
sS'fucked'
p838
I34
sS'changing'
p839
I33
sS'soooooooooo'
p840
I34
sS'kid'
p841
I34
sS'\xe2\x9c\x8c\xef\xb8\x8f'
p842
I34
sS'geeeeez'
p843
I34
sS'pool'
p844
I34
sS'off'
p845
I30
sS'center'
p846
I19
sS'older'
p847
I34
sS'i'
p848
I3
sS'fuck"'
p849
I34
sS'dancing'
p850
I34
sS'well'
p851
I28
sS'botita'
p852
I34
sS'tho'
p853
I33
sS'hispanic'
p854
I33
sS'contact'
p855
I34
sS'mother'
p856
I34
sS'y'
p857
I30
sS'the'
p858
I2
sS'bumping'
p859
I34
sS'cure'
p860
I34
sS'restuarant'
p861
I29
sS'peace'
p862
I34
sS'looked'
p863
I34
sS'just'
p864
I19
sS'ash,90037\n491486680226869248,realtreday,2014-07-22'
p865
I34
sS'being'
p866
I33
sS'money'
p867
I32
sS'crew'
p868
I34
sS'ideas'
p869
I34
sS'front'
p870
I34
sS'fact'
p871
I34
sS'thanks'
p872
I29
sS'using'
p873
I34
sS'22:59:28.0,34.00474,-118.274135,2318'
p874
I34
sS'yes'
p875
I32
sS'-_-t'
p876
I34
sS'death'
p877
I34
sS'ham'
p878
I34
sS'thick'
p879
I34
sS'resort\xe2\x80\x9d'
p880
I34
sS'had'
p881
I31
sS'iphones'
p882
I34
sS'seem'
p883
I34
sS'bench'
p884
I34
sS'add'
p885
I34
sS'spread'
p886
I34
sS'4'
p887
I34
sS'crying'
p888
I34
sS'sweet'
p889
I34
sS'ohhh'
p890
I34
sS'save'
p891
I33
sS'excited'
p892
I33
sS'sea'
p893
I34
sS'gave'
p894
I34
sS'real'
p895
I33
sS'around'
p896
I33
sS'read'
p897
I33
sS'contacts'
p898
I34
sS'gonna'
p899
I31
sS'lovin'
p900
I34
sS'early'
p901
I33
sS'game'
p902
I33
sS'ago.,90037\n491486160942673920,realtreday,2014-07-22'
p903
I34
sS'traffic'
p904
I34
sS'know'
p905
I27
sS'mom'
p906
I33
sS'kareoke'
p907
I34
sS'walk'
p908
I34
sS'mis'
p909
I34
sS'dreams'
p910
I34
sS'girl\xe2\x80\x9d'
p911
I34
sS'4%'
p912
I34
sS'like'
p913
I19
sS'cool'
p914
I34
sS'balls'
p915
I34
sS"momma's"
p916
I34
sS'candy'
p917
I34
sS'remind'
p918
I34
sS'true'
p919
I34
sS'steps'
p920
I34
sS't'
p921
I34
sS'zombies'
p922
I34
sS'night'
p923
I29
sS'become'
p924
I33
sS'que\xe2\x80\xa6'
p925
I34
sS'elijah'
p926
I34
sS'right'
p927
I33
sS'old'
p928
I33
sS'laugh'
p929
I34
sS'people'
p930
I33
sS'nobody'
p931
I34
sS'paissa'
p932
I28
sS'some'
p933
I33
sS'back'
p934
I31
sS'oh'
p935
I34
sS'mmmmm'
p936
I34
sS'110'
p937
I26
sS'goin'
p938
I34
sS'proper'
p939
I34
sS'home'
p940
I33
sS'finna'
p941
I33
sS'creep'
p942
I34
sS'sister'
p943
I34
sS'strategic'
p944
I34
sS'trust'
p945
I33
sS'for'
p946
I9
sS'bottom'
p947
I34
sS'mobil'
p948
I31
sS'though'
p949
I34
sS'jeny100411\xe2\x80\xa6'
p950
I34
sS'bagos'
p951
I34
sS'singles'
p952
I34
sS'does'
p953
I34
sS'chicos'
p954
I34
sS'shakespeare'
p955
I34
sS'esa'
p956
I34
sS'picks'
p957
I34
sS'bellagio'
p958
I33
sS'christmas'
p959
I34
sS'be'
p960
I16
sS'goooooo'
p961
I34
sS'charger'
p962
I34
sS'\xee\x81\x89'
p963
I34
sS'bc'
p964
I34
sS'lmfao'
p965
I34
sS'lmaoooo'
p966
I34
sS'spider-man'
p967
I34
sS'07:35:30.0,34.0039427,-118.275731,2318,it'
p968
I34
sS'how'
p969
I29
sS'from'
p970
I29
sS';)'
p971
I29
sS'\xd9\x85\xd9\x86'
p972
I34
sS'super'
p973
I32
sS'by'
p974
I32
sS'hiding'
p975
I34
sS'hearing'
p976
I33
sS'on'
p977
I17
sS'about'
p978
I31
sS':-)'
p979
I31
sS'ok'
p980
I34
sS'retraced'
p981
I34
sS'getting'
p982
I32
sS'of'
p983
I13
sS'white/mexican'
p984
I34
sS'months'
p985
I34
sS'favorite'
p986
I32
sS'truck'
p987
I34
sS'o'
p988
I34
sS'meal'
p989
I34
sS'angeles'
p990
I16
sS'dinner'
p991
I34
sS'must'
p992
I34
sS'2business'
p993
I34
sS'act'
p994
I33
sS't.r.u.s.t'
p995
I28
sS'glasses'
p996
I34
sS'wanna'
p997
I34
sS'or'
p998
I33
sS'road'
p999
I34
sS'sombras'
p1000
I34
sS'seeing'
p1001
I34
sS'aha'
p1002
I34
sS'owe'
p1003
I34
sS'pussy'
p1004
I34
sS'into'
p1005
I33
sS'here!,90037\n519623070344953856,hottaescada,2014-10-07'
p1006
I34
sS'snapchat'
p1007
I34
sS'down'
p1008
I33
sS'quiero'
p1009
I34
sS'en'
p1010
I34
sS'amiga'
p1011
I34
sS'homeless'
p1012
I34
sS'dreaming'
p1013
I34
sS'elementary'
p1014
I31
sS'backups'
p1015
I34
sS'sports'
p1016
I34
sS'your'
p1017
I31
sS'trabajar'
p1018
I33
sS'her'
p1019
I33
sS'museum'
p1020
I33
sS'live'
p1021
I34
sS'lol'
p1022
I14
sS'noticed'
p1023
I34
sS'gig'
p1024
I34
sS'los'
p1025
I34
sS'lonely'
p1026
I34
sS'years.trying'
p1027
I34
sS'lot'
p1028
I31
sS'suit'
p1029
I34
sS'forward'
p1030
I34
sS'music'
p1031
I34
sS'bored'
p1032
I33
sS'was'
p1033
I24
sS'scared'
p1034
I34
sS'hummmmmm'
p1035
I34
sS'happy'
p1036
I28
sS'head'
p1037
I34
sS'buy'
p1038
I34
sS'north'
p1039
I28
sS'slip'
p1040
I34
sS'2:30pm'
p1041
I34
sS"i've"
p1042
I32
sS'fasho'
p1043
I34
sS'bus'
p1044
I34
sS'relaxed'
p1045
I34
sS'forever'
p1046
I34
sS'but'
p1047
I29
sS'idea'
p1048
I34
sS'volume'
p1049
I34
sS'boys'
p1050
I34
sS'hear'
p1051
I32
sS'lmao,90037\n491502185826365440,realtreday,2014-07-22'
p1052
I34
sS'straight'
p1053
I34
sS'boyz'
p1054
I34
sS'ole'
p1055
I34
sS'trying'
p1056
I33
sS'with'
p1057
I19
sS'muuuuuaaaccc'
p1058
I34
sS'he'
p1059
I27
sS'info'
p1060
I33
sS"they're"
p1061
I34
sS'tengan'
p1062
I33
sS'usaul'
p1063
I34
sS"wasn't"
p1064
I34
sS'wish'
p1065
I34
sS'inside'
p1066
I34
sS'annoying'
p1067
I34
sS'up'
p1068
I18
sS"we're"
p1069
I34
sS'blueberry'
p1070
I34
sS'um'
p1071
I34
sS'strawberry'
p1072
I34
sS'un'
p1073
I34
sS'empty'
p1074
I34
sS'pumped'
p1075
I34
sS'bae'
p1076
I34
sS'venir'
p1077
I34
sS'minutes'
p1078
I34
sS'adorn'
p1079
I34
sS'caught'
p1080
I34
sS'later'
p1081
I32
sS'done...but'
p1082
I34
sS'tryna'
p1083
I34
sS'taste'
p1084
I34
sS'feliz'
p1085
I32
sS'pic'
p1086
I34
sS'am'
p1087
I33
sS'al'
p1088
I34
sS'an'
p1089
I31
sS'dear'
p1090
I34
sS'as'
p1091
I28
sS'sometime'
p1092
I34
sS'at'
p1093
I8
sS'goodness'
p1094
I34
sS'logo'
p1095
I34
sS'ay'
p1096
I34
sS'education'
p1097
I34
sS'07:33:26.0,34.0039167,-118.2756957,2318,hiking'
p1098
I34
sS'happen'
p1099
I34
sS'shit'
p1100
I29
sS'inc'
p1101
I34
sS'again'
p1102
I29
sS'entirely'
p1103
I34
sS'no'
p1104
I27
sS'nah'
p1105
I34
sS'45'
p1106
I34
sS'when'
p1107
I26
sS'texter'
p1108
I34
sS'handed'
p1109
I34
sS'lately'
p1110
I34
sS'til'
p1111
I34
sS'dawgs'
p1112
I34
sS'drinks\xe2\x80\xa6'
p1113
I34
sS'booo'
p1114
I34
sS'you'
p1115
I6
sS'out'
p1116
I27
sS'smell'
p1117
I34
sS'polar'
p1118
I33
sS'ryus'
p1119
I34
sS'repeat'
p1120
I34
sS'papi'
p1121
I33
sS'brothers'
p1122
I34
sS'depress'
p1123
I34
sS'students'
p1124
I34
sS'oat'
p1125
I34
sS'why'
p1126
I34
sS'football'
p1127
I34
sS'stay'
p1128
I34
sS"let's"
p1129
I33
sS'chance'
p1130
I34
sS'calum'
p1131
I34
sS'yessssir'
p1132
I34
sS'chris'
p1133
I34
sS'earphones'
p1134
I34
sS'jijijii'
p1135
I34
sS'melba'
p1136
I34
sS'booked'
p1137
I34
sS'\xe2\x80\x94'
p1138
I33
sS'\xd8\xaf\xd8\xa7\xd8\xb9\xd9\x8a'
p1139
I34
sS'whattttt?,90037\n493453455877341185,yurelimac,2014-07-27'
p1140
I34
sS'teams'
p1141
I34
sS'dicho'
p1142
I34
sS'gardens'
p1143
I34
sS'calle'
p1144
I34
sS'\xd9\x85\xd8\xa7\xd9\x86\xd9\x8a'
p1145
I34
sS'loyal'
p1146
I34
sS'warm'
p1147
I34
sS'u'
p1148
I30
sS'came'
p1149
I34
sS'time'
p1150
I26
sS'serious'
p1151
I34
sS'dust'
p1152
I34
sS'hello'
p1153
I34
s.