(dp0
S''
p1
I4
sS'all'
p2
I20
sS':/'
p3
I23
sS'forget'
p4
I24
sS'dollar'
p5
I24
sS'month'
p6
I24
sS'laura'
p7
I24
sS'woods'
p8
I24
sS'go'
p9
I21
sS'follow'
p10
I24
sS'hate'
p11
I24
sS'consider'
p12
I24
sS'otro'
p13
I24
sS'tv'
p14
I24
sS'tweet'
p15
I24
sS'wassup'
p16
I24
sS'to'
p17
I7
sS'dislike'
p18
I24
sS'worth'
p19
I24
sS'norm'
p20
I24
sS'shaving'
p21
I24
sS'customer'
p22
I21
sS'woman'
p23
I24
sS'fat'
p24
I22
sS'every'
p25
I22
sS'bevo'
p26
I24
sS'stabbed'
p27
I24
sS'bringing'
p28
I24
sS'minute'
p29
I24
sS'cool'
p30
I24
sS'trippin'
p31
I23
sS'school'
p32
I23
sS'magic'
p33
I24
sS'salvador'
p34
I24
sS'mothers'
p35
I24
sS'did'
p36
I24
sS'$89500'
p37
I24
sS'gun'
p38
I22
sS'try'
p39
I24
sS'frozen'
p40
I24
sS'nigger'
p41
I24
sS'quick'
p42
I24
sS'guy'
p43
I22
sS'says'
p44
I24
sS'tired'
p45
I24
sS'dodo'
p46
I24
sS'tires'
p47
I24
sS'second'
p48
I24
sS'street'
p49
I23
sS'picked'
p50
I24
sS'n'
p51
I23
sS'click'
p52
I24
sS'will'
p53
I24
sS'what'
p54
I23
sS'duuuude'
p55
I24
sS'movies'
p56
I24
sS'fingers'
p57
I24
sS'waiting'
p58
I24
sS'twins'
p59
I24
sS'goes'
p60
I24
sS'kershaw'
p61
I24
sS'new'
p62
I23
sS'public'
p63
I24
sS'sux'
p64
I24
sS'vamos'
p65
I24
sS'body'
p66
I24
sS'never'
p67
I22
sS'here'
p68
I22
sS'busy'
p69
I24
sS'baseball'
p70
I24
sS'alone'
p71
I24
sS'november'
p72
I24
sS'wait'
p73
I24
sS'kids'
p74
I24
sS'yessss'
p75
I24
sS'metro'
p76
I24
sS'shift'
p77
I24
sS'rocky'
p78
I24
sS"i'd"
p79
I24
sS"i'm"
p80
I19
sS'makes'
p81
I24
sS'eyebrows'
p82
I24
sS'love'
p83
I22
sS'secure'
p84
I24
sS'family'
p85
I24
sS'poppin'
p86
I24
sS'bro'
p87
I24
sS'till'
p88
I22
sS'teams\xe2\x80\xa6'
p89
I24
sS'use'
p90
I24
sS'from'
p91
I20
sS'would'
p92
I24
sS'&'
p93
I19
sS'$300'
p94
I24
sS'hospital'
p95
I24
sS'pero'
p96
I24
sS'two'
p97
I22
sS'next'
p98
I24
sS'few'
p99
I24
sS'doubt'
p100
I24
sS'call'
p101
I23
sS'films'
p102
I24
sS'means'
p103
I24
sS'tryin'
p104
I24
sS'today'
p105
I22
sS'more'
p106
I18
sS'honey?fucking'
p107
I24
sS'1/3'
p108
I24
sS'definition'
p109
I24
sS'haha'
p110
I19
sS'sister'
p111
I24
sS'"i'
p112
I24
sS'warm'
p113
I24
sS"ain't"
p114
I22
sS'stick'
p115
I24
sS'broke'
p116
I24
sS'recount'
p117
I24
sS'baby'
p118
I24
sS'must'
p119
I24
sS'me'
p120
I9
sS'1992'
p121
I24
sS'hour'
p122
I24
sS'this'
p123
I17
sS'car'
p124
I23
sS'work'
p125
I20
sS'sucks'
p126
I24
sS'mt'
p127
I24
sS'vs'
p128
I24
sS'can'
p129
I20
sS'making'
p130
I24
sS'my'
p131
I3
sS'lords'
p132
I24
sS'give'
p133
I22
sS'fuck'
p134
I14
sS'something'
p135
I23
sS'want'
p136
I20
sS'offense'
p137
I24
sS'times'
p138
I24
sS'sit'
p139
I24
sS'rather'
p140
I24
sS'acts'
p141
I24
sS'cheaper"'
p142
I24
sS'how'
p143
I23
sS'hot'
p144
I23
sS'ig'
p145
I24
sS'se\xc3\xb1orita'
p146
I24
sS'bday'
p147
I24
sS'watch'
p148
I23
sS'earlier'
p149
I24
sS'cervezas'
p150
I24
sS'fite'
p151
I24
sS'crashed'
p152
I24
sS'mad'
p153
I24
sS'coming'
p154
I23
sS'such'
p155
I24
sS'guys'
p156
I23
sS'man'
p157
I22
sS'a'
p158
I2
sS'short'
p159
I24
sS'calves'
p160
I24
sS'johnson'
p161
I24
sS'barry...are'
p162
I24
sS'backkkkkkk'
p163
I24
sS'st'
p164
I24
sS'guys..clyde'
p165
I24
sS'killers'
p166
I24
sS'truck'
p167
I24
sS'worst'
p168
I24
sS'dream'
p169
I24
sS'talk'
p170
I23
sS"that's"
p171
I19
sS'cute'
p172
I24
sS'mexican'
p173
I24
sS'shoes'
p174
I24
sS"don't"
p175
I17
sS'over'
p176
I24
sS'hiring'
p177
I24
sS'organize'
p178
I24
sS'through'
p179
I24
sS'looks'
p180
I23
sS'cold'
p181
I22
sS'still'
p182
I23
sS'drinking'
p183
I24
sS'before'
p184
I24
sS'thank'
p185
I24
sS"he's"
p186
I23
sS'somewhere'
p187
I24
sS'dolla'
p188
I24
sS'better'
p189
I24
sS'thanx'
p190
I24
sS'might'
p191
I23
sS"haven't"
p192
I24
sS'hahah'
p193
I24
sS'then'
p194
I24
sS'them'
p195
I22
sS'someone'
p196
I23
sS'somebody'
p197
I22
sS'yo'
p198
I23
sS'food'
p199
I24
sS'practice'
p200
I23
sS'..preach'
p201
I24
sS'break'
p202
I24
sS'roommate'
p203
I24
sS'taliban'
p204
I24
sS'they'
p205
I19
sS'half'
p206
I24
sS'not'
p207
I17
sS'now'
p208
I17
sS'day'
p209
I18
sS'bigger'
p210
I24
sS'marcus'
p211
I24
sS'name'
p212
I23
sS'pregnant'
p213
I23
sS'always'
p214
I23
sS'debating'
p215
I24
sS'rock'
p216
I24
sS'found'
p217
I24
sS'went'
p218
I24
sS'shaking'
p219
I24
sS'spiritually'
p220
I24
sS'el'
p221
I24
sS'everyone'
p222
I23
sS'honduras'
p223
I24
sS'doing'
p224
I24
sS'yeah'
p225
I23
sS'boosie'
p226
I24
sS'hoes'
p227
I24
sS'happen'
p228
I24
sS'calling'
p229
I24
sS'out'
p230
I16
sS'stocker'
p231
I24
sS'gol'
p232
I24
sS'driving'
p233
I23
sS'open'
p234
I24
sS'ha'
p235
I19
sS'got'
p236
I18
sS'smog'
p237
I24
sS'cause'
p238
I22
sS'ass'
p239
I20
sS'dodgers'
p240
I24
sS"you're"
p241
I24
sS'huevos'
p242
I24
sS'story'
p243
I24
sS'free'
p244
I24
sS'"hey'
p245
I24
sS'oktoberfest'
p246
I24
sS'training'
p247
I24
sS'allies'
p248
I24
sS'yup'
p249
I23
sS'days'
p250
I24
sS'david'
p251
I24
sS'place'
p252
I24
sS'think'
p253
I22
sS'inspectors'
p254
I24
sS'manger'
p255
I24
sS'already'
p256
I23
sS'dont'
p257
I23
sS'feel'
p258
I22
sS'number'
p259
I24
sS'one'
p260
I20
sS'whoop'
p261
I24
sS'hook'
p262
I24
sS'bitch'
p263
I23
sS'another'
p264
I23
sS'miss'
p265
I23
sS'city'
p266
I23
sS'guess'
p267
I23
sS'"'
p268
I23
sS'heads'
p269
I23
sS'leading'
p270
I24
sS'girls'
p271
I24
sS'their'
p272
I24
sS'2'
p273
I24
sS'too'
p274
I22
sS'teeeee'
p275
I24
sS'friend'
p276
I24
sS'beard'
p277
I23
sS'lot'
p278
I23
sS'that'
p279
I9
sS'season'
p280
I24
sS'huh'
p281
I24
sS'took'
p282
I24
sS'because'
p283
I22
sS'tacosnotwar'
p284
I24
sS'butt'
p285
I24
sS'kept'
p286
I24
sS'than'
p287
I19
sS'10'
p288
I24
sS'kind'
p289
I24
sS'"god'
p290
I24
sS'19'
p291
I24
sS'gotta'
p292
I24
sS'and'
p293
I5
sS'uneven"'
p294
I24
sS'cdtech'
p295
I24
sS'mind'
p296
I24
sS'mine'
p297
I24
sS'graffiti'
p298
I24
sS'have'
p299
I19
sS'need'
p300
I19
sS'seen'
p301
I23
sS'seem'
p302
I24
sS'saw'
p303
I24
sS'tells'
p304
I24
sS'sat'
p305
I24
sS'thought'
p306
I24
sS'cartel'
p307
I24
sS'person'
p308
I24
sS'lil'
p309
I24
sS'boyfriend"'
p310
I24
sS'-'
p311
I22
sS'hangover'
p312
I24
sS'also'
p313
I24
sS"100's"
p314
I24
sS'dayfade'
p315
I24
sS'square'
p316
I24
sS'take'
p317
I21
sS'so'
p318
I21
sS'49th'
p319
I24
sS'prices"'
p320
I24
sS'play'
p321
I23
sS'hoover'
p322
I24
sS'who'
p323
I24
sS'paid'
p324
I24
sS'rehearsal'
p325
I24
sS'most'
p326
I23
sS'11:11'
p327
I24
sS'why'
p328
I23
sS'michelle'
p329
I24
sS'understands'
p330
I24
sS'pulled'
p331
I24
sS'drive'
p332
I24
sS'face'
p333
I24
sS'h2o'
p334
I24
sS'clean'
p335
I23
sS'came'
p336
I23
sS'playoffs'
p337
I24
sS'fucks'
p338
I24
sS'wanting'
p339
I24
sS'chicken'
p340
I24
sS'costing'
p341
I24
sS'woot'
p342
I23
sS'sayin'
p343
I24
sS'pinche'
p344
I24
sS'giants'
p345
I24
sS"baby's"
p346
I24
sS'score'
p347
I24
sS'suspect'
p348
I24
sS'watching'
p349
I24
sS'600+'
p350
I24
sS'meant'
p351
I24
sS'do'
p352
I19
sS'his'
p353
I22
sS'get'
p354
I19
sS'dope'
p355
I24
sS'honda'
p356
I24
sS'stop'
p357
I23
sS'da'
p358
I23
sS'burban'
p359
I24
sS'cannot'
p360
I24
sS'him'
p361
I24
sS'spots'
p362
I24
sS'girl'
p363
I24
sS'morning'
p364
I23
sS'naked'
p365
I24
sS'stuff'
p366
I24
sS'she'
p367
I21
sS'wholesale'
p368
I24
sS'told'
p369
I23
sS'view'
p370
I24
sS"y'all"
p371
I22
sS'dump'
p372
I24
sS'physically'
p373
I24
sS'accord'
p374
I24
sS'seat'
p375
I24
sS'accused'
p376
I24
sS'are'
p377
I22
sS'parking'
p378
I24
sS'close'
p379
I24
sS'surgery'
p380
I24
sS'best'
p381
I24
sS'said'
p382
I22
sS'hahahahhahahahaha'
p383
I24
sS'please'
p384
I24
sS'shaved'
p385
I24
sS'efrain'
p386
I24
sS"there's"
p387
I23
sS'hopefully'
p388
I24
sS'probably'
p389
I23
sS'pants'
p390
I24
sS'knowing'
p391
I24
sS'we'
p392
I23
sS'smelled'
p393
I24
sS'habanero'
p394
I24
sS'vernon'
p395
I21
sS'coffee'
p396
I24
sS'wear'
p397
I24
sS'merry'
p398
I24
sS'hurts'
p399
I24
sS'cousin'
p400
I24
sS'lawsuit'
p401
I24
sS'legit'
p402
I24
sS'both'
p403
I24
sS'c'
p404
I24
sS'last'
p405
I18
sS'thou'
p406
I24
sS'joke'
p407
I24
sS'job'
p408
I24
sS'drug'
p409
I24
sS'puff'
p410
I24
sS"can't"
p411
I23
sS'con'
p412
I24
sS'mechanics'
p413
I24
sS'drunk'
p414
I23
sS'community'
p415
I24
sS'walk'
p416
I24
sS'eviction'
p417
I24
sS'likes'
p418
I24
sS'laugh'
p419
I24
sS'table'
p420
I24
sS'yay'
p421
I24
sS"it's"
p422
I20
sS'three'
p423
I24
sS'been'
p424
I24
sS'beer'
p425
I24
sS'much'
p426
I23
sS'hardly'
p427
I24
sS'woke'
p428
I24
sS'life'
p429
I22
sS'lived'
p430
I24
sS'families'
p431
I24
sS'brother'
p432
I24
sS'going'
p433
I24
sS'photos'
p434
I24
sS'finished'
p435
I23
sS'wake'
p436
I24
sS'demand'
p437
I24
sS'aaawww'
p438
I24
sS'brunch'
p439
I24
sS'spain'
p440
I24
sS'look'
p441
I22
sS'these'
p442
I22
sS'sauce'
p443
I24
sS'single'
p444
I24
sS'air'
p445
I24
sS'hopped'
p446
I24
sS'while'
p447
I23
sS'suppose'
p448
I24
sS'fault'
p449
I24
sS'fun'
p450
I24
sS'balance'
p451
I24
sS'eim'
p452
I24
sS'fuk'
p453
I24
sS'~'
p454
I24
sS'mexico'
p455
I24
sS'almost'
p456
I24
sS'is'
p457
I15
sS'it'
p458
I10
sS'rip'
p459
I24
sS'middle'
p460
I24
sS'good'
p461
I23
sS'in'
p462
I12
sS'ready'
p463
I24
sS'inspector'
p464
I24
sS'sits'
p465
I24
sS'worry'
p466
I24
sS'if'
p467
I24
sS'different'
p468
I24
sS'wearing'
p469
I24
sS'make'
p470
I22
sS"everybody's"
p471
I24
sS'same'
p472
I24
sS'clearly'
p473
I24
sS'ya'
p474
I24
sS'pad'
p475
I24
sS'urself'
p476
I24
sS'vandalism'
p477
I24
sS'party'
p478
I24
sS'decide'
p479
I24
sS'lickin'
p480
I24
sS'week'
p481
I24
sS'used'
p482
I24
sS'moyes'
p483
I24
sS'hang'
p484
I24
sS'hand'
p485
I24
sS'fucken'
p486
I24
sS'pookie'
p487
I22
sS'l.a'
p488
I24
sS'mentally'
p489
I24
sS'kid'
p490
I24
sS'\xe2\x9c\x8c\xef\xb8\x8f'
p491
I24
sS'grumpy'
p492
I24
sS'vermont'
p493
I20
sS'bidness'
p494
I23
sS'off'
p495
I21
sS'i'
p496
I1
sS'cheek'
p497
I24
sS'well'
p498
I24
sS'tho'
p499
I24
sS'mia'
p500
I24
sS'46th'
p501
I24
sS'without'
p502
I24
sS'comes'
p503
I24
sS"xtra'd"
p504
I24
sS'the'
p505
I6
sS'overs'
p506
I24
sS'left'
p507
I22
sS'just'
p508
I15
sS'yea'
p509
I23
sS'front'
p510
I24
sS'afro'
p511
I24
sS'thinking'
p512
I23
sS'woosah'
p513
I23
sS'killed'
p514
I24
sS'mann'
p515
I24
sS'4'
p516
I24
sS'easy'
p517
I24
sS'snap'
p518
I24
sS'has'
p519
I24
sS'real'
p520
I24
sS'customers'
p521
I24
sS'around'
p522
I21
sS'stein'
p523
I24
sS'checking'
p524
I24
sS'big'
p525
I24
sS'couple'
p526
I24
sS"who's"
p527
I24
sS'ruff'
p528
I24
sS'early'
p529
I23
sS'game'
p530
I24
sS'know'
p531
I23
sS'performance'
p532
I24
sS'world'
p533
I24
sS'"but'
p534
I24
sS'burnt'
p535
I24
sS'belly'
p536
I24
sS'qwik'
p537
I24
sS'emma'
p538
I24
sS'like'
p539
I20
sS'lost'
p540
I24
sS'everytime'
p541
I24
sS'honestly'
p542
I24
sS'candy'
p543
I24
sS'laddy'
p544
I24
sS'snort'
p545
I24
sS'night'
p546
I21
sS'become'
p547
I24
sS'security'
p548
I24
sS'works'
p549
I24
sS'right'
p550
I20
sS'old'
p551
I23
sS'calarts'
p552
I24
sS'people'
p553
I20
sS'fucking'
p554
I21
sS'twitter'
p555
I24
sS'some'
p556
I19
sS'back'
p557
I21
sS'alive'
p558
I24
sS'escape'
p559
I24
sS'home'
p560
I24
sS"school's"
p561
I24
sS'52nd'
p562
I23
sS'ahhhhhh'
p563
I24
sS'for'
p564
I13
sS'ear'
p565
I24
sS'everything'
p566
I24
sS'does'
p567
I24
sS'birria'
p568
I24
sS'christmas'
p569
I23
sS'laughing'
p570
I24
sS'be'
p571
I16
sS'knew'
p572
I24
sS'eating'
p573
I24
sS'sprint'
p574
I24
sS'asap'
p575
I24
sS'lmfao'
p576
I23
sS'303'
p577
I24
sS'laker'
p578
I24
sS'$80'
p579
I24
sS'leadership'
p580
I24
sS'bs'
p581
I24
sS'pll'
p582
I24
sS'by'
p583
I24
sS'after'
p584
I24
sS'on'
p585
I16
sS'about'
p586
I19
sS'oh'
p587
I24
sS'of'
p588
I11
sS'community...the'
p589
I24
sS'omfgggggggg'
p590
I24
sS'craigslist'
p591
I24
sS'dinner'
p592
I24
sS'swear'
p593
I24
sS'pockets'
p594
I24
sS'act'
p595
I24
sS'wanna'
p596
I24
sS'or'
p597
I22
sS'miracles'
p598
I24
sS'seeing'
p599
I24
sS'own'
p600
I24
sS'dude'
p601
I24
sS'within'
p602
I24
sS'down'
p603
I24
sS'guard'
p604
I24
sS'nigga'
p605
I23
sS'elementary'
p606
I22
sS'england'
p607
I24
sS'your'
p608
I19
sS'fifty-second'
p609
I24
sS'there'
p610
I23
sS'hey'
p611
I24
sS'lol'
p612
I20
sS'semester'
p613
I24
sS'start'
p614
I23
sS'dropping'
p615
I24
sS'way'
p616
I23
sS'was'
p617
I20
sS'happy'
p618
I24
sS'head'
p619
I24
sS"i've"
p620
I24
sS'but'
p621
I22
sS'line'
p622
I24
sS'trying'
p623
I23
sS'with'
p624
I14
sS'eat'
p625
I24
sS'he'
p626
I22
sS'rush'
p627
I24
sS"wasn't"
p628
I24
sS'wish'
p629
I23
sS'bucket'
p630
I24
sS'up'
p631
I17
sS'stalking'
p632
I24
sS'performances'
p633
I24
sS'loving'
p634
I24
sS'minutes'
p635
I24
sS'called'
p636
I24
sS'myy'
p637
I24
sS'whatever'
p638
I24
sS'am'
p639
I24
sS'shoulders'
p640
I24
sS'sober!."'
p641
I24
sS'an'
p642
I23
sS'as'
p643
I23
sS'brother"'
p644
I24
sS'at'
p645
I18
sS'importing'
p646
I24
sS'dammit'
p647
I24
sS'awhile'
p648
I24
sS'trip'
p649
I24
sS'shit'
p650
I16
sS'vista'
p651
I24
sS'gay'
p652
I24
sS'no'
p653
I20
sS'street\xe2\x80\xa6'
p654
I24
sS'when'
p655
I18
sS'nap'
p656
I23
sS'other'
p657
I23
sS'tuff'
p658
I24
sS'sick'
p659
I24
sS'you'
p660
I8
sS'really'
p661
I19
sS"selena's"
p662
I24
sS'rt'
p663
I24
sS'kinds'
p664
I24
sS'stay'
p665
I24
sS"let's"
p666
I23
sS'bullets'
p667
I24
sS'paisas'
p668
I24
sS'friends'
p669
I24
sS'died'
p670
I24
sS'martin'
p671
I24
sS'u'
p672
I23
sS'time'
p673
I20
sS'once'
p674
I24
s.