(dp0
S''
p1
I1
sS'all'
p2
I18
sS'liar'
p3
I34
sS':)'
p4
I32
sS'caused'
p5
I34
sS'teams'
p6
I34
sS'son"'
p7
I33
sS"wendy's"
p8
I34
sS'sleep'
p9
I34
sS'\xe2\x99\xa5\xe2\x99\xa5'
p10
I34
sS'hanging'
p11
I34
sS'go'
p12
I29
sS'follow'
p13
I33
sS'hate'
p14
I33
sS'hmmm'
p15
I34
sS'careful'
p16
I34
sS'zone'
p17
I34
sS'imma'
p18
I33
sS'tweet'
p19
I33
sS'young'
p20
I32
sS't1oon'
p21
I34
sS'to'
p22
I3
sS'tl'
p23
I33
sS'party,90062\n474309975561355265,dwill104,2014-06-04'
p24
I34
sS'walks'
p25
I34
sS'packers'
p26
I34
sS'humm'
p27
I34
sS'smile'
p28
I32
sS"scrape'n"
p29
I33
sS'ilysm'
p30
I34
sS'town'
p31
I34
sS'worse'
p32
I34
sS'confidential'
p33
I34
sS'far'
p34
I33
sS'gina'
p35
I34
sS'detention'
p36
I34
sS'choice'
p37
I34
sS'shoot'
p38
I34
sS'worst'
p39
I34
sS'fam'
p40
I32
sS'yourselves'
p41
I34
sS'drinking'
p42
I34
sS'$1900'
p43
I34
sS'mahk'
p44
I31
sS'cooks'
p45
I32
sS'heaven'
p46
I33
sS'00:37:26.0,33.9913706,-118.3058104,2325,nice'
p47
I34
sS'exits'
p48
I34
sS'cashout'
p49
I31
sS'pinch'
p50
I34
sS'.90'
p51
I34
sS'dig'
p52
I34
sS'michael'
p53
I33
sS'brother'
p54
I34
sS'somos'
p55
I34
sS'settle'
p56
I34
sS'smoc'
p57
I34
sS'team'
p58
I32
sS'movie'
p59
I34
sS'heading'
p60
I34
sS'cashk'
p61
I34
sS"i'll"
p62
I30
sS'says'
p63
I33
sS'ten'
p64
I34
sS'tired'
p65
I34
sS'awake'
p66
I34
sS'tea'
p67
I34
sS'streets'
p68
I34
sS'chex'
p69
I34
sS'sign'
p70
I33
sS'chef'
p71
I34
sS'many'
p72
I34
sS'street'
p73
I33
sS'download'
p74
I34
sS'allowed"'
p75
I34
sS'even'
p76
I32
sS'nothing'
p77
I34
sS'what'
p78
I24
sS'giving'
p79
I34
sS'chillin'
p80
I34
sS'stars'
p81
I34
sS'\xee\x90\xa0'
p82
I34
sS"belasco's"
p83
I34
sS'pumped'
p84
I34
sS'payday'
p85
I34
sS'g1ood'
p86
I34
sS'new'
p87
I31
sS'row'
p88
I34
sS'ever'
p89
I33
sS'told'
p90
I34
sS'drafted'
p91
I33
sS'angelina'
p92
I34
sS"c'mon"
p93
I34
sS'leg'
p94
I34
sS'mensajes'
p95
I34
sS'never'
p96
I28
sS'here'
p97
I28
sS'met'
p98
I33
sS'ramsey'
p99
I34
sS'let'
p100
I33
sS'kicker'
p101
I34
sS"o'keefe"
p102
I34
sS'active'
p103
I34
sS'sing'
p104
I34
sS'along'
p105
I34
sS'earthquake'
p106
I34
sS'wait'
p107
I33
sS'box'
p108
I34
sS'boy'
p109
I33
sS'great'
p110
I32
sS'laughter'
p111
I34
sS'k'
p112
I33
sS'28.,90062\n474231845630930944,dwill104,2014-06-04'
p113
I34
sS'piercing'
p114
I34
sS'"celebrity'
p115
I34
sS'jogging'
p116
I33
sS'spread,90047\n480393607438823424,dwill104,2014-06-21'
p117
I34
sS'smoke'
p118
I34
sS'defeat'
p119
I34
sS'action'
p120
I33
sS'ughhhhhhh'
p121
I34
sS"i'm"
p122
I11
sS'makes'
p123
I34
sS'tt'
p124
I33
sS'trainer'
p125
I34
sS'via'
p126
I34
sS'love'
p127
I24
sS'stray'
p128
I34
sS'heart'
p129
I34
sS'egypt'
p130
I34
sS'prefer'
p131
I34
sS'bro'
p132
I33
sS'till'
p133
I34
sS'wit'
p134
I34
sS'insta'
p135
I34
sS'idaho,90062\n474231467417952256,dwill104,2014-06-04'
p136
I34
sS'singing'
p137
I34
sS'red'
p138
I34
sS'everybody'
p139
I34
sS'use'
p140
I33
sS'hahahahaha'
p141
I34
sS'from'
p142
I28
sS'wealth'
p143
I34
sS'would'
p144
I32
sS'&'
p145
I31
sS'two'
p146
I34
sS'next'
p147
I31
sS'ca)'
p148
I33
sS'call'
p149
I32
sS'marry'
p150
I34
sS'unfortunately'
p151
I34
sS'films'
p152
I34
sS'tape'
p153
I34
sS'means'
p154
I34
sS'finesse'
p155
I34
sS'vaness'
p156
I34
sS'tell'
p157
I33
sS'today'
p158
I33
sS"apple's"
p159
I34
sS'door'
p160
I34
sS'pretty'
p161
I34
sS'expose'
p162
I34
sS'under'
p163
I34
sS'haha'
p164
I32
sS'occurred'
p165
I34
sS'confused'
p166
I34
sS'phone'
p167
I31
sS'floyd'
p168
I34
sS"ain't"
p169
I31
sS'oop'
p170
I34
sS'broke'
p171
I33
sS',90062\n426165687271174144,katherineee_gee,2014-01-23'
p172
I34
sS'baby'
p173
I30
sS'central'
p174
I34
sS'hold'
p175
I34
sS'dayuuuuum'
p176
I34
sS'must'
p177
I33
sS'me'
p178
I10
sS'hu$$le'
p179
I34
sS"lol...i'll"
p180
I34
sS'word'
p181
I34
sS'fosho'
p182
I34
sS'niggas'
p183
I34
sS'this'
p184
I15
sS'car'
p185
I34
sS'work'
p186
I29
sS'mi'
p187
I34
sS'decker'
p188
I32
sS'del'
p189
I33
sS'can'
p190
I28
sS'ms'
p191
I34
sS'following'
p192
I34
sS'affiliated'
p193
I34
sS'my'
p194
I6
sS'history'
p195
I34
sS'beautiful'
p196
I32
sS'spy'
p197
I34
sS'months'
p198
I34
sS'give'
p199
I32
sS'katherine'
p200
I34
sS"didn't"
p201
I34
sS'fuck'
p202
I32
sS'socal'
p203
I34
sS'high'
p204
I33
sS'blvd'
p205
I34
sS'ayudarme'
p206
I34
sS'dm'
p207
I34
sS'something'
p208
I32
sS'want'
p209
I25
sS'bucks'
p210
I34
sS'maleficent'
p211
I34
sS'station'
p212
I33
sS't.i'
p213
I34
sS'\xee\x90\x82'
p214
I34
sS'1050'
p215
I34
sS'drama'
p216
I34
sS'court'
p217
I34
sS'sit'
p218
I34
sS'country'
p219
I34
sS'boxing'
p220
I33
sS'657.203.5138'
p221
I34
sS'id'
p222
I34
sS'how'
p223
I25
sS'hot'
p224
I34
sS'title,90062\n455920474271121408,dwill104,2014-04-15'
p225
I34
sS'rookie'
p226
I34
sS'answer'
p227
I34
sS'"no'
p228
I34
sS'ordinary'
p229
I34
sS'beach'
p230
I33
sS'stars!"fuc'
p231
I34
sS'idk'
p232
I34
sS'map'
p233
I34
sS'mas'
p234
I34
sS'ft'
p235
I24
sS'tried'
p236
I34
sS'injury....wtf'
p237
I34
sS'zimmerman'
p238
I34
sS'after'
p239
I30
sS'ronald'
p240
I34
sS'befor'
p241
I34
sS'1.86mi'
p242
I34
sS'birthday'
p243
I33
sS'mad'
p244
I33
sS'mag'
p245
I34
sS'coming'
p246
I34
sS'end'
p247
I34
sS'spelling'
p248
I33
sS'dough'
p249
I34
sS'lap'
p250
I34
sS'man'
p251
I34
sS'a'
p252
I5
sS'natural'
p253
I33
sS'mayweather'
p254
I34
sS'light'
p255
I34
sS'futures'
p256
I34
sS'education'
p257
I34
sS'lost'
p258
I34
sS'rollin'
p259
I34
sS'throws'
p260
I34
sS'si'
p261
I31
sS'honestly'
p262
I32
sS'menlo'
p263
I34
sS'pay'
p264
I34
sS'jolie'
p265
I34
sS'playing'
p266
I32
sS'talk'
p267
I34
sS"that's"
p268
I31
sS'cute'
p269
I32
sS'mexican'
p270
I34
sS'adult'
p271
I34
sS"don't"
p272
I27
sS'september'
p273
I34
sS'over'
p274
I32
sS'list'
p275
I34
sS'arm'
p276
I34
sS'held'
p277
I34
sS'3-round'
p278
I34
sS'through'
p279
I34
sS'looks'
p280
I34
sS'foreal'
p281
I34
sS'cold'
p282
I34
sS'still'
p283
I30
sS'its'
p284
I34
sS'before'
p285
I33
sS'difference'
p286
I34
sS'20'
p287
I34
sS'thank'
p288
I33
sS'la'
p289
I29
sS'lo'
p290
I33
sS'solving'
p291
I33
sS'sia'
p292
I34
sS'crew'
p293
I34
sS'better'
p294
I33
sS'weeks'
p295
I34
sS'holiday'
p296
I34
sS'might'
p297
I34
sS'texas'
p298
I34
sS'dad'
p299
I32
sS'then'
p300
I33
sS'them'
p301
I33
sS'good'
p302
I26
sS'somebody'
p303
I33
sS'yo'
p304
I31
sS'trippin'
p305
I34
sS'ya'
p306
I34
sS'noe'
p307
I34
sS'workout'
p308
I34
sS'spell'
p309
I34
sS'it"'
p310
I34
sS'school'
p311
I32
sS'reachkin'
p312
I34
sS'hispanics'
p313
I34
sS'starbucks'
p314
I33
sS'they'
p315
I30
sS'hands'
p316
I34
sS'not'
p317
I25
sS'now'
p318
I31
sS'day'
p319
I25
sS'bank'
p320
I34
sS'easily'
p321
I34
sS'february'
p322
I33
sS'gets'
p323
I34
sS'name'
p324
I33
sS'pregnant'
p325
I33
sS'always'
p326
I29
sS'detroit'
p327
I34
sS'hkomies'
p328
I33
sS'bless'
p329
I34
sS'did'
p330
I33
sS'slide'
p331
I34
sS'victories'
p332
I34
sS'stopped'
p333
I34
sS'fear,90062\n490636097714528257,geicotheque,2014-07-19'
p334
I34
sS'each'
p335
I33
sS'sneezes'
p336
I34
sS'pizza'
p337
I34
sS'|'
p338
I33
sS"isn't"
p339
I34
sS'mean'
p340
I31
sS'el'
p341
I32
sS'weirdos'
p342
I34
sS'en'
p343
I33
sS'weeknd'
p344
I34
sS'doing'
p345
I32
sS'house'
p346
I33
sS'hard'
p347
I33
sS'yeah'
p348
I34
sS'8%'
p349
I34
sS'rojiblanco'
p350
I34
sS'(ratchet'
p351
I34
sS'farewell'
p352
I34
sS'weave'
p353
I34
sS'year'
p354
I34
sS'a1'
p355
I34
sS'merritt'
p356
I34
sS'girl'
p357
I31
sS'thing'
p358
I34
sS'event'
p359
I34
sS'es'
p360
I33
sS'out'
p361
I22
sS'rt'
p362
I29
sS'presentes'
p363
I34
sS'and\xe2\x80\xa6'
p364
I34
sS'jackson'
p365
I34
sS'driving'
p366
I33
sS'open'
p367
I33
sS'since'
p368
I33
sS'george'
p369
I34
sS'looking'
p370
I34
sS'encourage'
p371
I34
sS'hill'
p372
I34
sS'ihop'
p373
I34
sS'smh'
p374
I34
sS'got'
p375
I24
sS'rojiblanca'
p376
I34
sS'correct'
p377
I34
sS'hermosa'
p378
I34
sS'ass'
p379
I27
sS'bye'
p380
I34
sS'1-2'
p381
I34
sS'quito'
p382
I33
sS'blaring'
p383
I34
sS"you're"
p384
I33
sS'nowadays'
p385
I34
sS'friday'
p386
I34
sS'little'
p387
I32
sS'free'
p388
I34
sS'crime)'
p389
I34
sS'que'
p390
I31
sS'asf'
p391
I34
sS'irritating,90062\n426876430127878145,katherineee_gee,2014-01-25'
p392
I34
sS'ask'
p393
I34
sS'wanted'
p394
I34
sS'holding'
p395
I34
sS'yard'
p396
I34
sS'arce'
p397
I34
sS'"is'
p398
I34
sS'could'
p399
I33
sS'success'
p400
I34
sS'david'
p401
I34
sS'turn'
p402
I33
sS'licked'
p403
I34
sS'plane'
p404
I34
sS'place'
p405
I33
sS'think'
p406
I33
sS'south'
p407
I34
sS'first'
p408
I34
sS'anti-slavery'
p409
I34
sS'already'
p410
I33
sS'pendejo'
p411
I34
sS'poquito'
p412
I34
sS'feel'
p413
I31
sS'ghetto'
p414
I34
sS'taco'
p415
I34
sS'number'
p416
I34
sS'welcome'
p417
I34
sS'one'
p418
I31
sS'hook'
p419
I34
sS'done'
p420
I30
sS'lol'
p421
I15
sS'another'
p422
I33
sS'solvers'
p423
I34
sS'sober'
p424
I34
sS'booty'
p425
I34
sS'ring'
p426
I34
sS'miss'
p427
I32
sS'tomorrow'
p428
I33
sS'happening...sunday'
p429
I34
sS"doesn't"
p430
I31
sS'story'
p431
I33
sS'basketball'
p432
I34
sS':),90062\n474231031684296704,dwill104,2014-06-04'
p433
I34
sS"valentine's"
p434
I34
sS'nozzed'
p435
I34
sS'top'
p436
I34
sS'everyday'
p437
I34
sS'least'
p438
I34
sS'anyone'
p439
I34
sS'their'
p440
I32
sS'jamba'
p441
I34
sS'2'
p442
I30
sS'california'
p443
I34
sS'too'
p444
I30
sS'stuffed'
p445
I34
sS'lions'
p446
I34
sS'white'
p447
I34
sS'kid'
p448
I34
sS'really'
p449
I30
sS'dogs'
p450
I34
sS'store'
p451
I34
sS'defferson'
p452
I34
sS'uds'
p453
I34
sS'eyes'
p454
I33
sS'selling'
p455
I34
sS'lot'
p456
I33
sS'para'
p457
I34
sS'that'
p458
I14
sS'dtla'
p459
I34
sS'gym'
p460
I34
sS'park'
p461
I33
sS'shorty'
p462
I34
sS'"there'
p463
I34
sS'because'
p464
I34
sS'theater'
p465
I31
sS'colston'
p466
I34
sS'stocking'
p467
I34
sS'boyfriend'
p468
I33
sS'0-16'
p469
I34
sS'10'
p470
I34
sS'12'
p471
I34
sS'lmao'
p472
I33
sS'lu\xc3\xadz'
p473
I34
sS'gotta'
p474
I30
sS',90062\n425388639216877569,katherineee_gee,2014-01-20'
p475
I34
sS'glade'
p476
I34
sS'maybe'
p477
I34
sS'dang'
p478
I34
sS'sister'
p479
I34
sS'listen'
p480
I34
sS'anyways'
p481
I34
sS'and'
p482
I13
sS'este'
p483
I34
sS'lick'
p484
I34
sS'false'
p485
I34
sS'esta'
p486
I34
sS'kart'
p487
I34
sS'generation'
p488
I34
sS'esto'
p489
I34
sS'mind'
p490
I34
sS'mine'
p491
I34
sS'slap'
p492
I34
sS'sad'
p493
I34
sS'tonight'
p494
I32
sS'juice'
p495
I34
sS'say'
p496
I31
sS'shkootin'
p497
I34
sS'fighting'
p498
I34
sS'have'
p499
I21
sS'need'
p500
I29
sS'seen'
p501
I33
sS'showers'
p502
I34
sS'tells'
p503
I34
sS'gear'
p504
I34
sS'lie'
p505
I34
sS'fabby'
p506
I34
sS'mia'
p507
I34
sS'self'
p508
I33
sS'16:58:22.0,33.9893646,-118.3093151,2325,man'
p509
I34
sS'-'
p510
I32
sS'mid'
p511
I34
sS'dejamos'
p512
I34
sS'brandon'
p513
I32
sS'without'
p514
I34
sS'square'
p515
I34
sS'take'
p516
I28
sS'season'
p517
I34
sS'so'
p518
I26
sS'guyyss'
p519
I34
sS'panties'
p520
I34
sS'blue'
p521
I34
sS'play'
p522
I33
sS'towards'
p523
I34
sS'pain'
p524
I34
sS'scaring'
p525
I34
sS'shall'
p526
I33
sS'any'
p527
I34
sS"regan's"
p528
I34
sS'doin'
p529
I32
sS'who'
p530
I33
sS'reach'
p531
I33
sS'paid'
p532
I34
sS'took'
p533
I34
sS'76'
p534
I33
sS'ht'
p535
I34
sS'services'
p536
I34
sS'hillsongla'
p537
I34
sS'merece'
p538
I34
sS'why'
p539
I28
sS'sombrero.el'
p540
I34
sS'my\xe2\x80\xa6'
p541
I34
sS'hk'
p542
I34
sS'motherf*cker,90062\n480394012814102529,dwill104,2014-06-21'
p543
I34
sS'average'
p544
I33
sS'later'
p545
I34
sS'clive'
p546
I34
sS'hungry'
p547
I34
sS'brought'
p548
I34
sS'face'
p549
I33
sS"you'll"
p550
I32
sS'points'
p551
I32
sS'jholloway88'
p552
I34
sS'sun'
p553
I34
sS'\xe2\x98\x80\xef\xb8\x8f'
p554
I34
sS'ass!\'"'
p555
I34
sS'boyfriends'
p556
I34
sS'came'
p557
I33
sS'walking'
p558
I32
sS'bomb'
p559
I34
sS'stove'
p560
I33
sS'grandmas'
p561
I34
sS'mooni'
p562
I34
sS'bring'
p563
I33
sS'bright'
p564
I34
sS'session'
p565
I33
sS',90062\n420399069383512064,katherineee_gee,2014-01-07'
p566
I34
sS'se'
p567
I34
sS'chicken'
p568
I33
sS'feat'
p569
I32
sS'find'
p570
I34
sS'staff'
p571
I34
sS'believe'
p572
I34
sS'waiting'
p573
I34
sS"23:15:35.0,33.9891567,-118.3082076,2325,don't"
p574
I34
sS'should'
p575
I31
sS'being'
p576
I34
sS'only'
p577
I33
sS'going'
p578
I29
sS'black'
p579
I34
sS'rich'
p580
I34
sS'money'
p581
I34
sS'8'
p582
I34
sS'luis'
p583
I34
sS'posted'
p584
I33
sS'buenisisisisisisisiimo'
p585
I34
sS'wearing'
p586
I33
sS'do'
p587
I30
sS'his'
p588
I30
sS'hit'
p589
I33
sS'09:16:39.0,33.9933,-118.3058,2325,1.3'
p590
I34
sS'get'
p591
I22
sS'df'
p592
I34
sS'him,90062\n484493278033633280,katherineee_gee,2014-07-03'
p593
I34
sS'dope'
p594
I34
sS'de'
p595
I32
sS'stop'
p596
I33
sS'da'
p597
I33
sS'ones'
p598
I34
sS'words'
p599
I34
sS'international'
p600
I33
sS'trust'
p601
I34
sS'humbled'
p602
I34
sS'years'
p603
I34
sS'him'
p604
I33
sS'14'
p605
I34
sS'one\xe2\x80\x9d'
p606
I34
sS'him"'
p607
I34
sS'rapper'
p608
I34
sS'niece'
p609
I34
sS'morning'
p610
I33
sS'omnilife'
p611
I34
sS'locked'
p612
I34
sS'she'
p613
I27
sS'looc'
p614
I34
sS"won't"
p615
I34
sS'steelers'
p616
I34
sS'coward'
p617
I34
sS'view'
p618
I34
sS"y'all"
p619
I34
sS'set'
p620
I33
sS'espn'
p621
I34
sS'tattoos'
p622
I34
sS'w/'
p623
I34
sS'vine'
p624
I33
sS'sex'
p625
I32
sS'resist'
p626
I34
sS'see'
p627
I31
sS'full'
p628
I34
sS'dumb'
p629
I34
sS'are'
p630
I25
sS'slauson&crenshaw'
p631
I34
sS'hoes'
p632
I34
sS'fellow'
p633
I34
sS'news'
p634
I34
sS'(struggle)'
p635
I34
sS'stars\xe2\x80\x9dthat'
p636
I34
sS'best'
p637
I34
sS'closes'
p638
I34
sS'said'
p639
I32
sS'sombrero'
p640
I34
sS'away'
p641
I34
sS'please'
p642
I34
sS'chandelier-'
p643
I34
sS'partiendo'
p644
I34
sS'st11/5:30/8'
p645
I34
sS'favor'
p646
I34
sS'enough'
p647
I33
sS"there's"
p648
I34
sS'estar'
p649
I34
sS'between'
p650
I34
sS"bushs's"
p651
I34
sS'probably'
p652
I33
sS'teens'
p653
I34
sS"other's"
p654
I34
sS'pants'
p655
I33
sS'solo'
p656
I34
sS'we'
p657
I21
sS'god'
p658
I34
sS'were'
p659
I34
sS'ignorance'
p660
I34
sS'decima'
p661
I34
sS'kicking'
p662
I34
sS'job'
p663
I34
sS'cut'
p664
I34
sS'(los'
p665
I33
sS'wtf'
p666
I34
sS'cousin'
p667
I33
sS'picking'
p668
I33
sS'come'
p669
I33
sS'hobo'
p670
I34
sS'it\'s"'
p671
I34
sS'both'
p672
I34
sS'last'
p673
I33
sS'goldin'
p674
I34
sS'thot'
p675
I32
sS'taking'
p676
I30
sS'compton'
p677
I34
sS'against'
p678
I31
sS'players'
p679
I34
sS's'
p680
I34
sS'trumps'
p681
I34
sS'thang'
p682
I34
sS'park-windsor'
p683
I34
sS'china'
p684
I34
sS'passing'
p685
I34
sS'do."'
p686
I34
sS'los'
p687
I34
sS"can't"
p688
I32
sS'wear'
p689
I33
sS'03:39:09.0,33.9914622,-118.3058842,2325,lmfao'
p690
I34
sS'6%'
p691
I34
sS'drunk'
p692
I34
sS'bricks'
p693
I34
sS'tuesday'
p694
I34
sS'por'
p695
I34
sS'makin'
p696
I34
sS'whatever'
p697
I34
sS'60'
p698
I34
sS'"and'
p699
I34
sS'likes'
p700
I34
sS'church'
p701
I33
sS'kings'
p702
I34
sS'\xc2\xa1golazzooo'
p703
I34
sS'it\xe2\x80\x99s'
p704
I34
sS'sunday'
p705
I34
sS'speak'
p706
I33
sS'tiene'
p707
I34
sS'save'
p708
I34
sS'most'
p709
I34
sS'ahi'
p710
I34
sS'described'
p711
I34
sS'details'
p712
I34
sS'chick'
p713
I34
sS"it's"
p714
I30
sS'af'
p715
I34
sS'tiny'
p716
I33
sS'jess'
p717
I34
sS'much'
p718
I32
sS'damn'
p719
I34
sS'likewise'
p720
I34
sS"lady's"
p721
I34
sS'parents'
p722
I34
sS'ph'
p723
I34
sS'regret."'
p724
I34
sS'wants'
p725
I34
sS'life'
p726
I27
sS'flight'
p727
I34
sS'00:26:13.0,33.9909352,-118.3090779,2325,you'
p728
I34
sS"what's"
p729
I34
sS'gas'
p730
I32
sS'"girl'
p731
I34
sS'pie'
p732
I34
sS'player'
p733
I34
sS'wake'
p734
I31
sS'u.s.a'
p735
I34
sS'lorena'
p736
I34
sS'google'
p737
I34
sS'haters'
p738
I34
sS'bout'
p739
I34
sS'those'
p740
I32
sS'nays'
p741
I34
sS'ae'
p742
I34
sS'gracias'
p743
I34
sS'casa'
p744
I34
sS'look'
p745
I34
sS'these'
p746
I30
sS'mlk'
p747
I34
sS'straight'
p748
I33
sS'cash'
p749
I34
sS'promoter'
p750
I34
sS'air'
p751
I34
sS'will'
p752
I29
sS'while'
p753
I30
sS'baddest'
p754
I34
sS'replaced'
p755
I34
sS'fuc'
p756
I34
sS'b-day'
p757
I34
sS'joke'
p758
I34
sS'stopping'
p759
I34
sS'pictures'
p760
I34
sS'22:05:29.0,33.9905241,-118.3111096,2325,running'
p761
I34
sS'gave'
p762
I34
sS'coolest'
p763
I34
sS'fresheners'
p764
I34
sS'unos'
p765
I34
sS'time.,90047\n480394305282908162,dwill104,2014-06-21'
p766
I34
sS'played'
p767
I34
sS'is'
p768
I12
sS'ink'
p769
I34
sS'it'
p770
I9
sS'sleeping'
p771
I34
sS'they\'re"'
p772
I34
sS'noo'
p773
I34
sS'im'
p774
I33
sS'contract'
p775
I34
sS'in'
p776
I10
sS'stoves'
p777
I34
sS'oku'
p778
I34
sS'mashk'
p779
I34
sS'industry?,90047\n479500467672604672,dwill104,2014-06-19'
p780
I34
sS'ig'
p781
I34
sS'if'
p782
I27
sS'funny'
p783
I33
sS'shooting'
p784
I34
sS'anymore'
p785
I34
sS',90062\n480394943588888576,dwill104,2014-06-21'
p786
I34
sS'things'
p787
I34
sS'make'
p788
I31
sS'chazz'
p789
I34
sS'0'
p790
I34
sS'tour'
p791
I34
sS'same'
p792
I33
sS'orders'
p793
I34
sS"1940's"
p794
I34
sS'entonces'
p795
I34
sS'ingratos'
p796
I34
sS'party'
p797
I34
sS'quitin'
p798
I34
sS'ray'
p799
I34
sS'retweeting'
p800
I34
sS'todos'
p801
I34
sS'difficult'
p802
I34
sS'week'
p803
I33
sS'used'
p804
I34
sS'01:33:12.0,33.99128749,-118.30593783,2325,last'
p805
I34
sS'enjoyment'
p806
I34
sS'wya'
p807
I34
sS'pick'
p808
I34
sS'weed'
p809
I33
sS'dinora'
p810
I34
sS'fucked'
p811
I34
sS'florida,90062\n468319310855696384,earthquakesla,2014-05-19'
p812
I34
sS"dress...i've"
p813
I34
sS'understand'
p814
I34
sS'keep'
p815
I34
sS'kno'
p816
I33
sS'off'
p817
I32
sS'-.-'
p818
I34
sS'older'
p819
I34
sS'i'
p820
I2
sS'estadio'
p821
I34
sS'well'
p822
I28
sS'nothin'
p823
I33
sS'tho'
p824
I34
sS'person'
p825
I33
sS'cheer'
p826
I34
sS'edge'
p827
I34
sS'jersey'
p828
I34
sS'bottle'
p829
I34
sS'english'
p830
I34
sS'y'
p831
I32
sS'traffic'
p832
I34
sS'the'
p833
I4
sS'con'
p834
I34
sS'yours'
p835
I33
sS'tha'
p836
I32
sS'bellow'
p837
I33
sS'mom'
p838
I34
sS'just'
p839
I23
sS'puedes'
p840
I34
sS'photo'
p841
I33
sS'enjoy'
p842
I34
sS';),90062\n455887079633715200,dwill104,2014-04-15'
p843
I34
sS'front'
p844
I34
sS'his\xe2\x80\xa6'
p845
I34
sS'weed!!!\xe2\x80\x9d'
p846
I34
sS'thanks'
p847
I33
sS'khaki'
p848
I34
sS'berry???,90062\n455920826269712385,dwill104,2014-04-15'
p849
I34
sS'yes'
p850
I34
sS'yet'
p851
I34
sS'tables'
p852
I34
sS'tryna'
p853
I34
sS'hills'
p854
I34
sS'legitimately'
p855
I33
sS'cup'
p856
I33
sS'thinking'
p857
I33
sS'17:00:54.0,33.9895753,-118.3086754,2325,i'
p858
I34
sS'gma'
p859
I34
sS'drive'
p860
I34
sS'had'
p861
I32
sS'cuz'
p862
I34
sS'estuvieron'
p863
I34
sS'bench'
p864
I34
sS'mann'
p865
I34
sS'add'
p866
I34
sS'book'
p867
I34
sS'bloc'
p868
I34
sS'ok'
p869
I34
sS'slauson'
p870
I34
sS'homies'
p871
I34
sS'7'
p872
I34
sS'has'
p873
I30
sS'match'
p874
I33
sS"(':,90062\n420399176925470721,katherineee_gee,2014-01-07"
p875
I34
sS'real'
p876
I29
sS'lleno'
p877
I34
sS'mis'
p878
I34
sS'march'
p879
I34
sS'around'
p880
I32
sS'partirsela'
p881
I34
sS'problemas'
p882
I34
sS'big'
p883
I32
sS'aficion'
p884
I34
sS'\xc2\xa1que'
p885
I34
sS'boxing"'
p886
I34
sS'gonna'
p887
I32
sS'early'
p888
I34
sS'game'
p889
I31
sS'bitch'
p890
I34
sS'know'
p891
I30
sS'background'
p892
I33
sS'therealcashoutcris'
p893
I34
sS'world'
p894
I34
sS'bit'
p895
I34
sS'banda'
p896
I33
sS'paint'
p897
I34
sS'"your'
p898
I34
sS'shoulder'
p899
I34
sS'you\'re"'
p900
I34
sS'nay'
p901
I34
sS'flight!!!\xe2\x9c\x88\xef\xb8\x8f\xe2\x9c\x8c\xef\xb8\x8f'
p902
I34
sS'like'
p903
I21
sS'-_-'
p904
I34
sS'word!"'
p905
I34
sS'chesterfield'
p906
I34
sS'wingstop'
p907
I34
sS'50'
p908
I34
sS'walgreens\xe2\x80\xa6'
p909
I34
sS'gangsters'
p910
I34
sS'peeves'
p911
I34
sS'nipple'
p912
I34
sS'martin'
p913
I33
sS'prevention'
p914
I34
sS'antique'
p915
I33
sS'dicc'
p916
I34
sS'nigga'
p917
I25
sS'old'
p918
I33
sS'people'
p919
I32
sS'fucking'
p920
I33
sS'madrid'
p921
I34
sS'some'
p922
I26
sS'back'
p923
I31
sS'dead'
p924
I32
sS'oh'
p925
I32
sS'hair'
p926
I34
sS'sure'
p927
I34
sS'however'
p928
I34
sS'bells'
p929
I34
sS'home'
p930
I32
sS'own.,90047\n466612026291527680,geicotheque,2014-05-14'
p931
I34
sS'love/hate'
p932
I34
sS'4da'
p933
I33
sS'happens'
p934
I34
sS'toxic'
p935
I34
sS'"fuck'
p936
I34
sS'for'
p937
I17
sS'bottom'
p938
I34
sS'pet'
p939
I34
sS'literally'
p940
I34
sS'decision'
p941
I34
sS'though'
p942
I34
sS'lean'
p943
I34
sS'mines'
p944
I34
sS'throat'
p945
I34
sS'does'
p946
I34
sS'4/20'
p947
I34
sS'eso'
p948
I34
sS'belt'
p949
I34
sS'price'
p950
I34
sS'alrite'
p951
I34
sS'be'
p952
I19
sS'mandemosle'
p953
I34
sS'lmfao'
p954
I33
sS'continuing'
p955
I34
sS'bk'
p956
I34
sS'i-phone'
p957
I34
sS'step'
p958
I34
sS',90062\n426165608724447232,katherineee_gee,2014-01-23'
p959
I34
sS'hectic'
p960
I34
sS'"preacher\'s'
p961
I33
sS'losing'
p962
I34
sS';)'
p963
I34
sS'by'
p964
I32
sS'takes'
p965
I34
sS'plug'
p966
I34
sS'on'
p967
I8
sS'about'
p968
I30
sS':-)'
p969
I34
sS'lifestyle'
p970
I32
sS'working'
p971
I34
sS'anything'
p972
I33
sS'getting'
p973
I31
sS'of'
p974
I17
sS'prove'
p975
I34
sS'o'
p976
I34
sS'round'
p977
I34
sS'angeles'
p978
I33
sS'04:42:45.0,33.99505513,-118.30926335,2325,if'
p979
I34
sS'swear'
p980
I34
sS'plus'
p981
I34
sS'stand'
p982
I32
sS'haci'
p983
I34
sS'mismo'
p984
I34
sS'tongue'
p985
I34
sS'wanna'
p986
I31
sS'or'
p987
I30
sS'block'
p988
I34
sS'nerve'
p989
I34
sS'johns'
p990
I34
sS'pussy'
p991
I32
sS'selfie'
p992
I34
sS'within'
p993
I34
sS'bound'
p994
I34
sS'snapchat'
p995
I34
sS'down'
p996
I32
sS'apoyan'
p997
I34
sS'right'
p998
I28
sS'been'
p999
I34
sS'trafficked'
p1000
I34
sS'fantasy'
p1001
I34
sS'your'
p1002
I24
sS'intervention'
p1003
I34
sS'ric'
p1004
I34
sS'breaths'
p1005
I34
sS'her'
p1006
I27
sS'hes'
p1007
I34
sS'beers'
p1008
I34
sS'weekend'
p1009
I34
sS'there'
p1010
I34
sS'live'
p1011
I33
sS'long'
p1012
I33
sS'fight'
p1013
I33
sS'dreaming'
p1014
I34
sS'start'
p1015
I33
sS'drank'
p1016
I34
sS'liane'
p1017
I34
sS'way'
p1018
I33
sS'bruh'
p1019
I34
sS'etenido'
p1020
I34
sS'music'
p1021
I34
sS'sale'
p1022
I34
sS'was'
p1023
I26
sS'war'
p1024
I34
sS'opens'
p1025
I34
sS'happy'
p1026
I33
sS'sagging'
p1027
I34
sS'head'
p1028
I33
sS'mornings'
p1029
I34
sS"i've"
p1030
I33
sS'bitches'
p1031
I34
sS'lmaooo'
p1032
I34
sS'but'
p1033
I25
sS'respetos'
p1034
I34
sS'boys'
p1035
I34
sS'situlakolo'
p1036
I34
sS'possy'
p1037
I34
sS'courts'
p1038
I34
sS'hm'
p1039
I34
sS'beat'
p1040
I34
sS'line'
p1041
I34
sS'trying'
p1042
I34
sS'with'
p1043
I10
sS'usa'
p1044
I34
sS'buying'
p1045
I34
sS'he'
p1046
I20
sS'fades'
p1047
I34
sS'made'
p1048
I34
sS"(scrape'n)"
p1049
I34
sS'happen'
p1050
I34
sS'sounds'
p1051
I34
sS'j'
p1052
I34
sS'fries'
p1053
I33
sS'up'
p1054
I16
sS'us'
p1055
I34
sS'um'
p1056
I33
sS"tomorrow's"
p1057
I34
sS'un'
p1058
I33
sS'trabajo'
p1059
I34
sS'nerdy'
p1060
I34
sS'dmx'
p1061
I34
sS'problem'
p1062
I33
sS'gone'
p1063
I32
sS'boomers'
p1064
I34
sS'hoodies..smh'
p1065
I34
sS"'nice"
p1066
I34
sS'ah'
p1067
I34
sS'doug'
p1068
I34
sS'se\xc3\xb1or'
p1069
I34
sS'deep'
p1070
I33
sS'an'
p1071
I25
sS'belasco'
p1072
I30
sS'fly'
p1073
I34
sS'as'
p1074
I24
sS'at'
p1075
I20
sS'magnifico'
p1076
I34
sS'our'
p1077
I34
sS'ship'
p1078
I34
sS'kissed'
p1079
I32
sS'eric'
p1080
I34
sS'shit'
p1081
I27
sS'incorrect'
p1082
I33
sS'apoyo'
p1083
I34
sS'dotted'
p1084
I34
sS'no'
p1085
I29
sS'na'
p1086
I34
sS'nah'
p1087
I34
sS'when'
p1088
I28
sS'graduate'
p1089
I34
sS'til'
p1090
I34
sS'field'
p1091
I34
sS'other'
p1092
I34
sS'5'
p1093
I33
sS'yesss'
p1094
I34
sS'sick'
p1095
I33
sS'tbh\xe2\x80\x9d'
p1096
I34
sS'you'
p1097
I7
sS'trash'
p1098
I33
sS'roll'
p1099
I33
sS'sicc'
p1100
I34
sS'nice'
p1101
I34
sS'trip'
p1102
I34
sS'hey'
p1103
I33
sS'monday'
p1104
I34
sS'students'
p1105
I34
sS'knew'
p1106
I34
sS'wf'
p1107
I34
sS'god.....people'
p1108
I34
sS'stay'
p1109
I33
sS'nipsey'
p1110
I34
sS'knee'
p1111
I34
sS'rested'
p1112
I34
sS'throughout'
p1113
I34
sS'pullin'
p1114
I34
sS'needed'
p1115
I34
sS'ca$hout'
p1116
I34
sS'lane'
p1117
I34
sS'e'
p1118
I34
sS'happening'
p1119
I34
sS"he's"
p1120
I34
sS'age'
p1121
I34
sS'muchos'
p1122
I34
sS'together'
p1123
I33
sS'2002'
p1124
I34
sS'u'
p1125
I32
sS'3.2.1'
p1126
I34
sS'time'
p1127
I26
sS'recognize'
p1128
I34
sS"she's"
p1129
I32
sS'once'
p1130
I33
s.