(dp0
S''
p1
I2
sS'neighbors'
p2
I36
sS'all'
p3
I30
sS'smt'
p4
I36
sS'topnotchpromotions'
p5
I36
sS'fletch'
p6
I36
sS'****'
p7
I36
sS'yikes'
p8
I36
sS'baby'
p9
I36
sS'habits'
p10
I36
sS'sleep'
p11
I32
sS'asian'
p12
I36
sS'skin'
p13
I36
sS'go'
p14
I31
sS'follow'
p15
I33
sS'hate'
p16
I29
sS'milk'
p17
I36
sS'pigeon'
p18
I36
sS'one'
p19
I32
sS'tv'
p20
I35
sS'***vip'
p21
I36
sS'tweet'
p22
I36
sS'wassup'
p23
I36
sS'specialty'
p24
I36
sS'young'
p25
I36
sS'kindve'
p26
I36
sS'to'
p27
I3
sS'finally'
p28
I35
sS'babysitter'
p29
I36
sS'bruhh'
p30
I32
sS'retweets'
p31
I36
sS'under'
p32
I35
sS'tf'
p33
I36
sS'lord'
p34
I36
sS'sorry'
p35
I14
sS'.......i'
p36
I36
sS'rella'
p37
I36
sS'sent'
p38
I36
sS'abode'
p39
I36
sS'fly'
p40
I33
sS'kendrick'
p41
I35
sS'street'
p42
I36
sS'song'
p43
I32
sS'very'
p44
I35
sS'smh'
p45
I36
sS'account'
p46
I36
sS'vegan'
p47
I36
sS'tacos'
p48
I35
sS'vegas'
p49
I34
sS'every'
p50
I34
sS'fall'
p51
I35
sS'drinking'
p52
I35
sS'minute'
p53
I36
sS'cool'
p54
I35
sS'tickets'
p55
I36
sS'trippin'
p56
I36
sS'school'
p57
I35
sS'heaven'
p58
I36
sS'bestfriend'
p59
I36
sS'did'
p60
I34
sS'die'
p61
I34
sS'button'
p62
I36
sS'compassionate'
p63
I36
sS'laying'
p64
I36
sS'wednesday'
p65
I36
sS'try'
p66
I35
sS'frozen'
p67
I36
sS'sand'
p68
I36
sS'joes'
p69
I36
sS'guy'
p70
I36
sS'stars"'
p71
I36
sS'yall'
p72
I33
sS"i'll"
p73
I35
sS'cookies'
p74
I36
sS'says'
p75
I36
sS'instagram'
p76
I36
sS'tired'
p77
I35
sS're-paint'
p78
I36
sS'menow'
p79
I36
sS'talks'
p80
I36
sS'mia'
p81
I34
sS'video'
p82
I36
sS'booth'
p83
I36
sS'stressing'
p84
I36
sS'10s'
p85
I36
sS'even'
p86
I32
sS'what'
p87
I29
sS'poke'
p88
I36
sS'yeezus'
p89
I36
sS'inglewood'
p90
I36
sS'sum'
p91
I36
sS"that'"
p92
I36
sS'fat'
p93
I36
sS'while'
p94
I36
sS'18'
p95
I36
sS'rub'
p96
I36
sS'waiting'
p97
I36
sS'her.\xe2\x80\x9d'
p98
I36
sS'new'
p99
I36
sS'toenails'
p100
I36
sS'ever'
p101
I34
sS'filled'
p102
I36
sS'body'
p103
I36
sS'aint'
p104
I34
sS'mamas'
p105
I36
sS'camel'
p106
I36
sS'never'
p107
I28
sS'seeee'
p108
I36
sS'here'
p109
I34
sS'liddo'
p110
I36
sS'hours'
p111
I36
sS'yeah...goodmorning'
p112
I36
sS'shape'
p113
I36
sS'let'
p114
I34
sS'greedy'
p115
I36
sS'rowley'
p116
I36
sS'100'
p117
I36
sS'strong'
p118
I36
sS'change'
p119
I35
sS'wait'
p120
I35
sS'box'
p121
I36
sS'boy'
p122
I36
sS'great'
p123
I35
sS'kids'
p124
I36
sS'daughter'
p125
I36
sS'ahead'
p126
I36
sS'completely'
p127
I36
sS'pics'
p128
I36
sS'walkin'
p129
I36
sS'boi'
p130
I36
sS'cinnamon'
p131
I36
sS'smoke'
p132
I32
sS'moreeee'
p133
I36
sS'opinion'
p134
I36
sS"i'm"
p135
I23
sS'~'
p136
I36
sS'makes'
p137
I35
sS'thats'
p138
I34
sS'yokay'
p139
I36
sS'(pinkshirt)'
p140
I36
sS'love'
p141
I24
sS'guacamole'
p142
I36
sS'family'
p143
I36
sS'extra'
p144
I36
sS'app'
p145
I36
sS'333'
p146
I36
sS'feelings'
p147
I35
sS'bro'
p148
I36
sS'ass\xe2\x80\x9d'
p149
I36
sS'wit'
p150
I35
sS'insta'
p151
I36
sS'aaaall'
p152
I36
sS'florence'
p153
I36
sS'emoji'
p154
I36
sS'everybody'
p155
I35
sS'use'
p156
I33
sS'daisys'
p157
I36
sS'from'
p158
I32
sS'would'
p159
I34
sS'&'
p160
I34
sS'aye'
p161
I36
sS'hospital'
p162
I35
sS'two'
p163
I36
sS'next'
p164
I35
sS'cali'
p165
I36
sS'live'
p166
I35
sS'call'
p167
I34
sS'perv'
p168
I36
sS'wondering'
p169
I36
sS'kiss'
p170
I36
sS'stage'
p171
I36
sS'type'
p172
I36
sS'tell'
p173
I34
sS"'sidebitch'"
p174
I36
sS'more'
p175
I31
sS'females'
p176
I36
sS'club'
p177
I36
sS'tax'
p178
I36
sS'mad'
p179
I36
sS'about'
p180
I29
sS'hurt'
p181
I35
sS'mathew'
p182
I36
sS'phone'
p183
I31
sS"ain't"
p184
I32
sS'ashamed'
p185
I36
sS'insta"'
p186
I36
sS'robbing'
p187
I36
sS'hurry'
p188
I36
sS'effort'
p189
I36
sS'women'
p190
I35
sS'me'
p191
I7
sS'honey'
p192
I36
sS'none'
p193
I35
sS'guy..his'
p194
I36
sS'animals'
p195
I36
sS'room'
p196
I36
sS'sanctified'
p197
I36
sS'niggas'
p198
I32
sS'this'
p199
I22
sS'car'
p200
I36
sS'challenge'
p201
I36
sS'work'
p202
I34
sS'soul'
p203
I36
sS'pinkberry'
p204
I36
sS'movies'
p205
I36
sS'sudden'
p206
I35
sS'can'
p207
I29
sS'cam'
p208
I36
sS'learn'
p209
I35
sS'following'
p210
I35
sS'meet'
p211
I33
sS'my'
p212
I6
sS'beautiful'
p213
I35
sS'crazy'
p214
I36
sS'wana'
p215
I36
sS'give'
p216
I34
sS"didn't"
p217
I36
sS'fuck'
p218
I31
sS'high'
p219
I36
sS'heard'
p220
I34
sS'woman'
p221
I35
sS'chin'
p222
I36
sS'something'
p223
I34
sS'want'
p224
I28
sS'luxory'
p225
I36
sS'sharp'
p226
I36
sS'tan'
p227
I36
sS'listens'
p228
I36
sS'preferably'
p229
I36
sS'needs'
p230
I36
sS'hoe'
p231
I36
sS'awkward'
p232
I34
sS'sit'
p233
I35
sS'vibe'
p234
I36
sS'afterlife'
p235
I36
sS'watching'
p236
I35
sS'stayed'
p237
I36
sS'needa'
p238
I35
sS'how'
p239
I26
sS'hot'
p240
I33
sS'swear'
p241
I36
sS'hop'
p242
I36
sS'swore'
p243
I36
sS'answer'
p244
I36
sS'or\xe2\x80\xa6'
p245
I36
sS'tmrw\xe2\x80\x9d<<<imma'
p246
I36
sS"attract'"
p247
I36
sS'pizza'
p248
I34
sS'plans'
p249
I36
sS'butterflyylovee'
p250
I36
sS'watch'
p251
I35
sS'spot'
p252
I36
sS'long'
p253
I36
sS'ego'
p254
I36
sS'bawm'
p255
I36
sS'boofy'
p256
I36
sS'coup'
p257
I36
sS'lay'
p258
I35
sS'numb'
p259
I36
sS'coming'
p260
I36
sS'cuhh'
p261
I34
sS'suing'
p262
I36
sS'suck'
p263
I36
sS'law'
p264
I36
sS'man'
p265
I33
sS'a'
p266
I5
sS'somethin'
p267
I36
sS'waist'
p268
I36
sS'daycare'
p269
I36
sS'looove'
p270
I35
sS'maybe'
p271
I35
sS'greatest'
p272
I36
sS"q's"
p273
I36
sS'bugs'
p274
I36
sS'out\xe2\x80\x9d'
p275
I36
sS"bae's"
p276
I36
sS'so'
p277
I18
sS'keeps'
p278
I35
sS'banks'
p279
I36
sS'worst'
p280
I36
sS'order'
p281
I36
sS'talk'
p282
I35
sS"that's"
p283
I35
sS'sweatin'
p284
I36
sS'help'
p285
I35
sS"don't"
p286
I26
sS'tired...idk'
p287
I36
sS'over'
p288
I32
sS'soon'
p289
I36
sS'migos'
p290
I36
sS'mistake'
p291
I36
sS'through'
p292
I35
sS'signs'
p293
I36
sS'cold'
p294
I36
sS'still'
p295
I36
sS'its'
p296
I27
sS'before'
p297
I36
sS'ima'
p298
I27
sS'gta'
p299
I36
sS'27'
p300
I36
sS'thank'
p301
I36
sS'la'
p302
I35
sS'pray'
p303
I36
sS'troubles'
p304
I36
sS'actually'
p305
I36
sS'better'
p306
I35
sS'cheyenne'
p307
I36
sS'mail'
p308
I36
sS'bye'
p309
I36
sS'sauce'
p310
I36
sS'alter'
p311
I36
sS'goodmorning'
p312
I36
sS'happened'
p313
I36
sS'then'
p314
I33
sS'them'
p315
I33
sS'good'
p316
I25
sS'somebody'
p317
I32
sS'fourth'
p318
I36
sS'yo'
p319
I32
sS'moms'
p320
I36
sS'conversations'
p321
I36
sS'13s'
p322
I36
sS'mention'
p323
I36
sS'tommorrow'
p324
I36
sS'kkids'
p325
I36
sS'they'
p326
I26
sS'half'
p327
I36
sS'not'
p328
I19
sS'rotation'
p329
I36
sS'now'
p330
I28
sS'day'
p331
I33
sS'nor'
p332
I36
sS'bread'
p333
I36
sS'wont'
p334
I36
sS'worlds'
p335
I36
sS'name'
p336
I34
sS'always'
p337
I35
sS'realistic'
p338
I36
sS'doesnt'
p339
I35
sS'trap'
p340
I36
sS'turns'
p341
I36
sS'went'
p342
I36
sS'pint'
p343
I36
sS'goofeball'
p344
I36
sS'mean'
p345
I35
sS'em'
p346
I36
sS'gettin'
p347
I36
sS'met'
p348
I36
sS'hard'
p349
I36
sS'brother'
p350
I36
sS'taught'
p351
I36
sS'ex'
p352
I36
sS'year'
p353
I35
sS'our'
p354
I36
sS'girl'
p355
I35
sS'calling'
p356
I36
sS'insurance'
p357
I36
sS'out'
p358
I29
sS'rt'
p359
I36
sS'living'
p360
I35
sS'gon'
p361
I34
sS'god'
p362
I35
sS'since'
p363
I36
sS'washed'
p364
I35
sS'strangers'
p365
I36
sS'purchasers***'
p366
I36
sS'health'
p367
I36
sS'trafficing'
p368
I36
sS'got'
p369
I21
sS'cause'
p370
I28
sS'ass'
p371
I30
sS'fun'
p372
I36
sS'turning'
p373
I36
sS'likednt'
p374
I36
sS'celebrity\xe2\x80\xa6'
p375
I36
sS'forgive'
p376
I36
sS'free'
p377
I35
sS'puppys'
p378
I36
sS'reason'
p379
I36
sS'struggle'
p380
I36
sS'creator'
p381
I36
sS'put'
p382
I34
sS'weed'
p383
I31
sS'care'
p384
I34
sS'producers'
p385
I36
sS'saggy'
p386
I36
sS'shaggy'
p387
I36
sS'g'
p388
I36
sS'peeve'
p389
I36
sS'11am'
p390
I36
sS'could'
p391
I35
sS'headphones'
p392
I36
sS'ask'
p393
I36
sS'days'
p394
I36
sS'keep'
p395
I36
sS'turn'
p396
I36
sS'lockscreen'
p397
I36
sS'place'
p398
I36
sS'gordon'
p399
I35
sS'enough'
p400
I36
sS'loud'
p401
I36
sS'think'
p402
I29
sS'fuckin'
p403
I36
sS'first'
p404
I34
sS'shave'
p405
I36
sS'already'
p406
I35
sS'dont'
p407
I29
sS'feel'
p408
I31
sS'*'
p409
I36
sS'number'
p410
I35
sS'skills'
p411
I36
sS'yourself'
p412
I35
sS'feet'
p413
I36
sS'seinfeld'
p414
I36
sS'there"'
p415
I36
sS'done'
p416
I34
sS'bitch'
p417
I27
sS'another'
p418
I35
sS'comin'
p419
I35
sS'uncle'
p420
I36
sS'booty'
p421
I36
sS'sounds'
p422
I36
sS'tangle'
p423
I36
sS'miss'
p424
I35
sS'tomorrow'
p425
I36
sS'blunts'
p426
I36
sS'miserably'
p427
I36
sS'little'
p428
I34
sS'basketball'
p429
I36
sS'jugs'
p430
I36
sS'start'
p431
I34
sS'hics'
p432
I36
sS'girls'
p433
I33
sS'anyone'
p434
I35
sS'their'
p435
I34
sS'2'
p436
I36
sS'dumbass'
p437
I36
sS'too'
p438
I32
sS'passed'
p439
I36
sS'typing'
p440
I36
sS'show'
p441
I36
sS'white'
p442
I34
sS'legs'
p443
I36
sS'gives'
p444
I36
sS'till'
p445
I36
sS'hug'
p446
I36
sS'summertime'
p447
I36
sS'that'
p448
I23
sS'season'
p449
I35
sS"judas'"
p450
I36
sS'nobody'
p451
I33
sS'huh'
p452
I34
sS'took'
p453
I36
sS'tomatoe'
p454
I36
sS'biggest'
p455
I36
sS'is\xe2\x80\x9d'
p456
I36
sS'part'
p457
I35
sS'because'
p458
I35
sS'cereal'
p459
I36
sS'nahh'
p460
I36
sS'fooled'
p461
I36
sS'july'
p462
I36
sS'believe'
p463
I35
sS'than'
p464
I32
sS'11'
p465
I36
sS'king'
p466
I35
sS'kind'
p467
I36
sS'b'
p468
I36
sS'15'
p469
I36
sS'lmao'
p470
I35
sS'16'
p471
I36
sS'boring'
p472
I36
sS'gotta'
p473
I36
sS'older'
p474
I36
sS'excuse'
p475
I36
sS'matter'
p476
I36
sS'invention'
p477
I36
sS'fuh'
p478
I36
sS'loves'
p479
I36
sS'light'
p480
I36
sS'dumb'
p481
I36
sS'providing'
p482
I36
sS'bet'
p483
I36
sS'arriana'
p484
I36
sS'and'
p485
I9
sS'outta'
p486
I35
sS'sam'
p487
I36
sS'carrots'
p488
I36
sS'mind'
p489
I35
sS'mine'
p490
I36
sS'comfortable'
p491
I36
sS'tonight'
p492
I34
sS'talking'
p493
I36
sS'say'
p494
I31
sS'gf/bf'
p495
I36
sS'stfu**'
p496
I36
sS'pay'
p497
I36
sS'rap'
p498
I35
sS'lurking'
p499
I36
sS'need'
p500
I29
sS'curved'
p501
I36
sS'seem'
p502
I36
sS'saw'
p503
I36
sS'any'
p504
I35
sS'kevin'
p505
I36
sS'lie'
p506
I36
sS'afraid'
p507
I36
sS'lil'
p508
I33
sS'allergies'
p509
I36
sS'fedding'
p510
I36
sS'couch'
p511
I36
sS'note'
p512
I36
sS'omfg'
p513
I36
sS'breeze'
p514
I36
sS'take'
p515
I31
sS'online'
p516
I35
sS"meme's"
p517
I36
sS'soap'
p518
I36
sS'oops'
p519
I36
sS'blue'
p520
I36
sS'such'
p521
I36
sS'exactly'
p522
I36
sS'exec'
p523
I36
sS'mentality'
p524
I36
sS'kush'
p525
I36
sS'who'
p526
I28
sS'"thanks'
p527
I36
sS'lennox'
p528
I36
sS'netflix'
p529
I35
sS'most'
p530
I35
sS'nothing'
p531
I33
sS'scooby'
p532
I36
sS'coffees'
p533
I36
sS'why'
p534
I34
sS'hut'
p535
I36
sS'stupid'
p536
I36
sS'doo'
p537
I36
sS'kd'
p538
I36
sS'sometimes'
p539
I35
sS'hungry'
p540
I36
sS'playing'
p541
I36
sS'ridiculous'
p542
I36
sS'principle'
p543
I36
sS'jordan'
p544
I36
sS'bordeaux'
p545
I36
sS'section'
p546
I36
sS'came'
p547
I35
sS'walking'
p548
I35
sS'shot'
p549
I36
sS'pope'
p550
I36
sS"one'"
p551
I36
sS'cheat'
p552
I36
sS'text'
p553
I36
sS'random'
p554
I36
sS'assholes'
p555
I36
sS'anyway'
p556
I35
sS'12s'
p557
I36
sS'sinnin'
p558
I36
sS'earth'
p559
I36
sS'fear'
p560
I36
sS'find'
p561
I36
sS'stfy'
p562
I36
sS'barking'
p563
I36
sS'toast'
p564
I35
sS':o'
p565
I36
sS'slow'
p566
I36
sS'rocket'
p567
I36
sS'dick'
p568
I34
sS'outside'
p569
I35
sS'should'
p570
I34
sS'tmrw'
p571
I36
sS'yea'
p572
I36
sS'only'
p573
I32
sS'going'
p574
I36
sS'black'
p575
I36
sS'rich'
p576
I36
sS'money'
p577
I36
sS'circle'
p578
I36
sS'control'
p579
I36
sS'hope'
p580
I35
sS'loved'
p581
I36
sS'exchanged'
p582
I36
sS'do'
p583
I25
sS'hit'
p584
I35
sS'beyonc\xc3\xa9'
p585
I36
sS'get'
p586
I25
sS'chicago'
p587
I36
sS'dope'
p588
I36
sS'stop'
p589
I34
sS'trees'
p590
I36
sS'meand'
p591
I36
sS'saturday'
p592
I36
sS'words'
p593
I36
sS'reply'
p594
I36
sS'daaaaay'
p595
I36
sS'chips'
p596
I36
sS'him'
p597
I34
sS'yaaap'
p598
I36
sS'pimp'
p599
I36
sS'yogurtlaaand'
p600
I36
sS'rogen'
p601
I36
sS'cry'
p602
I35
sS'bothering'
p603
I36
sS'us'
p604
I36
sS'morning'
p605
I35
sS'bad'
p606
I30
sS'bae'
p607
I34
sS'she'
p608
I29
sS'though'
p609
I36
sS'boastin'
p610
I36
sS'comma'
p611
I36
sS'where'
p612
I31
sS'janiah'
p613
I35
sS'approaching'
p614
I36
sS"y'all"
p615
I34
sS'reveals'
p616
I36
sS'blew'
p617
I36
sS'snitched'
p618
I36
sS'crunch'
p619
I36
sS'bucket'
p620
I36
sS'lemonade'
p621
I36
sS'lazy'
p622
I36
sS'welcome'
p623
I36
sS'see'
p624
I31
sS'oomf'
p625
I36
sS'asleep'
p626
I34
sS'are'
p627
I27
sS'hoes'
p628
I35
sS'weird'
p629
I36
sS'ur'
p630
I36
sS'!!\xe2\x80\x9d'
p631
I36
sS'best'
p632
I36
sS'panthers'
p633
I36
sS'24/7'
p634
I36
sS'movie'
p635
I35
sS'away'
p636
I34
sS"boo's"
p637
I36
sS'icecream'
p638
I36
sS'3'
p639
I35
sS'hammock'
p640
I36
sS'between'
p641
I35
sS'yogurt'
p642
I36
sS'barbershop'
p643
I36
sS'stheisy'
p644
I35
sS'watchin'
p645
I36
sS'we'
p646
I27
sS'pushing'
p647
I36
sS'omg'
p648
I36
sS'trynna'
p649
I35
sS'missing'
p650
I36
sS'carmelized'
p651
I36
sS'a.m'
p652
I36
sS'thornberrys'
p653
I36
sS'blame'
p654
I36
sS'wear'
p655
I36
sS'wtf'
p656
I35
sS'hurts'
p657
I36
sS'omy'
p658
I36
sS'boss'
p659
I36
sS'come'
p660
I32
sS'zodiac'
p661
I36
sS'legit'
p662
I36
sS'titties'
p663
I35
sS'feeling'
p664
I36
sS'last'
p665
I34
sS'feeeling'
p666
I36
sS'license'
p667
I36
sS'bessfr'
p668
I35
sS'thou'
p669
I36
sS'many'
p670
I35
sS'ill'
p671
I34
sS"he's"
p672
I36
sS'maaajor'
p673
I36
sS'deeeearlyyyy'
p674
I36
sS'tour'
p675
I35
sS"she's"
p676
I36
sS'atleast'
p677
I36
sS'fraternity'
p678
I36
sS'oovoo'
p679
I36
sS'asked'
p680
I36
sS"can't"
p681
I34
sS'liked'
p682
I36
sS'yoooou'
p683
I35
sS'point'
p684
I35
sS'simple'
p685
I36
sS'seems'
p686
I35
sS'ahoy'
p687
I36
sS'cuz'
p688
I36
sS'cried'
p689
I36
sS'likes'
p690
I36
sS'rpg'
p691
I36
sS'church'
p692
I36
sS'hotter'
p693
I36
sS'9s'
p694
I36
sS'smith'
p695
I36
sS'dj'
p696
I36
sS'late'
p697
I36
sS'snapchat'
p698
I36
sS'devil'
p699
I36
sS'frf'
p700
I36
sS'live!!!.your'
p701
I36
sS"it's"
p702
I35
sS'verse'
p703
I36
sS'been'
p704
I29
sS'much'
p705
I32
sS'damn'
p706
I31
sS'damb'
p707
I36
sS'fry'
p708
I36
sS'waste'
p709
I36
sS'quik'
p710
I36
sS'wants'
p711
I35
sS'life'
p712
I30
sS'sore'
p713
I36
sS'spit'
p714
I36
sS'both'
p715
I36
sS'robbed'
p716
I36
sS'moved'
p717
I36
sS'homie'
p718
I36
sS'else'
p719
I35
sS'moment'
p720
I36
sS'finished'
p721
I36
sS'tense'
p722
I36
sS'deep'
p723
I36
sS'house..it'
p724
I36
sS'smoking'
p725
I36
sS'thing'
p726
I36
sS'careful'
p727
I36
sS'chill'
p728
I36
sS'myself'
p729
I35
sS'crenshaw'
p730
I36
sS'look'
p731
I35
sS'likeno\xe2\x9d\x8cfireworks'
p732
I36
sS'these'
p733
I31
sS'straight'
p734
I35
sS'beats'
p735
I36
sS'value'
p736
I36
sS'n'
p737
I36
sS'will'
p738
I34
sS'retailor'
p739
I36
sS'micheal'
p740
I36
sS"haven't"
p741
I36
sS'fault'
p742
I36
sS'wild'
p743
I36
sS'shops'
p744
I36
sS"capital'"
p745
I36
sS'trader'
p746
I36
sS'dresss'
p747
I36
sS'theres'
p748
I35
sS'ive'
p749
I35
sS'thoes'
p750
I36
sS'have'
p751
I25
sS'played'
p752
I35
sS"'best"
p753
I36
sS'is'
p754
I11
sS'noob'
p755
I36
sS'unlucky'
p756
I36
sS'it'
p757
I15
sS'cant'
p758
I34
sS'someone'
p759
I35
sS'im'
p760
I16
sS'in'
p761
I10
sS'ready'
p762
I35
sS'curtis'
p763
I36
sS'leaving'
p764
I36
sS'id'
p765
I36
sS'if'
p766
I24
sS'funny'
p767
I31
sS'away-'
p768
I36
sS'verified'
p769
I36
sS'tupac'
p770
I36
sS'things'
p771
I36
sS'make'
p772
I32
sS'operas'
p773
I36
sS'same'
p774
I34
sS'big'
p775
I36
sS'party'
p776
I35
sS'gets'
p777
I34
sS'prayers'
p778
I36
sS'soda....again'
p779
I36
sS'planned'
p780
I36
sS"'opposites"
p781
I36
sS'featuring'
p782
I36
sS'cindy'
p783
I36
sS'catholic'
p784
I36
sS'joggers'
p785
I36
sS'hand'
p786
I35
sS'different'
p787
I36
sS'ion'
p788
I36
sS'fucken'
p789
I35
sS'fruit'
p790
I35
sS'purpose'
p791
I36
sS'kim'
p792
I36
sS"would've"
p793
I36
sS'fucked'
p794
I36
sS'totally'
p795
I36
sS'aka'
p796
I36
sS'kid'
p797
I35
sS'break'
p798
I36
sS'lower'
p799
I36
sS'off'
p800
I34
sS'48'
p801
I36
sS'band'
p802
I36
sS'i'
p803
I1
sS"'loveboat'"
p804
I36
sS'youre'
p805
I36
sS'seth'
p806
I36
sS'drip'
p807
I34
sS'thought'
p808
I36
sS'person'
p809
I34
sS'wyd'
p810
I36
sS'comes'
p811
I36
sS'bottle'
p812
I36
sS'mother'
p813
I36
sS'y'
p814
I36
sS'the'
p815
I4
sS'spend'
p816
I36
sS'left'
p817
I36
sS'taxi'
p818
I36
sS'summer'
p819
I34
sS'\xe2\x98\xba\xef\xb8\x8f'
p820
I36
sS'just'
p821
I17
sS'less'
p822
I35
sS'being'
p823
I33
sS'photo'
p824
I36
sS"should've"
p825
I36
sS'hybrid'
p826
I36
sS'sleepy'
p827
I36
sS'rest'
p828
I36
sS'front'
p829
I36
sS'batteries'
p830
I36
sS'human'
p831
I36
sS'tough'
p832
I36
sS'yes'
p833
I36
sS"dm's"
p834
I36
sS'happiness'
p835
I36
sS'apple'
p836
I36
sS'jose'
p837
I36
sS'park'
p838
I36
sS'wed'
p839
I36
sS'thick'
p840
I36
sS'had'
p841
I29
sS'wen'
p842
I35
sS'knew'
p843
I36
sS'bullshit'
p844
I36
sS'havin'
p845
I35
sS'lets'
p846
I36
sS'bunnies'
p847
I36
sS'sweet'
p848
I36
sS'snap'
p849
I36
sS'cum'
p850
I36
sS'has'
p851
I35
sS'aaaaaaye'
p852
I36
sS'cuh'
p853
I36
sS'real'
p854
I36
sS'bio'
p855
I35
sS'livin'
p856
I36
sS"'theres"
p857
I36
sS'gonna'
p858
I34
sS'early'
p859
I36
sS'matters'
p860
I36
sS'game'
p861
I36
sS'know'
p862
I33
sS'mom'
p863
I35
sS'press'
p864
I36
sS'world'
p865
I34
sS'lady'
p866
I36
sS'wings'
p867
I36
sS'toe'
p868
I36
sS'stuff'
p869
I36
sS'like'
p870
I13
sS'wingstop'
p871
I36
sS'message'
p872
I36
sS'zoom'
p873
I36
sS'roll'
p874
I36
sS'peeves'
p875
I36
sS'laughing'
p876
I36
sS'night'
p877
I34
sS'everyone'
p878
I36
sS'funniest'
p879
I36
sS'nigga'
p880
I29
sS'often'
p881
I36
sS'deal'
p882
I36
sS'people'
p883
I28
sS'fucking'
p884
I36
sS'5150'
p885
I36
sS'creation'
p886
I36
sS'some'
p887
I26
sS'back'
p888
I31
sS'oh'
p889
I36
sS'hair'
p890
I33
sS'trippen'
p891
I36
sS'paragraphs'
p892
I36
sS'home'
p893
I34
sS'finna'
p894
I33
sS'reasons'
p895
I36
sS'enemies'
p896
I36
sS'olive'
p897
I36
sS'wow'
p898
I36
sS'for'
p899
I12
sS'pet'
p900
I35
sS'a\xe2\x80\xa6'
p901
I35
sS'ice'
p902
I35
sS'everything'
p903
I35
sS'icy'
p904
I36
sS'does'
p905
I35
sS'decent'
p906
I36
sS'be'
p907
I13
sS'noise'
p908
I36
sS'eating'
p909
I36
sS'power'
p910
I36
sS'quit'
p911
I36
sS'lmfao'
p912
I36
sS'rock'
p913
I36
sS'slut'
p914
I36
sS'petty'
p915
I36
sS'stay'
p916
I36
sS'by'
p917
I33
sS'fibula'
p918
I36
sS"'the"
p919
I36
sS'on'
p920
I19
sS'sister'
p921
I35
sS'bills'
p922
I36
sS'ok'
p923
I36
sS'anything'
p924
I35
sS'getting'
p925
I35
sS'og'
p926
I36
sS'of'
p927
I16
sS'idrc'
p928
I36
sS'shoes'
p929
I36
sS'iknow'
p930
I36
sS'setlist'
p931
I36
sS'angeles'
p932
I35
sS'door\xe2\x80\x9d'
p933
I36
sS'must'
p934
I36
sS'plus'
p935
I36
sS'idk'
p936
I35
sS'neighbor'
p937
I36
sS'west'
p938
I36
sS'supersonics'
p939
I36
sS'efforts'
p940
I36
sS'luck'
p941
I36
sS'wanna'
p942
I32
sS'or'
p943
I32
sS'facetime'
p944
I36
sS'own'
p945
I36
sS'whats'
p946
I36
sS'pussy'
p947
I36
sS'ahh'
p948
I36
sS'blessed'
p949
I36
sS'socks'
p950
I36
sS'down'
p951
I35
sS'momma'
p952
I35
sS'right'
p953
I32
sS'brush'
p954
I35
sS'mintutes'
p955
I36
sS'daddy'
p956
I36
sS'redcorn'
p957
I36
sS'your'
p958
I27
sS'wack'
p959
I35
sS'forth'
p960
I36
sS'impatience'
p961
I36
sS'her'
p962
I25
sS'jameson'
p963
I36
sS'sneeze'
p964
I36
sS'there'
p965
I30
sS'question'
p966
I36
sS'lol'
p967
I29
sS'los'
p968
I35
sS'drank'
p969
I35
sS'low'
p970
I36
sS'way'
p971
I34
sS'bruh'
p972
I35
sS'arentegoistas'
p973
I36
sS'music'
p974
I34
sS'debos'
p975
I36
sS'bored'
p976
I34
sS'was'
p977
I31
sS'happy'
p978
I36
sS'ab-soul'
p979
I36
sS'head'
p980
I36
sS'buy'
p981
I34
sS'complete'
p982
I36
sS"i've"
p983
I34
sS'batman'
p984
I36
sS'anywhere'
p985
I36
sS'hw'
p986
I36
sS'but'
p987
I25
sS'boys'
p988
I35
sS'starbucks'
p989
I36
sS'hear'
p990
I36
sS'tho'
p991
I36
sS'with'
p992
I20
sS'eat'
p993
I34
sS'he'
p994
I28
sS'powder'
p995
I36
sS'proverbs'
p996
I36
sS'throw'
p997
I36
sS'made'
p998
I35
sS'happen'
p999
I36
sS'stubble'
p1000
I36
sS"wasn't"
p1001
I36
sS'wish'
p1002
I35
sS'fries'
p1003
I36
sS'up'
p1004
I28
sS'tellin'
p1005
I36
sS'stalking'
p1006
I36
sS'whiskey'
p1007
I36
sS'cuffin'
p1008
I36
sS'today'
p1009
I36
sS'faded'
p1010
I35
sS'grasp'
p1011
I36
sS'participate'
p1012
I36
sS'...siiikke'
p1013
I36
sS'called'
p1014
I33
sS'shes'
p1015
I36
sS'gone'
p1016
I36
sS'freak'
p1017
I36
sS'af'
p1018
I36
sS'certain'
p1019
I36
sS'forgot'
p1020
I36
sS'listening'
p1021
I36
sS'shoulders'
p1022
I36
sS'something.cant'
p1023
I36
sS'an'
p1024
I33
sS'as'
p1025
I31
sS'at'
p1026
I27
sS'chat'
p1027
I36
sS'girlfriend'
p1028
I35
sS'door'
p1029
I36
sS'check'
p1030
I35
sS'shit'
p1031
I28
sS'cream'
p1032
I36
sS'again'
p1033
I35
sS'jesus'
p1034
I35
sS'crip'
p1035
I36
sS'no'
p1036
I29
sS'deserve'
p1037
I36
sS'drivers'
p1038
I36
sS'when'
p1039
I23
sS'lately'
p1040
I36
sS'til'
p1041
I34
sS'tight'
p1042
I36
sS'nap'
p1043
I36
sS'beverage'
p1044
I36
sS'5'
p1045
I36
sS'tits'
p1046
I36
sS'loooongggg'
p1047
I36
sS'you'
p1048
I8
sS'really'
p1049
I27
sS'talkin'
p1050
I35
sS'nice'
p1051
I36
sS'surprise'
p1052
I36
sS'teeth'
p1053
I36
sS'drift'
p1054
I36
sS'chucks'
p1055
I36
sS'a1'
p1056
I36
sS'alright'
p1057
I36
sS'important'
p1058
I36
sS'schleepin'
p1059
I36
sS'gatsby'
p1060
I35
sS'cadillacs'
p1061
I36
sS'iknew'
p1062
I36
sS'friends'
p1063
I35
sS'skinny'
p1064
I36
sS'goin'
p1065
I36
sS'"the'
p1066
I36
sS'longer'
p1067
I36
sS'wife'
p1068
I34
sS'age'
p1069
I36
sS'cooked'
p1070
I36
sS'loyal'
p1071
I36
sS'hella'
p1072
I35
sS'u'
p1073
I33
sS'lying'
p1074
I36
sS'time'
p1075
I34
sS'far'
p1076
I36
sS'serious'
p1077
I35
sS'concords'
p1078
I36
sS'having'
p1079
I36
sS'songs'
p1080
I35
s.