(dp0
S''
p1
I1
sS'roi'
p2
I27
sS'all'
p3
I20
sS':/'
p4
I27
sS':('
p5
I26
sS':)'
p6
I26
sS'whoever'
p7
I27
sS'dessus'
p8
I27
sS'cens\xc3\xa9'
p9
I27
sS"shit's"
p10
I27
sS'month'
p11
I27
sS'j-j'
p12
I27
sS'\xc3\xa9t\xc3\xa9'
p13
I27
sS'windy'
p14
I27
sS'retour'
p15
I27
sS'sleep'
p16
I24
sS'ga'
p17
I26
sS'go'
p18
I24
sS'follow'
p19
I23
sS'veux'
p20
I26
sS'men...is'
p21
I27
sS'refait'
p22
I26
sS'rd'
p23
I26
sS'feeding'
p24
I27
sS'rue'
p25
I27
sS'paris'
p26
I27
sS'tweet'
p27
I27
sS'tu'
p28
I23
sS'send'
p29
I27
sS'to'
p30
I6
sS'finally'
p31
I27
sS'spain'
p32
I27
sS'tf'
p33
I27
sS'lord'
p34
I27
sS'sorry'
p35
I26
sS'te'
p36
I27
sS"m'acheter"
p37
I27
sS'fuiste'
p38
I27
sS'song'
p39
I27
sS'"tout'
p40
I27
sS'mois'
p41
I27
sS'selfies'
p42
I27
sS'every'
p43
I27
sS'decide'
p44
I27
sS'fam'
p45
I19
sS'telling'
p46
I27
sS'word'
p47
I27
sS'difference'
p48
I26
sS'fan'
p49
I27
sS'cool'
p50
I25
sS'coucher'
p51
I27
sS'did'
p52
I27
sS'day"'
p53
I27
sS'brother'
p54
I27
sS'try'
p55
I27
sS'this'
p56
I18
sS'viber'
p57
I26
sS'min'
p58
I27
sS'yupppppppp'
p59
I26
sS'guy'
p60
I27
sS'round'
p61
I27
sS"i'll"
p62
I24
sS'creepin'
p63
I27
sS'babygirl'
p64
I27
sS'des'
p65
I20
sS'force'
p66
I27
sS'abourne'
p67
I27
sS'tired'
p68
I27
sS'minion'
p69
I27
sS'\xe2\x98\x80\xef\xb8\x8f\xe2\x98\x80\xef\xb8\x8f\xe2\x98\x80\xef\xb8\x8f'
p70
I27
sS'atr\xc3\xa1s'
p71
I27
sS'est\xc3\xa1'
p72
I27
sS'sign'
p73
I27
sS'orgasm'
p74
I27
sS'crave'
p75
I27
sS'fabulous'
p76
I27
sS'crescent'
p77
I27
sS'reunion'
p78
I27
sS'yayyy'
p79
I27
sS'10s'
p80
I27
sS'haaa'
p81
I27
sS'devait'
p82
I27
sS'even'
p83
I27
sS'what'
p84
I21
sS'slapout'
p85
I27
sS'+'
p86
I27
sS'4'
p87
I27
sS'3h'
p88
I27
sS'vehicle'
p89
I27
sS'sur'
p90
I24
sS'goes'
p91
I27
sS'new'
p92
I25
sS'fall'
p93
I27
sS'groupie'
p94
I27
sS'public'
p95
I27
sS'balle'
p96
I27
sS'chose'
p97
I27
sS'foutu'
p98
I27
sS'paper?cashier'
p99
I27
sS'\xc3\x87a'
p100
I26
sS'never'
p101
I24
sS'd\xc3\xa9faites'
p102
I27
sS'here'
p103
I25
sS'hours'
p104
I27
sS'met'
p105
I26
sS'douches'
p106
I27
sS'les'
p107
I22
sS'mes'
p108
I27
sS'making'
p109
I27
sS'confused'
p110
I27
sS'november'
p111
I27
sS'strong'
p112
I27
sS'aprendizaje'
p113
I27
sS'appears'
p114
I26
sS'change'
p115
I27
sS'wait'
p116
I25
sS'leggings'
p117
I27
sS'tranquille'
p118
I27
sS'great'
p119
I26
sS'stevie'
p120
I27
sS'k'
p121
I26
sS'30'
p122
I26
sS'cette'
p123
I26
sS'bon'
p124
I24
sS'boo'
p125
I27
sS'raccoon'
p126
I27
sS"i'm"
p127
I13
sS'makes'
p128
I27
sS'options'
p129
I27
sS'beautiful'
p130
I27
sS'd\xc3\xa9j'
p131
I27
sS'love'
p132
I10
sS'besides'
p133
I27
sS'family'
p134
I26
sS'heart'
p135
I27
sS'quel'
p136
I27
sS'bro'
p137
I25
sS'mimi'
p138
I26
sS'wit'
p139
I27
sS'thursday'
p140
I27
sS'chaud'
p141
I27
sS'scandal'
p142
I26
sS'stand'
p143
I27
sS'should'
p144
I27
sS'couche'
p145
I27
sS'yourself'
p146
I27
sS'siempre'
p147
I27
sS'from'
p148
I22
sS'would'
p149
I27
sS'&'
p150
I24
sS'p\xc3\xa9riode'
p151
I27
sS'don\xe2\x80\x99t'
p152
I27
sS'idiots'
p153
I26
sS'next'
p154
I27
sS'few'
p155
I27
sS'live'
p156
I21
sS'6'
p157
I26
sS'prochain'
p158
I27
sS'type'
p159
I27
sS'tell'
p160
I27
sS'today'
p161
I24
sS'more'
p162
I20
sS'vous'
p163
I27
sS'tomarle'
p164
I27
sS'babe'
p165
I24
sS'knows'
p166
I26
sS'initiated'
p167
I27
sS'viviane'
p168
I27
sS'oscar'
p169
I27
sS'duper'
p170
I27
sS'haha'
p171
I27
sS'putin'
p172
I27
sS'it'
p173
I13
sS'downtown'
p174
I27
sS'mires'
p175
I27
sS"ain't"
p176
I27
sS'pasa...y'
p177
I27
sS'broke'
p178
I27
sS'excellent'
p179
I27
sS'baby'
p180
I26
sS'given'
p181
I27
sS'glad'
p182
I26
sS'women'
p183
I27
sS'me'
p184
I16
sS'account'
p185
I27
sS'ma'
p186
I23
sS'juste'
p187
I27
sS'hour'
p188
I27
sS'\xc3\xa7a'
p189
I25
sS'work'
p190
I26
sS'ass\xe2\x80\x9d'
p191
I27
sS'soul'
p192
I27
sS'pour'
p193
I22
sS'pr'
p194
I27
sS'balla'
p195
I27
sS'4:00'
p196
I26
sS'can'
p197
I21
sS'following'
p198
I25
sS'sommeil'
p199
I27
sS'arrive'
p200
I27
sS'my'
p201
I16
sS'vu'
p202
I27
sS'control'
p203
I27
sS'claim'
p204
I26
sS'crazy'
p205
I26
sS'l\xc3\xa0-bas'
p206
I27
sS'picture'
p207
I27
sS'awesome'
p208
I26
sS'in'
p209
I12
sS"didn't"
p210
I27
sS'fuck'
p211
I26
sS'sick'
p212
I27
sS'thug'
p213
I27
sS'm\xc3\xa9connaissez'
p214
I27
sS'chin'
p215
I26
sS'something'
p216
I26
sS'want'
p217
I25
sS'hit'
p218
I27
sS'honest'
p219
I27
sS'alegr\xc3\xada'
p220
I27
sS'simple'
p221
I27
sS'parce'
p222
I27
sS'huge'
p223
I27
sS'needs'
p224
I27
sS'-.-"'
p225
I27
sS'c\xc5\x93ur'
p226
I27
sS'original'
p227
I27
sS'clever'
p228
I27
sS'watching'
p229
I27
sS'5:40am'
p230
I27
sS'rodeo'
p231
I27
sS'1'
p232
I26
sS'till'
p233
I24
sS'sunday'
p234
I26
sS'playback'
p235
I27
sS'bandwagoners'
p236
I27
sS'pure'
p237
I27
sS'faust'
p238
I27
sS'quoi'
p239
I26
sS'puro'
p240
I27
sS'sin'
p241
I27
sS'idk'
p242
I27
sS'3.45'
p243
I27
sS'=>'
p244
I27
sS'okay'
p245
I26
sS'mat'
p246
I26
sS'2:30'
p247
I27
sS'after'
p248
I26
sS'spot'
p249
I27
sS'rattraper'
p250
I27
sS"j'ai"
p251
I26
sS'mad'
p252
I24
sS'grrr'
p253
I27
sS'vient'
p254
I25
sS'pendeja'
p255
I27
sS'such'
p256
I26
sS'fk'
p257
I27
sS'guys'
p258
I26
sS'mal'
p259
I27
sS"they're"
p260
I26
sS'a'
p261
I4
sS'attempt'
p262
I27
sS'fkn'
p263
I27
sS'80'
p264
I27
sS'chante'
p265
I27
sS'appreciate'
p266
I26
sS'avant'
p267
I27
sS'\xe2\x80\x9cdon\xe2\x80\x99t'
p268
I27
sS'st'
p269
I27
sS'si'
p270
I26
sS'so'
p271
I20
sS'things'
p272
I27
sS'biskrem'
p273
I27
sS'sont'
p274
I27
sS'sa'
p275
I26
sS'talk'
p276
I26
sS"that's"
p277
I24
sS'gal\xc3\xa8re'
p278
I27
sS'peux'
p279
I27
sS'comiendo'
p280
I27
sS"don't"
p281
I23
sS'zzzz'
p282
I27
sS'over'
p283
I26
sS'stays'
p284
I27
sS'ramadan'
p285
I24
sS'baqara'
p286
I27
sS'isnt'
p287
I27
sS'r\xc3\xa9union'
p288
I27
sS'through'
p289
I26
sS'laundrymat'
p290
I27
sS'hell'
p291
I27
sS'cold'
p292
I27
sS'still'
p293
I27
sS'ommggggg'
p294
I27
sS'berkin'
p295
I26
sS'vite'
p296
I27
sS'before'
p297
I27
sS'perfect'
p298
I26
sS'le'
p299
I14
sS'felicia'
p300
I25
sS'thank'
p301
I27
sS'mais'
p302
I19
sS'la'
p303
I7
sS'somewhere'
p304
I27
sS'lo'
p305
I23
sS'gente'
p306
I27
sS'curls'
p307
I27
sS'repped'
p308
I27
sS'maid'
p309
I27
sS'calme'
p310
I27
sS'tweets'
p311
I27
sS'bye'
p312
I25
sS'might'
p313
I27
sS'bails'
p314
I27
sS'dolls'
p315
I27
sS'journ\xc3\xa9e'
p316
I27
sS'then'
p317
I27
sS'non'
p318
I25
sS'good'
p319
I23
sS'gooo'
p320
I27
sS'nada'
p321
I26
sS'doll'
p322
I27
sS'hilarious'
p323
I27
sS'terre'
p324
I27
sS'speechless'
p325
I27
sS'break'
p326
I27
sS'tjr'
p327
I26
sS'ces'
p328
I27
sS"you've"
p329
I27
sS'they'
p330
I27
sS'not'
p331
I16
sS'now'
p332
I24
sS'ahaha'
p333
I27
sS'day'
p334
I19
sS'ktown'
p335
I27
sS'sucked'
p336
I27
sS'name'
p337
I27
sS'faire'
p338
I25
sS'tremblement'
p339
I27
sS'always'
p340
I27
sS'porte'
p341
I27
sS'loosely'
p342
I27
sS'pobre'
p343
I27
sS'micro'
p344
I27
sS'cute'
p345
I27
sS'truth'
p346
I27
sS'fitness'
p347
I27
sS'wilde'
p348
I27
sS'went'
p349
I26
sS'hoy'
p350
I27
sS'jay-z'
p351
I27
sS'basfroi'
p352
I27
sS'mean'
p353
I27
sS'el'
p354
I24
sS'oui'
p355
I27
sS'en'
p356
I20
sS'bueno'
p357
I27
sS'hard'
p358
I27
sS'yeah'
p359
I26
sS'africain'
p360
I27
sS'farewell'
p361
I27
sS'year'
p362
I26
sS'mdr'
p363
I26
sS'et'
p364
I20
sS'happen'
p365
I26
sS'todo'
p366
I25
sS'es'
p367
I23
sS'really'
p368
I21
sS'rt'
p369
I16
sS'living'
p370
I27
sS'quelque'
p371
I27
sS'missed'
p372
I27
sS"'"
p373
I27
sS'fasse'
p374
I27
sS'god'
p375
I26
sS'rep'
p376
I27
sS'tellement'
p377
I26
sS'factory'
p378
I27
sS'looking'
p379
I26
sS'seriously'
p380
I27
sS'miles'
p381
I27
sS'internet'
p382
I27
sS'got'
p383
I23
sS'san'
p384
I27
sS'cause'
p385
I26
sS'correct'
p386
I27
sS'ass'
p387
I26
sS'8h'
p388
I27
sS'lag'
p389
I27
sS'bully'
p390
I27
sS"you're"
p391
I21
sS'nuit'
p392
I25
sS'little'
p393
I27
sS'quite'
p394
I27
sS'o\xc3\xb9'
p395
I25
sS'leur'
p396
I27
sS'que'
p397
I13
sS'dorsey'
p398
I27
sS'qui'
p399
I20
sS'r\xc3\xa9serve'
p400
I27
sS'headick'
p401
I27
sS'you?"'
p402
I27
sS'loved'
p403
I27
sS'fuckery'
p404
I27
sS'keep'
p405
I26
sS'thing'
p406
I26
sS'american'
p407
I27
sS'tiey'
p408
I25
sS'expecting'
p409
I27
sS'derni\xc3\xa8re'
p410
I27
sS"n'avait"
p411
I27
sS'think'
p412
I27
sS"y'all"
p413
I26
sS"m'a"
p414
I27
sS"c'est"
p415
I10
sS'xo'
p416
I17
sS'meet'
p417
I27
sS'\xc3\x80'
p418
I27
sS'welcome'
p419
I27
sS'one'
p420
I20
sS'donc'
p421
I27
sS'talked'
p422
I27
sS'juzgues'
p423
I27
sS'long'
p424
I27
sS'another'
p425
I24
sS'blank'
p426
I27
sS'toi'
p427
I27
sS'open'
p428
I26
sS'hood'
p429
I27
sS'pasa'
p430
I27
sS'city'
p431
I26
sS'guess'
p432
I26
sS'"'
p433
I26
sS'jet'
p434
I27
sS'\xc3\xa0'
p435
I20
sS'girls'
p436
I27
sS'tow'
p437
I27
sS"l'ouverture"
p438
I27
sS'their'
p439
I26
sS'2'
p440
I26
sS'too'
p441
I20
sS'mama'
p442
I26
sS'man'
p443
I25
sS'final'
p444
I27
sS'hacer'
p445
I27
sS'lot'
p446
I27
sS'para'
p447
I26
sS'that'
p448
I14
sS'season'
p449
I27
sS'sourate'
p450
I27
sS'exactly'
p451
I27
sS'huh'
p452
I27
sS'1\xc3\xa8re'
p453
I27
sS'unending'
p454
I27
sS'ridiculous'
p455
I27
sS'prend'
p456
I26
sS'vas'
p457
I26
sS'reconnaissants'
p458
I27
sS'believe'
p459
I27
sS'commence'
p460
I26
sS'10'
p461
I25
sS'kind'
p462
I27
sS'15'
p463
I27
sS'lmao'
p464
I23
sS'tirer'
p465
I27
sS'19'
p466
I27
sS'gotta'
p467
I27
sS'dans'
p468
I24
sS'rate'
p469
I27
sS'gaye'
p470
I27
sS'lapd'
p471
I27
sS'project'
p472
I27
sS'matter'
p473
I27
sS'classes'
p474
I27
sS'rollercoaster'
p475
I27
sS'lover'
p476
I27
sS'devious'
p477
I27
sS'r\xc3\xa9veill\xc3\xa9'
p478
I27
sS'and'
p479
I12
sS'cas'
p480
I27
sS'outta'
p481
I27
sS'aller'
p482
I27
sS'commencer'
p483
I27
sS'trusting'
p484
I27
sS'crame'
p485
I27
sS'r\xc3\xa9veill\xc3\xa9e'
p486
I27
sS'sad'
p487
I25
sS'tonight'
p488
I26
sS'already'
p489
I27
sS'say'
p490
I27
sS'dormir'
p491
I27
sS'faut'
p492
I25
sS'have'
p493
I23
sS'ans'
p494
I27
sS'need'
p495
I25
sS'seen'
p496
I26
sS'breakfast'
p497
I27
sS'importa'
p498
I26
sS'r\xc3\xa9veille'
p499
I27
sS'c**'
p500
I27
sS'afraid'
p501
I27
sS'dallas'
p502
I27
sS'warriors'
p503
I27
sS'-'
p504
I25
sS'guewel'
p505
I27
sS'also'
p506
I27
sS's\xc3\xa9n\xc3\xa9galaise'
p507
I27
sS'maison'
p508
I27
sS'sonneries'
p509
I27
sS'babes'
p510
I27
sS'laughed'
p511
I27
sS'mis'
p512
I26
sS'='
p513
I27
sS';-)'
p514
I26
sS'salle'
p515
I27
sS'sure'
p516
I27
sS'unless'
p517
I27
sS'combat'
p518
I26
sS'though'
p519
I24
sS'track'
p520
I27
sS'quote'
p521
I27
sS'knew'
p522
I24
sS'c\xc3\xa9l\xc3\xa9brit\xc3\xa9'
p523
I27
sS'visitors'
p524
I27
sS'mouth'
p525
I27
sS'souviendrai'
p526
I27
sS'mange'
p527
I27
sS'nothing'
p528
I27
sS'coil'
p529
I27
sS'rediffusion'
p530
I27
sS'why'
p531
I27
sS'ouais'
p532
I26
sS'forever'
p533
I27
sS'lutte'
p534
I27
sS'kg'
p535
I27
sS'amigos'
p536
I27
sS'replying'
p537
I27
sS'eachother'
p538
I27
sS'sometimes'
p539
I27
sS'face'
p540
I27
sS'fille'
p541
I27
sS'rem\xc3\xa8de'
p542
I27
sS'touche'
p543
I27
sS'se'
p544
I17
sS'dolor'
p545
I27
sS'\xe2\x98\x80\xef\xb8\x8f'
p546
I27
sS'r\xc3\xa9apparition'
p547
I27
sS'cabrona'
p548
I27
sS'its'
p549
I27
sS'romantics'
p550
I27
sS'son'
p551
I27
sS'saying'
p552
I27
sS'pope'
p553
I24
sS'dames'
p554
I27
sS'fois'
p555
I27
sS'pleut'
p556
I27
sS'"fake"'
p557
I27
sS'flaca'
p558
I27
sS'earth'
p559
I27
sS'meuf'
p560
I27
sS'trop'
p561
I21
sS'toilet'
p562
I27
sS'find'
p563
I27
sS'bain'
p564
I27
sS'r\xc3\xa9veiller'
p565
I27
sS"m'en"
p566
I27
sS'mubarak'
p567
I26
sS'weekends'
p568
I27
sS'hope'
p569
I27
sS'3'
p570
I25
sS'than'
p571
I26
sS'only'
p572
I24
sS'going'
p573
I25
sS'pretty'
p574
I26
sS'walgreens'
p575
I27
sS'\xe2\x99\xa1'
p576
I27
sS'nouvelle'
p577
I27
sS'mdddr'
p578
I27
sS"l'\xc3\xa9pisode"
p579
I26
sS'hip'
p580
I26
sS'do'
p581
I24
sS'his'
p582
I26
sS'handle'
p583
I27
sS'lanc\xc3\xa9'
p584
I27
sS'get'
p585
I23
sS'dope'
p586
I26
sS'de'
p587
I5
sS'stop'
p588
I24
sS'cens\xc3\xa9e'
p589
I27
sS'negative'
p590
I27
sS'mope'
p591
I27
sS'du'
p592
I22
sS'him'
p593
I26
sS'nouveau'
p594
I27
sS'allah'
p595
I27
sS'cry'
p596
I26
sS'episodes'
p597
I27
sS'morning'
p598
I25
sS'partir'
p599
I27
sS'sha'
p600
I27
sS'bad'
p601
I27
sS'ganas'
p602
I27
sS'toi-m\xc3\xaame."'
p603
I27
sS'she'
p604
I24
sS'swear'
p605
I27
sS"ridin'"
p606
I27
sS'grab'
p607
I27
sS'vies'
p608
I27
sS'where'
p609
I26
sS'pire'
p610
I27
sS'fait'
p611
I26
sS'lettering'
p612
I27
sS'official'
p613
I27
sS'ses'
p614
I27
sS'ser'
p615
I26
sS'fais'
p616
I27
sS'fries'
p617
I27
sS'mind'
p618
I27
sS'hacia'
p619
I27
sS'd\xc3\xa9gaine'
p620
I27
sS'are'
p621
I21
sS'hoes'
p622
I26
sS'matin'
p623
I27
sS'honesta'
p624
I27
sS'eres'
p625
I27
sS'said'
p626
I25
sS'merci'
p627
I27
sS'getting'
p628
I27
sS'movie'
p629
I26
sS'away'
p630
I27
sS'please'
p631
I25
sS'famille'
p632
I27
sS'bien'
p633
I25
sS"there's"
p634
I24
sS'sais'
p635
I27
sS'between'
p636
I26
sS'probably'
p637
I27
sS'nope'
p638
I27
sS'm\xc3\xaame'
p639
I27
sS'r\xc3\xa9veilles'
p640
I27
sS'24'
p641
I26
sS'we'
p642
I19
sS'omg'
p643
I25
sS'initiation'
p644
I26
sS'"think'
p645
I27
sS'dinero'
p646
I27
sS'sold'
p647
I27
sS'were'
p648
I27
sS'weekend'
p649
I27
sS'punch'
p650
I27
sS'fairplay'
p651
I27
sS'razones'
p652
I27
sS'comm'
p653
I27
sS'wear'
p654
I27
sS'wtf'
p655
I26
sS'interface'
p656
I27
sS'20'
p657
I26
sS'boss'
p658
I27
sS'come'
p659
I27
sS'pissed'
p660
I27
sS'vais'
p661
I27
sS'protect'
p662
I27
sS'last'
p663
I27
sS'sino'
p664
I27
sS'rapide'
p665
I27
sS'buscarle'
p666
I27
sS'una'
p667
I27
sS'tour'
p668
I27
sS'sencilla'
p669
I27
sS'tout'
p670
I24
sS'une'
p671
I23
sS'pcs'
p672
I27
sS'seeing'
p673
I27
sS'whole'
p674
I27
sS'blaze'
p675
I27
sS"can't"
p676
I18
sS'con'
p677
I27
sS'comment'
p678
I23
sS'biiiiip'
p679
I27
sS'point'
p680
I26
sS'naaaah'
p681
I27
sS'beyonce'
p682
I27
sS'ca'
p683
I27
sS'gooool'
p684
I27
sS'por'
p685
I25
sS'period'
p686
I27
sS'ce'
p687
I24
sS'genre'
p688
I27
sS'laugh'
p689
I25
sS'je'
p690
I9
sS'sees'
p691
I27
sS'trust'
p692
I26
sS'esta'
p693
I27
sS'tiene'
p694
I27
sS'moins'
p695
I27
sS'consuming'
p696
I27
sS"aren't"
p697
I27
sS'yay'
p698
I27
sS"it's"
p699
I22
sS'claiming'
p700
I27
sS'been'
p701
I26
sS'earthquake'
p702
I26
sS'secret'
p703
I27
sS'much'
p704
I26
sS'roomate'
p705
I26
sS'vrai'
p706
I27
sS'las'
p707
I27
sS'ah'
p708
I27
sS'ph'
p709
I27
sS'known'
p710
I27
sS'woke'
p711
I27
sS'pm'
p712
I27
sS'wants'
p713
I27
sS'terrence'
p714
I27
sS'direction'
p715
I27
sS'premier'
p716
I27
sS'man"'
p717
I27
sS'uh-oh'
p718
I27
sS'aussi'
p719
I27
sS"what's"
p720
I27
sS'23h'
p721
I27
sS'c'
p722
I27
sS'levant\xc3\xa9'
p723
I27
sS'hmm'
p724
I27
sS'awake'
p725
I26
sS'voisin'
p726
I27
sS'child'
p727
I26
sS'atlanta'
p728
I27
sS'haters'
p729
I27
sS'unnecessarily'
p730
I27
sS'chill'
p731
I27
sS'scottish'
p732
I27
sS'look'
p733
I24
sS'hostess'
p734
I27
sS'talking'
p735
I27
sS'these'
p736
I24
sS'fin'
p737
I27
sS'trouille'
p738
I27
sS'will'
p739
I23
sS'near'
p740
I27
sS'tt'
p741
I27
sS'situation'
p742
I27
sS'tant'
p743
I27
sS'nostalgique'
p744
I27
sS'importancia'
p745
I27
sS'va'
p746
I25
sS'ridicule'
p747
I27
sS'flex'
p748
I27
sS'almost'
p749
I24
sS'is'
p750
I8
sS'owen'
p751
I27
sS'purse'
p752
I27
sS'site'
p753
I26
sS'victoires'
p754
I27
sS'beugs'
p755
I27
sS'canceled'
p756
I27
sS"movin'"
p757
I27
sS'il'
p758
I18
sS'soir'
p759
I26
sS'ready'
p760
I27
sS'debout'
p761
I27
sS'arabic'
p762
I27
sS'd\xc3\xada'
p763
I27
sS'consulte'
p764
I27
sS'ig'
p765
I27
sS'if'
p766
I23
sS'funny'
p767
I25
sS'par'
p768
I25
sS'pas'
p769
I21
sS'quand'
p770
I26
sS'anymore'
p771
I26
sS'april'
p772
I27
sS'belle'
p773
I27
sS'bowl'
p774
I27
sS'~\xc3\x97~\xc3\x97~\xc3\x97~siempre'
p775
I27
sS'same'
p776
I26
sS'check'
p777
I27
sS'member'
p778
I26
sS'guns'
p779
I27
sS"aujourd'hui"
p780
I27
sS'outbreak'
p781
I27
sS'beguer'
p782
I27
sS'survival'
p783
I27
sS'r\xc3\xa9p\xc3\xa8te'
p784
I27
sS'ils'
p785
I27
sS'week'
p786
I27
sS'persona'
p787
I27
sS'fatigu\xc3\xa9e'
p788
I27
sS'see'
p789
I27
sS'samedi'
p790
I26
sS'personne'
p791
I27
sS'faces'
p792
I27
sS'driver'
p793
I27
sS'elle'
p794
I23
sS'kit'
p795
I27
sS'moment'
p796
I27
sS'two'
p797
I27
sS'vieux'
p798
I27
sS'm\xc3\xa9diter'
p799
I27
sS'restroomlmao'
p800
I27
sS'"who'
p801
I27
sS'byeeee'
p802
I27
sS'\xe2\x9c\x8c\xef\xb8\x8f'
p803
I25
sS'scotland'
p804
I27
sS'fully'
p805
I27
sS'i'
p806
I3
sS'dessous'
p807
I27
sS'oohhh'
p808
I27
sS'well'
p809
I26
sS'customized'
p810
I27
sS'ocean'
p811
I27
sS'burgers'
p812
I27
sS'rome'
p813
I27
sS'deserve'
p814
I27
sS'y'
p815
I23
sS'olivia'
p816
I27
sS'the'
p817
I2
sS'know'
p818
I24
sS'pense'
p819
I26
sS'coup'
p820
I27
sS'reprendre'
p821
I27
sS'g\xc3\xa8res'
p822
I27
sS'just'
p823
I18
sS'females'
p824
I27
sS'nan'
p825
I26
sS'sleepy'
p826
I27
sS'thanks'
p827
I26
sS'verset'
p828
I27
sS'yes'
p829
I25
sS'baldwin'
p830
I27
sS'continent'
p831
I27
sS'letting'
p832
I27
sS'death'
p833
I25
sS's\xc3\xa9'
p834
I27
sS'hills'
p835
I27
sS'rose'
p836
I27
sS'vida'
p837
I26
sS'had'
p838
I27
sS'nikko'
p839
I27
sS'hay'
p840
I27
sS'algo.~\xc3\x97~\xc3\x97~\xc3\x97'
p841
I27
sS'5h'
p842
I27
sS'easy'
p843
I27
sS'sweet'
p844
I27
sS'californiens'
p845
I27
sS'regarder'
p846
I25
sS'match'
p847
I27
sS'take'
p848
I27
sS'real'
p849
I25
sS'tomas'
p850
I27
sS'envie'
p851
I26
sS'jake'
p852
I27
sS'deux'
p853
I27
sS'read'
p854
I27
sS'big'
p855
I27
sS'lado'
p856
I27
sS'triste'
p857
I26
sS'gonna'
p858
I26
sS'early'
p859
I27
sS'moi'
p860
I25
sS'mon'
p861
I24
sS'mom'
p862
I27
sS'immediately'
p863
I26
sS'bit'
p864
I27
sS'disappointed'
p865
I27
sS'd'
p866
I26
sS'christina'
p867
I26
sS'like'
p868
I24
sS'passion'
p869
I27
sS"c'\xc3\xa9tait"
p870
I27
sS'omgggg'
p871
I27
sS'rattrap\xc3\xa9s'
p872
I27
sS'xbox'
p873
I27
sS'cosas'
p874
I27
sS'you\xe2\x80\x99re'
p875
I27
sS'night'
p876
I25
sS'rarely'
p877
I27
sS'become'
p878
I27
sS'turbanation'
p879
I27
sS'foolish'
p880
I27
sS'right'
p881
I25
sS'quinn'
p882
I27
sS'deal'
p883
I26
sS'people'
p884
I23
sS'fucking'
p885
I26
sS'tuer'
p886
I27
sS'scared'
p887
I27
sS'fen\xc3\xaatre'
p888
I26
sS'back'
p889
I24
sS'library'
p890
I27
sS'yaaaayyy'
p891
I27
sS'eddie'
p892
I27
sS'10:10'
p893
I27
sS'smh'
p894
I27
sS'home'
p895
I26
sS'accomplishment'
p896
I27
sS'investigating'
p897
I27
sS'laugh;-)'
p898
I27
sS'obviously'
p899
I27
sS'rien'
p900
I26
sS'est'
p901
I20
sS'for'
p902
I15
sS'courses'
p903
I27
sS'androphobic\xe2\x80\x9d'
p904
I27
sS'moon'
p905
I27
sS'decisiones'
p906
I27
sS"t'atteint"
p907
I26
sS'bg2'
p908
I25
sS'does'
p909
I27
sS'souvenez-vous'
p910
I27
sS'epic'
p911
I27
sS'avoir'
p912
I27
sS'be'
p913
I13
sS'plu'
p914
I27
sS'who'
p915
I24
sS'run'
p916
I27
sS'any'
p917
I27
sS'lmfao'
p918
I26
sS'corn'
p919
I27
sS'attendu'
p920
I27
sS'burk'
p921
I27
sS'graduates'
p922
I27
sS'how'
p923
I22
sS'step'
p924
I27
sS'nogaye'
p925
I27
sS'santo'
p926
I27
sS'dangereux'
p927
I27
sS'pll'
p928
I27
sS'intense'
p929
I27
sS'on'
p930
I14
sS'about'
p931
I23
sS'ok'
p932
I26
sS'working'
p933
I27
sS'8pm'
p934
I27
sS'oh'
p935
I25
sS'coran'
p936
I27
sS'of'
p937
I21
sS'dollars'
p938
I26
sS'panne'
p939
I27
sS'valentin'
p940
I27
sS'drama'
p941
I27
sS'dinner'
p942
I27
sS'must'
p943
I27
sS'plus'
p944
I23
sS'chou'
p945
I27
sS'mismo'
p946
I27
sS'delante'
p947
I27
sS'ou'
p948
I27
sS'r\xc3\xaave'
p949
I27
sS'wanna'
p950
I26
sS'or'
p951
I27
sS'liar'
p952
I27
sS'buur'
p953
I27
sS'whats'
p954
I27
sS'diga'
p955
I27
sS'selfie'
p956
I27
sS'moche'
p957
I27
sS'cray'
p958
I24
sS'down'
p959
I25
sS'momma'
p960
I27
sS'weather'
p961
I27
sS'show'
p962
I27
sS'tiny'
p963
I27
sS'mariage'
p964
I27
sS'abel'
p965
I26
sS'your'
p966
I27
sS'fast'
p967
I27
sS't\xc3\xba'
p968
I27
sS'her'
p969
I26
sS'sneaky'
p970
I27
sS'most'
p971
I27
sS'there'
p972
I26
sS'manque'
p973
I27
sS'lol'
p974
I11
sS'fight'
p975
I27
sS'suis'
p976
I21
sS'pasadena'
p977
I27
sS"l'est"
p978
I27
sS'way'
p979
I24
sS'adelante'
p980
I27
sS'damn'
p981
I26
sS'transitioning'
p982
I27
sS'was'
p983
I22
sS'psychopathes'
p984
I27
sS'happy'
p985
I26
sS'head'
p986
I27
sS'buy'
p987
I27
sS'inches'
p988
I27
sS"i've"
p989
I27
sS'bus'
p990
I26
sS'diff\xc3\xa9rente'
p991
I27
sS'bitches'
p992
I27
sS'pop'
p993
I27
sS'but'
p994
I21
sS'pierre'
p995
I27
sS'humildad'
p996
I27
sS'seguir'
p997
I27
sS"dreamin'"
p998
I27
sS'ha'
p999
I25
sS'with'
p1000
I20
sS'he'
p1001
I21
sS'again'
p1002
I26
sS"d'allah"
p1003
I27
sS'courbatures'
p1004
I27
sS"j'espere"
p1005
I27
sS"wasn't"
p1006
I27
sS':s'
p1007
I27
sS'j'
p1008
I27
sS'cr\xc3\xa9e'
p1009
I27
sS'up'
p1010
I22
sS'tellin'
p1011
I27
sS'ur'
p1012
I27
sS'1h30'
p1013
I27
sS'un'
p1014
I21
sS'those'
p1015
I27
sS'(cont)'
p1016
I25
sS'problem'
p1017
I27
sS'daddy'
p1018
I27
sS'called'
p1019
I26
sS'distance'
p1020
I27
sS'gone'
p1021
I27
sS'152'
p1022
I27
sS'sh*tty'
p1023
I27
sS'shack'
p1024
I27
sS'fans'
p1025
I27
sS'exhausted'
p1026
I27
sS'petit'
p1027
I25
sS"t'es"
p1028
I27
sS'am'
p1029
I20
sS'al'
p1030
I27
sS'dura'
p1031
I27
sS'an'
p1032
I26
sS's4v79'
p1033
I27
sS'dear'
p1034
I27
sS'as'
p1035
I27
sS'nomas'
p1036
I27
sS'au'
p1037
I25
sS'at'
p1038
I18
sS'av'
p1039
I26
sS'reveiller'
p1040
I27
sS'shooting'
p1041
I27
sS'girl'
p1042
I26
sS'shit'
p1043
I25
sS'raconte'
p1044
I27
sS'ni'
p1045
I26
sS'rainy'
p1046
I27
sS'us'
p1047
I27
sS'nn'
p1048
I27
sS'no'
p1049
I12
sS'idiot'
p1050
I27
sS'deadly'
p1051
I27
sS'nah'
p1052
I27
sS'when'
p1053
I20
sS'ne'
p1054
I27
sS'kirt'
p1055
I27
sS'tard'
p1056
I26
sS'til'
p1057
I26
sS'roses'
p1058
I27
sS'build'
p1059
I27
sS'definitely'
p1060
I27
sS'5'
p1061
I27
sS'diego'
p1062
I27
sS'recordar'
p1063
I27
sS'dimanche'
p1064
I26
sS'you'
p1065
I3
sS'out'
p1066
I26
sS'nice'
p1067
I27
sS"j'en"
p1068
I27
sS'abandoned'
p1069
I26
sS'4h'
p1070
I27
sS'bandwagoner'
p1071
I27
sS'class'
p1072
I27
sS'finale'
p1073
I26
sS'june'
p1074
I27
sS'vraiment'
p1075
I27
sS"let's"
p1076
I27
sS'drag'
p1077
I27
sS'important'
p1078
I27
sS'conoces'
p1079
I27
sS'haaaa'
p1080
I27
sS'tranquilliser'
p1081
I27
sS'huckk'
p1082
I27
sS'friends'
p1083
I27
sS'soyez-moi'
p1084
I27
sS'l\xc3\xa0'
p1085
I27
sS'!\xe2\x80\x9d'
p1086
I27
sS'platter'
p1087
I27
sS'using'
p1088
I27
sS'ta'
p1089
I27
sS'hamdoulilah'
p1090
I27
sS'u'
p1091
I19
sS'huck'
p1092
I27
sS'vendre'
p1093
I27
sS'time'
p1094
I26
sS'repas'
p1095
I27
sS"she's"
p1096
I25
sS'temps'
p1097
I27
sS'starting'
p1098
I27
sS'having'
p1099
I27
sS"hyghly's"
p1100
I27
s.