(dp0
S''
p1
I1
sS'all'
p2
I18
sS':('
p3
I19
sS'forget'
p4
I19
sS'chain'
p5
I19
sS'groceries'
p6
I19
sS'per'
p7
I19
sS'skin'
p8
I19
sS'go'
p9
I17
sS'hooka'
p10
I19
sS'hate'
p11
I19
sS'bitchin'
p12
I19
sS'imma'
p13
I19
sS'tweet'
p14
I19
sS'to'
p15
I6
sS'promoting'
p16
I19
sS'those'
p17
I19
sS'myself'
p18
I19
sS'yikesss'
p19
I19
sS'worst'
p20
I19
sS'blast'
p21
I19
sS'minute'
p22
I19
sS'cool'
p23
I19
sS'cooks'
p24
I19
sS'hour'
p25
I19
sS'die'
p26
I19
sS'list'
p27
I19
sS'accidentally'
p28
I19
sS'leave'
p29
I19
sS'these'
p30
I19
sS'sleep'
p31
I19
sS'guy'
p32
I19
sS"i'll"
p33
I19
sS'cookies'
p34
I19
sS'work'
p35
I19
sS'booty'
p36
I19
sS'instagram'
p37
I19
sS'past'
p38
I19
sS'even'
p39
I19
sS'what'
p40
I18
sS'sweats'
p41
I19
sS'giving'
p42
I19
sS'sun'
p43
I19
sS'abs'
p44
I19
sS'new'
p45
I18
sS'ever'
p46
I16
sS'body'
p47
I19
sS'here'
p48
I18
sS'revenge'
p49
I19
sS'let'
p50
I19
sS'strong'
p51
I19
sS'dry'
p52
I19
sS'great'
p53
I19
sS'my'
p54
I4
sS'30'
p55
I19
sS'pics'
p56
I19
sS'social'
p57
I19
sS"i'm"
p58
I12
sS'love'
p59
I17
sS'lencho'
p60
I19
sS'highly'
p61
I19
sS'(july'
p62
I19
sS'minnnnnnn'
p63
I19
sS'cocaine'
p64
I19
sS'singing'
p65
I19
sS'from'
p66
I18
sS'&'
p67
I19
sS'texting'
p68
I19
sS'iphone'
p69
I19
sS'care'
p70
I19
sS'today'
p71
I17
sS'more'
p72
I17
sS'babe'
p73
I19
sS'lungs'
p74
I19
sS'suggestions'
p75
I19
sS'haha'
p76
I18
sS'site'
p77
I19
sS"ain't"
p78
I18
sS'ok'
p79
I19
sS'me'
p80
I7
sS'ma'
p81
I19
sS'salvador'
p82
I19
sS'niggas'
p83
I18
sS'this'
p84
I18
sS'car'
p85
I19
sS'oh'
p86
I18
sS'meet'
p87
I19
sS'didnt'
p88
I19
sS'give'
p89
I19
sS'share'
p90
I19
sS'fuck'
p91
I17
sS'something'
p92
I19
sS'want'
p93
I16
sS'hoe'
p94
I19
sS'iggy'
p95
I18
sS'get'
p96
I19
sS'lounge'
p97
I19
sS'how'
p98
I15
sS'hot'
p99
I19
sS'instead'
p100
I19
sS'beach'
p101
I19
sS'lenchos'
p102
I18
sS'sweat'
p103
I19
sS'staying'
p104
I19
sS'okay'
p105
I19
sS'rude'
p106
I19
sS'stop'
p107
I19
sS'birthday'
p108
I19
sS'such'
p109
I19
sS'grow'
p110
I19
sS'man'
p111
I16
sS'a'
p112
I4
sS'remember'
p113
I18
sS'light'
p114
I19
sS'so'
p115
I16
sS'grande'
p116
I19
sS'media'
p117
I19
sS'fan'
p118
I19
sS'cute'
p119
I19
sS"don't"
p120
I16
sS'themselves.\xe2\x80\x9d'
p121
I19
sS'soon'
p122
I19
sS'through'
p123
I19
sS'looks'
p124
I19
sS'still'
p125
I17
sS'denker'
p126
I19
sS'22'
p127
I19
sS'la'
p128
I18
sS'actually'
p129
I19
sS'late'
p130
I19
sS'dammm'
p131
I19
sS'bout'
p132
I19
sS'might'
p133
I19
sS'into'
p134
I19
sS'fool'
p135
I19
sS'then'
p136
I19
sS'them'
p137
I15
sS'good'
p138
I17
sS'somebody'
p139
I19
sS'food'
p140
I19
sS'sooner'
p141
I19
sS'dat'
p142
I19
sS'starbucks'
p143
I18
sS'they'
p144
I17
sS'half'
p145
I19
sS'not'
p146
I19
sS'day'
p147
I18
sS'always'
p148
I18
sS'bowling'
p149
I19
sS'mean'
p150
I19
sS'em'
p151
I18
sS'el'
p152
I19
sS'house'
p153
I19
sS'hard'
p154
I19
sS'yeah'
p155
I19
sS'feeeel'
p156
I19
sS'forgot'
p157
I19
sS'girl'
p158
I17
sS'really'
p159
I19
sS'open'
p160
I19
sS'irony'
p161
I19
sS'since'
p162
I19
sS'thirst'
p163
I18
sS'bae'
p164
I19
sS'smh'
p165
I19
sS'got'
p166
I14
sS'perra'
p167
I19
sS'cause'
p168
I19
sS'shows'
p169
I18
sS'ass'
p170
I19
sS'city'
p171
I19
sS'shadiest'
p172
I19
sS'free'
p173
I18
sS'basketball'
p174
I19
sS'ask'
p175
I19
sS'wanted'
p176
I19
sS'ora'
p177
I19
sS'$25+'
p178
I19
sS'prepare'
p179
I19
sS'beeeeeen'
p180
I19
sS'snapchats'
p181
I19
sS'could'
p182
I19
sS'keep'
p183
I19
sS'thing'
p184
I19
sS'place'
p185
I19
sS'south'
p186
I19
sS'first'
p187
I19
sS'fam\xe2\x98\x9d\xef\xb8\x8f'
p188
I19
sS'already'
p189
I19
sS'feel'
p190
I19
sS'number'
p191
I19
sS'one'
p192
I18
sS'done'
p193
I19
sS'bitch'
p194
I19
sS'owner'
p195
I19
sS'miss'
p196
I17
sS'tomorrow'
p197
I19
sS"you're"
p198
I19
sS'"'
p199
I19
sS'leading'
p200
I19
sS'caught'
p201
I19
sS'2'
p202
I19
sS'too'
p203
I15
sS'headache'
p204
I19
sS'selling'
p205
I19
sS'outget'
p206
I19
sS'that'
p207
I11
sS'exactly'
p208
I19
sS'x2'
p209
I19
sS'july'
p210
I19
sS'botox'
p211
I19
sS'kind'
p212
I19
sS'lmao'
p213
I17
sS'17'
p214
I19
sS'scenes'
p215
I19
sS'cravings'
p216
I19
sS'were'
p217
I19
sS'gives'
p218
I19
sS'and'
p219
I8
sS'ran'
p220
I19
sS'tonight'
p221
I19
sS'talking'
p222
I18
sS'say'
p223
I18
sS'have'
p224
I17
sS'cleaned'
p225
I19
sS'anger'
p226
I19
sS'seen'
p227
I19
sS'breakfast'
p228
I19
sS'-'
p229
I19
sS'homeboy'
p230
I19
sS'omggg'
p231
I19
sS'take'
p232
I19
sS'sure'
p233
I19
sS'blippers'
p234
I19
sS'who'
p235
I17
sS'mouth'
p236
I19
sS'nothing'
p237
I18
sS'cap'
p238
I19
sS'rhe'
p239
I19
sS'why'
p240
I19
sS'trapping'
p241
I19
sS'my\xe2\x80\xa6'
p242
I19
sS'don'
p243
I17
sS'later'
p244
I19
sS'drive'
p245
I19
sS'doe'
p246
I19
sS'movie'
p247
I19
sS'wow'
p248
I19
sS'fact'
p249
I19
sS'bomb'
p250
I19
sS'show'
p251
I19
sS'text'
p252
I19
sS'bring'
p253
I19
sS'woot'
p254
I18
sS'\xe2\x9c\x8b'
p255
I19
sS'housewives'
p256
I17
sS'only'
p257
I17
sS'going'
p258
I19
sS'rich'
p259
I19
sS'folks'
p260
I19
sS'gangsta'
p261
I19
sS'hope'
p262
I19
sS'meant'
p263
I19
sS'hit'
p264
I18
sS'watching'
p265
I19
sS'watch'
p266
I19
sS'ones'
p267
I18
sS'outlet'
p268
I19
sS'words'
p269
I19
sS'restart'
p270
I19
sS'naked'
p271
I19
sS'stupid'
p272
I18
sS'she'
p273
I19
sS'where'
p274
I17
sS"y'all"
p275
I16
sS'set'
p276
I19
sS'see'
p277
I19
sS'dumb'
p278
I19
sS'noodles'
p279
I19
sS'best'
p280
I18
sS'said'
p281
I19
sS'pictures'
p282
I17
sS'away'
p283
I19
sS'weekly'
p284
I19
sS'we'
p285
I15
sS'omg'
p286
I19
sS'come'
p287
I18
sS'foreels'
p288
I19
sS'restaurant'
p289
I18
sS'thou'
p290
I19
sS'many'
p291
I18
sS'ill'
p292
I18
sS'baseball'
p293
I19
sS"can't"
p294
I18
sS'sweep'
p295
I19
sS'whatever'
p296
I19
sS'walk'
p297
I19
sS'tons'
p298
I19
sS'atolito'
p299
I19
sS'trust'
p300
I19
sS'quit'
p301
I19
sS'raise'
p302
I19
sS'cares'
p303
I19
sS"it's"
p304
I15
sS'been'
p305
I17
sS'beer'
p306
I19
sS'much'
p307
I16
sS"lady's"
p308
I19
sS'attractive'
p309
I19
sS'wants'
p310
I19
sS'life'
p311
I19
sS'am'
p312
I19
sS"what's"
p313
I17
sS'ariana'
p314
I19
sS'ice'
p315
I19
sS'smoking'
p316
I19
sS'cunt'
p317
I19
sS'sound'
p318
I19
sS'exception'
p319
I19
sS'has'
p320
I19
sS'calientito'
p321
I19
sS'look'
p322
I19
sS'solid'
p323
I19
sS'will'
p324
I19
sS'hahaha'
p325
I19
sS'promoted'
p326
I19
sS'pack'
p327
I19
sS'is'
p328
I11
sS'it'
p329
I9
sS'need'
p330
I18
sS'im'
p331
I19
sS'hahahhahahahaha'
p332
I19
sS'in'
p333
I12
sS'funny'
p334
I19
sS'different'
p335
I19
sS'pay'
p336
I18
sS'make'
p337
I19
sS'same'
p338
I18
sS'forehead'
p339
I19
sS'ya'
p340
I19
sS'coworkers'
p341
I19
sS'"i'
p342
I19
sS'party'
p343
I18
sS'shawty'
p344
I19
sS'ball'
p345
I19
sS'dime'
p346
I19
sS'driver'
p347
I18
sS'yesterday'
p348
I18
sS'(4)'
p349
I19
sS'running'
p350
I19
sS'lol\xe2\x80\x9d'
p351
I19
sS'&bolis'
p352
I19
sS'kid'
p353
I19
sS'off'
p354
I19
sS'i'
p355
I2
sS'well'
p356
I18
sS'tho'
p357
I18
sS'hispanic'
p358
I19
sS'comes'
p359
I19
sS'english'
p360
I19
sS'the'
p361
I3
sS'smoked'
p362
I19
sS'left'
p363
I19
sS'just'
p364
I13
sS'jadakiss'
p365
I19
sS'yes'
p366
I18
sS'yet'
p367
I19
sS'azalea'
p368
I19
sS'21)'
p369
I19
sS'had'
p370
I16
sS'4'
p371
I19
sS'snap'
p372
I19
sS'bfily'
p373
I19
sS'save'
p374
I19
sS'kick'
p375
I19
sS'real'
p376
I11
sS'read'
p377
I18
sS"who's"
p378
I19
sS'early'
p379
I19
sS'know'
p380
I16
sS'mom'
p381
I19
sS'like'
p382
I13
sS'omgg'
p383
I19
sS'night'
p384
I17
sS'nigga'
p385
I17
sS'old'
p386
I18
sS'people'
p387
I16
sS'fucking'
p388
I18
sS'some'
p389
I16
sS'back'
p390
I18
sS'cleveland'
p391
I19
sS'provided'
p392
I19
sS'for'
p393
I11
sS'comments'
p394
I19
sS'pen'
p395
I19
sS'asking'
p396
I19
sS'refer'
p397
I19
sS'be'
p398
I14
sS'eating'
p399
I18
sS'lmfao'
p400
I16
sS'discount'
p401
I19
sS'step'
p402
I19
sS'throwback'
p403
I19
sS'by'
p404
I19
sS'on'
p405
I12
sS'about'
p406
I16
sS'oreo'
p407
I19
sS'central'
p408
I19
sS'justin'
p409
I18
sS'anything'
p410
I16
sS'getting'
p411
I19
sS'of'
p412
I10
sS'dinner'
p413
I19
sS'stand'
p414
I19
sS'or'
p415
I15
sS'own'
p416
I19
sS'selfie'
p417
I19
sS'ppl'
p418
I19
sS'down'
p419
I19
sS'lies'
p420
I18
sS'momma'
p421
I19
sS'because'
p422
I19
sS'hahahahhaa'
p423
I19
sS'lebron'
p424
I19
sS'your'
p425
I16
sS'her'
p426
I18
sS'there'
p427
I18
sS'sock'
p428
I19
sS'lol'
p429
I12
sS'noticed'
p430
I19
sS'cheeks'
p431
I19
sS'racist'
p432
I19
sS'way'
p433
I18
sS'was'
p434
I16
sS'happy'
p435
I19
sS'fakeness'
p436
I19
sS"i've"
p437
I19
sS'becoming'
p438
I19
sS'bitches'
p439
I19
sS'but'
p440
I18
sS'with'
p441
I11
sS'buying'
p442
I19
sS'he'
p443
I19
sS'good?\xe2\x80\x9d'
p444
I19
sS'inside'
p445
I19
sS'bucket'
p446
I19
sS'up'
p447
I14
sS'us'
p448
I19
sS'ur'
p449
I19
sS'cleveland"'
p450
I18
sS'un'
p451
I19
sS'uh'
p452
I19
sS'cake'
p453
I18
sS'piece'
p454
I19
sS'delete'
p455
I19
sS'gone'
p456
I19
sS'chan'
p457
I19
sS'an'
p458
I16
sS'as'
p459
I18
sS'right'
p460
I19
sS'at'
p461
I13
sS'ay'
p462
I19
sS'shit'
p463
I14
sS'cream'
p464
I19
sS'again'
p465
I19
sS'dying'
p466
I19
sS'no'
p467
I15
sS'nah'
p468
I18
sS'when'
p469
I16
sS'\xe2\x9b\x85\xef\xb8\x8f'
p470
I19
sS'other'
p471
I19
sS'lifestyle'
p472
I19
sS'you'
p473
I5
sS'out'
p474
I19
sS'59th'
p475
I19
sS'nice'
p476
I19
sS"gon'"
p477
I19
sS'period"'
p478
I18
sS'shiiiiit'
p479
I19
sS'class'
p480
I19
sS'welcome'
p481
I19
sS'problems'
p482
I19
sS'stay'
p483
I19
sS'weekend'
p484
I19
sS'earphones'
p485
I19
sS'mask'
p486
I19
sS'hella'
p487
I19
sS'u'
p488
I17
sS'time'
p489
I19
sS'having'
p490
I19
sS'once'
p491
I19
s.