(dp0
S''
p1
I2
sS'raining'
p2
I78
sS'better"'
p3
I78
sS'peteypabloski'
p4
I78
sS'foul'
p5
I78
sS'7-year'
p6
I78
sS'four'
p7
I78
sS'betch'
p8
I76
sS'11540'
p9
I78
sS'sleep'
p10
I59
sS'01:26:44.0,33.979146,-118.2830218,2376,man'
p11
I78
sS'revvylacoste'
p12
I78
sS'hate'
p13
I58
sS'worked'
p14
I78
sS'poorly'
p15
I78
sS'relationships'
p16
I77
sS'swag'
p17
I78
sS'poco'
p18
I77
sS'tweet'
p19
I75
sS'sweetest'
p20
I78
sS'under'
p21
I77
sS'sorry'
p22
I73
sS'\xee\x90\x85\xe2\x80\xa6'
p23
I78
sS'worth'
p24
I77
sS'*then'
p25
I78
sS'08:30:21.0,33.9791538,-118.2830412,2376,shit'
p26
I78
sS'vaso'
p27
I78
sS'every'
p28
I69
sS'jack'
p29
I78
sS'screenshotted'
p30
I78
sS'01:14:39.0,33.9791735,-118.2830159,2376,take'
p31
I78
sS'bringing'
p32
I75
sS'missionary'
p33
I77
sS'tickets'
p34
I73
sS'school'
p35
I64
sS'bestfriend'
p36
I77
sS'plural'
p37
I78
sS'wednesday'
p38
I77
sS'"really'
p39
I78
sS'crotch'
p40
I78
sS'be.\xe2\x80\x9d'
p41
I78
sS'clothes'
p42
I78
sS'enjoy'
p43
I78
sS'jamaica'
p44
I77
sS'tired'
p45
I74
sS'hating'
p46
I78
sS'bacon'
p47
I77
sS'direct'
p48
I78
sS'mirarte'
p49
I78
sS'nail'
p50
I78
sS'dish'
p51
I78
sS'likely'
p52
I77
sS'street'
p53
I77
sS'7th'
p54
I78
sS'08:18:54.0,33.9791778,-118.2830181,2376,ahhhh'
p55
I78
sS'others)'
p56
I76
sS'even'
p57
I61
sS'hide'
p58
I77
sS"gif's"
p59
I78
sS'neh'
p60
I78
sS'ruthless'
p61
I78
sS'+'
p62
I78
sS'wouldnt'
p63
I78
sS'bachata!!!!!>'
p64
I78
sS'ko'
p65
I78
sS'churches'
p66
I78
sS'tips'
p67
I78
sS'ever'
p68
I62
sS'eves'
p69
I78
sS'told'
p70
I70
sS'kicked'
p71
I78
sS'sinks'
p72
I78
sS'\xd8\xb9\xd9\x86\xd8\xaf\xd9\x83'
p73
I78
sS'pancakes'
p74
I78
sS'herb'
p75
I78
sS'never'
p76
I66
sS'here'
p77
I67
sS'met'
p78
I77
sS'108'
p79
I78
sS'flores'
p80
I78
sS'studio'
p81
I78
sS'smokin'
p82
I78
sS'&&'
p83
I78
sS'dorm'
p84
I78
sS'chino'
p85
I78
sS"aren't"
p86
I76
sS'dry'
p87
I77
sS'kids'
p88
I77
sS'daughter'
p89
I77
sS'leaves'
p90
I77
sS'changed'
p91
I78
sS'"why'
p92
I78
sS'nigguhs'
p93
I78
sS'ignoring'
p94
I78
sS'from.,90044\n453083032920936448,yurelimac,2014-04-07'
p95
I78
sS'credit'
p96
I78
sS"i'd"
p97
I74
sS'dayssss'
p98
I78
sS'smoke'
p99
I72
sS'complicated'
p100
I78
sS"i'm"
p101
I14
sS',90044\n454169169718566912,yurelimac,2014-04-10'
p102
I78
sS'graders'
p103
I78
sS'wear,90044\n452835108634914816,yurelimac,2014-04-06'
p104
I78
sS'feelings'
p105
I77
sS'bro'
p106
I72
sS'cheats'
p107
I78
sS'total'
p108
I77
sS'would'
p109
I58
sS'hospital'
p110
I78
sS'motivate'
p111
I78
sS'arms'
p112
I78
sS'chargers'
p113
I78
sS'music'
p114
I72
sS',90044\n451449580937154560,yurelimac,2014-04-02'
p115
I78
sS'type'
p116
I71
sS'until'
p117
I73
sS'progay'
p118
I78
sS'afrojack'
p119
I78
sS'females'
p120
I78
sS'sabes'
p121
I78
sS'successful'
p122
I76
sS'brings'
p123
I78
sS'this!"'
p124
I78
sS'haha'
p125
I72
sS'phony'
p126
I78
sS'02:25:25.0,33.980162,-118.2831972,2376,my'
p127
I78
sS'hurt'
p128
I73
sS'phone'
p129
I73
sS'defeated'
p130
I78
sS'hold'
p131
I78
sS'best,90044\n454430439554285568,yurelimac,2014-04-11'
p132
I78
sS'must'
p133
I77
sS'me'
p134
I8
sS'ma'
p135
I77
sS'room'
p136
I73
sS'me.\xe2\x80\x9d'
p137
I78
sS'player'
p138
I78
sS"y'all.,90044\n454427272582144000,yurelimac,2014-04-11"
p139
I78
sS'work'
p140
I69
sS'mi'
p141
I74
sS'mj'
p142
I78
sS'cream:('
p143
I78
sS'ms'
p144
I78
sS'my'
p145
I5
sS'vientos'
p146
I78
sS'give'
p147
I65
sS'punk'
p148
I78
sS'laughs'
p149
I78
sS'heartless'
p150
I77
sS'honey'
p151
I78
sS'flores)'
p152
I78
sS'homie'
p153
I78
sS'gorda'
p154
I78
sS'want'
p155
I39
sS',90044\n454410971528691712,yurelimac,2014-04-11'
p156
I78
sS'estaba'
p157
I78
sS'drive'
p158
I76
sS'"while'
p159
I78
sS'hoe'
p160
I76
sS'end'
p161
I78
sS'thing'
p162
I69
sS',90044\n450692048538984449,yurelimac,2014-03-31'
p163
I78
sS'travel'
p164
I78
sS'sitting'
p165
I78
sS'amigo'
p166
I78
sS'machine'
p167
I78
sS'how'
p168
I47
sS'hot'
p169
I74
sS'answer'
p170
I76
sS'gate'
p171
I78
sS'beach'
p172
I66
sS'hoy'
p173
I78
sS'05:57:40.0,33.9791709,-118.2829463,2376,thank'
p174
I78
sS'beauty'
p175
I78
sS'horoscope'
p176
I78
sS'mess'
p177
I78
sS'insecure'
p178
I78
sS'after'
p179
I67
sS'dubshow'
p180
I76
sS'(prod'
p181
I78
sS'jumping'
p182
I78
sS'lay'
p183
I78
sS'types'
p184
I78
sS'las'
p185
I77
sS'plies'
p186
I78
sS'third'
p187
I78
sS'appreciate'
p188
I78
sS'lost'
p189
I78
sS'owls'
p190
I78
sS'18th'
p191
I78
sS'green'
p192
I76
sS',90044\n450149528373432320,yurelimac,2014-03-30'
p193
I78
sS'goodbye'
p194
I77
sS'keeps'
p195
I78
sS'fan'
p196
I78
sS'ray-bans'
p197
I78
sS'order'
p198
I78
sS'wind'
p199
I78
sS'riri'
p200
I77
sS'inglewooood'
p201
I78
sS'over'
p202
I62
sS'fam'
p203
I78
sS'tricked'
p204
I78
sS'foreal'
p205
I77
sS'before'
p206
I67
sS'ima'
p207
I60
sS'fit'
p208
I77
sS'2:00'
p209
I78
sS'gente'
p210
I78
sS'\xc2\xbftu'
p211
I78
sS'expectations'
p212
I78
sS'denver'
p213
I78
sS'writing'
p214
I78
sS'better'
p215
I61
sS'fig'
p216
I78
sS'creo'
p217
I78
sS'weeks'
p218
I78
sS'easier'
p219
I78
sS'then'
p220
I59
sS'them'
p221
I56
sS'woken'
p222
I78
sS'combination'
p223
I78
sS'"really"me'
p224
I78
sS'weakness'
p225
I78
sS'fuuckkk'
p226
I78
sS"we'll"
p227
I77
sS'out,90044\n450142213482106880,yurelimac,2014-03-30'
p228
I78
sS'break'
p229
I77
sS"17:35:42.0,33.9791429,-118.283021,2376,i've"
p230
I78
sS'they'
p231
I41
sS'around\xe2\x80\x9d'
p232
I78
sS'08:51:59.0,33.9791846,-118.2830154,2376,i'
p233
I78
sS'one'
p234
I41
sS'08:23:16.0,33.9791498,-118.2830113,2376,i'
p235
I78
sS'01:13:28.0,33.9791987,-118.2829982,2376,you'
p236
I78
sS'mear'
p237
I78
sS'alex'
p238
I77
sS'meat'
p239
I77
sS'l'
p240
I78
sS'grows'
p241
I78
sS'eminem'
p242
I78
sS'each'
p243
I78
sS'$50'
p244
I78
sS'went'
p245
I70
sS'..,90044\n452862222771818496,yurelimac,2014-04-06'
p246
I78
sS'meal'
p247
I78
sS'mean'
p248
I73
sS'financial'
p249
I78
sS'snakes'
p250
I77
sS'crimes'
p251
I78
sS'bowls'
p252
I78
sS'celebrating'
p253
I78
sS'taught'
p254
I78
sS'forgot'
p255
I73
sS'navy'
p256
I78
sS'saturday'
p257
I73
sS'rt'
p258
I75
sS'neff'
p259
I78
sS'driving'
p260
I72
sS'god'
p261
I72
sS'nunca'
p262
I78
sS'washed'
p263
I78
sS'smo'
p264
I78
sS'keys'
p265
I78
sS'larry...."'
p266
I78
sS'manda'
p267
I78
sS'smh'
p268
I68
sS'medicine'
p269
I78
sS'got'
p270
I42
sS'rn'
p271
I67
sS',90044\n450890882997166081,yurelimac,2014-04-01'
p272
I78
sS'foundation'
p273
I78
sS'murcielago'
p274
I78
sS'rest'
p275
I78
sS'cutest'
p276
I78
sS"you're"
p277
I54
sS'little'
p278
I70
sS'free'
p279
I76
sS'06:34:00.0,33.9791382,-118.2830434,2376,could'
p280
I78
sS'hoodie'
p281
I78
sS"people's"
p282
I76
sS'wanted'
p283
I74
sS'soundcloud'
p284
I78
sS'theif'
p285
I78
sS'mvp'
p286
I77
sS'ate'
p287
I76
sS'atb'
p288
I78
sS'drmzbeatz)'
p289
I78
sS'starts'
p290
I78
sS'messages'
p291
I77
sS'days'
p292
I72
sS'flawless'
p293
I78
sS'"no'
p294
I77
sS"today's"
p295
I77
sS'feds'
p296
I78
sS'broken'
p297
I78
sS'messaged'
p298
I78
sS'loud'
p299
I76
sS'caught'
p300
I76
sS'fuckin'
p301
I78
sS'cleaning'
p302
I76
sS'already'
p303
I68
sS'grade'
p304
I77
sS'zuley'
p305
I77
sS'forrealzzzzz'
p306
I78
sS'young.,90044\n454426977378631680,yurelimac,2014-04-11'
p307
I78
sS'fantasy'
p308
I78
sS'another'
p309
I71
sS'tangle'
p310
I78
sS'&that'
p311
I78
sS'hood'
p312
I77
sS'meterle'
p313
I78
sS'bonita'
p314
I78
sS'dogg'
p315
I78
sS'neck'
p316
I78
sS'girls'
p317
I70
sS'twisted'
p318
I78
sS'ton'
p319
I78
sS'too'
p320
I44
sS'hollywood'
p321
I78
sS'kid'
p322
I78
sS'ranging'
p323
I78
sS'listen'
p324
I77
sS'*grabs'
p325
I78
sS'hangout'
p326
I78
sS'08:22:32.0,33.9791752,-118.2830031,2376,got'
p327
I78
sS'gym'
p328
I78
sS'took'
p329
I74
sS'digs'
p330
I78
sS'digo'
p331
I78
sS'cereal'
p332
I78
sS"knott's"
p333
I75
sS'wardrobe'
p334
I78
sS'komander'
p335
I78
sS'mercy'
p336
I77
sS'"bae'
p337
I78
sS'hike'
p338
I78
sS'second'
p339
I78
sS'shower'
p340
I75
sS'don\xe2\x80\x99t'
p341
I78
sS'classes'
p342
I75
sS'silly'
p343
I78
sS'feeling'
p344
I68
sS'\xee\x80\xa2'
p345
I78
sS"06:21:53.0,33.9791354,-118.2830425,2376,it's"
p346
I78
sS'esta'
p347
I76
sS'ran'
p348
I77
sS'esto'
p349
I78
sS'mind'
p350
I72
sS'mine'
p351
I78
sS'constellations'
p352
I78
sS'talking'
p353
I69
sS'seen'
p354
I78
sS'seem'
p355
I78
sS'sounding'
p356
I78
sS'tells'
p357
I78
sS'it\xe2\x80\x9d'
p358
I77
sS'point"'
p359
I78
sS'-'
p360
I78
sS'snow'
p361
I78
sS'$14080'
p362
I78
sS'chest'
p363
I77
sS'aguantar'
p364
I78
sS'blue'
p365
I78
sS'exactly'
p366
I78
sS'susie'
p367
I78
sS'nayarit'
p368
I78
sS'though'
p369
I61
sS'year!,90044\n453035098984546304,yurelimac,2014-04-07'
p370
I78
sS'doin'
p371
I78
sS'shyt'
p372
I78
sS'mouth'
p373
I77
sS'plenty'
p374
I78
sS'08:24:41.0,33.9791599,-118.283057,2376,do'
p375
I78
sS'acusar'
p376
I78
sS'smoked'
p377
I75
sS'neighborhoods'
p378
I78
sS'(shit'
p379
I78
sS'alarm'
p380
I77
sS'metal'
p381
I78
sS'dog'
p382
I78
sS"ballin'"
p383
I78
sS'doe'
p384
I78
sS'freeway'
p385
I78
sS'cumbia'
p386
I78
sS'definitely'
p387
I78
sS'aunt'
p388
I78
sS'08:33:27.0,33.9791524,-118.2830423,2376,i'
p389
I78
sS'nyquil617'
p390
I78
sS'08:18:07.0,33.979207,-118.2830266,2376,2'
p391
I78
sS'annoyed'
p392
I77
sS'came'
p393
I75
sS'saying'
p394
I77
sS'bomb'
p395
I71
sS'lyrics'
p396
I78
sS'random'
p397
I77
sS'areaaaa'
p398
I78
sS'ending'
p399
I78
sS'forsure'
p400
I77
sS'understand\xe2\x80\xa6'
p401
I78
sS'radio'
p402
I78
sS'though.,90044\n448741363731800064,yurelimac,2014-03-26'
p403
I78
sS'coronel'
p404
I78
sS'make'
p405
I64
sS'lol,90044\n450843867323957248,yurelimac,2014-04-01'
p406
I78
sS'figueroa'
p407
I78
sS'busy'
p408
I78
sS'quieren'
p409
I78
sS'"silver'
p410
I78
sS'menu'
p411
I78
sS'explain'
p412
I77
sS'sugar'
p413
I78
sS'rihanna'
p414
I77
sS'deepest'
p415
I78
sS'rich'
p416
I77
sS'lightening'
p417
I78
sS'wearing'
p418
I74
sS'do'
p419
I35
sS'dh'
p420
I76
sS'di'
p421
I77
sS'19:47:02.0,33.9791665,-118.2830114,2376,my'
p422
I78
sS'de'
p423
I62
sS'watch'
p424
I69
sS'dc'
p425
I78
sS'da'
p426
I77
sS'pocket'
p427
I78
sS'hellur'
p428
I78
sS'new'
p429
I71
sS'nathan'
p430
I78
sS'nasty'
p431
I78
sS'14'
p432
I77
sS'bat'
p433
I78
sS'bar'
p434
I78
sS'groupie'
p435
I78
sS'bay'
p436
I78
sS'bag'
p437
I78
sS'bad'
p438
I60
sS'bae'
p439
I73
sS'shots'
p440
I78
sS'22:11:29.0,33.979195,-118.2828517,2376,i'
p441
I78
sS'respond'
p442
I78
sS'estad\xc3\xadsticas'
p443
I78
sS'reread'
p444
I78
sS'pupusa'
p445
I78
sS'w/'
p446
I74
sS'liquor'
p447
I78
sS'goodnight'
p448
I71
sS'decided'
p449
I78
sS'iglesia'
p450
I78
sS'best'
p451
I70
sS'subject'
p452
I78
sS'said'
p453
I59
sS'peta'
p454
I78
sS'face"'
p455
I78
sS'lots'
p456
I78
sS'away'
p457
I73
sS'muy'
p458
I78
sS'\xd8\xae\xd8\xa7\xd8\xb7\xd8\xb1'
p459
I78
sS'"oh'
p460
I78
sS'bien'
p461
I76
sS"there's"
p462
I74
sS'c\xc3\xb3mo'
p463
I78
sS'finger'
p464
I78
sS'hopefully'
p465
I78
sS'yogurt'
p466
I78
sS'$65'
p467
I78
sS'wage'
p468
I78
sS'lazy'
p469
I77
sS'men'
p470
I78
sS'omg'
p471
I70
sS'wears'
p472
I78
sS'tables'
p473
I78
sS'volar'
p474
I78
sS'weak'
p475
I78
sS'boss'
p476
I78
sS'inocente'
p477
I78
sS'(los'
p478
I72
sS'wtf'
p479
I69
sS'clues'
p480
I78
sS'dedication'
p481
I78
sS'cousin'
p482
I77
sS'kitchen'
p483
I78
sS'pity'
p484
I78
sS'tfti'
p485
I78
sS'\xe2\x9d\xa4\xef\xb8\x8f'
p486
I78
sS'funny.,90044\n453092815560384512,yurelimac,2014-04-07'
p487
I78
sS'ill'
p488
I78
sS'compton'
p489
I78
sS'una'
p490
I77
sS'melinda'
p491
I78
sS'(most'
p492
I78
sS'dora'
p493
I78
sS'brah'
p494
I77
sS'asked'
p495
I74
sS'con'
p496
I75
sS'berkeley'
p497
I78
sS'ayeee'
p498
I78
sS'cold.,90044\n451443098246074370,yurelimac,2014-04-02'
p499
I78
sS'voicemails'
p500
I78
sS'written'
p501
I78
sS'camisa'
p502
I78
sS'that,90044\n501599152539975681,mistah_finner,2014-08-19'
p503
I78
sS'trust'
p504
I76
sS'100'
p505
I78
sS'speak'
p506
I78
sS'&+'
p507
I78
sS'"you'
p508
I78
sS'three'
p509
I78
sS'been'
p510
I47
sS'cyrus'
p511
I77
sS'submarine'
p512
I78
sS'beer'
p513
I78
sS'much'
p514
I61
sS'way."'
p515
I78
sS'ni\xc3\xb1a'
p516
I78
sS'expected'
p517
I78
sS'stresses'
p518
I78
sS'life'
p519
I68
sS'premier'
p520
I78
sS'spit'
p521
I78
sS'drugs'
p522
I78
sS'desobediencia'
p523
I78
sS'irvine'
p524
I78
sS'chill'
p525
I78
sS'nidia'
p526
I78
sS'08:17:25.0,33.9791561,-118.2830012,2376,the'
p527
I78
sS'catch'
p528
I76
sS'stepdad'
p529
I78
sS'$120'
p530
I78
sS'church)'
p531
I78
sS'anymore\xe2\x80\x9d'
p532
I78
sS'chuy'
p533
I74
sS'has'
p534
I62
sS'ten\xc3\xa9s'
p535
I78
sS'110'
p536
I78
sS'ugly'
p537
I77
sS'near'
p538
I77
sS'ugliest'
p539
I78
sS'shit.,90044\n452762487897612288,yurelimac,2014-04-06'
p540
I78
sS'aid'
p541
I78
sS'15:46:44.0,33.97919,-118.2829905,2376,pinche'
p542
I78
sS'pyramid'
p543
I78
sS'mexico'
p544
I75
sS'is'
p545
I15
sS'swapmeet'
p546
I78
sS'it'
p547
I12
sS'sting'
p548
I78
sS'fakes'
p549
I78
sS'meet"'
p550
I78
sS'shame'
p551
I78
sS'dizzy'
p552
I78
sS'im'
p553
I67
sS'in'
p554
I18
sS'lust"'
p555
I78
sS'id'
p556
I78
sS'ig'
p557
I78
sS'if'
p558
I29
sS'grown'
p559
I78
sS'perform'
p560
I78
sS'things'
p561
I73
sS'waaaaxxxx'
p562
I78
sS'mothafuckas'
p563
I78
sS'bottled'
p564
I78
sS'babies'
p565
I78
sS'lol,90044\n452834800923971584,yurelimac,2014-04-06'
p566
I78
sS'cindy'
p567
I78
sS'mujeres'
p568
I78
sS'05:56:25.0,33.9791664,-118.2830528,2376,bitch'
p569
I78
sS'rain'
p570
I78
sS'"2'
p571
I78
sS'unicorn'
p572
I78
sS'jealous'
p573
I78
sS'insisted'
p574
I78
sS'opportunity'
p575
I78
sS"he'll"
p576
I78
sS'thoughts'
p577
I78
sS'cycle'
p578
I78
sS'kept'
p579
I77
sS'thx'
p580
I78
sS'tho'
p581
I77
sS'hispanic'
p582
I78
sS'pandora'
p583
I78
sS'mother'
p584
I77
sS'nomore'
p585
I78
sS'raindrops'
p586
I77
sS'the'
p587
I4
sS'madre"'
p588
I78
sS'left'
p589
I74
sS'just'
p590
I23
sS'yea'
p591
I78
sS'photo'
p592
I75
sS'prometo'
p593
I78
sS'sleepy'
p594
I76
sS'grader'
p595
I78
sS'psych'
p596
I78
sS'thanks'
p597
I68
sS'human'
p598
I78
sS'shuffle'
p599
I78
sS'yes'
p600
I65
sS'yet'
p601
I78
sS'previous'
p602
I78
sS's\xc3\xad'
p603
I78
sS'chinga'
p604
I78
sS'remedial'
p605
I78
sS'hills'
p606
I76
sS'chinge'
p607
I78
sS'dtw'
p608
I78
sS'had'
p609
I60
sS'obedient'
p610
I78
sS',90044\n452832226669891584,yurelimac,2014-04-06'
p611
I78
sS'*rigos'
p612
I78
sS'shiii'
p613
I78
sS'save'
p614
I77
sS'hat'
p615
I78
sS'gave'
p616
I77
sS'08:27:58.0,33.9791554,-118.2830404,2376,twitter'
p617
I78
sS'gustar\xc3\xada'
p618
I78
sS'bands'
p619
I78
sS'addicts'
p620
I78
sS'possibly'
p621
I78
sS'tomorrow.,90044\n453084811796557825,yurelimac,2014-04-07'
p622
I78
sS'life.\xe2\x80\x9d'
p623
I78
sS'birth'
p624
I78
sS'destroy'
p625
I78
sS'judge'
p626
I78
sS'shakeys'
p627
I77
sS'shadow'
p628
I78
sS'replace'
p629
I78
sS'dreams'
p630
I77
sS'brought'
p631
I77
sS'lmao,90044\n450880712355246080,yurelimac,2014-04-01'
p632
I78
sS'-_-'
p633
I78
sS'gift'
p634
I78
sS'bitchhh'
p635
I78
sS'hunt'
p636
I78
sS'favoriting'
p637
I78
sS'overrated'
p638
I78
sS'zombies'
p639
I78
sS'night'
p640
I60
sS"18:47:48.0,33.979172,-118.2829581,2376,i'm"
p641
I78
sS'amor'
p642
I78
sS'right'
p643
I53
sS'old'
p644
I75
sS'deal'
p645
I76
sS'people'
p646
I48
sS'sends'
p647
I78
sS'groupies'
p648
I78
sS'somehow'
p649
I78
sS'dead'
p650
I75
sS'born'
p651
I77
sS'clubs'
p652
I78
sS'0-100'
p653
I78
sS'hassle'
p654
I78
sS'wrong.\xe2\x80\x9d'
p655
I78
sS'crees'
p656
I78
sS'2days'
p657
I78
sS'dahhhh'
p658
I78
sS'for'
p659
I17
sS'purple'
p660
I78
sS'phenomenal'
p661
I78
sS'opposite'
p662
I78
sS'overall.,90044\n452762383019040768,yurelimac,2014-04-06'
p663
I78
sS'ice'
p664
I77
sS'creative'
p665
I77
sS'everything'
p666
I69
sS'asking'
p667
I78
sS'3:30'
p668
I78
sS'newspaper"'
p669
I78
sS'christmas'
p670
I78
sS'pls'
p671
I78
sS"ol'"
p672
I78
sS'wise\xe2\x80\x9d'
p673
I78
sS'burn'
p674
I78
sS'fadedddddd,90044\n452753401772654592,yurelimac,2014-04-06'
p675
I78
sS'starring'
p676
I78
sS'pll'
p677
I78
sS'super'
p678
I74
sS'foolish'
p679
I78
sS'theirs'
p680
I78
sS'months'
p681
I77
sS'o'
p682
I78
sS'dinner'
p683
I78
sS'plus'
p684
I78
sS'afternoon'
p685
I78
sS'leprechaun'
p686
I78
sS'permission'
p687
I78
sS',90003\n502687318902579200,mistah_finner,2014-08-22'
p688
I78
sS'08:29:36.0,33.9791542,-118.2830407,2376,today'
p689
I78
sS'dilemma'
p690
I78
sS'lied'
p691
I78
sS'presence'
p692
I77
sS'wasting'
p693
I78
sS'ahh'
p694
I78
sS'bound'
p695
I77
sS'soo'
p696
I78
sS'negative'
p697
I78
sS'down'
p698
I64
sS'thankful'
p699
I77
sS'magazines'
p700
I78
sS'cry)'
p701
I78
sS'soy'
p702
I75
sS'cali'
p703
I78
sS'support'
p704
I77
sS'flying'
p705
I78
sS'15:43:18.0,33.9792101,-118.2830278,2376,she'
p706
I78
sS'fight'
p707
I77
sS'stuck'
p708
I77
sS'way'
p709
I62
sS'wax'
p710
I78
sS'call'
p711
I73
sS'avocados'
p712
I78
sS'weed"him'
p713
I78
sS'was'
p714
I16
sS'man\xe2\x80\x9d'
p715
I78
sS'happy'
p716
I72
sS'head'
p717
I72
sS'northridge'
p718
I76
sS'offer'
p719
I76
sS'becoming'
p720
I78
sS'6'
p721
I78
sS'oil'
p722
I78
sS'shits'
p723
I78
sS'heat'
p724
I78
sS'needles'
p725
I78
sS'hear'
p726
I73
sS'idgaf'
p727
I78
sS'survive'
p728
I78
sS'true'
p729
I75
sS'braces*'
p730
I78
sS'happen'
p731
I71
sS"else's"
p732
I78
sS'shannine'
p733
I78
sS'inside'
p734
I78
sS'saddest'
p735
I78
sS'tell'
p736
I73
sS'(cc'
p737
I78
sS'minor'
p738
I78
sS'neva'
p739
I78
sS'daddy'
p740
I78
sS'horses'
p741
I78
sS'later'
p742
I76
sS'hotter'
p743
I78
sS'lol,90044\n450697921508282368,yurelimac,2014-03-31'
p744
I78
sS'flat'
p745
I75
sS'minaj'
p746
I77
sS'adonde'
p747
I77
sS'!:)'
p748
I78
sS'igivesafuck'
p749
I78
sS'annoying'
p750
I76
sS'check'
p751
I77
sS'shit'
p752
I31
sS'propia'
p753
I78
sS'fantasized'
p754
I78
sS'no'
p755
I35
sS'when'
p756
I33
sS'rola'
p757
I78
sS'setting'
p758
I78
sS'role'
p759
I78
sS'holding'
p760
I77
sS'oscar'
p761
I78
sS'smell'
p762
I78
sS'tia'
p763
I78
sS'tic'
p764
I78
sS'picture'
p765
I76
sS'68th'
p766
I78
sS'lowkey,90044\n448737451322789888,yurelimac,2014-03-26'
p767
I78
sS"'s"
p768
I78
sS'roomies'
p769
I78
sS'models'
p770
I78
sS'meat*'
p771
I77
sS'welcome'
p772
I77
sS'taurus'
p773
I78
sS'fell'
p774
I76
sS'rolling'
p775
I78
sS'detox'
p776
I77
sS'weekend'
p777
I73
sS'younger'
p778
I76
sS'fantasias'
p779
I78
sS'apologizing'
p780
I78
sS'longer'
p781
I76
sS'excuse'
p782
I78
sS'together'
p783
I77
sS'loyal'
p784
I78
sS'me.,90044\n454427121432014848,yurelimac,2014-04-11'
p785
I78
sS'time'
p786
I45
sS'serious'
p787
I77
sS'n2'
p788
I78
sS'basically'
p789
I78
sS'pictures*'
p790
I78
sS':/'
p791
I76
sS':('
p792
I70
sS':)'
p793
I68
sS':*'
p794
I77
sS'dance'
p795
I78
sS'rod'
p796
I78
sS'focus'
p797
I78
sS':<'
p798
I78
sS'/'
p799
I75
sS'skin'
p800
I78
sS'butterpecan'
p801
I78
sS'milk'
p802
I78
sS'21:39:07.0,33.9791427,-118.2830075,2376,ima'
p803
I78
sS'venice'
p804
I75
sS'vieja\xe2\x80\x9d'
p805
I78
sS"when's"
p806
I78
sS'hump'
p807
I78
sS'father'
p808
I77
sS'disgusting'
p809
I77
sS'thighs'
p810
I78
sS'answered'
p811
I78
sS'finally'
p812
I69
sS'\xd8\xb9\xd9\x86\xd8\xaf\xd9\x83\xd9\x84\xd9\x88'
p813
I78
sS'melon'
p814
I78
sS'hear/drink'
p815
I78
sS'lol,90044\n451445721091153923,yurelimac,2014-04-02'
p816
I78
sS'brown'
p817
I76
sS'jazmin'
p818
I78
sS'advantage'
p819
I78
sS'\xe2\x9a\xbe\xef\xb8\x8f'
p820
I78
sS'iggy'
p821
I78
sS'18:51:00.0,33.9791861,-118.2830316,2376,a'
p822
I78
sS'tacos'
p823
I78
sS'fuuuh'
p824
I78
sS'ojos'
p825
I78
sS'cook'
p826
I77
sS'join'
p827
I77
sS':p'
p828
I77
sS'minute'
p829
I78
sS'cool'
p830
I72
sS'csuse'
p831
I78
sS'level'
p832
I78
sS'did'
p833
I63
sS'die'
p834
I74
sS'brother'
p835
I72
sS'gum'
p836
I78
sS'leave'
p837
I75
sS'soooo'
p838
I77
sS'queres'
p839
I78
sS'gut'
p840
I78
sS'quick'
p841
I78
sS'fuuuck'
p842
I78
sS'guy'
p843
I71
sS'yall'
p844
I77
sS"it'll"
p845
I77
sS'upper'
p846
I78
sS'unexpected'
p847
I78
sS'says'
p848
I74
sS'regret'
p849
I76
sS'\xee\x90\x85'
p850
I78
sS'cargo,90044\n452833938344382465,yurelimac,2014-04-06'
p851
I78
sS'asshole.,90044\n454180246334361600,yurelimac,2014-04-10'
p852
I78
sS'dosarita'
p853
I78
sS'hace'
p854
I78
sS'05:35:41.0,33.9791298,-118.2830123,2376,oh'
p855
I78
sS'run'
p856
I75
sS'bake'
p857
I78
sS'chicken'
p858
I78
sS'irritated'
p859
I78
sS'nicole\xe2\x9d\xa4\xef\xb8\x8f'
p860
I78
sS'adds'
p861
I78
sS'barbie'
p862
I78
sS'\xe2\x98\xba\xef\xb8\x8f'
p863
I75
sS'melt'
p864
I78
sS'cursi'
p865
I78
sS'deleted'
p866
I78
sS'axel'
p867
I75
sS'goes'
p868
I76
sS'reply'
p869
I78
sS'falling'
p870
I77
sS'crashing'
p871
I78
sS'filled'
p872
I78
sS'enfermedad'
p873
I78
sS'15:39:18.0,33.9791832,-118.2830407,2376,lol'
p874
I78
sS'transportation'
p875
I78
sS'not"\xe2\x80\x9d'
p876
I78
sS'makeup'
p877
I78
sS'chicano'
p878
I78
sS'dorados'
p879
I78
sS'understanding'
p880
I77
sS'water'
p881
I77
sS'slow'
p882
I77
sS'alone'
p883
I77
sS'along'
p884
I76
sS'earthquake'
p885
I77
sS'change'
p886
I76
sS'wait'
p887
I68
sS'box'
p888
I78
sS'sending'
p889
I77
sS'yessss'
p890
I77
sS'nigga.,90044\n453071835425300480,yurelimac,2014-04-07'
p891
I78
sS'institute'
p892
I78
sS'shift'
p893
I78
sS'bruises'
p894
I78
sS'step'
p895
I78
sS'bangs'
p896
I77
sS'boo'
p897
I72
sS'usually'
p898
I77
sS'weird'
p899
I78
sS'studies'
p900
I77
sS'massage'
p901
I78
sS'05:02:39.0,33.9791825,-118.2829608,2376,mom'
p902
I78
sS'love'
p903
I34
sS'hiking'
p904
I75
sS'extra'
p905
I77
sS'prefer'
p906
I78
sS'nigggggaaaa'
p907
I78
sS'snaps'
p908
I78
sS'stiletto'
p909
I78
sS'heartbreaks'
p910
I78
sS'*nicki'
p911
I78
sS'fake'
p912
I77
sS'fool'
p913
I78
sS'overthink'
p914
I77
sS'parking'
p915
I78
sS'red'
p916
I78
sS'everybody'
p917
I78
sS'perf'
p918
I78
sS'working'
p919
I75
sS'prove'
p920
I78
sS'positive'
p921
I78
sS'angry'
p922
I77
sS'dude'
p923
I74
sS'nadie'
p924
I78
sS'by'
p925
I65
sS'parties'
p926
I78
sS'live'
p927
I73
sS'ayy'
p928
I77
sS'iphone'
p929
I78
sS'memory'
p930
I78
sS'cuter'
p931
I78
sS'today'
p932
I58
sS'loving'
p933
I78
sS'sharing'
p934
I78
sS'big/nice'
p935
I78
sS'malas'
p936
I78
sS'club'
p937
I76
sS'stonefaceyureli'
p938
I77
sS'oregon'
p939
I78
sS'eazy'
p940
I78
sS'downtown'
p941
I78
sS'everywhere'
p942
I78
sS'cases'
p943
I78
sS'effort'
p944
I78
sS'douche'
p945
I78
sS'anything'
p946
I73
sS'niggas'
p947
I70
sS'car'
p948
I73
sS'pretend'
p949
I78
sS'soul'
p950
I78
sS'rawmen'
p951
I78
sS'can'
p952
I49
sS'9th'
p953
I77
sS'following'
p954
I78
sS'making'
p955
I70
sS'natasha'
p956
I77
sS'heart'
p957
I75
sS'crazy'
p958
I71
sS'downfall'
p959
I78
sS"08:14:11.0,33.9791827,-118.2830038,2376,i'm"
p960
I78
sS'awesome'
p961
I77
sS"didn't"
p962
I64
sS'fuck'
p963
I34
sS'monge'
p964
I78
sS'heard'
p965
I73
sS'dropped'
p966
I78
sS'council'
p967
I78
sS'pink'
p968
I75
sS'08:40:52.0,33.9791508,-118.2830442,2376,my'
p969
I78
sS'winter'
p970
I77
sS'write'
p971
I78
sS'means'
p972
I78
sS'poking'
p973
I78
sS'1'
p974
I77
sS'till'
p975
I70
sS'sunday'
p976
I74
sS'llega'
p977
I78
sS'puro'
p978
I78
sS'do.,90044\n453048945032167424,yurelimac,2014-04-07'
p979
I78
sS'unbelievable'
p980
I78
sS'cocktail'
p981
I78
sS'blasting'
p982
I78
sS'spot'
p983
I78
sS'listen"'
p984
I76
sS'birthday'
p985
I75
sS'mad'
p986
I70
sS'commit'
p987
I78
sS'date'
p988
I75
sS'such'
p989
I74
sS'suck'
p990
I78
sS'guys'
p991
I74
sS'mal'
p992
I77
sS'man'
p993
I63
sS'stress'
p994
I78
sS'viky'
p995
I78
sS'muertos'
p996
I78
sS'remember'
p997
I71
sS'conscious'
p998
I78
sS'whenever'
p999
I77
sS'maybe'
p1000
I72
sS'trumpets'
p1001
I78
sS'su'
p1002
I76
sS'st'
p1003
I77
sS'si'
p1004
I73
sS'coras'
p1005
I78
sS'so'
p1006
I22
sS'cascada'
p1007
I77
sS'sc'
p1008
I77
sS'tall'
p1009
I78
sS'se'
p1010
I69
sS'drunken'
p1011
I78
sS'cute'
p1012
I78
sS'clubbing'
p1013
I78
sS'wishing'
p1014
I78
sS'raised'
p1015
I78
sS'years'
p1016
I77
sS'course'
p1017
I77
sS'dismissed'
p1018
I78
sS'dye'
p1019
I78
sS'kanye'
p1020
I77
sS'still'
p1021
I55
sS"09'"
p1022
I78
sS'police'
p1023
I78
sS'thank'
p1024
I69
sS"he's"
p1025
I70
sS'smoothie'
p1026
I78
sS'interesting'
p1027
I77
sS'birthdays'
p1028
I78
sS'amazing'
p1029
I76
sS'yami'
p1030
I78
sS'gatorade'
p1031
I78
sS'thanx'
p1032
I78
sS'tweets'
p1033
I75
sS'mail'
p1034
I78
sS'main'
p1035
I77
sS'selfie'
p1036
I78
sS'happened'
p1037
I76
sS'\xd9\x83\xd8\xa7\xd9\x86'
p1038
I78
sS'views'
p1039
I78
sS'moms'
p1040
I77
sS'08:34:21.0,33.9791523,-118.2830409,2376,im'
p1041
I78
sS'introduce'
p1042
I78
sS'feelin'
p1043
I78
sS',90044\n448341451017965568,yurelimac,2014-03-25'
p1044
I78
sS'interview'
p1045
I78
sS'half'
p1046
I76
sS'not'
p1047
I28
sS'brunjes'
p1048
I78
sS'now'
p1049
I53
sS'1:00am'
p1050
I78
sS'wont'
p1051
I77
sS'name'
p1052
I76
sS'lies'
p1053
I78
sS',90044\n450757297862475776,yurelimac,2014-03-31'
p1054
I78
sS'times'
p1055
I71
sS'marjories'
p1056
I78
sS'arrows'
p1057
I78
sS'peasant'
p1058
I78
sS'careless'
p1059
I78
sS'rock'
p1060
I77
sS'x10'
p1061
I78
sS'lane,90044\n448738528290037761,yurelimac,2014-03-26'
p1062
I78
sS'pizza'
p1063
I78
sS'em'
p1064
I78
sS'el'
p1065
I73
sS'you.,90044\n448740490234458113,yurelimac,2014-03-26'
p1066
I78
sS'en'
p1067
I76
sS'bday'
p1068
I77
sS'lowkey'
p1069
I77
sS'hiccups'
p1070
I78
sS'benito'
p1071
I78
sS'pol\xc3\xadticos'
p1072
I78
sS'yeah'
p1073
I67
sS'wrap'
p1074
I78
sS'catching'
p1075
I77
sS'ex'
p1076
I75
sS'year'
p1077
I67
sS'girl'
p1078
I55
sS'pills'
p1079
I78
sS'es'
p1080
I76
sS'tried'
p1081
I77
sS'living'
p1082
I76
sS'medications'
p1083
I78
sS'opened'
p1084
I78
sS'3rd'
p1085
I78
sS'space'
p1086
I78
sS'looking'
p1087
I71
sS'though,90044\n450144694811365376,yurelimac,2014-03-30'
p1088
I78
sS'seriously'
p1089
I78
sS'miles'
p1090
I75
sS"shouldn't"
p1091
I78
sS'06:40:29.0,33.9791985,-118.2829897,2376,i'
p1092
I78
sS'shows'
p1093
I78
sS'monster'
p1094
I78
sS'prostitutes'
p1095
I78
sS'million'
p1096
I78
sS'boobs'
p1097
I77
sS'cart'
p1098
I78
sS'quite'
p1099
I78
sS'oro'
p1100
I78
sS'california'
p1101
I78
sS'cara'
p1102
I78
sS'rapped'
p1103
I78
sS'card'
p1104
I78
sS'thoughhh'
p1105
I78
sS'training'
p1106
I78
sS'gusta'
p1107
I77
sS"daisy's"
p1108
I78
sS'safada'
p1109
I78
sS'yup'
p1110
I72
sS'05:27:34.0,33.9791326,-118.283031,2376,,90044\n450843978754039808,yurelimac,2014-04-01'
p1111
I78
sS'calories'
p1112
I78
sS'diles'
p1113
I78
sS'turn'
p1114
I73
sS'place'
p1115
I76
sS'think'
p1116
I44
sS'waited'
p1117
I78
sS'first'
p1118
I70
sS'emotion'
p1119
I78
sS'saving'
p1120
I78
sS'sock'
p1121
I78
sS'xd'
p1122
I78
sS'yourself'
p1123
I77
sS'fast'
p1124
I76
sS'spanish'
p1125
I77
sS'sounds'
p1126
I73
sS'drove'
p1127
I78
sS'open'
p1128
I78
sS'tomorrow'
p1129
I48
sS'city'
p1130
I78
sS'given'
p1131
I78
sS'checked'
p1132
I78
sS'personalities'
p1133
I78
sS'district'
p1134
I78
sS'bite'
p1135
I78
sS'slept'
p1136
I78
sS't'
p1137
I78
sS'anyone'
p1138
I74
sS'guadalupe'
p1139
I78
sS'2'
p1140
I73
sS'white'
p1141
I76
sS',90044\n450880571690872834,yurelimac,2014-04-01'
p1142
I78
sS'friend'
p1143
I77
sS'gives'
p1144
I78
sS'"let'
p1145
I78
sS'eyes'
p1146
I76
sS'hug'
p1147
I77
sS'that'
p1148
I9
sS'season'
p1149
I77
sS'huh'
p1150
I75
sS'boba'
p1151
I78
sS'cops'
p1152
I78
sS'dudes'
p1153
I78
sS'parecias'
p1154
I78
sS'butt'
p1155
I77
sS'car.,90044\n450749155200098304,yurelimac,2014-03-31'
p1156
I78
sS'than'
p1157
I67
sS'boyfriend'
p1158
I76
sS'11'
p1159
I78
sS'wide'
p1160
I77
sS'12'
p1161
I77
sS'15'
p1162
I78
sS'lmao'
p1163
I47
sS'depressed'
p1164
I78
sS'18'
p1165
I76
sS'gotta'
p1166
I64
sS'dbz,90003\n501555502892216320,mistah_finner,2014-08-19'
p1167
I78
sS'r'
p1168
I77
sS'were'
p1169
I68
sS'asleep'
p1170
I70
sS'shrimp'
p1171
I78
sS'and'
p1172
I10
sS'coconut'
p1173
I78
sS'topics'
p1174
I77
sS'contar'
p1175
I78
sS'turned'
p1176
I73
sS'marijuana'
p1177
I78
sS'reno'
p1178
I77
sS'sad'
p1179
I72
sS'say'
p1180
I70
sS'anger'
p1181
I78
sS'breakfast'
p1182
I77
sS'dragon'
p1183
I78
sS'saw'
p1184
I74
sS'any'
p1185
I74
sS'kevin'
p1186
I78
sS'*eat'
p1187
I78
sS'stoners'
p1188
I78
sS'lol.,90044\n453076482525380608,yurelimac,2014-04-07'
p1189
I78
sS'translate'
p1190
I78
sS'shocked'
p1191
I78
sS'note'
p1192
I78
sS'omfg'
p1193
I78
sS'hookah'
p1194
I78
sS'take'
p1195
I59
sS'online'
p1196
I74
sS'wanting'
p1197
I76
sS'blunt'
p1198
I77
sS'acuerdo'
p1199
I78
sS'begin'
p1200
I77
sS'sure'
p1201
I72
sS'pain'
p1202
I76
sS'normal'
p1203
I77
sS'knew'
p1204
I77
sS',90044\n451442943027474437,yurelimac,2014-04-02'
p1205
I78
sS'paid'
p1206
I77
sS'falls'
p1207
I77
sS'voice*'
p1208
I77
sS'freshman'
p1209
I75
sS'sacar\xc3\xa1'
p1210
I78
sS'queens'
p1211
I78
sS'forever'
p1212
I75
sS'lawd'
p1213
I78
sS'proud'
p1214
I76
sS'hungry'
p1215
I74
sS'senior'
p1216
I77
sS'07:02:18.0,33.9791291,-118.2830179,2376,snapchat'
p1217
I78
sS'7:30'
p1218
I78
sS'shop'
p1219
I77
sS'neto'
p1220
I78
sS'walking'
p1221
I75
sS'shot'
p1222
I78
sS'accessorize'
p1223
I78
sS'show'
p1224
I73
sS'cheat'
p1225
I77
sS'fifty'
p1226
I78
sS'estoy'
p1227
I78
sS'bright'
p1228
I78
sS'shoe'
p1229
I78
sS'corner'
p1230
I78
sS'takin'
p1231
I78
sS"19:36:36.0,33.9791847,-118.2829935,2376,that's"
p1232
I78
sS'realizing'
p1233
I78
sS'aint'
p1234
I77
sS'woot'
p1235
I77
sS'callejones'
p1236
I78
sS'dice'
p1237
I78
sS'\xe2\x9c\x8b'
p1238
I76
sS'bomb"'
p1239
I78
sS'dick'
p1240
I78
sS'3'
p1241
I73
sS'\xe2\x9c\x82'
p1242
I78
sS'only'
p1243
I55
sS'going'
p1244
I41
sS'black'
p1245
I71
sS'sierro'
p1246
I78
sS',90044\n454430312773058560,yurelimac,2014-04-11'
p1247
I78
sS'correctly'
p1248
I78
sS'get'
p1249
I32
sS'goodluck'
p1250
I76
sS"4.0's"
p1251
I78
sS'stomp'
p1252
I78
sS'between'
p1253
I78
sS'truly'
p1254
I78
sS'10:23:17.0,33.9791547,-118.2830308,2376,why'
p1255
I78
sS'killers'
p1256
I78
sS',90044\n450887477729820672,yurelimac,2014-04-01'
p1257
I78
sS'freaking'
p1258
I78
sS'lmao,90044\n450144310923505664,yurelimac,2014-03-30'
p1259
I78
sS'artist'
p1260
I78
sS'morning'
p1261
I73
sS'naked'
p1262
I78
sS'jokes'
p1263
I78
sS'stupid'
p1264
I75
sS'01:14:03.0,33.9791661,-118.2830213,2376,idgaf'
p1265
I78
sS"could've"
p1266
I75
sS'quickie'
p1267
I78
sS'miley'
p1268
I77
sS'pants'
p1269
I78
sS'where'
p1270
I72
sS"y'all"
p1271
I70
sS'concert'
p1272
I77
sS',90044\n450879546426798080,yurelimac,2014-04-01'
p1273
I78
sS"hasn't"
p1274
I78
sS'hickies'
p1275
I78
sS'college'
p1276
I75
sS'hoes'
p1277
I75
sS'culpable'
p1278
I78
sS'6flags'
p1279
I78
sS'calendar'
p1280
I78
sS'untitled'
p1281
I78
sS'smiling'
p1282
I78
sS'wonder'
p1283
I72
sS'planet'
p1284
I78
sS'camping'
p1285
I78
sS'ways'
p1286
I78
sS'jumped'
p1287
I78
sS'enough'
p1288
I74
sS'diamonds'
p1289
I76
sS'fiscalia'
p1290
I78
sS'reading'
p1291
I77
sS"game\xe2\x9c\x8c\xef\xb8\x8fi'm"
p1292
I78
sS'jv'
p1293
I78
sS'boy"'
p1294
I78
sS'notice'
p1295
I76
sS'jobs'
p1296
I78
sS'august'
p1297
I78
sS'belizean_meeh'
p1298
I77
sS'screen'
p1299
I78
sS'tus'
p1300
I78
sS'<3,90044\n448735790034456576,yurelimac,2014-03-26'
p1301
I78
sS'inseparable'
p1302
I78
sS'killing'
p1303
I76
sS'blame'
p1304
I77
sS'awards'
p1305
I78
sS'como'
p1306
I76
sS'jk'
p1307
I73
sS'tomorrow.,90044\n453059721532948480,yurelimac,2014-04-07'
p1308
I78
sS'come'
p1309
I68
sS'canta'
p1310
I78
sS'mob'
p1311
I78
sS'mona'
p1312
I78
sS'many'
p1313
I72
sS'sleeps'
p1314
I78
sS'dedicate'
p1315
I78
sS'perfff'
p1316
I78
sS'tour'
p1317
I74
sS'mane'
p1318
I78
sS'quien'
p1319
I77
sS'...crazy'
p1320
I78
sS"can't"
p1321
I54
sS'no\xe2\x9c\x8b'
p1322
I78
sS'08:58:59.0,33.979147,-118.282995,2376,idc'
p1323
I78
sS'active,90044\n448738113792122880,yurelimac,2014-03-26'
p1324
I78
sS'6:30'
p1325
I78
sS'refiere'
p1326
I78
sS'hurts'
p1327
I76
sS'por'
p1328
I77
sS'kiara'
p1329
I78
sS'62'
p1330
I78
sS'welcome!('
p1331
I78
sS"couldn't"
p1332
I77
sS'bizarre'
p1333
I78
sS'cramps'
p1334
I77
sS'agarraron'
p1335
I78
sS'08:53:03.0,33.979212,-118.2830233,2376,goodnight/morning'
p1336
I78
sS'ucla'
p1337
I78
sS'cared'
p1338
I78
sS'almighty'
p1339
I78
sS'workshop'
p1340
I78
sS'lol,90044\n448740863602982912,yurelimac,2014-03-26'
p1341
I78
sS'qu\xc3\xa9'
p1342
I78
sS'wants'
p1343
I75
sS'shopping'
p1344
I78
sS'06:17:15.0,33.9791422,-118.2830327,2376,i'
p1345
I78
sS'andrew'
p1346
I78
sS'readings'
p1347
I78
sS'laptops'
p1348
I78
sS'tightened'
p1349
I78
sS'wake'
p1350
I75
sS'andrea'
p1351
I77
sS'irrelevant'
p1352
I78
sS'spirit'
p1353
I78
sS'those'
p1354
I69
sS'sound'
p1355
I76
sS'myself'
p1356
I69
sS'these'
p1357
I58
sS'sauce'
p1358
I78
sS'knowwwww'
p1359
I78
sS'ratchet'
p1360
I78
sS'cannot'
p1361
I78
sS'buen'
p1362
I78
sS"uc's/privates"
p1363
I78
sS'ive'
p1364
I77
sS'*cutting'
p1365
I78
sS'eventually'
p1366
I78
sS'coffee'
p1367
I77
sS"08:25:20.0,33.9791399,-118.2830898,2376,don't"
p1368
I78
sS'sleeping'
p1369
I71
sS'canceled'
p1370
I77
sS'someone'
p1371
I64
sS'punched'
p1372
I78
sS'minds'
p1373
I78
sS'pinks'
p1374
I78
sS'cumplir'
p1375
I78
sS'everyday'
p1376
I76
sS'worry'
p1377
I78
sS'bags'
p1378
I77
sS'different'
p1379
I77
sS'sippin'
p1380
I77
sS'06:48:46.0,33.9791868,-118.2829753,2376,,90044\n450887026473050112,yurelimac,2014-04-01'
p1381
I78
sS'pay'
p1382
I76
sS'bowl'
p1383
I77
sS'same'
p1384
I74
sS'trip'
p1385
I76
sS'food'
p1386
I71
sS'emely'
p1387
I75
sS'followers'
p1388
I78
sS'struggling'
p1389
I78
sS'dealt'
p1390
I78
sS'todos'
p1391
I76
sS'week'
p1392
I69
sS'favorited'
p1393
I78
sS'jeffrey'
p1394
I78
sS'safe'
p1395
I78
sS'05:27:21.0,33.9791723,-118.283005,2376,ugh'
p1396
I78
sS'driver'
p1397
I78
sS'weed'
p1398
I69
sS'swagless'
p1399
I78
sS'running'
p1400
I76
sS'two'
p1401
I78
sS'chorizo'
p1402
I78
sS'totally'
p1403
I78
sS'well,90044\n448737131049918464,yurelimac,2014-03-26'
p1404
I78
sS'\xe2\x9c\x8c\xef\xb8\x8f'
p1405
I77
sS'theater'
p1406
I77
sS'charger'
p1407
I77
sS'm.i.a'
p1408
I78
sS"21:50:29.0,33.9791389,-118.2829766,2376,i'm"
p1409
I78
sS'without'
p1410
I73
sS'comes'
p1411
I78
sS'bottle'
p1412
I74
sS'model'
p1413
I78
sS'dimension'
p1414
I78
sS"you've"
p1415
I77
sS'summer'
p1416
I71
sS'manicure'
p1417
I78
sS'being'
p1418
I61
sS'money'
p1419
I75
sS'10:25:38.0,33.979144,-118.2830368,2376,tomorrow'
p1420
I78
sS'violent'
p1421
I78
sS'(i'
p1422
I78
sS'kill'
p1423
I76
sS'polish'
p1424
I78
sS'blow'
p1425
I76
sS'dipped'
p1426
I78
sS'julion'
p1427
I78
sS'thinking'
p1428
I74
sS'rose'
p1429
I77
sS'except'
p1430
I77
sS'complain'
p1431
I78
sS'thousand'
p1432
I78
sS'lets'
p1433
I75
sS'interested'
p1434
I78
sS'ahhhh'
p1435
I77
sS'4'
p1436
I72
sS'versa'
p1437
I78
sS'dicks'
p1438
I77
sS'dentist'
p1439
I78
sS'pill'
p1440
I77
sS'real'
p1441
I67
sS'starving'
p1442
I78
sS'mucho'
p1443
I78
sS'calmate'
p1444
I78
sS'around'
p1445
I76
sS'amo'
p1446
I78
sS'read'
p1447
I77
sS'cuando'
p1448
I77
sS'lado'
p1449
I78
sS'gonna'
p1450
I54
sS'early'
p1451
I67
sS'traffic'
p1452
I75
sS'listening'
p1453
I76
sS'tanto'
p1454
I78
sS'it.\xe2\x80\x9d'
p1455
I77
sS'world'
p1456
I74
sS'lady'
p1457
I75
sS'pst'
p1458
I78
sS'in-n-out'
p1459
I78
sS'stranger'
p1460
I78
sS'dick"'
p1461
I78
sS'maaaaaaaa'
p1462
I78
sS'homegirl'
p1463
I78
sS'gimme'
p1464
I78
sS'either'
p1465
I75
sS'nosotras'
p1466
I78
sS'revision'
p1467
I78
sS"qt's"
p1468
I78
sS';p'
p1469
I78
sS'learning'
p1470
I78
sS'joking'
p1471
I78
sS'01:12:41.0,33.9791987,-118.2829982,2376,tu'
p1472
I78
sS'moving'
p1473
I75
sS'pacific'
p1474
I78
sS'pobre'
p1475
I78
sS'fived'
p1476
I78
sS'08:20:11.0,33.9792056,-118.2829967,2376,why'
p1477
I78
sS'drake'
p1478
I78
sS'brits'
p1479
I78
sS'reconsider'
p1480
I78
sS'thinks'
p1481
I76
sS'provided'
p1482
I78
sS'slice'
p1483
I78
sS'mood'
p1484
I77
sS'memories'
p1485
I74
sS'ability'
p1486
I78
sS'slick'
p1487
I78
sS'stops'
p1488
I78
sS'turnup'
p1489
I78
sS'throat'
p1490
I78
sS'know"me'
p1491
I78
sS'jaripeo'
p1492
I78
sS'considering'
p1493
I78
sS'football'
p1494
I78
sS'business'
p1495
I77
sS'tashaboo'
p1496
I77
sS'seconds'
p1497
I77
sS'papa'
p1498
I78
sS'nails'
p1499
I76
sS'tuition'
p1500
I78
sS'escap\xc3\xb3'
p1501
I78
sS'gramatically'
p1502
I78
sS'throwback'
p1503
I77
sS';)'
p1504
I76
sS';('
p1505
I78
sS'stereotypes'
p1506
I78
sS'throw'
p1507
I78
sS'on'
p1508
I21
sS'ok'
p1509
I77
sS'onos'
p1510
I78
sS'ace'
p1511
I78
sS'oh'
p1512
I68
sS'of'
p1513
I13
sS'favorite'
p1514
I78
sS'side'
p1515
I76
sS'stand'
p1516
I77
sS'act'
p1517
I76
sS'stank'
p1518
I78
sS'or'
p1519
I47
sS'ladies'
p1520
I77
sS'never.\xe2\x80\x9d'
p1521
I78
sS'i-110'
p1522
I77
sS'snapchat'
p1523
I71
sS'morir'
p1524
I78
sS'"talhotblond"'
p1525
I78
sS'apologize'
p1526
I77
sS'elementary'
p1527
I78
sS'annoys'
p1528
I78
sS'your'
p1529
I32
sS'putiada'
p1530
I78
sS"how's"
p1531
I78
sS'her'
p1532
I40
sS'area'
p1533
I77
sS'ortiz'
p1534
I78
sS'there'
p1535
I66
sS'hey'
p1536
I77
sS'lol'
p1537
I11
sS'ass"'
p1538
I78
sS'lmfaooo'
p1539
I78
sS'start'
p1540
I70
sS'downey'
p1541
I77
sS'low'
p1542
I78
sS'lot'
p1543
I65
sS'valley'
p1544
I78
sS'betch!,90044\n454138951645663233,yurelimac,2014-04-10'
p1545
I78
sS'project'
p1546
I78
sS'you)'
p1547
I78
sS'you"'
p1548
I78
sS'idea'
p1549
I78
sS'brain'
p1550
I78
sS'supposevely'
p1551
I78
sS'supposably'
p1552
I78
sS'trying'
p1553
I77
sS'with'
p1554
I24
sS'spice'
p1555
I77
sS'pull'
p1556
I77
sS'rush'
p1557
I77
sS'lion"'
p1558
I78
sS"wasn't"
p1559
I74
sS'fresas'
p1560
I78
sS'bucket'
p1561
I78
sS'trueeee,90044\n450134137651736576,yurelimac,2014-03-30'
p1562
I78
sS'eye_can_only_b_mee'
p1563
I78
sS'(poinsettia'
p1564
I78
sS'strawberry'
p1565
I78
sS'06:21:02.0,33.9791348,-118.2830426,2376,so'
p1566
I78
sS'dirty'
p1567
I76
sS'flats'
p1568
I78
sS'-r14'
p1569
I78
sS'?:)'
p1570
I78
sS'agree'
p1571
I78
sS'asss'
p1572
I78
sS'expect'
p1573
I78
sS'gone'
p1574
I70
sS'bullet"'
p1575
I78
sS'videos'
p1576
I78
sS'af'
p1577
I76
sS'taste'
p1578
I78
sS'certain'
p1579
I77
sS'describe'
p1580
I78
sS'am'
p1581
I59
sS'al'
p1582
I78
sS'watches'
p1583
I78
sS'an'
p1584
I69
sS'ap'
p1585
I78
sS'tengo'
p1586
I77
sS'at'
p1587
I27
sS'aw'
p1588
I77
sS'pen'
p1589
I78
sS'ay'
p1590
I77
sS'watched'
p1591
I76
sS'moves'
p1592
I78
sS'cream'
p1593
I78
sS'incorrect'
p1594
I78
sS'again'
p1595
I59
sS'rubbed'
p1596
I78
sS'todo'
p1597
I75
sS'gavilan'
p1598
I78
sS'<<<'
p1599
I78
sS'10:59:23.0,33.9792306,-118.2830515,2376,tonight'
p1600
I78
sS'hella'
p1601
I78
sS'5'
p1602
I78
sS'you'
p1603
I6
sS'trash'
p1604
I78
sS'offered'
p1605
I78
sS"ad's!,90044\n448737572177453056,yurelimac,2014-03-26"
p1606
I78
sS'narco'
p1607
I78
sS'teeth'
p1608
I78
sS'inventan'
p1609
I78
sS'includes'
p1610
I78
sS'cuerpo'
p1611
I78
sS'gon'
p1612
I76
sS'fresh'
p1613
I78
sS'chris'
p1614
I77
sS'spouse'
p1615
I78
sS'alcohol'
p1616
I78
sS'calls'
p1617
I78
sS'$36'
p1618
I77
sS'3-4'
p1619
I78
sS'mask'
p1620
I78
sS'having'
p1621
I71
sS'aduciendo'
p1622
I78
sS'u'
p1623
I72
sS'satisfied'
p1624
I78
sS'smirk'
p1625
I78
sS'alright'
p1626
I78
sS'lupita'
p1627
I77
sS'starting'
p1628
I78
sS'original'
p1629
I78
sS'neighbors'
p1630
I78
sS'all'
p1631
I30
sS'tenido'
p1632
I78
sS'forget'
p1633
I76
sS'bull'
p1634
I78
sS'dollar'
p1635
I78
sS'swerving'
p1636
I78
sS'month'
p1637
I78
sS'talks'
p1638
I78
sS'follow'
p1639
I77
sS'faster'
p1640
I78
sS'religious'
p1641
I78
sS'u.\xe2\x80\x9d'
p1642
I78
sS'careful'
p1643
I78
sS'fits'
p1644
I78
sS'bike\xe2\x80\x9d'
p1645
I78
sS'tv'
p1646
I77
sS'baddest'
p1647
I78
sS'tu'
p1648
I71
sS'misses'
p1649
I78
sS'thursday'
p1650
I76
sS'laughing'
p1651
I78
sS'to'
p1652
I3
sS'tl'
p1653
I76
sS'program'
p1654
I78
sS'alvarez'
p1655
I78
sS'disount'
p1656
I78
sS'ti'
p1657
I78
sS'tf'
p1658
I78
sS'smile'
p1659
I77
sS'te'
p1660
I71
sS'woman'
p1661
I78
sS'appointment'
p1662
I76
sS'worse'
p1663
I76
sS'song'
p1664
I75
sS'very'
p1665
I76
sS'talk"'
p1666
I78
sS'fav'
p1667
I78
sS'selfies'
p1668
I78
sS'mofuckin'
p1669
I78
sS'worst'
p1670
I78
sS'minded'
p1671
I78
sS'bestie'
p1672
I78
sS'fall'
p1673
I70
sS'awful'
p1674
I78
sS'ticket'
p1675
I78
sS'hooker'
p1676
I78
sS'trippin'
p1677
I77
sS'alma'
p1678
I78
sS'briseida'
p1679
I78
sS'pandoras'
p1680
I78
sS'louis'
p1681
I78
sS'list'
p1682
I78
sS'princesas'
p1683
I78
sS'cyberslap'
p1684
I78
sS'harry'
p1685
I78
sS'lisa'
p1686
I78
sS"i'll"
p1687
I67
sS'instagram'
p1688
I78
sS'tea'
p1689
I78
sS'3.15'
p1690
I78
sS'whens'
p1691
I78
sS'past'
p1692
I73
sS'pass'
p1693
I78
sS'readyay'
p1694
I78
sS'what'
p1695
I39
sS'darkness'
p1696
I77
sS'05:37:44.0,33.9791331,-118.2830119,2376,jk'
p1697
I78
sS'sun'
p1698
I78
sS'monedita'
p1699
I78
sS'guna'
p1700
I78
sS'crush'
p1701
I77
sS'aby'
p1702
I78
sS'advance'
p1703
I78
sS'zomgggggg'
p1704
I78
sS'tattoos'
p1705
I78
sS'full'
p1706
I76
sS'hungover'
p1707
I78
sS'loose'
p1708
I78
sS'-lana'
p1709
I78
sS'forgive'
p1710
I78
sS'loosest'
p1711
I78
sS"natasha's"
p1712
I78
sS'witcho'
p1713
I78
sS'strong'
p1714
I78
sS'monja'
p1715
I78
sS'relationships.,90044\n453060007978758144,yurelimac,2014-04-07'
p1716
I78
sS"admission's"
p1717
I78
sS'experience'
p1718
I78
sS'pics'
p1719
I78
sS'pick'
p1720
I77
sS'raza'
p1721
I78
sS"would've"
p1722
I75
sS'sunburned'
p1723
I78
sS'mind.,90044\n448740256020328448,yurelimac,2014-03-26'
p1724
I78
sS'via'
p1725
I78
sS'followed'
p1726
I78
sS'family'
p1727
I75
sS'va'
p1728
I78
sS'donnie'
p1729
I78
sS'put'
p1730
I78
sS'thought'
p1731
I71
sS'corto'
p1732
I78
sS'buenas'
p1733
I78
sS'(porque'
p1734
I78
sS'florence'
p1735
I77
sS'select'
p1736
I78
sS'mountains\xe2\x80\xa6'
p1737
I78
sS'munchies'
p1738
I78
sS'eye'
p1739
I78
sS'takes'
p1740
I77
sS'donuts'
p1741
I78
sS'charge'
p1742
I77
sS'driver\xe2\x80\xa6'
p1743
I78
sS'morn'
p1744
I78
sS'gorgeous'
p1745
I77
sS'taken'
p1746
I76
sS'printer'
p1747
I78
sS'more'
p1748
I66
sS'foevaaa'
p1749
I78
sS'tryna'
p1750
I70
sS'knows'
p1751
I75
sS'*looking'
p1752
I78
sS'dis'
p1753
I78
sS'marks'
p1754
I78
sS'mira'
p1755
I77
sS'tested'
p1756
I78
sS'160000'
p1757
I78
sS"ain't"
p1758
I60
sS'bros'
p1759
I78
sS'broke'
p1760
I78
sS'hurry'
p1761
I78
sS'glad'
p1762
I76
sS'none'
p1763
I78
sS'hour'
p1764
I78
sS"'childhood'"
p1765
I78
sS'15:36:30.0,33.9791933,-118.2830374,2376,only'
p1766
I78
sS'sucks'
p1767
I74
sS'mall'
p1768
I76
sS'del'
p1769
I78
sS'pero'
p1770
I78
sS'lmaoo'
p1771
I78
sS'15:19:29.0,33.979151,-118.2830572,2376,oh'
p1772
I78
sS'compare'
p1773
I78
sS'pony'
p1774
I78
sS'20:02:22.0,33.9791761,-118.2830139,2376,thinking'
p1775
I78
sS'share'
p1776
I76
sS'deber\xc3\xada'
p1777
I78
sS',90044\n452754127479508992,yurelimac,2014-04-06'
p1778
I78
sS'sike'
p1779
I78
sS'minimum'
p1780
I77
sS'$49.99'
p1781
I78
sS'purchased'
p1782
I78
sS'that.\xe2\x80\x9d'
p1783
I78
sS'dress'
p1784
I74
sS'huge'
p1785
I76
sS'needs'
p1786
I76
sS'jerk'
p1787
I78
sS"tweetin'"
p1788
I78
sS'stayed'
p1789
I78
sS':d'
p1790
I78
sS'glowing'
p1791
I78
sS'"flor'
p1792
I78
sS'hugs'
p1793
I77
sS'08:19:05.0,33.9791553,-118.2830405,2376,i'
p1794
I78
sS'acorralados'
p1795
I78
sS'fr'
p1796
I78
sS'lol,90044\n454168818168758272,yurelimac,2014-04-10'
p1797
I78
sS'okay'
p1798
I65
sS'plans'
p1799
I77
sS's\xc3\xa1bado'
p1800
I78
sS'suppose'
p1801
I78
sS'advice'
p1802
I77
sS'soundtrack'
p1803
I78
sS'tries'
p1804
I78
sS'morals'
p1805
I78
sS'numb'
p1806
I77
sS'coming'
p1807
I73
sS'rudy'
p1808
I73
sS'piensalo'
p1809
I78
sS'subtweets.\xe2\x80\x9d'
p1810
I78
sS'a'
p1811
I7
sS'short'
p1812
I77
sS'love?,90044\n450148539192971264,yurelimac,2014-03-30'
p1813
I78
sS'coat'
p1814
I78
sS'swearrrrrrrrrr\xe2\x80\x9d'
p1815
I78
sS'volleyball'
p1816
I78
sS'smh,90044\n452827942779772928,yurelimac,2014-04-06'
p1817
I78
sS'that,90044\n450134189191356416,yurelimac,2014-03-30'
p1818
I78
sS'scaring'
p1819
I78
sS'$20'
p1820
I78
sS'facebook'
p1821
I77
sS'dream'
p1822
I75
sS'playing'
p1823
I76
sS"that's"
p1824
I58
sS'chicks'
p1825
I78
sS'feeds'
p1826
I78
sS'mexican'
p1827
I77
sS'help'
p1828
I75
sS'conversation'
p1829
I78
sS"don't"
p1830
I29
sS'"if'
p1831
I76
sS'reminded'
p1832
I77
sS"juanito's"
p1833
I78
sS'sooo'
p1834
I76
sS'soon'
p1835
I75
sS'brit'
p1836
I78
sS'clean.\xe2\x9c\x8c\xef\xb8\x8f'
p1837
I78
sS'attitude'
p1838
I78
sS'paper'
p1839
I78
sS'through'
p1840
I70
sS'guadalajara'
p1841
I78
sS'signs'
p1842
I78
sS'hell'
p1843
I77
sS'mcdonalds'
p1844
I78
sS'its'
p1845
I76
sS'aztlan'
p1846
I78
sS'25'
p1847
I78
sS'style'
p1848
I78
sS'20'
p1849
I77
sS'already"'
p1850
I78
sS'alll'
p1851
I78
sS'actually'
p1852
I71
sS'late'
p1853
I70
sS'heartbreak'
p1854
I78
sS'if"'
p1855
I78
sS'bout'
p1856
I77
sS'cutie'
p1857
I78
sS'might'
p1858
I75
sS'hoop'
p1859
I78
sS"haven't"
p1860
I68
sS'lookout'
p1861
I78
sS'hurting'
p1862
I77
sS'good'
p1863
I52
sS'yo'
p1864
I64
sS'ya'
p1865
I69
sS'uhh'
p1866
I78
sS'starbucks'
p1867
I73
sS',90044\n450706846400016384,yurelimac,2014-03-31'
p1868
I78
sS'hellllllll'
p1869
I78
sS'foot'
p1870
I78
sS'yet?!\xe2\x80\x9d'
p1871
I78
sS'bigger'
p1872
I76
sS'instructions'
p1873
I78
sS'mystery'
p1874
I78
sS'cavities'
p1875
I78
sS'pregnant'
p1876
I78
sS'always'
p1877
I65
sS'pides'
p1878
I78
sS'm\xc3\xa1s'
p1879
I78
sS'tear'
p1880
I78
sS'stopped'
p1881
I75
sS'found'
p1882
I74
sS'06:23:36.0,33.9791367,-118.2830296,2376,my'
p1883
I78
sS"isn't"
p1884
I76
sS'heavy'
p1885
I78
sS'everyone'
p1886
I72
sS'weeknd'
p1887
I78
sS'house'
p1888
I66
sS'hard'
p1889
I74
sS'datuptowndude'
p1890
I78
sS'gft'
p1891
I78
sS'accidentally'
p1892
I78
sS'toda'
p1893
I78
sS'finish'
p1894
I78
sS'cloudy'
p1895
I78
sS'callate'
p1896
I78
sS'butthurt'
p1897
I78
sS'insurance'
p1898
I78
sS'really'
p1899
I38
sS"&that's"
p1900
I78
sS'perry'
p1901
I78
sS'missed'
p1902
I74
sS'\xd9\x88\xd8\xad\xd9\x8a\xd8\xa7\xd8\xaa\xd9\x8a'
p1903
I78
sS'since'
p1904
I74
sS'acting'
p1905
I75
sS'7'
p1906
I78
sS"emely's"
p1907
I78
sS'salute'
p1908
I78
sS'ass'
p1909
I56
sS'learn\xe2\x80\x9d'
p1910
I78
sS'dirt'
p1911
I78
sS'friday'
p1912
I75
sS'horse'
p1913
I78
sS'reason'
p1914
I73
sS'cookie'
p1915
I78
sS'asf'
p1916
I74
sS'members'
p1917
I78
sS'clique'
p1918
I78
sS'ask'
p1919
I70
sS'teach'
p1920
I77
sS'earliest'
p1921
I78
sS'lol"'
p1922
I78
sS',90044\n450883762021072896,yurelimac,2014-04-01'
p1923
I78
sS'05:52:29.0,33.9791667,-118.283051,2376,was'
p1924
I78
sS'*scrolling'
p1925
I78
sS'expecting'
p1926
I77
sS'bonfire'
p1927
I78
sS'daisy'
p1928
I77
sS'apocalypse'
p1929
I78
sS'fallen'
p1930
I78
sS'major'
p1931
I76
sS'dont'
p1932
I68
sS'feel'
p1933
I64
sS'number'
p1934
I75
sS'sisters'
p1935
I78
sS'dejavu'
p1936
I78
sS'done'
p1937
I69
sS'angeles)'
p1938
I77
sS'cups'
p1939
I78
sS'miss'
p1940
I67
sS'guess'
p1941
I73
sS'10:58:58.0,33.9791937,-118.2830508,2376,i'
p1942
I78
sS'18%'
p1943
I78
sS'00:09:52.0,33.9791535,-118.2830112,2376,fuck'
p1944
I78
sS'least'
p1945
I78
sS'05:28:16.0,33.9791403,-118.2830157,2376,brandi'
p1946
I78
sS'paint'
p1947
I78
sS'(paco'
p1948
I78
sS'station'
p1949
I78
sS'karrueche'
p1950
I77
sS'passed'
p1951
I77
sS'mama'
p1952
I78
sS'dumbass'
p1953
I78
sS'challenge'
p1954
I78
sS'tats'
p1955
I78
sS'headache'
p1956
I77
sS'mini'
p1957
I78
sS'06:23:06.0,33.9791354,-118.2830425,2376,i'
p1958
I78
sS'giiiiirl'
p1959
I78
sS'option'
p1960
I78
sS'para'
p1961
I76
sS'paredes'
p1962
I78
sS'hotel'
p1963
I78
sS'park'
p1964
I78
sS"i'ma"
p1965
I78
sS',90044\n453095237372506112,yurelimac,2014-04-07'
p1966
I78
sS'asco'
p1967
I78
sS'part'
p1968
I78
sS'sware'
p1969
I78
sS'$6'
p1970
I78
sS"07:27:48.0,33.9791825,-118.2830175,2376,i'm"
p1971
I78
sS'believe'
p1972
I76
sS'obama'
p1973
I78
sS'.sweet'
p1974
I78
sS'kind'
p1975
I76
sS"feelin'"
p1976
I78
sS'compliments'
p1977
I78
sS'fcked'
p1978
I78
sS'gotten'
p1979
I75
sS'grey'
p1980
I77
sS'pampered'
p1981
I78
sS'dank'
p1982
I78
sS'07:32:59.0,33.9791566,-118.2829996,2376,my'
p1983
I78
sS'nuthin'
p1984
I78
sS'8:30'
p1985
I78
sS'treated'
p1986
I76
sS'15-hour'
p1987
I78
sS'motivation'
p1988
I78
sS'outta'
p1989
I78
sS'~~'
p1990
I78
sS'wasnt'
p1991
I78
sS"finga'"
p1992
I78
sS'suspicious'
p1993
I78
sS'juice'
p1994
I78
sS'graffiti'
p1995
I77
sS'showers'
p1996
I78
sS'lara'
p1997
I78
sS'crackhead'
p1998
I78
sS'lie'
p1999
I77
sS'nights'
p2000
I78
sS'relationship'
p2001
I76
sS'dancing'
p2002
I76
sS'lil'
p2003
I76
sS'self'
p2004
I77
sS'lit'
p2005
I78
sS'also'
p2006
I77
sS'costs'
p2007
I78
sS'los\xe2\x80\xa6'
p2008
I78
sS'superior'
p2009
I78
sS'finding'
p2010
I78
sS'06:41:38.0,33.979145,-118.2830236,2376,ugh'
p2011
I78
sS'play'
p2012
I78
sS'compa'
p2013
I78
sS'natalys'
p2014
I78
sS'hombres'
p2015
I78
sS'quote'
p2016
I76
sS'most'
p2017
I72
sS'09:01:37.0,33.9791415,-118.2830254,2376,when'
p2018
I78
sS'plan'
p2019
I78
sS'nothing'
p2020
I75
sS'11:11'
p2021
I78
sS'extremely'
p2022
I77
sS'08:27:37.0,33.9791554,-118.2830404,2376,fuck'
p2023
I78
sS'kb'
p2024
I78
sS'"you\'re'
p2025
I78
sS'sometimes'
p2026
I74
sS'5-9'
p2027
I78
sS'gin'
p2028
I78
sS'10am'
p2029
I78
sS'clean'
p2030
I78
sS'cabrona'
p2031
I78
sS'foevaaaa'
p2032
I78
sS"they're"
p2033
I74
sS'ugh'
p2034
I65
sS'slap'
p2035
I78
sS'tener'
p2036
I78
sS'nahh'
p2037
I78
sS'ciroc'
p2038
I77
sS'\xee\x90\xa0'
p2039
I78
sS'stfu'
p2040
I77
sS"it'd"
p2041
I78
sS'hopped'
p2042
I78
sS'fine'
p2043
I78
sS'find'
p2044
I74
sS'gangs'
p2045
I78
sS'$5'
p2046
I78
sS'pinche'
p2047
I78
sS'failed'
p2048
I78
sS'pretty'
p2049
I74
sS'8'
p2050
I77
sS'circle'
p2051
I78
sS'enterito'
p2052
I78
sS"mom's"
p2053
I78
sS'porque'
p2054
I76
sS'his'
p2055
I66
sS'hit'
p2056
I71
sS'distance'
p2057
I78
sS'express'
p2058
I77
sS'sunny'
p2059
I78
sS'feels'
p2060
I75
sS'b'
p2061
I78
sS'"told'
p2062
I78
sS'actions'
p2063
I77
sS'mxpx'
p2064
I78
sS'him'
p2065
I67
sS'cry'
p2066
I73
sS'thots'
p2067
I78
sS'gloves'
p2068
I78
sS'lmfaoooooo'
p2069
I78
sS'verdad'
p2070
I78
sS'days\xe2\x80\x9d'
p2071
I78
sS'psychology'
p2072
I78
sS'set'
p2073
I77
sS'art'
p2074
I76
sS'ser'
p2075
I77
sS'vine'
p2076
I78
sS'06:26:40.0,33.9791364,-118.2830425,2376,ugh'
p2077
I78
sS'sex'
p2078
I78
sS'see'
p2079
I57
sS'dumb'
p2080
I78
sS'are'
p2081
I40
sS'close'
p2082
I78
sS'11th'
p2083
I77
sS'knees'
p2084
I77
sS'06:33:02.0,33.9792141,-118.2830133,2376,i'
p2085
I78
sS'tummy'
p2086
I78
sS'pictures'
p2087
I76
sS'wow'
p2088
I76
sS'swear....haha'
p2089
I78
sS'grindin'
p2090
I78
sS'slapped'
p2091
I78
sS'take.you'
p2092
I78
sS'won'
p2093
I78
sS'guardian'
p2094
I78
sS'probably'
p2095
I73
sS'springbreak'
p2096
I78
sS'jasmin'
p2097
I76
sS'compliment'
p2098
I78
sS'supposed'
p2099
I77
sS'knowing'
p2100
I77
sS'pagas'
p2101
I78
sS'missing'
p2102
I77
sS"bff's"
p2103
I77
sS'attention'
p2104
I77
sS'peircings'
p2105
I78
sS'outfit'
p2106
I78
sS'nicky'
p2107
I78
sS'sexo'
p2108
I78
sS'pissed'
p2109
I78
sS'both'
p2110
I75
sS'c'
p2111
I77
sS'10th'
p2112
I77
sS'last'
p2113
I60
sS'thot'
p2114
I76
sS"wouldn't"
p2115
I74
sS'barely'
p2116
I78
sS'foreign'
p2117
I78
sS'picture('
p2118
I78
sS'context'
p2119
I78
sS'retarded'
p2120
I78
sS'fermin'
p2121
I78
sS'whole'
p2122
I72
sS'nataly'
p2123
I78
sS'patty'
p2124
I78
sS'\xe2\x98\xba'
p2125
I77
sS'live"'
p2126
I76
sS'point'
p2127
I77
sS'sweet'
p2128
I78
sS'caerle'
p2129
I78
sS"jay's"
p2130
I78
sS'community'
p2131
I77
sS'rosa'
p2132
I78
sS'likes'
p2133
I77
sS'mullinger'
p2134
I78
sS'sing'
p2135
I77
sS'08:20:47.0,33.9791977,-118.2830106,2376,still'
p2136
I78
sS'expensive'
p2137
I78
sS'headaches'
p2138
I78
sS'\xe2\x98\x9d'
p2139
I78
sS'monthly'
p2140
I78
sS'cositas'
p2141
I78
sS'dub'
p2142
I78
sS'due'
p2143
I78
sS'me,90044\n448737290890649601,yurelimac,2014-03-26'
p2144
I78
sS'hitting'
p2145
I78
sS'damn'
p2146
I72
sS'nother'
p2147
I78
sS'tomlinson'
p2148
I78
sS'txt'
p2149
I78
sS'woke'
p2150
I70
sS'pm'
p2151
I76
sS'07:48:08.0,33.9791825,-118.2829607,2376,who'
p2152
I78
sS'resting'
p2153
I78
sS'gay'
p2154
I78
sS'buck'
p2155
I77
sS"what's"
p2156
I76
sS'transferring'
p2157
I78
sS'else'
p2158
I75
sS'awake'
p2159
I77
sS'receive'
p2160
I78
sS'wedding'
p2161
I78
sS'funk'
p2162
I78
sS'crenshaw'
p2163
I78
sS'look'
p2164
I68
sS'08:19:15.0,33.9791553,-118.2830405,2376,ma'
p2165
I78
sS'frozen'
p2166
I77
sS'straight'
p2167
I76
sS'05:37:13.0,33.9791331,-118.2830119,2376,i'
p2168
I78
sS'forgetting'
p2169
I78
sS'while'
p2170
I71
sS'replaced'
p2171
I78
sS'smart'
p2172
I78
sS'fun'
p2173
I66
sS'kevin...no'
p2174
I78
sS'paco'
p2175
I78
sS'fui'
p2176
I77
sS'styles'
p2177
I78
sS'casino'
p2178
I78
sS'hoping'
p2179
I77
sS',90044\n454143259535609856,yurelimac,2014-04-10'
p2180
I78
sS'triple'
p2181
I78
sS'ready'
p2182
I71
sS'voy'
p2183
I77
sS'though.,90044\n453084292642398208,yurelimac,2014-04-07'
p2184
I78
sS'chase'
p2185
I78
sS'funny'
p2186
I74
sS'remedio'
p2187
I78
sS'shirt'
p2188
I78
sS'anymore'
p2189
I73
sS"dude's"
p2190
I78
sS'acabo'
p2191
I78
sS'"cockiness"'
p2192
I78
sS',90044\n448741658310356992,yurelimac,2014-03-26'
p2193
I78
sS'leon('
p2194
I78
sS'9'
p2195
I78
sS'here/'
p2196
I78
sS'used'
p2197
I74
sS'bonus'
p2198
I78
sS'assignment'
p2199
I78
sS'blair'
p2200
I77
sS'yesterday'
p2201
I70
sS'alert'
p2202
I76
sS'moment'
p2203
I69
sS"808's"
p2204
I78
sS'cucumber'
p2205
I78
sS'purpose'
p2206
I77
sS'apenas'
p2207
I78
sS'remover......."i'
p2208
I78
sS'again,90044\n448739584344481793,yurelimac,2014-03-26'
p2209
I78
sS'dark'
p2210
I78
sS'beanie'
p2211
I77
sS'08:28:23.0,33.9791542,-118.2830407,2376,i'
p2212
I78
sS'anybody'
p2213
I78
sS'person'
p2214
I72
sS'flags'
p2215
I76
sS'y'
p2216
I67
sS'spend'
p2217
I76
sS'know'
p2218
I43
sS'salvi'
p2219
I78
sS'mom'
p2220
I50
sS'i\xe2\x80\x99d'
p2221
I77
sS'gnna'
p2222
I78
sS'hercules'
p2223
I77
sS'buchanas'
p2224
I77
sS'regardless'
p2225
I78
sS',90044\n452832931682066432,yurelimac,2014-04-06'
p2226
I78
sS'dishonesty'
p2227
I78
sS'meanest'
p2228
I78
sS'letting'
p2229
I77
sS'08:33:48.0,33.9791523,-118.2830409,2376,ima'
p2230
I78
sS"salvi's"
p2231
I78
sS'cut'
p2232
I76
sS'$'
p2233
I78
sS'cup'
p2234
I78
sS'surprises'
p2235
I78
sS'la.\xe2\x80\x9d'
p2236
I78
sS'inglewoooooood'
p2237
I78
sS'parents'
p2238
I77
sS'location'
p2239
I78
sS'crying'
p2240
I77
sS'homies'
p2241
I77
sS'snap'
p2242
I77
sS'lip'
p2243
I78
sS'cum'
p2244
I78
sS'excited'
p2245
I77
sS'surprised'
p2246
I75
sS'smh\xe2\x9c\x8b\xe2\x98\x9d\xef\xb8\x8f'
p2247
I78
sS'bio'
p2248
I78
sS'bills'
p2249
I78
sS'big'
p2250
I74
sS'couple'
p2251
I77
sS'bzerk'
p2252
I78
sS'game'
p2253
I74
sS'volver'
p2254
I78
sS'bit'
p2255
I77
sS'08:09:02.0,33.9792003,-118.2829957,2376,my'
p2256
I78
sS'moody'
p2257
I78
sS'd'
p2258
I77
sS'10:53:50.0,33.9791696,-118.2830273,2376,my'
p2259
I78
sS'message'
p2260
I78
sS'earings'
p2261
I78
sS'eek'
p2262
I78
sS'popular'
p2263
I78
sS'fault'
p2264
I75
sS"08:37:24.0,33.9791513,-118.2830413,2376,you're"
p2265
I78
sS'google'
p2266
I77
sS'fucking'
p2267
I57
sS'spring'
p2268
I77
sS'some'
p2269
I46
sS'back'
p2270
I57
sS'lips'
p2271
I76
sS'towards'
p2272
I78
sS'loser'
p2273
I78
sS'pale'
p2274
I78
sS'preparing'
p2275
I78
sS'louboutin'
p2276
I78
sS'shall'
p2277
I78
sS"trigga'"
p2278
I78
sS'wrong'
p2279
I78
sS'pelo'
p2280
I78
sS'06:18:48.0,33.9791454,-118.2830419,2376,sometimes'
p2281
I78
sS'pee'
p2282
I77
sS'dating'
p2283
I78
sS'nose'
p2284
I75
sS'be'
p2285
I25
sS'bf'
p2286
I78
sS'eating'
p2287
I76
sS'bb'
p2288
I78
sS'bc'
p2289
I78
sS'rub'
p2290
I78
sS's/o'
p2291
I78
sS'zombie'
p2292
I77
sS"06:21:19.0,33.9791348,-118.2830426,2376,i'm"
p2293
I78
sS'calstate'
p2294
I78
sS'santa'
p2295
I77
sS'bs'
p2296
I78
sS'crap'
p2297
I77
sS'tripping'
p2298
I75
sS'cautious'
p2299
I78
sS'gifts'
p2300
I78
sS'fosho'
p2301
I77
sS'netflix'
p2302
I78
sS'iced'
p2303
I78
sS"mcdonald's"
p2304
I78
sS'graduation'
p2305
I78
sS'awwww'
p2306
I78
sS'idk'
p2307
I65
sS'bish'
p2308
I78
sS'hahahah'
p2309
I78
sS'idc'
p2310
I78
sS'ppl'
p2311
I76
sS'seeing'
p2312
I78
sS'tilll'
p2313
I78
sS'auntie'
p2314
I78
sS'visit'
p2315
I76
sS'into'
p2316
I66
sS'within'
p2317
I78
sS',90044\n453084961231228928,yurelimac,2014-04-07'
p2318
I78
sS'momma'
p2319
I78
sS'nigga'
p2320
I59
sS'master'
p2321
I78
sS'ayyy'
p2322
I77
sS'france'
p2323
I78
sS'talkn'
p2324
I78
sS'smells'
p2325
I76
sS'"uhh'
p2326
I78
sS'chido'
p2327
I78
sS'diputado'
p2328
I78
sS'spending'
p2329
I78
sS'question'
p2330
I78
sS'ca)'
p2331
I71
sS'long'
p2332
I72
sS'chs'
p2333
I78
sS'infected'
p2334
I78
sS"we're"
p2335
I72
sS'bruh'
p2336
I77
sS'forward'
p2337
I78
sS'.2'
p2338
I78
sS'bored'
p2339
I76
sS'scared'
p2340
I75
sS'believe)'
p2341
I78
sS'himself'
p2342
I78
sS'invite'
p2343
I78
sS'ahhh'
p2344
I78
sS'pastor'
p2345
I78
sS'girlfriends'
p2346
I78
sS'boys'
p2347
I77
sS'kidding"'
p2348
I78
sS'handwritting'
p2349
I78
sS'coldest'
p2350
I77
sS'\xe2\x99\xa5'
p2351
I76
sS'posted'
p2352
I74
sS'uy'
p2353
I78
sS'real!,90044\n448738221510250496,yurelimac,2014-03-26'
p2354
I78
sS'up'
p2355
I22
sS'us'
p2356
I74
sS'stalking'
p2357
I78
sS'um'
p2358
I76
sS'un'
p2359
I75
sS'not?,90044\n452752800212992001,yurelimac,2014-04-06'
p2360
I78
sS'played'
p2361
I78
sS'faded'
p2362
I77
sS'cobarde"'
p2363
I78
sS'z'
p2364
I78
sS'called'
p2365
I75
sS'uc'
p2366
I78
sS'deliverance'
p2367
I78
sS'uber'
p2368
I78
sS'cover'
p2369
I76
sS'06:46:58.0,33.9791383,-118.2830428,2376,lakewood'
p2370
I78
sS'influence'
p2371
I77
sS'tomorrow.,90044\n453085588237742081,yurelimac,2014-04-07'
p2372
I78
sS'mothafuckin'
p2373
I78
sS'single'
p2374
I77
sS'evening'
p2375
I78
sS'jhat'
p2376
I78
sS'page?\xe2\x80\x9d'
p2377
I78
sS"md's"
p2378
I78
sS'lemon'
p2379
I77
sS'trafficking....how'
p2380
I78
sS'nah'
p2381
I71
sS'realest'
p2382
I78
sS'fears'
p2383
I78
sS'cuenta'
p2384
I77
sS'excuses'
p2385
I78
sS'nap'
p2386
I74
sS'b&w'
p2387
I78
sS'95%'
p2388
I78
sS'nice'
p2389
I77
sS'potion'
p2390
I78
sS'noche'
p2391
I77
sS'problems'
p2392
I77
sS'pretended'
p2393
I78
sS'prepared'
p2394
I78
sS'william'
p2395
I78
sS'allowing'
p2396
I78
sS'chocolate'
p2397
I78
sS'mames'
p2398
I78
sS'ago'
p2399
I78
sS'lane'
p2400
I78
sS"jose's"
p2401
I78
sS'e'
p2402
I77
sS'vice'
p2403
I78
sS'age'
p2404
I78
sS'walked'
p2405
I78
sS'omg,90044\n450142442138763264,yurelimac,2014-03-30'
p2406
I78
sS'aiko'
p2407
I78
sS'literally'
p2408
I78
sS'far'
p2409
I77
sS"she's"
p2410
I70
sS'sounded'
p2411
I77
sS'once'
p2412
I76
sS'essay'
p2413
I78
sS'katy'
p2414
I78
sS'reverenda'
p2415
I78
sS'advisory'
p2416
I78
sS'hint'
p2417
I78
sS'albondigas'
p2418
I78
sS'cynthia'
p2419
I78
sS'bonita"'
p2420
I78
sS'overly'
p2421
I78
sS'steve'
p2422
I70
sS'weatherman'
p2423
I78
sS'go'
p2424
I33
sS'gossip'
p2425
I75
sS'flashback'
p2426
I78
sS'tweeted'
p2427
I78
sS'one!,90044\n453072933489889282,yurelimac,2014-04-07'
p2428
I78
sS'cannabis'
p2429
I78
sS'j.cole'
p2430
I78
sS'young'
p2431
I73
sS'send'
p2432
I76
sS'languages'
p2433
I78
sS'celia'
p2434
I78
sS'dislike'
p2435
I78
sS'sent'
p2436
I77
sS'uploaded'
p2437
I78
sS',90044\n450880497644630016,yurelimac,2014-04-01'
p2438
I78
sS'queen'
p2439
I77
sS'outside'
p2440
I77
sS'ense\xc3\xb1a'
p2441
I78
sS'kitty'
p2442
I78
sS'agua'
p2443
I76
sS'flirted'
p2444
I78
sS'sensation'
p2445
I78
sS'putting'
p2446
I76
sS'hommmmme'
p2447
I78
sS'drinking'
p2448
I76
sS'wipe'
p2449
I78
sS'safada)'
p2450
I78
sS'roll'
p2451
I78
sS"they've"
p2452
I78
sS'try'
p2453
I74
sS'avoiding'
p2454
I78
sS'refresh'
p2455
I78
sS'ham'
p2456
I78
sS'waking'
p2457
I78
sS'jump'
p2458
I78
sS'video'
p2459
I77
sS'traveling'
p2460
I78
sS'download'
p2461
I77
sS'rivera'
p2462
I78
sS'plays'
p2463
I77
sS'power'
p2464
I77
sS'chicago'
p2465
I76
sS'giving'
p2466
I75
sS'intimate'
p2467
I78
sS'was...\xe2\x80\x9d'
p2468
I78
sS'lmfao'
p2469
I58
sS'waiting'
p2470
I75
sS'playa'
p2471
I74
sS'agradecidos'
p2472
I78
sS'"most'
p2473
I78
sS'body'
p2474
I70
sS'chose'
p2475
I78
sS'raccoons'
p2476
I78
sS'punch'
p2477
I78
sS'me.,90044\n450881918301532161,yurelimac,2014-04-01'
p2478
I78
sS'growing'
p2479
I78
sS'packing'
p2480
I77
sS'let'
p2481
I64
sS'lol,90044\n453083300626575361,yurelimac,2014-04-07'
p2482
I78
sS'jeans'
p2483
I78
sS'others'
p2484
I78
sS'luis'
p2485
I77
sS'4x7'
p2486
I78
sS'astrid'
p2487
I78
sS'irritating'
p2488
I78
sS'bakersfield'
p2489
I78
sS'great'
p2490
I72
sS'metro'
p2491
I78
sS'awing'
p2492
I78
sS'19:35:59.0,33.9791986,-118.2828569,2376,the'
p2493
I78
sS'30'
p2494
I77
sS'shades'
p2495
I77
sS'survey'
p2496
I78
sS'opinion'
p2497
I78
sS'cosa.\xe2\x80\x9d'
p2498
I78
sS'makes'
p2499
I70
sS'thats'
p2500
I77
sS'control'
p2501
I78
sS'apple'
p2502
I77
sS'08:13:07.0,33.9791655,-118.2829923,2376,prefierro'
p2503
I78
sS'emelyyyy'
p2504
I78
sS'app'
p2505
I77
sS'dedicated'
p2506
I78
sS'wit'
p2507
I78
sS'lmfao,90044\n450881143735209984,yurelimac,2014-04-01'
p2508
I78
sS'singing'
p2509
I75
sS'hoochie'
p2510
I78
sS'lime'
p2511
I78
sS'use'
p2512
I78
sS'from'
p2513
I52
sS'snoop'
p2514
I78
sS'&'
p2515
I37
sS'cray'
p2516
I77
sS'next'
p2517
I64
sS'few'
p2518
I76
sS'camera'
p2519
I78
sS'chu'
p2520
I78
sS'08:24:03.0,33.9791435,-118.2830152,2376,gettin'
p2521
I78
sS'themselves'
p2522
I76
sS'lol,90044\n453085403210186752,yurelimac,2014-04-07'
p2523
I78
sS'pencil'
p2524
I78
sS'popped'
p2525
I78
sS'babe'
p2526
I76
sS'bailando'
p2527
I78
sS'"nah'
p2528
I78
sS'started'
p2529
I76
sS'becomes'
p2530
I78
sS'impress'
p2531
I78
sS'about'
p2532
I38
sS'confused'
p2533
I77
sS'!\xe2\x80\x9d'
p2534
I78
sS'deserve'
p2535
I75
sS'baby'
p2536
I67
sS'central'
p2537
I45
sS'women'
p2538
I78
sS'balls'
p2539
I78
sS'animals'
p2540
I78
sS'this'
p2541
I26
sS'ride'
p2542
I74
sS'tease'
p2543
I78
sS'packed\xe2\x80\x9d'
p2544
I78
sS'mommas'
p2545
I77
sS'donut'
p2546
I78
sS'it,90003\n502459761468899328,mistah_finner,2014-08-21'
p2547
I78
sS'unreal'
p2548
I78
sS'thin'
p2549
I78
sS'dead,90044\n448738028396097536,yurelimac,2014-03-26'
p2550
I78
sS'meet'
p2551
I76
sS'closing'
p2552
I78
sS'didnt'
p2553
I77
sS'sabe'
p2554
I78
sS'07:28:37.0,33.9791776,-118.2830135,2376,the'
p2555
I78
sS'loca'
p2556
I78
sS'patron'
p2557
I78
sS'08:18:23.0,33.9791915,-118.2830279,2376,they'
p2558
I78
sS'halloween'
p2559
I78
sS'high'
p2560
I68
sS'villain'
p2561
I78
sS'pulling'
p2562
I78
sS'something'
p2563
I68
sS'tac'
p2564
I78
sS'triangle'
p2565
I78
sS'tan'
p2566
I77
sS'csun'
p2567
I70
sS'yureli'
p2568
I78
sS'dominant'
p2569
I78
sS'sir'
p2570
I78
sS'mannnnn'
p2571
I78
sS'monday\xe2\x80\x9d'
p2572
I78
sS'sit'
p2573
I78
sS'vibe'
p2574
I76
sS'anymore:('
p2575
I78
sS'six'
p2576
I76
sS'brian'
p2577
I78
sS'pair'
p2578
I78
sS'instead'
p2579
I78
sS'sin'
p2580
I78
sS'niall'
p2581
I78
sS'monica'
p2582
I78
sS'stop'
p2583
I62
sS'waters'
p2584
I78
sS'wrist'
p2585
I78
sS'arrolladora'
p2586
I78
sS'racks'
p2587
I76
sS'light'
p2588
I76
sS'"be'
p2589
I78
sS'noises'
p2590
I78
sS'tos'
p2591
I78
sS'honestly'
p2592
I77
sS'nancy'
p2593
I78
sS'classy'
p2594
I78
sS'fastest'
p2595
I78
sS'ummmmm'
p2596
I78
sS'cielos'
p2597
I78
sS'move'
p2598
I75
sS'dearest'
p2599
I78
sS"won't"
p2600
I75
sS'looks'
p2601
I74
sS'making"'
p2602
I78
sS'perfect'
p2603
I75
sS'lounge'
p2604
I78
sS'rt>'
p2605
I78
sS'asf"'
p2606
I78
sS'la'
p2607
I61
sS'lo'
p2608
I76
sS'winning'
p2609
I78
sS'madre'
p2610
I78
sS'choose'
p2611
I78
sS'orange'
p2612
I78
sS'2017'
p2613
I78
sS'<'
p2614
I77
sS'2013'
p2615
I78
sS'stepped'
p2616
I78
sS'dad'
p2617
I77
sS'tears'
p2618
I78
sS'10:26:10.0,33.97915,-118.2830233,2376,i'
p2619
I78
sS'nada'
p2620
I77
sS'fiesta'
p2621
I77
sS'camino'
p2622
I78
sS'blessed'
p2623
I77
sS'dat'
p2624
I78
sS'mention'
p2625
I78
sS"03:55:55.0,33.9791269,-118.2829872,2376,that's"
p2626
I78
sS'snake'
p2627
I78
sS'kiss'
p2628
I76
sS'hands'
p2629
I75
sS'front'
p2630
I73
sS'seas'
p2631
I78
sS'day'
p2632
I64
sS'5everrrrrr'
p2633
I78
sS'tran'
p2634
I78
sS'unpredictable'
p2635
I78
sS'weather'
p2636
I78
sS'though.,90044\n450706039868895232,yurelimac,2014-03-31'
p2637
I78
sS'07:29:41.0,33.9791433,-118.283031,2376,i'
p2638
I78
sS'todavia'
p2639
I78
sS'03:55:28.0,33.9791269,-118.2829872,2376,people'
p2640
I78
sS'cl\xc3\xa1sico'
p2641
I78
sS"ya'll"
p2642
I78
sS'|'
p2643
I73
sS'experienced'
p2644
I78
sS'glasses'
p2645
I76
sS'ankles'
p2646
I78
sS'doing'
p2647
I68
sS'llegar\xc3\xa1'
p2648
I78
sS'heated'
p2649
I78
sS'mas'
p2650
I78
sS'snoozed'
p2651
I78
sS'our'
p2652
I76
sS'81'
p2653
I78
sS'marley'
p2654
I78
sS'youu'
p2655
I78
sS'popping'
p2656
I77
sS'out'
p2657
I40
sS'respects'
p2658
I78
sS'rey'
p2659
I78
sS'10:20:53.0,33.9791754,-118.2830457,2376,fuck'
p2660
I78
sS'cuenta.,90044\n453076746938507264,yurelimac,2014-04-07'
p2661
I78
sS'tuyo'
p2662
I78
sS'time)'
p2663
I78
sS'fran'
p2664
I78
sS'cause'
p2665
I66
sS'math'
p2666
I75
sS"one's"
p2667
I78
sS'afford'
p2668
I78
sS'shut'
p2669
I75
sS'god-daughter'
p2670
I78
sS'rujiste'
p2671
I78
sS'difference\xe2\x80\x9d'
p2672
I78
sS'"job"'
p2673
I78
sS'please'
p2674
I78
sS'que'
p2675
I60
sS'you!"'
p2676
I78
sS'craving'
p2677
I76
sS'scary'
p2678
I78
sS'g'
p2679
I77
sS'snapchats'
p2680
I78
sS'could'
p2681
I70
sS'hes'
p2682
I78
sS'keep'
p2683
I67
sS"steve's"
p2684
I78
sS'hahaayeeeeeeee'
p2685
I78
sS'lok'
p2686
I78
sS'15:47:57.0,33.9791488,-118.2830414,2376,flashbacks'
p2687
I78
sS'south'
p2688
I43
sS'with.me'
p2689
I78
sS'decide.,90044\n450883520508858368,yurelimac,2014-04-01'
p2690
I78
sS'ihy'
p2691
I78
sS'advisor'
p2692
I78
sS'jesus'
p2693
I78
sS'embarrassed'
p2694
I78
sS'hahahaha'
p2695
I78
sS'bitch'
p2696
I57
sS'08:42:03.0,33.979151,-118.2830444,2376,ohhhh'
p2697
I78
sS'braces'
p2698
I76
sS"doesn't"
p2699
I76
sS'kitkats<3'
p2700
I78
sS'los'
p2701
I42
sS'73929378'
p2702
I78
sS'chased'
p2703
I78
sS'system'
p2704
I77
sS'grow'
p2705
I77
sS'their'
p2706
I71
sS'vagina'
p2707
I78
sS'corona'
p2708
I78
sS'brother<3'
p2709
I78
sS'final'
p2710
I78
sS'painful'
p2711
I77
sS'negra'
p2712
I77
sS'2-3'
p2713
I78
sS'stomach'
p2714
I75
sS'nobody'
p2715
I76
sS'depressing'
p2716
I78
sS'\xd9\x84\xd9\x8a'
p2717
I78
sS"that'll"
p2718
I78
sS'omen'
p2719
I78
sS'lovee'
p2720
I78
sS'mall"nah'
p2721
I78
sS'bienen'
p2722
I78
sS'kathya'
p2723
I78
sS'wet'
p2724
I78
sS'lion'
p2725
I78
sS'lol,90044\n454141427908227072,yurelimac,2014-04-10'
p2726
I78
sS'cravings'
p2727
I77
sS'loves'
p2728
I75
sS'country'
p2729
I78
sS'steep'
p2730
I78
sS'bet'
p2731
I76
sS'consejo'
p2732
I78
sS'create'
p2733
I78
sS'broadway'
p2734
I78
sS'wakes'
p2735
I78
sS'bisexual'
p2736
I78
sS'deodorant'
p2737
I78
sS'spelled'
p2738
I78
sS'comfortable'
p2739
I77
sS'tonight'
p2740
I70
sS'comfortably'
p2741
I78
sS'defending'
p2742
I78
sS'have'
p2743
I31
sS'disturbing'
p2744
I78
sS'need'
p2745
I43
sS'min'
p2746
I78
sS'mia'
p2747
I78
sS'agency'
p2748
I78
sS'able'
p2749
I77
sS'parks'
p2750
I78
sS'cuatro'
p2751
I77
sS'unpacking'
p2752
I78
sS'valgooooooo'
p2753
I78
sS'which'
p2754
I78
sS'bus'
p2755
I78
sS'(about'
p2756
I78
sS'mis'
p2757
I78
sS'toooooooo'
p2758
I78
sS'unless'
p2759
I78
sS'aww'
p2760
I77
sS'who'
p2761
I60
sS'"awwe!"'
p2762
I78
sS'greased'
p2763
I78
sS'lmaooo'
p2764
I78
sS"where's"
p2765
I76
sS'intentions'
p2766
I78
sS'awk'
p2767
I78
sS'forreal'
p2768
I78
sS'cracking'
p2769
I78
sS'awh'
p2770
I78
sS'why'
p2771
I45
sS'niggga'
p2772
I78
sS'thanksgiving'
p2773
I78
sS'fafsa'
p2774
I78
sS'face'
p2775
I72
sS'looked'
p2776
I76
sS"you'll"
p2777
I74
sS'strawberries'
p2778
I78
sS'talk'
p2779
I75
sS'movie'
p2780
I71
sS'indo'
p2781
I78
sS'aggresive'
p2782
I78
sS'fact'
p2783
I75
sS'either.,90044\n453071629753397249,yurelimac,2014-04-07'
p2784
I78
sS'text'
p2785
I74
sS'sippin"'
p2786
I78
sS'"ilysm"'
p2787
I78
sS'vajays'
p2788
I78
sS'anyway'
p2789
I76
sS'connect'
p2790
I78
sS'bring'
p2791
I78
sS'guey'
p2792
I78
sS'planning'
p2793
I77
sS'manchester'
p2794
I78
sS'bedroom'
p2795
I78
sS'slippin'
p2796
I78
sS'08:36:28.0,33.9791799,-118.2829617,2376,she'
p2797
I78
sS'rough'
p2798
I78
sS'setter'
p2799
I78
sS'ayee'
p2800
I77
sS'squeeze'
p2801
I78
sS'('
p2802
I76
sS'baddie'
p2803
I78
sS'better.,90044\n454141011300605952,yurelimac,2014-04-10'
p2804
I78
sS'should'
p2805
I69
sS'paisa'
p2806
I78
sS"anyone's"
p2807
I78
sS'love/hate'
p2808
I78
sS'echar'
p2809
I78
sS'handsome'
p2810
I78
sS'hangover'
p2811
I78
sS'hope'
p2812
I70
sS'meant'
p2813
I76
sS'handle'
p2814
I77
sS'listened'
p2815
I78
sS'watching'
p2816
I72
sS'beat'
p2817
I76
sS'crema'
p2818
I78
sS'overall'
p2819
I78
sS'lucky'
p2820
I77
sS'tbh'
p2821
I74
sS'awww'
p2822
I77
sS'ones'
p2823
I78
sS'tierra'
p2824
I78
sS'words'
p2825
I78
sS'striped'
p2826
I78
sS'nvmquestion'
p2827
I78
sS'ghetto'
p2828
I77
sS'anything"'
p2829
I78
sS'lalo'
p2830
I78
sS'to.\xe2\x80\x9d'
p2831
I78
sS'trucks'
p2832
I78
sS'ended'
p2833
I78
sS'gertz'
p2834
I78
sS'married'
p2835
I78
sS'eyebrow'
p2836
I78
sS'calling'
p2837
I78
sS'stuff'
p2838
I78
sS'she'
p2839
I45
sS'gran'
p2840
I78
sS'shh'
p2841
I78
sS'including'
p2842
I78
sS'grab'
p2843
I78
sS'watchin'
p2844
I78
sS"laura's"
p2845
I78
sS'it.,90044\n448739721997328385,yurelimac,2014-03-26'
p2846
I78
sS'view'
p2847
I78
sS'toe'
p2848
I78
sS'respect'
p2849
I78
sS'we'
p2850
I57
sS'jelouse'
p2851
I78
sS'buzzed'
p2852
I78
sS'again......&'
p2853
I78
sS'lace'
p2854
I78
sS'phases'
p2855
I78
sS'jurassic'
p2856
I78
sS'gallegos'
p2857
I78
sS'tend'
p2858
I78
sS'favor'
p2859
I78
sS'state'
p2860
I77
sS'closed'
p2861
I77
sS'horrible'
p2862
I77
sS'peeking'
p2863
I78
sS'cruda'
p2864
I78
sS'steve<3'
p2865
I78
sS'bought'
p2866
I76
sS'ken'
p2867
I78
sS'janet'
p2868
I78
sS'bridges'
p2869
I78
sS'a.m'
p2870
I78
sS'weren\xe2\x80\x99t'
p2871
I78
sS'job'
p2872
I67
sS'le'
p2873
I78
sS'precious'
p2874
I78
sS'thumb'
p2875
I78
sS'hits'
p2876
I78
sS'drum'
p2877
I78
sS'wiggle'
p2878
I78
sS'joke'
p2879
I77
sS'taking'
p2880
I74
sS'drug'
p2881
I78
sS'etc'
p2882
I78
sS'atleast'
p2883
I78
sS'thang'
p2884
I78
sS'wear'
p2885
I74
sS'vent'
p2886
I78
sS"can't.,90044\n452761092293279744,yurelimac,2014-04-06"
p2887
I78
sS'wall'
p2888
I76
sS'tuesday'
p2889
I78
sS'cortate'
p2890
I78
sS'leo'
p2891
I78
sS'walk'
p2892
I77
sS"lol!!'"
p2893
I78
sS'oidos'
p2894
I78
sS'laugh'
p2895
I77
sS'news'
p2896
I78
sS'okaaay'
p2897
I78
sS'[pic]'
p2898
I78
sS'tiene'
p2899
I78
sS'quit'
p2900
I76
sS'yay'
p2901
I75
sS'nigga,90044\n448735879440257024,yurelimac,2014-03-26'
p2902
I78
sS"it's"
p2903
I36
sS'05:19:51.0,33.9791163,-118.2830681,2376,this'
p2904
I78
sS'hechesita'
p2905
I78
sS'drank'
p2906
I78
sS'treat'
p2907
I78
sS'"i\'m'
p2908
I77
sS'scared,90044\n452753992079003648,yurelimac,2014-04-06'
p2909
I78
sS'"idk'
p2910
I78
sS'mothafucka'
p2911
I77
sS'killed'
p2912
I78
sS'>'
p2913
I77
sS'general'
p2914
I78
sS'wanna'
p2915
I51
sS'me.,90044\n454426780372197376,yurelimac,2014-04-11'
p2916
I78
sS'hmu'
p2917
I76
sS'unapologetic'
p2918
I78
sS'policy'
p2919
I78
sS'finished'
p2920
I77
sS'limearita'
p2921
I78
sS'pistiar'
p2922
I78
sS'smoking'
p2923
I66
sS'lol,90044\n448738717037887488,yurelimac,2014-03-26'
p2924
I78
sS'fellow'
p2925
I78
sS'eyelashes'
p2926
I78
sS'as'
p2927
I63
sS'\xe2\x9d\x87'
p2928
I78
sS'will'
p2929
I55
sS'rbi'
p2930
I78
sS'hahaha'
p2931
I76
sS'off,90044\n450139952278294528,yurelimac,2014-03-30'
p2932
I78
sS"ya'"
p2933
I78
sS"nobody's"
p2934
I78
sS'sackers'
p2935
I78
sS'present!"'
p2936
I78
sS'burping'
p2937
I78
sS've'
p2938
I78
sS'almost'
p2939
I76
sS'evelyn'
p2940
I78
sS'thus'
p2941
I78
sS'helped'
p2942
I78
sS'girlfriend'
p2943
I78
sS'vs'
p2944
I78
sS'malls'
p2945
I78
sS'thug'
p2946
I78
sS'tattoo'
p2947
I76
sS')'
p2948
I78
sS'juan'
p2949
I78
sS'vamonossssssss'
p2950
I78
sS'funniest'
p2951
I78
sS'campus'
p2952
I75
sS'trippin?,90044\n450144825703014400,yurelimac,2014-03-30'
p2953
I78
sS'jaw'
p2954
I78
sS'at?\xe2\x80\x9d'
p2955
I78
sS'party'
p2956
I74
sS'gets'
p2957
I74
sS'dan'
p2958
I78
sS'ball'
p2959
I77
sS'toooo'
p2960
I78
sS'drink'
p2961
I73
sS'effect'
p2962
I78
sS'tambien'
p2963
I78
sS'beast'
p2964
I78
sS'ion'
p2965
I78
sS'fucken'
p2966
I77
sS'sopa'
p2967
I78
sS'proms'
p2968
I78
sS'student'
p2969
I78
sS'fucked'
p2970
I73
sS'sunburn'
p2971
I78
sS'l.a'
p2972
I76
sS'drogadicta'
p2973
I78
sS'jello'
p2974
I78
sS'off'
p2975
I63
sS'surfboard'
p2976
I78
sS'lunch'
p2977
I78
sS'i'
p2978
I1
sS'well'
p2979
I69
sS'welp'
p2980
I77
sS'rn,90044\n450752012561289216,yurelimac,2014-03-31'
p2981
I78
sS'english'
p2982
I75
sS'burgos'
p2983
I78
sS'going"'
p2984
I78
sS'less'
p2985
I76
sS'biological'
p2986
I78
sS'tomorrow,90044\n448739494712184832,yurelimac,2014-03-26'
p2987
I78
sS"should've"
p2988
I76
sS'gritar'
p2989
I78
sS'mistakes'
p2990
I78
sS'fishing'
p2991
I78
sS'paul'
p2992
I78
sS'graduate'
p2993
I78
sS'happiness'
p2994
I78
sS'schleep'
p2995
I78
sS'quiero'
p2996
I75
sS'snicker'
p2997
I78
sS'vida'
p2998
I78
sS'drunk'
p2999
I74
sS'turnt'
p3000
I78
sS'rancheras'
p3001
I78
sS'realize'
p3002
I77
sS'add'
p3003
I78
sS'other'
p3004
I73
sS"killing.i'm"
p3005
I78
sS'fuck!,90044\n500112074262192131,mistah_finner,2014-08-15'
p3006
I78
sS'smh,90044\n453084488516374528,yurelimac,2014-04-07'
p3007
I78
sS'crack'
p3008
I78
sS'cheeries'
p3009
I78
sS'twerk'
p3010
I78
sS'kick'
p3011
I78
sS'banquet'
p3012
I78
sS'south\xe2\x80\xa6'
p3013
I77
sS'checking'
p3014
I78
sS"who's"
p3015
I77
sS'cruz'
p3016
I78
sS'royalty'
p3017
I78
sS'08:38:53.0,33.9791513,-118.2830415,2376,all'
p3018
I78
sS'whatever'
p3019
I75
sS'facial'
p3020
I78
sS'belgium'
p3021
I78
sS'nvm'
p3022
I78
sS'bailar'
p3023
I78
sS'showing'
p3024
I78
sS'like'
p3025
I19
sS'success'
p3026
I77
sS'eric'
p3027
I77
sS'ring'
p3028
I78
sS'fernando'
p3029
I78
sS'candy'
p3030
I78
sS'sized'
p3031
I78
sS'sissy'
p3032
I78
sS'desmadre'
p3033
I78
sS'lose'
p3034
I78
sS'osea'
p3035
I76
sS'become'
p3036
I78
sS'starred'
p3037
I78
sS'works'
p3038
I78
sS'fuckkk'
p3039
I78
sS'sign'
p3040
I78
sS'verduzcos'
p3041
I78
sS'because'
p3042
I72
sS'man...like'
p3043
I78
sS"amber's"
p3044
I78
sS'twitter'
p3045
I69
sS'library'
p3046
I78
sS'hair'
p3047
I72
sS'07:47:05.0,33.9792033,-118.2829989,2376,i'
p3048
I78
sS',90044\n453072103122563072,yurelimac,2014-04-07'
p3049
I78
sS'home'
p3050
I72
sS"school's"
p3051
I78
sS'find.\xe2\x80\x9d'
p3052
I78
sS'"what'
p3053
I77
sS'pues'
p3054
I77
sS'avoid'
p3055
I78
sS'ddks'
p3056
I78
sS'ralo'
p3057
I78
sS'ese'
p3058
I78
sS'does'
p3059
I73
sS'eso'
p3060
I77
sS'louboutins'
p3061
I78
sS'miras'
p3062
I78
sS'slower'
p3063
I78
sS'puedo'
p3064
I78
sS'accident'
p3065
I78
sS'bobbypins'
p3066
I78
sS'pressure'
p3067
I78
sS'although'
p3068
I78
sS'stage'
p3069
I78
sS'inconsiderate'
p3070
I78
sS'sister'
p3071
I75
sS':-)'
p3072
I77
sS'justin'
p3073
I78
sS'getting'
p3074
I67
sS'freedom'
p3075
I78
sS'headed'
p3076
I78
sS'lmfao,90044\n448340674912350208,yurelimac,2014-03-25'
p3077
I78
sS'angeles'
p3078
I41
sS'jhene'
p3079
I78
sS'carries'
p3080
I78
sS'swear'
p3081
I73
sS'socked'
p3082
I78
sS'documentary'
p3083
I78
sS'karla'
p3084
I78
sS'antrax'
p3085
I78
sS'swimming'
p3086
I77
sS'own'
p3087
I75
sS'kinda'
p3088
I76
sS'pussy'
p3089
I74
sS'included'
p3090
I78
sS'doesnt'
p3091
I77
sS'promise'
p3092
I78
sS'esteem'
p3093
I78
sS'female'
p3094
I77
sS'conjunto'
p3095
I78
sS'van'
p3096
I77
sS'*'
p3097
I78
sS'kidding'
p3098
I78
sS'exchanging'
p3099
I78
sS'smh,90044\n450881019990654977,yurelimac,2014-04-01'
p3100
I78
sS'eah'
p3101
I76
sS'buy'
p3102
I71
sS"i've"
p3103
I57
sS'!i'
p3104
I78
sS'hs'
p3105
I76
sS'coke'
p3106
I78
sS'bitches'
p3107
I71
sS'hw'
p3108
I77
sS'but'
p3109
I20
sS'blaming'
p3110
I78
sS'volume'
p3111
I78
sS'hi'
p3112
I77
sS'technician'
p3113
I78
sS'ha'
p3114
I78
sS'eat'
p3115
I76
sS'horchataaaa'
p3116
I78
sS'he'
p3117
I43
sS'baptist'
p3118
I78
sS'made'
p3119
I71
sS'glory'
p3120
I78
sS'wish'
p3121
I69
sS'godi'
p3122
I78
sS'stories'
p3123
I78
sS'yuka'
p3124
I78
sS'faggot'
p3125
I78
sS'piece'
p3126
I77
sS'minutes'
p3127
I78
sS'chip'
p3128
I78
sS'whateva'
p3129
I78
sS'wifi'
p3130
I78
sS'replying'
p3131
I77
sS'"coras"'
p3132
I78
sS'apesar'
p3133
I78
sS'though?:('
p3134
I78
sS'lowkey,90044\n448735920011739136,yurelimac,2014-03-26'
p3135
I78
sS'se\xc3\xb1or'
p3136
I78
sS'kkkilla'
p3137
I78
sS'mejor'
p3138
I77
sS'pit'
p3139
I78
sS'ew'
p3140
I77
sS'balcony'
p3141
I78
sS'compared'
p3142
I78
sS'pedante'
p3143
I78
sS'dressed'
p3144
I77
sS'lately'
p3145
I78
sS'book'
p3146
I76
sS'amusement'
p3147
I78
sS'sick'
p3148
I70
sS'7/11'
p3149
I78
sS'relive'
p3150
I78
sS'talkin'
p3151
I78
sS'~'
p3152
I78
sS'junk'
p3153
I78
sS'francisco'
p3154
I78
sS'monday'
p3155
I75
sS'05:18:22.0,33.9791596,-118.2830274,2376,fuck'
p3156
I78
sS'class'
p3157
I74
sS'stay'
p3158
I72
sS'chance'
p3159
I78
sS'gatsby'
p3160
I77
sS'gap'
p3161
I78
sS'friends'
p3162
I59
sS'rn.,90044\n450140327437807616,yurelimac,2014-03-30'
p3163
I78
sS'in"'
p3164
I78
sS'using'
p3165
I78
sS'lasted'
p3166
I78
sS'gardena'
p3167
I78
sS'hercules!\xe2\x80\x9d'
p3168
I78
sS'99.9%'
p3169
I78
sS'compete'
p3170
I78
sS'understand'
p3171
I76
sS'yell'
p3172
I78
sS'"the'
p3173
I78
sS'baked'
p3174
I78
s.