(dp0
S''
p1
I1
sS'all'
p2
I21
sS'coach'
p3
I32
sS':('
p4
I32
sS'whoever'
p5
I32
sS'dance'
p6
I32
sS'jovana'
p7
I32
sS'edm'
p8
I30
sS'grateful'
p9
I32
sS'overdose'
p10
I31
sS'cameron'
p11
I31
sS'hate'
p12
I31
sS'children'
p13
I32
sS'suicide'
p14
I32
sS'ty'
p15
I32
sS'tv'
p16
I32
sS'tweet'
p17
I32
sS'young'
p18
I32
sS'to'
p19
I3
sS'finally'
p20
I32
sS'tf'
p21
I31
sS'bums'
p22
I32
sS"a's"
p23
I32
sS'worth'
p24
I31
sS'icing'
p25
I32
sS'3am'
p26
I32
sS'song'
p27
I30
sS':d'
p28
I32
sS'*sigh'
p29
I32
sS'mph'
p30
I32
sS'tacos'
p31
I32
sS'wishes'
p32
I32
sS'every'
p33
I31
sS'decide'
p34
I32
sS'telling'
p35
I32
sS'month'
p36
I32
sS':p'
p37
I32
sS'cool'
p38
I32
sS'school'
p39
I32
sS'excruciating'
p40
I32
sS'did'
p41
I27
sS'die'
p42
I31
sS'marry'
p43
I32
sS'brother'
p44
I32
sS'try'
p45
I32
sS'incahoots'
p46
I32
sS'team'
p47
I31
sS"yesterday's"
p48
I32
sS'guy'
p49
I28
sS'heading'
p50
I31
sS'yall'
p51
I32
sS"i'll"
p52
I28
sS'talked'
p53
I32
sS'tired'
p54
I32
sS'phones'
p55
I32
sS'me)'
p56
I32
sS'boots'
p57
I32
sS'waking'
p58
I32
sS'go'
p59
I32
sS'second'
p60
I32
sS'street'
p61
I32
sS'video'
p62
I32
sS'n'
p63
I31
sS'even'
p64
I30
sS'what'
p65
I19
sS'stands'
p66
I32
sS'giving'
p67
I32
sS'lmfao'
p68
I32
sS'tears'
p69
I32
sS'new'
p70
I32
sS'falling'
p71
I32
sS'ever'
p72
I31
sS'bird'
p73
I32
sS'everybody'
p74
I32
sS'told'
p75
I31
sS'body'
p76
I32
sS'full'
p77
I31
sS'leg'
p78
I32
sS'never'
p79
I27
sS'here'
p80
I30
sS'hours'
p81
I29
sS'\xe2\x9d\xa4\xef\xb8\x8f'
p82
I30
sS'packing'
p83
I32
sS'chassis'
p84
I32
sS'let'
p85
I30
sS'meet'
p86
I31
sS'l28'
p87
I32
sS'100'
p88
I32
sS'teacher'
p89
I32
sS'change'
p90
I31
sS'wait'
p91
I30
sS'boy'
p92
I32
sS'kids'
p93
I30
sS'lazy'
p94
I32
sS'shift'
p95
I32
sS'study'
p96
I32
sS'leaving'
p97
I32
sS"i'd"
p98
I32
sS'exams'
p99
I32
sS'usually'
p100
I32
sS"i'm"
p101
I10
sS'makes'
p102
I31
sS'thats'
p103
I32
sS'via'
p104
I32
sS'love'
p105
I22
sS'family'
p106
I32
sS'win'
p107
I32
sS'prefer'
p108
I32
sS'semester'
p109
I32
sS'ache'
p110
I32
sS'yourself'
p111
I32
sS'use'
p112
I32
sS'from'
p113
I28
sS'would'
p114
I31
sS'&'
p115
I29
sS'aye'
p116
I32
sS'hospital'
p117
I32
sS'dude'
p118
I30
sS'two'
p119
I29
sS'next'
p120
I27
sS'few'
p121
I31
sS'doubt'
p122
I32
sS'music'
p123
I31
sS'themselves'
p124
I32
sS'25th'
p125
I32
sS'tell'
p126
I31
sS'today'
p127
I30
sS'more'
p128
I31
sS'planing'
p129
I32
sS'babe'
p130
I32
sS'knows'
p131
I32
sS'\xee\x90\x8d\xee\x84\x93'
p132
I32
sS'started'
p133
I32
sS'playlistthe'
p134
I32
sS'haha'
p135
I31
sS'sister'
p136
I32
sS'hurt'
p137
I30
sS'phone'
p138
I32
sS'landed'
p139
I32
sS'train'
p140
I32
sS"ain't"
p141
I31
sS'basically'
p142
I32
sS'baby'
p143
I30
sS'hurry'
p144
I32
sS'me'
p145
I9
sS'none'
p146
I32
sS'this'
p147
I17
sS'tb'
p148
I32
sS'getting'
p149
I31
sS'installing'
p150
I32
sS'prompts'
p151
I32
sS'sudden'
p152
I32
sS'can'
p153
I25
sS'cam'
p154
I30
sS'learn'
p155
I32
sS'making'
p156
I31
sS'drops'
p157
I32
sS'my'
p158
I7
sS'control'
p159
I32
sS'crazy'
p160
I31
sS'processing'
p161
I32
sS'give'
p162
I32
sS'awesome'
p163
I31
sS"didn't"
p164
I31
sS'fuck'
p165
I32
sS'heartless'
p166
I32
sS'high'
p167
I32
sS'something'
p168
I31
sS'want'
p169
I23
sS'offense'
p170
I32
sS'hhn'
p171
I32
sS'bootcamp'
p172
I31
sS'motion'
p173
I32
sS'yelled'
p174
I32
sS'winter'
p175
I32
sS'sit'
p176
I32
sS'rather'
p177
I32
sS'perks'
p178
I32
sS'shart'
p179
I32
sS'write'
p180
I32
sS'how'
p181
I29
sS'amazing'
p182
I31
sS'beach'
p183
I32
sS"doesn't"
p184
I32
sS'stand'
p185
I32
sS'sis'
p186
I32
sS'snaps'
p187
I32
sS'gtfo'
p188
I32
sS'rude'
p189
I32
sS'rallys'
p190
I32
sS'bday'
p191
I32
sS'freezing'
p192
I32
sS'after'
p193
I31
sS'vicious'
p194
I32
sS'bothered'
p195
I32
sS'fb'
p196
I32
sS'birthday'
p197
I29
sS'lax'
p198
I32
sS'taco'
p199
I32
sS'man'
p200
I30
sS'a'
p201
I6
sS'classics'
p202
I32
sS'youif'
p203
I32
sS"that'd"
p204
I32
sS'maybe'
p205
I31
sS'fibers'
p206
I32
sS'airport..\xe2\x80\x9d'
p207
I32
sS'anytime'
p208
I32
sS'allison'
p209
I32
sS'secs'
p210
I32
sS'so'
p211
I20
sS'dream'
p212
I32
sS'playing'
p213
I32
sS'talk'
p214
I29
sS"that's"
p215
I30
sS'cute'
p216
I31
sS'office'
p217
I31
sS"don't"
p218
I22
sS'over'
p219
I30
sS'move'
p220
I32
sS'soon'
p221
I32
sS'migos'
p222
I32
sS'years'
p223
I32
sS'hiring'
p224
I32
sS"won't"
p225
I32
sS'foreal'
p226
I32
sS'hell'
p227
I31
sS'still'
p228
I30
sS'its'
p229
I32
sS'before'
p230
I32
sS'ima'
p231
I32
sS'style'
p232
I32
sS'thank'
p233
I32
sS'la'
p234
I31
sS'dolla'
p235
I32
sS'actually'
p236
I31
sS'better'
p237
I30
sS'resort'
p238
I32
sS'tweets'
p239
I32
sS'weeks'
p240
I31
sS'bye'
p241
I32
sS'dad'
p242
I32
sS'then'
p243
I32
sS'them'
p244
I32
sS'good'
p245
I28
sS'holy'
p246
I32
sS'yo'
p247
I32
sS'food'
p248
I32
sS'workout'
p249
I29
sS'ye'
p250
I32
sS'cryinnnng'
p251
I32
sS'9'
p252
I32
sS'bang'
p253
I32
sS'taliban'
p254
I32
sS'they'
p255
I26
sS'ambition'
p256
I31
sS'not'
p257
I22
sS'ahah'
p258
I32
sS'now'
p259
I26
sS'day'
p260
I23
sS'bigger'
p261
I32
sS'bryan'
p262
I30
sS'name'
p263
I31
sS'always'
p264
I32
sS'filling'
p265
I32
sS'truth'
p266
I32
sS'toke'
p267
I32
sS"6'4"
p268
I32
sS'found'
p269
I32
sS'funny'
p270
I32
sS'side'
p271
I32
sS"isn't"
p272
I31
sS"6'3"
p273
I32
sS'en'
p274
I32
sS'weeknd'
p275
I31
sS'doing'
p276
I32
sS'hard'
p277
I30
sS'yeah'
p278
I32
sS'expect'
p279
I32
sS'year'
p280
I30
sS'okay'
p281
I32
sS'girl'
p282
I32
sS'really'
p283
I28
sS'rt'
p284
I32
sS'females'
p285
I32
sS'open'
p286
I30
sS'since'
p287
I31
sS'weeknds'
p288
I32
sS'looking'
p289
I31
sS'edclv14'
p290
I32
sS'seriously'
p291
I31
sS'stupid'
p292
I32
sS"shouldn't"
p293
I32
sS'7'
p294
I31
sS'got'
p295
I28
sS'rn'
p296
I31
sS"emely's"
p297
I32
sS'cause'
p298
I32
sS'ass'
p299
I29
sS'grease'
p300
I32
sS'cutest'
p301
I32
sS'city'
p302
I31
sS'ipod'
p303
I32
sS'reason'
p304
I32
sS'que'
p305
I32
sS'asf'
p306
I32
sS'care'
p307
I30
sS'mvp'
p308
I32
sS'scary'
p309
I32
sS'yup'
p310
I32
sS'could'
p311
I31
sS'days'
p312
I30
sS'times'
p313
I32
sS"lookin'"
p314
I32
sS'turn'
p315
I32
sS'american'
p316
I32
sS'place'
p317
I32
sS'w'
p318
I32
sS'yuur'
p319
I32
sS'think'
p320
I28
sS'first'
p321
I31
sS'enjoy'
p322
I30
sS'already'
p323
I31
sS'xo'
p324
I32
sS'feel'
p325
I31
sS'recruiting'
p326
I32
sS'coming'
p327
I32
sS'one'
p328
I25
sS'feet'
p329
I32
sS'jealous'
p330
I32
sS'bitch'
p331
I26
sS'chingas'
p332
I32
sS'miss'
p333
I31
sS'tomorrow'
p334
I32
sS"'bout"
p335
I32
sS"you're"
p336
I31
sS'guess'
p337
I31
sS'district'
p338
I32
sS'helmet....sounds'
p339
I32
sS'a$ap'
p340
I32
sS'girls'
p341
I28
sS'least'
p342
I31
sS'2'
p343
I30
sS'dumbass'
p344
I32
sS'too'
p345
I32
sS'\xee\x90\x84'
p346
I32
sS'thru'
p347
I32
sS'hollywood'
p348
I32
sS'friend'
p349
I31
sS"rr'd"
p350
I32
sS'eyes'
p351
I32
sS'lot'
p352
I32
sS'that'
p353
I15
sS'glad^.<3'
p354
I32
sS'exactly'
p355
I31
sS'mentality'
p356
I32
sS'part'
p357
I30
sS'doctors'
p358
I32
sS'believe'
p359
I32
sS'than'
p360
I31
sS'obama'
p361
I32
sS'lmao'
p362
I29
sS'19'
p363
I32
sS'18'
p364
I32
sS'getaway'
p365
I32
sS'bed'
p366
I31
sS'tummy'
p367
I32
sS'hayes'
p368
I32
sS'sheen'
p369
I32
sS'were'
p370
I31
sS'asleep'
p371
I32
sS'marines'
p372
I32
sS'feeling'
p373
I31
sS'bet'
p374
I32
sS'and'
p375
I8
sS'motivation'
p376
I32
sS'false'
p377
I32
sS'overdosing'
p378
I32
sS'ahhhhhhhh'
p379
I32
sS'julian'
p380
I32
sS'huh"'
p381
I32
sS'sad'
p382
I30
sS'tonight'
p383
I30
sS'talking'
p384
I30
sS'say'
p385
I30
sS'have'
p386
I22
sS'disturbing'
p387
I32
sS'need'
p388
I30
sS'seen'
p389
I32
sS'saw'
p390
I32
sS'clearly'
p391
I32
sS'lie'
p392
I31
sS'fiji'
p393
I32
sS'clutch'
p394
I32
sS'-'
p395
I31
sS'awwweeee('
p396
I32
sS'take'
p397
I30
sS'\xee\x84\x8d\xee\x84\xb0'
p398
I32
sS'finding'
p399
I31
sS'honestly'
p400
I32
sS'play'
p401
I31
sS'sure'
p402
I32
sS'pain'
p403
I32
sS'though'
p404
I31
sS'who'
p405
I32
sS'philosophy'
p406
I32
sS'most'
p407
I31
sS'nothing'
p408
I32
sS'why'
p409
I27
sS'forever'
p410
I32
sS'"you\'re'
p411
I32
sS'later'
p412
I31
sS'upset'
p413
I32
sS'fuckkkkk'
p414
I32
sS'looked'
p415
I31
sS'definitely'
p416
I32
sS'clean'
p417
I32
sS'movie'
p418
I32
sS'away'
p419
I32
sS'lying'
p420
I32
sS'ugh'
p421
I26
sS'bomb'
p422
I32
sS'tackles'
p423
I32
sS'show'
p424
I32
sS'cowgirl'
p425
I32
sS'physique'
p426
I32
sS'anyway'
p427
I32
sS'bring'
p428
I31
sS'corner'
p429
I32
sS'find'
p430
I32
sS'figueroa'
p431
I32
sS'slow'
p432
I32
sS'\xe2\x9c\x8b'
p433
I32
sS'('
p434
I32
sS'acne'
p435
I32
sS'3'
p436
I31
sS'should'
p437
I31
sS'spirituality'
p438
I32
sS'only'
p439
I32
sS'going'
p440
I21
sS'smd\xe2\x80\x9d'
p441
I32
sS'\xee\x8c\xa6\xee\x8c\xa6\xee\x81\x8c\xee\x90\xa0'
p442
I32
sS'pretty'
p443
I32
sS'laptop'
p444
I32
sS'hope'
p445
I30
sS'wearing'
p446
I31
sS'do'
p447
I26
sS'hit'
p448
I32
sS'sweetie'
p449
I32
sS'get'
p450
I24
sS'luke'
p451
I30
sS'stop'
p452
I31
sS'lucky'
p453
I31
sS'clang'
p454
I32
sS'meand'
p455
I32
sS'werent'
p456
I32
sS'trust'
p457
I32
sS'during'
p458
I32
sS'him'
p459
I30
sS'holland'
p460
I32
sS'unnecesary'
p461
I32
sS'sky-'
p462
I32
sS'morning'
p463
I30
sS'bad'
p464
I31
sS'bae'
p465
I31
sS'she'
p466
I29
sS'double'
p467
I32
sS'quickie'
p468
I32
sS't-_______-'
p469
I32
sS'sweety'
p470
I32
sS'art'
p471
I32
sS'concert'
p472
I32
sS'manget'
p473
I32
sS'w/'
p474
I31
sS'humans'
p475
I32
sS'notice'
p476
I32
sS'unless'
p477
I32
sS"hasn't"
p478
I32
sS'see'
p479
I30
sS'dumb'
p480
I32
sS'are'
p481
I29
sS'fellas'
p482
I32
sS'jobs'
p483
I31
sS'nocturnal'
p484
I31
sS'best'
p485
I31
sS'said'
p486
I32
sS'tamales'
p487
I32
sS'headers'
p488
I32
sS'ways'
p489
I32
sS'jumped'
p490
I32
sS'wow'
p491
I31
sS'kool'
p492
I32
sS'please'
p493
I32
sS'favor'
p494
I32
sS'outside'
p495
I31
sS'burned'
p496
I32
sS'sonando'
p497
I32
sS'we'
p498
I31
sS'omg'
p499
I31
sS'god'
p500
I32
sS'receivers'
p501
I32
sS'attention'
p502
I32
sS'outfit'
p503
I32
sS'job'
p504
I32
sS'omw'
p505
I31
sS'betrayed'
p506
I32
sS'come'
p507
I29
sS'roller'
p508
I32
sS'league'
p509
I32
sS'last'
p510
I32
sS'missions'
p511
I32
sS'met'
p512
I32
sS'many'
p513
I30
sS'taking'
p514
I30
sS'compton'
p515
I31
sS'minds'
p516
I32
sS'etc'
p517
I32
sS'lookin'
p518
I32
sS'faces'
p519
I32
sS'studio'
p520
I32
sS'share'
p521
I32
sS'female^.^'
p522
I32
sS'whole'
p523
I32
sS'asked'
p524
I32
sS"can't"
p525
I28
sS'drunk'
p526
I32
sS'sweet'
p527
I30
sS'address'
p528
I32
sS'ayeee'
p529
I30
sS'dudes'
p530
I32
sS'walk'
p531
I32
sS'\xe2\x9a\x93\xef\xb8\x8f\xe2\x9d\xa4\xef\xb8\x8f'
p532
I32
sS'rave'
p533
I31
sS'comprehend'
p534
I32
sS'earning'
p535
I32
sS'late'
p536
I31
sS'yay'
p537
I32
sS'engines'
p538
I32
sS'cares'
p539
I32
sS"it's"
p540
I25
sS'rebuild'
p541
I32
sS'vacation'
p542
I32
sS'been'
p543
I29
sS'breath'
p544
I31
sS'much'
p545
I30
sS'guybut'
p546
I32
sS'deliberately'
p547
I32
sS'louisiana'
p548
I32
sS'annoying'
p549
I32
sS'website'
p550
I32
sS'life'
p551
I28
sS'crying'
p552
I32
sS'goodnight'
p553
I32
sS"what's"
p554
I32
sS'moment'
p555
I32
sS'whatever'
p556
I32
sS'awake'
p557
I32
sS'-.-'
p558
I32
sS'angles'
p559
I32
sS'smoking'
p560
I31
sS'chill'
p561
I32
sS'\xee\x84\x86\xee\x90\x82\xee\x80\xa2\xee\x84\x95'
p562
I32
sS'myself'
p563
I32
sS'soccer'
p564
I32
sS'look'
p565
I31
sS'guarding'
p566
I32
sS'these'
p567
I32
sS'sex'
p568
I32
sS'as'
p569
I32
sS'weres'
p570
I32
sS'will'
p571
I26
sS'while'
p572
I31
sS'sideand'
p573
I32
sS'suppose'
p574
I32
sS'surprised'
p575
I32
sS'country'
p576
I32
sS'fun'
p577
I31
sS'wake'
p578
I32
sS'vroom'
p579
I31
sS'pack'
p580
I32
sS'pyramid'
p581
I32
sS'is'
p582
I11
sS'it'
p583
I14
sS'sleeping'
p584
I32
sS'blah'
p585
I30
sS'someone'
p586
I31
sS'cowgirls'
p587
I32
sS'in'
p588
I11
sS'ready'
p589
I31
sS'late-.-'
p590
I32
sS'if'
p591
I26
sS'tattoo'
p592
I32
sS'education'
p593
I32
sS'shirt'
p594
I32
sS'anymore'
p595
I32
sS'doctor'
p596
I31
sS'things'
p597
I32
sS'make'
p598
I30
sS'nighter'
p599
I32
sS'same'
p600
I31
sS'guns'
p601
I32
sS'shooting'
p602
I32
sS'grand'
p603
I32
sS'units'
p604
I32
sS'struggling'
p605
I32
sS'exhaust'
p606
I32
sS"claire's"
p607
I32
sS'publicized'
p608
I32
sS'munch'
p609
I32
sS'rain'
p610
I30
sS'fucken'
p611
I29
sS'fucked'
p612
I32
sS'changing'
p613
I32
sS'opportunity'
p614
I32
sS'\xe2\x9c\x8c\xef\xb8\x8f'
p615
I30
sS'off'
p616
I32
sS"-x'o"
p617
I32
sS'i'
p618
I2
sS'charlie'
p619
I32
sS'well'
p620
I31
sS'thoughi'
p621
I32
sS'person'
p622
I31
sS'wya'
p623
I32
sS'very'
p624
I32
sS'tryin'
p625
I32
sS'the'
p626
I4
sS'raving'
p627
I32
sS'left'
p628
I32
sS'summer'
p629
I31
sS'coaster'
p630
I32
sS'\xe2\x98\xba\xef\xb8\x8f'
p631
I32
sS'just'
p632
I13
sS'less'
p633
I32
sS'being'
p634
I29
sS'money'
p635
I31
sS'unfollow'
p636
I32
sS'sleepy'
p637
I32
sS'yey'
p638
I32
sS'grades'
p639
I32
sS'kill'
p640
I30
sS'behind'
p641
I32
sS'followed'
p642
I32
sS'yes'
p643
I31
sS'begin'
p644
I32
sS'til'
p645
I32
sS'raves'
p646
I31
sS'balled'
p647
I32
sS'thinking'
p648
I32
sS'disappointed'
p649
I32
sS'drive'
p650
I32
sS'had'
p651
I30
sS'cuz'
p652
I32
sS'bullshit'
p653
I32
sS'verse'
p654
I32
sS'ssnumber'
p655
I32
sS'attractive'
p656
I32
sS'easy'
p657
I32
sS'crack'
p658
I32
sS'scrapbook'
p659
I32
sS'riverside'
p660
I32
sS'has'
p661
I31
sS'hates'
p662
I32
sS'gave'
p663
I31
sS'real'
p664
I30
sS'around'
p665
I30
sS'big'
p666
I32
sS'couple'
p667
I30
sS'sums'
p668
I32
sS'gonna'
p669
I31
sS'early'
p670
I32
sS'shitty'
p671
I32
sS'cruz'
p672
I32
sS'traffic'
p673
I31
sS'know'
p674
I24
sS'using'
p675
I32
sS'bit'
p676
I32
sS'blankets'
p677
I32
sS'flannel'
p678
I32
sS'60'
p679
I32
sS'christina'
p680
I32
sS'like'
p681
I15
sS'flappy'
p682
I32
sS'vip'
p683
I32
sS'idk'
p684
I32
sS'either'
p685
I32
sS'night'
p686
I31
sS'passionate'
p687
I32
sS'me\xe2\x80\x9d'
p688
I32
sS'sign'
p689
I32
sS'because'
p690
I31
sS'old'
p691
I30
sS'ohmygoodness'
p692
I32
sS'deal'
p693
I31
sS'people'
p694
I25
sS'fucking'
p695
I31
sS'twitter'
p696
I32
sS'shuttling'
p697
I32
sS'some'
p698
I29
sS'back'
p699
I27
sS'alive'
p700
I32
sS'boy\xe2\x9d\xa4\xef\xb8\x8f'
p701
I32
sS'110'
p702
I32
sS'sore.man'
p703
I32
sS'id'
p704
I32
sS'home'
p705
I32
sS'rebore'
p706
I32
sS'for'
p707
I12
sS'ear'
p708
I32
sS'normal'
p709
I32
sS'does'
p710
I32
sS'deflections'
p711
I32
sS'laughing'
p712
I32
sS'be'
p713
I18
sS'knew'
p714
I32
sS'power'
p715
I31
sS'seconds'
p716
I32
sS'lose'
p717
I32
sS'sprung'
p718
I32
sS's/o'
p719
I32
sS'^_^'
p720
I32
sS'bergdahl'
p721
I32
sS'everyday'
p722
I32
sS'usc'
p723
I32
sS'super'
p724
I32
sS'by'
p725
I30
sS'stage'
p726
I32
sS'on'
p727
I19
sS'about'
p728
I28
sS'working'
p729
I30
sS'anything'
p730
I30
sS'oh'
p731
I31
sS'jeep'
p732
I32
sS'of'
p733
I16
sS'favorite'
p734
I32
sS'range'
p735
I32
sS"6'2"
p736
I32
sS'act'
p737
I31
sS'bond'
p738
I32
sS'or'
p739
I28
sS'seeing'
p740
I32
sS'whats'
p741
I32
sS'ferg'
p742
I32
sS'into'
p743
I30
sS'washington'
p744
I31
sS'bound'
p745
I31
sS'soo'
p746
I32
sS'down'
p747
I27
sS'd'
p748
I32
sS'everyone'
p749
I32
sS'promise'
p750
I32
sS'parties'
p751
I32
sS'your'
p752
I14
sS'technically'
p753
I32
sS'fast'
p754
I32
sS'spending'
p755
I32
sS'lok'
p756
I32
sS'there'
p757
I26
sS'gift'
p758
I32
sS'lol'
p759
I24
sS'class'
p760
I32
sS"meain't"
p761
I32
sS'burning'
p762
I32
sS'way'
p763
I32
sS'bruh'
p764
I32
sS'forward'
p765
I32
sS'call'
p766
I31
sS'was'
p767
I24
sS'happy'
p768
I30
sS'head'
p769
I32
sS'buy'
p770
I32
sS'bus'
p771
I32
sS'bitches'
p772
I32
sS'but'
p773
I22
sS'hi'
p774
I32
sS'game'
p775
I32
sS'suckaz'
p776
I32
sS'line'
p777
I31
sS'\xe2\x99\xa5'
p778
I29
sS'with'
p779
I17
sS'eat'
p780
I32
sS'he'
p781
I28
sS'made'
p782
I32
sS't-_____________-'
p783
I32
sS'glory'
p784
I31
sS'wish'
p785
I30
sS'j'
p786
I31
sS'fries'
p787
I32
sS'up'
p788
I16
sS'us'
p789
I31
sS'excitement'
p790
I32
sS'miguel'
p791
I32
sS"weeknd-x'o"
p792
I32
sS'connect'
p793
I32
sS'wants'
p794
I32
sS'johnny'
p795
I32
sS'm'
p796
I32
sS'universal'
p797
I32
sS'americans?bergdahl-the-traitor'
p798
I32
sS'am'
p799
I30
sS'muscular'
p800
I32
sS'an'
p801
I31
sS'single'
p802
I32
sS'right'
p803
I32
sS'at'
p804
I20
sS'paperwork'
p805
I32
sS'work'
p806
I24
sS'80'
p807
I32
sS'shit'
p808
I25
sS'again'
p809
I32
sS'jesus'
p810
I32
sS'no'
p811
I28
sS'deserve'
p812
I32
sS'nah'
p813
I32
sS'when'
p814
I23
sS'fooly'
p815
I32
sS'5'
p816
I31
sS'test'
p817
I32
sS'you'
p818
I5
sS'out'
p819
I23
sS'smell'
p820
I32
sS'realize'
p821
I32
sS"gon'"
p822
I32
sS'forgot'
p823
I32
sS'stay'
p824
I31
sS'helping'
p825
I32
sS'fell'
p826
I32
sS"she's"
p827
I32
sS'disclosure'
p828
I32
sS'died'
p829
I31
sS'inspiration'
p830
I32
sS'lane'
p831
I32
sS'tweeting'
p832
I32
sS'sore'
p833
I32
sS"he's"
p834
I32
sS'gardena'
p835
I32
sS'life.improve'
p836
I32
sS'came'
p837
I32
sS'time'
p838
I23
sS'alright'
p839
I32
sS'fresh'
p840
I31
sS'hello'
p841
I32
sS'8th'
p842
I32
s.