(dp0
S''
p1
I1
sS'cheetos'
p2
I29
sS'all'
p3
I24
sS':/'
p4
I29
sS':('
p5
I27
sS':)'
p6
I27
sS':*'
p7
I29
sS'yellow'
p8
I29
sS'leads'
p9
I29
sS'manager'
p10
I29
sS'sleep'
p11
I26
sS'go'
p12
I17
sS'forget'
p13
I29
sS'griffin'
p14
I29
sS'$120'
p15
I28
sS'aug'
p16
I29
sS'young'
p17
I28
sS'to'
p18
I4
sS'finally'
p19
I28
sS'whappow'
p20
I29
sS'tf'
p21
I27
sS'sorry'
p22
I29
sS'popi'
p23
I29
sS'ta'
p24
I29
sS'division'
p25
I29
sS'song'
p26
I29
sS'far'
p27
I28
sS'novel'
p28
I29
sS'fan'
p29
I29
sS'kitten'
p30
I29
sS':p'
p31
I29
sS'minute'
p32
I29
sS'tickets'
p33
I29
sS'school'
p34
I29
sS'mothers'
p35
I29
sS'did'
p36
I29
sS'killed'
p37
I29
sS'ryan'
p38
I29
sS'leave'
p39
I29
sS'team'
p40
I29
sS'fuuuck'
p41
I29
sS'guy'
p42
I29
sS'thiago'
p43
I29
sS"i'll"
p44
I28
sS'chet'
p45
I29
sS'neighborhood'
p46
I29
sS'esos'
p47
I29
sS'muthafucken'
p48
I29
sS'penalties'
p49
I29
sS'direct'
p50
I29
sS'\xee\x90\x83'
p51
I29
sS'llc'
p52
I29
sS'zero'
p53
I29
sS'street'
p54
I29
sS'pass'
p55
I29
sS'even'
p56
I25
sS'what'
p57
I19
sS'asap'
p58
I29
sS'suk'
p59
I29
sS'fatness'
p60
I29
sS'greatness'
p61
I29
sS'rotten'
p62
I29
sS'fuckk'
p63
I29
sS'new'
p64
I28
sS'learned'
p65
I29
sS'ever'
p66
I29
sS'ratchet'
p67
I29
sS'kama'
p68
I28
sS'goooooooooooool'
p69
I29
sS'(los'
p70
I11
sS'hours'
p71
I29
sS'\xe2\x9d\xa4\xef\xb8\x8f'
p72
I27
sS'let'
p73
I29
sS'redskins'
p74
I29
sS'meet'
p75
I29
sS'101'
p76
I29
sS'wait'
p77
I28
sS'great'
p78
I28
sS'lol'
p79
I12
sS'ahead'
p80
I29
sS'5:00'
p81
I29
sS'k'
p82
I28
sS'lakers'
p83
I29
sS'pics'
p84
I28
sS'credit'
p85
I29
sS'bon'
p86
I29
sS'stressed'
p87
I29
sS'california'
p88
I28
sS"i'm"
p89
I7
sS'makes'
p90
I28
sS'thats'
p91
I29
sS'pumped'
p92
I29
sS'love'
p93
I26
sS'bro'
p94
I29
sS'patriots'
p95
I29
sS'fake'
p96
I29
sS"(women's"
p97
I29
sS'counts'
p98
I29
sS'txt'
p99
I29
sS'post'
p100
I29
sS'everybody'
p101
I29
sS'cheating'
p102
I29
sS'from'
p103
I25
sS'spoke'
p104
I29
sS'working'
p105
I28
sS'0'
p106
I28
sS'ahhw'
p107
I29
sS'interception'
p108
I29
sS'next'
p109
I29
sS'.\xe2\x80\x9d'
p110
I29
sS'live'
p111
I28
sS'jam'
p112
I29
sS'call'
p113
I27
sS'chu'
p114
I29
sS'thru'
p115
I29
sS'type'
p116
I29
sS'tell'
p117
I25
sS'today'
p118
I25
sS'more'
p119
I27
sS'tryna'
p120
I26
sS'babe'
p121
I29
sS'posting'
p122
I29
sS'holy'
p123
I29
sS'on'
p124
I13
sS'haha'
p125
I29
sS'sister'
p126
I29
sS'hurt'
p127
I29
sS'glass'
p128
I29
sS"ain't"
p129
I26
sS'broke'
p130
I28
sS'robbing'
p131
I29
sS'central'
p132
I29
sS'hold'
p133
I29
sS'easiest'
p134
I29
sS'hola'
p135
I29
sS'boards'
p136
I29
sS'me'
p137
I8
sS'none'
p138
I28
sS'ma'
p139
I27
sS'niggas'
p140
I29
sS'this'
p141
I19
sS'work'
p142
I23
sS'mk'
p143
I29
sS'cat'
p144
I29
sS'hardest'
p145
I29
sS'padawon'
p146
I29
sS'can'
p147
I25
sS'following'
p148
I28
sS'making'
p149
I28
sS'libertad'
p150
I29
sS'my'
p151
I9
sS'beautiful'
p152
I29
sS'crazy'
p153
I27
sS'give'
p154
I26
sS'favorite'
p155
I29
sS'awesome'
p156
I29
sS"didn't"
p157
I29
sS'fuck'
p158
I23
sS'goooo'
p159
I28
sS'numbers'
p160
I29
sS'want'
p161
I22
sS'voice'
p162
I29
sS'bicken'
p163
I29
sS'hoe'
p164
I29
sS'turn'
p165
I28
sS'hugo'
p166
I29
sS'gasol'
p167
I29
sS'1'
p168
I29
sS'how'
p169
I26
sS'hot'
p170
I28
sS'answer'
p171
I29
sS'gooooooooooooool'
p172
I29
sS'idk'
p173
I29
sS'(uforia)'
p174
I29
sS'faaaaaaaah'
p175
I29
sS'spot'
p176
I29
sS'water'
p177
I29
sS'wrong'
p178
I29
sS'jumping'
p179
I29
sS'wrist'
p180
I29
sS'blood'
p181
I29
sS'coming'
p182
I28
sS'such'
p183
I29
sS'mofan'
p184
I29
sS'guys'
p185
I29
sS'man'
p186
I27
sS'a'
p187
I5
sS'jovi'
p188
I29
sS'remember'
p189
I28
sS'wins'
p190
I28
sS'\xe2\x9c\x8a\xe2\x9d\xa4\xef\xb8\x8f'
p191
I29
sS'so'
p192
I22
sS'silence'
p193
I29
sS'crawling'
p194
I29
sS'every'
p195
I29
sS'sf'
p196
I28
sS'talk'
p197
I28
sS"that's"
p198
I26
sS'cute'
p199
I29
sS"don't"
p200
I21
sS'defenders'
p201
I29
sS'over'
p202
I29
sS'urine'
p203
I29
sS'(s\xc3\xa1nchez'
p204
I29
sS'years'
p205
I27
sS'course'
p206
I29
sS'aha'
p207
I29
sS'quake'
p208
I29
sS'shake'
p209
I28
sS'managers'
p210
I29
sS'still'
p211
I28
sS'its'
p212
I29
sS'before'
p213
I29
sS'9-1-1'
p214
I29
sS'blake'
p215
I29
sS'chihuahua'
p216
I29
sS'20'
p217
I29
sS'la'
p218
I27
sS'gente'
p219
I29
sS'amazing'
p220
I29
sS'winning'
p221
I29
sS'better'
p222
I27
sS'ixat'
p223
I29
sS'p-lo'
p224
I29
sS'peyton'
p225
I29
sS'might'
p226
I27
sS'ahh'
p227
I29
sS'goodmorning'
p228
I28
sS'dad'
p229
I26
sS'then'
p230
I29
sS'them'
p231
I29
sS'good'
p232
I21
sS'yo'
p233
I25
sS'ya'
p234
I27
sS"we'll"
p235
I28
sS'yg'
p236
I28
sS'replyed'
p237
I29
sS'dap'
p238
I29
sS"you've"
p239
I29
sS'they'
p240
I23
sS'half'
p241
I28
sS'not'
p242
I26
sS'now'
p243
I21
sS'ahaha'
p244
I28
sS'day'
p245
I28
sS'bouta'
p246
I29
sS'strive'
p247
I29
sS'netherlands'
p248
I29
sS'double'
p249
I29
sS'everytime'
p250
I29
sS'always'
p251
I27
sS'l'
p252
I28
sS'detroit'
p253
I29
sS'skills'
p254
I29
sS'someone'
p255
I27
sS'difficult'
p256
I29
sS"ya'll"
p257
I29
sS"m'lady"
p258
I29
sS'mean'
p259
I26
sS'em'
p260
I25
sS'el'
p261
I29
sS'signing'
p262
I29
sS'everyone'
p263
I29
sS'replan'
p264
I29
sS'another'
p265
I29
sS'doing'
p266
I28
sS'there'
p267
I28
sS'hard'
p268
I28
sS'idea'
p269
I29
sS'good\xe2\x80\xa6'
p270
I29
sS'forgot'
p271
I29
sS'girl'
p272
I28
sS'semi-finals'
p273
I29
sS'special'
p274
I29
sS'really'
p275
I22
sS'rt'
p276
I29
sS'living'
p277
I29
sS'missed'
p278
I28
sS'since'
p279
I29
sS'looking'
p280
I29
sS'fucket'
p281
I29
sS'-roger'
p282
I29
sS'smh'
p283
I29
sS'got'
p284
I21
sS'rn'
p285
I27
sS'red'
p286
I29
sS'ass'
p287
I29
sS'shut'
p288
I29
sS'boolin'
p289
I29
sS"you're"
p290
I29
sS'friday'
p291
I29
sS'guess'
p292
I29
sS'que'
p293
I28
sS'put'
p294
I27
sS'wanted'
p295
I26
sS'havent'
p296
I29
sS'juan'
p297
I29
sS'mvp'
p298
I29
sS"livin'"
p299
I29
sS'backwards'
p300
I29
sS'atc'
p301
I29
sS'language'
p302
I29
sS'discussing'
p303
I29
sS'could'
p304
I28
sS'days'
p305
I29
sS'keep'
p306
I28
sS'thing'
p307
I27
sS'24hrs'
p308
I29
sS'w'
p309
I29
sS'enough'
p310
I29
sS'lax'
p311
I29
sS'flip'
p312
I29
sS'onto'
p313
I29
sS'think'
p314
I29
sS'south'
p315
I29
sS'first'
p316
I28
sS'too&'
p317
I29
sS'already'
p318
I25
sS'dont'
p319
I27
sS'oohh'
p320
I29
sS'feel'
p321
I27
sS'ghetto'
p322
I29
sS'xd'
p323
I29
sS'one'
p324
I26
sS'nosebleeds'
p325
I29
sS'done'
p326
I28
sS'bitch'
p327
I25
sS'colombia'
p328
I29
sS'ring'
p329
I29
sS'imperial'
p330
I29
sS'miss'
p331
I28
sS'tomorrow'
p332
I28
sS'hood'
p333
I29
sS'city'
p334
I29
sS'little'
p335
I29
sS'basketball'
p336
I28
sS'start'
p337
I27
sS'gozan'
p338
I29
sS'top'
p339
I29
sS'girls'
p340
I29
sS'their'
p341
I28
sS'2'
p342
I29
sS'too'
p343
I26
sS'bity'
p344
I29
sS'tom'
p345
I29
sS'northbound'
p346
I29
sS'farmar'
p347
I29
sS'store'
p348
I29
sS'exploring'
p349
I29
sS'stomach'
p350
I29
sS'newwww'
p351
I29
sS'that'
p352
I10
sS'chantel'
p353
I29
sS'cup'
p354
I29
sS'exactly'
p355
I29
sS'took'
p356
I28
sS'hut'
p357
I29
sS'is\xe2\x80\x9d'
p358
I29
sS'13-0'
p359
I29
sS'jordan'
p360
I29
sS'sex'
p361
I29
sS'than'
p362
I29
sS"here's"
p363
I29
sS'brady'
p364
I29
sS'11'
p365
I29
sS'10'
p366
I29
sS'b'
p367
I28
sS'15'
p368
I29
sS'lmao'
p369
I25
sS'fcked'
p370
I29
sS'18'
p371
I29
sS'gotta'
p372
I26
sS'goodnight'
p373
I29
sS'bed'
p374
I29
sS'r'
p375
I29
sS'friend'
p376
I29
sS'attention'
p377
I29
sS'hottie'
p378
I29
sS'dang'
p379
I29
sS'feeling'
p380
I28
sS'oath'
p381
I29
sS'and'
p382
I21
sS'motivation'
p383
I29
sS'fashion'
p384
I29
sS'lulu'
p385
I29
sS'mine'
p386
I29
sS'spelled'
p387
I29
sS'sexting'
p388
I29
sS'tonight'
p389
I29
sS'talking'
p390
I28
sS'say'
p391
I27
sS'ahahhahaha'
p392
I29
sS'have'
p393
I18
sS'throat'
p394
I29
sS'seem'
p395
I29
sS"'hello"
p396
I29
sS'thought'
p397
I29
sS'built'
p398
I29
sS'congrats'
p399
I29
sS'lil'
p400
I28
sS'studying'
p401
I29
sS'-'
p402
I26
sS'h20'
p403
I29
sS'sinatra'
p404
I29
sS'without'
p405
I29
sS'hookah'
p406
I29
sS'take'
p407
I25
sS'ignoran'
p408
I29
sS'play'
p409
I29
sS'tugging'
p410
I29
sS'hawes'
p411
I29
sS'though'
p412
I28
sS'track'
p413
I29
sS'rappers'
p414
I29
sS'who'
p415
I26
sS'paid'
p416
I29
sS'mario'
p417
I29
sS'courtesy'
p418
I29
sS'plan'
p419
I29
sS'nothing'
p420
I28
sS'$hmopcity'
p421
I28
sS'11:11'
p422
I29
sS'why'
p423
I28
sS'mmmm'
p424
I29
sS'dom'
p425
I29
sS'flow'
p426
I29
sS'dentist'
p427
I29
sS'face'
p428
I28
sS'freeway'
p429
I28
sS'h\xc3\x9cmmels'
p430
I29
sS'se'
p431
I29
sS'clean'
p432
I29
sS'away'
p433
I29
sS'came'
p434
I28
sS'automatically'
p435
I29
sS'ugh'
p436
I29
sS'shot'
p437
I28
sS'gold'
p438
I28
sS'show'
p439
I29
sS"10x's"
p440
I29
sS'random'
p441
I29
sS'pffft'
p442
I29
sS'bring'
p443
I29
sS'kindaaaa'
p444
I29
sS'planning'
p445
I29
sS'king'
p446
I29
sS'find'
p447
I29
sS'aint'
p448
I28
sS'\xe2\x9c\x8c'
p449
I29
sS'trying'
p450
I29
sS'como'
p451
I29
sS'true'
p452
I29
sS'dick'
p453
I27
sS'written'
p454
I29
sS'should'
p455
I28
sS"reyes's"
p456
I29
sS'craving'
p457
I29
sS'only'
p458
I25
sS'going'
p459
I25
sS'pretty'
p460
I28
sS'photo'
p461
I29
sS'8'
p462
I29
sS'hope'
p463
I29
sS'do'
p464
I21
sS'cappuccino'
p465
I29
sS'get'
p466
I21
sS'de'
p467
I27
sS'stop'
p468
I29
sS'perpetrating'
p469
I29
sS'tbh'
p470
I28
sS'chips'
p471
I29
sS'him'
p472
I27
sS"anaka's"
p473
I29
sS'earn'
p474
I29
sS'held'
p475
I29
sS'nope'
p476
I29
sS'morning'
p477
I29
sS'bad'
p478
I28
sS'howaaaaaaard'
p479
I29
sS'she'
p480
I23
sS'mlrt'
p481
I29
sS'prankkkkkk'
p482
I29
sS'where'
p483
I29
sS'16th'
p484
I29
sS'husband'
p485
I28
sS"y'all"
p486
I28
sS'art'
p487
I29
sS'w/'
p488
I22
sS'signs'
p489
I29
sS'ends'
p490
I29
sS'seat'
p491
I29
sS'manning'
p492
I29
sS'see'
p493
I23
sS'defense'
p494
I28
sS'are'
p495
I24
sS'buzzed'
p496
I29
sS'noodles'
p497
I29
sS'best'
p498
I29
sS'brazil'
p499
I29
sS'said'
p500
I28
sS'has'
p501
I29
sS'wow'
p502
I28
sS'3'
p503
I29
sS'it????\xee\x90\x92\xee\x90\x92\xee\x90\x92\xee\x90\x92\xee\x90\x92'
p504
I29
sS'pfft'
p505
I27
sS'we'
p506
I23
sS'3-0-5'
p507
I29
sS'25'
p508
I29
sS"bff's"
p509
I29
sS'were'
p510
I29
sS'weak'
p511
I29
sS'killing'
p512
I29
sS'omw'
p513
I29
sS'here'
p514
I27
sS'wtf'
p515
I26
sS'betrayed'
p516
I28
sS'lb'
p517
I29
sS'skoo'
p518
I29
sS'come'
p519
I29
sS'both'
p520
I29
sS'ohmy'
p521
I29
sS'last'
p522
I28
sS'many'
p523
I28
sS'ill'
p524
I29
sS'compton'
p525
I29
sS'ahora'
p526
I29
sS's'
p527
I29
sS'alsmost'
p528
I29
sS'logic'
p529
I29
sS"can't"
p530
I26
sS'stretches'
p531
I29
sS'very'
p532
I29
sS'tmnt'
p533
I29
sS'ca'
p534
I27
sS'stuck'
p535
I29
sS'period'
p536
I29
sS'nooooo'
p537
I29
sS'header'
p538
I29
sS'non'
p539
I29
sS"couldn't"
p540
I28
sS'church'
p541
I29
sS'[pic]'
p542
I29
sS'fck'
p543
I29
sS'planner'
p544
I29
sS'howard'
p545
I28
sS"it's"
p546
I29
sS'ucla'
p547
I29
sS'been'
p548
I26
sS'quickly'
p549
I28
sS"people...it's"
p550
I29
sS'much'
p551
I28
sS'damn'
p552
I25
sS'woke'
p553
I29
sS'>'
p554
I28
sS'website'
p555
I29
sS'life'
p556
I27
sS'lived'
p557
I29
sS'titties'
p558
I29
sS'flew'
p559
I29
sS'sooooo'
p560
I29
sS'else'
p561
I29
sS'kids'
p562
I29
sS'wake'
p563
I29
sS'-.-'
p564
I29
sS'falling'
p565
I29
sS'child'
p566
I29
sS'catch'
p567
I29
sS'haters'
p568
I29
sS'digger'
p569
I29
sS'bout'
p570
I29
sS'case'
p571
I29
sS'gracias'
p572
I29
sS'look'
p573
I28
sS'being'
p574
I29
sS'these'
p575
I28
sS'raspy'
p576
I29
sS'ahah'
p577
I29
sS'beats'
p578
I29
sS'will'
p579
I29
sS'while'
p580
I29
sS'expresi\xc3\xb3n'
p581
I29
sS'omgah'
p582
I29
sS'thot'
p583
I29
sS'intoit'
p584
I29
sS'invited'
p585
I29
sS'silvaaaa'
p586
I29
sS'lakeside'
p587
I29
sS'is'
p588
I15
sS'it'
p589
I11
sS'yalls'
p590
I29
sS'vs'
p591
I27
sS'im'
p592
I20
sS'in'
p593
I13
sS'ready'
p594
I28
sS'rid'
p595
I29
sS'bow'
p596
I29
sS'everyday'
p597
I29
sS'worry'
p598
I29
sS'if'
p599
I21
sS'gone'
p600
I29
sS'funny'
p601
I27
sS'raiders'
p602
I28
sS'because'
p603
I29
sS'pau'
p604
I29
sS'pay'
p605
I28
sS'make'
p606
I29
sS'gooo'
p607
I28
sS'manches'
p608
I29
sS'9'
p609
I29
sS'gets'
p610
I29
sS'ochoa'
p611
I29
sS'slave'
p612
I29
sS'smoke'
p613
I29
sS'holla'
p614
I29
sS'applaud'
p615
I29
sS'buccaneers'
p616
I29
sS'jungle'
p617
I29
sS'hang'
p618
I29
sS'weed'
p619
I29
sS'arrived'
p620
I29
sS'clippers'
p621
I28
sS'fucked'
p622
I29
sS'yours'
p623
I29
sS'l.a'
p624
I27
sS'faithful'
p625
I29
sS'\xe2\x9c\x8c\xef\xb8\x8f'
p626
I28
sS'i'
p627
I2
sS"dad's"
p628
I29
sS'well'
p629
I28
sS'obviously'
p630
I28
sS'tho'
p631
I28
sS'edge'
p632
I29
sS'pandora'
p633
I29
sS'y'
p634
I28
sS'the'
p635
I3
sS'spencer'
p636
I29
sS'left'
p637
I27
sS'taxi'
p638
I29
sS'summer'
p639
I29
sS'vagina\xe2\x80\x9dhahaha'
p640
I29
sS'just'
p641
I22
sS'less'
p642
I29
sS'yea'
p643
I28
sS'money'
p644
I29
sS'sleepy'
p645
I29
sS'shouts'
p646
I29
sS'foot'
p647
I29
sS'violent'
p648
I29
sS'tomorrow\xe2\x80\x9d'
p649
I29
sS'thanks'
p650
I29
sS'mob'
p651
I29
sS'facts'
p652
I29
sS'yep'
p653
I29
sS'yes'
p654
I29
sS'afterwards'
p655
I29
sS'til'
p656
I29
sS'athletic'
p657
I29
sS'excuses'
p658
I29
sS'had'
p659
I28
sS'bench'
p660
I29
sS'lets'
p661
I25
sS'book'
p662
I29
sS'parents'
p663
I29
sS'crying'
p664
I28
sS"muthafucka'"
p665
I29
sS'playing'
p666
I29
sS'balloons'
p667
I29
sS'tuesday'
p668
I29
sS'opp'
p669
I29
sS'around'
p670
I28
sS'kills'
p671
I29
sS'sportsmanship'
p672
I29
sS'advances'
p673
I29
sS'gonna'
p674
I28
sS'early'
p675
I29
sS'game'
p676
I28
sS'traffic'
p677
I29
sS'know'
p678
I23
sS'mom'
p679
I26
sS'taking'
p680
I29
sS'muthafcken'
p681
I29
sS'adams'
p682
I29
sS'knock'
p683
I29
sS'like'
p684
I17
sS'lost'
p685
I29
sS'either'
p686
I29
sS'night'
p687
I28
sS'nice'
p688
I29
sS'right'
p689
I22
sS'fuuuuuck'
p690
I29
sS'people'
p691
I27
sS'fucking'
p692
I24
sS'some'
p693
I26
sS'back'
p694
I25
sS'touchdown'
p695
I29
sS'110'
p696
I27
sS'home'
p697
I27
sS'empire'
p698
I29
sS'fuuuuck'
p699
I29
sS'quiz\xc3\xa1'
p700
I29
sS'for'
p701
I13
sS'moon'
p702
I29
sS'dating'
p703
I29
sS'chains'
p704
I29
sS'hustle'
p705
I29
sS'be'
p706
I23
sS'rum'
p707
I29
sS'goetze'
p708
I29
sS';)'
p709
I29
sS'super'
p710
I29
sS'by'
p711
I28
sS"something's"
p712
I29
sS'about'
p713
I25
sS'ok'
p714
I29
sS'would'
p715
I28
sS'world'
p716
I29
sS'oh'
p717
I26
sS'of'
p718
I17
sS'&'
p719
I14
sS"mcdonald's"
p720
I11
sS'burbank'
p721
I29
sS"la's"
p722
I29
sS'angeles'
p723
I10
sS'afternoon'
p724
I29
sS'alert'
p725
I29
sS'ot'
p726
I29
sS'wanna'
p727
I25
sS'or'
p728
I25
sS'block'
p729
I29
sS'interscope'
p730
I29
sS'own'
p731
I29
sS'ayye'
p732
I29
sS'auntie'
p733
I29
sS'visit'
p734
I29
sS'into'
p735
I28
sS'blessed'
p736
I29
sS'usa'
p737
I29
sS'getting'
p738
I27
sS'down'
p739
I25
sS'momma'
p740
I29
sS'nigga'
p741
I26
sS'dreaming'
p742
I29
sS'yeaa'
p743
I29
sS'lebron'
p744
I29
sS'your'
p745
I27
sS'cer\xc3\xa9n)'
p746
I29
sS'lob'
p747
I29
sS'neymar'
p748
I29
sS'b\xc3\xa9same'
p749
I29
sS"how's"
p750
I29
sS'her'
p751
I27
sS'berly'
p752
I29
sS'jewls'
p753
I29
sS'ca)'
p754
I11
sS'long'
p755
I27
sS'noticed'
p756
I29
sS'los'
p757
I28
sS'cats'
p758
I29
sS"we're"
p759
I29
sS'way'
p760
I27
sS'house'
p761
I29
sS'ihy'
p762
I29
sS'wat'
p763
I29
sS'was'
p764
I16
sS'war'
p765
I29
sS'happy'
p766
I28
sS'buy'
p767
I29
sS"i've"
p768
I29
sS'hs'
p769
I29
sS'bitches'
p770
I26
sS'but'
p771
I18
sS'yeah'
p772
I29
sS'heat'
p773
I29
sS'hear'
p774
I29
sS'ha'
p775
I29
sS'with'
p776
I24
sS'he'
p777
I24
sS'made'
p778
I29
sS'lloris'
p779
I29
sS'wish'
p780
I28
sS'attached'
p781
I29
sS'up'
p782
I18
sS'signed'
p783
I29
sS'whiskey'
p784
I29
sS'hmmmmmmmmm'
p785
I29
sS'dr.pepper'
p786
I29
sS'changes'
p787
I29
sS'ohh'
p788
I27
sS'af'
p789
I29
sS'alumni'
p790
I29
sS'am'
p791
I26
sS'hungry'
p792
I29
sS'as'
p793
I27
sS'sometime'
p794
I29
sS'at'
p795
I6
sS'prayer'
p796
I29
sS'obo'
p797
I29
sS'pickles'
p798
I29
sS'shit'
p799
I22
sS'knows'
p800
I29
sS'again'
p801
I27
sS'maybe'
p802
I29
sS'us'
p803
I29
sS'dying'
p804
I29
sS'no'
p805
I20
sS'nah'
p806
I27
sS'when'
p807
I25
sS'cerritos'
p808
I29
sS'\xe2\x9b\x85\xef\xb8\x8f'
p809
I29
sS'tim'
p810
I28
sS'definitely'
p811
I29
sS'5'
p812
I28
sS'sick'
p813
I29
sS'you'
p814
I11
sS'out'
p815
I21
sS'tic'
p816
I29
sS'sutra'
p817
I29
sS'championship'
p818
I29
sS'update'
p819
I29
sS"let's"
p820
I29
sS'chance'
p821
I28
sS'kinda'
p822
I29
sS'1-0'
p823
I29
sS'weekend'
p824
I28
sS'\xe2\x80\x94'
p825
I29
sS'love\xe2\x80\x9d'
p826
I29
sS'dog'
p827
I29
sS'hello'
p828
I29
sS'eddies'
p829
I29
sS'lift'
p830
I29
sS'u'
p831
I16
sS'time'
p832
I24
sS'everywhere'
p833
I28
sS'having'
p834
I29
s.