(dp0
S''
p1
I5
sS'all'
p2
I27
sS':('
p3
I28
sS'beware'
p4
I32
sS'baaaaaaaack'
p5
I32
sS'tested'
p6
I32
sS'olive'
p7
I32
sS'huffy'
p8
I32
sS'sleep'
p9
I31
sS'amendola'
p10
I31
sS'scouted'
p11
I31
sS'hating'
p12
I32
sS'go'
p13
I28
sS'feminist'
p14
I32
sS'hate'
p15
I31
sS'mucho'
p16
I32
sS'tweet'
p17
I31
sS'young'
p18
I31
sS'to'
p19
I8
sS'asking'
p20
I32
sS'"wasssss'
p21
I32
sS'tf'
p22
I32
sS'lord'
p23
I30
sS'insights'
p24
I32
sS'whack'
p25
I32
sS'simmer'
p26
I32
sS'me'
p27
I14
sS'woman'
p28
I32
sS'point'
p29
I32
sS'stud'
p30
I32
sS'jerk'
p31
I32
sS'sitting'
p32
I32
sS'very'
p33
I32
sS'dessert'
p34
I32
sS'horror'
p35
I31
sS'caught'
p36
I32
sS'frapp'
p37
I32
sS'agua'
p38
I32
sS'tacos'
p39
I32
sS'every'
p40
I30
sS'"long'
p41
I32
sS'cook'
p42
I31
sS':p'
p43
I32
sS'fan'
p44
I31
sS'trippin'
p45
I32
sS'school'
p46
I30
sS'hour'
p47
I32
sS'did'
p48
I32
sS'brother'
p49
I32
sS'thirsy'
p50
I32
sS'specialy'
p51
I32
sS'round'
p52
I32
sS'joey'
p53
I32
sS"i'll"
p54
I32
sS'open'
p55
I32
sS'angeles)'
p56
I20
sS"roscoe's"
p57
I29
sS'nail'
p58
I32
sS'carla'
p59
I32
sS'street'
p60
I32
sS'track4'
p61
I32
sS'bake'
p62
I32
sS'\xee\x90\x92'
p63
I32
sS'even'
p64
I30
sS'established'
p65
I32
sS'what'
p66
I22
sS'poke'
p67
I32
sS'anywho'
p68
I32
sS'kuz'
p69
I32
sS'giving'
p70
I32
sS'religious'
p71
I32
sS'assistance'
p72
I32
sS'emotions'
p73
I31
sS'ended'
p74
I32
sS'lights'
p75
I32
sS'waiting'
p76
I32
sS'endorse'
p77
I32
sS'new'
p78
I32
sS'ever'
p79
I31
sS'told'
p80
I31
sS'mee'
p81
I32
sS'kicked'
p82
I32
sS'leg'
p83
I32
sS'never'
p84
I28
sS'suga'
p85
I32
sS'(los'
p86
I3
sS'hours'
p87
I32
sS'met'
p88
I32
sS'let'
p89
I30
sS'wait'
p90
I32
sS'"hymen'
p91
I32
sS'k'
p92
I32
sS'whine'
p93
I32
sS'crippen'
p94
I32
sS'smoke'
p95
I31
sS'pick'
p96
I32
sS'opinion'
p97
I32
sS"i'm"
p98
I1
sS'makes'
p99
I31
sS'thats'
p100
I31
sS'control'
p101
I32
sS'dumb'
p102
I32
sS'via'
p103
I31
sS'love'
p104
I27
sS'apple'
p105
I32
sS'family'
p106
I32
sS'extra'
p107
I32
sS'feelings'
p108
I32
sS'bro'
p109
I32
sS'till'
p110
I32
sS'wit'
p111
I31
sS'fake'
p112
I32
sS'andreas'
p113
I32
sS'from'
p114
I28
sS'would'
p115
I28
sS'&'
p116
I23
sS'aye'
p117
I32
sS'give'
p118
I32
sS'pero'
p119
I32
sS'next'
p120
I32
sS'storytelling"'
p121
I32
sS'live'
p122
I30
sS'bases'
p123
I32
sS'call'
p124
I32
sS'ellos'
p125
I32
sS'thru'
p126
I32
sS'type'
p127
I32
sS'tell'
p128
I31
sS'today'
p129
I30
sS'more'
p130
I29
sS'tryna'
p131
I32
sS'babe'
p132
I31
sS'knows'
p133
I31
sS'getting'
p134
I32
sS'haha'
p135
I32
sS':-('
p136
I32
sS'loco'
p137
I25
sS'phone'
p138
I31
sS'visual'
p139
I32
sS'everywhere'
p140
I32
sS'broke'
p141
I32
sS'baby'
p142
I31
sS'rare'
p143
I32
sS'women'
p144
I32
sS'fly'
p145
I32
sS'squish'
p146
I32
sS'divorced'
p147
I32
sS'niggas'
p148
I30
sS'this'
p149
I21
sS'car'
p150
I30
sS'mo'
p151
I32
sS'work'
p152
I30
sS'sucks'
p153
I32
sS'achieve'
p154
I31
sS'learn'
p155
I31
sS'believed'
p156
I32
sS'thuggin'
p157
I32
sS'my'
p158
I9
sS'beautiful'
p159
I32
sS'heart'
p160
I31
sS'crazy'
p161
I30
sS'mirrors'
p162
I32
sS'awesome'
p163
I32
sS"didn't"
p164
I31
sS'fuck'
p165
I25
sS'goooo'
p166
I32
sS'ia'
p167
I32
sS'\xe2\x98\x95\xef\xb8\x8f'
p168
I32
sS'something'
p169
I32
sS'want'
p170
I30
sS'blvd'
p171
I31
sS'airplane'
p172
I32
sS'story'
p173
I32
sS'bastante'
p174
I32
sS'hoe'
p175
I32
sS'end'
p176
I32
sS'trill'
p177
I32
sS'turn'
p178
I32
sS'song'
p179
I32
sS'machine'
p180
I32
sS'how'
p181
I29
sS'hot'
p182
I31
sS'justin'
p183
I32
sS'instead'
p184
I31
sS'period\xe2\x9c\x8c'
p185
I32
sS'goat'
p186
I32
sS'plant'
p187
I32
sS"cesar's"
p188
I32
sS'okay'
p189
I32
sS'fu'
p190
I32
sS'beauty'
p191
I32
sS'funny'
p192
I32
sS'mess'
p193
I32
sS'watch'
p194
I32
sS'wyd?\xe2\x80\x9dgirl'
p195
I32
sS'membership'
p196
I32
sS'ova'
p197
I32
sS'mad'
p198
I30
sS'coming'
p199
I32
sS'such'
p200
I31
sS'suck'
p201
I32
sS'lesbian'
p202
I32
sS'man'
p203
I28
sS'a'
p204
I10
sS'horchata'
p205
I31
sS'remember'
p206
I32
sS'loud'
p207
I32
sS'bloods"'
p208
I32
sS'out-'
p209
I32
sS'si'
p210
I32
sS'so'
p211
I19
sS'fuckin'
p212
I32
sS'sm'
p213
I32
sS'tatted'
p214
I31
sS'first'
p215
I32
sS'order'
p216
I32
sS"that's"
p217
I31
sS'cute'
p218
I32
sS'shoes'
p219
I32
sS"don't"
p220
I29
sS'over'
p221
I31
sS'trade'
p222
I31
sS"mcdonald's)"
p223
I29
sS'telling'
p224
I32
sS'ihy'
p225
I32
sS'pang'
p226
I32
sS'looks'
p227
I32
sS'broadway'
p228
I27
sS'mcdonalds'
p229
I31
sS'still'
p230
I26
sS'mayor'
p231
I31
sS'ima'
p232
I32
sS'1'
p233
I32
sS'shean'
p234
I32
sS'que'
p235
I32
sS'la'
p236
I30
sS'lo'
p237
I32
sS'fix'
p238
I32
sS'caesars'
p239
I32
sS'amazing'
p240
I32
sS'winning'
p241
I32
sS'better'
p242
I31
sS'bout'
p243
I32
sS'might'
p244
I32
sS'texas'
p245
I32
sS'dad'
p246
I30
sS'then'
p247
I31
sS'good'
p248
I30
sS'yo'
p249
I31
sS'workout'
p250
I32
sS'flew'
p251
I32
sS'break'
p252
I32
sS'lunch'
p253
I32
sS"you've"
p254
I32
sS'they'
p255
I27
sS'not'
p256
I23
sS'now'
p257
I29
sS'ahaha'
p258
I32
sS'day'
p259
I27
sS'bank'
p260
I27
sS'nos'
p261
I32
sS'forreals'
p262
I32
sS'growing'
p263
I32
sS'gets'
p264
I32
sS'lies'
p265
I32
sS'always'
p266
I30
sS'covering'
p267
I32
sS'millones'
p268
I32
sS'mode'
p269
I32
sS'papya'
p270
I32
sS'went'
p271
I31
sS'side'
p272
I32
sS"isn't"
p273
I32
sS'mean'
p274
I31
sS'em'
p275
I32
sS'el'
p276
I25
sS'everyone'
p277
I29
sS'eh'
p278
I32
sS'doing'
p279
I32
sS'house'
p280
I32
sS'hard'
p281
I31
sS'91105'
p282
I32
sS'agrue'
p283
I32
sS'homegirls'
p284
I32
sS'ex'
p285
I32
sS'forgot'
p286
I32
sS'girl'
p287
I31
sS'out'
p288
I28
sS'rt'
p289
I32
sS'living'
p290
I32
sS'gon'
p291
I32
sS'prolly'
p292
I32
sS'driving'
p293
I32
sS'god'
p294
I31
sS'rep'
p295
I32
sS'ricky'
p296
I32
sS'looking'
p297
I32
sS'may'
p298
I32
sS'stupid'
p299
I32
sS'braces'
p300
I32
sS'cobb'
p301
I31
sS'smh'
p302
I29
sS'got'
p303
I29
sS'cause'
p304
I30
sS'plotting'
p305
I32
sS'red'
p306
I32
sS'shows'
p307
I32
sS'ass'
p308
I27
sS'shut'
p309
I32
sS'flacko....a$vp"'
p310
I32
sS"you're"
p311
I30
sS'friday'
p312
I32
sS'forgive'
p313
I32
sS'free'
p314
I32
sS'coachella'
p315
I32
sS'california'
p316
I31
sS'chiquis'
p317
I31
sS'put'
p318
I32
sS'teach'
p319
I32
sS'wanted'
p320
I32
sS'beginning'
p321
I32
sS'craving'
p322
I32
sS'recon'
p323
I32
sS'latches'
p324
I32
sS'could'
p325
I29
sS'days'
p326
I32
sS'keep'
p327
I30
sS'thing'
p328
I31
sS'suena'
p329
I32
sS'ish'
p330
I32
sS'w'
p331
I20
sS'yun'
p332
I32
sS'(at'
p333
I29
sS'out\xe2\x80\x9d'
p334
I32
sS'south'
p335
I31
sS'lay'
p336
I32
sS'blind'
p337
I32
sS'already'
p338
I31
sS'dont'
p339
I32
sS'dina'
p340
I32
sS'feel'
p341
I28
sS'one'
p342
I31
sS'feet'
p343
I32
sS'wash'
p344
I32
sS'done'
p345
I30
sS'bitch'
p346
I29
sS'another'
p347
I31
sS'mcflurry'
p348
I32
sS'clarity'
p349
I31
sS'miss'
p350
I30
sS'hood'
p351
I32
sS'city'
p352
I31
sS'little'
p353
I29
sS'long'
p354
I32
sS'take!lmfaoo'
p355
I32
sS'become'
p356
I32
sS'top'
p357
I31
sS'least'
p358
I32
sS'their'
p359
I32
sS'fml'
p360
I32
sS'2'
p361
I30
sS'too'
p362
I31
sS'/sam'
p363
I32
sS'legs'
p364
I32
sS'dogs'
p365
I32
sS'friend'
p366
I32
sS'toe'
p367
I32
sS'that'
p368
I16
sS'completed'
p369
I32
sS'park'
p370
I32
sS'took'
p371
I32
sS'dentist'
p372
I32
sS'part'
p373
I31
sS'because'
p374
I32
sS'bieber'
p375
I32
sS'x3'
p376
I32
sS'copy'
p377
I32
sS'than'
p378
I32
sS'boyfriend'
p379
I32
sS'professionals'
p380
I32
sS'lmao'
p381
I30
sS'17'
p382
I32
sS'18'
p383
I32
sS'gotta'
p384
I29
sS'meanie'
p385
I32
sS'second'
p386
I32
sS'demarcus'
p387
I32
sS'perdiendo'
p388
I32
sS'loves'
p389
I32
sS'were'
p390
I32
sS'sister'
p391
I32
sS'ousted'
p392
I31
sS'anyways'
p393
I32
sS'and'
p394
I12
sS'sees'
p395
I32
sS'hoes'
p396
I32
sS'mind'
p397
I32
sS'sad'
p398
I32
sS'talking'
p399
I32
sS'say'
p400
I32
sS'have'
p401
I25
sS'need'
p402
I30
sS'seen'
p403
I32
sS'backseat'
p404
I32
sS'sat'
p405
I32
sS'lie'
p406
I32
sS'min'
p407
I32
sS'-'
p408
I23
sS'ohmahgah'
p409
I32
sS'best'
p410
I32
sS'roadside'
p411
I32
sS'funniest'
p412
I32
sS'uggghh\xe2\x9c\x8b'
p413
I32
sS'irritated'
p414
I32
sS'='
p415
I32
sS'said'
p416
I32
sS'play'
p417
I32
sS'sure'
p418
I32
sS'unless'
p419
I32
sS'goodbye'
p420
I32
sS'though'
p421
I32
sS'who'
p422
I31
sS'paid'
p423
I32
sS'freddie'
p424
I32
sS'most'
p425
I32
sS'cupcakes'
p426
I32
sS'tall'
p427
I32
sS'nothing'
p428
I31
sS'america'
p429
I27
sS'why'
p430
I30
sS'prove'
p431
I32
sS'forever'
p432
I32
sS'consequences'
p433
I32
sS'aisha'
p434
I32
sS'alarm'
p435
I32
sS'later'
p436
I32
sS'drive'
p437
I31
sS'faithless'
p438
I32
sS'playing'
p439
I31
sS'freeway'
p440
I32
sS'definitely'
p441
I32
sS'cuz'
p442
I32
sS'fact'
p443
I30
sS'shop'
p444
I31
sS'saying'
p445
I32
sS'ugh'
p446
I32
sS'shot'
p447
I32
sS'childishh'
p448
I32
sS'text'
p449
I31
sS'manchester'
p450
I15
sS'solutions'
p451
I32
sS'supporter'
p452
I32
sS'thigh'
p453
I32
sS'o'
p454
I32
sS'believe'
p455
I32
sS'bff'
p456
I32
sS'cousins'
p457
I32
sS'should'
p458
I32
sS'yea'
p459
I31
sS'only'
p460
I29
sS'going'
p461
I30
sS'pretty'
p462
I31
sS'pegs'
p463
I32
sS":'c"
p464
I32
sS'hope'
p465
I31
sS'estas'
p466
I32
sS'do'
p467
I24
sS'his'
p468
I30
sS'get'
p469
I28
sS'assistant'
p470
I32
sS'dope'
p471
I32
sS'sup'
p472
I32
sS'stop'
p473
I31
sS'tbt'
p474
I32
sS'tbh'
p475
I30
sS'breast'
p476
I32
sS'words'
p477
I32
sS'applying'
p478
I32
sS'=/'
p479
I32
sS'years'
p480
I31
sS'=)'
p481
I32
sS'him'
p482
I25
sS'skeeeetttch'
p483
I32
sS'think'
p484
I32
sS'keyishacole'
p485
I32
sS'brain'
p486
I32
sS'married'
p487
I32
sS'bae'
p488
I31
sS'she'
p489
I30
sS'through'
p490
I32
sS'bought'
p491
I32
sS'where'
p492
I30
sS'lomita'
p493
I32
sS"y'all"
p494
I32
sS'body'
p495
I32
sS'fair'
p496
I32
sS'intelligence'
p497
I32
sS'notice'
p498
I32
sS'edition'
p499
I32
sS'see'
p500
I30
sS'decided'
p501
I31
sS'college'
p502
I32
sS'are'
p503
I30
sS'sea'
p504
I32
sS'hell'
p505
I32
sS'miserable'
p506
I32
sS'packed'
p507
I32
sS'seems'
p508
I32
sS'brazil'
p509
I32
sS'step-mom'
p510
I32
sS'error'
p511
I32
sS'visiting'
p512
I32
sS'please'
p513
I30
sS'its'
p514
I31
sS'glorious'
p515
I32
sS'3'
p516
I31
sS'won'
p517
I32
sS'hotboxing'
p518
I32
sS"bff's"
p519
I32
sS'across'
p520
I32
sS'360'
p521
I32
sS'pants'
p522
I32
sS'we'
p523
I27
sS'amen'
p524
I32
sS'a.m'
p525
I32
sS'weak'
p526
I32
sS'stress'
p527
I32
sS'job'
p528
I32
sS'omw'
p529
I31
sS'here'
p530
I30
sS'hurts'
p531
I32
sS'hahaha'
p532
I32
sS'last'
p533
I32
sS'taking'
p534
I32
sS"he's"
p535
I31
sS'ahora'
p536
I32
sS'keta'
p537
I32
sS'games'
p538
I32
sS'planned'
p539
I32
sS'faces'
p540
I32
sS'argue'
p541
I31
sS'whole'
p542
I31
sS"can't"
p543
I30
sS'con'
p544
I31
sS'vent'
p545
I32
sS'can'
p546
I31
sS'24hr'
p547
I32
sS'smith'
p548
I32
sS'ca'
p549
I32
sS'spank'
p550
I31
sS'2nd'
p551
I32
sS'army'
p552
I32
sS'tony'
p553
I32
sS'actually'
p554
I31
sS'late'
p555
I32
sS'petty'
p556
I31
sS'asks'
p557
I32
sS"it's"
p558
I26
sS'claiming'
p559
I32
sS'been'
p560
I32
sS'hitting'
p561
I32
sS'much'
p562
I31
sS'damn'
p563
I32
sS'make-up'
p564
I32
sS'beez'
p565
I32
sS'attractive'
p566
I32
sS'website'
p567
I32
sS'life'
p568
I25
sS"where's"
p569
I32
sS'crying'
p570
I32
sS"what's"
p571
I28
sS'else'
p572
I30
sS"doesn't"
p573
I32
sS'wake'
p574
I31
sS'child'
p575
I32
sS'those'
p576
I32
sS'mandan'
p577
I32
sS'splits'
p578
I32
sS'these'
p579
I32
sS'straight'
p580
I32
sS'tip'
p581
I32
sS'single'
p582
I32
sS'choices'
p583
I32
sS'will'
p584
I31
sS'melted'
p585
I32
sS'accidently'
p586
I32
sS"haven't"
p587
I32
sS'pollo'
p588
I25
sS'fun'
p589
I31
sS'slapping'
p590
I32
sS"wouldn't"
p591
I32
sS'ive'
p592
I32
sS'4mil'
p593
I32
sS'almost'
p594
I32
sS'soil'
p595
I32
sS'is'
p596
I16
sS'it'
p597
I20
sS'shame'
p598
I32
sS'cant'
p599
I32
sS'someone'
p600
I30
sS'im'
p601
I30
sS'in'
p602
I14
sS'ready'
p603
I32
sS'ave'
p604
I20
sS'if'
p605
I30
sS'tattoo'
p606
I31
sS'handsome'
p607
I32
sS'anymore'
p608
I31
sS'things'
p609
I32
sS'make'
p610
I30
sS'god2'
p611
I32
sS'gibbs'
p612
I32
sS'pak'
p613
I32
sS'eww'
p614
I32
sS'pan'
p615
I32
sS'week'
p616
I32
sS'finish'
p617
I32
sS'social'
p618
I32
sS'hang'
p619
I32
sS'yesterday'
p620
I30
sS'weed'
p621
I32
sS'ion'
p622
I32
sS'moment'
p623
I32
sS'feeling.\xe2\x80\x9d'
p624
I32
sS'l.a'
p625
I32
sS'implement'
p626
I32
sS'understand'
p627
I32
sS'\xe2\x9c\x8c\xef\xb8\x8f'
p628
I31
sS'off'
p629
I27
sS'i'
p630
I6
sS'popeyes'
p631
I32
sS'argueing'
p632
I32
sS'well'
p633
I31
sS'anybody'
p634
I32
sS'tho'
p635
I30
sS'de'
p636
I32
sS'comes'
p637
I31
sS'y'
p638
I32
sS'the'
p639
I7
sS'taller'
p640
I32
sS'just'
p641
I16
sS'is1'
p642
I32
sS'being'
p643
I31
sS'money'
p644
I31
sS'laptop'
p645
I32
sS'adjustments'
p646
I32
sS'sleepy'
p647
I31
sS'backflip'
p648
I32
sS'(i'
p649
I32
sS'thanks'
p650
I32
sS'yep'
p651
I31
sS'praying'
p652
I32
sS'yet'
p653
I32
sS'mannn'
p654
I32
sS'letting'
p655
I32
sS'tonys'
p656
I32
sS'nikka'
p657
I32
sS'cup'
p658
I32
sS'thinking'
p659
I32
sS'tmnt'
p660
I32
sS'had'
p661
I32
sS'chaysa'
p662
I32
sS'lets'
p663
I32
sS'4'
p664
I31
sS'easy'
p665
I32
sS'relevance'
p666
I32
sS'has'
p667
I31
sS'homework'
p668
I32
sS'gave'
p669
I30
sS'real'
p670
I32
sS'ducked'
p671
I32
sS'emergency'
p672
I32
sS'problemsand'
p673
I32
sS'big'
p674
I31
sS'couple'
p675
I32
sS'gonna'
p676
I30
sS'neuer'
p677
I32
sS'matters'
p678
I32
sS'know'
p679
I30
sS'mom'
p680
I31
sS'judge'
p681
I32
sS'world'
p682
I32
sS'walk'
p683
I32
sS'lady'
p684
I32
sS'apart'
p685
I32
sS'trash'
p686
I32
sS'sisso'
p687
I32
sS'like'
p688
I27
sS'lost'
p689
I32
sS'honestly'
p690
I32
sS'(101'
p691
I20
sS'night'
p692
I31
sS'roscoes'
p693
I31
sS'shit..let'
p694
I32
sS'right'
p695
I27
sS'old'
p696
I32
sS'deal'
p697
I31
sS'people'
p698
I30
sS'fucking'
p699
I30
sS'some'
p700
I27
sS'back'
p701
I32
sS'dead'
p702
I32
sS'eddie'
p703
I32
sS'trippen'
p704
I32
sS'home'
p705
I31
sS'pickles'
p706
I30
sS'quiz\xc3\xa1'
p707
I32
sS'tmr'
p708
I32
sS'trust'
p709
I32
sS'lotta'
p710
I32
sS'for'
p711
I19
sS'does'
p712
I32
sS'('
p713
I32
sS'comparas'
p714
I32
sS'foo'
p715
I32
sS'be'
p716
I17
sS'bf'
p717
I32
sS'eating'
p718
I32
sS'business'
p719
I32
sS'bc'
p720
I32
sS's/o'
p721
I32
sS'broken'
p722
I31
sS'wowie'
p723
I32
sS'bs'
p724
I32
sS'embarassing'
p725
I32
sS'super'
p726
I32
sS'by'
p727
I30
sS'on'
p728
I18
sS'about'
p729
I29
sS'central'
p730
I31
sS'working'
p731
I32
sS'oh'
p732
I32
sS'meow'
p733
I32
sS'of'
p734
I11
sS'months'
p735
I32
sS"mcdonald's"
p736
I4
sS'mhhmm'
p737
I32
sS'angeles'
p738
I3
sS'dinner'
p739
I32
sS'seeds'
p740
I32
sS'stand'
p741
I32
sS'act'
p742
I32
sS'1972'
p743
I32
sS'wanna'
p744
I31
sS'or'
p745
I30
sS'ppl'
p746
I32
sS'seeing'
p747
I32
sS'fertile'
p748
I32
sS'2nite'
p749
I32
sS'pussy'
p750
I32
sS'into'
p751
I32
sS'repair'
p752
I32
sS'son'
p753
I30
sS'down'
p754
I31
sS'ppr'
p755
I31
sS'momma'
p756
I32
sS'nigga'
p757
I27
sS'homeless'
p758
I32
sS'lieu'
p759
I32
sS'your'
p760
I29
sS'wan'
p761
I32
sS'decisions'
p762
I32
sS'her'
p763
I31
sS'dnt'
p764
I32
sS'weekend'
p765
I32
sS'lagged'
p766
I32
sS'there'
p767
I30
sS'ca)'
p768
I3
sS'lol'
p769
I18
sS'los'
p770
I19
sS'lonely'
p771
I32
sS'low'
p772
I32
sS'way'
p773
I32
sS'bruh'
p774
I32
sS'bored'
p775
I31
sS'was'
p776
I23
sS'surgery"'
p777
I32
sS'crips'
p778
I32
sS'happy'
p779
I32
sS'buy'
p780
I32
sS"i've"
p781
I32
sS'bitches'
p782
I30
sS'but'
p783
I19
sS'boys'
p784
I32
sS'tommrow'
p785
I32
sS'trying'
p786
I32
sS'with'
p787
I21
sS'eat'
p788
I32
sS'he'
p789
I29
sS'smelled'
p790
I32
sS'happen'
p791
I32
sS'comics'
p792
I32
sS'wish'
p793
I32
sS'up'
p794
I19
sS'strawberry'
p795
I32
sS'dirty'
p796
I32
sS'manuel'
p797
I32
sS'emotional'
p798
I32
sS'called'
p799
I32
sS'me\xe2\x9c\x8a'
p800
I32
sS'gone'
p801
I30
sS'proud'
p802
I32
sS'year'
p803
I32
sS'am'
p804
I32
sS'an'
p805
I29
sS'as'
p806
I27
sS'warning'
p807
I32
sS'at'
p808
I2
sS'portland'
p809
I32
sS'shit'
p810
I25
sS'hasnt'
p811
I32
sS'no'
p812
I28
sS'agreeing'
p813
I32
sS'fixing'
p814
I32
sS'nah'
p815
I32
sS'when'
p816
I30
sS'40'
p817
I32
sS'excuses'
p818
I32
sS'pasadena'
p819
I32
sS'5'
p820
I32
sS'lifestyle'
p821
I32
sS'sick'
p822
I32
sS'you'
p823
I13
sS'wing'
p824
I32
sS'nice'
p825
I30
sS'poop'
p826
I32
sS'brothers'
p827
I32
sS'online...like'
p828
I32
sS'teeth'
p829
I32
sS'problems'
p830
I32
sS'cnt'
p831
I32
sS'=('
p832
I32
sS'stay'
p833
I31
sS'(respectively)'
p834
I32
sS"daddy's"
p835
I32
sS'rp'
p836
I32
sS'hurt'
p837
I32
sS'blazin'
p838
I32
sS'ago'
p839
I31
sS'e'
p840
I31
sS'trail'
p841
I32
sS'fresa'
p842
I32
sS'u'
p843
I27
sS"we're"
p844
I32
sS'time'
p845
I28
sS'push'
p846
I31
sS"ain't"
p847
I27
sS'"the'
p848
I32
sS'starting'
p849
I32
sS'having'
p850
I31
s.