(dp0
S''
p1
I1
sS'cheetos'
p2
I19
sS'all'
p3
I17
sS':('
p4
I19
sS',90003\n515352047026049024,69_this_,2014-09-26'
p5
I19
sS'msgs'
p6
I19
sS'dance'
p7
I19
sS'sleep'
p8
I15
sS'follow'
p9
I19
sS'looking'
p10
I19
sS'ver'
p11
I19
sS'buddy'
p12
I19
sS'ass,90003\n515346289257480192,69_this_,2014-09-26'
p13
I19
sS'tv'
p14
I19
sS'tweet'
p15
I19
sS'send'
p16
I19
sS'to'
p17
I4
sS'finally'
p18
I19
sS'asking'
p19
I19
sS'ven'
p20
I19
sS'shitt\xe2\x80\x9d'
p21
I19
sS'regan'
p22
I19
sS'worth'
p23
I19
sS'woman'
p24
I19
sS'selfies'
p25
I19
sS'fan'
p26
I19
sS'fall'
p27
I19
sS'telling'
p28
I19
sS'bringing'
p29
I19
sS'mando'
p30
I19
sS'cool'
p31
I19
sS'school'
p32
I19
sS'niggas'
p33
I19
sS'ryan'
p34
I19
sS'open-mindedness'
p35
I19
sS'guy'
p36
I19
sS'clothes'
p37
I19
sS"i'll"
p38
I19
sS'creepin'
p39
I19
sS'strechh'
p40
I19
sS'work'
p41
I19
sS'booty'
p42
I19
sS'\xee\x90\x85'
p43
I19
sS'direct'
p44
I19
sS'nail'
p45
I19
sS'blue'
p46
I19
sS'what'
p47
I14
sS'ayudar'
p48
I19
sS'seconds'
p49
I19
sS'bipolar'
p50
I19
sS'snapcht'
p51
I19
sS'ever'
p52
I19
sS'lessons'
p53
I19
sS'toes'
p54
I19
sS'grandparents'
p55
I19
sS'never'
p56
I17
sS'here'
p57
I18
sS'met'
p58
I19
sS'flores'
p59
I19
sS'let'
p60
I18
sS'making'
p61
I19
sS'alone'
p62
I18
sS'hereeee'
p63
I19
sS'boy'
p64
I19
sS'great'
p65
I18
sS'lol'
p66
I10
sS'changed'
p67
I19
sS'"why'
p68
I19
sS'3)'
p69
I19
sS"i'd"
p70
I19
sS'smoke'
p71
I19
sS'pick'
p72
I19
sS'weird'
p73
I19
sS'makes'
p74
I19
sS'options'
p75
I19
sS'thats'
p76
I19
sS'love'
p77
I16
sS'extra'
p78
I19
sS'vapors'
p79
I19
sS'bro'
p80
I19
sS'tatis'
p81
I9
sS'txt'
p82
I19
sS'would'
p83
I19
sS'&'
p84
I17
sS'dude'
p85
I19
sS'next'
p86
I18
sS'music'
p87
I19
sS'chu'
p88
I19
sS'thru'
p89
I19
sS'tell'
p90
I18
sS'today'
p91
I15
sS'shitt'
p92
I19
sS'tryna'
p93
I19
sS'knows'
p94
I19
sS'04:07:57.0,33.9415968,-118.2712638,2411.10,but'
p95
I19
sS'brings'
p96
I19
sS'haha'
p97
I19
sS'mira'
p98
I19
sS'hurt'
p99
I19
sS"ain't"
p100
I18
sS'baby'
p101
I19
sS'glad'
p102
I19
sS'must'
p103
I19
sS'me'
p104
I6
sS'kroger'
p105
I19
sS'armpits'
p106
I19
sS'this'
p107
I10
sS'car'
p108
I15
sS'getting'
p109
I19
sS'mi'
p110
I19
sS'soul'
p111
I19
sS'calder\xc3\xb3n'
p112
I19
sS'can'
p113
I16
sS'learn'
p114
I19
sS'meet'
p115
I19
sS'my'
p116
I5
sS'heart'
p117
I19
sS'give'
p118
I19
sS'fuck'
p119
I16
sS'lammee'
p120
I19
sS'high'
p121
I18
sS'something'
p122
I18
sS'want'
p123
I17
sS'species'
p124
I19
sS'absolute'
p125
I19
sS'sit'
p126
I19
sS'needa'
p127
I19
sS'sunday'
p128
I19
sS'buenos'
p129
I19
sS'suffer'
p130
I19
sS'mas'
p131
I19
sS'okay'
p132
I19
sS'scion'
p133
I19
sS'03:45:04.0,33.9415759,-118.2713002,2411.10,lmfao'
p134
I19
sS'grooving'
p135
I19
sS'lmfaoo'
p136
I18
sS'latte'
p137
I19
sS'fart'
p138
I18
sS'4th'
p139
I19
sS'minding'
p140
I19
sS'coast'
p141
I19
sS'man'
p142
I19
sS'a'
p143
I5
sS'short'
p144
I19
sS'third'
p145
I19
sS'whenever'
p146
I19
sS'eats'
p147
I19
sS'su'
p148
I19
sS'think'
p149
I19
sS'hasta'
p150
I18
sS'chief'
p151
I19
sS'honestly'
p152
I19
sS'every'
p153
I19
sS'dream'
p154
I19
sS'se'
p155
I19
sS"that's"
p156
I18
sS"don't"
p157
I15
sS'over'
p158
I18
sS'fam'
p159
I19
sS'nombe'
p160
I19
sS'aha'
p161
I19
sS'looks'
p162
I18
sS'ma\xc3\xb1ana'
p163
I19
sS'hell'
p164
I19
sS'still'
p165
I17
sS'its'
p166
I18
sS'roots'
p167
I19
sS'before'
p168
I19
sS'dieing'
p169
I19
sS'venti'
p170
I19
sS'20'
p171
I18
sS'la'
p172
I15
sS'lo'
p173
I18
sS'hot'
p174
I18
sS'better'
p175
I15
sS'personas'
p176
I19
sS'bout'
p177
I19
sS'2)'
p178
I19
sS"haven't"
p179
I18
sS'then'
p180
I17
sS'good'
p181
I12
sS'ya'
p182
I19
sS'males'
p183
I19
sS"we'll"
p184
I19
sS'they'
p185
I18
sS'hands'
p186
I19
sS'not'
p187
I10
sS'now'
p188
I17
sS'day'
p189
I17
sS'bouta'
p190
I19
sS'name'
p191
I19
sS'always'
p192
I19
sS'bless'
p193
I19
sS'went'
p194
I18
sS'mean'
p195
I16
sS'em'
p196
I19
sS'everyone'
p197
I18
sS'colder'
p198
I19
sS'energy'
p199
I19
sS'hard'
p200
I19
sS'yeah'
p201
I19
sS"andy's"
p202
I19
sS'ex'
p203
I18
sS'forgot'
p204
I19
sS'whacked'
p205
I19
sS'girl'
p206
I19
sS'calling'
p207
I18
sS'really'
p208
I19
sS'rt'
p209
I8
sS'try'
p210
I19
sS'lola'
p211
I18
sS'jackson'
p212
I19
sS'missed'
p213
I19
sS'driving'
p214
I18
sS'since'
p215
I18
sS'washed'
p216
I19
sS'strangers'
p217
I19
sS'smh'
p218
I19
sS'got'
p219
I15
sS'rn'
p220
I18
sS'cause'
p221
I17
sS'ass'
p222
I17
sS'cutest'
p223
I19
sS'timeline'
p224
I19
sS'molly'
p225
I19
sS'little'
p226
I19
sS'mmm'
p227
I19
sS'reason'
p228
I19
sS'que'
p229
I17
sS'asf'
p230
I19
sS'beginning'
p231
I19
sS'watts'
p232
I19
sS'could'
p233
I19
sS'days'
p234
I19
sS'keep'
p235
I19
sS'turn'
p236
I19
sS'momah'
p237
I19
sS'keef'
p238
I19
sS'loud'
p239
I19
sS'out\xe2\x80\x9d'
p240
I19
sS'first'
p241
I19
sS'already'
p242
I17
sS'dont'
p243
I19
sS'feel'
p244
I18
sS'number'
p245
I19
sS'one'
p246
I17
sS'feet'
p247
I19
sS'wash'
p248
I17
sS'done'
p249
I19
sS'bitch'
p250
I18
sS'miss'
p251
I19
sS'tomorrow'
p252
I19
sS"you're"
p253
I19
sS'guess'
p254
I19
sS'start'
p255
I19
sS'caught'
p256
I19
sS"he'll"
p257
I19
sS'anyone'
p258
I19
sS'needed'
p259
I19
sS'2'
p260
I19
sS'too'
p261
I17
sS'cuzzo'
p262
I19
sS'las'
p263
I19
sS'\xe2\x9c\x8c\xef\xb8\x8f'
p264
I19
sS'that'
p265
I13
sS'trippy'
p266
I19
sS'nahh'
p267
I19
sS'believe'
p268
I19
sS'than'
p269
I19
sS'past'
p270
I19
sS'kind'
p271
I19
sS'lmao'
p272
I18
sS'tree'
p273
I19
sS'trasquilada'
p274
I19
sS'classes'
p275
I19
sS'were'
p276
I19
sS'1)'
p277
I19
sS'milky'
p278
I19
sS'and'
p279
I11
sS'lick'
p280
I19
sS'ana'
p281
I19
sS'"cause'
p282
I19
sS'alongside'
p283
I19
sS'robot'
p284
I19
sS'say'
p285
I18
sS'have'
p286
I15
sS'need'
p287
I19
sS'take'
p288
I19
sS'saw'
p289
I19
sS'any'
p290
I19
sS'iight'
p291
I19
sS'tho'
p292
I19
sS"mf'n"
p293
I19
sS'also'
p294
I19
sS'qu\xc3\xa9'
p295
I19
sS'omggg'
p296
I19
sS'useless'
p297
I19
sS'so'
p298
I18
sS'blunt'
p299
I19
sS'even'
p300
I19
sS'\xee\x84\x85\xee\x90\x89\xee\x84\x85\xee\x80\x8e'
p301
I19
sS'who'
p302
I18
sS'most'
p303
I19
sS'courtesy'
p304
I19
sS'bahahahahhahahahahaa'
p305
I19
sS'nothing'
p306
I18
sS'why'
p307
I18
sS'forever'
p308
I19
sS'dom'
p309
I19
sS'babby'
p310
I19
sS'falta'
p311
I19
sS'upset'
p312
I18
sS'drive'
p313
I19
sS'doe'
p314
I19
sS'est\xc3\xa1n'
p315
I19
sS"you'll"
p316
I19
sS'exs'
p317
I19
sS'shot'
p318
I19
sS'chances'
p319
I19
sS'stfu'
p320
I19
sS'discriminando'
p321
I19
sS'radio'
p322
I19
sS'you,90003\n515346740342312960,69_this_,2014-09-26'
p323
I19
sS'earth'
p324
I19
sS'enjoyed'
p325
I19
sS'fifth'
p326
I19
sS'aint'
p327
I19
sS'quieren'
p328
I19
sS'('
p329
I19
sS'should'
p330
I19
sS'ed'
p331
I19
sS'only'
p332
I16
sS'hope'
p333
I19
sS'do'
p334
I14
sS'his'
p335
I18
sS'12$'
p336
I19
sS'get'
p337
I17
sS'sooo'
p338
I19
sS'de'
p339
I19
sS'watch'
p340
I17
sS'da'
p341
I18
sS'tbh'
p342
I18
sS'courage'
p343
I19
sS'words'
p344
I19
sS'during'
p345
I19
sS'delgado'
p346
I19
sS'him'
p347
I18
sS'pa\xc3\xads'
p348
I19
sS'erbody'
p349
I19
sS'morning'
p350
I12
sS'bad'
p351
I15
sS'stupid'
p352
I19
sS'where'
p353
I16
sS'worrying'
p354
I19
sS"y'all"
p355
I19
sS'college'
p356
I19
sS'are'
p357
I14
sS'hoes'
p358
I19
sS'retweet'
p359
I19
sS'said'
p360
I18
sS'away'
p361
I19
sS'please'
p362
I18
sS'3'
p363
I19
sS'fearless'
p364
I19
sS'solo'
p365
I19
sS'we'
p366
I12
sS'omg'
p367
I19
sS'missing'
p368
I19
sS'joy'
p369
I19
sS'dang'
p370
I19
sS'spray'
p371
I19
sS'wtf'
p372
I16
sS'jk'
p373
I19
sS'cousin'
p374
I19
sS'come'
p375
I17
sS'last'
p376
I19
sS'do\xc3\xb1a'
p377
I19
sS'adoree'
p378
I19
sS'interesting'
p379
I19
sS'comes'
p380
I19
sS'drunk'
p381
I19
sS'color'
p382
I19
sS'sky'
p383
I19
sS'por'
p384
I18
sS'period'
p385
I19
sS'pop'
p386
I19
sS'walk'
p387
I18
sS'active'
p388
I19
sS'laugh'
p389
I19
sS'replying'
p390
I19
sS'desesperaci\xc3\xb3n'
p391
I19
sS'west'
p392
I19
sS'been'
p393
I18
sS'sali\xc3\xb3'
p394
I19
sS'much'
p395
I18
sS'damn'
p396
I19
sS'change'
p397
I19
sS'woke'
p398
I19
sS'>'
p399
I19
sS'life'
p400
I17
sS'lleg\xc3\xb3'
p401
I19
sS'else'
p402
I19
sS'hormel'
p403
I19
sS'chill'
p404
I19
sS'sound'
p405
I19
sS'single?"i'
p406
I19
sS'look'
p407
I19
sS'these'
p408
I16
sS'leave'
p409
I19
sS'foreverrr'
p410
I19
sS'n'
p411
I19
sS'will'
p412
I19
sS'ugliest'
p413
I19
sS'hahaha'
p414
I18
sS'periods'
p415
I19
sS'ive'
p416
I19
sS'is'
p417
I15
sS'it'
p418
I15
sS'sleeping'
p419
I19
sS'cant'
p420
I19
sS'im'
p421
I17
sS'in'
p422
I11
sS'saqueando'
p423
I19
sS'exabruptos'
p424
I19
sS'trusted'
p425
I19
sS'if'
p426
I14
sS'make'
p427
I17
sS'bowl'
p428
I19
sS'same'
p429
I18
sS'romance'
p430
I19
sS'food'
p431
I19
sS'lovers...their'
p432
I19
sS'week'
p433
I18
sS'drink'
p434
I17
sS'yesterday'
p435
I19
sS'ion'
p436
I19
sS'fucken'
p437
I19
sS'couldve'
p438
I19
sS"i'm"
p439
I16
sS'//'
p440
I19
sS'i'
p441
I2
sS'no'
p442
I18
sS'well'
p443
I18
sS'nothin'
p444
I19
sS'thought'
p445
I18
sS'without'
p446
I18
sS"can't"
p447
I19
sS'consistency'
p448
I19
sS'y'
p449
I17
sS'the'
p450
I3
sS'bumping'
p451
I19
sS'just'
p452
I13
sS'sleepy'
p453
I18
sS'saquito'
p454
I19
sS'rooms'
p455
I19
sS'human'
p456
I19
sS'touch'
p457
I19
sS'talk'
p458
I19
sS'yet'
p459
I19
sS'move'
p460
I19
sS'yesenia'
p461
I19
sS'had'
p462
I18
sS'ketchup'
p463
I19
sS'crying'
p464
I19
sS'has'
p465
I16
sS'homework'
p466
I19
sS'gave'
p467
I19
sS'real'
p468
I16
sS'around'
p469
I19
sS'read'
p470
I19
sS'possible'
p471
I19
sS'gonna'
p472
I17
sS'early'
p473
I18
sS'game'
p474
I19
sS'know'
p475
I16
sS'mom'
p476
I17
sS'muchachito'
p477
I19
sS'bit'
p478
I19
sS'brought'
p479
I19
sS'like'
p480
I13
sS'milena'
p481
I19
sS'kennedy'
p482
I19
sS'nose'
p483
I19
sS'chill?"'
p484
I19
sS'night'
p485
I18
sS'osea'
p486
I19
sS'works'
p487
I19
sS'nigga'
p488
I14
sS'cometer'
p489
I19
sS'people'
p490
I19
sS'fucking'
p491
I19
sS'scared'
p492
I19
sS'some'
p493
I17
sS'back'
p494
I18
sS'alive'
p495
I19
sS'hair'
p496
I19
sS'bronco'
p497
I19
sS'neva'
p498
I19
sS'nuanden'
p499
I19
sS'home'
p500
I18
sS'funnnny'
p501
I19
sS'enemies'
p502
I19
sS'jojo'
p503
I19
sS'for'
p504
I13
sS'memories'
p505
I17
sS'roach'
p506
I19
sS'everything'
p507
I18
sS'does'
p508
I18
sS'eso'
p509
I19
sS'\xe2\x9c\x8c\xef\xb8\x8f\xe2\x9d\xa4\xef\xb8\x8f'
p510
I19
sS'be'
p511
I11
sS'business'
p512
I19
sS'schedule'
p513
I19
sS'lmfao'
p514
I19
sS'burn'
p515
I19
sS'gmas'
p516
I19
sS'puede'
p517
I19
sS'upaet'
p518
I19
sS'graduated'
p519
I19
sS'stay'
p520
I19
sS'super'
p521
I19
sS'on'
p522
I16
sS'about'
p523
I19
sS':-)'
p524
I19
sS'oh'
p525
I18
sS'of'
p526
I13
sS'jhene'
p527
I19
sS'swear'
p528
I19
sS'03:46:52.0,33.9415532,-118.2713397,2411.10,lmfao'
p529
I19
sS"it's"
p530
I19
sS'vilma'
p531
I19
sS'wanna'
p532
I17
sS'or'
p533
I19
sS'partied'
p534
I19
sS'waaaaht'
p535
I19
sS'own'
p536
I18
sS'diga'
p537
I19
sS'pero'
p538
I19
sS'mommy'
p539
I19
sS'son'
p540
I19
sS'thankful'
p541
I19
sS'right'
p542
I19
sS'female'
p543
I19
sS'chirping'
p544
I19
sS'your'
p545
I15
sS'poniendo'
p546
I19
sS'her'
p547
I19
sS'there'
p548
I19
sS'long'
p549
I18
sS'fight'
p550
I18
sS'los'
p551
I19
sS'drank'
p552
I19
sS"we're"
p553
I17
sS'lot'
p554
I19
sS'house'
p555
I19
sS'a\xc3\xb1os'
p556
I19
sS'bored'
p557
I19
sS'was'
p558
I14
sS'earaxhe'
p559
I19
sS'largos'
p560
I19
sS'constantly'
p561
I19
sS'brand'
p562
I19
sS'slump'
p563
I19
sS'hw'
p564
I19
sS'but'
p565
I15
sS'hi'
p566
I19
sS'with'
p567
I11
sS'he'
p568
I17
sS'made'
p569
I19
sS'up'
p570
I16
sS'us'
p571
I19
sS'asf,90003\n515344555684552706,69_this_,2014-09-26'
p572
I19
sS'um'
p573
I19
sS'dirty'
p574
I19
sS'(cont)'
p575
I18
sS'more'
p576
I19
sS'asss'
p577
I19
sS'freak'
p578
I19
sS'lleva'
p579
I19
sS'moved'
p580
I19
sS'al'
p581
I19
sS'an'
p582
I16
sS'as'
p583
I18
sS'"so'
p584
I19
sS'at'
p585
I16
sS'annoying'
p586
I19
sS'shit'
p587
I18
sS'diggy'
p588
I19
sS'03:38:11.0,33.9415876,-118.2712662,2411.10,my'
p589
I19
sS'floor'
p590
I17
sS'relax'
p591
I19
sS'when'
p592
I17
sS'-the'
p593
I19
sS'sick'
p594
I19
sS'aiko'
p595
I19
sS'you'
p596
I7
sS'out'
p597
I18
sS'smell'
p598
I19
sS'happens'
p599
I19
sS'noche'
p600
I19
sS'booger'
p601
I19
sS'pobres'
p602
I19
sS'now,90003\n515343219484147712,69_this_,2014-09-26'
p603
I19
sS'upset*'
p604
I19
sS'pierced'
p605
I19
sS'friends'
p606
I17
sS'shit."'
p607
I19
sS'lana'
p608
I19
sS'age'
p609
I19
sS'muchos'
p610
I19
sS'together'
p611
I19
sS'u'
p612
I16
sS'time'
p613
I16
sS'alright'
p614
I19
sS'having'
p615
I19
s.