(dp0
S''
p1
I1
sS'raining'
p2
I33
sS'all'
p3
I31
sS':)'
p4
I29
sS'clubhouse'
p5
I33
sS'yellow'
p6
I33
sS'gd'
p7
I33
sS'sleep'
p8
I32
sS'/'
p9
I33
sS'hating'
p10
I33
sS'go'
p11
I24
sS'chair'
p12
I33
sS'captain'
p13
I33
sS'hate'
p14
I33
sS'row'
p15
I33
sS'zone'
p16
I33
sS'surrreeeeee'
p17
I33
sS'young'
p18
I33
sS'send'
p19
I33
sS'to'
p20
I4
sS'bike'
p21
I31
sS'marks'
p22
I33
sS'lord'
p23
I33
sS'list....asap'
p24
I33
sS'sent'
p25
I33
sS'reachin'
p26
I33
sS'........not'
p27
I33
sS'song'
p28
I32
sS'very'
p29
I30
sS'pages'
p30
I33
sS'rise'
p31
I33
sS'every'
p32
I28
sS'college???u'
p33
I33
sS'chic...........work'
p34
I33
sS'yourselves'
p35
I33
sS'trouble'
p36
I33
sS'difference'
p37
I33
sS'screaming'
p38
I33
sS'cool'
p39
I33
sS'pueblo'
p40
I33
sS'school'
p41
I28
sS'7:8'
p42
I33
sS'did'
p43
I30
sS'nudes'
p44
I33
sS'march(-'
p45
I33
sS'list'
p46
I33
sS'brother'
p47
I32
sS'birds..git'
p48
I33
sS'leave'
p49
I32
sS'solid'
p50
I33
sS'zein'
p51
I33
sS'skate'
p52
I33
sS'subway'
p53
I33
sS'oooh'
p54
I33
sS'guy'
p55
I30
sS"wit'chu"
p56
I33
sS'heading'
p57
I33
sS'yall'
p58
I32
sS"i'll"
p59
I32
sS'benjamin'
p60
I33
sS'spiritual'
p61
I33
sS'work'
p62
I30
sS'says'
p63
I33
sS'instagram'
p64
I32
sS'till'
p65
I33
sS'phones'
p66
I32
sS'yourself'
p67
I33
sS'bullshit!\xe2\x9c\x8b\xe2\x80\x9d'
p68
I33
sS'waking'
p69
I33
sS'captures'
p70
I33
sS'talks'
p71
I33
sS'mia'
p72
I33
sS'video'
p73
I32
sS'shirts'
p74
I33
sS'picked'
p75
I33
sS'pass'
p76
I33
sS'gm'
p77
I33
sS'even'
p78
I31
sS'casteth'
p79
I33
sS'what'
p80
I21
sS'todaaay'
p81
I33
sS'ruben'
p82
I33
sS'giving'
p83
I33
sS'fine'
p84
I33
sS'multimedia'
p85
I33
sS'stool'
p86
I33
sS'fucks'
p87
I33
sS'emotions'
p88
I33
sS'seconds'
p89
I33
sS'suspect'
p90
I33
sS'goes'
p91
I32
sS'new'
p92
I29
sS'ever'
p93
I31
sS'guns'
p94
I33
sS'filled'
p95
I33
sS'body'
p96
I33
sS'full'
p97
I33
sS'leg'
p98
I31
sS'join'
p99
I33
sS'never'
p100
I27
sS'here'
p101
I30
sS'jowie'
p102
I33
sS'\xe2\x9d\xa4\xef\xb8\x8f'
p103
I31
sS'focused'
p104
I33
sS'making'
p105
I33
sS'sing'
p106
I33
sS'100'
p107
I33
sS'imperfections'
p108
I33
sS'wait'
p109
I33
sS'boy'
p110
I33
sS'drops'
p111
I33
sS'condoms'
p112
I33
sS'boast'
p113
I33
sS'marijuana'
p114
I33
sS'pearls'
p115
I33
sS'eastside'
p116
I30
sS'30'
p117
I33
sS'"why'
p118
I33
sS'jackie'
p119
I32
sS'creepy'
p120
I33
sS'fuk'
p121
I33
sS'diagnosed'
p122
I33
sS'boo'
p123
I33
sS'military'
p124
I33
sS"i'm"
p125
I15
sS'~'
p126
I33
sS"dad's"
p127
I33
sS'13:4'
p128
I33
sS'wassup'
p129
I33
sS'love'
p130
I16
sS'extra'
p131
I33
sS'win'
p132
I33
sS'merely'
p133
I33
sS'feelings'
p134
I31
sS'patience'
p135
I33
sS'18:10'
p136
I33
sS'names'
p137
I33
sS'everybody'
p138
I33
sS'cha'
p139
I33
sS'use'
p140
I33
sS'from'
p141
I26
sS'figure'
p142
I33
sS'would'
p143
I28
sS'&'
p144
I13
sS'aye'
p145
I32
sS'dude'
p146
I33
sS'two'
p147
I32
sS'next'
p148
I32
sS'few'
p149
I33
sS'live'
p150
I33
sS'program'
p151
I33
sS'music'
p152
I33
sS'6'
p153
I33
sS'means'
p154
I32
sS'tryin'
p155
I33
sS'angels'
p156
I33
sS'tell'
p157
I30
sS'today'
p158
I27
sS'more'
p159
I30
sS'rasheeda'
p160
I33
sS'door'
p161
I32
sS'knows'
p162
I32
sS'faith'
p163
I33
sS'club'
p164
I33
sS'explores'
p165
I33
sS'sister'
p166
I33
sS'hurt'
p167
I32
sS'phone'
p168
I31
sS"5'9"
p169
I33
sS'train'
p170
I32
sS'willowbrook'
p171
I28
sS'basically'
p172
I33
sS'broke'
p173
I33
sS'baby'
p174
I32
sS"5'1"
p175
I33
sS'effort'
p176
I33
sS'riders'
p177
I30
sS'must'
p178
I33
sS'me'
p179
I8
sS'word'
p180
I32
sS'hour'
p181
I32
sS'this'
p182
I12
sS'car'
p183
I33
sS'getting'
p184
I32
sS'ass\xe2\x80\x9d'
p185
I33
sS'soul'
p186
I33
sS'hardest'
p187
I33
sS'mile'
p188
I33
sS'can'
p189
I27
sS'learn'
p190
I33
sS'meet'
p191
I32
sS'm&m'
p192
I33
sS'homewreckers'
p193
I33
sS'my'
p194
I5
sS'thief'
p195
I33
sS'heart'
p196
I30
sS'crazy'
p197
I32
sS'no.\xe2\x80\x9d'
p198
I33
sS'thirsty'
p199
I33
sS'give'
p200
I30
sS'awesome'
p201
I33
sS'fuck'
p202
I28
sS'100"'
p203
I33
sS'high'
p204
I33
sS'ready'
p205
I33
sS'his'
p206
I33
sS'something'
p207
I32
sS'want'
p208
I31
sS'story'
p209
I33
sS'8:48"'
p210
I33
sS'summers'
p211
I33
sS'needs'
p212
I33
sS't.v'
p213
I33
sS'iggy'
p214
I33
sS'get'
p215
I24
sS'1'
p216
I33
sS'how'
p217
I30
sS'hot'
p218
I32
sS'forest'
p219
I33
sS'ilove'
p220
I33
sS'chase'
p221
I33
sS'beach'
p222
I32
sS"doesn't"
p223
I32
sS'serenity'
p224
I33
sS'staying'
p225
I33
sS'okay'
p226
I32
sS'mouths'
p227
I33
sS'may'
p228
I33
sS'stop'
p229
I33
sS'after'
p230
I29
sS'blocks'
p231
I33
sS'jj'
p232
I33
sS'wrong'
p233
I33
sS'birthday'
p234
I29
sS'mad'
p235
I33
sS'0.o'
p236
I33
sS'coming'
p237
I32
sS'date'
p238
I33
sS'invasion'
p239
I33
sS'people.tweets'
p240
I33
sS'guys'
p241
I32
sS'avengers'
p242
I33
sS'man'
p243
I31
sS'a'
p244
I9
sS'short'
p245
I33
sS'remember'
p246
I33
sS'light'
p247
I33
sS'-mat'
p248
I33
sS'friendzoned'
p249
I33
sS'so'
p250
I18
sS'deceive'
p251
I33
sS'pay'
p252
I33
sS'pleasure'
p253
I33
sS'order'
p254
I33
sS'you&jojo!!!hell'
p255
I33
sS"that's"
p256
I30
sS'cute'
p257
I33
sS'ivans'
p258
I33
sS'mexican'
p259
I33
sS'kick'
p260
I33
sS"don't"
p261
I22
sS'essence'
p262
I33
sS'over'
p263
I31
sS'move'
p264
I33
sS'sooo'
p265
I32
sS'soon'
p266
I32
sS'cross'
p267
I33
sS'brain'
p268
I33
sS'through'
p269
I33
sS'looks'
p270
I33
sS'mabel'
p271
I33
sS'cuts'
p272
I33
sS'hell'
p273
I33
sS'cold'
p274
I33
sS'still'
p275
I26
sS'its'
p276
I32
sS'ima'
p277
I31
sS'messed'
p278
I33
sS'thank'
p279
I30
sS"he's"
p280
I29
sS'interesting'
p281
I33
sS'[pic]'
p282
I33
sS'better'
p283
I27
sS'>>>'
p284
I33
sS'holiday'
p285
I32
sS'on??.......quicksand'
p286
I33
sS'2010'
p287
I33
sS"haven't"
p288
I33
sS'2012'
p289
I33
sS'dad'
p290
I33
sS'flex'
p291
I33
sS'them'
p292
I30
sS'good'
p293
I31
sS'yo'
p294
I32
sS'grip'
p295
I33
sS'food'
p296
I33
sS'pointe"'
p297
I33
sS'yg'
p298
I33
sS'replyed'
p299
I33
sS'answer'
p300
I33
sS"you've"
p301
I33
sS'\xe2\x98\xba\xef\xb8\x8f'
p302
I31
sS'half'
p303
I33
sS'not'
p304
I20
sS'now'
p305
I30
sS'day'
p306
I22
sS'association'
p307
I33
sS'analyzed&'
p308
I33
sS'wont'
p309
I33
sS'off??lol'
p310
I33
sS'6am7am'
p311
I33
sS'bit!!!!!god'
p312
I33
sS'always'
p313
I27
sS'drop'
p314
I33
sS'lucy'
p315
I33
sS'rocks'
p316
I33
sS'weather'
p317
I33
sS'stopped'
p318
I33
sS'rock'
p319
I30
sS'108th'
p320
I28
sS'went'
p321
I33
sS'becpme'
p322
I33
sS'side'
p323
I32
sS"isn't"
p324
I33
sS'mean'
p325
I30
sS'wlcac)'
p326
I33
sS'harm'
p327
I33
sS'everyone'
p328
I29
sS'bueno'
p329
I33
sS'doing'
p330
I33
sS'house'
p331
I32
sS'fish'
p332
I33
sS'hard'
p333
I31
sS'yeah'
p334
I30
sS'society'
p335
I33
sS'\xe2\x9c\x8c\xef\xb8\x8f'
p336
I33
sS'year'
p337
I32
sS'our'
p338
I31
sS'girl'
p339
I30
sS'beyond'
p340
I33
sS'out'
p341
I22
sS'hacker'
p342
I33
sS'try'
p343
I33
sS'opened'
p344
I33
sS'stuu'
p345
I33
sS'god'
p346
I32
sS'since'
p347
I31
sS'nights!!;)'
p348
I33
sS'-james'
p349
I33
sS'looking'
p350
I32
sS'....fine'
p351
I33
sS'stupid'
p352
I33
sS'got'
p353
I28
sS'rn'
p354
I32
sS'chaffey'
p355
I33
sS'cause'
p356
I30
sS'shows'
p357
I33
sS'ass'
p358
I28
sS'foundation'
p359
I33
sS'shut'
p360
I32
sS'lag'
p361
I33
sS'o.o'
p362
I33
sS"hailey's"
p363
I33
sS"you're"
p364
I30
sS'frank'
p365
I33
sS'lmu'
p366
I33
sS'-1john'
p367
I33
sS'werid'
p368
I33
sS'wizard'
p369
I33
sS'reason'
p370
I33
sS'-acts'
p371
I33
sS'surely'
p372
I33
sS'asf'
p373
I31
sS'ask'
p374
I32
sS'"en'
p375
I33
sS'beginning'
p376
I33
sS'craving'
p377
I33
sS'thinks'
p378
I33
sS'watts'
p379
I32
sS'holding'
p380
I33
sS'allies'
p381
I33
sS'dayum'
p382
I33
sS'"how'
p383
I33
sS'could'
p384
I31
sS'atm'
p385
I33
sS'kiss'
p386
I32
sS'days'
p387
I32
sS'keep'
p388
I30
sS'thing'
p389
I32
sS'+1'
p390
I33
sS'heck'
p391
I33
sS'place'
p392
I33
sS'ashely'
p393
I33
sS'daisy'
p394
I32
sS'think'
p395
I31
sS'fuckin'
p396
I32
sS'first'
p397
I31
sS'already'
p398
I25
sS'feel'
p399
I30
sS'number'
p400
I32
sS'one'
p401
I27
sS'feet'
p402
I32
sS'pop'
p403
I32
sS'done'
p404
I32
sS'bitch'
p405
I29
sS'spanish'
p406
I33
sS'impossible'
p407
I32
sS'ring'
p408
I32
sS'cattnapp'
p409
I33
sS'miss'
p410
I32
sS'tomorrow'
p411
I31
sS'sheep'
p412
I33
sS'city'
p413
I32
sS'little'
p414
I32
sS'"'
p415
I33
sS'wrath'
p416
I33
sS'service'
p417
I33
sS'los'
p418
I33
sS'festival'
p419
I33
sS'top'
p420
I33
sS'night'
p421
I33
sS'girls'
p422
I33
sS'their'
p423
I31
sS'attack'
p424
I33
sS'2'
p425
I32
sS'*gains'
p426
I33
sS'too'
p427
I30
sS'typing'
p428
I33
sS'mama'
p429
I33
sS'thru'
p430
I33
sS'perfectly'
p431
I33
sS'jen'
p432
I33
sS'dogs'
p433
I33
sS'friend'
p434
I32
sS'listen'
p435
I33
sS'meme'
p436
I33
sS'urban'
p437
I33
sS'eyes'
p438
I33
sS'x)'
p439
I33
sS'relationship'
p440
I33
sS'that'
p441
I16
sS'nobody'
p442
I33
sS'wisdom'
p443
I33
sS"sis's......ttwfo"
p444
I33
sS'part'
p445
I32
sS'because'
p446
I32
sS'bieber'
p447
I33
sS'off'
p448
I31
sS'believe'
p449
I33
sS'than'
p450
I32
sS'11'
p451
I33
sS'king'
p452
I33
sS'kind'
p453
I33
sS'b'
p454
I32
sS'compliments'
p455
I33
sS'lmao'
p456
I28
sS'19'
p457
I33
sS'boring'
p458
I31
sS'yasss'
p459
I33
sS'instruction'
p460
I33
sS'idgaf!\xe2\x9c\x8b'
p461
I33
sS'goodnight'
p462
I33
sS'bros&'
p463
I33
sS'matter'
p464
I31
sS'dumb'
p465
I33
sS'feeling'
p466
I33
sS'shrimp'
p467
I33
sS'and'
p468
I19
sS'outta'
p469
I33
sS'sam'
p470
I33
sS'turned'
p471
I33
sS'ani'
p472
I33
sS'sad'
p473
I31
sS'tonight'
p474
I32
sS'talking'
p475
I32
sS'bulking'
p476
I33
sS'gump!!!love'
p477
I33
sS'have'
p478
I20
sS'lurking'
p479
I33
sS'need'
p480
I27
sS'seen'
p481
I33
sS'breakfast'
p482
I33
sS'saw'
p483
I33
sS'any'
p484
I33
sS'sat'
p485
I33
sS'gives'
p486
I33
sS'tho'
p487
I32
sS'u.s'
p488
I33
sS'built'
p489
I33
sS'scriptures'
p490
I33
sS'lil'
p491
I32
sS'studying'
p492
I33
sS'self'
p493
I33
sS'drains'
p494
I33
sS'omfg'
p495
I33
sS'take'
p496
I32
sS'destroy'
p497
I33
sS'asshole'
p498
I33
sS'martha'
p499
I33
sS'='
p500
I33
sS'circles'
p501
I33
sS'blue'
p502
I33
sS'play'
p503
I33
sS'squaaad'
p504
I33
sS'though'
p505
I33
sS'price'
p506
I33
sS'who'
p507
I26
sS'paid'
p508
I33
sS"where's"
p509
I32
sS'most'
p510
I33
sS'freshmen'
p511
I33
sS'nothing'
p512
I33
sS'-john'
p513
I33
sS'why'
p514
I30
sS'suck'
p515
I33
sS'sexy'
p516
I33
sS'forever'
p517
I33
sS'calif'
p518
I33
sS'especially'
p519
I33
sS'cops'
p520
I33
sS'eachother'
p521
I32
sS'proud'
p522
I31
sS'hungry'
p523
I32
sS'face'
p524
I32
sS'flava'
p525
I33
sS"you'll"
p526
I33
sS'kingg__chris'
p527
I33
sS'principle'
p528
I33
sS'clean'
p529
I33
sS'\xe2\x98\x80\xef\xb8\x8f'
p530
I33
sS'away'
p531
I32
sS'came'
p532
I33
sS'bell'
p533
I33
sS'wild'
p534
I33
sS'despise'
p535
I33
sS'ugh'
p536
I31
sS'bomb'
p537
I32
sS'\xe2\x9c\xa8'
p538
I33
sS'show'
p539
I32
sS'text'
p540
I31
sS'kholes'
p541
I33
sS'rn\xe2\x80\x9d'
p542
I33
sS'legalization'
p543
I33
sS'stfu'
p544
I33
sS'11:24'
p545
I33
sS'fear'
p546
I31
sS'franklin"'
p547
I33
sS'find'
p548
I31
sS'reality....ijs'
p549
I33
sS'ground'
p550
I33
sS'orleans'
p551
I33
sS'envy'
p552
I33
sS'slow'
p553
I33
sS'knowledge'
p554
I33
sS'\xe2\x9c\x8b'
p555
I33
sS'\xe2\x9c\x8a'
p556
I33
sS'('
p557
I32
sS'dick'
p558
I33
sS'outside'
p559
I33
sS'should'
p560
I31
sS'yea'
p561
I33
sS'only'
p562
I29
sS'going'
p563
I26
sS'black'
p564
I32
sS'niggas!!!!i'
p565
I33
sS'pretty'
p566
I32
sS'photo'
p567
I33
sS'california)'
p568
I33
sS'moustache'
p569
I33
sS'posted'
p570
I33
sS'shitt"'
p571
I33
sS'hope'
p572
I33
sS'do'
p573
I24
sS'bike"'
p574
I33
sS'dm'
p575
I33
sS'watching'
p576
I32
sS'watch'
p577
I32
sS'ratchets'
p578
I33
sS'da'
p579
I33
sS'tbh'
p580
I33
sS'grew'
p581
I33
sS'pretending'
p582
I33
sS'wedding'
p583
I33
sS'report'
p584
I33
sS'dr'
p585
I33
sS'him'
p586
I28
sS'ghetto'
p587
I33
sS'together\xe2\x80\x9d'
p588
I33
sS'mofos'
p589
I33
sS'cry'
p590
I33
sS'morning'
p591
I32
sS'bag'
p592
I33
sS'bad'
p593
I32
sS'stuff'
p594
I32
sS'she'
p595
I29
sS'watermelonisha'
p596
I33
sS'days\xe2\x80\x9d'
p597
I33
sS'where'
p598
I32
sS'gotta'
p599
I33
sS"5'10"
p600
I33
sS"y'all"
p601
I29
sS'set'
p602
I31
sS'decides'
p603
I33
sS'shit\xe2\x80\x9d'
p604
I33
sS"lamar's"
p605
I33
sS'good!\xe2\x9c\x8b'
p606
I33
sS'skacore'
p607
I33
sS'see'
p608
I29
sS'decided'
p609
I33
sS'asleep'
p610
I32
sS'are'
p611
I27
sS'sea'
p612
I33
sS'steal'
p613
I33
sS'close'
p614
I32
sS'ur'
p615
I33
sS'best'
p616
I33
sS'tripping'
p617
I33
sS'said'
p618
I29
sS'closet'
p619
I33
sS'lived\xe2\x80\x9d'
p620
I33
sS'stuck'
p621
I33
sS'movie'
p622
I33
sS'wow'
p623
I31
sS'posse'
p624
I33
sS'please'
p625
I30
sS'3'
p626
I33
sS"there's"
p627
I32
sS'between'
p628
I33
sS':d'
p629
I33
sS'drawn'
p630
I33
sS'nope'
p631
I33
sS'down...stay'
p632
I33
sS'perfect'
p633
I32
sS'we'
p634
I28
sS'emoji\xe2\x9c\x8b'
p635
I33
sS'omg'
p636
I31
sS'peace."'
p637
I33
sS'sold'
p638
I33
sS'attention'
p639
I32
sS'pams'
p640
I33
sS'job'
p641
I33
sS'passed.a'
p642
I33
sS'(los'
p643
I33
sS'wtf'
p644
I30
sS'news'
p645
I30
sS'picking'
p646
I33
sS'ncognegro'
p647
I33
sS'come'
p648
I30
sS'received'
p649
I33
sS'superstar'
p650
I33
sS'17:20'
p651
I33
sS'sweatshirt'
p652
I33
sS'ranger'
p653
I33
sS'many'
p654
I33
sS'ill'
p655
I33
sS'compton'
p656
I33
sS'incident'
p657
I33
sS'cole'
p658
I33
sS's'
p659
I33
sS'games'
p660
I33
sS'8am'
p661
I33
sS'receives'
p662
I33
sS'lo'
p663
I33
sS'whole'
p664
I32
sS"can't"
p665
I29
sS'key'
p666
I33
sS'point'
p667
I32
sS'reasons'
p668
I33
sS'had'
p669
I32
sS'each'
p670
I33
sS'hour....lol'
p671
I33
sS'whatever'
p672
I31
sS'2nd'
p673
I32
sS'symphonies'
p674
I33
sS'laugh'
p675
I33
sS'church'
p676
I32
sS'respect'
p677
I33
sS'boat'
p678
I33
sS'speak'
p679
I32
sS'late'
p680
I31
sS'palace'
p681
I33
sS'asks'
p682
I33
sS'dyslexic'
p683
I33
sS"it's"
p684
I26
sS'800k'
p685
I33
sS'yanira'
p686
I33
sS'hoe'
p687
I33
sS'been'
p688
I29
sS'teacher'
p689
I33
sS'much'
p690
I31
sS'damn'
p691
I30
sS'fly.\xe2\x80\x9d'
p692
I33
sS'pe'
p693
I31
sS'expected'
p694
I33
sS'>'
p695
I33
sS'kathy'
p696
I32
sS'life'
p697
I31
sS'hussle'
p698
I33
sS'shopping'
p699
I33
sS'aubrey'
p700
I33
sS'with'
p701
I15
sS'7k'
p702
I33
sS"what's"
p703
I32
sS'blessing'
p704
I33
sS'pounds*'
p705
I33
sS'else'
p706
I33
sS'moment'
p707
I33
sS'finished'
p708
I32
sS'lift'
p709
I33
sS'awake'
p710
I33
sS'weezle'
p711
I32
sS'met'
p712
I33
sS'those'
p713
I31
sS'xxl'
p714
I33
sS'runnin'
p715
I33
sS'myself'
p716
I33
sS'east'
p717
I33
sS'ayten'
p718
I33
sS'look'
p719
I31
sS'g.o.o.d'
p720
I33
sS'these'
p721
I31
sS'might'
p722
I33
sS'convo'
p723
I33
sS'budget'
p724
I33
sS'n'
p725
I31
sS'will'
p726
I26
sS'kcon'
p727
I33
sS'2013'
p728
I33
sS'o'
p729
I33
sS'fun'
p730
I32
sS'jay'
p731
I33
sS'voice'
p732
I33
sS'ktla'
p733
I33
sS'passes'
p734
I33
sS'who"'
p735
I33
sS'mistake'
p736
I33
sS'remembering'
p737
I33
sS'fool'
p738
I33
sS'changed'
p739
I33
sS'then'
p740
I33
sS'is'
p741
I6
sS'it'
p742
I8
sS'rip'
p743
I33
sS'skipping'
p744
I33
sS'someone'
p745
I31
sS'im'
p746
I31
sS'karmaloop'
p747
I33
sS'in'
p748
I9
sS'thug'
p749
I33
sS'-1corinthians'
p750
I33
sS'seattle'
p751
I33
sS'fame'
p752
I33
sS'if'
p753
I29
sS'funny'
p754
I30
sS'know."'
p755
I33
sS'perform'
p756
I33
sS'things'
p757
I33
sS'seeking'
p758
I33
sS'councilman'
p759
I33
sS'ass!\xe2\x9c\x8bno'
p760
I33
sS'same'
p761
I31
sS'moms'
p762
I33
sS'pac'
p763
I33
sS'like...nah'
p764
I33
sS'said."'
p765
I33
sS'<<<<<'
p766
I33
sS'"i'
p767
I33
sS'party'
p768
I31
sS'frfr'
p769
I33
sS'dayssss'
p770
I33
sS'extended'
p771
I33
sS'lie'
p772
I33
sS'club!!!....lol'
p773
I33
sS'hang'
p774
I33
sS'yesterday'
p775
I31
sS'rain'
p776
I33
sS'kik'
p777
I31
sS'running'
p778
I31
sS'strength'
p779
I33
sS'moving'
p780
I33
sS'opinion'
p781
I33
sS'fucked'
p782
I32
sS'4:18'
p783
I33
sS'yours'
p784
I33
sS'l.a'
p785
I27
sS'buckley'
p786
I33
sS'//'
p787
I32
sS'yoself.........add'
p788
I33
sS'ashley'
p789
I32
sS'suuuurrreeee'
p790
I33
sS'i'
p791
I2
sS'humble'
p792
I33
sS'well'
p793
I30
sS'kept'
p794
I33
sS'fighting'
p795
I33
sS'grind'
p796
I33
sS'thought'
p797
I32
sS'person'
p798
I32
sS'without'
p799
I33
sS'sodom&gamorah?have'
p800
I33
sS'comes'
p801
I32
sS'pandora'
p802
I33
sS'mother'
p803
I33
sS'nomore'
p804
I33
sS'the'
p805
I3
sS'massaging'
p806
I33
sS'tha'
p807
I33
sS'usual'
p808
I33
sS'markham'
p809
I33
sS'simp'
p810
I33
sS'they'
p811
I28
sS'just'
p812
I22
sS'being'
p813
I31
sS'money'
p814
I33
sS'salva'
p815
I33
sS'sleepy'
p816
I33
sS'dose'
p817
I33
sS'db'
p818
I33
sS'foot'
p819
I33
sS'kill'
p820
I33
sS'thanks'
p821
I32
sS'behind'
p822
I33
sS'paco'
p823
I33
sS'yet'
p824
I33
sS'lately'
p825
I33
sS'tryna'
p826
I33
sS'"doctor'
p827
I33
sS'errand'
p828
I33
sS'cuffs'
p829
I33
sS'also'
p830
I33
sS'drunk'
p831
I33
sS'seems'
p832
I32
sS"01'\xe2\x80\x9dgo"
p833
I33
sS'killed'
p834
I33
sS'add'
p835
I33
sS'board'
p836
I33
sS'sweet'
p837
I33
sS'as'
p838
I33
sS'has'
p839
I28
sS'reminds'
p840
I33
sS'gave'
p841
I32
sS'real'
p842
I29
sS'shove'
p843
I33
sS'curren'
p844
I33
sS'around'
p845
I33
sS'big'
p846
I32
sS'couple'
p847
I33
sS'gonna'
p848
I31
sS'1:7'
p849
I33
sS'early'
p850
I32
sS'game'
p851
I33
sS'5am'
p852
I33
sS'know'
p853
I27
sS'mom'
p854
I32
sS'stunt'
p855
I33
sS'wings'
p856
I33
sS'"your'
p857
I33
sS'knock'
p858
I33
sS'christina'
p859
I33
sS'like'
p860
I17
sS'lost'
p861
I32
sS"ain't"
p862
I33
sS'patrick'
p863
I33
sS'seek'
p864
I33
sS'roll'
p865
I33
sS'either'
p866
I32
sS'foh!\xe2\x9c\x8b'
p867
I33
sS'lose'
p868
I33
sS'completely'
p869
I33
sS'passionate'
p870
I33
sS'jyj'
p871
I33
sS'nude'
p872
I33
sS'girrlllll'
p873
I33
sS'college'
p874
I33
sS'nigga'
p875
I32
sS"couldn't"
p876
I33
sS'korea'
p877
I33
sS'people'
p878
I31
sS'fucking'
p879
I31
sS'twitter'
p880
I32
sS'some'
p881
I31
sS'back'
p882
I28
sS'hair'
p883
I33
sS'strongest'
p884
I33
sS'villematic'
p885
I33
sS'choosing'
p886
I33
sS'fools'
p887
I33
sS'home'
p888
I31
sS'guess'
p889
I33
sS'finna'
p890
I33
sS'happens'
p891
I33
sS'gross'
p892
I33
sS'soooo'
p893
I33
sS'for'
p894
I11
sS'outfitters'
p895
I33
sS'picking&'
p896
I33
sS'cut'
p897
I33
sS'saar'
p898
I33
sS'ice'
p899
I33
sS'-matthew'
p900
I33
sS'everything'
p901
I33
sS'does'
p902
I30
sS'three'
p903
I33
sS'ucla'
p904
I33
sS'nose'
p905
I33
sS'be'
p906
I16
sS'blowing'
p907
I33
sS'patient'
p908
I33
sS'-luke'
p909
I33
sS'wake'
p910
I33
sS'bc'
p911
I33
sS'lmfao'
p912
I30
sS'lmaoooo'
p913
I33
sS'nails'
p914
I33
sS'kids!!!..ijs'
p915
I33
sS's/o'
p916
I33
sS'addicted'
p917
I33
sS'maddy'
p918
I33
sS'santa'
p919
I33
sS'assemble'
p920
I33
sS'belive'
p921
I33
sS'by'
p922
I32
sS'on'
p923
I13
sS'about'
p924
I33
sS'ok'
p925
I33
sS'justin'
p926
I32
sS'world'
p927
I33
sS'oh'
p928
I32
sS'of'
p929
I14
sS'tuned'
p930
I33
sS'graduation'
p931
I33
sS'kourtney'
p932
I33
sS'angeles'
p933
I32
sS'idk'
p934
I33
sS"6'3"
p935
I33
sS'wanna'
p936
I31
sS'or'
p937
I26
sS'seeing'
p938
I33
sS'own'
p939
I33
sS'colorado'
p940
I33
sS'worst'
p941
I33
sS'visit'
p942
I33
sS'ahh'
p943
I33
sS'washington'
p944
I33
sS'soo'
p945
I32
sS'10:10'
p946
I33
sS'down'
p947
I32
sS'momma'
p948
I33
sS'right'
p949
I30
sS'fallin'
p950
I33
sS'mark'
p951
I33
sS'your'
p952
I17
sS'alison'
p953
I32
sS"saar's"
p954
I33
sS'type'
p955
I33
sS'her'
p956
I28
sS'trendsetters'
p957
I33
sS'weekend'
p958
I33
sS'support'
p959
I33
sS'there'
p960
I30
sS'1:22'
p961
I33
sS'lol'
p962
I10
sS'class'
p963
I26
sS'start'
p964
I32
sS"how'd"
p965
I33
sS'camera'
p966
I33
sS'low'
p967
I33
sS'way'
p968
I31
sS'bruh'
p969
I33
sS'forward'
p970
I33
sS'bored'
p971
I33
sS'was'
p972
I20
sS'-proverbs'
p973
I33
sS'happy'
p974
I29
sS'head'
p975
I33
sS'\xe2\x9c\x8c\xef\xb8\x8f\xe2\x80\x9d'
p976
I33
sS'2week'
p977
I33
sS"i've"
p978
I31
sS'bus'
p979
I33
sS'bitches'
p980
I33
sS'lmaooo'
p981
I33
sS'but'
p982
I16
sS'searching'
p983
I32
sS'boys'
p984
I32
sS'hear'
p985
I33
sS'*thotties'
p986
I33
sS'nipsey'
p987
I33
sS'line'
p988
I33
sS'trying'
p989
I31
sS'true'
p990
I32
sS'he'
p991
I28
sS'lol"text'
p992
I33
sS'throw'
p993
I33
sS'made'
p994
I30
sS'2gether'
p995
I33
sS'adults'
p996
I33
sS'wish'
p997
I32
sS'j'
p998
I33
sS'up'
p999
I15
sS'us'
p1000
I30
sS'prep'
p1001
I33
sS'um'
p1002
I33
sS'azz'
p1003
I33
sS'dirty'
p1004
I33
sS'swaggy'
p1005
I33
sS'wants'
p1006
I33
sS'gona'
p1007
I33
sS'af'
p1008
I32
sS'certain'
p1009
I33
sS'lived'
p1010
I33
sS'forgot'
p1011
I33
sS'am'
p1012
I30
sS'an'
p1013
I31
sS'fly'
p1014
I33
sS'provost'
p1015
I33
sS'sometime'
p1016
I33
sS'exist'
p1017
I33
sS'at'
p1018
I27
sS'ayeee'
p1019
I33
sS'prayer'
p1020
I32
sS'lmfaooooooooo'
p1021
I33
sS'education'
p1022
I33
sS'snapchats?"'
p1023
I33
sS'happen'
p1024
I33
sS'shit'
p1025
I30
sS'bitching'
p1026
I33
sS'again'
p1027
I29
sS'posole'
p1028
I33
sS'yoga'
p1029
I33
sS'paisa'
p1030
I32
sS'no'
p1031
I18
sS'deserve'
p1032
I32
sS'nah'
p1033
I31
sS'disloyal'
p1034
I33
sS'when'
p1035
I26
sS'green'
p1036
I33
sS'anyday'
p1037
I33
sS'reality'
p1038
I33
sS'freestyle'
p1039
I33
sS'other'
p1040
I33
sS'5'
p1041
I32
sS'details'
p1042
I33
sS'sick'
p1043
I33
sS'you'
p1044
I7
sS'really'
p1045
I27
sS'smell'
p1046
I33
sS'wlcac'
p1047
I26
sS'nice'
p1048
I33
sS'picture'
p1049
I32
sS'erica'
p1050
I33
sS'monday'
p1051
I33
sS'dies'
p1052
I33
sS'taurus'
p1053
I33
sS'stay'
p1054
I33
sS'chance'
p1055
I33
sS'serious'
p1056
I33
sS'chris'
p1057
I33
sS'friends'
p1058
I31
sS'earphones'
p1059
I33
sS'hml'
p1060
I33
sS'\xe2\x99\xa1'
p1061
I33
sS'-mark'
p1062
I33
sS'together'
p1063
I31
sS'having'
p1064
I33
sS'stripping'
p1065
I32
sS'u'
p1066
I23
sS'time'
p1067
I30
sS'far'
p1068
I32
sS"she's"
p1069
I32
sS'once'
p1070
I33
sS'back"'
p1071
I33
sS'hello'
p1072
I33
sS'songs'
p1073
I32
s.