(dp0
S''
p1
I3
sS'all'
p2
I14
sS':/'
p3
I20
sS':)'
p4
I19
sS'ouch'
p5
I20
sS'month'
p6
I20
sS'burritos'
p7
I20
sS'sleep'
p8
I20
sS'grateful'
p9
I20
sS'go'
p10
I17
sS'pts'
p11
I20
sS'forget'
p12
I20
sS'happybirthday'
p13
I20
sS'william'
p14
I20
sS'zone'
p15
I20
sS'to'
p16
I4
sS'finally'
p17
I20
sS'does'
p18
I20
sS'under'
p19
I20
sS'enjoying'
p20
I20
sS'sitting'
p21
I20
sS':d'
p22
I19
sS'tacos'
p23
I20
sS'every'
p24
I20
sS'join'
p25
I20
sS'dynasty'
p26
I20
sS'school'
p27
I20
sS'level'
p28
I20
sS"wr's"
p29
I20
sS'(watts'
p30
I20
sS'heading'
p31
I20
sS'unexpected'
p32
I20
sS'tired'
p33
I20
sS'streets'
p34
I20
sS'past'
p35
I20
sS'rate'
p36
I20
sS'video'
p37
I20
sS'even'
p38
I19
sS'what'
p39
I19
sS'curse'
p40
I20
sS'hate'
p41
I20
sS'remembered'
p42
I20
sS'waiting'
p43
I20
sS'goes'
p44
I19
sS'new'
p45
I20
sS'0'
p46
I20
sS'here'
p47
I18
sS'\xe2\x9d\xa4\xef\xb8\x8f'
p48
I20
sS'let'
p49
I19
sS'100'
p50
I20
sS'strong'
p51
I20
sS'legend'
p52
I20
sS'wait'
p53
I20
sS'ukraine'
p54
I20
sS'boy'
p55
I20
sS'great'
p56
I19
sS'my'
p57
I9
sS'30'
p58
I20
sS'leaving'
p59
I20
sS'mentor'
p60
I20
sS'pick'
p61
I20
sS'mentions'
p62
I20
sS"i'm"
p63
I15
sS'massage'
p64
I20
sS'claro'
p65
I20
sS'love'
p66
I18
sS'family'
p67
I20
sS'win'
p68
I18
sS'texts'
p69
I20
sS'canada'
p70
I20
sS'everybody'
p71
I19
sS'use'
p72
I20
sS'from'
p73
I15
sS'working'
p74
I19
sS'&'
p75
I20
sS'next'
p76
I20
sS'few'
p77
I20
sS'ca)'
p78
I20
sS'call'
p79
I20
sS'tell'
p80
I20
sS'today'
p81
I17
sS'reminiscing'
p82
I20
sS'charcoal'
p83
I20
sS'haha'
p84
I19
sS'reign'
p85
I20
sS'hurt'
p86
I20
sS'phone'
p87
I20
sS"ain't"
p88
I20
sS'baby'
p89
I19
sS'me'
p90
I12
sS'ma'
p91
I20
sS'wore'
p92
I20
sS'niggas'
p93
I20
sS'this'
p94
I18
sS'aa....muah'
p95
I20
sS'dei'
p96
I19
sS'can'
p97
I20
sS'aight'
p98
I20
sS'meet'
p99
I20
sS'didnt'
p100
I20
sS'heart'
p101
I20
sS'crazy'
p102
I20
sS'give'
p103
I19
sS'fuck'
p104
I17
sS'high'
p105
I18
sS'want'
p106
I20
sS'stole'
p107
I20
sS'huge'
p108
I20
sS'rather'
p109
I20
sS'struggles'
p110
I20
sS'how'
p111
I20
sS'mas'
p112
I20
sS'okay'
p113
I20
sS'bday'
p114
I20
sS'after'
p115
I20
sS'4th'
p116
I20
sS'mad'
p117
I20
sS'guys'
p118
I20
sS'man'
p119
I14
sS'a'
p120
I5
sS'brady'
p121
I20
sS'deserter'
p122
I20
sS'so'
p123
I14
sS'pay'
p124
I20
sS'talk'
p125
I20
sS"that's"
p126
I20
sS'exclusive'
p127
I20
sS'school)'
p128
I20
sS'help'
p129
I20
sS"don't"
p130
I18
sS'over'
p131
I18
sS'move'
p132
I20
sS'htoh'
p133
I20
sS'years'
p134
I20
sS'ended'
p135
I20
sS'through'
p136
I18
sS'foreal'
p137
I20
sS'kanye'
p138
I20
sS'cold'
p139
I20
sS'still'
p140
I19
sS'before'
p141
I20
sS'20'
p142
I20
sS'la'
p143
I20
sS'interesting'
p144
I20
sS'bout'
p145
I19
sS'might'
p146
I20
sS'<'
p147
I20
sS'them'
p148
I19
sS'good'
p149
I18
sS'somebody'
p150
I20
sS'ya'
p151
I20
sS'mention'
p152
I20
sS'they'
p153
I19
sS'not'
p154
I18
sS'now'
p155
I20
sS'day'
p156
I15
sS'wont'
p157
I20
sS'always'
p158
I20
sS'edin'
p159
I20
sS'each'
p160
I19
sS'went'
p161
I18
sS'verbum'
p162
I19
sS'|'
p163
I20
sS'mean'
p164
I18
sS'el'
p165
I20
sS'everyone'
p166
I17
sS'mental'
p167
I20
sS'skacore'
p168
I20
sS'knockout'
p169
I20
sS'series'
p170
I15
sS'expect'
p171
I20
sS'wacka'
p172
I20
sS'doug'
p173
I20
sS'our'
p174
I19
sS'girl'
p175
I20
sS'really'
p176
I18
sS'rt'
p177
I20
sS'3rd'
p178
I19
sS'house'
p179
I20
sS'god'
p180
I20
sS'tales'
p181
I20
sS'rd'
p182
I20
sS'smh'
p183
I19
sS'got'
p184
I19
sS'rn'
p185
I20
sS'cause'
p186
I20
sS'ass'
p187
I18
sS'shut'
p188
I20
sS'cars'
p189
I20
sS'story'
p190
I20
sS'-_-'
p191
I20
sS'california'
p192
I20
sS'asf'
p193
I20
sS"people's"
p194
I20
sS'put'
p195
I20
sS'asi'
p196
I20
sS'beginning'
p197
I20
sS'craving'
p198
I20
sS'watts'
p199
I18
sS'starts'
p200
I18
sS'could'
p201
I19
sS'heck'
p202
I20
sS'place'
p203
I20
sS'swing'
p204
I20
sS'think'
p205
I19
sS'first'
p206
I19
sS'major'
p207
I19
sS'feel'
p208
I20
sS'jesus'
p209
I20
sS'fantasy'
p210
I20
sS'is?little'
p211
I20
sS'done'
p212
I20
sS'bitch'
p213
I19
sS'another'
p214
I19
sS'ring'
p215
I20
sS"left:yeshe's"
p216
I20
sS'tomorrow'
p217
I20
sS'hood'
p218
I20
sS"doesn't"
p219
I20
sS'guess'
p220
I20
sS'day\xe2\x80\x9d'
p221
I20
sS'monkey'
p222
I20
sS'cruuuuuuuuuuiiised'
p223
I20
sS'nickerson'
p224
I12
sS'caught'
p225
I20
sS'porn'
p226
I20
sS'anyone'
p227
I20
sS'their'
p228
I19
sS'2'
p229
I20
sS'draft'
p230
I20
sS'too'
p231
I19
sS'dumbass'
p232
I20
sS'white'
p233
I20
sS'west'
p234
I20
sS'friend'
p235
I20
sS'headache'
p236
I20
sS'hug'
p237
I20
sS'craziest'
p238
I20
sS'that'
p239
I7
sS'took'
p240
I18
sS'jordan'
p241
I20
sS'off'
p242
I20
sS'now...lol'
p243
I20
sS'steel'
p244
I20
sS'15'
p245
I20
sS'goodnight'
p246
I20
sS'cravings'
p247
I20
sS'were'
p248
I20
sS'feeling'
p249
I20
sS'russia'
p250
I20
sS'spurs'
p251
I19
sS'and'
p252
I8
sS'illness'
p253
I20
sS'mind'
p254
I20
sS'mine'
p255
I20
sS'have'
p256
I16
sS'need'
p257
I17
sS'recover'
p258
I20
sS'saw'
p259
I19
sS'lie'
p260
I19
sS'afraid'
p261
I19
sS'lil'
p262
I20
sS'allergies'
p263
I20
sS'able'
p264
I20
sS'alchs'
p265
I20
sS'"harlem"'
p266
I20
sS'play'
p267
I20
sS'though'
p268
I19
sS'who'
p269
I20
sS'terio'
p270
I19
sS'most'
p271
I20
sS'nothing'
p272
I19
sS'pager'
p273
I20
sS'why'
p274
I17
sS'cellphone'
p275
I20
sS'picture'
p276
I20
sS'sometimes'
p277
I20
sS'cover'
p278
I20
sS'hungry'
p279
I20
sS'looked'
p280
I20
sS'w/certain'
p281
I20
sS'stones'
p282
I19
sS'bud'
p283
I20
sS'cute'
p284
I20
sS"90's"
p285
I20
sS'fine'
p286
I20
sS'gas......no'
p287
I20
sS'blowin'
p288
I20
sS'outside'
p289
I20
sS'to\xe2\x80\xa6'
p290
I20
sS'only'
p291
I19
sS'going'
p292
I17
sS'gotchu'
p293
I20
sS'pretty'
p294
I20
sS'riding'
p295
I20
sS'chipotle'
p296
I20
sS'posted'
p297
I20
sS'hope'
p298
I19
sS'do'
p299
I17
sS'his'
p300
I19
sS'listened'
p301
I20
sS'get'
p302
I20
sS'bronco'
p303
I20
sS'him'
p304
I20
sS'ghetto'
p305
I20
sS'following'
p306
I20
sS'oooyyyy'
p307
I20
sS'twice'
p308
I20
sS'bad'
p309
I20
sS'stupid'
p310
I20
sS'where'
p311
I18
sS'set'
p312
I20
sS'w/'
p313
I19
sS'brake'
p314
I20
sS'bargain'
p315
I20
sS'see'
p316
I20
sS'are'
p317
I17
sS'hell'
p318
I20
sS'best'
p319
I20
sS'lots'
p320
I20
sS'movie'
p321
I19
sS"father's"
p322
I20
sS'3'
p323
I20
sS"there's"
p324
I20
sS'horrible'
p325
I20
sS'bought'
p326
I20
sS'arrival'
p327
I20
sS'\xee\x90\x98\xe2\x80\x9dwhere'
p328
I20
sS'we'
p329
I19
sS'missing'
p330
I18
sS'drew'
p331
I20
sS'wtf'
p332
I20
sS'article'
p333
I20
sS'league'
p334
I19
sS'weeks'
p335
I20
sS'last'
p336
I19
sS'taking'
p337
I20
sS'compton'
p338
I20
sS'minds'
p339
I19
sS'bet'
p340
I20
sS'traded'
p341
I20
sS'rodgers'
p342
I20
sS"can't"
p343
I17
sS'ynwm'
p344
I20
sS'6%'
p345
I20
sS'drunk'
p346
I20
sS'simple'
p347
I20
sS'walk'
p348
I20
sS'bitch"'
p349
I20
sS'bose'
p350
I20
sS'bratt'
p351
I20
sS"it's"
p352
I18
sS'been'
p353
I20
sS'confident'
p354
I20
sS'trigger'
p355
I20
sS'expected'
p356
I20
sS'louisiana'
p357
I20
sS'4'
p358
I20
sS'life'
p359
I19
sS'pic'
p360
I18
sS'directioners'
p361
I20
sS'cop'
p362
I20
sS'child'
p363
I20
sS'ityet'
p364
I20
sS'these'
p365
I19
sS'bill'
p366
I20
sS'as'
p367
I20
sS'value'
p368
I20
sS'flocka'
p369
I20
sS"kate's"
p370
I20
sS'while'
p371
I20
sS'kissing'
p372
I20
sS'life*'
p373
I20
sS'chilling'
p374
I20
sS'spawn'
p375
I20
sS'listen'
p376
I20
sS'barely'
p377
I20
sS'is'
p378
I12
sS'it'
p379
I15
sS'lust'
p380
I20
sS'player'
p381
I20
sS'someone'
p382
I20
sS'im'
p383
I19
sS'in'
p384
I6
sS'ready'
p385
I17
sS'if'
p386
I20
sS'shooting'
p387
I19
sS'shaw'
p388
I20
sS'anymore'
p389
I20
sS'things'
p390
I20
sS'bowl'
p391
I20
sS'moms'
p392
I20
sS'solange'
p393
I20
sS'status'
p394
I20
sS'director'
p395
I20
sS'fucken'
p396
I20
sS'kim'
p397
I20
sS"would've"
p398
I20
sS'kid'
p399
I20
sS'kept'
p400
I20
sS'i'
p401
I2
sS'whole'
p402
I20
sS'floor'
p403
I20
sS'well'
p404
I20
sS'invites'
p405
I20
sS'tho'
p406
I19
sS'more'
p407
I20
sS'the'
p408
I1
sS'spend'
p409
I20
sS'just'
p410
I13
sS'being'
p411
I20
sS'befuddled'
p412
I20
sS'$380-million'
p413
I20
sS'clinic'
p414
I15
sS'kill'
p415
I20
sS'thanks'
p416
I20
sS'facts'
p417
I20
sS'thinking'
p418
I20
sS'had'
p419
I20
sS'cuz'
p420
I20
sS'shout'
p421
I20
sS'attractive'
p422
I20
sS'homies'
p423
I20
sS'has'
p424
I20
sS'humanity'
p425
I20
sS'gave'
p426
I20
sS'kills'
p427
I20
sS'rules'
p428
I20
sS'big'
p429
I19
sS'sittin'
p430
I20
sS'gonna'
p431
I20
sS'early'
p432
I18
sS'game'
p433
I20
sS'traffic'
p434
I20
sS'know'
p435
I19
sS'nvm'
p436
I20
sS'2nd'
p437
I20
sS'projects'
p438
I19
sS'ninjas'
p439
I20
sS'like'
p440
I17
sS'lost'
p441
I19
sS'martin'
p442
I19
sS'me:do'
p443
I20
sS"campbell's"
p444
I20
sS'nigga'
p445
I20
sS'people'
p446
I17
sS'fucking'
p447
I18
sS'some'
p448
I20
sS'back'
p449
I20
sS'dead'
p450
I20
sS'donald'
p451
I20
sS'economic'
p452
I20
sS'home'
p453
I17
sS'thinks'
p454
I20
sS'for'
p455
I12
sS'literally'
p456
I20
sS'outa'
p457
I20
sS'critical'
p458
I20
sS'be'
p459
I17
sS'knew'
p460
I20
sS'power'
p461
I20
sS'lmfao'
p462
I20
sS'night'
p463
I20
sS'throwback'
p464
I20
sS'roaming'
p465
I20
sS'super'
p466
I20
sS'by'
p467
I20
sS'on'
p468
I11
sS'about'
p469
I19
sS'would'
p470
I20
sS'crabtree'
p471
I20
sS'oh'
p472
I20
sS'of'
p473
I9
sS'valentines'
p474
I20
sS'swear'
p475
I20
sS'afternoon'
p476
I20
sS'decent'
p477
I20
sS'kaep'
p478
I20
sS'wanna'
p479
I20
sS'or'
p480
I20
sS'amber'
p481
I20
sS'own'
p482
I20
sS'owe'
p483
I20
sS'invading'
p484
I20
sS'down'
p485
I20
sS'playoff'
p486
I20
sS'champ'
p487
I20
sS'your'
p488
I18
sS'her'
p489
I19
sS'cali'
p490
I20
sS'spending'
p491
I20
sS'there'
p492
I20
sS'lol'
p493
I14
sS'imperial'
p494
I20
sS"we're"
p495
I20
sS'way'
p496
I17
sS'bruh'
p497
I20
sS'forward'
p498
I20
sS'music'
p499
I20
sS'was'
p500
I13
sS'happy'
p501
I19
sS'ago'
p502
I20
sS'buy'
p503
I20
sS"i've"
p504
I20
sS'bitches'
p505
I18
sS'forever'
p506
I20
sS'but'
p507
I16
sS'jus'
p508
I20
sS'hi'
p509
I20
sS'gore'
p510
I20
sS'courts'
p511
I20
sS'hm'
p512
I20
sS'with'
p513
I17
sS'buying'
p514
I20
sS'he'
p515
I19
sS'pull'
p516
I20
sS'cif'
p517
I20
sS'wish'
p518
I20
sS'annoying'
p519
I20
sS'up'
p520
I14
sS'um'
p521
I19
sS'daddy'
p522
I19
sS'year'
p523
I18
sS'am'
p524
I20
sS'an'
p525
I19
sS'britain'
p526
I20
sS'at'
p527
I10
sS'aw'
p528
I20
sS'ship'
p529
I20
sS'triv'
p530
I20
sS'graham'
p531
I20
sS'shit'
p532
I17
sS'again'
p533
I20
sS'drafts'
p534
I20
sS'no'
p535
I17
sS'na'
p536
I20
sS'nah'
p537
I20
sS'when'
p538
I19
sS'graduate'
p539
I20
sS'w/a'
p540
I20
sS'other'
p541
I19
sS'5'
p542
I20
sS'boom'
p543
I20
sS'you'
p544
I11
sS'out'
p545
I19
sS'talkin'
p546
I20
sS'album'
p547
I19
sS'championship'
p548
I18
sS'class'
p549
I20
sS'forgot'
p550
I20
sS"let's"
p551
I20
sS'suited'
p552
I20
sS'scores'
p553
I20
sS'building'
p554
I20
sS'ucmj'
p555
I20
sS'calls'
p556
I20
sS'kardashian'
p557
I20
sS'invest'
p558
I20
sS'gardens'
p559
I12
sS'u'
p560
I18
sS'time'
p561
I19
sS'having'
p562
I19
sS'restored'
p563
I20
sS'once'
p564
I19
s.