(dp0
S''
p1
I3
sS'all'
p2
I32
sS'jason'
p3
I38
sS':)'
p4
I32
sS'similarity'
p5
I38
sS'dance'
p6
I38
sS'generaldepartment'
p7
I38
sS'bombed'
p8
I38
sS'known'
p9
I38
sS'13mil'
p10
I38
sS'sleep'
p11
I37
sS'/'
p12
I38
sS'go'
p13
I37
sS':('
p14
I38
sS'westwood'
p15
I36
sS'hate'
p16
I38
sS'children'
p17
I38
sS'kimpton'
p18
I38
sS'apartment'
p19
I36
sS'yummy'
p20
I38
sS'hunting'
p21
I38
sS'filming'
p22
I38
sS'tweet'
p23
I36
sS'faisais'
p24
I38
sS'food\xe2\x80\x9d'
p25
I38
sS'disgusting'
p26
I38
sS'send'
p27
I38
sS'to'
p28
I4
sS'finally'
p29
I38
sS'asking'
p30
I38
sS'hahhahahahah'
p31
I38
sS'min...whatever'
p32
I38
sS'town'
p33
I38
sS'random'
p34
I38
sS'bouncers'
p35
I38
sS'sitting'
p36
I38
sS'very'
p37
I37
sS'smh'
p38
I37
sS'imessage'
p39
I38
sS'{photo'
p40
I38
sS'hungoverrr'
p41
I38
sS'blast'
p42
I38
sS'brows'
p43
I37
sS'tranquillement'
p44
I38
sS'room'
p45
I38
sS'school'
p46
I36
sS'meyou'
p47
I38
sS'waldo'
p48
I38
sS'did'
p49
I38
sS'niggas'
p50
I38
sS'leader'
p51
I38
sS'leave'
p52
I37
sS':]'
p53
I38
sS'sand'
p54
I38
sS'settle'
p55
I38
sS'recall'
p56
I37
sS'guy'
p57
I37
sS'spent'
p58
I38
sS'heading'
p59
I38
sS'liivvvvvvvveeeeee'
p60
I38
sS'shave'
p61
I37
sS'picketed'
p62
I38
sS'carter'
p63
I38
sS'palomar)'
p64
I37
sS'lgbt'
p65
I38
sS'waking'
p66
I38
sS'battle'
p67
I38
sS'video'
p68
I38
sS'sheeran'
p69
I38
sS'reunion'
p70
I38
sS'air'
p71
I38
sS'odd'
p72
I38
sS'others)'
p73
I38
sS'even'
p74
I36
sS'what'
p75
I29
sS'intoxicated'
p76
I38
sS'wreck'
p77
I38
sS'sun'
p78
I37
sS'dreadmill'
p79
I38
sS'fingers'
p80
I38
sS'liberty'
p81
I38
sS'paying'
p82
I38
sS'suspect'
p83
I38
sS'new'
p84
I38
sS'ever'
p85
I36
sS'stooges'
p86
I38
sS'told'
p87
I38
sS'med'
p88
I38
sS'friday'
p89
I38
sS'\xd9\x85\xd8\xb4\xd8\xaa\xd8\xa7\xd9\x82'
p90
I38
sS'apartments)'
p91
I38
sS'bub'
p92
I38
sS'ma'
p93
I38
sS'never'
p94
I34
sS'punch'
p95
I38
sS'here'
p96
I32
sS"'she"
p97
I38
sS'met'
p98
I37
sS'pause'
p99
I38
sS'studio'
p100
I38
sS'pub'
p101
I38
sS'(aside'
p102
I38
sS'making'
p103
I38
sS'alone'
p104
I38
sS'sing'
p105
I38
sS'earthquake'
p106
I38
sS'change'
p107
I38
sS'wait'
p108
I37
sS'boy'
p109
I37
sS'great'
p110
I36
sS'shove'
p111
I38
sS'involved'
p112
I38
sS'stephacore\xe2\x80\xa6'
p113
I38
sS'credit'
p114
I38
sS"i'd"
p115
I38
sS'lasagna'
p116
I38
sS'coolest'
p117
I38
sS'boo'
p118
I38
sS"i'm"
p119
I11
sS'beach\xe2\x80\xa6'
p120
I38
sS'honor'
p121
I38
sS'stubbed'
p122
I38
sS'eyebrows'
p123
I38
sS'golden'
p124
I38
sS'shootings'
p125
I38
sS'love'
p126
I28
sS'family'
p127
I38
sS'father'
p128
I38
sS'thin'
p129
I38
sS'crazy'
p130
I38
sS'young'
p131
I38
sS'brought'
p132
I38
sS't\xc3\xaate'
p133
I38
sS'insta'
p134
I38
sS'patsuthasinee'
p135
I38
sS'1st'
p136
I38
sS'globes'
p137
I38
sS'sugar'
p138
I38
sS'singing'
p139
I38
sS'scarier'
p140
I38
sS'standing'
p141
I38
sS'use'
p142
I38
sS'from'
p143
I26
sS'takes'
p144
I38
sS'would'
p145
I34
sS'&'
p146
I33
sS'retweeted'
p147
I38
sS'two'
p148
I35
sS'levant'
p149
I38
sS'next'
p150
I34
sS'almost'
p151
I38
sS'live'
p152
I35
sS'camera'
p153
I38
sS'music'
p154
I37
sS'wondering'
p155
I38
sS'6'
p156
I38
sS'knuckle'
p157
I38
sS'..and'
p158
I38
sS'matador'
p159
I31
sS'today'
p160
I32
sS'more'
p161
I36
sS'sort'
p162
I38
sS'introducing'
p163
I38
sS'scary'
p164
I38
sS'halloween'
p165
I38
sS'angeles-'
p166
I38
sS'getting'
p167
I35
sS'haha'
p168
I38
sS'enormous'
p169
I38
sS'oregon'
p170
I38
sS'sore'
p171
I37
sS'train'
p172
I38
sS'install\xe2\x80\xa6'
p173
I38
sS'broke'
p174
I37
sS'baby'
p175
I36
sS'coyote'
p176
I38
sS'sleeping'
p177
I38
sS'women'
p178
I38
sS'me'
p179
I18
sS'10pm-2am'
p180
I38
sS'account'
p181
I38
sS'word'
p182
I37
sS'palomar'
p183
I24
sS'hour'
p184
I38
sS'player'
p185
I38
sS'this'
p186
I13
sS'car'
p187
I37
sS'zamn'
p188
I38
sS'work'
p189
I34
sS'pour'
p190
I38
sS'emerson'
p191
I38
sS'can'
p192
I34
sS'learn'
p193
I37
sS'already'
p194
I38
sS'meet'
p195
I36
sS'my'
p196
I6
sS'officeroffice'
p197
I38
sS'beautiful'
p198
I36
sS'vodka'
p199
I38
sS'tswift'
p200
I38
sS'embarrassing'
p201
I37
sS'looooong'
p202
I38
sS'give'
p203
I38
sS'awesome'
p204
I37
sS"didn't"
p205
I37
sS'downsides'
p206
I38
sS'high'
p207
I37
sS'projectpopdrop_platinumoffice'
p208
I38
sS'salty'
p209
I38
sS'something'
p210
I38
sS'want'
p211
I34
sS'blvd'
p212
I34
sS'wonderful'
p213
I38
sS'tan'
p214
I38
sS'mn'
p215
I38
sS'reliving'
p216
I38
sS'sis'
p217
I38
sS'huge'
p218
I38
sS'needs'
p219
I38
sS'boasting'
p220
I38
sS'relaxes'
p221
I38
sS're-read'
p222
I38
sS'vibe'
p223
I37
sS'dress'
p224
I38
sS'travel'
p225
I37
sS'watching'
p226
I36
sS'reve'
p227
I38
sS'rodeo'
p228
I38
sS'lounge'
p229
I36
sS'the\xe2\x80\xa6'
p230
I37
sS'amazing'
p231
I38
sS'ucla'
p232
I38
sS'ralph'
p233
I38
sS'yaaaaa'
p234
I38
sS'instead'
p235
I38
sS'beach'
p236
I30
sS'nye'
p237
I38
sS'staying'
p238
I38
sS'may'
p239
I38
sS'sunny'
p240
I37
sS'advice'
p241
I38
sS'after'
p242
I36
sS'spot'
p243
I38
sS'vicious'
p244
I38
sS'demanding'
p245
I38
sS'wrong'
p246
I38
sS"j'ai"
p247
I38
sS'waves'
p248
I38
sS'date'
p249
I38
sS'such'
p250
I38
sS'truly'
p251
I38
sS'guys'
p252
I38
sS'lesbian'
p253
I38
sS'man'
p254
I37
sS'a'
p255
I5
sS'thought'
p256
I38
sS'vance'
p257
I38
sS'attempt'
p258
I38
sS'remember'
p259
I38
sS'easier'
p260
I38
sS'light'
p261
I37
sS'amazon'
p262
I38
sS'2hrs'
p263
I38
sS'rather'
p264
I38
sS'vegas'
p265
I38
sS'so'
p266
I17
sS'"horny"'
p267
I38
sS'rooftop'
p268
I38
sS'tilt'
p269
I38
sS'challenge'
p270
I38
sS'night\xe2\x80\xa6'
p271
I38
sS'dream'
p272
I38
sS'playing'
p273
I37
sS'talk'
p274
I37
sS"that's"
p275
I37
sS'cute'
p276
I37
sS'breaking'
p277
I38
sS'shoes'
p278
I38
sS"don't"
p279
I34
sS'over'
p280
I35
sS'move'
p281
I37
sS'wishing'
p282
I38
sS'soon'
p283
I37
sS'meter'
p284
I38
sS'years'
p285
I38
sS'held'
p286
I38
sS'dearest'
p287
I38
sS"won't"
p288
I37
sS'costume'
p289
I38
sS'shake'
p290
I38
sS'existence'
p291
I38
sS'skirt'
p292
I38
sS'still'
p293
I36
sS'before'
p294
I37
sS'perfect'
p295
I38
sS'messed'
p296
I38
sS'comedic'
p297
I38
sS'20'
p298
I38
sS'thank'
p299
I35
sS'mais'
p300
I38
sS'la'
p301
I34
sS'soaking'
p302
I38
sS'hot'
p303
I38
sS'[pic]'
p304
I36
sS'better'
p305
I37
sS'spoken'
p306
I38
sS'\xd0\x9e\xd0\xbf\xd1\x83\xd0\xb1\xd0\xbb\xd0\xb8\xd0\xba\xd0\xbe\xd0\xb2\xd0\xb0\xd0\xbd\xd0\xbe'
p307
I38
sS'parts'
p308
I38
sS'covered'
p309
I38
sS'weeks'
p310
I38
sS'cool'
p311
I38
sS'might'
p312
I38
sS'mexsoundmobsters'
p313
I38
sS'then'
p314
I36
sS'them'
p315
I37
sS'someone'
p316
I34
sS'motivated'
p317
I38
sS'greater'
p318
I38
sS'markrodrigues88'
p319
I38
sS'charlie}'
p320
I38
sS'food'
p321
I36
sS'propose'
p322
I38
sS'thee'
p323
I38
sS'yg'
p324
I38
sS'adams'
p325
I38
sS'shattered"'
p326
I38
sS'lunch'
p327
I38
sS'olivia'
p328
I38
sS'soo'
p329
I38
sS'they'
p330
I30
sS'das'
p331
I38
sS'not'
p332
I31
sS'now'
p333
I33
sS'day'
p334
I30
sS'easily'
p335
I38
sS'pregnant'
p336
I38
sS'always'
p337
I37
sS'brody'
p338
I38
sS'"did'
p339
I38
sS'into'
p340
I38
sS'galla'
p341
I38
sS'stopped'
p342
I38
sS'found'
p343
I37
sS'went'
p344
I38
sS'photoshoot'
p345
I38
sS'mean'
p346
I37
sS'em'
p347
I38
sS'el'
p348
I30
sS'en'
p349
I36
sS'lowkey'
p350
I38
sS'doing'
p351
I37
sS'house'
p352
I38
sS'fish'
p353
I38
sS'yeah'
p354
I38
sS'group'
p355
I38
sS'society'
p356
I38
sS'catching'
p357
I38
sS'connect'
p358
I38
sS'year'
p359
I37
sS'course\xe2\x9d\xa4\xef\xb8\x8f'
p360
I38
sS'our'
p361
I34
sS'girl'
p362
I35
sS'fuck\xe2\x80\x9d'
p363
I38
sS'event'
p364
I37
sS'special'
p365
I37
sS'out'
p366
I28
sS'rt'
p367
I38
sS'matt'
p368
I37
sS'prolly'
p369
I38
sS'driving'
p370
I38
sS"let's\xe2\x80\xa6"
p371
I38
sS'god'
p372
I37
sS'\xd9\x83\xd9\x84\xd9\x87\xd9\x85'
p373
I38
sS'flesh'
p374
I38
sS'keys'
p375
I38
sS'&\xe2\x80\xa6'
p376
I38
sS'race'
p377
I38
sS'oriental'
p378
I38
sS'playground'
p379
I38
sS"they'll"
p380
I38
sS'hilarious'
p381
I37
sS'heavenly'
p382
I38
sS'tehrangeles'
p383
I38
sS'receiving'
p384
I38
sS'correct'
p385
I38
sS'announced'
p386
I38
sS'ass'
p387
I38
sS'reporting'
p388
I38
sS'bully'
p389
I38
sS"you're"
p390
I34
sS'gifts'
p391
I38
sS'jussssss'
p392
I38
sS'team'
p393
I38
sS'story'
p394
I38
sS'free'
p395
I38
sS'reason'
p396
I38
sS'california'
p397
I36
sS'besides'
p398
I38
sS'ima'
p399
I38
sS'put'
p400
I37
sS'favs'
p401
I38
sS'card'
p402
I37
sS'advance'
p403
I38
sS'training'
p404
I37
sS'ate'
p405
I38
sS'crever'
p406
I38
sS'chancethe'
p407
I38
sS'said/did'
p408
I38
sS'could'
p409
I37
sS'headphones'
p410
I38
sS'messages'
p411
I38
sS'days'
p412
I32
sS'keep'
p413
I38
sS'ltc'
p414
I38
sS'conversation'
p415
I38
sS'american'
p416
I37
sS'place'
p417
I37
sS'w'
p418
I37
sS'stylin'
p419
I38
sS'davis'
p420
I38
sS'\xd9\x85\xd9\x84\xd9\x88\xd8\xaa\xd9\x8a'
p421
I38
sS'(at'
p422
I38
sS'think'
p423
I34
sS'first'
p424
I37
sS"i'll"
p425
I37
sS'mr'
p426
I38
sS'zak'
p427
I38
sS'feel'
p428
I34
sS'ca'
p429
I38
sS'zac'
p430
I38
sS'fancy'
p431
I38
sS'one'
p432
I34
sS'spinning'
p433
I37
sS'fast'
p434
I38
sS'another'
p435
I38
sS'miss'
p436
I38
sS'tomorrow'
p437
I38
sS'maple'
p438
I38
sS'instagram'
p439
I38
sS'mes'
p440
I38
sS'carlyle'
p441
I37
sS'little'
p442
I36
sS'chanson'
p443
I38
sS'checked'
p444
I37
sS'los'
p445
I35
sS'avec'
p446
I38
sS'hilton'
p447
I38
sS'tired'
p448
I38
sS'elevator'
p449
I38
sS'anyone'
p450
I36
sS'their'
p451
I38
sS'attack'
p452
I37
sS'2'
p453
I35
sS'too'
p454
I33
sS'realization'
p455
I38
sS'mama'
p456
I38
sS'messing'
p457
I38
sS'really'
p458
I33
sS'final'
p459
I37
sS'friend'
p460
I35
sS'toe'
p461
I38
sS'floor"'
p462
I38
sS'stomach'
p463
I38
sS'relationship'
p464
I38
sS'that'
p465
I21
sS'gym'
p466
I37
sS'hotel'
p467
I19
sS'park'
p468
I30
sS'took'
p469
I35
sS'kitchen'
p470
I38
sS'viewing'
p471
I38
sS'yaaaaaaaayyaaaaayaaaaa'
p472
I38
sS'part'
p473
I38
sS'nigga'
p474
I38
sS'chanter'
p475
I38
sS'luxury-the'
p476
I38
sS'\xd9\x84\xd9\x83'
p477
I38
sS'convinced'
p478
I38
sS'than'
p479
I37
sS'11'
p480
I38
sS'king'
p481
I38
sS'13'
p482
I38
sS'15'
p483
I38
sS'16'
p484
I35
sS'suis'
p485
I38
sS'boring'
p486
I37
sS'>>>>>>'
p487
I38
sS'actors'
p488
I38
sS'bed'
p489
I36
sS'dogs'
p490
I38
sS'blah'
p491
I38
sS'bride'
p492
I38
sS'trade\xe2\x80\xa6'
p493
I38
sS'store'
p494
I38
sS'loves'
p495
I37
sS'tweeting'
p496
I38
sS'werk'
p497
I38
sS'feeling'
p498
I36
sS'and'
p499
I10
sS'2014'
p500
I38
sS'angel'
p501
I38
sS'omgggggg'
p502
I38
sS'pro'
p503
I38
sS'ano'
p504
I38
sS'mind'
p505
I38
sS'gummy'
p506
I38
sS'sad'
p507
I36
sS'tonight'
p508
I29
sS'talking'
p509
I38
sS'say'
p510
I36
sS'fighting'
p511
I38
sS'have'
p512
I26
sS'throat'
p513
I36
sS'themselves'
p514
I38
sS'saw'
p515
I37
sS'any'
p516
I37
sS'ballerina'
p517
I38
sS'dude'
p518
I38
sS'lil'
p519
I38
sS'spin-off'
p520
I38
sS'latter'
p521
I38
sS'cave'
p522
I38
sS'-'
p523
I30
sS'bacteria'
p524
I38
sS'note'
p525
I38
sS'also'
p526
I37
sS'los\xe2\x80\xa6'
p527
I38
sS'take'
p528
I37
sS'which'
p529
I37
sS'green'
p530
I38
sS'='
p531
I37
sS'surf'
p532
I38
sS'handing'
p533
I38
sS'sure'
p534
I37
sS'pain'
p535
I38
sS'normal'
p536
I37
sS'bruce'
p537
I38
sS'price'
p538
I38
sS'who'
p539
I36
sS'jorge'
p540
I38
sS'paid'
p541
I38
sS'most'
p542
I36
sS'opener'
p543
I38
sS'plan'
p544
I38
sS'nothing'
p545
I38
sS'panic'
p546
I37
sS'why'
p547
I33
sS'prove'
p548
I38
sS'episode'
p549
I36
sS'mistakable'
p550
I38
sS'grove'
p551
I38
sS'clear'
p552
I38
sS'sometimes'
p553
I37
sS'hungry'
p554
I37
sS'10am'
p555
I38
sS"you'll"
p556
I38
sS'points'
p557
I38
sS'sunset'
p558
I36
sS'mri'
p559
I37
sS'pictures'
p560
I37
sS'\xe2\x98\x80\xef\xb8\x8f'
p561
I38
sS'senior'
p562
I38
sS'scream'
p563
I38
sS'fact'
p564
I35
sS'wild'
p565
I38
sS'walking'
p566
I38
sS'ugh'
p567
I37
sS'show'
p568
I36
sS'lmaoo'
p569
I37
sS'mains'
p570
I38
sS'ending'
p571
I38
sS'hardcover'
p572
I38
sS'bright'
p573
I38
sS'session'
p574
I38
sS'radio'
p575
I38
sS'aggressive'
p576
I38
sS'liquorish'
p577
I37
sS'believe'
p578
I38
sS'based'
p579
I38
sS'baddie'
p580
I38
sS'ball'
p581
I38
sS'should'
p582
I37
sS'being'
p583
I37
sS'only'
p584
I36
sS'going'
p585
I35
sS'black'
p586
I37
sS'pretty'
p587
I37
sS'8'
p588
I38
sS'improv'
p589
I38
sS'posted'
p590
I37
sS'hope'
p591
I38
sS'wearing'
p592
I38
sS'do'
p593
I25
sS'his'
p594
I37
sS'get'
p595
I28
sS'10724'
p596
I38
sS'de'
p597
I37
sS'stop'
p598
I33
sS'kind'
p599
I38
sS'bear'
p600
I38
sS'satisfied'
p601
I38
sS'famous'
p602
I38
sS'feels'
p603
I38
sS'ones'
p604
I38
sS'perfection'
p605
I38
sS'champ'
p606
I38
sS'hih'
p607
I37
sS'compliments'
p608
I38
sS'installed'
p609
I38
sS'dr'
p610
I37
sS'him'
p611
I38
sS'bar'
p612
I38
sS'sources'
p613
I38
sS'married'
p614
I38
sS'packed'
p615
I38
sS'morning'
p616
I34
sS'bad'
p617
I37
sS'bae'
p618
I32
sS'she'
p619
I38
sS'through'
p620
I37
sS'river'
p621
I38
sS'where'
p622
I34
sS'view'
p623
I38
sS'set'
p624
I38
sS'\xd9\x8a\xd8\xa7\xd9\x84\xd8\xb0\xd9\x8a\xd8\xa8'
p625
I38
sS'reference'
p626
I38
sS'gawd'
p627
I38
sS'w/'
p628
I35
sS'bucket'
p629
I38
sS'massage?"'
p630
I38
sS'vine'
p631
I37
sS'we'
p632
I31
sS'anniversary'
p633
I38
sS'see'
p634
I29
sS'are'
p635
I26
sS'sea'
p636
I38
sS'corrupt'
p637
I38
sS'untitled'
p638
I38
sS'jerseys'
p639
I38
sS'best'
p640
I32
sS'pete'
p641
I38
sS'said'
p642
I38
sS'visiting'
p643
I38
sS'movie'
p644
I33
sS'please'
p645
I38
sS'thurs'
p646
I38
sS'behind'
p647
I38
sS"there's"
p648
I38
sS'horrible'
p649
I38
sS'mandarin'
p650
I38
sS'reading'
p651
I38
sS'nope'
p652
I38
sS'across'
p653
I38
sS'uh'
p654
I38
sS"40'"
p655
I38
sS'ends'
p656
I37
sS'omg'
p657
I38
sS'missing'
p658
I38
sS'joy'
p659
I38
sS'were'
p660
I38
sS'job'
p661
I37
sS'coffee'
p662
I38
sS'(los'
p663
I30
sS'jk'
p664
I36
sS'cussed'
p665
I38
sS'je'
p666
I36
sS'laraine'
p667
I38
sS'come'
p668
I37
sS'pissed'
p669
I38
sS'monitor'
p670
I38
sS'baes'
p671
I38
sS'last'
p672
I32
sS'\xe2\x9d\xa4\xef\xb8\x8f'
p673
I36
sS'joke'
p674
I38
sS"wouldn't"
p675
I38
sS"he's"
p676
I38
sS'against'
p677
I38
sS'sardis'
p678
I38
sS'une'
p679
I38
sS'sports'
p680
I38
sS'thang'
p681
I38
sS'let'
p682
I38
sS'delete'
p683
I38
sS'whole'
p684
I38
sS'9:00'
p685
I38
sS"can't"
p686
I28
sS'pancake'
p687
I38
sS'point'
p688
I37
sS'wall'
p689
I38
sS'tuesday'
p690
I38
sS'hurts'
p691
I38
sS'manners'
p692
I38
sS'delivering'
p693
I38
sS'"childhoods'
p694
I38
sS'likes'
p695
I38
sS'news'
p696
I38
sS'ante'
p697
I38
sS'li'
p698
I38
sS'yuppp'
p699
I38
sS'arts'
p700
I38
sS'yay'
p701
I37
sS'raise'
p702
I38
sS'sighting'
p703
I38
sS"it's"
p704
I23
sS'lorsque'
p705
I38
sS'50%'
p706
I38
sS'three'
p707
I38
sS'been'
p708
I37
sS'teacher'
p709
I38
sS'beer'
p710
I38
sS'much'
p711
I30
sS'treat'
p712
I38
sS'tina'
p713
I38
sS"goodbye!'"
p714
I38
sS'hottest'
p715
I38
sS'extreme'
p716
I38
sS'meeting'
p717
I38
sS'idol'
p718
I38
sS'board'
p719
I38
sS'bzaddy'
p720
I38
sS'life'
p721
I37
sS'sobriety'
p722
I38
sS'gay'
p723
I38
sS'reaction'
p724
I38
sS'fire'
p725
I38
sS'am'
p726
I38
sS"what's"
p727
I38
sS'sunshine'
p728
I38
sS'moment'
p729
I38
sS'snap'
p730
I38
sS'vaguely'
p731
I38
sS'craft'
p732
I38
sS'turn'
p733
I38
sS'catch'
p734
I38
sS'worked'
p735
I36
sS'comfortable'
p736
I38
sS'former'
p737
I38
sS'though...kids'
p738
I38
sS'yourstuff'
p739
I38
sS'myself'
p740
I38
sS'holiday'
p741
I38
sS'"ground'
p742
I38
sS'look'
p743
I38
sS'these'
p744
I36
sS'straight'
p745
I37
sS'restaurant'
p746
I35
sS'hahahahahahah'
p747
I38
sS'pretentious'
p748
I37
sS'will'
p749
I35
sS'ugly'
p750
I38
sS'while'
p751
I36
sS'hahaha'
p752
I38
sS'fun'
p753
I36
sS'au'
p754
I38
sS'balance'
p755
I38
sS'frustrating'
p756
I38
sS'taking'
p757
I38
sS'loop'
p758
I38
sS'theres'
p759
I38
sS'swim'
p760
I38
sS'played'
p761
I37
sS'edschmuhl'
p762
I38
sS'chemo'
p763
I38
sS'is'
p764
I7
sS'demon'
p765
I38
sS'it'
p766
I20
sS'encountered'
p767
I38
sS'ribeye'
p768
I38
sS'need'
p769
I34
sS'strip"'
p770
I38
sS'good'
p771
I37
sS'im'
p772
I37
sS'...............yes'
p773
I38
sS'in'
p774
I9
sS'lifeproceedprogress'
p775
I38
sS'wilshire)'
p776
I38
sS'id'
p777
I38
sS'if'
p778
I29
sS'lounge)'
p779
I38
sS'party'
p780
I38
sS'moves'
p781
I38
sS'mistyping'
p782
I38
sS'open'
p783
I38
sS'fog'
p784
I38
sS'things'
p785
I38
sS'make'
p786
I32
sS'bowl'
p787
I38
sS'bella'
p788
I37
sS'same'
p789
I38
sS'tells'
p790
I38
sS'ya'
p791
I35
sS'strange'
p792
I38
sS'followers'
p793
I38
sS'belly'
p794
I38
sS'corridor'
p795
I36
sS'<<<<<'
p796
I38
sS'isla'
p797
I38
sS'ingested'
p798
I38
sS'maks'
p799
I38
sS'start'
p800
I37
sS'vu'
p801
I38
sS'week'
p802
I38
sS'hallway'
p803
I38
sS'used'
p804
I38
sS'boyfriend)'
p805
I38
sS'promo'
p806
I38
sS'premiere'
p807
I38
sS'drink'
p808
I36
sS'elle'
p809
I38
sS'director'
p810
I38
sS'l.o'
p811
I38
sS'10600'
p812
I38
sS'fucked'
p813
I38
sS'l.a'
p814
I38
sS'cross'
p815
I38
sS'mentally'
p816
I38
sS'kid'
p817
I38
sS'hmmmmmm'
p818
I38
sS'off'
p819
I32
sS'center'
p820
I38
sS"checkin'"
p821
I38
sS'i'
p822
I2
sS'incredible'
p823
I38
sS'anybody'
p824
I38
sS'_________'
p825
I38
sS'tho'
p826
I37
sS'hispanic'
p827
I38
sS'rediculous'
p828
I38
sS'1'
p829
I38
sS'mother'
p830
I37
sS'city-area'
p831
I38
sS'the'
p832
I1
sS'summer'
p833
I36
sS'boosted'
p834
I38
sS'kkk'
p835
I38
sS'just'
p836
I22
sS"efron's"
p837
I38
sS'yea'
p838
I37
sS'money'
p839
I37
sS'executive'
p840
I38
sS'exaggerating'
p841
I38
sS'actress'
p842
I38
sS'front'
p843
I38
sS'clocks'
p844
I38
sS'kill'
p845
I37
sS'thanks'
p846
I35
sS'seats'
p847
I38
sS'touch'
p848
I38
sS'yes'
p849
I38
sS'do?damn'
p850
I38
sS'happiness'
p851
I38
sS'alzhejmers'
p852
I38
sS'upsides'
p853
I38
sS'helping'
p854
I38
sS'hills'
p855
I36
sS'thinking'
p856
I38
sS'headed'
p857
I38
sS'had'
p858
I34
sS'cuz'
p859
I38
sS'weakness'
p860
I38
sS'passive'
p861
I38
sS'4'
p862
I35
sS'crying'
p863
I38
sS'usage'
p864
I38
sS'contestant'
p865
I38
sS'tell'
p866
I38
sS'has'
p867
I37
sS'totally'
p868
I38
sS'excited'
p869
I36
sS'luxury'
p870
I38
sS'real'
p871
I37
sS'customers'
p872
I38
sS'march'
p873
I38
sS'hiarngmilitary'
p874
I38
sS'big'
p875
I37
sS'couple'
p876
I38
sS'gonna'
p877
I34
sS'early'
p878
I38
sS'working'
p879
I38
sS'traffic'
p880
I38
sS'know'
p881
I26
sS'mom'
p882
I36
sS'drive'
p883
I38
sS'd'
p884
I38
sS'stuff'
p885
I38
sS'like'
p886
I33
sS'inviting'
p887
I38
sS'95%'
p888
I38
sS'greeting'
p889
I38
sS'background'
p890
I38
sS'raisedd'
p891
I38
sS'facing'
p892
I38
sS'garage'
p893
I38
sS'audience'
p894
I38
sS'continue'
p895
I38
sS'laughing'
p896
I38
sS'night'
p897
I33
sS'beverly'
p898
I34
sS'sebastian'
p899
I38
sS'soft'
p900
I38
sS'prepping'
p901
I38
sS'because'
p902
I36
sS'old'
p903
I37
sS'people'
p904
I32
sS'fucking'
p905
I33
sS'spring'
p906
I38
sS'some'
p907
I32
sS'back'
p908
I37
sS'neve'
p909
I38
sS'chaud'
p910
I38
sS'candy'
p911
I38
sS'home'
p912
I35
sS'jlo'
p913
I38
sS'thinks'
p914
I38
sS'yesss'
p915
I38
sS'happens'
p916
I37
sS'for'
p917
I14
sS'literally'
p918
I38
sS'tube'
p919
I38
sS'lovelive'
p920
I38
sS'ice'
p921
I38
sS'cast'
p922
I38
sS'\xd8\xac\xd8\xa8'
p923
I38
sS'everything'
p924
I37
sS'tad'
p925
I38
sS'does'
p926
I37
sS'dating'
p927
I38
sS'adorable'
p928
I38
sS'wilshire'
p929
I24
sS't'
p930
I38
sS'be'
p931
I27
sS'thottieee'
p932
I38
sS'knew'
p933
I38
sS'eating'
p934
I38
sS'cry'
p935
I38
sS'power'
p936
I38
sS'internship'
p937
I38
sS'reach'
p938
I38
sS'punched'
p939
I38
sS'laker'
p940
I38
sS'how'
p941
I28
sS'^_^'
p942
I38
sS'devoirs'
p943
I38
sS'losing'
p944
I37
sS'residences'
p945
I38
sS'super'
p946
I37
sS'by'
p947
I37
sS'earlier'
p948
I38
sS'chapter'
p949
I38
sS'on'
p950
I15
sS'about'
p951
I29
sS'soudain'
p952
I38
sS'zaks'
p953
I38
sS'world'
p954
I38
sS'oh'
p955
I37
sS'of'
p956
I12
sS'plaza'
p957
I37
sS'favorite'
p958
I38
sS'angeles'
p959
I27
sS'dinner'
p960
I36
sS'empty'
p961
I38
sS'afternoon'
p962
I38
sS'act'
p963
I38
sS'luck'
p964
I38
sS'or'
p965
I37
sS'youn'
p966
I38
sS'own'
p967
I38
sS'hinnnnn'
p968
I38
sS'nan'
p969
I38
sS'knowwww'
p970
I38
sS'visit'
p971
I38
sS'selfie'
p972
I38
sS'snapchat'
p973
I38
sS'ppl'
p974
I37
sS'down'
p975
I37
sS'appropriate'
p976
I38
sS'everyone'
p977
I37
sS'promise'
p978
I38
sS'fisher'
p979
I38
sS'blvd...otherwise'
p980
I38
sS'actually'
p981
I38
sS'destroys'
p982
I38
sS'mark'
p983
I38
sS'forget'
p984
I38
sS'your'
p985
I32
sS'hmmmmm'
p986
I38
sS'thnks'
p987
I38
sS'her'
p988
I38
sS'glikas'
p989
I38
sS'weekend'
p990
I36
sS'there'
p991
I34
sS'ca)'
p992
I30
sS'lol'
p993
I25
sS'hardships'
p994
I38
sS'lmfaooo'
p995
I38
sS'absolutely'
p996
I37
sS'workshop'
p997
I38
sS"we're"
p998
I37
sS'way'
p999
I34
sS'ed'
p1000
I38
sS'thatquote'
p1001
I38
sS'andy'
p1002
I38
sS'was'
p1003
I24
sS'happy'
p1004
I37
sS'head'
p1005
I36
sS'gluten'
p1006
I38
sS"i've"
p1007
I37
sS'jewish'
p1008
I38
sS'bus'
p1009
I37
sS'\xd8\xa8\xd8\xa7\xd9\x86\xd8\xaa\xd8\xb8\xd8\xa7\xd8\xb1\xd9\x83'
p1010
I38
sS'bite'
p1011
I38
sS'but'
p1012
I32
sS'mebaby'
p1013
I38
sS'reminds'
p1014
I37
sS'hi'
p1015
I38
sS'goals'
p1016
I38
sS'cycle'
p1017
I38
sS'litt\xc3\xa9ralement'
p1018
I38
sS'boyz'
p1019
I38
sS'line'
p1020
I37
sS'with'
p1021
I25
sS'eat'
p1022
I36
sS'he'
p1023
I35
sS'count'
p1024
I38
sS'4ever'
p1025
I38
sS'made'
p1026
I35
sS'places'
p1027
I37
sS'traits'
p1028
I38
sS"wasn't"
p1029
I38
sS'wish'
p1030
I36
sS'inside'
p1031
I37
sS'official'
p1032
I38
sS'fries'
p1033
I36
sS'up'
p1034
I25
sS'us'
p1035
I37
sS'until'
p1036
I38
sS'\xd1\x84\xd0\xbe\xd1\x82\xd0\xbe'
p1037
I38
sS'books'
p1038
I38
sS'adore'
p1039
I38
sS'bbq'
p1040
I38
sS'acting'
p1041
I38
sS'highlight'
p1042
I38
sS'problem'
p1043
I38
sS'fey'
p1044
I38
sS'average'
p1045
I38
sS'ex'
p1046
I38
sS'gone'
p1047
I38
sS'playlists'
p1048
I38
sS'ag'
p1049
I38
sS'hotelpalomarla'
p1050
I37
sS'taste'
p1051
I38
sS'prewedding'
p1052
I38
sS'pic'
p1053
I37
sS'listening'
p1054
I38
sS'sweetheart'
p1055
I38
sS'kansas'
p1056
I38
sS'an'
p1057
I35
sS'as'
p1058
I37
sS'right'
p1059
I37
sS'at'
p1060
I16
sS'aw'
p1061
I38
sS'et'
p1062
I38
sS'annoying'
p1063
I37
sS'trip'
p1064
I38
sS'shit'
p1065
I36
sS'el\xe2\x80\xa6'
p1066
I38
sS'again'
p1067
I37
sS'lightheaded'
p1068
I38
sS'no'
p1069
I35
sS'commercials'
p1070
I38
sS'\xe2\x98\x80\xe2\x98\x80\xe2\x98\x80\xe2\x98\x80\xe2\x98\x80\xe2\x98\x80\xe2\x98\x80'
p1071
I38
sS'when'
p1072
I29
sS'40'
p1073
I38
sS"trippin'"
p1074
I38
sS'book'
p1075
I36
sS'5'
p1076
I38
sS'prom'
p1077
I38
sS'digital'
p1078
I38
sS'u'
p1079
I38
sS'you'
p1080
I8
sS'puppy'
p1081
I37
sS'jamming'
p1082
I38
sS'nice'
p1083
I37
sS'area'
p1084
I38
sS'ur'
p1085
I38
sS'class'
p1086
I38
sS'felt'
p1087
I37
sS'forgot'
p1088
I38
sS"let's"
p1089
I37
sS'chance'
p1090
I38
sS'12/5'
p1091
I38
sS'lent'
p1092
I38
sS'of\xe2\x80\xa6'
p1093
I38
sS'100k'
p1094
I38
sS'swede'
p1095
I38
sS'friends'
p1096
I37
sS'needed'
p1097
I38
sS'pool'
p1098
I37
sS'carbs'
p1099
I38
sS'"the'
p1100
I38
sS'apologizing'
p1101
I38
sS'anything'
p1102
I38
sS'phone'
p1103
I37
sS'together'
p1104
I38
sS'original'
p1105
I38
sS'beds'
p1106
I38
sS'summit'
p1107
I37
sS'city'
p1108
I36
sS'adam'
p1109
I38
sS'time'
p1110
I31
sS'ashton'
p1111
I38
sS'adjutant'
p1112
I38
sS'having'
p1113
I34
sS'once'
p1114
I37
s.