(dp0
S''
p1
I10
sS'all'
p2
I16
sS':)'
p3
I17
sS'yellow'
p4
I19
sS'totes'
p5
I19
sS'go'
p6
I19
sS'follow'
p7
I19
sS'mill'
p8
I19
sS'tweeted'
p9
I19
sS'children'
p10
I19
sS'apartment'
p11
I18
sS'hunting'
p12
I19
sS'tweet'
p13
I19
sS'yonc\xc3\x89'
p14
I19
sS'to'
p15
I2
sS'finally'
p16
I19
sS"show's"
p17
I19
sS'shoot'
p18
I19
sS'very'
p19
I19
sS'&lion'
p20
I19
sS'"he'
p21
I19
sS'myself'
p22
I19
sS'choice'
p23
I18
sS'me'
p24
I12
sS'vegas'
p25
I19
sS'every'
p26
I19
sS"wendy's"
p27
I19
sS'llamo'
p28
I19
sS'salmonella'
p29
I19
sS'ehow'
p30
I19
sS'cool'
p31
I19
sS'four'
p32
I19
sS'school'
p33
I19
sS'sans'
p34
I19
sS'culver\xe2\x80\xa6'
p35
I19
sS'die'
p36
I19
sS'small'
p37
I19
sS"i'll"
p38
I19
sS'shoobadooooo'
p39
I19
sS'neighborhood'
p40
I19
sS'tea'
p41
I18
sS'tee'
p42
I19
sS'fabulous'
p43
I19
sS'grooves'
p44
I19
sS'headlines'
p45
I19
sS'what'
p46
I13
sS'+'
p47
I18
sS'fingers'
p48
I19
sS'reaaaaaaally'
p49
I19
sS'crush'
p50
I19
sS'saludos'
p51
I19
sS'new'
p52
I19
sS'mamas'
p53
I19
sS'(weights'
p54
I19
sS'fravolety'
p55
I19
sS'commercial'
p56
I18
sS'here'
p57
I19
sS'hours'
p58
I19
sS'\xe2\x9d\xa4\xef\xb8\x8f'
p59
I19
sS'studio'
p60
I19
sS'civilians'
p61
I19
sS'along'
p62
I19
sS'great'
p63
I17
sS'kids'
p64
I19
sS'30'
p65
I19
sS'poisoning*this'
p66
I19
sS'complicated'
p67
I19
sS"i'm"
p68
I13
sS'luck'
p69
I19
sS'makes'
p70
I18
sS'wig'
p71
I19
sS'myself*'
p72
I19
sS'via'
p73
I19
sS'love'
p74
I14
sS'projection'
p75
I19
sS'"me'
p76
I19
sS'car!!!!*talking'
p77
I19
sS'annoy'
p78
I19
sS'1941-2014'
p79
I19
sS'should'
p80
I19
sS'use'
p81
I19
sS'co-sign'
p82
I19
sS'from'
p83
I19
sS'would'
p84
I18
sS'&'
p85
I17
sS'excuuuuse'
p86
I19
sS'arms'
p87
I19
sS'papas'
p88
I19
sS'live'
p89
I19
sS'wood'
p90
I19
sS'card'
p91
I19
sS'angels'
p92
I19
sS'today'
p93
I19
sS'more'
p94
I16
sS'sharing'
p95
I19
sS"nina's"
p96
I19
sS'started'
p97
I19
sS'culver'
p98
I19
sS'haha'
p99
I16
sS'mixtape'
p100
I19
sS'glass'
p101
I19
sS'stick'
p102
I19
sS'baby'
p103
I19
sS'hold'
p104
I19
sS'must'
p105
I17
sS'abundance'
p106
I19
sS'this'
p107
I11
sS'gabriel'
p108
I19
sS'oh'
p109
I18
sS'cat'
p110
I19
sS"jasmine's"
p111
I19
sS"t-boz's"
p112
I19
sS'crossed'
p113
I19
sS'v'
p114
I19
sS'making'
p115
I19
sS'my'
p116
I6
sS'shook'
p117
I19
sS'control'
p118
I19
sS'heart'
p119
I19
sS'crazy'
p120
I18
sS'laughs'
p121
I19
sS'want'
p122
I19
sS'needs'
p123
I19
sS'ppoott'
p124
I19
sS'watching'
p125
I19
sS'how'
p126
I19
sS'hot'
p127
I19
sS'crab\xe2\x80\xa6'
p128
I19
sS'nyc'
p129
I19
sS'beach'
p130
I19
sS'stock'
p131
I19
sS'map'
p132
I19
sS'staircase'
p133
I19
sS'bday'
p134
I19
sS'sunny'
p135
I19
sS'jajaja'
p136
I18
sS'coming'
p137
I19
sS'hahahaha'
p138
I19
sS'such'
p139
I19
sS'spelling'
p140
I19
sS'guys'
p141
I18
sS'man'
p142
I19
sS'a'
p143
I8
sS'maybe'
p144
I19
sS'so'
p145
I16
sS'sm'
p146
I19
sS'seems'
p147
I19
sS'order'
p148
I19
sS'wind'
p149
I18
sS"that's"
p150
I19
sS'exclusive'
p151
I19
sS'help'
p152
I19
sS'office'
p153
I19
sS"don't"
p154
I19
sS'over'
p155
I19
sS'lol...love'
p156
I19
sS'course'
p157
I19
sS'maaaan'
p158
I19
sS'hell'
p159
I19
sS'le'
p160
I19
sS'thank'
p161
I19
sS'la'
p162
I18
sS'pray'
p163
I19
sS'edith'
p164
I19
sS'jim'
p165
I19
sS'amazing'
p166
I18
sS'better'
p167
I18
sS'misunderstandings'
p168
I19
sS'puerto'
p169
I19
sS'might'
p170
I18
sS"haven't"
p171
I19
sS'nom'
p172
I17
sS'them'
p173
I17
sS'good'
p174
I16
sS'return'
p175
I19
sS'yo'
p176
I17
sS'flour'
p177
I19
sS'insomnia'
p178
I19
sS'dat'
p179
I19
sS'giraffe'
p180
I19
sS'they'
p181
I19
sS'half'
p182
I19
sS'not'
p183
I19
sS'now'
p184
I19
sS'day'
p185
I18
sS'truths'
p186
I19
sS'betta'
p187
I19
sS'did'
p188
I19
sS'holdin'
p189
I19
sS'truth'
p190
I19
sS'rock'
p191
I16
sS'pizza'
p192
I19
sS'glasses'
p193
I19
sS'*sigh*'
p194
I19
sS'(the'
p195
I19
sS'bump'
p196
I19
sS'grandmahphotography'
p197
I19
sS'hard'
p198
I19
sS'"rockets"'
p199
I19
sS'idea'
p200
I19
sS'our'
p201
I17
sS'girl'
p202
I19
sS'saturday'
p203
I19
sS'out'
p204
I17
sS'rt'
p205
I17
sS'hehe'
p206
I17
sS're'
p207
I19
sS'hilarious'
p208
I19
sS'got'
p209
I19
sS'correct'
p210
I19
sS'ass'
p211
I17
sS'fun'
p212
I19
sS'pythagoras'
p213
I19
sS'cutest'
p214
I19
sS"you're"
p215
I18
sS'waterfalls'
p216
I19
sS'fave'
p217
I19
sS'quite'
p218
I19
sS'senor'
p219
I19
sS'favs'
p220
I19
sS'e3'
p221
I19
sS'owners'
p222
I19
sS'dunno'
p223
I19
sS'days'
p224
I19
sS'times'
p225
I18
sS'thing'
p226
I19
sS'place'
p227
I19
sS'think'
p228
I17
sS'cheese'
p229
I19
sS'already'
p230
I19
sS'feel'
p231
I18
sS'one'
p232
I17
sS'xx'
p233
I19
sS'floors'
p234
I19
sS'long'
p235
I19
sS'delicious'
p236
I19
sS'says'
p237
I19
sS'miss'
p238
I19
sS'size'
p239
I19
sS'city'
p240
I18
sS'quality'
p241
I19
sS'caught'
p242
I19
sS'least'
p243
I19
sS'their'
p244
I19
sS'2'
p245
I17
sS'too'
p246
I18
sS'passed'
p247
I19
sS'convention'
p248
I19
sS'hollywood'
p249
I19
sS'friend'
p250
I19
sS'accompany'
p251
I19
sS'lot'
p252
I19
sS'that'
p253
I13
sS'took'
p254
I19
sS'probably'
p255
I19
sS'believe'
p256
I19
sS'convinced'
p257
I19
sS'$3'
p258
I19
sS'obama'
p259
I18
sS'10'
p260
I19
sS'lmao'
p261
I19
sS'gotta'
p262
I19
sS'shower'
p263
I19
sS'anaheim'
p264
I19
sS'r'
p265
I19
sS'and'
p266
I12
sS'fashion'
p267
I19
sS'san'
p268
I19
sS'angel'
p269
I19
sS'poder)'
p270
I19
sS'esto'
p271
I19
sS'tonight'
p272
I18
sS'say'
p273
I17
sS'alike'
p274
I19
sS'have'
p275
I19
sS'need'
p276
I19
sS'seen'
p277
I19
sS'snow'
p278
I19
sS'couch'
p279
I19
sS'which'
p280
I19
sS'green'
p281
I19
sS'='
p282
I19
sS'scandal...ever'
p283
I19
sS'(kinda)'
p284
I19
sS'begin'
p285
I19
sS'sure'
p286
I19
sS'pain'
p287
I19
sS'theatre'
p288
I19
sS'normal'
p289
I19
sS'sfv'
p290
I19
sS'knew'
p291
I19
sS'mouth'
p292
I19
sS'nothing'
p293
I19
sS'cap'
p294
I19
sS'why'
p295
I19
sS'forever'
p296
I19
sS'pago'
p297
I19
sS'steady'
p298
I19
sS'tech'
p299
I19
sS'hear'
p300
I19
sS'fact'
p301
I19
sS'walking'
p302
I19
sS'shot'
p303
I19
sS'show'
p304
I16
sS'weho'
p305
I19
sS'summer?"'
p306
I19
sS'chicken'
p307
I19
sS'fine'
p308
I19
sS'braxtons'
p309
I19
sS'current'
p310
I19
sS'busy'
p311
I19
sS'crossfit'
p312
I19
sS'condos'
p313
I19
sS'than'
p314
I19
sS'rico'
p315
I19
sS'going'
p316
I17
sS'pretty'
p317
I19
sS'hope'
p318
I19
sS'do'
p319
I16
sS'dl'
p320
I19
sS'his'
p321
I18
sS'get'
p322
I17
sS'watch'
p323
I18
sS'truly'
p324
I19
sS'framing'
p325
I19
sS"'til"
p326
I19
sS'still-evolving'
p327
I19
sS'poutine'
p328
I19
sS'dr'
p329
I19
sS'sleeve'
p330
I19
sS'she'
p331
I19
sS'mercator'
p332
I19
sS'tortilla'
p333
I19
sS'where'
p334
I18
sS'600k'
p335
I19
sS'liquor'
p336
I19
sS'see'
p337
I18
sS'are'
p338
I16
sS'paul'
p339
I19
sS'bomb'
p340
I19
sS'wonder'
p341
I18
sS'"shut'
p342
I19
sS'said'
p343
I19
sS'hambre'
p344
I19
sS'movie'
p345
I19
sS'wow'
p346
I19
sS'currently'
p347
I19
sS'rewinding'
p348
I19
sS'mug'
p349
I19
sS'gaga'
p350
I19
sS'mum'
p351
I19
sS'progress'
p352
I18
sS'we'
p353
I14
sS'missing'
p354
I19
sS'screen'
p355
I19
sS'coffee'
p356
I19
sS'key'
p357
I19
sS'goshnabit'
p358
I19
sS'both'
p359
I19
sS'last'
p360
I19
sS'country'
p361
I19
sS'minds'
p362
I19
sS'tlc'
p363
I19
sS'logic'
p364
I19
sS'awards'
p365
I19
sS'whole'
p366
I19
sS"can't"
p367
I19
sS'peacefully'
p368
I19
sS'character'
p369
I19
sS'4am...late'
p370
I19
sS'por'
p371
I19
sS'rave'
p372
I19
sS'pocky'
p373
I19
sS'yooooo'
p374
I19
sS'conference'
p375
I19
sS'late'
p376
I19
sS"it's"
p377
I16
sS'much'
p378
I18
sS'gaza'
p379
I19
sS'curtain'
p380
I19
sS'lovely'
p381
I19
sS'sisterhood'
p382
I19
sS'wants'
p383
I19
sS'resting'
p384
I19
sS'commutes'
p385
I19
sS'crack'
p386
I19
sS'apartments'
p387
I19
sS'else'
p388
I19
sS'regency'
p389
I19
sS'hobby'
p390
I19
sS'hughes'
p391
I18
sS'every-time'
p392
I19
sS'look'
p393
I19
sS'rat'
p394
I19
sS'will'
p395
I17
sS'cure'
p396
I19
sS'wild'
p397
I19
sS'<3'
p398
I19
sS'is'
p399
I5
sS'lush'
p400
I19
sS'it'
p401
I9
sS'ross...you'
p402
I19
sS'someone'
p403
I19
sS'in'
p404
I4
sS'ready'
p405
I19
sS'kenya'
p406
I19
sS'if'
p407
I19
sS'education'
p408
I19
sS'make'
p409
I18
sS'same'
p410
I19
sS'romance'
p411
I18
sS'harmonies'
p412
I19
sS'slammed'
p413
I19
sS'arguments'
p414
I19
sS'"i'
p415
I19
sS'....drowned'
p416
I19
sS'used'
p417
I19
sS'ella'
p418
I19
sS'upon'
p419
I19
sS'running'
p420
I19
sS'so.just'
p421
I19
sS'i"'
p422
I19
sS'l.a'
p423
I19
sS'lobby'
p424
I19
sS'kept'
p425
I19
sS'center'
p426
I19
sS'pacino'
p427
I19
sS'i'
p428
I1
sS'well'
p429
I19
sS'anybody'
p430
I19
sS'tho'
p431
I19
sS'y'
p432
I19
sS'the'
p433
I3
sS'yours'
p434
I19
sS"kandi's"
p435
I19
sS'meet'
p436
I19
sS'mom'
p437
I19
sS'just'
p438
I15
sS'recipe**bakes'
p439
I19
sS"swv's"
p440
I19
sS'ldr'
p441
I19
sS'thanks'
p442
I17
sS'facts'
p443
I19
sS'yes'
p444
I18
sS'prince'
p445
I19
sS'death'
p446
I19
sS'had'
p447
I17
sS'except'
p448
I19
sS'it\xe2\x80\x99s'
p449
I19
sS'keeler'
p450
I19
sS'sweet'
p451
I19
sS'has'
p452
I19
sS'hat'
p453
I19
sS'excited'
p454
I19
sS'real'
p455
I19
sS'big'
p456
I19
sS'protesters'
p457
I19
sS'amy'
p458
I19
sS'huffpost'
p459
I19
sS'know'
p460
I16
sS'\xe2\x9d\xa4'
p461
I18
sS'world'
p462
I17
sS'unique'
p463
I19
sS'lady'
p464
I19
sS'like'
p465
I13
sS'wingstop'
p466
I19
sS'either'
p467
I18
sS'night'
p468
I19
sS'beverly'
p469
I19
sS'right'
p470
I15
sS'people'
p471
I19
sS'absolutely'
p472
I19
sS'cider'
p473
I19
sS'chicken**googles'
p474
I19
sS'back'
p475
I18
sS'whiner'
p476
I19
sS'home'
p477
I17
sS'sprint'
p478
I19
sS'happens'
p479
I19
sS'pilates'
p480
I19
sS'mood'
p481
I19
sS'for'
p482
I13
sS'though'
p483
I19
sS'toto'
p484
I19
sS'slick'
p485
I19
sS'everything'
p486
I18
sS'does'
p487
I19
sS'expensive'
p488
I19
sS'enuf'
p489
I19
sS'be'
p490
I15
sS'who'
p491
I19
sS'fitness'
p492
I19
sS'n00b"'
p493
I19
sS'credits'
p494
I19
sS'socason'
p495
I19
sS';)'
p496
I18
sS'by'
p497
I19
sS'on'
p498
I13
sS'about'
p499
I18
sS':-)'
p500
I18
sS'ok'
p501
I19
sS'getting'
p502
I18
sS'gettinh'
p503
I19
sS'of'
p504
I7
sS'shrimp'
p505
I19
sS'plus'
p506
I19
sS'progressions'
p507
I19
sS'stank'
p508
I19
sS'mean'
p509
I19
sS'hahahah'
p510
I18
sS'or'
p511
I16
sS'*googles'
p512
I19
sS'after!)'
p513
I19
sS'own'
p514
I19
sS'winehouse'
p515
I19
sS'el'
p516
I19
sS'into'
p517
I18
sS'two'
p518
I19
sS'screamed'
p519
I19
sS'google'
p520
I19
sS'parties'
p521
I19
sS'your'
p522
I15
sS'eh'
p523
I19
sS'loni'
p524
I18
sS'fast'
p525
I19
sS"how's"
p526
I19
sS'there'
p527
I17
sS'hey'
p528
I17
sS'lol'
p529
I6
sS'low'
p530
I19
sS'way'
p531
I19
sS'forward'
p532
I19
sS'valley'
p533
I19
sS'happy'
p534
I18
sS'buy'
p535
I19
sS'batman'
p536
I19
sS'siga'
p537
I19
sS'but'
p538
I17
sS'reminds'
p539
I19
sS'hh'
p540
I19
sS'construction'
p541
I19
sS'uncle'
p542
I19
sS'goals'
p543
I19
sS'ha'
p544
I19
sS'with'
p545
I12
sS'(la'
p546
I19
sS'scarecrow'
p547
I19
sS'up'
p548
I16
sS'there...hope'
p549
I19
sS'etc)'
p550
I19
sS'minutes'
p551
I19
sS'gone'
p552
I19
sS'liberal'
p553
I19
sS'ambici\xc3\xb3n'
p554
I19
sS'ah'
p555
I17
sS'pic'
p556
I19
sS'am'
p557
I19
sS'al'
p558
I18
sS'as'
p559
I19
sS'diverse'
p560
I19
sS'at'
p561
I16
sS'girlfriend'
p562
I19
sS'watched'
p563
I19
sS'awhile'
p564
I19
sS'cafe'
p565
I19
sS'shit'
p566
I18
sS'yoga'
p567
I19
sS'no'
p568
I18
sS'when'
p569
I16
sS'"ohhhh"'
p570
I19
sS'tin'
p571
I19
sS'other'
p572
I19
sS'que'
p573
I19
sS'you'
p574
I4
sS'really'
p575
I18
sS'nice'
p576
I19
sS'album'
p577
I19
sS'may'
p578
I19
sS'palms'
p579
I18
sS'felt'
p580
I19
sS'update'
p581
I19
sS"let's"
p582
I18
sS'chance'
p583
I19
sS'kinda'
p584
I19
sS'chris'
p585
I19
sS'weekend'
p586
I18
sS'building'
p587
I18
sS'e'
p588
I18
sS'me."'
p589
I19
sS'restores'
p590
I19
sS'together'
p591
I19
sS'aprieta'
p592
I19
sS'c.c'
p593
I19
sS'baked'
p594
I19
s.