(dp0
S''
p1
I1
sS'all'
p2
I16
sS':('
p3
I25
sS':)'
p4
I24
sS'manager'
p5
I25
sS'gang'
p6
I25
sS'hanging'
p7
I24
sS'go'
p8
I20
sS'follow'
p9
I23
sS'tweeted'
p10
I25
sS'(which'
p11
I25
sS'causes'
p12
I25
sS'looking'
p13
I23
sS'venice'
p14
I21
sS'apartment'
p15
I25
sS'tweet'
p16
I25
sS'kosovo'
p17
I25
sS'young'
p18
I25
sS'send'
p19
I24
sS'to'
p20
I3
sS'finally'
p21
I24
sS'lovestock'
p22
I25
sS'exit'
p23
I25
sS'sorry'
p24
I25
sS'pride'
p25
I25
sS'outside'
p26
I25
sS'far'
p27
I25
sS'horror'
p28
I25
sS'continues'
p29
I25
sS'711'
p30
I24
sS'avalon'
p31
I25
sS'scout'
p32
I25
sS'every'
p33
I23
sS'jack'
p34
I24
sS'drinking'
p35
I25
sS'exact'
p36
I25
sS'cool'
p37
I25
sS'school'
p38
I24
sS'heaven'
p39
I25
sS'whish'
p40
I25
sS'issue'
p41
I25
sS'list'
p42
I25
sS'try'
p43
I23
sS'vibes'
p44
I25
sS'weho'
p45
I25
sS'team'
p46
I25
sS'small'
p47
I25
sS'guy'
p48
I25
sS'heading'
p49
I25
sS'clothes'
p50
I25
sS"i'll"
p51
I20
sS'work'
p52
I21
sS'bravo'
p53
I25
sS'wrestling'
p54
I25
sS'battle'
p55
I25
sS'woody'
p56
I25
sS'download'
p57
I25
sS'victor'
p58
I25
sS'even'
p59
I21
sS'what'
p60
I22
sS'+'
p61
I25
sS'lawrence'
p62
I25
sS'cell'
p63
I25
sS'blur'
p64
I25
sS'new'
p65
I19
sS'learned'
p66
I25
sS'guns'
p67
I25
sS'hungover'
p68
I25
sS'never'
p69
I23
sS'commercial'
p70
I25
sS'weekends"'
p71
I25
sS'here'
p72
I22
sS'o.g'
p73
I25
sS'meu'
p74
I25
sS'\xe2\x9d\xa4\xef\xb8\x8f'
p75
I24
sS'them'
p76
I20
sS'hulk'
p77
I25
sS'groups'
p78
I25
sS'making'
p79
I24
sS'teacher'
p80
I25
sS'change'
p81
I23
sS'wait'
p82
I24
sS'box'
p83
I25
sS'boy'
p84
I24
sS'great'
p85
I22
sS'substance'
p86
I25
sS'root'
p87
I25
sS'employees'
p88
I25
sS'd.h'
p89
I25
sS'experience'
p90
I25
sS'froyo'
p91
I25
sS'pick'
p92
I25
sS"i'm"
p93
I13
sS'settled'
p94
I25
sS'options'
p95
I25
sS'thats'
p96
I24
sS'rigged'
p97
I25
sS'love'
p98
I15
sS'family'
p99
I25
sS'extra'
p100
I25
sS'app'
p101
I25
sS'commandments'
p102
I25
sS'moral'
p103
I25
sS'thursday'
p104
I25
sS"sister's"
p105
I25
sS'market'
p106
I25
sS'yourself'
p107
I24
sS'use'
p108
I25
sS'from'
p109
I20
sS'working'
p110
I24
sS'&'
p111
I17
sS'\xe2\x99\xa5\xef\xb8\x8f'
p112
I25
sS'france'
p113
I23
sS'live'
p114
I24
sS'splash'
p115
I25
sS'music'
p116
I25
sS'2:15am'
p117
I25
sS'films'
p118
I25
sS'australian'
p119
I24
sS'thru'
p120
I24
sS'tell'
p121
I25
sS'today'
p122
I20
sS'more'
p123
I22
sS'turbo'
p124
I24
sS'rucas'
p125
I25
sS'box)'
p126
I25
sS'holy'
p127
I24
sS'started'
p128
I25
sS'culver'
p129
I24
sS'haha'
p130
I22
sS'site'
p131
I24
sS'downtown'
p132
I25
sS'phone'
p133
I25
sS'couple'
p134
I25
sS'bahamas'
p135
I25
sS'baby'
p136
I24
sS'hold'
p137
I25
sS'earth'
p138
I25
sS'women'
p139
I25
sS'me'
p140
I8
sS'join'
p141
I23
sS'room'
p142
I25
sS'salad'
p143
I25
sS'this'
p144
I13
sS'car'
p145
I25
sS'getting'
p146
I22
sS'cat'
p147
I25
sS'movies'
p148
I25
sS'can'
p149
I23
sS'"best'
p150
I25
sS'meet'
p151
I24
sS'my'
p152
I8
sS'def'
p153
I25
sS'beautiful'
p154
I24
sS'heart'
p155
I25
sS'crazy'
p156
I25
sS'2/21'
p157
I25
sS'fucc'
p158
I25
sS'figure'
p159
I25
sS'monica'
p160
I25
sS'awesome'
p161
I23
sS"didn't"
p162
I25
sS'repacks**'
p163
I25
sS'thug'
p164
I25
sS'his'
p165
I25
sS'hilton'
p166
I25
sS'something'
p167
I25
sS'want'
p168
I20
sS'blvd'
p169
I22
sS'melbourne'
p170
I25
sS'needs'
p171
I25
sS'goal'
p172
I25
sS'awkward'
p173
I25
sS'says-'
p174
I25
sS'cleansing'
p175
I25
sS'1'
p176
I24
sS'how'
p177
I22
sS'hot'
p178
I24
sS'beach'
p179
I24
sS'plans'
p180
I25
sS'watch'
p181
I24
sS'dive'
p182
I25
sS'after'
p183
I23
sS'spot'
p184
I25
sS'wrong'
p185
I25
sS'birthday'
p186
I24
sS'mad'
p187
I25
sS'coming'
p188
I24
sS'date'
p189
I25
sS'such'
p190
I24
sS'guys'
p191
I25
sS'lifting'
p192
I25
sS'man'
p193
I21
sS'a'
p194
I5
sS'realized'
p195
I25
sS'whenever'
p196
I25
sS'hahahah'
p197
I25
sS'shady'
p198
I25
sS'st'
p199
I23
sS"honda's"
p200
I25
sS'so'
p201
I9
sS'pay'
p202
I25
sS'wind'
p203
I25
sS'cute'
p204
I25
sS'serving'
p205
I25
sS'shoes'
p206
I24
sS'leigh'
p207
I25
sS"don't"
p208
I21
sS'over'
p209
I24
sS'move'
p210
I25
sS'soon'
p211
I22
sS'years'
p212
I25
sS'course'
p213
I25
sS'london'
p214
I25
sS'looks'
p215
I24
sS'still'
p216
I24
sS'perfect'
p217
I25
sS'25'
p218
I25
sS'group'
p219
I25
sS'thank'
p220
I22
sS'curly'
p221
I25
sS'la'
p222
I23
sS'somewhere'
p223
I25
sS'trying'
p224
I25
sS'avocado'
p225
I25
sS'sunday'
p226
I23
sS'writing'
p227
I25
sS'better'
p228
I23
sS'mail'
p229
I25
sS'soccer'
p230
I25
sS'might'
p231
I24
sS'into'
p232
I25
sS"haven't"
p233
I24
sS'coffee'
p234
I17
sS'good'
p235
I18
sS'yo'
p236
I24
sS'moms'
p237
I25
sS'auto'
p238
I25
sS'yessir'
p239
I25
sS'aspersions'
p240
I25
sS'\xe2\x98\xba\xef\xb8\x8f'
p241
I24
sS'half'
p242
I25
sS'not'
p243
I20
sS'sorted'
p244
I25
sS'now'
p245
I16
sS'yugo'
p246
I25
sS'day'
p247
I20
sS'february'
p248
I25
sS'meat'
p249
I25
sS'always'
p250
I24
sS'drop'
p251
I24
sS'someone'
p252
I25
sS'truth'
p253
I25
sS'best--dov'
p254
I25
sS'side'
p255
I25
sS'everyone'
p256
I24
sS'another'
p257
I25
sS'house'
p258
I25
sS'hard'
p259
I25
sS'yeah'
p260
I24
sS'year'
p261
I21
sS'our'
p262
I21
sS'bay'
p263
I25
sS'event'
p264
I25
sS'out'
p265
I14
sS'album'
p266
I25
sS'living'
p267
I25
sS'miss'
p268
I21
sS'classy'
p269
I25
sS'since'
p270
I23
sS'hooked'
p271
I25
sS'convenience'
p272
I25
sS'content'
p273
I25
sS'stuff'
p274
I25
sS'9:30'
p275
I25
sS'got'
p276
I21
sS'washes'
p277
I25
sS'cause'
p278
I25
sS'model'
p279
I25
sS'pun'
p280
I25
sS'sxsw'
p281
I25
sS"you're"
p282
I18
sS'friday'
p283
I25
sS'little'
p284
I22
sS'free'
p285
I23
sS'reason'
p286
I25
sS'wanted'
p287
I25
sS'craving'
p288
I24
sS'care'
p289
I24
sS'scary'
p290
I25
sS'yup'
p291
I24
sS'could'
p292
I24
sS'hollywood'
p293
I25
sS'days'
p294
I24
sS'studios)'
p295
I25
sS'american'
p296
I25
sS'papacito'
p297
I25
sS'place'
p298
I22
sS'daisy'
p299
I25
sS'messaged'
p300
I25
sS'blogging'
p301
I25
sS'think'
p302
I22
sS'first'
p303
I21
sS'already'
p304
I24
sS'shopper'
p305
I25
sS'feel'
p306
I24
sS'taco'
p307
I25
sS'too('
p308
I25
sS'one'
p309
I15
sS'long'
p310
I23
sS'nashi'
p311
I25
sS'spanish'
p312
I25
sS'sounds'
p313
I25
sS'quality'
p314
I24
sS'tomorrow'
p315
I20
sS'city'
p316
I23
sS'story'
p317
I24
sS'service'
p318
I25
sS'nome'
p319
I25
sS'girls'
p320
I25
sS'hamsters'
p321
I25
sS'anyone'
p322
I23
sS'their'
p323
I25
sS'moldes'
p324
I25
sS'2'
p325
I24
sS'too'
p326
I19
sS'tom'
p327
I25
sS'palestine'
p328
I25
sS'white'
p329
I25
sS'las'
p330
I25
sS'banana'
p331
I25
sS'store'
p332
I25
sS"o'reilly"
p333
I25
sS'selling'
p334
I25
sS'stomach'
p335
I25
sS'shepherd'
p336
I25
sS'that'
p337
I10
sS'season'
p338
I23
sS'took'
p339
I25
sS'immediate'
p340
I25
sS'posts'
p341
I25
sS'rockin'
p342
I25
sS'part'
p343
I25
sS'baptized'
p344
I25
sS"that'll"
p345
I25
sS'believe'
p346
I24
sS'exisnice'
p347
I25
sS'than'
p348
I24
sS'11'
p349
I25
sS'catered'
p350
I25
sS'unfortunately'
p351
I25
sS'gotta'
p352
I24
sS'bed'
p353
I25
sS'sweden'
p354
I25
sS'classes'
p355
I25
sS'were'
p356
I25
sS'v.just'
p357
I25
sS'remembers'
p358
I24
sS'bet'
p359
I25
sS'and'
p360
I11
sS'mini'
p361
I25
sS'n\xc3\xa3o'
p362
I25
sS'san'
p363
I25
sS'sam'
p364
I25
sS'mind'
p365
I24
sS'mine'
p366
I24
sS'alley'
p367
I25
sS'sad'
p368
I25
sS'tonight'
p369
I21
sS'juice'
p370
I25
sS'have'
p371
I17
sS'need'
p372
I20
sS'seen'
p373
I25
sS'seem'
p374
I25
sS'saw'
p375
I25
sS'any'
p376
I23
sS'encontrei'
p377
I25
sS'invite'
p378
I25
sS'sell'
p379
I25
sS'congrats'
p380
I25
sS'able'
p381
I25
sS'take'
p382
I24
sS'tooo'
p383
I25
sS'performance'
p384
I25
sS'asshole'
p385
I25
sS'wonder'
p386
I25
sS'='
p387
I25
sS"gotchur'"
p388
I25
sS'play'
p389
I25
sS'sure'
p390
I24
sS'though'
p391
I24
sS'quote'
p392
I25
sS'who'
p393
I24
sS'scooby'
p394
I25
sS'rehearsal'
p395
I25
sS'nutella'
p396
I25
sS'germany'
p397
I25
sS'plan'
p398
I24
sS'awh'
p399
I24
sS'nothing'
p400
I25
sS'why'
p401
I24
sS'nonprofits'
p402
I25
sS'episode'
p403
I24
sS'doo'
p404
I25
sS'actually'
p405
I25
sS'later'
p406
I25
sS'face'
p407
I24
sS'looked'
p408
I25
sS'lounge'
p409
I25
sS'dos'
p410
I25
sS'culpritlosangeles'
p411
I25
sS'lying'
p412
I25
sS'shop'
p413
I25
sS'atmosphere'
p414
I25
sS'ugh'
p415
I24
sS's.a.g'
p416
I25
sS'overpriced'
p417
I25
sS'show'
p418
I24
sS'text'
p419
I24
sS'lay'
p420
I25
sS'holidaze'
p421
I25
sS'bring'
p422
I25
sS'h\xc3\xa1'
p423
I25
sS'target'
p424
I25
sS'nephew'
p425
I25
sS'enjoyed'
p426
I24
sS'help'
p427
I25
sS'giant'
p428
I25
sS'flowers'
p429
I25
sS"nando's"
p430
I25
sS'with'
p431
I12
sS'3'
p432
I23
sS'should'
p433
I22
sS'only'
p434
I23
sS'going'
p435
I23
sS'pretty'
p436
I21
sS'folks'
p437
I25
sS'forfeit'
p438
I25
sS'hope'
p439
I22
sS'pumpkin'
p440
I24
sS'wearing'
p441
I25
sS'do'
p442
I16
sS'atticus'
p443
I25
sS'dm'
p444
I24
sS'hit'
p445
I25
sS'get'
p446
I19
sS'de'
p447
I23
sS'stop'
p448
I23
sS'da'
p449
I24
sS'allen'
p450
I25
sS'tbh'
p451
I25
sS'saturday'
p452
I25
sS'reply'
p453
I25
sS'during'
p454
I24
sS'friday...nashville'
p455
I25
sS'chips'
p456
I25
sS'him'
p457
I25
sS'*ahem*'
p458
I25
sS'donate'
p459
I25
sS'bar'
p460
I24
sS'morning'
p461
I19
sS'jokes'
p462
I25
sS'bad'
p463
I24
sS'bae'
p464
I25
sS'clowns'
p465
I25
sS'1389'
p466
I25
sS"won't"
p467
I25
sS'where'
p468
I25
sS'kill'
p469
I25
sS'hogans'
p470
I25
sS'concert'
p471
I25
sS'w/'
p472
I25
sS'splish'
p473
I25
sS'see'
p474
I20
sS'are'
p475
I22
sS'fail'
p476
I25
sS'flavor'
p477
I25
sS'subject'
p478
I25
sS'said'
p479
I25
sS'temptation'
p480
I25
sS'wow'
p481
I25
sS'please'
p482
I20
sS'slapped'
p483
I25
sS'enough'
p484
I24
sS"there's"
p485
I25
sS'it'
p486
I12
sS'probably'
p487
I25
sS'kosharkashi'
p488
I25
sS'nope'
p489
I25
sS'email'
p490
I24
sS'piss'
p491
I25
sS'europe'
p492
I25
sS'we'
p493
I18
sS'creating'
p494
I25
sS'god'
p495
I25
sS'connection)'
p496
I23
sS'(los'
p497
I25
sS'opposition'
p498
I25
sS'news'
p499
I25
sS'come'
p500
I22
sS'hills'
p501
I25
sS'league'
p502
I24
sS'prospects'
p503
I25
sS'many'
p504
I25
sS'taking'
p505
I23
sS"he's"
p506
I25
sS'hours'
p507
I24
sS'amazing'
p508
I23
sS'players'
p509
I24
sS'connection'
p510
I23
sS'let'
p511
I22
sS'lp33'
p512
I25
sS'megz'
p513
I25
sS"can't"
p514
I23
sS'6:34'
p515
I25
sS'cc'
p516
I24
sS'seems'
p517
I25
sS'ca'
p518
I23
sS'community'
p519
I25
sS'2nd'
p520
I25
sS'na'
p521
I25
sS'twin'
p522
I24
sS'[pic]'
p523
I25
sS'gratitude'
p524
I25
sS'lv'
p525
I25
sS"it's"
p526
I18
sS'ca)'
p527
I25
sS'parsley'
p528
I25
sS'been'
p529
I18
sS'strategy'
p530
I25
sS'beer'
p531
I25
sS'much'
p532
I21
sS'damn'
p533
I25
sS'fog'
p534
I25
sS'sesh'
p535
I25
sS'lovely'
p536
I25
sS'woke'
p537
I25
sS'pm'
p538
I25
sS'life'
p539
I23
sS'first-ever'
p540
I25
sS'moved'
p541
I25
sS"what's"
p542
I23
sS'else'
p543
I25
sS'photos'
p544
I25
sS'wake'
p545
I25
sS'golf'
p546
I25
sS'champions'
p547
I24
sS'those'
p548
I24
sS'case'
p549
I25
sS'novel'
p550
I25
sS'casa'
p551
I25
sS'look'
p552
I24
sS'talking'
p553
I25
sS'these'
p554
I24
sS'straight'
p555
I25
sS'\xe3\x81\xa8\xe3\x81\xa6\xe3\x82\x82\xe7\xb4\xa0\xe6\x95\xb5'
p556
I25
sS'will'
p557
I18
sS'while'
p558
I25
sS'life"'
p559
I25
sS'hahaha'
p560
I23
sS'frappe'
p561
I25
sS'k'
p562
I25
sS'-matthew'
p563
I25
sS'errado'
p564
I25
sS'almost'
p565
I25
sS'is'
p566
I7
sS'sushi'
p567
I24
sS'designs'
p568
I25
sS'sleeping'
p569
I25
sS'itself'
p570
I25
sS'im'
p571
I24
sS'avi'
p572
I25
sS'in'
p573
I7
sS'ready'
p574
I24
sS'fama'
p575
I25
sS'technology'
p576
I25
sS'everyday'
p577
I25
sS'worry'
p578
I25
sS'if'
p579
I18
sS'spaces'
p580
I25
sS'different'
p581
I25
sS'anymore'
p582
I25
sS'mobile/store/browser'
p583
I25
sS'perform'
p584
I25
sS'things'
p585
I24
sS'make'
p586
I25
sS'belong'
p587
I25
sS'same'
p588
I24
sS'trip'
p589
I25
sS'parts'
p590
I25
sS'grand'
p591
I25
sS'9'
p592
I25
sS'party'
p593
I23
sS'gets'
p594
I24
sS'start'
p595
I25
sS'yung'
p596
I25
sS'week'
p597
I24
sS'fairly'
p598
I25
sS'used'
p599
I25
sS'temporary'
p600
I25
sS'hahahhahah'
p601
I25
sS'hang'
p602
I24
sS'a\xc3\xad'
p603
I25
sS'waterfall'
p604
I25
sS'moving'
p605
I25
sS'sisters'
p606
I25
sS'tuna'
p607
I25
sS'l.a'
p608
I25
sS'bob'
p609
I25
sS'early'
p610
I25
sS'off'
p611
I23
sS'thx'
p612
I25
sS'i'
p613
I3
sS'minecraft'
p614
I25
sS'incredible'
p615
I25
sS'well'
p616
I22
sS'anybody'
p617
I25
sS'person'
p618
I25
sS'cal\xc3\xa7ada'
p619
I25
sS'without'
p620
I22
sS'comes'
p621
I24
sS'mother'
p622
I25
sS'the'
p623
I2
sS'camps'
p624
I25
sS'there...haha'
p625
I25
sS'yours'
p626
I25
sS'tha'
p627
I25
sS'dinna'
p628
I25
sS'routinely'
p629
I25
sS'just'
p630
I22
sS'less'
p631
I25
sS'tip'
p632
I25
sS'weekend'
p633
I25
sS'*-*'
p634
I25
sS'cocky'
p635
I25
sS'thanks'
p636
I18
sS'genuflecting'
p637
I25
sS'yes'
p638
I19
sS'speed'
p639
I25
sS'**unpacks'
p640
I25
sS'campaign'
p641
I25
sS'thinking'
p642
I25
sS'also...i'
p643
I25
sS'had'
p644
I23
sS'(duh!)'
p645
I25
sS'blog'
p646
I24
sS'simple'
p647
I25
sS'setting'
p648
I25
sS'parents'
p649
I25
sS'4'
p650
I25
sS'sweet'
p651
I25
sS'has'
p652
I24
sS'excited'
p653
I25
sS'smart'
p654
I25
sS'visionquest'
p655
I25
sS'makes'
p656
I25
sS'casting'
p657
I25
sS'around'
p658
I24
sS'molding'
p659
I25
sS'big'
p660
I25
sS'breaks'
p661
I24
sS'gonna'
p662
I25
sS'danvel'
p663
I25
sS'>'
p664
I25
sS'know'
p665
I17
sS'mom'
p666
I25
sS'world'
p667
I24
sS'pies'
p668
I25
sS'd'
p669
I25
sS'like'
p670
I18
sS'bluud'
p671
I25
sS'tardy'
p672
I25
sS'french'
p673
I25
sS'michael'
p674
I25
sS'tsunami'
p675
I25
sS'night'
p676
I20
sS'beverly'
p677
I25
sS"hero's"
p678
I25
sS'right'
p679
I17
sS'ole'
p680
I25
sS'people'
p681
I24
sS'scared'
p682
I25
sS'some'
p683
I17
sS'back'
p684
I22
sS'hair'
p685
I25
sS'francisco'
p686
I25
sS'home'
p687
I25
sS'mustang'
p688
I25
sS'gross'
p689
I25
sS'slice'
p690
I25
sS'for'
p691
I6
sS'pet'
p692
I25
sS'literally'
p693
I24
sS'/'
p694
I24
sS'loved'
p695
I25
sS'does'
p696
I23
sS'passion'
p697
I25
sS'decent'
p698
I25
sS'be'
p699
I14
sS'blowing'
p700
I25
sS'eating'
p701
I25
sS'sadie'
p702
I25
sS'dicen'
p703
I25
sS'"nights'
p704
I25
sS'santa'
p705
I25
sS'estive'
p706
I25
sS';)'
p707
I25
sS'hahahhahahahhahaha'
p708
I25
sS'on'
p709
I13
sS'about'
p710
I21
sS'rare'
p711
I25
sS'would'
p712
I20
sS'anything'
p713
I25
sS'oh'
p714
I23
sS'of'
p715
I11
sS'favorite'
p716
I25
sS'angeles'
p717
I22
sS'must'
p718
I25
sS'algo'
p719
I25
sS'west'
p720
I24
sS'wanna'
p721
I23
sS'or'
p722
I25
sS'block'
p723
I25
sS'seeing'
p724
I23
sS'consulting'
p725
I25
sS'selfie'
p726
I25
sS'float'
p727
I25
sS'socks'
p728
I25
sS'bath'
p729
I25
sS'down'
p730
I25
sS'lies'
p731
I25
sS'because'
p732
I24
sS'rising'
p733
I25
sS'homeless'
p734
I24
sS'wade'
p735
I23
sS'next'
p736
I22
sS'your'
p737
I13
sS'delusional'
p738
I25
sS'her'
p739
I25
sS'slurpee'
p740
I25
sS'support'
p741
I24
sS'there'
p742
I22
sS'hey'
p743
I24
sS'lol'
p744
I24
sS'mama'
p745
I25
sS'fully'
p746
I25
sS'los'
p747
I23
sS'cats'
p748
I25
sS"we're"
p749
I25
sS'way'
p750
I24
sS'series'
p751
I25
sS'forward'
p752
I24
sS'call'
p753
I25
sS'was'
p754
I23
sS'jinx'
p755
I25
sS'happy'
p756
I25
sS'blueprint'
p757
I25
sS'howieee\xe2\x80\x9d'
p758
I25
sS'cosmopolitan'
p759
I25
sS'conference'
p760
I25
sS"i've"
p761
I23
sS'doobby'
p762
I25
sS'bullshit'
p763
I25
sS'but'
p764
I21
sS'idea'
p765
I25
sS'yesssss'
p766
I25
sS'mich'
p767
I25
sS'line'
p768
I25
sS'editing'
p769
I25
sS'true'
p770
I24
sS'dull'
p771
I25
sS'buying'
p772
I24
sS'he'
p773
I24
sS'football'
p774
I25
sS"they're"
p775
I25
sS'made'
p776
I22
sS'ninawell'
p777
I25
sS'todas'
p778
I25
sS'wish'
p779
I25
sS'finals'
p780
I25
sS'up'
p781
I19
sS'us'
p782
I23
sS'until'
p783
I25
sS'flirt'
p784
I25
sS'crystal'
p785
I25
sS'levis'
p786
I25
sS'dirty'
p787
I25
sS'suitcase'
p788
I25
sS'cake'
p789
I25
sS'in&out'
p790
I25
sS'problem'
p791
I24
sS'loving'
p792
I25
sS'called'
p793
I25
sS'gone'
p794
I24
sS'taste'
p795
I24
sS'pic'
p796
I25
sS'am'
p797
I24
sS'pie'
p798
I25
sS'...why'
p799
I25
sS'an'
p800
I22
sS'as'
p801
I24
sS'at'
p802
I8
sS'babe'
p803
I25
sS'check'
p804
I23
sS'shit'
p805
I23
sS'fill'
p806
I25
sS'beyond'
p807
I25
sS'baerrito'
p808
I25
sS'no'
p809
I22
sS'deserve'
p810
I25
sS'nah'
p811
I25
sS'when'
p812
I22
sS'backs'
p813
I25
sS'actor'
p814
I25
sS'ep'
p815
I25
sS'nap'
p816
I25
sS'other'
p817
I23
sS'5'
p818
I25
sS'you'
p819
I4
sS'really'
p820
I22
sS'smell'
p821
I25
sS'roll'
p822
I25
sS'nice'
p823
I25
sS'eternity'
p824
I25
sS'grumpy'
p825
I25
sS'repeat'
p826
I25
sS'felt'
p827
I25
sS"let's"
p828
I24
sS'fell'
p829
I25
sS';p'
p830
I25
sS'coverage'
p831
I25
sS'friends'
p832
I25
sS'needed'
p833
I25
sS'ago'
p834
I25
sS'!\xe2\x80\x9d'
p835
I25
sS'carbs'
p836
I25
sS'e'
p837
I25
sS'happening'
p838
I25
sS'calls'
p839
I25
sS'excuse'
p840
I25
sS'together'
p841
I25
sS'cooked'
p842
I25
sS'loyal'
p843
I25
sS'u'
p844
I21
sS'fact'
p845
I25
sS'time'
p846
I23
sS'fresh'
p847
I25
sS'starting'
p848
I25
sS'drivethru'
p849
I25
sS':))'
p850
I25
s.