(dp0
S''
p1
I2
sS'nights.\xe2\x80\xa6'
p2
I78
sS'ciao'
p3
I78
sS'hats'
p4
I78
sS'morning.\xe2\x80\xa6'
p5
I78
sS'foul'
p6
I78
sS'four'
p7
I78
sS'catch'
p8
I77
sS'sleep'
p9
I77
sS'spiders'
p10
I78
sS'hanging'
p11
I74
sS'6pm'
p12
I78
sS'captain'
p13
I78
sS'hate'
p14
I73
sS'xxi'
p15
I78
sS'poorly'
p16
I78
sS'kinney)'
p17
I75
sS'feeding'
p18
I78
sS'daaayyyy'
p19
I78
sS'tweet'
p20
I77
sS'sweetest'
p21
I78
sS'presents'
p22
I78
sS'bike'
p23
I74
sS'voted'
p24
I78
sS'artpop'
p25
I78
sS'sorry'
p26
I75
sS'worth'
p27
I78
sS'callin'
p28
I78
sS'\xe2\x99\xa5\xe2\x99\xa1\xe2\x99\xa5\xe2\x99\xa1\xe2\x99\xa5\xe2\x99\xa1\xe2\x99\xa5\xe2\x99\xa1\xe2\x99\xa5\xe2\x99\xa1\xe2\x99\xa5\xe2\x99\xa1\xe2\x99\xa5\xe2\x99\xa1\xe2\x99\xa5\xe2\x99\xa1\xe2\x99\xa5\xe2\x99\xa1\xe2\x99\xa5\xe2\x99\xa1\xe2\x99\xa5\xe2\x99\xa1\xe2\x99\xa5\xe2\x99\xa1\xe2\x99\xa5\xe2\x99\xa1\xe2\x99\xa5\xe2\x99\xa1\xe2\x99\xa5\xe2\x99\xa1\xe2\x99\xa5\xe2\x99\xa1\xe2\x99\xa5\xe2\x99\xa1\xe2\x99\xa5\xe2\x99\xa1\xe2\x99\xa5\xe2\x99\xa1\xe2\x99\xa5\xe2\x99\xa1\xe2\x99\xa5\xe2\x99\xa1\xe2\x99\xa5\xe2\x99\xa1\xe2\x99\xa5\xe2\x99\xa1\xe2\x99\xa5\xe2\x99\xa1\xe2\x99\xa5\xe2\x99\xa1\xe2\x99\xa5\xe2\x99\xa1\xe2\x99\xa5\xe2\x99\xa1\xe2\x99\xa5\xe2\x99\xa1\xe2\x99\xa5\xe2\x99\xa1\xe2\x99\xa5\xe2\x99\xa1\xe2\x99\xa5\xe2\x99\xa1\xe2\x99\xa5\xe2\x99\xa1\xe2\x99\xa5\xe2\x99\xa1\xe2\x99\xa5\xe2\x99\xa1\xe2\x99\xa5\xe2\x99\xa1\xe2\x99\xa5\xe2\x99\xa1\xe2\x99\xa5\xe2\x99\xa1\xe2\x99\xa5\xe2\x99\xa1\xe2\x99\xa5\xe2\x99\xa1\xe2\x99\xa5\xe2\x99\xa1\xe2\x99\xa5\xe2\x99\xa1\xe2\x99\xa5\xe2\x99\xa1\xe2\x99\xa5\xe2\x99\xa1\xe2\x99\xa5\xe2\x99\xa1\xe2\x99\xa5\xe2\x99\xa1\xe2\x99\xa5\xe2\x99\xa1\xe2\x99\xa5\xe2\x99\xa1\xe2\x99\xa5\xe2\x99\xa1\xe2\x99\xa5\xe2\x99\xa1\xe2\x99\xa5\xe2\x99\xa1\xe2\x99\xa5\xe2\x99\xa1\xe2\x99\xa5\xe2\x99\xa1\xe2\x99\xa5\xe2\x99\xa1\xe2\x99\xa5\xe2\x99\xa1\xe2\x99\xa5\xe2\x99\xa1\xe2\x99\xa5\xe2\x99\xa1\xe2\x99\xa5\xe2\x99\xa1\xe2\x99\xa5\xe2\x99\xa1\xe2\x99\xa5\xe2\x99\xa1\xe2\x99\xa5\xe2\x99\xa1\xe2\x99\xa5\xe2\x99\xa1\xe2\x99\xa5\xe2\x99\xa1\xe2\x99\xa5\xe2\x99\xa1\xe2\x99\xa5\xe2\x99\xa1\xe2\x99\xa5\xe2\x99\xa1\xe2\x99\xa5\xe2\x99\xa1\xe2\x99\xa5\xe2\x99\xa1\xe2\x99\xa5\xe2\x99\xa1\xe2\x99\xa5\xe2\x99\xa1\xe2\x99\xa5\xe2\x99\xa1'
p29
I78
sS'hahahah'
p30
I78
sS'compassion'
p31
I78
sS'rise'
p32
I78
sS'jacq'
p33
I78
sS'manic'
p34
I78
sS'every'
p35
I70
sS'thriving'
p36
I78
sS'jacob'
p37
I78
sS'tickets'
p38
I77
sS'appetizers'
p39
I78
sS'school'
p40
I75
sS'margarita'
p41
I78
sS'solution'
p42
I78
sS'bnappsss'
p43
I78
sS'announced'
p44
I78
sS'debuting'
p45
I78
sS'heading'
p46
I76
sS'clothes'
p47
I78
sS'hora'
p48
I78
sS'10k'
p49
I78
sS'purposely'
p50
I78
sS'nigh'
p51
I78
sS'tired'
p52
I78
sS'bacon'
p53
I76
sS'sabbath'
p54
I78
sS'horn'
p55
I78
sS'chef'
p56
I78
sS'street'
p57
I75
sS'doubt'
p58
I78
sS'fixie'
p59
I78
sS'chen'
p60
I77
sS'n'
p61
I73
sS'others)'
p62
I33
sS'even'
p63
I77
sS"neutra's"
p64
I78
sS"tonight's"
p65
I78
sS'+'
p66
I76
sS'contributed'
p67
I78
sS'lizard'
p68
I78
sS'scrolling'
p69
I78
sS'owner\xe2\x80\xa6'
p70
I78
sS'new'
p71
I38
sS'ever'
p72
I65
sS'told'
p73
I74
sS'californiacation'
p74
I78
sS'zack'
p75
I78
sS'corrinne'
p76
I76
sS'never'
p77
I65
sS'wrapping'
p78
I78
sS'here'
p79
I56
sS'\xe2\x9d\xa4\xef\xb8\x8f'
p80
I72
sS'ching'
p81
I78
sS'celebration'
p82
I77
sS'dry'
p83
I78
sS'kids'
p84
I77
sS'taper'
p85
I78
sS'k'
p86
I77
sS'changed'
p87
I78
sS'blurry-ass'
p88
I78
sS'credit'
p89
I78
sS"i'd"
p90
I78
sS'smoke'
p91
I75
sS"i'm"
p92
I7
sS'kieran'
p93
I78
sS'campaign'
p94
I78
sS'mobility'
p95
I78
sS'disability'
p96
I78
sS'unif'
p97
I78
sS'julia'
p98
I78
sS'feelings'
p99
I78
sS'bro'
p100
I77
sS'marina'
p101
I78
sS'insta'
p102
I78
sS'...cats'
p103
I78
sS'total'
p104
I78
sS'sarah'
p105
I78
sS'swings'
p106
I78
sS'would'
p107
I63
sS'burrata\xe2\x80\xa6'
p108
I78
sS'hospital'
p109
I78
sS'played'
p110
I76
sS'arms'
p111
I78
sS'cali'
p112
I74
sS'music'
p113
I64
sS'strike'
p114
I78
sS'survive'
p115
I78
sS'parkin'
p116
I78
sS'until'
p117
I77
sS'nyquil'
p118
I78
sS'sookie'
p119
I78
sS'holy'
p120
I75
sS'evening'
p121
I78
sS'successful'
p122
I78
sS'oscar'
p123
I78
sS'haha'
p124
I69
sS'subtweet'
p125
I78
sS'it'
p126
I27
sS'phone'
p127
I78
sS'adult'
p128
I78
sS'prescription'
p129
I78
sS'crewing'
p130
I78
sS'ward'
p131
I78
sS'hold'
p132
I77
sS'must'
p133
I73
sS'shoot'
p134
I76
sS'te'
p135
I78
sS'jamar'
p136
I78
sS'room'
p137
I78
sS'jess'
p138
I78
sS'mo'
p139
I78
sS'work'
p140
I71
sS'roof'
p141
I78
sS'cuddle'
p142
I77
sS'mr'
p143
I77
sS'crackers'
p144
I78
sS'my'
p145
I11
sS'vodka'
p146
I78
sS'give'
p147
I75
sS'calories'
p148
I78
sS'honey'
p149
I78
sS'mayhem'
p150
I78
sS'homie'
p151
I77
sS'want'
p152
I62
sS'punctuality'
p153
I78
sS'times'
p154
I75
sS'end'
p155
I76
sS'me...standby'
p156
I78
sS'hoo'
p157
I78
sS'sitting'
p158
I76
sS'confit'
p159
I78
sS'-lana'
p160
I78
sS'how'
p161
I58
sS'amazing'
p162
I70
sS'patacchia'
p163
I78
sS'yaaaaa'
p164
I78
sS'place'
p165
I68
sS'beach'
p166
I51
sS'recollectionof'
p167
I78
sS'pizza'
p168
I68
sS'mess'
p169
I78
sS'after'
p170
I68
sS'wrong'
p171
I71
sS'zefr'
p172
I78
sS'lesbian'
p173
I76
sS"marc's"
p174
I78
sS'stronghold'
p175
I78
sS'come\xc3\xa7ar'
p176
I77
sS'fuxked'
p177
I78
sS'harley'
p178
I78
sS'iii)'
p179
I78
sS'cigarettes'
p180
I77
sS'green'
p181
I78
sS'ultimate'
p182
I78
sS'keeps'
p183
I76
sS'aloud'
p184
I78
sS'tatted'
p185
I78
sS'kotacotruck)'
p186
I78
sS'order'
p187
I78
sS'wind'
p188
I77
sS'wine'
p189
I78
sS'salon'
p190
I78
sS'office'
p191
I74
sS'wut'
p192
I78
sS'muffin'
p193
I78
sS'over'
p194
I68
sS'yumelina'
p195
I78
sS'london'
p196
I77
sS'crumbs'
p197
I78
sS'keyboard'
p198
I78
sS'(1501'
p199
I75
sS'hook'
p200
I78
sS'mayor'
p201
I71
sS'before'
p202
I69
sS'scooting'
p203
I78
sS'gjelina'
p204
I25
sS'fit'
p205
I77
sS'somewhere'
p206
I77
sS'avocado'
p207
I77
sS'writing'
p208
I78
sS'better'
p209
I73
sS'405'
p210
I78
sS'imy'
p211
I78
sS'weeks'
p212
I78
sS'then'
p213
I72
sS'them'
p214
I72
sS'5minutes'
p215
I78
sS'trippin'
p216
I78
sS'workout'
p217
I78
sS'littlewinko'
p218
I78
sS'break'
p219
I73
sS'band'
p220
I74
sS'roommate'
p221
I77
sS'furman'
p222
I78
sS'they'
p223
I61
sS'schools'
p224
I78
sS'braised'
p225
I78
sS'yourself'
p226
I78
sS'(god)'
p227
I78
sS'bank'
p228
I77
sS'bread'
p229
I77
sS'gloom'
p230
I78
sS'netherlands'
p231
I78
sS'alex'
p232
I77
sS'meat'
p233
I78
sS'crunchy'
p234
I78
sS'l'
p235
I77
sS'rocks'
p236
I76
sS'choir'
p237
I78
sS'luce'
p238
I78
sS'victory'
p239
I78
sS'alek'
p240
I78
sS'addicted'
p241
I77
sS'went'
p242
I76
sS'jay-z'
p243
I78
sS'side'
p244
I75
sS'luck'
p245
I78
sS'hiptobesquare_'
p246
I78
sS'hilson'
p247
I78
sS'series'
p248
I78
sS'spider'
p249
I78
sS'january'
p250
I78
sS'celebrating'
p251
I76
sS'doug'
p252
I78
sS'logo'
p253
I78
sS'saturday'
p254
I76
sS'whip'
p255
I78
sS'robbiedavidson28'
p256
I78
sS'rt'
p257
I72
sS'driving'
p258
I77
sS'god'
p259
I74
sS'washed'
p260
I77
sS'sparkly'
p261
I77
sS'tomorrow'
p262
I75
sS'strangers'
p263
I78
sS'patricks'
p264
I78
sS'encourage'
p265
I78
sS'daniel'
p266
I78
sS'smh'
p267
I77
sS'medicine'
p268
I78
sS'got'
p269
I55
sS'rn'
p270
I76
sS'abbott'
p271
I68
sS'perception'
p272
I78
sS'turning'
p273
I78
sS'abbots'
p274
I76
sS'cutest'
p275
I78
sS"you're"
p276
I74
sS'fave'
p277
I78
sS'1s'
p278
I78
sS'free'
p279
I74
sS'fagit"'
p280
I78
sS'struggle'
p281
I78
sS'hoodie'
p282
I77
sS'ollero'
p283
I78
sS'beanies'
p284
I78
sS'wanted'
p285
I77
sS'ate'
p286
I77
sS'created'
p287
I77
sS'starts'
p288
I76
sS'days'
p289
I75
sS'odyessus'
p290
I78
sS'soda'
p291
I77
sS'moving'
p292
I78
sS'cooperating'
p293
I78
sS'fuckin'
p294
I76
sS'maggie'
p295
I77
sS'already'
p296
I78
sS'angelic'
p297
I78
sS'detailing'
p298
I78
sS'unicorn'
p299
I77
sS'lettuce'
p300
I77
sS'another'
p301
I72
sS'venezia'
p302
I78
sS'rats'
p303
I78
sS'comic'
p304
I78
sS'blunts'
p305
I77
sS'service'
p306
I77
sS'their'
p307
I74
sS'top'
p308
I78
sS'engagement'
p309
I78
sS'long-awaited'
p310
I78
sS'blackberry'
p311
I78
sS'"lyrics'
p312
I78
sS'dumbass'
p313
I78
sS'too'
p314
I62
sS'rockin'
p315
I77
sS'dogs'
p316
I78
sS'listen'
p317
I78
sS'urban'
p318
I78
sS'kenton'
p319
I77
sS'me)'
p320
I78
sS'gym'
p321
I78
sS'2am'
p322
I78
sS'serve'
p323
I77
sS'took'
p324
I73
sS'puelto'
p325
I78
sS'bit\xe2\x80\xa6'
p326
I78
sS'hazelnut'
p327
I78
sS'wardrobe'
p328
I78
sS'crawl'
p329
I75
sS'heyyy'
p330
I78
sS'showed'
p331
I77
sS'is\xe2\x80\xa6'
p332
I78
sS"mother's"
p333
I78
sS'rate'
p334
I78
sS'lapd'
p335
I78
sS'classes'
p336
I78
sS'feeling'
p337
I73
sS'before...and'
p338
I78
sS'smarterotter'
p339
I78
sS'mini'
p340
I76
sS'rad'
p341
I76
sS'fashion'
p342
I78
sS'esta'
p343
I78
sS'ran'
p344
I77
sS'rao'
p345
I75
sS'mind'
p346
I77
sS'mine'
p347
I78
sS'ginger'
p348
I77
sS'talking'
p349
I65
sS'rap'
p350
I78
sS'seen'
p351
I73
sS'mins'
p352
I77
sS'mint'
p353
I76
sS'lattes'
p354
I78
sS'-'
p355
I45
sS'snow'
p356
I78
sS'contact'
p357
I78
sS'rides'
p358
I78
sS'blue'
p359
I77
sS'nobody'
p360
I78
sS'though'
p361
I77
sS'distracts'
p362
I78
sS'huh'
p363
I78
sS'doin'
p364
I78
sS'fast*'
p365
I78
sS'regular'
p366
I78
sS'smooches'
p367
I78
sS'$95'
p368
I78
sS'laughing'
p369
I78
sS'episode'
p370
I78
sS'rogers'
p371
I78
sS'handand'
p372
I78
sS'flop'
p373
I78
sS'alumni'
p374
I78
sS'dog'
p375
I76
sS'doe'
p376
I78
sS'freeway'
p377
I78
sS'definitely'
p378
I77
sS'aunt'
p379
I77
sS'pineapple'
p380
I77
sS'jsohn'
p381
I78
sS'annoyed'
p382
I78
sS'came'
p383
I74
sS'saying'
p384
I76
sS'\xe2\x80\xa2\xe2\x80\xa6'
p385
I78
sS'bomb'
p386
I78
sS'overpriced'
p387
I78
sS'bayyyde'
p388
I78
sS'tequila'
p389
I76
sS'random'
p390
I76
sS'sage'
p391
I78
sS'ending'
p392
I77
sS'pkb'
p393
I78
sS'fennel'
p394
I78
sS'walkstreet'
p395
I78
sS'earth'
p396
I78
sS'wknitting'
p397
I78
sS'poolhall'
p398
I78
sS'just'
p399
I20
sS'explain'
p400
I77
sS'sentence'
p401
I78
sS'ocd'
p402
I78
sS'hrs'
p403
I78
sS'yea'
p404
I78
sS'touched'
p405
I78
sS'green"'
p406
I78
sS'folks'
p407
I77
sS'wearing'
p408
I77
sS'plate'
p409
I77
sS'wabi-sabi'
p410
I78
sS'dm'
p411
I78
sS'dj'
p412
I78
sS'$15'
p413
I78
sS'de'
p414
I71
sS'watch'
p415
I76
sS'da'
p416
I75
sS'pocket'
p417
I78
sS'watermelon'
p418
I77
sS'supplies'
p419
I78
sS'report'
p420
I78
sS'nasty'
p421
I78
sS'having'
p422
I73
sS'(abbot'
p423
I78
sS'societies'
p424
I78
sS'earl'
p425
I78
sS'bar'
p426
I76
sS'jackylinlin'
p427
I78
sS'officially'
p428
I78
sS'bay'
p429
I78
sS'bag'
p430
I77
sS'bad'
p431
I70
sS'bus)'
p432
I78
sS'shots'
p433
I78
sS'grilled'
p434
I76
sS'steak'
p435
I77
sS'bleu'
p436
I78
sS'optimus'
p437
I78
sS'disaster'
p438
I78
sS'reference'
p439
I78
sS'habit'
p440
I66
sS'w/'
p441
I17
sS'w-'
p442
I78
sS'lemonade'
p443
I37
sS'unimpactful'
p444
I78
sS'best'
p445
I63
sS'donde'
p446
I78
sS'eres'
p447
I78
sS'said'
p448
I73
sS'away'
p449
I73
sS'taraiwamoto'
p450
I77
sS'[lobster'
p451
I78
sS'olive-flecked'
p452
I78
sS'6000+'
p453
I78
sS"there's"
p454
I72
sS'melissa'
p455
I78
sS'misguided'
p456
I78
sS'discipline'
p457
I78
sS'we'
p458
I51
sS'oomf'
p459
I76
sS'omg'
p460
I75
sS'alum'
p461
I78
sS'weak'
p462
I78
sS'however'
p463
I78
sS'boss'
p464
I78
sS'wu'
p465
I78
sS'(los'
p466
I66
sS'wtf'
p467
I76
sS'cousin'
p468
I77
sS'flexin'
p469
I78
sS'debt'
p470
I78
sS'kitchen'
p471
I29
sS'bras'
p472
I78
sS'cop'
p473
I77
sS'lakers]'
p474
I78
sS'met'
p475
I76
sS'country'
p476
I77
sS'person\xe2\x80\x9d'
p477
I78
sS'adventures'
p478
I77
sS'against'
p479
I78
sS'players'
p480
I77
sS'bet'
p481
I78
sS'lookin'
p482
I78
sS'photographer'
p483
I78
sS"they're\xe2\x80\xa6"
p484
I78
sS'ily'
p485
I77
sS'londonmanori'
p486
I78
sS'timehop'
p487
I78
sS'cruiser'
p488
I78
sS'josh'
p489
I78
sS'2nd'
p490
I77
sS'coldish'
p491
I78
sS'seein'
p492
I78
sS'beef'
p493
I78
sS'"you'
p494
I78
sS'shiitake'
p495
I78
sS'three'
p496
I77
sS'been'
p497
I68
sS'quickly'
p498
I78
sS'beer'
p499
I75
sS'much'
p500
I60
sS'tina'
p501
I78
sS'lovely'
p502
I74
sS'digits'
p503
I78
sS'life'
p504
I69
sS'out!\xe2\x80\xa6'
p505
I77
sS'relaxing'
p506
I78
sS'caf\xc3\xa9'
p507
I77
sS'drugs'
p508
I78
sS'16%'
p509
I78
sS'sunshine'
p510
I78
sS'ariana'
p511
I71
sS'filmmaker'
p512
I78
sS'fest'
p513
I76
sS'chile'
p514
I78
sS'child'
p515
I77
sS'intakes'
p516
I78
sS'chili'
p517
I78
sS'chill'
p518
I78
sS'has'
p519
I67
sS'tang'
p520
I78
sS'cracker'
p521
I78
sS'air'
p522
I77
sS'near'
p523
I78
sS'gna'
p524
I78
sS'neat'
p525
I78
sS'stopping'
p526
I77
sS'voice'
p527
I76
sS'vegetarian'
p528
I78
sS'chilling'
p529
I78
sS'spawn'
p530
I78
sS'>\xe2\x80\x9d'
p531
I78
sS'"a'
p532
I72
sS'mexico'
p533
I78
sS'is'
p534
I21
sS'"i'
p535
I77
sS'galanis'
p536
I78
sS'keepin'
p537
I78
sS'shame'
p538
I78
sS'cant'
p539
I75
sS'marco'
p540
I78
sS'im'
p541
I76
sS'in'
p542
I9
sS'violin'
p543
I78
sS'mouse'
p544
I77
sS'if'
p545
I56
sS'grown'
p546
I78
sS'bello'
p547
I78
sS'things'
p548
I73
sS'make'
p549
I71
sS'prossecco'
p550
I78
sS'belly'
p551
I75
sS'esquire'
p552
I78
sS'noisybeau'
p553
I78
sS'tedxvenice'
p554
I73
sS'\xd9\x82\xd8\xa7\xd8\xa7\xd8\xa7\xd8\xa7\xd9\x84'
p555
I78
sS'hang'
p556
I78
sS'coachella'
p557
I78
sS'hand'
p558
I76
sS'fridays'
p559
I77
sS'kim'
p560
I76
sS'supper'
p561
I78
sS'tuna'
p562
I77
sS'opportunity'
p563
I78
sS'aka'
p564
I78
sS'kid'
p565
I77
sS'(me)'
p566
I78
sS'kept'
p567
I77
sS'romp'
p568
I78
sS'thx'
p569
I78
sS'kyla'
p570
I78
sS'youre'
p571
I78
sS'bikes)'
p572
I78
sS'ocean'
p573
I78
sS'tho'
p574
I76
sS'client'
p575
I78
sS'mamma'
p576
I77
sS'greatest'
p577
I78
sS'mother'
p578
I78
sS'the'
p579
I1
sS'yours'
p580
I78
sS'dads'
p581
I77
sS'left'
p582
I74
sS'wonderful\xe2\x80\xa6'
p583
I78
sS'\xee\x8c\x92\xee\x8c\x90\xee\x8c\x92'
p584
I78
sS'8.1%'
p585
I78
sS'photo'
p586
I46
sS'fantastic'
p587
I78
sS'quotes'
p588
I78
sS'thanks'
p589
I64
sS'yep'
p590
I76
sS'yes'
p591
I72
sS'waffles'
p592
I78
sS'yet'
p593
I77
sS'yew'
p594
I78
sS'previous'
p595
I78
sS'nicolas'
p596
I78
sS'adding'
p597
I78
sS'buyers'
p598
I78
sS'broncos'
p599
I78
sS'ham'
p600
I78
sS'"radical"'
p601
I78
sS'cherry'
p602
I74
sS'had'
p603
I66
sS'shout'
p604
I78
sS'easy'
p605
I77
sS'east'
p606
I77
sS'ass-kicking\xe2\x80\xa6'
p607
I78
sS'hav'
p608
I78
sS'gave'
p609
I78
sS'hightower'
p610
I78
sS'smdh'
p611
I78
sS'vice)'
p612
I78
sS'vanessa'
p613
I78
sS'bands'
p614
I78
sS'mayo'
p615
I78
sS'possible'
p616
I78
sS'possibly'
p617
I78
sS'fusion'
p618
I78
sS'vibrations'
p619
I78
sS'wanting'
p620
I78
sS'korean'
p621
I77
sS'apart'
p622
I78
sS'brought'
p623
I78
sS'gift'
p624
I78
sS'performing'
p625
I77
sS'allensworth'
p626
I78
sS'unsuspecting'
p627
I78
sS'steps'
p628
I78
sS'night'
p629
I57
sS'moral'
p630
I78
sS'artrave'
p631
I78
sS'battlefield'
p632
I78
sS'right'
p633
I60
sS'old'
p634
I74
sS'deal'
p635
I78
sS'people'
p636
I65
sS'groupies'
p637
I78
sS'dead'
p638
I78
sS'webs'
p639
I78
sS'gostam'
p640
I78
sS'repark'
p641
I78
sS'extended'
p642
I78
sS"'funny'"
p643
I78
sS'congratulate'
p644
I78
sS'humor'
p645
I78
sS'for'
p646
I16
sS'a\xe2\x80\xa6'
p647
I76
sS'fox'
p648
I78
sS'/'
p649
I77
sS'creative'
p650
I78
sS'everything'
p651
I74
sS'flopping'
p652
I77
sS'intolerant'
p653
I78
sS'adorable'
p654
I75
sS'christmas'
p655
I76
sS'knew'
p656
I78
sS'pls'
p657
I78
sS'bold'
p658
I78
sS'discount'
p659
I78
sS'baha'
p660
I78
sS'post'
p661
I76
sS'kickstand'
p662
I78
sS'super'
p663
I73
sS'meyer'
p664
I78
sS'plug'
p665
I78
sS'oreo'
p666
I78
sS'aggravated'
p667
I78
sS'hudgens'
p668
I78
sS'cowboy'
p669
I78
sS'venice!!!!!\xe2\x80\xa6'
p670
I78
sS'valentines'
p671
I78
sS'o'
p672
I78
sS'dinner'
p673
I65
sS'banker'
p674
I78
sS'craftsman'
p675
I77
sS'gingerbread'
p676
I78
sS'efforts'
p677
I78
sS'sweater'
p678
I78
sS'automatically'
p679
I78
sS'pays'
p680
I78
sS'ahh'
p681
I78
sS'ahi'
p682
I78
sS'soo'
p683
I78
sS'bath'
p684
I78
sS'down'
p685
I65
sS'lies'
p686
I76
sS'parties'
p687
I78
sS'dayyy'
p688
I78
sS'soy'
p689
I78
sS'often'
p690
I78
sS'support'
p691
I77
sS'fight'
p692
I77
sS'gig'
p693
I78
sS'stuck'
p694
I77
sS'rapey'
p695
I78
sS'way'
p696
I65
sS'jane'
p697
I78
sS'call'
p698
I71
sS'was'
p699
I43
sS'if\xe2\x80\xa6'
p700
I78
sS'happy'
p701
I60
sS"yellen's"
p702
I78
sS'head'
p703
I77
sS'offering'
p704
I78
sS'lounge)'
p705
I78
sS'becoming'
p706
I77
sS'was\xe2\x80\xa6'
p707
I77
sS'artichoke'
p708
I78
sS'lawn'
p709
I78
sS'hear'
p710
I74
sS'solar'
p711
I78
sS'lovebug'
p712
I78
sS'true'
p713
I74
sS'sacaste'
p714
I78
sS'preview'
p715
I78
sS'portions'
p716
I78
sS"else's"
p717
I78
sS'stores'
p718
I78
sS'blueberry'
p719
I77
sS'whiskey'
p720
I78
sS'nicest'
p721
I78
sS'shitt'
p722
I78
sS'"la'
p723
I78
sS'ciclavia'
p724
I77
sS'prayed'
p725
I77
sS'moore'
p726
I78
sS'classic'
p727
I78
sS'tesla'
p728
I77
sS'tournament'
p729
I78
sS'drive'
p730
I76
sS'sometime'
p731
I78
sS'exist'
p732
I78
sS'sprouts'
p733
I77
sS'annoying'
p734
I77
sS'check'
p735
I75
sS'shit'
p736
I67
sS'holla'
p737
I78
sS'dying'
p738
I78
sS'no'
p739
I59
sS'when'
p740
I47
sS'topped'
p741
I78
sS'reality'
p742
I77
sS'ny'
p743
I78
sS'republic'
p744
I78
sS'polinar'
p745
I78
sS'test'
p746
I77
sS'hangin'
p747
I78
sS'smell'
p748
I78
sS'roll'
p749
I77
sS'picture'
p750
I78
sS"'s"
p751
I75
sS'palms'
p752
I75
sS'dies'
p753
I78
sS'felt'
p754
I77
sS'update'
p755
I78
sS'diet'
p756
I78
sS'healthiest'
p757
I78
sS"let's"
p758
I75
sS'journey'
p759
I78
sS'sistas'
p760
I78
sS'rolling'
p761
I78
sS'pizzas'
p762
I78
sS'weekend'
p763
I71
sS'died'
p764
I78
sS'billion'
p765
I78
sS'happening'
p766
I76
sS'potato'
p767
I78
sS':)>'
p768
I78
sS'cruzin'
p769
I78
sS'"busy"...getting'
p770
I78
sS'together'
p771
I76
sS"shannon's"
p772
I78
sS'time'
p773
I45
sS'serious'
p774
I78
sS'songs'
p775
I77
sS'neighbors'
p776
I77
sS':/'
p777
I78
sS'managed'
p778
I78
sS':)'
p779
I69
sS'corps'
p780
I78
sS'affair'
p781
I78
sS'dance'
p782
I77
sS'global'
p783
I78
sS'dumas'
p784
I78
sS'boredd'
p785
I78
sS'manager'
p786
I78
sS'parker'
p787
I78
sS'ice'
p788
I74
sS'guava'
p789
I78
sS'recharge'
p790
I78
sS'conditioner'
p791
I78
sS'venice'
p792
I10
sS'yummy'
p793
I75
sS'zone'
p794
I78
sS'donner'
p795
I78
sS'maiamaiamaia'
p796
I78
sS'flash'
p797
I78
sS'father'
p798
I78
sS'\xe5\x86\x99\xe7\x9c\x9f\xe3\x82\x92\xe6\x8a\x95\xe7\xa8\xbf\xe3\x81\x97\xe3\x81\xbe\xe3\x81\x97\xe3\x81\x9f'
p799
I74
sS'0'
p800
I78
sS'finally'
p801
I70
sS'asking'
p802
I78
sS'symoneprince'
p803
I77
sS'sing'
p804
I78
sS'keeper"'
p805
I78
sS'me'
p806
I28
sS'hi-diddle-e-dee'
p807
I78
sS'jerk'
p808
I78
sS'hannah'
p809
I77
sS'need."'
p810
I78
sS'none'
p811
I78
sS'vegan'
p812
I78
sS'tacos'
p813
I75
sS"captain's"
p814
I78
sS'stays'
p815
I78
sS'trouble'
p816
I76
sS'blast'
p817
I78
sS'w00t'
p818
I78
sS'minute'
p819
I78
sS'cool'
p820
I68
sS'din'
p821
I77
sS'dating'
p822
I78
sS'staples'
p823
I69
sS'hugest'
p824
I78
sS'did'
p825
I74
sS'querem'
p826
I78
sS'peeps'
p827
I78
sS'brother'
p828
I77
sS'leave'
p829
I76
sS'"persephone"'
p830
I77
sS'soooo'
p831
I78
sS'planning'
p832
I78
sS'excellence'
p833
I78
sS'subway'
p834
I77
sS'teal'
p835
I78
sS'team'
p836
I76
sS'quick'
p837
I75
sS'guy'
p838
I73
sS'mecca'
p839
I78
sS'bonfire'
p840
I78
sS'gallery'
p841
I78
sS'pork'
p842
I76
sS'unexpected'
p843
I78
sS'angeles)'
p844
I74
sS'regret'
p845
I78
sS'cosa'
p846
I78
sS'porn'
p847
I78
sS'sign'
p848
I78
sS'shirts'
p849
I77
sS'tartar'
p850
I78
sS'rough'
p851
I78
sS'drinks'
p852
I77
sS'adds'
p853
I78
sS'norris'
p854
I78
sS'positively\xe2\x80\xa6'
p855
I78
sS'melt'
p856
I78
sS'"riding'
p857
I78
sS'bungalow'
p858
I78
sS'reply'
p859
I77
sS'transportation'
p860
I78
sS'frothing'
p861
I77
sS'mussels'
p862
I77
sS'funeral'
p863
I78
sS'henry'
p864
I77
sS'inspiring'
p865
I78
sS'water'
p866
I78
sS'botel'
p867
I78
sS'alone'
p868
I76
sS'along'
p869
I77
sS'hoops'
p870
I78
sS'earthquake'
p871
I77
sS'change'
p872
I78
sS'wait'
p873
I75
sS'boy'
p874
I76
sS'disco-funk'
p875
I78
sS'hotties'
p876
I78
sS'brilliant'
p877
I78
sS'wherever'
p878
I78
sS'jungles'
p879
I78
sS'accomplished'
p880
I78
sS'cinnamon'
p881
I78
sS'boo'
p882
I78
sS'hospitality'
p883
I78
sS'weird'
p884
I75
sS"iffy's"
p885
I78
sS'genuinely'
p886
I78
sS'love'
p887
I32
sS'parallaxy'
p888
I78
sS'kayak'
p889
I78
sS'jose'
p890
I78
sS'1st'
p891
I77
sS'w/chris'
p892
I78
sS'fudge'
p893
I78
sS'..sucks'
p894
I78
sS'market'
p895
I76
sS'everybody'
p896
I77
sS"judge's"
p897
I78
sS'perf'
p898
I78
sS'working'
p899
I76
sS'prove'
p900
I78
sS'else...ever'
p901
I78
sS'dude'
p902
I73
sS'angela'
p903
I78
sS'maya'
p904
I78
sS"hall's"
p905
I78
sS'live'
p906
I71
sS'olympian'
p907
I78
sS'christmas"'
p908
I78
sS'swagger'
p909
I78
sS'beatheads'
p910
I78
sS'prep'
p911
I78
sS'today'
p912
I53
sS'loving'
p913
I75
sS'venice)'
p914
I68
sS'--->'
p915
I78
sS'abrams'
p916
I78
sS'suggestions'
p917
I78
sS'swearing'
p918
I78
sS'chocolate'
p919
I76
sS'casey'
p920
I78
sS'visual'
p921
I78
sS'far'
p922
I78
sS'olive'
p923
I78
sS'says.....false'
p924
I78
sS'goodell'
p925
I78
sS'fly'
p926
I78
sS'cream)'
p927
I76
sS'niggas'
p928
I77
sS'car'
p929
I73
sS'pretend'
p930
I77
sS'soul'
p931
I77
sS'lico"'
p932
I78
sS'soup'
p933
I78
sS'sour'
p934
I78
sS'can'
p935
I66
sS'following'
p936
I77
sS'making'
p937
I74
sS'caa'
p938
I78
sS'bites'
p939
I78
sS'witzend'
p940
I12
sS"lovin'"
p941
I78
sS'heart'
p942
I75
sS'crazy'
p943
I74
sS'figure'
p944
I78
sS'mayonaise'
p945
I78
sS'awesome'
p946
I73
sS"comin'"
p947
I78
sS"didn't"
p948
I69
sS'fuck'
p949
I60
sS'heard'
p950
I78
sS'critic'
p951
I78
sS'dropped'
p952
I78
sS'chic'
p953
I78
sS'counting'
p954
I78
sS'clothing'
p955
I78
sS'winter'
p956
I78
sS'cliche'
p957
I78
sS'lounge'
p958
I67
sS'till'
p959
I76
sS'sunday'
p960
I65
sS'raye'
p961
I78
sS'skater'
p962
I78
sS'cece'
p963
I78
sS'sundau'
p964
I78
sS'flavored'
p965
I78
sS'ayyyeee'
p966
I78
sS'wubudubbadubdub'
p967
I78
sS'designer'
p968
I78
sS'cocktail'
p969
I78
sS'information'
p970
I78
sS'may'
p971
I71
sS'max'
p972
I75
sS'dive'
p973
I78
sS'spot'
p974
I76
sS'xiomara'
p975
I78
sS'mac'
p976
I75
sS'birthday'
p977
I73
sS'mad'
p978
I74
sS'date'
p979
I73
sS'such'
p980
I77
sS'suck'
p981
I78
sS'truly'
p982
I78
sS'guys'
p983
I75
sS'man'
p984
I63
sS'complimentary'
p985
I78
sS'natural'
p986
I78
sS'remember'
p987
I78
sS'tbh'
p988
I75
sS'whenever'
p989
I78
sS'wanna'
p990
I72
sS'st'
p991
I77
sS'truck'
p992
I62
sS'us\xe2\x80\xa6'
p993
I78
sS'pulled'
p994
I77
sS'talk'
p995
I74
sS'cute'
p996
I76
sS'schwartz'
p997
I78
sS'ingrid'
p998
I78
sS'midnight'
p999
I78
sS'years'
p1000
I71
sS'shake'
p1001
I78
sS'gjelena'
p1002
I78
sS'cold'
p1003
I76
sS'still'
p1004
I64
sS'pinata'
p1005
I78
sS'gta'
p1006
I59
sS'group'
p1007
I78
sS'thank'
p1008
I74
sS'the\xe2\x80\xa6'
p1009
I75
sS'jin'
p1010
I78
sS'interesting'
p1011
I76
sS'jim'
p1012
I78
sS'hot'
p1013
I78
sS'window'
p1014
I77
sS'thanx'
p1015
I78
sS'tweets'
p1016
I76
sS'showered'
p1017
I78
sS'main'
p1018
I75
sS'selfie'
p1019
I78
sS'texas'
p1020
I77
sS'happened'
p1021
I75
sS'nom'
p1022
I78
sS'views'
p1023
I78
sS'killer'
p1024
I78
sS'lunch'
p1025
I53
sS'half'
p1026
I77
sS'not'
p1027
I43
sS'now'
p1028
I57
sS'ahaha'
p1029
I78
sS'bullshit'
p1030
I77
sS'nor'
p1031
I78
sS'wagon'
p1032
I78
sS'name'
p1033
I77
sS'slurp'
p1034
I78
sS'clutch'
p1035
I77
sS'drop'
p1036
I78
sS'loctician'
p1037
I78
sS'wong'
p1038
I78
sS'warby'
p1039
I78
sS'rock'
p1040
I75
sS'entirely'
p1041
I78
sS'"flying'
p1042
I78
sS'en'
p1043
I78
sS'liquor'
p1044
I78
sS'fired'
p1045
I78
sS'yeah'
p1046
I73
sS'catching'
p1047
I77
sS'ex'
p1048
I77
sS'year'
p1049
I74
sS'gtfo'
p1050
I78
sS'girl'
p1051
I61
sS'salads'
p1052
I78
sS'ep'
p1053
I78
sS'nilu'
p1054
I78
sS'album'
p1055
I76
sS'living'
p1056
I78
sS'and\xe2\x80\xa6'
p1057
I78
sS'3rd'
p1058
I74
sS'space'
p1059
I78
sS'looking'
p1060
I72
sS'bday'
p1061
I78
sS'seriously'
p1062
I76
sS'fazer'
p1063
I78
sS"shouldn't"
p1064
I78
sS'friends-'
p1065
I78
sS'shows'
p1066
I77
sS'nikki'
p1067
I78
sS'complimented'
p1068
I78
sS'cars'
p1069
I77
sS'gta)'
p1070
I77
sS'brooks'
p1071
I78
sS'recordings'
p1072
I78
sS'lmk'
p1073
I78
sS'california'
p1074
I66
sS'vinyl'
p1075
I78
sS'excesses'
p1076
I78
sS'brooke'
p1077
I78
sS'aweeeee'
p1078
I78
sS'"must'
p1079
I78
sS'care'
p1080
I78
sS'training'
p1081
I77
sS'yup'
p1082
I78
sS'tasting'
p1083
I30
sS'punk'
p1084
I78
sS'british'
p1085
I78
sS'thing'
p1086
I69
sS'gosling'
p1087
I78
sS'nuff'
p1088
I78
sS'yum'
p1089
I76
sS'*pickled'
p1090
I78
sS'510'
p1091
I78
sS'fokkers'
p1092
I78
sS'view'
p1093
I76
sS'star'
p1094
I78
sS'think'
p1095
I67
sS'peds'
p1096
I78
sS'first'
p1097
I33
sS'cheese'
p1098
I70
sS'tenis'
p1099
I78
sS'makepeace'
p1100
I77
sS'wong)'
p1101
I78
sS'flirtin'
p1102
I78
sS'zac'
p1103
I78
sS'xd'
p1104
I77
sS'one'
p1105
I46
sS'fast'
p1106
I78
sS'spanish'
p1107
I77
sS'vote'
p1108
I75
sS'impossible'
p1109
I78
sS'sounds'
p1110
I77
sS'open'
p1111
I78
sS'george'
p1112
I76
sS"'em"
p1113
I78
sS'city'
p1114
I78
sS'little'
p1115
I66
sS'boulevard'
p1116
I78
sS'checked'
p1117
I78
sS'district'
p1118
I78
sS'virgin'
p1119
I78
sS'brennaisrael'
p1120
I78
sS'slept'
p1121
I78
sS'anyone'
p1122
I76
sS'2'
p1123
I35
sS'stuffed'
p1124
I77
sS'white'
p1125
I73
sS'friend'
p1126
I70
sS'gives'
p1127
I77
sS'exploring'
p1128
I77
sS'eyes'
p1129
I78
sS'mostly'
p1130
I78
sS'that'
p1131
I32
sS'screwing'
p1132
I78
sS'boba'
p1133
I78
sS'9$'
p1134
I78
sS'kai'
p1135
I78
sS'hurt'
p1136
I78
sS'ridiculous'
p1137
I76
sS'thai'
p1138
I76
sS'inglish'
p1139
I78
sS'representing'
p1140
I78
sS'than'
p1141
I76
sS"here's"
p1142
I77
sS'11'
p1143
I77
sS'10'
p1144
I77
sS'13'
p1145
I76
sS'12'
p1146
I78
sS'15'
p1147
I78
sS'lmao'
p1148
I72
sS'16'
p1149
I78
sS'19'
p1150
I78
sS'18'
p1151
I78
sS'gotta'
p1152
I73
sS'(venice'
p1153
I18
sS'a.play'
p1154
I78
sS'life\xe2\x9c\x8c\xef\xb8\x8f'
p1155
I78
sS'r'
p1156
I75
sS'booted'
p1157
I78
sS'were'
p1158
I74
sS'wurtskuche)'
p1159
I78
sS'lalaland'
p1160
I78
sS'and'
p1161
I8
sS'san'
p1162
I78
sS'angel'
p1163
I77
sS'turned'
p1164
I75
sS'slap'
p1165
I78
sS'sad'
p1166
I77
sS'say'
p1167
I73
sS'300mg/day'
p1168
I78
sS'breakfast'
p1169
I74
sS'saw'
p1170
I73
sS'any'
p1171
I77
sS'kevin'
p1172
I77
sS'sat'
p1173
I78
sS'frannymcfee'
p1174
I78
sS'greek'
p1175
I78
sS'zoo'
p1176
I78
sS'dining'
p1177
I76
sS'take'
p1178
I61
sS'performance'
p1179
I75
sS'awaits'
p1180
I78
sS'deus'
p1181
I78
sS'flattered'
p1182
I78
sS'urge'
p1183
I78
sS'begin'
p1184
I77
sS'sure'
p1185
I73
sS'shade'
p1186
I78
sS'theatre'
p1187
I71
sS'normal'
p1188
I78
sS'track'
p1189
I78
sS'price'
p1190
I77
sS'lukecudney'
p1191
I77
sS'surprise'
p1192
I78
sS'paid'
p1193
I78
sS'wire'
p1194
I78
sS'printed'
p1195
I78
sS'codepink'
p1196
I78
sS'pair'
p1197
I78
sS'knee'
p1198
I78
sS'cleared'
p1199
I78
sS'forever'
p1200
I74
sS"luttrell's"
p1201
I78
sS'lenny'
p1202
I78
sS'johnnie\xe2\x80\xa6'
p1203
I78
sS'proponerle'
p1204
I78
sS'proud'
p1205
I78
sS'hungry'
p1206
I74
sS'sunset'
p1207
I78
sS'stre'
p1208
I78
sS'uncle'
p1209
I78
sS'ferrara'
p1210
I78
sS'masturbation'
p1211
I78
sS'shop'
p1212
I77
sS'rating'
p1213
I77
sS'walking'
p1214
I76
sS'shot'
p1215
I76
sS'noshes'
p1216
I78
sS'show'
p1217
I64
sS'german'
p1218
I78
sS'good...lord'
p1219
I78
sS'spaces'
p1220
I78
sS'dadddylonglegs'
p1221
I78
sS'gypsy"'
p1222
I74
sS'hace'
p1223
I78
sS'barnard'
p1224
I78
sS'aint'
p1225
I77
sS'\xe2\x9c\x8b'
p1226
I78
sS'\xe2\x9c\x8a'
p1227
I78
sS'brigg'
p1228
I78
sS'saints'
p1229
I78
sS'3'
p1230
I52
sS'"radio"'
p1231
I78
sS'to\xe2\x80\xa6'
p1232
I78
sS'woof'
p1233
I78
sS'only'
p1234
I63
sS'going'
p1235
I67
sS'black'
p1236
I75
sS'caroline'
p1237
I78
sS'thankful'
p1238
I78
sS'space"'
p1239
I78
sS'get'
p1240
I50
sS'beets\xe2\x80\xa6'
p1241
I78
sS'milkshakes'
p1242
I78
sS'$aapl'
p1243
I78
sS'cannot'
p1244
I78
sS'bracelets'
p1245
I78
sS'celebrate'
p1246
I78
sS'flopped'
p1247
I78
sS'brig)'
p1248
I75
sS'tempeh'
p1249
I78
sS'wiener'
p1250
I78
sS'morning'
p1251
I66
sS'jokes'
p1252
I78
sS'stupid'
p1253
I78
sS'roger'
p1254
I78
sS'(lincoln'
p1255
I77
sS'scott'
p1256
I78
sS'where'
p1257
I72
sS"everything's"
p1258
I78
sS"y'all"
p1259
I78
sS'reveals'
p1260
I78
sS'lyft'
p1261
I78
sS'picnic'
p1262
I78
sS'concert'
p1263
I76
sS'player'
p1264
I78
sS'physically'
p1265
I77
sS'witzend)'
p1266
I71
sS'paine"'
p1267
I78
sS'gangster'
p1268
I78
sS'college'
p1269
I78
sS'parking'
p1270
I78
sS"d'flight"
p1271
I78
sS'wonder'
p1272
I78
sS'*looks'
p1273
I78
sS'ways'
p1274
I78
sS'\xe2\x98\x94\xef\xb8\x8fno\xe2\x98\x94\xef\xb8\x8f'
p1275
I78
sS'ornament'
p1276
I78
sS'label'
p1277
I78
sS'outside'
p1278
I76
sS'gaga'
p1279
I78
sS'between'
p1280
I76
sS'vender'
p1281
I78
sS'monica)'
p1282
I78
sS'whipped'
p1283
I78
sS'ima'
p1284
I78
sS'august'
p1285
I78
sS'persians'
p1286
I78
sS'screen'
p1287
I78
sS'style'
p1288
I78
sS'jr'
p1289
I78
sS'killing'
p1290
I77
sS'guitar'
p1291
I78
sS'faults'
p1292
I78
sS'awards'
p1293
I78
sS'hurts'
p1294
I78
sS'coma'
p1295
I78
sS'article'
p1296
I78
sS'anyway)'
p1297
I78
sS'come'
p1298
I63
sS'dates'
p1299
I78
sS'mans'
p1300
I77
sS'talented'
p1301
I74
sS'many'
p1302
I75
sS'contract'
p1303
I78
sS'personal'
p1304
I78
sS'tour'
p1305
I78
sS'mongols'
p1306
I78
sS'residency'
p1307
I76
sS'comes'
p1308
I77
sS'madness'
p1309
I78
sS'150'
p1310
I78
sS'beyonce'
p1311
I78
sS'pot'
p1312
I77
sS'jeans'
p1313
I77
sS'pop'
p1314
I76
sS'60'
p1315
I78
sS'singers'
p1316
I78
sS'63'
p1317
I78
sS'64'
p1318
I78
sS"mac'n'cheese"
p1319
I78
sS'ya\xe2\x80\x9d'
p1320
I78
sS'boat'
p1321
I78
sS'sticks'
p1322
I78
sS'save'
p1323
I78
sS'arts'
p1324
I78
sS'cities'
p1325
I78
sS'veniceneighborhoodcouncil'
p1326
I78
sS'west'
p1327
I76
sS'locally'
p1328
I78
sS'showtime'
p1329
I78
sS'judging'
p1330
I78
sS'staring'
p1331
I78
sS'reflex'
p1332
I78
sS'mary'
p1333
I78
sS'finian'
p1334
I78
sS'wants'
p1335
I73
sS'direction'
p1336
I78
sS'shopping'
p1337
I75
sS'(855)363-8392'
p1338
I78
sS'v\xc3\xaddeos'
p1339
I78
sS'blessing'
p1340
I77
sS'squash'
p1341
I78
sS'photos'
p1342
I78
sS'johnniewalkerus'
p1343
I76
sS'goram'
p1344
I78
sS'hardcore'
p1345
I78
sS'sticky'
p1346
I78
sS'odyssey'
p1347
I78
sS'those'
p1348
I75
sS'fourf'
p1349
I78
sS'case'
p1350
I76
sS'teh'
p1351
I78
sS'myself'
p1352
I76
sS'fiends'
p1353
I78
sS'these'
p1354
I63
sS'arnold'
p1355
I78
sS'pacers'
p1356
I74
sS'beachside'
p1357
I78
sS'coolest'
p1358
I78
sS'ive'
p1359
I78
sS'samaritan'
p1360
I78
sS'eventually'
p1361
I78
sS'coffee'
p1362
I63
sS'bros'
p1363
I78
sS'middle'
p1364
I76
sS'someone'
p1365
I77
sS'dangerously'
p1366
I78
sS'heels'
p1367
I78
sS'return'
p1368
I78
sS'everyday'
p1369
I76
sS'worry'
p1370
I76
sS'"god\'s'
p1371
I74
sS'different'
p1372
I78
sS'sippin'
p1373
I78
sS'allllll'
p1374
I78
sS'4:25'
p1375
I78
sS'bey'
p1376
I78
sS'pay'
p1377
I78
sS'bowl'
p1378
I78
sS'way)'
p1379
I78
sS'same'
p1380
I73
sS'trip'
p1381
I72
sS'ya'
p1382
I77
sS'followers'
p1383
I78
sS'motherfuckin'
p1384
I78
sS'coworkers'
p1385
I78
sS'struggling'
p1386
I78
sS'plaster'
p1387
I78
sS'berry'
p1388
I78
sS'week'
p1389
I73
sS'finish'
p1390
I78
sS'sickness'
p1391
I78
sS'munch'
p1392
I78
sS'weed'
p1393
I78
sS'cheers'
p1394
I77
sS'running'
p1395
I78
sS'harris'
p1396
I78
sS'changing'
p1397
I78
sS'\xe2\x9c\x8c\xef\xb8\x8f'
p1398
I78
sS'bane'
p1399
I78
sS'awesomeness'
p1400
I78
sS'burrito'
p1401
I77
sS'^.^'
p1402
I78
sS'trio\xe2\x80\xa6'
p1403
I78
sS'shared'
p1404
I78
sS'floor'
p1405
I78
sS'bang'
p1406
I78
sS'othmer'
p1407
I78
sS'without'
p1408
I75
sS"can't"
p1409
I58
sS'bottle'
p1410
I77
sS'genie'
p1411
I78
sS'heaps'
p1412
I78
sS'summer'
p1413
I76
sS'\xe2\x98\xba\xef\xb8\x8f'
p1414
I76
sS'noah'
p1415
I78
sS'being'
p1416
I72
sS'money'
p1417
I76
sS'\xe3\x82\x8a\xe3\x81\x95\xe3\x81\xa4\xe3\x82\x93\xe3\x81\xa8\xe3\x81\xb2\xe3\x82\x81\xe3\x81\x8b\xe3\x82\x8a\xe3\x82\x93\xe3\x81\xa8\xe3\x81\xb2\xe3\x81\x8b\xe3\x82\x8a\xe3\x81\xa1\xe3\x82\x83\xe3\x82\x93\xe3\x81\xb0\xe3\x81\x84\xe3\x81\xb0\xe3\x81\x84(\xe0\xb9\x91\xe2\x80\xb2\xe1\xb4\x97\xe2\x80\xb5\xe0\xb9\x91)4\xe6\x97\xa5\xe9\x80\xa3\xe7\xb6\x9a\xe3\x81\xbf\xe3\x81\xaa\xe3\x81\x95\xe3\x81\xbe\xe3\x81\x8a\xe4\xb8\x96\xe8\xa9\xb1\xe3\x81\xab\xe3\x81\xaa\xe3\x82\x8a\xe3\x81\xbe\xe3\x81\x97\xe3\x81\x9f\xe2\x98\xba\xef\xb8\x8f\xe3\x83\x87\xe3\x82\xa3\xe3\x82\xba\xe3\x83\x8b\xe3\x83\xbc\xe3\x81\x84\xe3\x81\xa3\xe3\x81\x9f\xe3\x81\x97\xe3\x80\x81\xe9\xab\xaa\xe6\x9f\x93\xe3\x82\x81\xe3\x81\x9f\xe3\x81\x97\xe3\x80\x81\xe3\x81\xbe\xe3\x81\x98\xe3\x83\x86\xe3\x82\xb9\xe3\x83\x88\xe5\xbe\x8c\xe3\x81\xab\xe3\x81\xb5\xe3\x81\x95\xe3\x82\x8f\xe3\x81\x97\xe3\x81\x84\xe4\xbc\x91\xe6\x97\xa5\xe3\x81\xa3\xe3\x81\x99\xe3\x82\x8f(\xe0\xb9\x91\xe2\x80\xb2\xe1\xb4\x97\xe2\x80\xb5\xe0\xb9\x91)\xef\xbc\x81'
p1418
I78
sS'fatties'
p1419
I78
sS'neon'
p1420
I78
sS'rest'
p1421
I78
sS'speek'
p1422
I78
sS'cease'
p1423
I78
sS'speed'
p1424
I77
sS'(589'
p1425
I78
sS'death'
p1426
I78
sS'nebulanastyy'
p1427
I78
sS'thinking'
p1428
I77
sS'rose'
p1429
I78
sS'esprit'
p1430
I78
sS'seems'
p1431
I78
sS'except'
p1432
I78
sS'it\xe2\x80\x99s'
p1433
I78
sS'mann'
p1434
I77
sS'lets'
p1435
I78
sS'ahhhh'
p1436
I78
sS'4'
p1437
I64
sS'gjelina:)'
p1438
I78
sS'tuesday'
p1439
I78
sS'ross'
p1440
I78
sS'real'
p1441
I72
sS'around'
p1442
I74
sS'rules'
p1443
I76
sS'por'
p1444
I78
sS'amc'
p1445
I78
sS'gonna'
p1446
I69
sS'early'
p1447
I77
sS'moi'
p1448
I77
sS'traffic'
p1449
I77
sS'mom'
p1450
I76
sS'styled'
p1451
I77
sS'world'
p1452
I73
sS'lady'
p1453
I76
sS'mod'
p1454
I78
sS'walt'
p1455
I78
sS'commemorate\xe2\x80\xa6'
p1456
I78
sS'achieve'
p1457
I78
sS'everytime'
p1458
I78
sS'bracelet'
p1459
I78
sS'lightning'
p1460
I78
sS'karmina'
p1461
I78
sS'either'
p1462
I77
sS'omgg'
p1463
I78
sS'clay'
p1464
I78
sS'resolved'
p1465
I78
sS'served'
p1466
I78
sS'movieclips'
p1467
I75
sS'learning'
p1468
I78
sS'doll'
p1469
I78
sS'daddy'
p1470
I78
sS'karissa'
p1471
I78
sS'pacific'
p1472
I73
sS'lucy'
p1473
I78
sS'lobster'
p1474
I77
sS'kings'
p1475
I78
sS'shackles:)'
p1476
I78
sS'divine'
p1477
I76
sS'thinks'
p1478
I78
sS'aust'
p1479
I76
sS'in\xe2\x80\xa6'
p1480
I78
sS"o'"
p1481
I78
sS'noon'
p1482
I78
sS'slick'
p1483
I78
sS'moon'
p1484
I78
sS'damigo'
p1485
I78
sS'aussie'
p1486
I78
sS'welcome'
p1487
I75
sS'\xe2\x9c\x88\xef\xb8\x8f'
p1488
I78
sS'business'
p1489
I76
sS'styles'
p1490
I78
sS'lmfao'
p1491
I78
sS'nails'
p1492
I77
sS'each'
p1493
I76
sS'him.\xe2\x80\xa6'
p1494
I78
sS'^_^'
p1495
I78
sS'taurus'
p1496
I78
sS'drums'
p1497
I77
sS';)'
p1498
I74
sS'exciting'
p1499
I78
sS'on'
p1500
I14
sS'jeez'
p1501
I78
sS'ok'
p1502
I76
sS'oh'
p1503
I72
sS'og'
p1504
I78
sS'of'
p1505
I19
sS'singer/song'
p1506
I78
sS'favorite'
p1507
I69
sS'meal'
p1508
I77
sS'mandar'
p1509
I78
sS'wolf'
p1510
I77
sS'stand'
p1511
I77
sS'neighbor'
p1512
I78
sS'toothpaste'
p1513
I78
sS'mean'
p1514
I76
sS'or'
p1515
I65
sS'road'
p1516
I77
sS'haves"'
p1517
I78
sS'burning'
p1518
I78
sS'coupon'
p1519
I78
sS'image'
p1520
I76
sS'legged'
p1521
I78
sS'michaelson'
p1522
I78
sS'rising'
p1523
I78
sS'heated'
p1524
I78
sS'elementary'
p1525
I77
sS'your'
p1526
I62
sS'stare'
p1527
I78
sS"how's"
p1528
I78
sS'her'
p1529
I57
sS'slurpee'
p1530
I78
sS'there'
p1531
I67
sS'hey'
p1532
I72
sS'lol'
p1533
I60
sS'dreaming'
p1534
I78
sS'start'
p1535
I74
sS'low'
p1536
I78
sS'lot'
p1537
I71
sS'starr'
p1538
I78
sS'yah'
p1539
I77
sS'homeboys'
p1540
I78
sS'lang'
p1541
I78
sS'mornings'
p1542
I78
sS'complete'
p1543
I78
sS'enough'
p1544
I78
sS'white"'
p1545
I78
sS'trying'
p1546
I74
sS'with'
p1547
I15
sS'buying'
p1548
I78
sS'handsome'
p1549
I78
sS"they're"
p1550
I78
sS'rush'
p1551
I78
sS"rt'd"
p1552
I78
sS'rescuing'
p1553
I78
sS"wasn't"
p1554
I76
sS'shoots?\xe2\x80\x9d'
p1555
I78
sS'freddy'
p1556
I78
sS'strawberry'
p1557
I78
sS'"it\'s'
p1558
I78
sS'dylankjewelry\xe2\x80\xa6'
p1559
I78
sS'cassidy'
p1560
I78
sS'affection'
p1561
I78
sS'charisblifestyle'
p1562
I78
sS'gone'
p1563
I77
sS'ac'
p1564
I78
sS'taylor'
p1565
I78
sS'ohh'
p1566
I78
sS'johnny'
p1567
I78
sS'taste'
p1568
I77
sS'certain'
p1569
I78
sS'ak'
p1570
I77
sS'forgot'
p1571
I77
sS'am'
p1572
I73
sS'jazyl'
p1573
I78
sS'general'
p1574
I76
sS'as'
p1575
I56
sS'at'
p1576
I4
sS'(art\xe2\x80\xa6'
p1577
I78
sS'walks'
p1578
I78
sS'girlfriend'
p1579
I77
sS'watched'
p1580
I78
sS'\xd8\xa3\xd8\xb4\xd9\x85'
p1581
I78
sS'nerd'
p1582
I78
sS'film'
p1583
I78
sS'cream'
p1584
I64
sS'again'
p1585
I67
sS'shady)'
p1586
I78
sS'yoga'
p1587
I78
sS'cragen\xe2\x80\xa6'
p1588
I78
sS'lift?\xe2\x80\x9d\xe2\x80\x9d\xe2\x80\x9d'
p1589
I78
sS'gjelinas'
p1590
I77
sS'roses'
p1591
I77
sS'hella'
p1592
I78
sS'5'
p1593
I65
sS'you'
p1594
I23
sS'puppy'
p1595
I78
sS'poor'
p1596
I78
sS'brash'
p1597
I78
sS'lemonadela'
p1598
I78
sS'obsessed'
p1599
I78
sS'"falling..."'
p1600
I78
sS'shelter'
p1601
I77
sS'orchard"'
p1602
I75
sS'mgsp'
p1603
I78
sS'terra'
p1604
I78
sS'a1'
p1605
I78
sS'herbs'
p1606
I78
sS'important'
p1607
I78
sS"she's"
p1608
I74
sS'included'
p1609
I78
sS'dropbox'
p1610
I78
sS'chuck'
p1611
I78
sS'booked'
p1612
I78
sS'calls'
p1613
I77
sS'natalia'
p1614
I78
sS"life's"
p1615
I78
sS'wifi'
p1616
I78
sS'websites'
p1617
I78
sS'hello'
p1618
I77
sS'party\xe2\x80\xa6'
p1619
I78
sS'u'
p1620
I69
sS'alright'
p1621
I77
sS'starting'
p1622
I78
sS'4pm'
p1623
I78
sS'default'
p1624
I78
sS'all'
p1625
I44
sS'forget'
p1626
I77
sS'suns'
p1627
I78
sS'stems'
p1628
I78
sS'splitting'
p1629
I78
sS'month'
p1630
I75
sS'commute'
p1631
I78
sS'generalize'
p1632
I78
sS'zinc'
p1633
I77
sS'parmesan'
p1634
I78
sS'talks'
p1635
I77
sS'follow'
p1636
I78
sS'one...&'
p1637
I78
sS'lace'
p1638
I78
sS'emily'
p1639
I78
sS'apartment'
p1640
I77
sS'conlons'
p1641
I78
sS'icons'
p1642
I78
sS'emil\xe2\x80\xa6'
p1643
I78
sS'z'
p1644
I78
sS'misses'
p1645
I78
sS'thursday'
p1646
I76
sS'spirit'
p1647
I78
sS'gary'
p1648
I78
sS'to'
p1649
I6
sS'tl'
p1650
I78
sS'tj'
p1651
I78
sS'nutrient-dense'
p1652
I78
sS'dressing'
p1653
I78
sS'tf'
p1654
I78
sS'smile'
p1655
I76
sS'enjoying'
p1656
I76
sS'ta'
p1657
I78
sS'sound'
p1658
I75
sS'appointment'
p1659
I78
sS'7'
p1660
I78
sS'song'
p1661
I72
sS'very'
p1662
I72
sS'fav'
p1663
I78
sS'selfies'
p1664
I78
sS'sons'
p1665
I78
sS'worst'
p1666
I76
sS'clench'
p1667
I78
sS'ticket'
p1668
I78
sS'litel'
p1669
I78
sS'splitter'
p1670
I78
sS'heaven'
p1671
I74
sS'washing'
p1672
I78
sS'mammas'
p1673
I78
sS'--'
p1674
I78
sS'celebrity'
p1675
I78
sS'joined'
p1676
I78
sS'\xd8\xb1\xd9\x8a\xd8\xad\xd8\xa9'
p1677
I78
sS'prosciutto'
p1678
I78
sS'salute'
p1679
I78
sS'harry'
p1680
I78
sS'bench'
p1681
I78
sS'becker'
p1682
I78
sS'her\xe2\x9c\x8a'
p1683
I78
sS'louie'
p1684
I78
sS"i'll"
p1685
I73
sS'neighborhood'
p1686
I77
sS'instagram'
p1687
I78
sS'ten'
p1688
I78
sS'tea'
p1689
I78
sS'streets'
p1690
I64
sS'burger'
p1691
I78
sS'zero'
p1692
I78
sS'titles'
p1693
I78
sS'perspective'
p1694
I78
sS'nba'
p1695
I75
sS'khamster'
p1696
I78
sS'casual'
p1697
I78
sS'what'
p1698
I47
sS'sun'
p1699
I78
sS'towed!"'
p1700
I78
sS'crust'
p1701
I78
sS'fucks'
p1702
I78
sS'crush'
p1703
I78
sS'scott_dyer_2014'
p1704
I78
sS'pre-dinner'
p1705
I78
sS'run'
p1706
I78
sS'sup'
p1707
I76
sS'avacados'
p1708
I78
sS'learned'
p1709
I76
sS'deborah'
p1710
I78
sS'full'
p1711
I72
sS'hash'
p1712
I78
sS'cr\xc3\xa8me'
p1713
I78
sS'crudo'
p1714
I78
sS'gr8t'
p1715
I78
sS'supposedly'
p1716
I78
sS'vale'
p1717
I78
sS'hours'
p1718
I77
sS'hubs'
p1719
I78
sS'tracks'
p1720
I78
sS'meowing'
p1721
I78
sS'thrift'
p1722
I78
sS'an\xe2\x80\xa6'
p1723
I78
sS'ahead'
p1724
I78
sS'inspired'
p1725
I77
sS'jackie'
p1726
I78
sS'experience'
p1727
I77
sS'stella'
p1728
I78
sS'pico'
p1729
I78
sS'pick'
p1730
I77
sS'action'
p1731
I78
sS"would've"
p1732
I78
sS'options'
p1733
I78
sS'via'
p1734
I78
sS'followed'
p1735
I78
sS'family'
p1736
I73
sS'2013"'
p1737
I78
sS'ask'
p1738
I78
sS'vip'
p1739
I78
sS'by\xe2\x80\xa6'
p1740
I78
sS'ktemery'
p1741
I78
sS'amaze'
p1742
I78
sS'night;)'
p1743
I78
sS'two'
p1744
I71
sS'almost'
p1745
I78
sS'thetastingkitchen'
p1746
I78
sS'pitching'
p1747
I78
sS'6'
p1748
I71
sS'taken'
p1749
I77
sS'goshia'
p1750
I78
sS'more'
p1751
I72
sS'door'
p1752
I77
sS'knows'
p1753
I78
sS'company'
p1754
I73
sS"ain't"
p1755
I76
sS'stick'
p1756
I68
sS'lemons'
p1757
I78
sS'known'
p1758
I78
sS'hurry'
p1759
I77
sS'glad'
p1760
I78
sS'town'
p1761
I77
sS'grill'
p1762
I77
sS'keeping'
p1763
I78
sS'hour'
p1764
I76
sS'canceled'
p1765
I78
sS'citizen'
p1766
I78
sS'sucks'
p1767
I78
sS'enchanted'
p1768
I78
sS'nina'
p1769
I78
sS'del'
p1770
I77
sS'(1915'
p1771
I78
sS'den'
p1772
I78
sS'v'
p1773
I76
sS'def'
p1774
I78
sS'mala'
p1775
I78
sS'beautiful'
p1776
I65
sS'(with'
p1777
I77
sS'brown'
p1778
I77
sS'lise'
p1779
I78
sS'share'
p1780
I76
sS'socal'
p1781
I77
sS'wet'
p1782
I78
sS'sense'
p1783
I77
sS'"this'
p1784
I78
sS'concept'
p1785
I78
sS'huge'
p1786
I75
sS'needs'
p1787
I77
sS'dreads'
p1788
I76
sS'awkward'
p1789
I77
sS'rather'
p1790
I78
sS'breaking'
p1791
I78
sS'amistad'
p1792
I78
sS'christinadevine'
p1793
I78
sS'-cries-'
p1794
I78
sS"k's"
p1795
I78
sS'sandwich'
p1796
I76
sS'okay'
p1797
I75
sS'tried'
p1798
I77
sS'w/sesame'
p1799
I78
sS'613'
p1800
I78
sS'advice'
p1801
I78
sS'brett'
p1802
I77
sS'sneak'
p1803
I78
sS'fb'
p1804
I78
sS'palmers'
p1805
I78
sS'blood'
p1806
I70
sS'coming'
p1807
I69
sS'choice'
p1808
I78
sS'kinney'
p1809
I22
sS'response'
p1810
I78
sS'fo'
p1811
I78
sS'a'
p1812
I5
sS'short'
p1813
I78
sS'loud'
p1814
I77
sS'shady'
p1815
I78
sS'eats'
p1816
I77
sS'anytime'
p1817
I78
sS'buns'
p1818
I78
sS'abbyschiller'
p1819
I78
sS'shore'
p1820
I78
sS'dread'
p1821
I78
sS'arizona'
p1822
I78
sS'pleasure'
p1823
I77
sS'egg'
p1824
I77
sS'playing'
p1825
I73
sS"that's"
p1826
I63
sS'miso'
p1827
I78
sS'mexican'
p1828
I78
sS'help'
p1829
I77
sS"don't"
p1830
I49
sS'"if'
p1831
I78
sS'$25'
p1832
I78
sS'flowers'
p1833
I78
sS'sooo'
p1834
I78
sS'soon'
p1835
I74
sS'mousse'
p1836
I78
sS'isberto'
p1837
I78
sS'am\xe2\x80\x9d'
p1838
I78
sS'telling'
p1839
I78
sS'attitude'
p1840
I78
sS'through'
p1841
I74
sS'broadway'
p1842
I75
sS'brig'
p1843
I40
sS'its'
p1844
I73
sS'24'
p1845
I78
sS'needleman'
p1846
I78
sS'digam'
p1847
I78
sS'20'
p1848
I75
sS'21'
p1849
I76
sS'habit)'
p1850
I74
sS'thnx'
p1851
I78
sS'nah?"'
p1852
I78
sS'28'
p1853
I78
sS'actually'
p1854
I78
sS'late'
p1855
I72
sS'feel'
p1856
I69
sS'stephen'
p1857
I77
sS'release'
p1858
I78
sS'bout'
p1859
I76
sS'soccer'
p1860
I77
sS'might'
p1861
I76
sS"haven't"
p1862
I78
sS'photography\xe2\x80\xa6'
p1863
I78
sS'good'
p1864
I41
sS'beeeeeeeesen'
p1865
I78
sS'quarter.\xe2\x80\x9dshits'
p1866
I78
sS'yo'
p1867
I77
sS'food'
p1868
I53
sS'fownd'
p1869
I78
sS'hunter'
p1870
I78
sS'noticing'
p1871
I78
sS'bostick'
p1872
I77
sS'walls'
p1873
I78
sS'tortillas'
p1874
I78
sS'olivia'
p1875
I78
sS"you've"
p1876
I77
sS'foot'
p1877
I78
sS'ninja'
p1878
I78
sS'laboratory)'
p1879
I78
sS'yu'
p1880
I78
sS'bigger'
p1881
I78
sS'iced'
p1882
I78
sS'go;)'
p1883
I78
sS'*from*'
p1884
I78
sS'wash'
p1885
I77
sS'always'
p1886
I72
sS'puzzle'
p1887
I78
sS'truths'
p1888
I76
sS'bless'
p1889
I78
sS'found'
p1890
I74
sS'inthemomentnow\xe2\x80\xa6'
p1891
I78
sS'(but'
p1892
I78
sS'rodriguez'
p1893
I78
sS'everyone'
p1894
I74
sS'weeknd'
p1895
I78
sS'mental'
p1896
I77
sS'generation'
p1897
I78
sS'house'
p1898
I72
sS'energy'
p1899
I78
sS'hard'
p1900
I78
sS'haley'
p1901
I78
sS'idea'
p1902
I75
sS'$goog'
p1903
I78
sS'wrekt'
p1904
I78
sS'mackenzie'
p1905
I78
sS'oil'
p1906
I78
sS'connect'
p1907
I78
sS'traveler'
p1908
I78
sS'blues'
p1909
I77
sS'beyond'
p1910
I77
sS'event'
p1911
I55
sS'really'
p1912
I65
sS'silky'
p1913
I78
sS'(2/5'
p1914
I78
sS'missed'
p1915
I77
sS'ftw'
p1916
I78
sS'$3.5'
p1917
I78
sS'childish'
p1918
I78
sS'since'
p1919
I76
sS'jolly'
p1920
I78
sS'acting'
p1921
I78
sS'maple'
p1922
I78
sS"they'll"
p1923
I78
sS'backstaging'
p1924
I78
sS'issue'
p1925
I78
sS'brewery'
p1926
I78
sS'highway'
p1927
I78
sS'lohantony'
p1928
I78
sS'ass'
p1929
I68
sS'bye'
p1930
I78
sS'drink'
p1931
I78
sS'pathetic'
p1932
I78
sS'gjelina)'
p1933
I75
sS'driver'
p1934
I78
sS'friday'
p1935
I41
sS'hosted'
p1936
I78
sS'story'
p1937
I77
sS'mmm'
p1938
I78
sS'johnnie'
p1939
I78
sS'base'
p1940
I78
sS'cookie'
p1941
I78
sS'put'
p1942
I70
sS'rises'
p1943
I78
sS'beginning'
p1944
I76
sS'sidewalk'
p1945
I78
sS'bumped'
p1946
I78
sS'revival'
p1947
I77
sS'spinach'
p1948
I77
sS'$200'
p1949
I78
sS'girls:)'
p1950
I78
sS'yall'
p1951
I78
sS'w'
p1952
I72
sS'skeely'
p1953
I78
sS'interact'
p1954
I78
sS'feed'
p1955
I78
sS'hawks'
p1956
I78
sS'dont'
p1957
I78
sS'kundalini'
p1958
I77
sS'girls'
p1959
I72
sS'number'
p1960
I77
sS'fancy'
p1961
I77
sS'happier'
p1962
I78
sS'fucked'
p1963
I78
sS'talked'
p1964
I78
sS'done'
p1965
I76
sS'kobe'
p1966
I78
sS'miss'
p1967
I72
sS'alpert'
p1968
I73
sS'pinned'
p1969
I78
sS'guess'
p1970
I76
sS'killin'
p1971
I78
sS'guest'
p1972
I77
sS'needed'
p1973
I75
sS'blossom'
p1974
I78
sS'steferoniii'
p1975
I78
sS'jeb'
p1976
I77
sS'paint'
p1977
I78
sS'station'
p1978
I77
sS'statement'
p1979
I78
sS'mama'
p1980
I78
sS'banana'
p1981
I76
sS'store'
p1982
I76
sS'selling'
p1983
I78
sS'park'
p1984
I78
sS"eminem's"
p1985
I78
sS'mmmm'
p1986
I77
sS'sizedportions-'
p1987
I78
sS'boredom'
p1988
I78
sS'$8'
p1989
I77
sS'doctors'
p1990
I77
sS'$7'
p1991
I78
sS'believe'
p1992
I76
sS'convinced'
p1993
I78
sS'schoo'
p1994
I78
sS'king'
p1995
I77
sS'kind'
p1996
I76
sS'b'
p1997
I77
sS'double'
p1998
I77
sS'house-made'
p1999
I78
sS'utopia'
p2000
I78
sS'determined'
p2001
I78
sS'supposed'
p2002
I78
sS"class!'"
p2003
I78
sS'garrison'
p2004
I76
sS'ousted'
p2005
I73
sS'outta'
p2006
I78
sS'gals'
p2007
I78
sS'ages'
p2008
I78
sS'garfield'
p2009
I78
sS'rewards'
p2010
I78
sS'orders'
p2011
I78
sS'sell'
p2012
I78
sS'lie'
p2013
I76
sS'nights'
p2014
I77
sS'dancing'
p2015
I78
sS'lil'
p2016
I76
sS'lim'
p2017
I77
sS'cave'
p2018
I78
sS'also'
p2019
I77
sS'finding'
p2020
I78
sS'liz'
p2021
I78
sS'zucchini'
p2022
I78
sS'waitin'
p2023
I78
sS'play'
p2024
I74
sS'electric'
p2025
I53
sS'quote'
p2026
I78
sS'eggs'
p2027
I75
sS'english'
p2028
I78
sS'salmon'
p2029
I78
sS'most'
p2030
I71
sS'charm'
p2031
I77
sS'plan'
p2032
I78
sS'nothing'
p2033
I76
sS'narciso'
p2034
I78
sS'extremely'
p2035
I78
sS'funnier'
p2036
I78
sS'mobile'
p2037
I77
sS'sometimes'
p2038
I75
sS'tastingkitchen'
p2039
I78
sS'\xe2\x98\x80\xef\xb8\x8f'
p2040
I76
sS'frans'
p2041
I78
sS'patsy'
p2042
I78
sS'tubes'
p2043
I77
sS'workout/swim'
p2044
I78
sS'thomas'
p2045
I78
sS'ugh'
p2046
I77
sS'gold'
p2047
I78
sS'fins'
p2048
I78
sS'celebrities'
p2049
I78
sS'moroccan'
p2050
I77
sS'*dead*'
p2051
I78
sS'burrata'
p2052
I76
sS'session'
p2053
I78
sS'naomi'
p2054
I78
sS'fine'
p2055
I77
sS'find'
p2056
I75
sS'veniceloveshack'
p2057
I78
sS'giant'
p2058
I78
sS'sayin'
p2059
I78
sS'nervous'
p2060
I78
sS'flesh'
p2061
I77
sS'pretty'
p2062
I73
sS'8'
p2063
I75
sS'hip'
p2064
I78
sS'his'
p2065
I67
sS'hit'
p2066
I78
sS'creativa'
p2067
I78
sS'permission'
p2068
I78
sS'alicia'
p2069
I78
sS'sunny'
p2070
I77
sS'(alex'
p2071
I78
sS'famous'
p2072
I77
sS'feels'
p2073
I74
sS'reading'
p2074
I78
sS'tribute'
p2075
I78
sS'him'
p2076
I66
sS'alexander'
p2077
I78
sS'enemy'
p2078
I78
sS'"bae'
p2079
I78
sS'sleeve'
p2080
I78
sS'lemonade)'
p2081
I76
sS'cry'
p2082
I78
sS'kylie'
p2083
I78
sS'angulo'
p2084
I78
sS'gotten'
p2085
I78
sS'\xd8\xad\xd8\xb4\xd9\x8a\xd9\x8a\xd9\x8a\xd8\xb4'
p2086
I78
sS'x'
p2087
I78
sS'californian'
p2088
I78
sS'cutie'
p2089
I78
sS'set'
p2090
I74
sS'art'
p2091
I77
sS'bozo'
p2092
I78
sS'misssinginactionmia'
p2093
I78
sS'vine'
p2094
I78
sS'sex'
p2095
I78
sS'culture'
p2096
I77
sS'see'
p2097
I61
sS'individual'
p2098
I78
sS'dumb'
p2099
I78
sS'are'
p2100
I47
sS'close'
p2101
I76
sS'"famous'
p2102
I78
sS'2.0'
p2103
I78
sS'arm'
p2104
I78
sS'sei'
p2105
I78
sS'rosemary'
p2106
I78
sS'maxxer242\xe2\x80\xa6'
p2107
I78
sS'californication'
p2108
I78
sS'vitamins'
p2109
I78
sS'visiting'
p2110
I78
sS'movie'
p2111
I77
sS'wow'
p2112
I74
sS'please'
p2113
I76
sS'woo'
p2114
I77
sS'won'
p2115
I77
sS'probably'
p2116
I75
sS'dvring'
p2117
I78
sS'pictured'
p2118
I78
sS'piss'
p2119
I78
sS'available'
p2120
I78
sS'solo'
p2121
I77
sS'popup'
p2122
I78
sS'recently'
p2123
I78
sS'do'
p2124
I66
sS'missing'
p2125
I77
sS'sold'
p2126
I78
sS'venice\xe2\x80\xa6'
p2127
I78
sS'both'
p2128
I76
sS'c'
p2129
I78
sS'last'
p2130
I61
sS'vibes'
p2131
I78
sS'license'
p2132
I78
sS'restaurant'
p2133
I78
sS"wouldn't"
p2134
I77
sS'barely'
p2135
I78
sS'petergrimmhats'
p2136
I78
sS'experimental'
p2137
I78
sS'screenplay'
p2138
I78
sS'liked'
p2139
I78
sS'drunk'
p2140
I76
sS'reasons'
p2141
I78
sS'sweet'
p2142
I71
sS'acted'
p2143
I78
sS'dudes'
p2144
I78
sS'dancer'
p2145
I78
sS'likes'
p2146
I75
sS'church'
p2147
I77
sS'gallery)'
p2148
I74
sS'linus'
p2149
I77
sS'efron'
p2150
I78
sS'duh'
p2151
I78
sS'devil'
p2152
I78
sS'naps'
p2153
I78
sS'tgif'
p2154
I78
sS'creativity'
p2155
I78
sS'due'
p2156
I78
sS'strategy'
p2157
I78
sS'dropping'
p2158
I78
sS'damn'
p2159
I71
sS'codepen'
p2160
I78
sS'peppers'
p2161
I78
sS'brick'
p2162
I78
sS'meeting'
p2163
I77
sS'woke'
p2164
I77
sS'lived'
p2165
I78
sS'gay'
p2166
I77
sS'fire'
p2167
I76
sS"what's"
p2168
I73
sS'exempt'
p2169
I78
sS'else'
p2170
I76
sS'cinco'
p2171
I78
sS'tomorrowworld'
p2172
I77
sS'understand'
p2173
I76
sS'gah'
p2174
I78
sS'ayeeeee'
p2175
I78
sS'gqhq'
p2176
I77
sS'squabbles'
p2177
I78
sS'look'
p2178
I71
sS'spools'
p2179
I78
sS'"ocean"'
p2180
I78
sS'solid'
p2181
I77
sS'straight'
p2182
I75
sS'bill'
p2183
I78
sS'alegatag'
p2184
I78
sS'\xe2\xac\x86\xef\xb8\x8f'
p2185
I78
sS'receive'
p2186
I78
sS'while'
p2187
I74
sS'smart'
p2188
I78
sS'macleod'
p2189
I78
sS'fun'
p2190
I73
sS'pancakes'
p2191
I78
sS'guide'
p2192
I78
sS'vod'
p2193
I78
sS'kingdom'
p2194
I78
sS'larger'
p2195
I78
sS'10000'
p2196
I78
sS'<3'
p2197
I78
sS'demon'
p2198
I78
sS'rip'
p2199
I78
sS'vou'
p2200
I76
sS'ready'
p2201
I74
sS'rib'
p2202
I78
sS'chase'
p2203
I76
sS'funny'
p2204
I75
sS'decor'
p2205
I78
sS'mathgate'
p2206
I78
sS'italy'
p2207
I77
sS'anymore'
p2208
I77
sS'read'
p2209
I76
sS'delicious'
p2210
I74
sS'peoples'
p2211
I78
sS'9'
p2212
I76
sS'higher'
p2213
I78
sS'docks"'
p2214
I78
sS"grande's"
p2215
I78
sS'used'
p2216
I77
sS'dime'
p2217
I78
sS'keys'
p2218
I78
sS'pikachu'
p2219
I78
sS'leopard'
p2220
I78
sS'yesterday'
p2221
I77
sS'kill'
p2222
I78
sS'moment'
p2223
I78
sS'levels'
p2224
I78
sS'arrived'
p2225
I76
sS'staycation'
p2226
I78
sS'lodge)'
p2227
I75
sS'brussels'
p2228
I78
sS'conveniently'
p2229
I78
sS'lower'
p2230
I78
sS'stephanie'
p2231
I76
sS'multiverse"'
p2232
I74
sS'reginald'
p2233
I78
sS'spent'
p2234
I78
sS'"california'
p2235
I78
sS'd-runkkkkkk'
p2236
I78
sS'dreadlock'
p2237
I78
sS'consistency'
p2238
I78
sS'y'
p2239
I78
sS'organization'
p2240
I78
sS'spend'
p2241
I78
sS'hotdog'
p2242
I78
sS"couldn't"
p2243
I78
sS'eyeglasses'
p2244
I78
sS'listening'
p2245
I76
sS'ceo'
p2246
I78
sS'pigeons'
p2247
I78
sS'thoughtfully'
p2248
I78
sS'quarters'
p2249
I78
sS'risks'
p2250
I78
sS'roasted'
p2251
I78
sS'kh_yara'
p2252
I78
sS'letting'
p2253
I78
sS'cup'
p2254
I78
sS'surprises'
p2255
I78
sS'extra'
p2256
I78
sS'cuz'
p2257
I77
sS'havin'
p2258
I78
sS'grapefruit'
p2259
I78
sS'sydney'
p2260
I78
sS'homies'
p2261
I78
sS'thankyousomuch'
p2262
I78
sS'excited'
p2263
I73
sS'ridiculously'
p2264
I78
sS'bil'
p2265
I78
sS'by_johnny'
p2266
I78
sS'march'
p2267
I75
sS'bih'
p2268
I78
sS'big'
p2269
I74
sS'couple'
p2270
I77
sS'sounding'
p2271
I78
sS'game'
p2272
I73
sS'biz'
p2273
I78
sS'bit'
p2274
I75
sS'wings'
p2275
I78
sS'tradesmen)'
p2276
I78
sS'flannel'
p2277
I78
sS'indrid'
p2278
I78
sS'd'
p2279
I78
sS'twi$ted'
p2280
I78
sS'cope>>>'
p2281
I78
sS'surging'
p2282
I78
sS'ivan'
p2283
I78
sS'coldwell'
p2284
I78
sS'fault'
p2285
I78
sS'awesome\xe2\x80\xa6'
p2286
I78
sS'google'
p2287
I78
sS'saturdays'
p2288
I78
sS'fucking'
p2289
I74
sS'spring'
p2290
I78
sS'sorbet'
p2291
I78
sS'some'
p2292
I58
sS'back'
p2293
I62
sS'come?\xe2\x80\xa6'
p2294
I78
sS'learn'
p2295
I78
sS'candy'
p2296
I78
sS'baroque)'
p2297
I77
sS'isnt'
p2298
I78
sS'5b'
p2299
I78
sS'mustang'
p2300
I78
sS'homegirl'
p2301
I78
sS'ourselves'
p2302
I78
sS'"my'
p2303
I78
sS'meddeh'
p2304
I78
sS'visioning'
p2305
I78
sS'2nd-ever'
p2306
I78
sS'aijia'
p2307
I76
sS'prob'
p2308
I78
sS't'
p2309
I78
sS'coisas'
p2310
I77
sS'be'
p2311
I31
sS'aman'
p2312
I78
sS'eating'
p2313
I72
sS'$88'
p2314
I78
sS'take-away'
p2315
I78
sS'butterscotch\xe2\x80\xa6'
p2316
I78
sS's/o'
p2317
I78
sS'santa'
p2318
I76
sS'darkskin'
p2319
I78
sS'crap'
p2320
I78
sS'carol'
p2321
I78
sS'by'
p2322
I63
sS'faith'
p2323
I78
sS'anything'
p2324
I76
sS'fouls'
p2325
I78
sS'delish'
p2326
I78
sS"mcdonald's"
p2327
I78
sS'page'
p2328
I78
sS'awwww'
p2329
I78
sS'beans'
p2330
I77
sS'idk'
p2331
I75
sS'positive'
p2332
I78
sS'experiences'
p2333
I78
sS'gjelinavenice'
p2334
I78
sS'nuys'
p2335
I78
sS'foool'
p2336
I78
sS'seeing'
p2337
I77
sS'aquile'
p2338
I78
sS'visit'
p2339
I76
sS'into'
p2340
I75
sS'5:17pm'
p2341
I78
sS'because'
p2342
I72
sS'sweg'
p2343
I78
sS'steven'
p2344
I78
sS'wizend'
p2345
I78
sS'lebron'
p2346
I75
sS'katie'
p2347
I76
sS'less\xe2\x80\xa6'
p2348
I78
sS't\xc3\xba'
p2349
I78
sS'arcade'
p2350
I78
sS'(1661'
p2351
I75
sS'spending'
p2352
I78
sS'exposed'
p2353
I78
sS'ca)'
p2354
I13
sS'long'
p2355
I72
sS'spaz'
p2356
I78
sS'chickpea/kale'
p2357
I78
sS'milne'
p2358
I78
sS"we're"
p2359
I74
sS'bruh'
p2360
I75
sS'wonderfully'
p2361
I78
sS'orangeamplifiers'
p2362
I78
sS'himself'
p2363
I77
sS'shirt"'
p2364
I78
sS'inches'
p2365
I78
sS'anywhere'
p2366
I78
sS'boys'
p2367
I76
sS'mcclure'
p2368
I77
sS'repeatedly'
p2369
I78
sS'boyz'
p2370
I78
sS'(veniceca'
p2371
I78
sS'posted'
p2372
I46
sS'groovy'
p2373
I78
sS'two-hour'
p2374
I78
sS'$30'
p2375
I78
sS'up'
p2376
I46
sS'us'
p2377
I75
sS'ur'
p2378
I76
sS'um'
p2379
I77
sS'uh'
p2380
I78
sS'fried'
p2381
I77
sS'called'
p2382
I76
sS'bell'
p2383
I78
sS'ordered'
p2384
I77
sS'naem'
p2385
I78
sS'misssaturdaymorning'
p2386
I78
sS'm'
p2387
I78
sS'chai'
p2388
I78
sS'influence'
p2389
I78
sS'105.9'
p2390
I78
sS'diverse'
p2391
I78
sS'rally'
p2392
I78
sS"tracy's"
p2393
I78
sS'book\xe2\x80\xa6'
p2394
I78
sS'stripper'
p2395
I78
sS'naa'
p2396
I78
sS'brunching'
p2397
I77
sS'rains'
p2398
I78
sS'creeper'
p2399
I78
sS'nah'
p2400
I77
sS'excuses'
p2401
I77
sS'points'
p2402
I78
sS'nice'
p2403
I73
sS'cheesy'
p2404
I78
sS'favourite'
p2405
I78
sS'sided'
p2406
I78
sS'robots'
p2407
I78
sS'frances'
p2408
I78
sS'bianca'
p2409
I78
sS'dog!\xe5\xa5\xbd\xe5\x8f\xaf\xe6\x84\x9b\xe7\x9a\x84\xe6\x8b\x96\xe6\x8a\x8a\xe7\x8b\x97\xef\xbc\x81'
p2410
I78
sS'allowing'
p2411
I78
sS'7-10pm'
p2412
I77
sS'reservation'
p2413
I78
sS'crazy...just'
p2414
I78
sS'tummy'
p2415
I78
sS'ago'
p2416
I76
sS'monie'
p2417
I77
sS'doesn\xe2\x80\x99t'
p2418
I78
sS'e'
p2419
I75
sS'10-years'
p2420
I78
sS'200$'
p2421
I78
sS'vice'
p2422
I75
sS'scream'
p2423
I78
sS'$tsla'
p2424
I78
sS'karma'
p2425
I77
sS'foodtrucks'
p2426
I78
sS'pues'
p2427
I78
sS'walker'
p2428
I75
sS'fresh'
p2429
I77
sS'carved'
p2430
I78
sS'kogi'
p2431
I73
sS'edc'
p2432
I78
sS'code'
p2433
I78
sS'jason'
p2434
I78
sS'unemployment'
p2435
I78
sS'sabi)'
p2436
I77
sS'finallyyy'
p2437
I78
sS'windy'
p2438
I78
sS'\xe2\x85\xb9'
p2439
I78
sS'gb'
p2440
I78
sS'ga'
p2441
I78
sS'go'
p2442
I54
sS'millliiee'
p2443
I78
sS'chillin'
p2444
I78
sS'kate'
p2445
I76
sS'issues'
p2446
I78
sS'9:45p'
p2447
I78
sS'(besides'
p2448
I78
sS'graves'
p2449
I78
sS"d'alessio"
p2450
I78
sS'930'
p2451
I78
sS'young'
p2452
I75
sS'send'
p2453
I77
sS'suits'
p2454
I78
sS'shack'
p2455
I72
sS'amigas'
p2456
I78
sS'babes'
p2457
I78
sS'stafford'
p2458
I78
sS'queen'
p2459
I78
sS'g2'
p2460
I74
sS'organizations'
p2461
I78
sS'stfu'
p2462
I78
sS'continues'
p2463
I77
sS'kitty'
p2464
I78
sS'mixing'
p2465
I78
sS'drinking'
p2466
I78
sS'xxxxoooooo'
p2467
I78
sS'minerals'
p2468
I78
sS'bryant'
p2469
I78
sS'entire'
p2470
I78
sS'gettin'
p2471
I76
sS'michael'
p2472
I78
sS'colors'
p2473
I78
sS'ryan'
p2474
I78
sS'try'
p2475
I77
sS'radio'
p2476
I78
sS'herstand'
p2477
I78
sS"n'icecream"
p2478
I78
sS'ponytail"'
p2479
I78
sS'pepper'
p2480
I78
sS'mural'
p2481
I78
sS'flt'
p2482
I78
sS'video'
p2483
I76
sS'reunion'
p2484
I78
sS'gabverella'
p2485
I78
sS'*shaved'
p2486
I78
sS'odd'
p2487
I78
sS'victor'
p2488
I78
sS'sausage'
p2489
I78
sS'plays'
p2490
I77
sS'power'
p2491
I78
sS'duuuude'
p2492
I78
sS'showcase'
p2493
I78
sS'giving'
p2494
I78
sS'falcons'
p2495
I78
sS'better;)'
p2496
I78
sS'dear\xe2\x80\xa6'
p2497
I78
sS'espresso'
p2498
I78
sS'vampire'
p2499
I78
sS'internship'
p2500
I78
sS'waiting'
p2501
I75
sS'printing'
p2502
I78
sS'sasholes'
p2503
I78
sS'...this'
p2504
I78
sS'bird'
p2505
I76
sS'lutheran'
p2506
I78
sS'krikes'
p2507
I77
sS'punch'
p2508
I78
sS'youngest'
p2509
I78
sS'growing'
p2510
I78
sS'ramsey'
p2511
I78
sS'let'
p2512
I73
sS'others'
p2513
I36
sS'sexy'
p2514
I78
sS'invented'
p2515
I78
sS'great'
p2516
I70
sS'talent'
p2517
I78
sS'33'
p2518
I78
sS'30'
p2519
I78
sS'calvin'
p2520
I78
sS'leaving'
p2521
I77
sS'*am'
p2522
I78
sS'makes'
p2523
I73
sS'rigged'
p2524
I78
sS'named'
p2525
I77
sS'writer'
p2526
I78
sS'apple'
p2527
I77
sS'pops'
p2528
I78
sS'lords'
p2529
I78
sS'win'
p2530
I75
sS'app'
p2531
I77
sS'\xe2\x98\x80\xe2\x9b\xb5'
p2532
I78
sS'wit'
p2533
I76
sS'duck'
p2534
I76
sS'apply'
p2535
I78
sS'singing'
p2536
I76
sS'wiz'
p2537
I78
sS'pomodoro'
p2538
I78
sS'use'
p2539
I77
sS'hahahahaha'
p2540
I78
sS'from'
p2541
I55
sS'baby:)'
p2542
I78
sS'usa'
p2543
I78
sS'&'
p2544
I48
sS'next'
p2545
I70
sS'few'
p2546
I74
sS'camera'
p2547
I77
sS'scariest'
p2548
I78
sS'simpler'
p2549
I78
sS'chip'
p2550
I78
sS'sugah'
p2551
I78
sS'sort'
p2552
I78
sS'babe'
p2553
I78
sS'1/2'
p2554
I78
sS'"whoopie'
p2555
I78
sS'started'
p2556
I78
sS'about'
p2557
I55
sS'lodge'
p2558
I57
sS'train'
p2559
I78
sS'b.o.g.g'
p2560
I78
sS'connie'
p2561
I77
sS'baby'
p2562
I71
sS'"to'
p2563
I78
sS'foursome'
p2564
I78
sS'5truths'
p2565
I77
sS'(santa'
p2566
I78
sS'women'
p2567
I76
sS'annoy'
p2568
I78
sS"ally's"
p2569
I78
sS'salad'
p2570
I77
sS'this'
p2571
I26
sS'ride'
p2572
I74
sS'tease'
p2573
I78
sS'alie'
p2574
I78
sS'plums'
p2575
I78
sS'saints\xe2\x80\x9d'
p2576
I78
sS'sabi'
p2577
I70
sS'crossed'
p2578
I78
sS'pre-order'
p2579
I78
sS'jordan'
p2580
I78
sS'meet'
p2581
I75
sS'certainty'
p2582
I78
sS'control'
p2583
I78
sS'borrowed'
p2584
I78
sS'"from'
p2585
I78
sS'monica'
p2586
I76
sS'halloween'
p2587
I77
sS'pieces'
p2588
I78
sS'high'
p2589
I76
sS'snapchats\xe2\x80\x9d'
p2590
I78
sS'1200'
p2591
I78
sS'something'
p2592
I74
sS'blvd'
p2593
I52
sS'tan'
p2594
I78
sS'skirt'
p2595
I78
sS'lamb'
p2596
I77
sS'slayer'
p2597
I78
sS'united'
p2598
I78
sS'sit'
p2599
I76
sS'onions'
p2600
I78
sS'neurotic'
p2601
I78
sS'fun4devils'
p2602
I78
sS'blessings'
p2603
I78
sS'yayyyyy'
p2604
I78
sS'animal'
p2605
I78
sS'negated'
p2606
I78
sS'(part'
p2607
I78
sS'comedy'
p2608
I78
sS'gurl'
p2609
I78
sS'stock'
p2610
I77
sS'uhhh'
p2611
I78
sS'douchiest'
p2612
I78
sS'stop'
p2613
I76
sS'waters'
p2614
I78
sS'act'
p2615
I78
sS'tied'
p2616
I78
sS'men'
p2617
I78
sS'hahahaha'
p2618
I78
sS'coast'
p2619
I75
sS'lonesomedove33'
p2620
I78
sS"do'nt"
p2621
I78
sS'somethin'
p2622
I77
sS'venue!\xe2\x80\xa6'
p2623
I78
sS'light'
p2624
I77
sS'lame'
p2625
I78
sS'corral'
p2626
I78
sS'on\xe2\x80\xa6'
p2627
I78
sS'admiring'
p2628
I78
sS'honestly'
p2629
I78
sS'allow'
p2630
I78
sS'classy'
p2631
I78
sS'lined'
p2632
I78
sS'best.\xe2\x80\xa6'
p2633
I78
sS"i'll\xe2\x80\xa6"
p2634
I78
sS'djslytenxf4d'
p2635
I78
sS'despite'
p2636
I78
sS'"cocktail"'
p2637
I78
sS'dearest'
p2638
I78
sS'including'
p2639
I78
sS'looks'
p2640
I75
sS'festval'
p2641
I78
sS'bunch'
p2642
I78
sS'perfect'
p2643
I76
sS'1'
p2644
I75
sS'succesfull'
p2645
I78
sS'la'
p2646
I54
sS'nostalgia'
p2647
I78
sS'[pic]'
p2648
I34
sS'hanson'
p2649
I78
sS'willing'
p2650
I78
sS'choose'
p2651
I78
sS'orange'
p2652
I78
sS'2014'
p2653
I78
sS'holiday'
p2654
I78
sS'jukebox'
p2655
I78
sS'2013'
p2656
I76
sS'2012'
p2657
I78
sS'dad'
p2658
I76
sS'pure'
p2659
I78
sS'deven'
p2660
I78
sS'dat'
p2661
I78
sS'hands'
p2662
I77
sS'front'
p2663
I76
sS'announcers'
p2664
I78
sS'kindness'
p2665
I78
sS'cage'
p2666
I78
sS'day'
p2667
I51
sS'articles'
p2668
I78
sS'10pm'
p2669
I78
sS'irks'
p2670
I78
sS'university'
p2671
I78
sS'bridge"'
p2672
I78
sS'souldiers'
p2673
I78
sS'fuzz'
p2674
I78
sS'disregard'
p2675
I78
sS'lillibeee'
p2676
I78
sS'economy'
p2677
I78
sS"ya'll"
p2678
I78
sS'warner'
p2679
I78
sS'eastern'
p2680
I78
sS'(the'
p2681
I78
sS'doing'
p2682
I75
sS'bums'
p2683
I78
sS'rojas'
p2684
I78
sS'books'
p2685
I78
sS'our'
p2686
I62
sS'80'
p2687
I78
sS'disco'
p2688
I78
sS'special'
p2689
I75
sS'out'
p2690
I39
sS'butch'
p2691
I78
sS'matt'
p2692
I77
sS'rey'
p2693
I77
sS'debbiesuebee'
p2694
I78
sS'(at'
p2695
I44
sS'mcmahon'
p2696
I78
sS'twice'
p2697
I78
sS'asshole'
p2698
I78
sS'w/o'
p2699
I78
sS'wellspring'
p2700
I78
sS'as\xc3\xad'
p2701
I78
sS'strokes'
p2702
I78
sS'vcs'
p2703
I78
sS'freshman'
p2704
I78
sS'hilarious'
p2705
I78
sS'jamestown'
p2706
I77
sS'cause'
p2707
I76
sS'red'
p2708
I78
sS'jessica'
p2709
I78
sS'out\xe2\x80\xa6'
p2710
I78
sS'coek'
p2711
I78
sS'clarify'
p2712
I78
sS'que'
p2713
I74
sS'fabulousness'
p2714
I78
sS'nkisme\xe2\x80\xa6'
p2715
I78
sS'craving'
p2716
I78
sS'scary'
p2717
I77
sS'lol.\xe2\x80\x9d'
p2718
I78
sS'organic'
p2719
I78
sS'g'
p2720
I75
sS'snapchats'
p2721
I78
sS'could'
p2722
I68
sS'skateboard'
p2723
I78
sS'keep'
p2724
I76
sS'conversation'
p2725
I78
sS'morrocan'
p2726
I78
sS'serenity'
p2727
I78
sS'adrian'
p2728
I78
sS'jesus'
p2729
I75
sS'bitch'
p2730
I74
sS'dreamville'
p2731
I78
sS"doesn't"
p2732
I76
sS'playlist'
p2733
I78
sS'fascinating'
p2734
I78
sS'los'
p2735
I71
sS'festival'
p2736
I76
sS'accent'
p2737
I77
sS'merrier'
p2738
I78
sS'rocha'
p2739
I78
sS'doesnt'
p2740
I78
sS'jingle'
p2741
I78
sS'final'
p2742
I77
sS'beard'
p2743
I76
sS'shell'
p2744
I78
sS'stars'
p2745
I78
sS'greta'
p2746
I78
sS'exactly'
p2747
I77
sS'facts."'
p2748
I78
sS'surfing'
p2749
I78
sS"n'ice"
p2750
I68
sS'holland'
p2751
I78
sS'parched'
p2752
I78
sS'boring'
p2753
I78
sS'bother'
p2754
I78
sS'brussel'
p2755
I78
sS'shampoo'
p2756
I77
sS'popping'
p2757
I78
sS'bed'
p2758
I76
sS'chia-pet'
p2759
I78
sS'maybe'
p2760
I78
sS'grubbed'
p2761
I78
sS"werkin'"
p2762
I78
sS'spurs'
p2763
I76
sS'are\xe2\x80\xa6'
p2764
I78
sS'tobiko'
p2765
I78
sS'false'
p2766
I78
sS'meeting\xe2\x80\xa6'
p2767
I78
sS'comfortable'
p2768
I78
sS'tonight'
p2769
I56
sS'leftovers....the'
p2770
I78
sS'have'
p2771
I51
sS'ari'
p2772
I78
sS'need'
p2773
I63
sS'turn'
p2774
I78
sS'apparently'
p2775
I78
sS'tiny'
p2776
I78
sS'phytonutrients'
p2777
I78
sS'boyyy'
p2778
I78
sS'dishes'
p2779
I78
sS'congrats'
p2780
I77
sS'kristy'
p2781
I78
sS'mic'
p2782
I78
sS'able'
p2783
I76
sS'hahahahshahaha'
p2784
I78
sS'makeover'
p2785
I78
sS'fasho'
p2786
I78
sS'ahold'
p2787
I78
sS'locals'
p2788
I78
sS'which'
p2789
I75
sS'so'
p2790
I33
sS'detector'
p2791
I77
sS'='
p2792
I76
sS'firefly'
p2793
I75
sS'hq'
p2794
I78
sS'nancy'
p2795
I78
sS'r&r'
p2796
I78
sS'who'
p2797
I66
sS'resplendent'
p2798
I77
sS"where's"
p2799
I78
sS'lust'
p2800
I78
sS'connected'
p2801
I78
sS'future'
p2802
I78
sS'why'
p2803
I64
sS'fair'
p2804
I78
sS'refreshing'
p2805
I78
sS'beets'
p2806
I78
sS'eachother'
p2807
I78
sS'stronger'
p2808
I78
sS'thanksgiving'
p2809
I78
sS'face'
p2810
I75
sS'looked'
p2811
I78
sS"abbot's"
p2812
I62
sS"you'll"
p2813
I78
sS'tonight!\xe2\x80\xa6'
p2814
I78
sS'\xee\x81\x85\xee\x81\x85\xee\x90\xa9'
p2815
I78
sS'venicelife'
p2816
I77
sS'yelp'
p2817
I78
sS'painting'
p2818
I78
sS'fact'
p2819
I77
sS'son'
p2820
I78
sS'impression'
p2821
I78
sS'latinos'
p2822
I78
sS'"date"'
p2823
I78
sS'itze_ezti'
p2824
I77
sS'exclusive'
p2825
I78
sS'bum'
p2826
I78
sS'bring'
p2827
I76
sS'bikes'
p2828
I77
sS'parked'
p2829
I78
sS'chicken'
p2830
I77
sS'lunchhhh'
p2831
I78
sS'abott'
p2832
I78
sS'that?goodell'
p2833
I78
sS'domestic-violence'
p2834
I78
sS'knowledge'
p2835
I78
sS'jay'
p2836
I77
sS'petrilli'
p2837
I78
sS'winner'
p2838
I77
sS'fans'
p2839
I77
sS'should'
p2840
I70
sS'creme'
p2841
I78
sS'combo'
p2842
I78
sS'experimenting'
p2843
I78
sS'piano'
p2844
I78
sS'nextmodelmgmtla'
p2845
I78
sS'hope'
p2846
I78
sS'soon!\xe2\x80\xa6'
p2847
I78
sS'move'
p2848
I78
sS'fabulous'
p2849
I78
sS'b\xe2\x80\xa6'
p2850
I78
sS'watching'
p2851
I76
sS'beat'
p2852
I78
sS'familiar'
p2853
I78
sS'dope'
p2854
I76
sS'flirting'
p2855
I78
sS'overall'
p2856
I78
sS'lucky'
p2857
I78
sS'sipping'
p2858
I78
sS'beam'
p2859
I78
sS'words'
p2860
I77
sS"maker's"
p2861
I78
sS'sassy'
p2862
I78
sS'chips'
p2863
I78
sS'bestest'
p2864
I77
sS'trucks'
p2865
I75
sS'titus'
p2866
I78
sS'"north'
p2867
I78
sS'navarro'
p2868
I77
sS'comics'
p2869
I78
sS'stuff'
p2870
I78
sS'she'
p2871
I59
sS'dangerous'
p2872
I78
sS"won't"
p2873
I78
sS'today\xe2\x98\x80\xef\xb8\x8f'
p2874
I77
sS'fixed'
p2875
I78
sS'\xe3\x83\xa9\xe3\x83\xa0\xe3\x83\x8d\xe3\x81\xa3\xe3\x81\xa6\xe3\x80\x81\xe5\xa4\xa7\xe5\xa5\xbd\xe3\x81\x8d\xe3\x80\x82\xe4\xba\xba\xe6\xb0\x97\xe3\x81\xa0\xe3\x82\x88\xe3\x80\x82\xe3\x81\x93\xe3\x81\xae\xe3\x82\x88\xe3\x81\x86\xe3\x81\xaa\xe3\x83\x89\xe3\x83\xaa\xe3\x83\xb3\xe3\x82\xaf\xe3\x80\x82'
p2876
I78
sS'preach'
p2877
I77
sS'spotted'
p2878
I77
sS'btw'
p2879
I78
sS'bucket'
p2880
I78
sS'lazy'
p2881
I78
sS'relatable'
p2882
I78
sS'faces'
p2883
I78
sS'kanye'
p2884
I78
sS'quiche'
p2885
I78
sS'packed'
p2886
I78
sS'kravitz'
p2887
I78
sS'danger'
p2888
I78
sS'cole'
p2889
I75
sS'luv'
p2890
I77
sS'coveting'
p2891
I78
sS'nature'
p2892
I78
sS'superb'
p2893
I78
sS'favor'
p2894
I78
sS'written'
p2895
I78
sS'miguel'
p2896
I78
sS'closed'
p2897
I78
sS'stories'
p2898
I78
sS'derulo'
p2899
I78
sS'bought'
p2900
I78
sS'joy'
p2901
I78
sS'"freaky'
p2902
I78
sS'addie'
p2903
I78
sS'job'
p2904
I70
sS'merry'
p2905
I78
sS'legit'
p2906
I78
sS'david'
p2907
I78
sS'beatsbydre'
p2908
I78
sS'defense'
p2909
I78
sS'sniff'
p2910
I78
sS'taking'
p2911
I75
sS"he's"
p2912
I76
sS'careful...:p'
p2913
I78
sS'equal'
p2914
I78
sS'drug'
p2915
I78
sS'april'
p2916
I78
sS'doorway'
p2917
I78
sS'swim'
p2918
I78
sS'farmacy'
p2919
I78
sS'gitarsax'
p2920
I78
sS'wr'
p2921
I78
sS'gorgeous'
p2922
I78
sS'hehehe'
p2923
I78
sS'co'
p2924
I77
sS'ohm'
p2925
I78
sS'cc'
p2926
I78
sS'ca'
p2927
I67
sS'walk'
p2928
I60
sS'arugula'
p2929
I78
sS'unicorn-wrangling'
p2930
I78
sS'math'
p2931
I78
sS'modeling'
p2932
I78
sS'table'
p2933
I75
sS'picking'
p2934
I78
sS'ct'
p2935
I78
sS'1421'
p2936
I78
sS'sark'
p2937
I78
sS'yay'
p2938
I75
sS'exhalation'
p2939
I78
sS'powered'
p2940
I78
sS"it's"
p2941
I47
sS'balsamic'
p2942
I78
sS'limeaid'
p2943
I78
sS'literal'
p2944
I78
sS'drank'
p2945
I78
sS'slowly'
p2946
I78
sS'treat'
p2947
I77
sS'w/saffron'
p2948
I78
sS'ah'
p2949
I78
sS'copied'
p2950
I78
sS'hawksss'
p2951
I78
sS'bbq'
p2952
I76
sS'mike'
p2953
I77
sS'peaches/burrata/prosciuttoand'
p2954
I78
sS'moved'
p2955
I78
sS'608'
p2956
I78
sS'hmm'
p2957
I78
sS'finished'
p2958
I78
sS'bull'
p2959
I78
sS'smoking'
p2960
I77
sS'brunch'
p2961
I67
sS'an'
p2962
I60
sS'present'
p2963
I78
sS'music...and'
p2964
I78
sS'wabi'
p2965
I67
sS'plain'
p2966
I78
sS'homey'
p2967
I78
sS'cvs'
p2968
I78
sS'value'
p2969
I78
sS'will'
p2970
I67
sS'hahaha'
p2971
I72
sS'wild'
p2972
I77
sS'keaton'
p2973
I77
sS'abbot'
p2974
I24
sS'rename'
p2975
I78
sS'simons'
p2976
I77
sS'resident'
p2977
I73
sS'refs'
p2978
I75
sS'linkedin'
p2979
I78
sS'helped'
p2980
I78
sS'vs'
p2981
I78
sS'swinging'
p2982
I78
sS'ave'
p2983
I78
sS'uggs'
p2984
I78
sS'tattoo'
p2985
I78
sS'az'
p2986
I78
sS'absinthe'
p2987
I78
sS'cross'
p2988
I78
sS'unite'
p2989
I77
sS'proceeds'
p2990
I78
sS'unity'
p2991
I78
sS'shack)'
p2992
I78
sS'jaw'
p2993
I78
sS'party'
p2994
I75
sS'gets'
p2995
I76
sS'tomatoes'
p2996
I78
sS'difficult'
p2997
I78
sS'co-partner'
p2998
I78
sS'ball'
p2999
I74
sS'premiere'
p3000
I77
sS'"reality'
p3001
I78
sS'wharf'
p3002
I78
sS'ibxanders'
p3003
I78
sS'beast'
p3004
I78
sS'fucken'
p3005
I77
sS'student'
p3006
I78
sS'sisters'
p3007
I78
sS'sashi'
p3008
I78
sS'(elana)'
p3009
I78
sS'//'
p3010
I76
sS'bobas"'
p3011
I78
sS'off'
p3012
I68
sS'i'
p3013
I3
sS'(1633'
p3014
I78
sS"'gottfo'"
p3015
I78
sS'well'
p3016
I75
sS'thought'
p3017
I75
sS'sets'
p3018
I77
sS'knotty'
p3019
I78
sS'con'
p3020
I78
sS'usual'
p3021
I78
sS'away."'
p3022
I78
sS'less'
p3023
I78
sS'pie"'
p3024
I78
sS'storey'
p3025
I78
sS'rooms'
p3026
I78
sS'paul'
p3027
I78
sS'wee'
p3028
I78
sS'point'
p3029
I78
sS'sky'
p3030
I77
sS'lake'
p3031
I78
sS'\xd9\x82\xd9\x87\xd9\x88\xd9\x87'
p3032
I78
sS'hall'
p3033
I72
sS'liken'
p3034
I78
sS'add'
p3035
I77
sS'book'
p3036
I78
sS'carnitas'
p3037
I78
sS'cruisers'
p3038
I78
sS'match'
p3039
I77
sS'deber\xc3\xadas'
p3040
I78
sS'identical'
p3041
I78
sS'sonia'
p3042
I75
sS'sick'
p3043
I78
sS'checking'
p3044
I78
sS'haus'
p3045
I77
sS'know'
p3046
I63
sS'25%'
p3047
I78
sS'loss'
p3048
I78
sS'lincoln'
p3049
I69
sS'emma'
p3050
I78
sS'like'
p3051
I39
sS'lost'
p3052
I77
sS'miami'
p3053
I77
sS'jaq'
p3054
I78
sS'ring'
p3055
I78
sS'loser'
p3056
I78
sS'garage'
p3057
I78
sS'james'
p3058
I75
sS'become'
p3059
I78
sS'works'
p3060
I78
sS'soft'
p3061
I78
sS'fuckkk'
p3062
I78
sS'italian'
p3063
I78
sS'delicioso'
p3064
I78
sS'warmed'
p3065
I78
sS'nigga'
p3066
I77
sS'twitter'
p3067
I78
sS'alive'
p3068
I78
sS'generalstore'
p3069
I78
sS'hair'
p3070
I72
sS'haaaaa'
p3071
I78
sS'shes'
p3072
I78
sS'home'
p3073
I67
sS'liking'
p3074
I78
sS'happens'
p3075
I78
sS'hipsters'
p3076
I78
sS'shrub'
p3077
I78
sS'literally'
p3078
I76
sS'tmz'
p3079
I76
sS'lean'
p3080
I78
sS'does'
p3081
I73
sS'sponsoring'
p3082
I78
sS'esa'
p3083
I78
sS'leader'
p3084
I78
sS'says'
p3085
I77
sS'puedo'
p3086
I78
sS'tyra'
p3087
I78
sS'stellar'
p3088
I78
sS'dreadies'
p3089
I78
sS'host'
p3090
I78
sS'snapped'
p3091
I78
sS'\xd9\x85\xd9\x86'
p3092
I78
sS'slacker'
p3093
I78
sS'stage'
p3094
I78
sS'waving'
p3095
I78
sS'sister'
p3096
I77
sS':-)'
p3097
I78
sS'justin'
p3098
I75
sS'-steev'
p3099
I78
sS'getting'
p3100
I72
sS'macleods'
p3101
I78
sS'freedom'
p3102
I78
sS'mommy'
p3103
I78
sS'stephenson'
p3104
I76
sS'angeles'
p3105
I64
sS'swear'
p3106
I78
sS'toppings'
p3107
I78
sS'hairs'
p3108
I78
sS'gouche'
p3109
I78
sS"song's"
p3110
I78
sS'own'
p3111
I75
sS'dreis'
p3112
I78
sS'cocoa'
p3113
I78
sS'sidenote'
p3114
I78
sS'weather'
p3115
I77
sS'promise'
p3116
I78
sS'frm'
p3117
I78
sS'peoplestylewatchmag'
p3118
I78
sS'whos'
p3119
I78
sS'wack'
p3120
I78
sS'van'
p3121
I78
sS'vac'
p3122
I78
sS'*'
p3123
I78
sS'spots'
p3124
I77
sS'kidding'
p3125
I78
sS'bees'
p3126
I78
sS'biggest'
p3127
I78
sS'...going'
p3128
I78
sS'inspiration'
p3129
I78
sS'naturally'
p3130
I78
sS'function'
p3131
I78
sS'buy'
p3132
I76
sS'shani'
p3133
I78
sS"i've"
p3134
I66
sS'shane'
p3135
I76
sS'bus'
p3136
I73
sS'coke'
p3137
I78
sS'bitches'
p3138
I75
sS'alexi'
p3139
I78
sS'but'
p3140
I42
sS'castechh'
p3141
I78
sS'hi'
p3142
I74
sS'nut'
p3143
I78
sS'cute?\xe2\x80\x9d'
p3144
I78
sS'bub'
p3145
I78
sS'ha'
p3146
I77
sS'eat'
p3147
I71
sS'he'
p3148
I64
sS'count'
p3149
I78
sS'lynn'
p3150
I77
sS'made'
p3151
I72
sS'nigga\xe2\x80\x9d'
p3152
I78
sS'places'
p3153
I78
sS'wish'
p3154
I76
sS'j'
p3155
I78
sS'record'
p3156
I78
sS'limit'
p3157
I78
sS'\xe2\x98\x81\xef\xb8\x8fb\xe2\x98\x81\xef\xb8\x8f'
p3158
I78
sS'pumped'
p3159
I77
sS'problem'
p3160
I78
sS'minutes'
p3161
I77
sS'skating'
p3162
I78
sS'(1401'
p3163
I78
sS'whatever'
p3164
I78
sS'universal'
p3165
I78
sS'pic'
p3166
I75
sS'pie'
p3167
I77
sS'pig'
p3168
I78
sS'erin'
p3169
I78
sS'boardwalk'
p3170
I78
sS'jenni'
p3171
I73
sS'shooting'
p3172
I77
sS'pit'
p3173
I78
sS'happen'
p3174
I76
sS'balcony'
p3175
I78
sS'diego'
p3176
I78
sS'incredible'
p3177
I77
sS'45'
p3178
I76
sS'40'
p3179
I78
sS'dogtown'
p3180
I73
sS'other'
p3181
I73
sS'es'
p3182
I78
sS'see\xe2\x80\xa6'
p3183
I78
sS'pacers\xe2\x80\x9d'
p3184
I78
sS"'12"
p3185
I78
sS'lance'
p3186
I76
sS'junk'
p3187
I77
sS'repeat'
p3188
I78
sS'copers'
p3189
I78
sS'monday'
p3190
I78
sS'class'
p3191
I74
sS'l\xc3\xa1'
p3192
I78
sS'june'
p3193
I78
sS'stay'
p3194
I75
sS'laugh/be\xe2\x80\xa6'
p3195
I78
sS'chance'
p3196
I78
sS'\xe2\x80\xa2'
p3197
I70
sS'inthemomentnow'
p3198
I78
sS'kinda'
p3199
I76
sS'badass'
p3200
I76
sS'friends'
p3201
I73
sS'in"'
p3202
I78
sS'goin'
p3203
I77
sS'\xe2\x80\x94'
p3204
I67
sS'using'
p3205
I78
sS'lactose'
p3206
I78
sS'paywalled'
p3207
I78
sS'standby"'
p3208
I78
sS'ab-soul'
p3209
I78
sS'amanda'
p3210
I78
sS'write'
p3211
I78
sS'this\xe2\x80\xa6'
p3212
I78
sS'lives'
p3213
I78
sS'"the'
p3214
I75
sS'baked'
p3215
I77
sS'boutique'
p3216
I78
s.