(dp0
S''
p1
I1
sS'shop'
p2
I28
sS'all'
p3
I21
sS':/'
p4
I28
sS'forget'
p5
I27
sS'dance'
p6
I28
sS'comments'
p7
I28
sS'controversial'
p8
I28
sS'go'
p9
I24
sS'follow'
p10
I28
sS'hate'
p11
I28
sS'imma'
p12
I27
sS':.('
p13
I28
sS'to'
p14
I4
sS'charge'
p15
I28
sS'does'
p16
I27
sS'prayinnng'
p17
I28
sS'dance!!!!!tinashe'
p18
I28
sS'brkfst'
p19
I28
sS'worth'
p20
I28
sS'me'
p21
I18
sS'snoop'
p22
I28
sS'stanton'
p23
I28
sS'sitting'
p24
I28
sS'continues'
p25
I28
sS'mph'
p26
I28
sS'tacos'
p27
I28
sS'shoot'
p28
I28
sS'every'
p29
I27
sS'philharm\xe2\x80\xa6'
p30
I28
sS'sony'
p31
I28
sS'cool'
p32
I28
sS'school'
p33
I27
sS'staples'
p34
I27
sS'did'
p35
I26
sS'button'
p36
I28
sS'niggas'
p37
I26
sS'brother'
p38
I28
sS'prob'
p39
I28
sS'oooo'
p40
I28
sS'donovan'
p41
I28
sS'team'
p42
I28
sS'farren'
p43
I28
sS'yall'
p44
I28
sS"i'll"
p45
I26
sS'mateos'
p46
I28
sS'instagram'
p47
I27
sS'tired'
p48
I28
sS'phones'
p49
I28
sS'boots'
p50
I28
sS'pics'
p51
I28
sS'cost'
p52
I28
sS'video'
p53
I28
sS'earth'
p54
I27
sS'6:15'
p55
I28
sS'muchhhhhhhhh'
p56
I28
sS'even'
p57
I28
sS'what'
p58
I22
sS'imported'
p59
I28
sS'+'
p60
I28
sS'vampire'
p61
I28
sS'emotions'
p62
I27
sS'waiting'
p63
I28
sS'tears'
p64
I28
sS'twins'
p65
I28
sS'new'
p66
I26
sS'$1000'
p67
I28
sS'officially'
p68
I28
sS'noga'
p69
I28
sS'body'
p70
I28
sS'tattoos'
p71
I28
sS'full'
p72
I28
sS'bellayyyyyyy"'
p73
I28
sS'never'
p74
I25
sS'here'
p75
I26
sS'hours'
p76
I28
sS'let'
p77
I26
sS'others'
p78
I28
sS'boda'
p79
I28
sS'buy'
p80
I28
sS'strong'
p81
I28
sS'wait'
p82
I28
sS'boy'
p83
I28
sS'kids'
p84
I28
sS'ahead'
p85
I28
sS'root'
p86
I28
sS'k'
p87
I27
sS'4real'
p88
I28
sS'impactful\xe2\x80\x9d'
p89
I28
sS'bow'
p90
I28
sS'credit'
p91
I28
sS'chilling'
p92
I28
sS"i'm"
p93
I15
sS'gpod'
p94
I28
sS'coo'
p95
I28
sS'love'
p96
I27
sS'family'
p97
I26
sS'extra'
p98
I28
sS'win'
p99
I28
sS'sleeeeepy'
p100
I28
sS'bro'
p101
I27
sS'put'
p102
I28
sS'stand'
p103
I28
sS';)'
p104
I28
sS'yourself'
p105
I28
sS'rihanna'
p106
I28
sS'fed'
p107
I28
sS'him\xe2\x80\x9d'
p108
I28
sS'from'
p109
I26
sS'working'
p110
I27
sS'&'
p111
I24
sS'aye'
p112
I26
sS'lillll'
p113
I28
sS'pero'
p114
I28
sS'immigrants.....and'
p115
I28
sS'next'
p116
I27
sS'few'
p117
I28
sS'live'
p118
I26
sS'doubt'
p119
I28
sS'call'
p120
I28
sS'card'
p121
I28
sS'6'
p122
I28
sS'cute...just'
p123
I28
sS'tell'
p124
I27
sS'today'
p125
I28
sS'more'
p126
I25
sS'introducing'
p127
I28
sS'son'
p128
I28
sS'females'
p129
I27
sS'knows'
p130
I28
sS'club'
p131
I28
sS'culver'
p132
I27
sS'getting'
p133
I28
sS'haha'
p134
I28
sS':-('
p135
I28
sS'goool'
p136
I27
sS'phone'
p137
I27
sS'agent'
p138
I28
sS'ashamed'
p139
I28
sS'baby'
p140
I28
sS'sleeping'
p141
I28
sS'uncool'
p142
I28
sS'loosing'
p143
I28
sS'depps'
p144
I28
sS'worst'
p145
I28
sS'topic'
p146
I28
sS'room'
p147
I26
sS'rights'
p148
I28
sS'this'
p149
I13
sS'car'
p150
I28
sS'ride'
p151
I28
sS'work'
p152
I28
sS'mi'
p153
I28
sS'roof'
p154
I25
sS'friendly'
p155
I28
sS'anywhere'
p156
I28
sS'del'
p157
I28
sS'can'
p158
I24
sS'9th'
p159
I28
sS'learn'
p160
I28
sS'making'
p161
I27
sS'my'
p162
I5
sS'history'
p163
I28
sS'beautiful'
p164
I26
sS'crazy'
p165
I25
sS'picture'
p166
I28
sS'(4835'
p167
I28
sS'monica'
p168
I28
sS"mcdonald's"
p169
I27
sS'awesome'
p170
I28
sS'fuck'
p171
I26
sS'accept'
p172
I27
sS'terrible'
p173
I28
sS'high'
p174
I28
sS'heard'
p175
I28
sS'caution'
p176
I28
sS'something'
p177
I28
sS'want'
p178
I22
sS'blvd'
p179
I27
sS'handle'
p180
I28
sS'keep'
p181
I28
sS'moshiko'
p182
I28
sS'hesitate'
p183
I28
sS'needs'
p184
I28
sS'end'
p185
I28
sS'drained'
p186
I28
sS'discussion'
p187
I28
sS'watching'
p188
I27
sS'"b"'
p189
I28
sS'en'
p190
I26
sS'machine'
p191
I28
sS'till'
p192
I27
sS'hot'
p193
I27
sS'punked'
p194
I28
sS'\xe2\x9d\xa4\xef\xb8\x8f\xe2\x9d\xa4\xef\xb8\x8f\xe2\x9d\xa4\xef\xb8\x8f'
p195
I28
sS'suuucks'
p196
I28
sS'idk'
p197
I28
sS'okay'
p198
I28
sS"today's"
p199
I28
sS'tattoo'
p200
I28
sS'mess'
p201
I27
sS'after'
p202
I28
sS'bothered'
p203
I28
sS'thankyou'
p204
I28
sS'wrong'
p205
I28
sS'birthday'
p206
I27
sS'coming'
p207
I28
sS'hahahaha'
p208
I28
sS'reggie'
p209
I28
sS'guys'
p210
I28
sS'lesbian'
p211
I28
sS'man'
p212
I25
sS'a'
p213
I4
sS"that'd"
p214
I28
sS'maybe'
p215
I28
sS'su'
p216
I28
sS'daredevil'
p217
I28
sS'si'
p218
I28
sS'so'
p219
I14
sS'lmfaooooo'
p220
I27
sS'putting'
p221
I28
sS'playing'
p222
I28
sS'se'
p223
I26
sS'wine'
p224
I28
sS'mexican'
p225
I28
sS'office'
p226
I28
sS"don't"
p227
I22
sS'over'
p228
I27
sS'move'
p229
I28
sS"mcdonald's)"
p230
I28
sS'\xe2\x9a\xa1\xef\xb8\x8f'
p231
I28
sS'london'
p232
I28
sS'left'
p233
I28
sS'hell'
p234
I28
sS'cold'
p235
I28
sS'still'
p236
I26
sS'its'
p237
I27
sS'ima'
p238
I28
sS'thank'
p239
I28
sS'fit'
p240
I28
sS'la'
p241
I22
sS'somewhere'
p242
I28
sS'jailine'
p243
I28
sS'[pic]'
p244
I28
sS'better'
p245
I26
sS'405'
p246
I28
sS'"idk'
p247
I28
sS'choose'
p248
I28
sS'shiittt'
p249
I28
sS'orange'
p250
I28
sS'2014'
p251
I28
sS'bye'
p252
I26
sS'might'
p253
I27
sS'goodmorning'
p254
I27
sS'happened'
p255
I28
sS'then'
p256
I26
sS'them'
p257
I27
sS'good'
p258
I26
sS'somebody'
p259
I27
sS'yo'
p260
I28
sS'ya'
p261
I25
sS'safe'
p262
I28
sS'sarcastic'
p263
I28
sS'blessed'
p264
I28
sS'lunch'
p265
I28
sS'miando'
p266
I28
sS'slutty'
p267
I28
sS'tanktop'
p268
I28
sS'they'
p269
I19
sS'hands'
p270
I28
sS'not'
p271
I19
sS'now'
p272
I25
sS'tomfoolery'
p273
I28
sS'killed'
p274
I27
sS'haha\xe2\x80\x9d'
p275
I28
sS'name'
p276
I28
sS'sundays'
p277
I28
sS'always'
p278
I23
sS'ofreci\xc3\xb3'
p279
I28
sS'weather'
p280
I28
sS'calabasas'
p281
I28
sS'arrow'
p282
I28
sS'granted'
p283
I28
sS'found'
p284
I28
sS'mean'
p285
I28
sS'el'
p286
I26
sS'everyone'
p287
I27
sS'ee'
p288
I28
sS'hard'
p289
I28
sS'idea'
p290
I28
sS'clockwork'
p291
I28
sS'a1'
p292
I28
sS'our'
p293
I26
sS'girl'
p294
I27
sS'morning'
p295
I28
sS'insurance'
p296
I28
sS'out'
p297
I22
sS'rt'
p298
I28
sS'try'
p299
I28
sS'alcohol'
p300
I28
sS'driving'
p301
I28
sS'god'
p302
I28
sS'since'
p303
I28
sS'factory'
p304
I28
sS'looking'
p305
I27
sS'1.75'
p306
I28
sS'hacked'
p307
I28
sS'got'
p308
I23
sS'rn'
p309
I28
sS'cause'
p310
I27
sS'1654'
p311
I28
sS'ass'
p312
I28
sS'dodgers'
p313
I28
sS"you're"
p314
I28
sS'friday'
p315
I28
sS'-15'
p316
I28
sS'latest'
p317
I28
sS'ask'
p318
I27
sS'amigos'
p319
I28
sS'certified'
p320
I28
sS'care'
p321
I26
sS'ate'
p322
I27
sS'yard'
p323
I28
sS'desnuda'
p324
I28
sS'g'
p325
I28
sS'yup'
p326
I28
sS'days'
p327
I25
sS'times'
p328
I28
sS'thing'
p329
I27
sS'american'
p330
I28
sS'plane'
p331
I28
sS'w'
p332
I27
sS'(at'
p333
I28
sS'holanda'
p334
I28
sS'frequent'
p335
I28
sS'first'
p336
I28
sS'already'
p337
I28
sS'dont'
p338
I28
sS'feel'
p339
I28
sS'potter'
p340
I28
sS'sack'
p341
I28
sS'one'
p342
I26
sS'fucked'
p343
I28
sS'beethoven'
p344
I28
sS'done'
p345
I28
sS'long'
p346
I28
sS'vote'
p347
I28
sS'lucerne'
p348
I28
sS'miss'
p349
I27
sS'tomorrow'
p350
I26
sS"doesn't"
p351
I27
sS'guess'
p352
I28
sS'"'
p353
I28
sS'kuwtk'
p354
I28
sS'together'
p355
I27
sS'caught'
p356
I28
sS'girls'
p357
I27
sS'least'
p358
I28
sS'grow'
p359
I28
sS'anyone'
p360
I28
sS'their'
p361
I27
sS'2'
p362
I28
sS'too'
p363
I26
sS'arguing'
p364
I28
sS'shoppers'
p365
I28
sS'final'
p366
I28
sS'friend'
p367
I26
sS'tfl'
p368
I28
sS'solemnly'
p369
I28
sS'way'
p370
I28
sS'that'
p371
I19
sS'(\xe2\x80\xa6'
p372
I28
sS'gym'
p373
I28
sS'nobody'
p374
I28
sS'park'
p375
I28
sS'nigga'
p376
I26
sS'etsy'
p377
I28
sS'than'
p378
I28
sS'boyfriend'
p379
I28
sS'kind'
p380
I28
sS'lamborghini'
p381
I28
sS'lmao'
p382
I28
sS'tooth'
p383
I28
sS'double'
p384
I28
sS'gotta'
p385
I28
sS'turntable'
p386
I28
sS'bed'
p387
I27
sS'ebay'
p388
I28
sS'future'
p389
I28
sS'flame'
p390
I28
sS'supposed'
p391
I28
sS'sister'
p392
I28
sS'sophie'
p393
I28
sS'country'
p394
I28
sS'bet'
p395
I28
sS'and'
p396
I9
sS'boston'
p397
I28
sS'pass'
p398
I28
sS'mind'
p399
I28
sS'mateo'
p400
I28
sS'return'
p401
I28
sS'juice'
p402
I28
sS'say'
p403
I28
sS'siho'
p404
I28
sS'have'
p405
I19
sS'need'
p406
I25
sS'seen'
p407
I28
sS'paris'
p408
I28
sS'located?im'
p409
I28
sS'kevin'
p410
I28
sS'malti'
p411
I28
sS'lil'
p412
I28
sS'datsun'
p413
I28
sS'-'
p414
I25
sS'snow'
p415
I28
sS'trippen'
p416
I28
sS'on"'
p417
I28
sS'objectivo'
p418
I28
sS'hahahahahahhaha'
p419
I28
sS'take'
p420
I26
sS'babes'
p421
I28
sS'online'
p422
I27
sS'mis'
p423
I28
sS'channel'
p424
I28
sS'nivel'
p425
I28
sS'play'
p426
I27
sS'normal'
p427
I27
sS'aww'
p428
I28
sS'who'
p429
I26
sS'salmon'
p430
I28
sS'visitors'
p431
I28
sS'mouth'
p432
I27
sS'hide'
p433
I28
sS'mack'
p434
I28
sS'why'
p435
I24
sS'check'
p436
I28
sS'forever'
p437
I27
sS'cover'
p438
I27
sS'face'
p439
I28
sS'pipe'
p440
I28
sS'hi'
p441
I28
sS'talk'
p442
I28
sS"that's"
p443
I24
sS'away'
p444
I28
sS'actualidad'
p445
I28
sS'excision'
p446
I28
sS'tackles'
p447
I28
sS'show'
p448
I28
sS'symphony'
p449
I28
sS'pagarla'
p450
I28
sS'bring'
p451
I27
sS'large'
p452
I28
sS'nephew'
p453
I28
sS'chicken'
p454
I28
sS'feat'
p455
I28
sS'find'
p456
I26
sS'count'
p457
I28
sS'hyping'
p458
I28
sS'\xe2\x9c\x8b'
p459
I28
sS'\xe2\x9c\x8a'
p460
I27
sS'front'
p461
I28
sS'true'
p462
I28
sS'weekends'
p463
I28
sS'tiro'
p464
I28
sS'fans'
p465
I28
sS'should'
p466
I28
sS'terminal'
p467
I27
sS'yea'
p468
I27
sS'only'
p469
I27
sS'going'
p470
I23
sS'black'
p471
I27
sS'rick'
p472
I28
sS'pretty'
p473
I27
sS'sus'
p474
I26
sS'deerbaliktara'
p475
I28
sS'hope'
p476
I28
sS'estas'
p477
I28
sS'hip'
p478
I28
sS'do'
p479
I19
sS'his'
p480
I26
sS'sunglasses'
p481
I28
sS'dk'
p482
I28
sS'hungarian'
p483
I28
sS'get'
p484
I26
sS'dope'
p485
I27
sS'de'
p486
I26
sS'stop'
p487
I24
sS'bear'
p488
I28
sS'truly'
p489
I28
sS'"sorry'
p490
I28
sS'batter'
p491
I28
sS'wedding'
p492
I28
sS'banner'
p493
I28
sS'is'
p494
I7
sS'gray'
p495
I28
sS'regarding'
p496
I28
sS"tito's"
p497
I28
sS'state'
p498
I28
sS'posting'
p499
I28
sS'naked'
p500
I28
sS'bad'
p501
I28
sS'miles'
p502
I28
sS'she'
p503
I28
sS'kill'
p504
I28
sS'bought'
p505
I28
sS'where'
p506
I28
sS'xmas'
p507
I28
sS'alsina'
p508
I28
sS'city)'
p509
I28
sS'fair'
p510
I28
sS'10+'
p511
I28
sS'throwing'
p512
I28
sS'national'
p513
I28
sS'humans'
p514
I28
sS'see'
p515
I23
sS'are'
p516
I25
sS'best'
p517
I26
sS'situation'
p518
I28
sS'israeli'
p519
I28
sS'said'
p520
I26
sS'posiciones'
p521
I28
sS'camping'
p522
I28
sS'visiting'
p523
I28
sS'wow'
p524
I27
sS'juego'
p525
I28
sS'yeeeaaah'
p526
I28
sS'"oh'
p527
I28
sS'3'
p528
I28
sS'r'
p529
I28
sS'bruno'
p530
I28
sS'probably'
p531
I28
sS'reading'
p532
I28
sS'8ish'
p533
I28
sS'email'
p534
I28
sS'kissin'
p535
I28
sS'knowing'
p536
I28
sS'we'
p537
I20
sS'omg'
p538
I28
sS'august'
p539
I28
sS'wk'
p540
I28
sS'job'
p541
I28
sS'alec2279'
p542
I28
sS'coffee'
p543
I28
sS'merry'
p544
I28
sS'cousin'
p545
I27
sS'haveee'
p546
I28
sS'come'
p547
I28
sS'pissed'
p548
I28
sS'aqui'
p549
I28
sS'talented'
p550
I28
sS'brown'
p551
I28
sS'homee'
p552
I28
sS'many'
p553
I27
sS'taking'
p554
I27
sS'liters'
p555
I28
sS'against'
p556
I28
sS'una'
p557
I27
sS's'
p558
I28
sS'celebran'
p559
I28
sS'yelled'
p560
I28
sS'whole'
p561
I28
sS"can't"
p562
I23
sS'uno'
p563
I28
sS'"get'
p564
I28
sS'relevant'
p565
I28
sS'character'
p566
I28
sS'pop'
p567
I28
sS'pm'
p568
I28
sS'canyon'
p569
I28
sS'spotting'
p570
I28
sS'laugh'
p571
I28
sS'news'
p572
I28
sS'table'
p573
I28
sS'jays'
p574
I28
sS'tabla'
p575
I28
sS'most'
p576
I28
sS"aren't"
p577
I28
sS'described'
p578
I28
sS'voteaugust'
p579
I28
sS'look;)'
p580
I28
sS"it's"
p581
I25
sS'informed'
p582
I28
sS'been'
p583
I26
sS'much'
p584
I27
sS'damn'
p585
I25
sS'urghh'
p586
I28
sS'motherfuck'
p587
I28
sS'gaza'
p588
I28
sS'degrees'
p589
I28
sS'meeting'
p590
I28
sS'chela'
p591
I28
sS'>'
p592
I28
sS'life'
p593
I22
sS'flight'
p594
I28
sS'frontera'
p595
I28
sS'fire'
p596
I27
sS'olympic-mom'
p597
I28
sS"what's"
p598
I26
sS'blessing'
p599
I28
sS'finale'
p600
I28
sS'else'
p601
I28
sS'quitate'
p602
I28
sS'wake'
p603
I28
sS'hashtag'
p604
I28
sS'last'
p605
I28
sS'sad'
p606
I28
sS'those'
p607
I28
sS'chill'
p608
I28
sS'sound'
p609
I28
sS'tonight'
p610
I28
sS'soccer'
p611
I28
sS'buffy'
p612
I28
sS'survivor'
p613
I28
sS'talking'
p614
I28
sS'these'
p615
I26
sS'ghetto"'
p616
I28
sS'will'
p617
I23
sS'ugly'
p618
I27
sS'suppose'
p619
I28
sS'editorial'
p620
I28
sS'hahaha'
p621
I27
sS'fun'
p622
I28
sS'cats'
p623
I28
sS'voice'
p624
I27
sS'coolest'
p625
I28
sS'veronica'
p626
I28
sS'pray'
p627
I28
sS'showers'
p628
I28
sS'vape'
p629
I27
sS'prayer'
p630
I26
sS'it'
p631
I8
sS'tease'
p632
I28
sS'ecstasy'
p633
I28
sS'im'
p634
I27
sS'personal'
p635
I28
sS'in'
p636
I6
sS'ready'
p637
I27
sS'look"'
p638
I28
sS'wisely'
p639
I28
sS'merrier'
p640
I28
sS'if'
p641
I23
sS'funny'
p642
I27
sS'bars)'
p643
I28
sS'anymore'
p644
I28
sS'things'
p645
I28
sS'make'
p646
I27
sS'same'
p647
I25
sS'campus'
p648
I28
sS'food'
p649
I27
sS'empato'
p650
I28
sS'grand'
p651
I28
sS'9'
p652
I28
sS'party'
p653
I26
sS"9er's"
p654
I28
sS'week'
p655
I27
sS'uhm'
p656
I28
sS'again'
p657
I28
sS'hang'
p658
I28
sS'coachella'
p659
I28
sS'hand'
p660
I28
sS'fruit'
p661
I28
sS'padres'
p662
I28
sS'advertisement'
p663
I28
sS'jealous'
p664
I28
sS'opportunity'
p665
I28
sS'kid'
p666
I28
sS'off'
p667
I28
sS'center'
p668
I27
sS'i'
p669
I3
sS'charger'
p670
I28
sS'youre'
p671
I28
sS'well'
p672
I28
sS'anybody'
p673
I28
sS'thought'
p674
I28
sS'cheer'
p675
I28
sS'geriatrics'
p676
I28
sS'jersey'
p677
I28
sS'bottle'
p678
I28
sS'y'
p679
I27
sS'gift'
p680
I28
sS'the'
p681
I2
sS'bumping'
p682
I28
sS'commercials'
p683
I28
sS'meet'
p684
I27
sS'summer'
p685
I28
sS'helaeo'
p686
I28
sS'just'
p687
I15
sS'being'
p688
I26
sS'boot'
p689
I28
sS'liked'
p690
I28
sS'camp)'
p691
I28
sS'tennis'
p692
I28
sS'thanks'
p693
I26
sS'behind'
p694
I28
sS'touch'
p695
I28
sS'yes'
p696
I28
sS'yet'
p697
I28
sS'nuestro'
p698
I28
sS'ladies('
p699
I28
sS'campaign'
p700
I28
sS'bragging'
p701
I28
sS'thinking'
p702
I28
sS'had'
p703
I26
sS'day'
p704
I22
sS'lets'
p705
I27
sS'nicki'
p706
I28
sS'parents'
p707
I27
sS'attractive'
p708
I28
sS'citizen'
p709
I28
sS'has'
p710
I28
sS'ross'
p711
I28
sS'real'
p712
I27
sS'checking'
p713
I28
sS'one...lol'
p714
I28
sS'gonna'
p715
I28
sS'come\xe2\x98\xba'
p716
I28
sS'amy'
p717
I28
sS'game'
p718
I26
sS'pasaporte'
p719
I28
sS'traffic'
p720
I28
sS'know'
p721
I22
sS'mom'
p722
I27
sS'press'
p723
I28
sS'world'
p724
I26
sS'lady'
p725
I28
sS'lincoln'
p726
I28
sS'like'
p727
I17
sS'lost'
p728
I27
sS'kennedy'
p729
I28
sS'"he\'s'
p730
I28
sS'workshop'
p731
I28
sS't'
p732
I28
sS'security'
p733
I28
sS'harry'
p734
I28
sS'virginity'
p735
I28
sS'because'
p736
I26
sS'old'
p737
I28
sS"couldn't"
p738
I28
sS'deal'
p739
I28
sS'people'
p740
I24
sS'fucking'
p741
I23
sS'twitter'
p742
I27
sS'deflected'
p743
I28
sS'some'
p744
I27
sS'back'
p745
I28
sS'dead'
p746
I28
sS'snorins'
p747
I28
sS'usher'
p748
I28
sS'blazing'
p749
I28
sS'home'
p750
I27
sS'thinks'
p751
I28
sS'"2'
p752
I28
sS'trust'
p753
I28
sS'caribbean'
p754
I28
sS'for'
p755
I10
sS'absolutely'
p756
I28
sS'though'
p757
I28
sS'pep'
p758
I28
sS'ice'
p759
I27
sS'creative'
p760
I28
sS'everything'
p761
I28
sS'asking'
p762
I28
sS'chainz'
p763
I28
sS'platterwhat'
p764
I28
sS'christmas'
p765
I28
sS'be'
p766
I11
sS'football'
p767
I28
sS'squirrel'
p768
I28
sS'bc'
p769
I28
sS'how'
p770
I28
sS'leadership'
p771
I28
sS'santa'
p772
I28
sS'bs'
p773
I28
sS'yay'
p774
I28
sS'post'
p775
I27
sS'by'
p776
I25
sS'on'
p777
I12
sS'about'
p778
I20
sS'actual'
p779
I28
sS'would'
p780
I23
sS'wouldnt'
p781
I28
sS'oh'
p782
I27
sS'of'
p783
I16
sS'favorite'
p784
I27
sS'slayer'
p785
I28
sS'dinner'
p786
I27
sS'swear'
p787
I28
sS'afternoon'
p788
I27
sS'wanna'
p789
I27
sS'or'
p790
I26
sS'own'
p791
I28
sS'dude'
p792
I28
sS'within'
p793
I28
sS'commitment'
p794
I28
sS'usa'
p795
I28
sS'two'
p796
I26
sS'down'
p797
I26
sS'right'
p798
I26
sS'promise'
p799
I27
sS'female'
p800
I27
sS'actually'
p801
I28
sS'your'
p802
I21
sS'canal'
p803
I28
sS'her'
p804
I26
sS'weekend'
p805
I28
sS'apparently'
p806
I28
sS'there'
p807
I26
sS'hey'
p808
I27
sS'lol'
p809
I16
sS'lags'
p810
I28
sS'start'
p811
I27
sS'drank'
p812
I28
sS"we're"
p813
I28
sS'lot'
p814
I27
sS'brazilian'
p815
I28
sS'forward'
p816
I28
sS'living?"'
p817
I28
sS'bored'
p818
I28
sS'was'
p819
I19
sS'r.a'
p820
I28
sS'happy'
p821
I23
sS'930'
p822
I28
sS'yolo'
p823
I28
sS'an'
p824
I28
sS"i've"
p825
I28
sS'jewish'
p826
I28
sS'crown'
p827
I28
sS'believe'
p828
I28
sS'delayed'
p829
I28
sS'but'
p830
I23
sS'yeah'
p831
I28
sS'boys'
p832
I26
sS'heat'
p833
I28
sS'citlali'
p834
I28
sS'idgaf'
p835
I28
sS'trying'
p836
I27
sS'with'
p837
I16
sS'he'
p838
I26
sS't\xc4\xb1r\xc4\xb1s'
p839
I27
sS'pull'
p840
I28
sS'made'
p841
I28
sS'middle'
p842
I28
sS"wasn't"
p843
I27
sS'wish'
p844
I28
sS'up'
p845
I17
sS'us'
p846
I27
sS'ur'
p847
I27
sS'7:12'
p848
I28
sS'cake'
p849
I28
sS'faggot'
p850
I27
sS'fried'
p851
I28
sS'wakin'
p852
I28
sS'gone'
p853
I28
sS'4-7'
p854
I28
sS'freak'
p855
I28
sS'johnny'
p856
I27
sS'minaj'
p857
I28
sS'pic'
p858
I27
sS'am'
p859
I24
sS'israel'
p860
I28
sS'general'
p861
I28
sS'as'
p862
I27
sS'okayyy'
p863
I28
sS'at'
p864
I13
sS'slumped'
p865
I27
sS'girlfriend'
p866
I28
sS'annoying'
p867
I27
sS'happen'
p868
I27
sS'shit'
p869
I21
sS'cream'
p870
I27
sS'lyle'
p871
I28
sS'landon'
p872
I28
sS'no'
p873
I24
sS'sepulveda'
p874
I28
sS'nah'
p875
I28
sS'when'
p876
I25
sS'towers'
p877
I28
sS'other'
p878
I28
sS'5'
p879
I26
sS':)"'
p880
I28
sS'you'
p881
I9
sS'really'
p882
I25
sS'nice'
p883
I27
sS'/rap'
p884
I28
sS'tight'
p885
I28
sS'monday'
p886
I28
sS'kairos'
p887
I26
sS'class'
p888
I28
sS'welcome'
p889
I27
sS'problems'
p890
I28
sS'goooooood'
p891
I28
sS'tequila"'
p892
I28
sS"let's"
p893
I28
sS'town'
p894
I26
sS'meaning'
p895
I28
sS'flyboy'
p896
I28
sS'chris'
p897
I27
sS'friends'
p898
I27
sS'afford'
p899
I28
sS'lead'
p900
I28
sS'walked'
p901
I27
sS'u'
p902
I26
sS'time'
p903
I27
sS'approve'
p904
I28
sS"she's"
p905
I28
sS'deluxe'
p906
I28
sS'having'
p907
I28
sS'once'
p908
I28
s.