(dp0
S''
p1
I1
sS'all'
p2
I21
sS':)'
p3
I29
sS'dance'
p4
I29
sS'hats'
p5
I29
sS'stop\xe2\x80\x9d'
p6
I29
sS'andre'
p7
I29
sS'sleep'
p8
I28
sS'asian'
p9
I29
sS'skin'
p10
I29
sS'go'
p11
I18
sS'gossip'
p12
I29
sS'elites'
p13
I29
sS'chillin'
p14
I29
sS'looking'
p15
I29
sS'pedro'
p16
I29
sS'obamacare'
p17
I28
sS'airplay'
p18
I29
sS'blocking'
p19
I29
sS'to'
p20
I3
sS'finally'
p21
I29
sS'bike'
p22
I29
sS'tj'
p23
I29
sS'blaze'
p24
I29
sS'tf'
p25
I29
sS'sorry'
p26
I28
sS'ergo'
p27
I29
sS'saver'
p28
I29
sS'brown'
p29
I29
sS':o'
p30
I29
sS'smh'
p31
I28
sS'fav'
p32
I29
sS'fat'
p33
I29
sS'choice'
p34
I29
sS'facebook'
p35
I29
sS'jack'
p36
I29
sS'fall'
p37
I29
sS'drinking'
p38
I29
sS'bringing'
p39
I29
sS'wore'
p40
I29
sS'school'
p41
I26
sS'sumbody'
p42
I29
sS'did'
p43
I27
sS'button'
p44
I29
sS'list'
p45
I29
sS'leave'
p46
I29
sS'sand'
p47
I29
sS'race'
p48
I29
sS'round'
p49
I29
sS'clothes'
p50
I29
sS"i'll"
p51
I25
sS'neighborhood'
p52
I25
sS'tired'
p53
I28
sS'dealing'
p54
I29
sS'hating'
p55
I29
sS"linda's"
p56
I29
sS'waking'
p57
I29
sS'chem'
p58
I29
sS'even'
p59
I27
sS'what'
p60
I26
sS'checkers'
p61
I29
sS'chicago'
p62
I29
sS'waiting'
p63
I29
sS'targetingnsa'
p64
I29
sS'boobies.\xe2\x9d\xa4\xef\xb8\x8f'
p65
I29
sS'boothang'
p66
I29
sS'new'
p67
I24
sS'ever'
p68
I28
sS'full'
p69
I29
sS'shuttle'
p70
I29
sS'never'
p71
I25
sS'here'
p72
I28
sS'raided'
p73
I29
sS'hours'
p74
I29
sS'wild'
p75
I29
sS'let'
p76
I28
sS're-run'
p77
I29
sS'sing'
p78
I29
sS'wait'
p79
I29
sS'boy'
p80
I28
sS'great'
p81
I27
sS'lol'
p82
I20
sS'givin'
p83
I29
sS'wherever'
p84
I29
sS'copping'
p85
I29
sS'lakers'
p86
I29
sS'leaving'
p87
I29
sS'boo'
p88
I29
sS"would've"
p89
I28
sS'weird'
p90
I28
sS'roomie'
p91
I29
sS'love'
p92
I24
sS'family'
p93
I29
sS'win'
p94
I29
sS'brought'
p95
I29
sS'stupid...you'
p96
I29
sS'fake'
p97
I29
sS'market'
p98
I25
sS'use'
p99
I29
sS'from'
p100
I26
sS'working'
p101
I28
sS'&'
p102
I21
sS'aye'
p103
I29
sS'sweater'
p104
I29
sS'destination'
p105
I29
sS'visit'
p106
I29
sS'arms'
p107
I29
sS'next'
p108
I29
sS'live'
p109
I29
sS'call'
p110
I26
sS'seriously'
p111
I29
sS'until'
p112
I29
sS'today'
p113
I27
sS'more'
p114
I29
sS'relax'
p115
I29
sS'about'
p116
I27
sS'"mature"'
p117
I29
sS'phone'
p118
I28
sS'train'
p119
I29
sS'everywhere'
p120
I29
sS'adult'
p121
I29
sS'broke'
p122
I29
sS'hold'
p123
I28
sS'riders'
p124
I29
sS'must'
p125
I29
sS'me'
p126
I12
sS'keeping'
p127
I29
sS'room'
p128
I29
sS'hour'
p129
I27
sS'40'
p130
I29
sS'this'
p131
I19
sS'ride'
p132
I29
sS'work'
p133
I26
sS'cat'
p134
I28
sS'del'
p135
I29
sS'can'
p136
I26
sS'praise'
p137
I29
sS'growing'
p138
I29
sS'my'
p139
I6
sS'something'
p140
I29
sS'wana'
p141
I29
sS'embarrassing'
p142
I29
sS'piece'
p143
I29
sS'thirsty'
p144
I29
sS'give'
p145
I26
sS'spying'
p146
I29
sS'matinee'
p147
I29
sS"didn't"
p148
I28
sS'fuck'
p149
I27
sS'high'
p150
I28
sS'heels'
p151
I29
sS'dropped'
p152
I28
sS'want'
p153
I27
sS"bergdahl's"
p154
I29
sS'times'
p155
I29
sS'drama'
p156
I29
sS'needs'
p157
I29
sS'end'
p158
I29
sS'turn'
p159
I29
sS'means'
p160
I29
sS'stayed'
p161
I29
sS'how'
p162
I27
sS'hot'
p163
I29
sS'low'
p164
I29
sS'holidays'
p165
I29
sS'interview'
p166
I27
sS'nombre'
p167
I29
sS'beach'
p168
I29
sS'plans'
p169
I29
sS'attend'
p170
I29
sS'may'
p171
I29
sS'watch'
p172
I29
sS'after'
p173
I28
sS'fb'
p174
I29
sS'birthday'
p175
I27
sS'blood'
p176
I29
sS'coming'
p177
I27
sS'done\xe2\x9c\x94\xef\xb8\x8f'
p178
I29
sS'suck'
p179
I29
sS'obvi'
p180
I29
sS'grow'
p181
I27
sS'man'
p182
I28
sS'a'
p183
I7
sS'remember'
p184
I29
sS'tweeting'
p185
I29
sS'su'
p186
I29
sS'idc'
p187
I29
sS'hasta'
p188
I29
sS'jay\xe2\x9d\xa4\xef\xb8\x8f'
p189
I29
sS'so'
p190
I16
sS'haterade'
p191
I29
sS'2h:12m:26s'
p192
I29
sS'every'
p193
I29
sS'playing'
p194
I28
sS'"scrap"'
p195
I29
sS"that's"
p196
I26
sS'chicks'
p197
I28
sS'shoes'
p198
I29
sS"don't"
p199
I22
sS'over'
p200
I28
sS'ite'
p201
I29
sS'midnight'
p202
I29
sS'soon'
p203
I29
sS'attitude'
p204
I28
sS'including'
p205
I29
sS'looks'
p206
I27
sS'smart'
p207
I29
sS'still'
p208
I29
sS'mayor'
p209
I29
sS'warren'
p210
I29
sS'perfect'
p211
I29
sS'thank'
p212
I25
sS'pays'
p213
I29
sS'la'
p214
I28
sS'lo'
p215
I29
sS'out-bitch'
p216
I29
sS'vente'
p217
I29
sS'better'
p218
I28
sS'>>>'
p219
I29
sS'hometown'
p220
I29
sS'main'
p221
I29
sS'2013'
p222
I29
sS'dad'
p223
I28
sS'then'
p224
I27
sS'coffee'
p225
I28
sS'good'
p226
I24
sS'sucking'
p227
I29
sS'yo'
p228
I29
sS'food'
p229
I28
sS'(harbor'
p230
I24
sS'starbucks'
p231
I28
sS'they'
p232
I26
sS'not'
p233
I20
sS'okk'
p234
I29
sS'now'
p235
I26
sS'day'
p236
I28
sS'marcus'
p237
I28
sS'name'
p238
I29
sS'pregnant'
p239
I29
sS'always'
p240
I28
sS'drop'
p241
I29
sS'wendyyyyyyy'
p242
I29
sS'sauron'
p243
I29
sS'cute'
p244
I29
sS'rock'
p245
I29
sS'15hr'
p246
I29
sS'promise'
p247
I29
sS'friendship'
p248
I29
sS'mean'
p249
I29
sS'em'
p250
I27
sS'everyone'
p251
I29
sS'fired'
p252
I29
sS'doing'
p253
I28
sS'house'
p254
I29
sS'energy'
p255
I29
sS'yeah'
p256
I28
sS'used'
p257
I29
sS'catching'
p258
I29
sS'pahahah'
p259
I29
sS'year'
p260
I25
sS'our'
p261
I28
sS'ew'
p262
I28
sS'bay'
p263
I29
sS'todo'
p264
I29
sS'ep'
p265
I29
sS'out'
p266
I25
sS'canada'
p267
I29
sS'living'
p268
I29
sS'rey'
p269
I29
sS'missed'
p270
I29
sS'driving'
p271
I28
sS'god'
p272
I29
sS'4pm'
p273
I29
sS'vannena'
p274
I29
sS'&\xe2\x80\xa6'
p275
I28
sS'stuff'
p276
I29
sS'internet'
p277
I29
sS'got'
p278
I22
sS'rn'
p279
I27
sS'cause'
p280
I29
sS'januany'
p281
I29
sS'math'
p282
I29
sS'shows'
p283
I29
sS'ass'
p284
I28
sS'bye'
p285
I29
sS'city'
p286
I24
sS'fave'
p287
I29
sS'guess'
p288
I29
sS'free'
p289
I29
sS'quite'
p290
I29
sS'release'
p291
I29
sS'appointments'
p292
I29
sS'vets'
p293
I29
sS'disneyland'
p294
I29
sS'put'
p295
I29
sS'wanted'
p296
I28
sS'beginning'
p297
I29
sS'drowning'
p298
I29
sS'miss'
p299
I29
sS'starts'
p300
I29
sS'punk'
p301
I29
sS'days'
p302
I27
sS'keep'
p303
I29
sS'silicon'
p304
I29
sS'thing'
p305
I27
sS'place'
p306
I28
sS'w'
p307
I29
sS"it'll"
p308
I29
sS'think'
p309
I26
sS'south'
p310
I28
sS'first'
p311
I29
sS'already'
p312
I28
sS'xo'
p313
I29
sS'dina'
p314
I28
sS'feel'
p315
I28
sS'diana'
p316
I29
sS'frap'
p317
I29
sS'slayin'
p318
I29
sS'one'
p319
I27
sS'bitch'
p320
I28
sS'another'
p321
I27
sS'vote'
p322
I29
sS'pokemon'
p323
I28
sS'tomorrow'
p324
I25
sS"you're"
p325
I27
sS'little'
p326
I28
sS'sadly'
p327
I29
sS'girls'
p328
I27
sS'their'
p329
I29
sS'fml'
p330
I29
sS'2'
p331
I29
sS'too'
p332
I28
sS'siam'
p333
I28
sS'john'
p334
I29
sS'headache'
p335
I29
sS'that'
p336
I19
sS'season'
p337
I29
sS'took'
p338
I29
sS'released'
p339
I29
sS'because'
p340
I28
sS'western'
p341
I28
sS'thai'
p342
I29
sS'$5'
p343
I28
sS'angel\xe2\x80\x9di'
p344
I29
sS'obama'
p345
I28
sS'kind'
p346
I29
sS'12'
p347
I29
sS'15'
p348
I28
sS'17'
p349
I29
sS'19'
p350
I29
sS'gotta'
p351
I29
sS'bed'
p352
I28
sS'victorias'
p353
I29
sS'sweden'
p354
I29
sS'classes'
p355
I29
sS'karaoke'
p356
I29
sS'were'
p357
I27
sS'cards'
p358
I29
sS'asleep'
p359
I29
sS'feeling'
p360
I29
sS'ousted'
p361
I29
sS'...feel'
p362
I29
sS'and'
p363
I15
sS'rad'
p364
I29
sS'real\xe2\x80\x9d'
p365
I29
sS'marymount'
p366
I29
sS'angel'
p367
I29
sS'sal'
p368
I29
sS'mind'
p369
I29
sS'spelled'
p370
I29
sS'tonight'
p371
I28
sS'woah'
p372
I29
sS'say'
p373
I28
sS'anytime'
p374
I29
sS'have'
p375
I16
sS'lurking'
p376
I29
sS'need'
p377
I27
sS'mins'
p378
I29
sS'apparently'
p379
I29
sS'any'
p380
I28
sS'congrats'
p381
I29
sS'trapped'
p382
I29
sS'-'
p383
I25
sS'261st'
p384
I29
sS'causing'
p385
I28
sS'footlong'
p386
I29
sS'destroy'
p387
I29
sS'mayer'
p388
I29
sS'buff'
p389
I29
sS'2016'
p390
I29
sS'sure'
p391
I28
sS'pain'
p392
I29
sS'healthcare'
p393
I29
sS'buffet'
p394
I29
sS'plan'
p395
I29
sS'tall'
p396
I28
sS'nothing'
p397
I29
sS'why'
p398
I27
sS'dummy'
p399
I29
sS'episode'
p400
I29
sS'sometimes'
p401
I28
sS'drive'
p402
I29
sS'face'
p403
I29
sS'looked'
p404
I29
sS'irsbanghazifast'
p405
I29
sS'typical'
p406
I29
sS'fact'
p407
I29
sS'saying'
p408
I29
sS'brenda'
p409
I29
sS'show'
p410
I29
sS'scoreboard'
p411
I29
sS'pops'
p412
I29
sS'lmao\xe2\x80\x9d'
p413
I29
sS'radio'
p414
I29
sS'realizing'
p415
I29
sS'aint'
p416
I29
sS'88.9fm'
p417
I29
sS'justice'
p418
I29
sS'with'
p419
I16
sS"sparks'"
p420
I29
sS'3'
p421
I29
sS'should'
p422
I26
sS'only'
p423
I28
sS'going'
p424
I25
sS'pretty'
p425
I28
sS'$1'
p426
I29
sS'hope'
p427
I29
sS'wearing'
p428
I29
sS'do'
p429
I27
sS'handle'
p430
I29
sS'get'
p431
I21
sS'beat'
p432
I27
sS'between'
p433
I29
sS'stop'
p434
I29
sS'state'
p435
I29
sS'basement'
p436
I29
sS'during'
p437
I29
sS'chips'
p438
I29
sS'emails'
p439
I29
sS'kardashians'
p440
I29
sS'earl'
p441
I29
sS'gray'
p442
I29
sS'take.\xe2\x80\x9d'
p443
I29
sS'cry'
p444
I29
sS'9'
p445
I29
sS'calling'
p446
I29
sS'yayyyy'
p447
I29
sS'medias'
p448
I29
sS'bad'
p449
I29
sS'miles'
p450
I29
sS'she'
p451
I27
sS'lmfaoooooo'
p452
I29
sS'switzerland'
p453
I28
sS"won't"
p454
I29
sS'where'
p455
I27
sS'costume'
p456
I28
sS"y'all"
p457
I28
sS'lyft'
p458
I29
sS'burying'
p459
I29
sS'w/'
p460
I29
sS'see'
p461
I26
sS'college'
p462
I28
sS'are'
p463
I22
sS'surgery'
p464
I29
sS'ur'
p465
I29
sS'packed'
p466
I29
sS'exam'
p467
I29
sS'said'
p468
I29
sS'stats'
p469
I29
sS'visiting'
p470
I29
sS'away'
p471
I29
sS'irs'
p472
I28
sS'please'
p473
I26
sS'favor'
p474
I29
sS'enough'
p475
I28
sS'hopefully'
p476
I29
sS'blocked'
p477
I29
sS'livation'
p478
I29
sS'we'
p479
I23
sS'cabrera'
p480
I29
sS'missing'
p481
I29
sS'yumm'
p482
I29
sS'outfit'
p483
I29
sS'job'
p484
I27
sS'wtf'
p485
I29
sS'coma'
p486
I29
sS'cousin'
p487
I29
sS'ahahahahaha'
p488
I29
sS'come'
p489
I26
sS'"hate'
p490
I29
sS'hahaha'
p491
I29
sS'last'
p492
I27
sS'ill'
p493
I29
sS'april'
p494
I29
sS'admit'
p495
I29
sS'whole'
p496
I29
sS"can't"
p497
I26
sS'duty'
p498
I29
sS'liked'
p499
I29
sS'\xe2\x98\xba'
p500
I29
sS'live"'
p501
I29
sS'drunk'
p502
I29
sS'simple'
p503
I28
sS'sweet'
p504
I28
sS'walk'
p505
I29
sS'incest'
p506
I29
sS'siam)'
p507
I28
sS'news'
p508
I29
sS'fucker'
p509
I29
sS'victims?bergdahl-the-traitor'
p510
I29
sS'homework...not'
p511
I29
sS'tiene'
p512
I29
sS'save'
p513
I29
sS'cycling'
p514
I29
sS"it's"
p515
I26
sS'javi'
p516
I29
sS'add'
p517
I29
sS'been'
p518
I27
sS'secret'
p519
I29
sS'dont'
p520
I29
sS'mars'
p521
I29
sS'life'
p522
I25
sS'pic'
p523
I29
sS'families'
p524
I29
sS'sore'
p525
I29
sS'gay'
p526
I29
sS"what's"
p527
I29
sS'citizen'
p528
I29
sS'verrr'
p529
I29
sS'else'
p530
I29
sS'maps'
p531
I29
sS'finished'
p532
I28
sS'understand'
p533
I29
sS'kxlu'
p534
I29
sS'google'
p535
I29
sS'chill'
p536
I29
sS'homes'
p537
I29
sS'myself'
p538
I29
sS'holiday'
p539
I29
sS'look'
p540
I28
sS'talking'
p541
I29
sS'these'
p542
I29
sS'worried'
p543
I29
sS'harder'
p544
I29
sS'rat'
p545
I29
sS'choices'
p546
I28
sS'will'
p547
I27
sS'while'
p548
I29
sS'gna'
p549
I29
sS'pudding'
p550
I29
sS'dude'
p551
I29
sS'fun'
p552
I28
sS'pack'
p553
I29
sS'is'
p554
I11
sS'it'
p555
I14
sS'ducks'
p556
I29
sS'-sage'
p557
I29
sS'someone'
p558
I29
sS'im'
p559
I29
sS'dems'
p560
I29
sS'in'
p561
I8
sS'ready'
p562
I28
sS'wreck'
p563
I29
sS'if'
p564
I23
sS'chauffeur'
p565
I29
sS'funny'
p566
I29
sS'-___-'
p567
I29
sS'doctor'
p568
I29
sS'pay'
p569
I29
sS'make'
p570
I28
sS'same'
p571
I28
sS'check'
p572
I29
sS'poetic'
p573
I29
sS'split'
p574
I29
sS'lite'
p575
I29
sS'practice>'
p576
I29
sS'week'
p577
I29
sS'ball'
p578
I29
sS'sched'
p579
I29
sS'fatty'
p580
I29
sS'hahahhahahah'
p581
I29
sS'social'
p582
I29
sS'yesterday'
p583
I28
sS'evil'
p584
I29
sS'1-6'
p585
I29
sS'moment'
p586
I29
sS'intended'
p587
I29
sS'fucked'
p588
I29
sS"i'm"
p589
I10
sS'kid'
p590
I29
sS'//'
p591
I29
sS'dark'
p592
I29
sS'off'
p593
I27
sS'lunch'
p594
I29
sS'i'
p595
I2
sS'try'
p596
I29
sS'anybody'
p597
I29
sS'analysis'
p598
I29
sS'person'
p599
I28
sS'comes'
p600
I27
sS'san'
p601
I29
sS'the'
p602
I5
sS'musical'
p603
I29
sS'3pm'
p604
I29
sS'things'
p605
I29
sS"couldn't"
p606
I29
sS'pussy'
p607
I29
sS'just'
p608
I20
sS'gunna'
p609
I29
sS'yearrrr'
p610
I29
sS'boutta'
p611
I29
sS'judge'
p612
I29
sS'thanks'
p613
I28
sS'followed'
p614
I29
sS'yes'
p615
I28
sS'reality'
p616
I29
sS'yet'
p617
I27
sS'blow'
p618
I29
sS'republican'
p619
I29
sS'cup'
p620
I29
sS'point'
p621
I29
sS'had'
p622
I29
sS'cuz'
p623
I29
sS'handy'
p624
I29
sS'lets'
p625
I28
sS'4'
p626
I29
sS'easy'
p627
I25
sS'starbucks)'
p628
I26
sS'as'
p629
I29
sS'has'
p630
I27
sS'homework'
p631
I29
sS'real'
p632
I29
sS'soliloquy'
p633
I29
sS'australia'
p634
I29
sS'easily'
p635
I29
sS'twats'
p636
I29
sS'gonna'
p637
I29
sS'early'
p638
I28
sS'game'
p639
I28
sS'five'
p640
I29
sS'know'
p641
I25
sS'mom'
p642
I29
sS'la/sf/hmb'
p643
I29
sS'projects'
p644
I29
sS'shoulder'
p645
I29
sS'like'
p646
I17
sS'lost'
p647
I29
sS'furiouskilling'
p648
I29
sS'godin'
p649
I29
sS'remind'
p650
I29
sS'night'
p651
I28
sS'works'
p652
I28
sS'cancelled'
p653
I29
sS'nigga'
p654
I25
sS'old'
p655
I26
sS'innombrable'
p656
I29
sS'people'
p657
I26
sS'fucking'
p658
I29
sS'scared'
p659
I29
sS'1st'
p660
I29
sS'some'
p661
I26
sS'back'
p662
I20
sS'oh'
p663
I29
sS'niggs'
p664
I29
sS'home'
p665
I26
sS'liking'
p666
I29
sS'finna'
p667
I29
sS'for'
p668
I14
sS'presh'
p669
I29
sS'best'
p670
I29
sS'wrong'
p671
I29
sS'everything'
p672
I29
sS'4/20'
p673
I29
sS'"boss'
p674
I29
sS'911'
p675
I29
sS'be'
p676
I18
sS'bf'
p677
I29
sS'who'
p678
I29
sS'sprint'
p679
I29
sS'lmfao'
p680
I29
sS'corn'
p681
I28
sS'costumes'
p682
I29
sS'paid'
p683
I29
sS'bs'
p684
I29
sS'eye'
p685
I29
sS';)'
p686
I29
sS'by'
p687
I29
sS'on'
p688
I13
sS'sister'
p689
I27
sS':-)'
p690
I29
sS'would'
p691
I27
sS'getting'
p692
I27
sS'of'
p693
I18
sS'spilled'
p694
I29
sS'iced'
p695
I29
sS'wrinkles'
p696
I29
sS'angeles'
p697
I29
sS'dinner'
p698
I29
sS'passion"'
p699
I29
sS'stoked'
p700
I29
sS'islands'
p701
I29
sS'or'
p702
I28
sS'block'
p703
I29
sS'facetime'
p704
I28
sS'seeing'
p705
I29
sS'whats'
p706
I29
sS'keeps'
p707
I29
sS'nsa'
p708
I29
sS'into'
p709
I29
sS'two'
p710
I29
sS'down'
p711
I29
sS'momma'
p712
I29
sS'right'
p713
I26
sS'champ'
p714
I29
sS'pairs'
p715
I29
sS'lady"'
p716
I29
sS'your'
p717
I24
sS'stare'
p718
I29
sS'omfg'
p719
I29
sS'her'
p720
I27
sS'area'
p721
I29
sS'weekend'
p722
I29
sS'there'
p723
I26
sS'>>>>'
p724
I29
sS'ca)'
p725
I24
sS'long'
p726
I28
sS'class'
p727
I28
sS'lmfaooo'
p728
I28
sS'los'
p729
I29
sS"we're"
p730
I28
sS'way'
p731
I26
sS'worst'
p732
I29
sS'spas'
p733
I29
sS'valley'
p734
I29
sS'was'
p735
I25
sS'fish'
p736
I29
sS'happy'
p737
I24
sS'homeboys'
p738
I29
sS'buy'
p739
I29
sS'invite'
p740
I28
sS"i've"
p741
I29
sS'hr'
p742
I29
sS'"that\'s'
p743
I29
sS'bitches'
p744
I29
sS'but'
p745
I22
sS'hi'
p746
I29
sS'hear'
p747
I29
sS'true'
p748
I28
sS'haitian'
p749
I29
sS'he'
p750
I26
sS"they're"
p751
I29
sS'made'
p752
I26
sS'happen'
p753
I29
sS"wasn't"
p754
I29
sS'wish'
p755
I29
sS'bucket'
p756
I29
sS'up'
p757
I18
sS'us'
p758
I29
sS'tell'
p759
I28
sS'record'
p760
I29
sS'uh'
p761
I29
sS'boards'
p762
I29
sS'problem'
p763
I27
sS'daddy'
p764
I29
sS'fightiiiiinnnn'
p765
I29
sS'bath'
p766
I29
sS'laugh'
p767
I29
sS'5yr'
p768
I29
sS'liberal'
p769
I29
sS'af'
p770
I29
sS'forgot'
p771
I28
sS'am'
p772
I27
sS'vans'
p773
I29
sS"you've"
p774
I29
sS'an'
p775
I24
sS'meanwhile'
p776
I29
sS'tshirt'
p777
I29
sS'gemini'
p778
I29
sS'tasty'
p779
I26
sS'at'
p780
I9
sS'haaaaaa'
p781
I29
sS'mrs'
p782
I29
sS'girl'
p783
I27
sS'shit'
p784
I27
sS'again'
p785
I27
sS't-2'
p786
I29
sS'beyond'
p787
I29
sS'aunts'
p788
I29
sS'no'
p789
I25
sS'when'
p790
I21
sS'34.33'
p791
I29
sS'graduate'
p792
I29
sS'beverage'
p793
I29
sS'5'
p794
I28
sS'sick'
p795
I28
sS'you'
p796
I4
sS'really'
p797
I27
sS'nice'
p798
I29
sS'stat'
p799
I29
sS'hey'
p800
I29
sS'monday'
p801
I29
sS"o'clock"
p802
I29
sS'teeth'
p803
I29
sS'problems'
p804
I28
sS'stay'
p805
I28
sS'framily'
p806
I29
sS'chance'
p807
I28
sS"she's"
p808
I26
sS'friends'
p809
I29
sS'lana'
p810
I29
sS'chords'
p811
I29
sS'odds'
p812
I29
sS'together'
p813
I29
sS'waxing'
p814
I29
sS'fresh'
p815
I25
sS'u'
p816
I29
sS'honeyboba'
p817
I29
sS'time'
p818
I20
sS'alright'
p819
I29
sS"ain't"
p820
I27
sS'dehydrated'
p821
I29
sS'starting'
p822
I29
s.