(dp0
S''
p1
I1
sS'khalil'
p2
I76
sS'copy'
p3
I76
sS'ioane'
p4
I76
sS'better)'
p5
I76
sS'sleep'
p6
I70
sS'asian'
p7
I76
sS'hating'
p8
I76
sS'hate'
p9
I57
sS'chili'
p10
I76
sS'skeleton'
p11
I76
sS'whose'
p12
I76
sS'swag'
p13
I76
sS'pedro'
p14
I37
sS'buddy'
p15
I76
sS'aug'
p16
I76
sS'powderpuff'
p17
I76
sS'ayyyyyyyyyy'
p18
I76
sS'tweet'
p19
I74
sS'excited,90732\n431995600737800192,mewmatt05,2014-02-08'
p20
I76
sS'presents'
p21
I76
sS'under'
p22
I73
sS'teaching'
p23
I72
sS'sorry'
p24
I74
sS'worth'
p25
I76
sS'saves'
p26
I76
sS'blanket'
p27
I76
sS'smack'
p28
I75
sS'every'
p29
I65
sS'jack'
p30
I76
sS'tickets'
p31
I76
sS'5.\xe2\x80\x9d'
p32
I76
sS'school'
p33
I58
sS'bestfriend'
p34
I75
sS'prize'
p35
I76
sS'broiler'
p36
I74
sS'wednesday'
p37
I76
sS'correct'
p38
I76
sS'casinos'
p39
I76
sS'time"'
p40
I76
sS'definafely'
p41
I76
sS'heading'
p42
I76
sS'clothes'
p43
I75
sS'"all'
p44
I76
sS'leventis'
p45
I76
sS'tired'
p46
I72
sS'hanging'
p47
I76
sS'bacon'
p48
I76
sS'direct'
p49
I74
sS'nail'
p50
I75
sS'second'
p51
I75
sS'street'
p52
I76
sS'tommy-'
p53
I76
sS"whale's"
p54
I76
sS'chem'
p55
I76
sS'others)'
p56
I76
sS'thinkrisps'
p57
I76
sS'even'
p58
I48
sS'talagaluhhh'
p59
I76
sS'fun...bye'
p60
I76
sS"bringin'"
p61
I76
sS'+'
p62
I75
sS'selected'
p63
I76
sS'contributed'
p64
I76
sS'anaheim.\xe2\x80\x9d'
p65
I76
sS'14:23:26.0,33.75505864,-118.29583291,2963,2'
p66
I76
sS'new'
p67
I57
sS'ever'
p68
I60
sS'told'
p69
I71
sS'specialist'
p70
I76
sS'kicked'
p71
I75
sS'dahm'
p72
I76
sS'alive!!"'
p73
I76
sS'never'
p74
I54
sS'meh'
p75
I76
sS'here'
p76
I46
sS"seabass's"
p77
I76
sS'\xe2\x9d\xa4\xef\xb8\x8f'
p78
I68
sS'bar?"there\'s'
p79
I76
sS'pinterestization'
p80
I76
sS'active'
p81
I76
sS'100'
p82
I76
sS"aren't"
p83
I75
sS'prob;)'
p84
I76
sS'kids'
p85
I71
sS'daughter'
p86
I76
sS'13:39:06.0,33.75631874,-118.29918902,2963,just'
p87
I76
sS'jams'
p88
I76
sS'stevie'
p89
I76
sS'employees'
p90
I72
sS'ignoring'
p91
I76
sS"i'd"
p92
I74
sS'ako'
p93
I76
sS'smoke'
p94
I74
sS"i'm"
p95
I14
sS'hundley'
p96
I76
sS'changer'
p97
I75
sS'ake'
p98
I76
sS'eyebrows'
p99
I76
sS'golden'
p100
I75
sS'fantastic'
p101
I44
sS'wassup'
p102
I76
sS'spooky'
p103
I76
sS'it..like'
p104
I76
sS'feelings'
p105
I76
sS'bro'
p106
I70
sS'smacked'
p107
I76
sS'insta'
p108
I76
sS'auditing'
p109
I76
sS"sakurai's"
p110
I76
sS'"she\'s'
p111
I76
sS'hahahhah'
p112
I76
sS'plow'
p113
I74
sS'would'
p114
I65
sS'sweater'
p115
I76
sS'coins'
p116
I75
sS'slogans'
p117
I76
sS'cali'
p118
I76
sS'music'
p119
I71
sS'calm'
p120
I76
sS'cala'
p121
I76
sS'tryin'
p122
I76
sS'type'
p123
I72
sS'until'
p124
I74
sS'abusing'
p125
I76
sS'gooooood'
p126
I76
sS'females'
p127
I76
sS'posting'
p128
I76
sS'holy'
p129
I73
sS'relax'
p130
I76
sS'schroeder'
p131
I76
sS'suckstosuck'
p132
I76
sS'haha'
p133
I59
sS'award'
p134
I76
sS'it'
p135
I20
sS'warn'
p136
I76
sS'phone'
p137
I74
sS'warm'
p138
I75
sS'adult'
p139
I76
sS'lord'
p140
I76
sS'hold'
p141
I75
sS'striving'
p142
I76
sS'shoot'
p143
I76
sS'tnt'
p144
I76
sS'1993'
p145
I76
sS'join'
p146
I76
sS'room'
p147
I76
sS'gasolina'
p148
I76
sS'ml'
p149
I76
sS'mo'
p150
I75
sS'work'
p151
I32
sS'dodo'
p152
I76
sS'cant'
p153
I73
sS'entertained'
p154
I76
sS'movies'
p155
I74
sS'cuddle'
p156
I75
sS'mechanic'
p157
I76
sS'my'
p158
I6
sS'fakie'
p159
I76
sS'triple'
p160
I76
sS'give'
p161
I70
sS'line\xe2\x9c\x8f'
p162
I76
sS'homie'
p163
I74
sS'want'
p164
I66
sS'keep'
p165
I72
sS'hoe'
p166
I75
sS'end'
p167
I73
sS'turn'
p168
I70
sS'complaining'
p169
I75
sS'sitting'
p170
I75
sS'post-volleyball'
p171
I76
sS'how'
p172
I48
sS'amazing'
p173
I70
sS'disappear'
p174
I76
sS'answer'
p175
I75
sS'beach'
p176
I73
sS'night.....,90731\n479012880637898752,rosio_xo,2014-06-17'
p177
I76
sS'poker'
p178
I76
sS'fever'
p179
I75
sS'beauty'
p180
I76
sS'lak'
p181
I76
sS'bday'
p182
I74
sS'insecure'
p183
I76
sS'after'
p184
I61
sS'\xe2\x98\x95\xef\xb8\x8f\xe2\x98\xba\xef\xb8\x8f'
p185
I76
sS'wrong'
p186
I75
sS'lay'
p187
I75
sS'nate'
p188
I76
sS'president'
p189
I76
sS"they're"
p190
I74
sS'horchata'
p191
I76
sS'danny'
p192
I76
sS'attempt'
p193
I76
sS'padre'
p194
I76
sS'third'
p195
I74
sS'innout'
p196
I76
sS'appreciate'
p197
I76
sS'lost'
p198
I71
sS'cigarettes'
p199
I75
sS'18th'
p200
I76
sS'green'
p201
I75
sS'jungle'
p202
I76
sS'goodbye'
p203
I75
sS'keeps'
p204
I75
sS'worst'
p205
I73
sS'order'
p206
I76
sS'wine'
p207
I76
sS'fifa'
p208
I76
sS'office'
p209
I74
sS'devote'
p210
I76
sS'over'
p211
I64
sS'fam'
p212
I76
sS'satisfied'
p213
I76
sS'fab'
p214
I76
sS'london'
p215
I76
sS'ma\xc3\xb1ana'
p216
I76
sS'hopeless"'
p217
I76
sS'mayor'
p218
I75
sS'before'
p219
I72
sS'ima'
p220
I75
sS'fit'
p221
I76
sS'rescheduled'
p222
I76
sS'personal'
p223
I76
sS'highlights'
p224
I76
sS'fix'
p225
I75
sS'expectations'
p226
I76
sS'writing'
p227
I74
sS'better'
p228
I65
sS'dedicate'
p229
I76
sS'\xe0\xb9\x80\xe0\xb8\x97\xe0\xb9\x88\xe0\xb8\x99\xe0\xb8\xb0\xe0\xb8\x99\xe0\xb9\x89\xe0\xb8\xad\xe0\xb8\x87'
p230
I76
sS'weeks'
p231
I75
sS'cred'
p232
I76
sS'then'
p233
I66
sS'them'
p234
I57
sS',90731\n462101077303648256,miggstuhh69_,2014-05-02'
p235
I76
sS'workout'
p236
I75
sS'safe'
p237
I74
sS'break'
p238
I71
sS'bang'
p239
I75
sS'they'
p240
I42
sS'one\xe2\x9d\xa4'
p241
I76
sS'bank'
p242
I74
sS'meat'
p243
I75
sS'pbr'
p244
I76
sS'l'
p245
I76
sS'"fix"'
p246
I76
sS'each'
p247
I75
sS'volcano'
p248
I76
sS'went'
p249
I74
sS'mamash'
p250
I76
sS'side'
p251
I76
sS'carlos'
p252
I76
sS'mean'
p253
I70
sS'lifted'
p254
I76
sS'02:03:01.0,33.75338302,-118.30873693,2963,my'
p255
I76
sS'pizzzaaaaaa'
p256
I76
sS'series'
p257
I74
sS'turnin'
p258
I76
sS'allah'
p259
I76
sS'celebrating'
p260
I75
sS'taught'
p261
I76
sS'forgot'
p262
I73
sS'2day'
p263
I76
sS'saturday'
p264
I71
sS'whip'
p265
I75
sS'rt'
p266
I73
sS'whining'
p267
I76
sS'network'
p268
I76
sS'driving'
p269
I71
sS'rs'
p270
I76
sS'god'
p271
I66
sS'kawhi'
p272
I76
sS'diesel'
p273
I76
sS'tomorrow'
p274
I66
sS'content'
p275
I74
sS're'
p276
I76
sS'laid'
p277
I76
sS'daniel'
p278
I76
sS'(1090'
p279
I76
sS'smh'
p280
I73
sS'got'
p281
I37
sS'rn'
p282
I63
sS'day"'
p283
I76
sS'independence'
p284
I75
sS'inhabitants'
p285
I76
sS'turning'
p286
I76
sS'cutest'
p287
I76
sS"doesn't"
p288
I66
sS'fave'
p289
I76
sS'free'
p290
I69
sS'cabrillo'
p291
I76
sS'06:38:13.0,33.75322409,-118.30810377,2963,almost'
p292
I76
sS'struggle'
p293
I75
sS'wanted'
p294
I75
sS'strats'
p295
I76
sS'mvp'
p296
I76
sS'accts'
p297
I76
sS'ate'
p298
I76
sS'starts'
p299
I75
sS'messages'
p300
I76
sS'days'
p301
I69
sS'outfits'
p302
I76
sS'festival'
p303
I76
sS'"no'
p304
I76
sS"today's"
p305
I75
sS'soda'
p306
I76
sS'can\xe2\x80\x99t'
p307
I76
sS'moving'
p308
I76
sS'(at'
p309
I61
sS'fuckin'
p310
I71
sS'cleaning'
p311
I76
sS'already'
p312
I66
sS'characters'
p313
I76
sS'nhl'
p314
I75
sS'foshoe'
p315
I76
sS'fantasy'
p316
I76
sS'another'
p317
I72
sS'comin'
p318
I76
sS'ballin'
p319
I75
sS'hood'
p320
I75
sS'littlw'
p321
I76
sS'movie..now'
p322
I76
sS'basketball'
p323
I76
sS'service'
p324
I76
sS'top'
p325
I74
sS'hawks'
p326
I76
sS'girls'
p327
I73
sS'vagina'
p328
I76
sS'stack'
p329
I76
sS'needed'
p330
I75
sS'jamba'
p331
I73
sS'zaslavsky'
p332
I76
sS'dumbass'
p333
I76
sS'too'
p334
I42
sS'legs'
p335
I72
sS'listen'
p336
I75
sS'hangout'
p337
I74
sS'emblem'
p338
I76
sS'happily'
p339
I76
sS'gym'
p340
I74
sS'took'
p341
I70
sS'trippy'
p342
I76
sS'wisdom'
p343
I76
sS'western'
p344
I71
sS'cereal'
p345
I76
sS'nahh'
p346
I76
sS'character'
p347
I76
sS'0-14'
p348
I76
sS'target'
p349
I76
sS'roles'
p350
I76
sS'fairytale'
p351
I76
sS"mother's"
p352
I76
sS'scenes'
p353
I76
sS'shower'
p354
I74
sS'matter'
p355
I75
sS'fabulous'
p356
I76
sS'flame'
p357
I74
sS'branch)'
p358
I76
sS'iron'
p359
I74
sS'hottie'
p360
I76
sS'feeling'
p361
I70
sS'mini'
p362
I75
sS'rad'
p363
I76
sS'picsart'
p364
I76
sS'ran'
p365
I74
sS'mind'
p366
I75
sS'mine'
p367
I75
sS'talking'
p368
I73
sS'rap'
p369
I76
sS'seen'
p370
I71
sS'lbj'
p371
I76
sS'leafy'
p372
I76
sS"brewery's"
p373
I76
sS'forgive'
p374
I76
sS'namiss'
p375
I76
sS'1966'
p376
I76
sS'seymour'
p377
I76
sS'-'
p378
I41
sS'kaya'
p379
I76
sS'8.4km)'
p380
I76
sS'chess'
p381
I76
sS'laughed'
p382
I76
sS'all-fruit'
p383
I76
sS'curfew'
p384
I76
sS'fattening'
p385
I76
sS'up..homie'
p386
I76
sS'klose'
p387
I76
sS'susie'
p388
I76
sS'though'
p389
I72
sS'regular'
p390
I76
sS'germany'
p391
I76
sS'"rush'
p392
I76
sS't-minus'
p393
I76
sS'jean'
p394
I76
sS'germans'
p395
I76
sS'prostitute'
p396
I76
sS'wait,90732\n505245427805855744,mewmatt05,2014-08-29'
p397
I76
sS'real"'
p398
I76
sS'dog'
p399
I75
sS'doe'
p400
I75
sS'05:45:55.0,33.75337791,-118.30857608,2963,you'
p401
I76
sS'definitely'
p402
I75
sS'tech'
p403
I76
sS'dow'
p404
I76
sS'came'
p405
I70
sS'saying'
p406
I72
sS'bomb'
p407
I72
sS'hunger'
p408
I74
sS'tequila'
p409
I76
sS'random'
p410
I76
sS'bonnie'
p411
I76
sS'ending'
p412
I76
sS'pops'
p413
I76
sS'forsure'
p414
I76
sS'disturbs'
p415
I76
sS'awards.qualifies'
p416
I76
sS'stepping'
p417
I76
sS'breakfasttt'
p418
I76
sS'd2'
p419
I76
sS'sharks'
p420
I76
sS'sunsets'
p421
I76
sS'busy'
p422
I75
sS'headline'
p423
I76
sS'cousins'
p424
I76
sS'excited!!!,90731\n492563883156963328,lauryn_cara,2014-07-25'
p425
I76
sS'sugar'
p426
I75
sS'clicker'
p427
I76
sS'about'
p428
I48
sS'rich'
p429
I75
sS'abt'
p430
I76
sS'chipotle'
p431
I57
sS'titans'
p432
I76
sS'fuckk'
p433
I76
sS'wearing'
p434
I73
sS'do'
p435
I39
sS'dl'
p436
I76
sS'dm'
p437
I76
sS'dj'
p438
I76
sS'wide'
p439
I76
sS'uhhh'
p440
I76
sS'stop'
p441
I69
sS'follower\xe2\x80\x9d'
p442
I76
sS'da'
p443
I75
sS'watson'
p444
I76
sS'12'
p445
I76
sS'watermelon'
p446
I76
sS'wedding'
p447
I76
sS'dr'
p448
I75
sS'14'
p449
I76
sS'runs'
p450
I75
sS'bar'
p451
I76
sS'covering'
p452
I76
sS'mofos'
p453
I76
sS'anxiously'
p454
I76
sS'bag'
p455
I76
sS'bad'
p456
I67
sS'bae'
p457
I73
sS"pa'que"
p458
I76
sS'shots'
p459
I76
sS'grilled'
p460
I76
sS'yasss'
p461
I76
sS'mcchickens'
p462
I76
sS'disaster'
p463
I76
sS'fair'
p464
I76
sS'w/'
p465
I62
sS'branding'
p466
I76
sS'liquor'
p467
I76
sS'lemonade'
p468
I76
sS'resist'
p469
I76
sS'toes'
p470
I76
sS'assess/set'
p471
I76
sS'weird'
p472
I75
sS'o_o'
p473
I76
sS'nocturnal'
p474
I76
sS'hairsprayyyyyy'
p475
I76
sS'best'
p476
I57
sS'subject'
p477
I76
sS'pete'
p478
I76
sS'03'
p479
I76
sS'said'
p480
I62
sS'draws'
p481
I76
sS'incorrectly'
p482
I76
sS'pedicure'
p483
I76
sS'away'
p484
I66
sS'shaved'
p485
I75
sS'face*'
p486
I76
sS'niggas\xe2\x80\x9d'
p487
I76
sS"there's"
p488
I71
sS'(by'
p489
I76
sS'finger'
p490
I76
sS'props'
p491
I75
sS'mum'
p492
I76
sS'fag"'
p493
I76
sS'whaaa'
p494
I75
sS'we'
p495
I47
sS'men'
p496
I76
sS'omg'
p497
I72
sS'\xe0\xb8\x84\xe0\xb8\x99\xe0\xb8\x97\xe0\xb8\xb5\xe0\xb9\x88\xe0\xb8\x99\xe0\xb8\xb5\xe0\xb9\x88\xe0\xb8\x81\xe0\xb8\xa5\xe0\xb9\x89\xe0\xb8\xb2\xe0\xb9\x83\xe0\xb8\xaa\xe0\xb9\x88\xe0\xb9\x84\xe0\xb8\x9b\xe0\xb9\x84\xe0\xb8\x94\xe0\xb9\x89\xe0\xb8\xa2\xe0\xb8\xb1\xe0\xb8\x87\xe0\xb9\x84\xe0\xb8\x87'
p498
I76
sS'rolled'
p499
I76
sS'felony'
p500
I76
sS'weak'
p501
I75
sS'boss'
p502
I74
sS'ww'
p503
I75
sS'wt'
p504
I76
sS'ws'
p505
I76
sS'wear'
p506
I75
sS'wtf'
p507
I67
sS'downgrade'
p508
I76
sS'cousin'
p509
I76
sS'picking'
p510
I74
sS'hills'
p511
I76
sS'received'
p512
I76
sS'tfti'
p513
I76
sS'met'
p514
I72
sS'bachelorette'
p515
I76
sS'fault'
p516
I76
sS'ill'
p517
I69
sS'jelly'
p518
I76
sS'against'
p519
I75
sS'players'
p520
I76
sS'games'
p521
I76
sS'bet'
p522
I75
sS'pita'
p523
I76
sS'lot"'
p524
I76
sS'asked'
p525
I71
sS'pre'
p526
I76
sS'had'
p527
I57
sS'ayeee'
p528
I76
sS'2nd'
p529
I75
sS'\xe2\x9d\xa4\xe2\x98\xba'
p530
I76
sS'blonde'
p531
I76
sS'trust'
p532
I74
sS'ether'
p533
I76
sS':p\xe2\x80\x9d'
p534
I76
sS'bathroom'
p535
I76
sS'asks'
p536
I76
sS'"you'
p537
I75
sS'fri'
p538
I76
sS'chels'
p539
I76
sS'three'
p540
I76
sS'been'
p541
I57
sS'now<'
p542
I76
sS'beer'
p543
I76
sS'much'
p544
I61
sS'ooh...rocked'
p545
I76
sS'stadium'
p546
I75
sS"hamburger's"
p547
I76
sS"chillin'"
p548
I76
sS'life'
p549
I52
sS'dass'
p550
I76
sS'drugs'
p551
I76
sS'worker'
p552
I75
sS'7v7'
p553
I76
sS'irvine'
p554
I76
sS'servite'
p555
I76
sS'doubts'
p556
I75
sS'catch'
p557
I75
sS'worked'
p558
I76
sS'(and'
p559
I75
sS'cunt'
p560
I76
sS'chill'
p561
I75
sS'davison'
p562
I76
sS'has'
p563
I61
sS'tank'
p564
I76
sS'preeeeettty'
p565
I76
sS'n'
p566
I45
sS'aim'
p567
I76
sS'ugly'
p568
I76
sS'near'
p569
I76
sS'gna'
p570
I76
sS'suppose'
p571
I75
sS'teachers'
p572
I76
sS'property'
p573
I76
sS'tellers'
p574
I76
sS'k'
p575
I76
sS'mexico'
p576
I74
sS'is'
p577
I10
sS'sushi'
p578
I76
sS'"i'
p579
I73
sS'ii'
p580
I76
sS'skipping'
p581
I76
sS'ik'
p582
I76
sS'im'
p583
I59
sS'cone'
p584
I76
sS'in'
p585
I8
sS'mouse'
p586
I74
sS'"juan'
p587
I76
sS'17:02:32.0,33.75429264,-118.30892515,2963,herstory'
p588
I76
sS'if'
p589
I38
sS'confirmed'
p590
I76
sS'perform'
p591
I76
sS'things'
p592
I73
sS'make'
p593
I57
sS'bella'
p594
I76
sS'hahah'
p595
I73
sS'storify'
p596
I76
sS'plates'
p597
I75
sS'superman'
p598
I76
sS'showing'
p599
I76
sS'stix-'
p600
I76
sS"70's"
p601
I76
sS'ello'
p602
I76
sS'froyo'
p603
I76
sS'social'
p604
I76
sS'evil'
p605
I76
sS'hand'
p606
I75
sS'thursday-'
p607
I76
sS'jealous'
p608
I75
sS'selfless'
p609
I76
sS'opportunity'
p610
I76
sS'aka'
p611
I76
sS'tune'
p612
I76
sS'vermont'
p613
I76
sS'shortly'
p614
I76
sS'thx'
p615
I74
sS'los'
p616
I76
sS'tru,90732\n493239116398465025,suffibulum,2014-07-27'
p617
I76
sS'dada'
p618
I76
sS'hardflip'
p619
I76
sS'tho'
p620
I71
sS'burgers'
p621
I76
sS'mamma'
p622
I76
sS'pandora'
p623
I76
sS'mother'
p624
I75
sS'the'
p625
I3
sS'tmrw\xe2\x98\xba'
p626
I76
sS'yours'
p627
I76
sS'left'
p628
I72
sS'capitol'
p629
I76
sS'just'
p630
I22
sS'yea'
p631
I75
sS'gods'
p632
I76
sS'sleepy'
p633
I76
sS'hahahha'
p634
I76
sS'thanks'
p635
I60
sS'human'
p636
I75
sS'facts'
p637
I76
sS'yep'
p638
I73
sS'yes'
p639
I65
sS'tumblr\xe2\x88\x9e'
p640
I76
sS'yet'
p641
I71
sS'hah'
p642
I76
sS'ham'
p643
I76
sS'-__-'
p644
I75
sS"hillbilly's"
p645
I76
sS'ooooh'
p646
I76
sS'shout'
p647
I75
sS'board'
p648
I76
sS'easy'
p649
I76
sS'prison'
p650
I76
sS'save'
p651
I75
sS'torrance'
p652
I76
sS'gave'
p653
I74
sS'blakes'
p654
I76
sS'appreciated'
p655
I76
sS'vanessa'
p656
I76
sS'sapat'
p657
I76
sS'possible'
p658
I74
sS'tmrw'
p659
I73
sS'possibly'
p660
I76
sS'boxes'
p661
I76
sS'vibrations'
p662
I76
sS'suffering'
p663
I76
sS'3pm'
p664
I76
sS'love....m'
p665
I76
sS'advanced'
p666
I76
sS'apart'
p667
I76
sS'brought'
p668
I76
sS'leggoo'
p669
I76
sS'ditto'
p670
I76
sS'gift'
p671
I72
sS'xp'
p672
I76
sS'15:46:20.0,33.75298544,-118.30373029,2963,\xe2\xac\x87\xef\xb8\x8f\xe2\xac\x87\xef\xb8\x8f\xe2\xac\x87\xef\xb8\x8f'
p673
I76
sS'hotttt'
p674
I76
sS'night'
p675
I62
sS'(even'
p676
I76
sS'starvation'
p677
I76
sS'olb'
p678
I76
sS'right'
p679
I47
sS'honored'
p680
I76
sS'deal'
p681
I75
sS'people'
p682
I58
sS'sends'
p683
I76
sS'proudly'
p684
I76
sS'dead'
p685
I72
sS'clubs'
p686
I76
sS'dons'
p687
I76
sS'billboard'
p688
I75
sS'mazel'
p689
I76
sS'saved'
p690
I76
sS'for'
p691
I11
sS'purple'
p692
I76
sS'lockdown'
p693
I76
sS'co-constructed'
p694
I76
sS'ice'
p695
I74
sS'(awesome)'
p696
I76
sS'everythinf'
p697
I76
sS'everything'
p698
I72
sS'asking'
p699
I75
sS'work,90732\n455585065351647232,emilyiacono1,2014-04-14'
p700
I76
sS'pls'
p701
I76
sS'corn'
p702
I75
sS'burn'
p703
I76
sS'going,90732\n469731925125378049,mewmatt05,2014-05-23'
p704
I76
sS'discount'
p705
I76
sS'keeper'
p706
I75
sS'pln'
p707
I76
sS'post'
p708
I73
sS'super'
p709
I73
sS'answered:dr.who'
p710
I76
sS'proceed'
p711
I76
sS'empowerment'
p712
I76
sS'yelling'
p713
I76
sS'filipino'
p714
I76
sS'filipina'
p715
I76
sS'signs'
p716
I76
sS'o'
p717
I76
sS"o'neal"
p718
I76
sS'dinner'
p719
I72
sS'plus'
p720
I76
sS'afternoon'
p721
I75
sS'stoked'
p722
I76
sS'jumpsuits'
p723
I76
sS'facetime'
p724
I76
sS'whatt'
p725
I76
sS'managers'
p726
I76
sS'callback...eating'
p727
I76
sS'bound'
p728
I72
sS'son'
p729
I74
sS'down'
p730
I51
sS'thankful'
p731
I75
sS'wrap'
p732
I75
sS'old'
p733
I73
sS'shoots'
p734
I76
sS'best.....but'
p735
I76
sS'support'
p736
I76
sS'approximate'
p737
I76
sS'payment'
p738
I75
sS'stuck'
p739
I73
sS'authorized'
p740
I76
sS'way'
p741
I59
sS'call'
p742
I67
sS'was'
p743
I29
sS'man\xe2\x80\x9d'
p744
I76
sS'launching'
p745
I75
sS'happy'
p746
I62
sS'head'
p747
I75
sS'form'
p748
I76
sS'offer'
p749
I76
sS'crown'
p750
I76
sS'fireworks'
p751
I76
sS'shits'
p752
I76
sS'heat'
p753
I69
sS'hear'
p754
I73
sS'acai'
p755
I76
sS',90731\n417154296770076672,jaywoodzs,2013-12-29'
p756
I76
sS'true'
p757
I72
sS'builds'
p758
I76
sS'versions'
p759
I76
sS'hearts\xe2\x9d\xa4\xef\xb8\x8f\xe2\x9d\xa4\xef\xb8\x8f\xe2\x9d\xa4\xef\xb8\x8f'
p760
I76
sS'undefeated'
p761
I76
sS'inside'
p762
I74
sS'hmm'
p763
I76
sS'tell'
p764
I68
sS'auditioning'
p765
I76
sS'(cont)'
p766
I76
sS'daddy'
p767
I76
sS'delete'
p768
I76
sS'1-0'
p769
I76
sS'proud'
p770
I75
sS'hotter'
p771
I76
sS'sticks'
p772
I75
sS'knoww'
p773
I76
sS'tournament'
p774
I76
sS'hungry'
p775
I74
sS'dear'
p776
I76
sS'beautiful,90731\n470796497416491008,jassmine_a,2014-05-26'
p777
I76
sS'sprouts'
p778
I74
sS'awhile'
p779
I76
sS'annoying'
p780
I73
sS'check'
p781
I71
sS'shit'
p782
I50
sS'aaaaaaaaaahhhhhhhhhh'
p783
I76
sS'quincea\xc3\xb1era'
p784
I76
sS'no'
p785
I39
sS'na'
p786
I75
sS'when'
p787
I34
sS'actor'
p788
I76
sS'ng'
p789
I76
sS'til'
p790
I76
sS'successful'
p791
I76
sS'pssshh'
p792
I76
sS'holding'
p793
I76
sS'digital'
p794
I76
sS'6asts'
p795
I76
sS'depot'
p796
I75
sS'smell'
p797
I76
sS'tia'
p798
I76
sS'realize'
p799
I76
sS'nw'
p800
I75
sS'scored'
p801
I76
sS'picture'
p802
I73
sS'combinesent'
p803
I76
sS'brothers'
p804
I76
sS'palms'
p805
I76
sS'felt'
p806
I76
sS'update'
p807
I76
sS"let's"
p808
I74
sS'palma'
p809
I75
sS"rose's"
p810
I76
sS'$4.07...could'
p811
I76
sS'hurt'
p812
I75
sS'weekend'
p813
I71
sS'night..."'
p814
I76
sS'spiderman'
p815
I76
sS'longer'
p816
I76
sS'alone-'
p817
I76
sS'(san'
p818
I50
sS'italy'
p819
I76
sS'jkjk'
p820
I76
sS'together'
p821
I72
sS'whete'
p822
I76
sS'time'
p823
I43
sS'push'
p824
I76
sS'serious'
p825
I75
sS'decision'
p826
I76
sS'hugs"'
p827
I76
sS'stick'
p828
I75
sS'neighbors'
p829
I76
sS':/'
p830
I74
sS':('
p831
I74
sS':)'
p832
I60
sS'whoever'
p833
I75
sS'dance'
p834
I76
sS'skip'
p835
I76
sS'hawaii'
p836
I76
sS'manager'
p837
I74
sS'skate'
p838
I76
sS'taco)'
p839
I75
sS'grateful'
p840
I76
sS'playoffs'
p841
I76
sS'milk'
p842
I76
sS'row'
p843
I76
sS'21st'
p844
I75
sS'suicide'
p845
I76
sS'hump'
p846
I76
sS'yummm'
p847
I76
sS'0'
p848
I76
sS'finally'
p849
I66
sS'fog'
p850
I76
sS'g-spot'
p851
I76
sS'brown'
p852
I73
sS'supported'
p853
I76
sS'kolokithakia'
p854
I76
sS':d'
p855
I72
sS'brownie'
p856
I76
sS'ready\xe2\x80\x9d,90732\n476957343624613889,lilijuliet_,2014-06-12'
p857
I76
sS'choice'
p858
I75
sS'vegas'
p859
I73
sS'cook'
p860
I76
sS'ma'
p861
I74
sS'trouble'
p862
I76
sS'minute'
p863
I75
sS'cool'
p864
I69
sS'discovered'
p865
I76
sS'din'
p866
I76
sS'market)'
p867
I76
sS'level'
p868
I76
sS'did'
p869
I62
sS'die'
p870
I75
sS'06:47:51.0,33.75337833,-118.30872897,2963,got'
p871
I76
sS'brother'
p872
I74
sS'minnie'
p873
I76
sS'prob'
p874
I76
sS'leave'
p875
I74
sS'soooo'
p876
I75
sS'23:41:53.0,33.75498191,-118.29587021,2963,off'
p877
I76
sS'team'
p878
I63
sS'quick'
p879
I73
sS'guy'
p880
I72
sS'round'
p881
I76
sS'yall'
p882
I76
sS'dis'
p883
I76
sS'shave'
p884
I76
sS'angeles)'
p885
I76
sS'porn'
p886
I76
sS'trend'
p887
I76
sS'trails'
p888
I76
sS'hahsha'
p889
I76
sS'sign'
p890
I75
sS'pmd'
p891
I76
sS',90732\n481152351252656128,miggstuhh69_,2014-06-23'
p892
I76
sS'06:49:52.0,33.75314515,-118.30871406,2963,in'
p893
I76
sS'run'
p894
I71
sS'bwah'
p895
I76
sS'firesquare'
p896
I76
sS'pedi'
p897
I75
sS'drinks'
p898
I76
sS'1:29am'
p899
I76
sS'special\xe2\x80\x9d'
p900
I76
sS'mt'
p901
I70
sS'goes'
p902
I71
sS'beasley'
p903
I76
sS'supplies'
p904
I76
sS'falling'
p905
I75
sS'freaky'
p906
I76
sS'filled'
p907
I76
sS'collateral'
p908
I76
sS'drastic'
p909
I76
sS'weezy'
p910
I76
sS'1230'
p911
I76
sS'apartments)'
p912
I75
sS'hairs'
p913
I76
sS'makeup'
p914
I74
sS'19:10:34.0,33.75526895,-118.29243522,2963,fantastics'
p915
I76
sS'water'
p916
I76
sS'downloaded'
p917
I76
sS'smthg'
p918
I76
sS'alone'
p919
I75
sS'earthquake'
p920
I74
sS'change'
p921
I75
sS'wait'
p922
I60
sS'box'
p923
I76
sS'boy'
p924
I72
sS'squad,90732\n471907900600766464,mewmatt05,2014-05-29'
p925
I76
sS'condoms'
p926
I76
sS'shove'
p927
I76
sS'institute'
p928
I72
sS'root'
p929
I76
sS'guilty'
p930
I76
sS'lakers'
p931
I76
sS'legit'
p932
I76
sS'suggestion'
p933
I76
sS'boo'
p934
I72
sS'hbu'
p935
I76
sS'priceless'
p936
I76
sS'bob'
p937
I76
sS'massage'
p938
I76
sS'teenage'
p939
I76
sS"sharin'"
p940
I76
sS'love'
p941
I33
sS'gamepad'
p942
I76
sS'extra'
p943
I75
sS'sporter'
p944
I76
sS'merely'
p945
I76
sS'verge'
p946
I76
sS'1st'
p947
I73
sS'skordalia'
p948
I76
sS'mobil'
p949
I75
sS'crisis'
p950
I76
sS'market'
p951
I75
sS'red'
p952
I76
sS'him\xe2\x80\x9d'
p953
I76
sS'working'
p954
I75
sS'aye'
p955
I73
sS'positive'
p956
I76
sS'prompting'
p957
I76
sS'dude'
p958
I74
sS'tears'
p959
I76
sS'france'
p960
I76
sS'territories'
p961
I76
sS'live'
p962
I73
sS'iphone'
p963
I76
sS'gamestop'
p964
I76
sS'films'
p965
I76
sS'actin'
p966
I76
sS'thru'
p967
I71
sS'angels'
p968
I76
sS'prep'
p969
I76
sS'today'
p970
I52
sS"ipa's"
p971
I76
sS'sessions'
p972
I76
sS'club'
p973
I76
sS'suggestions'
p974
I75
sS'la!\xe2\x80\x9dor'
p975
I76
sS'21:04:21.0,33.75511485,-118.29583383,2963,an'
p976
I76
sS'chocolate'
p977
I76
sS'fuel'
p978
I76
sS'seat,90732\n489850197141225472,lauryn_cara,2014-07-17'
p979
I76
sS'effort'
p980
I76
sS'fly'
p981
I76
sS'8pm'
p982
I76
sS'indescribable'
p983
I76
sS'car'
p984
I61
sS'cat'
p985
I73
sS'purge'
p986
I75
sS'soup'
p987
I75
sS'bake'
p988
I76
sS'can'
p989
I43
sS'fuuuuuuccccxxxxxkkkkkkk'
p990
I76
sS'growing'
p991
I76
sS'making'
p992
I72
sS'fandango'
p993
I76
sS'whaaaaa'
p994
I76
sS'streak'
p995
I76
sS'heart'
p996
I71
sS'crazy'
p997
I75
sS'figure'
p998
I76
sS'awesome'
p999
I70
sS"didn't"
p1000
I65
sS'fuck'
p1001
I55
sS'ids'
p1002
I76
sS'heard'
p1003
I73
sS'chin'
p1004
I75
sS'dropped'
p1005
I76
sS'allowed'
p1006
I76
sS'week-end'
p1007
I76
sS'spa'
p1008
I76
sS'counting'
p1009
I76
sS'stole'
p1010
I76
sS'instead:('
p1011
I76
sS'productive'
p1012
I76
sS'nyr'
p1013
I76
sS'watching'
p1014
I69
sS'write'
p1015
I75
sS'till'
p1016
I72
sS'sunday'
p1017
I74
sS'skater'
p1018
I76
sS'nyc'
p1019
I76
sS'nya'
p1020
I76
sS'dope'
p1021
I76
sS'map'
p1022
I75
sS'staying'
p1023
I76
sS'mar'
p1024
I76
sS'escalate'
p1025
I76
sS'spot'
p1026
I76
sS'diva'
p1027
I76
sS'lucky'
p1028
I76
sS'birthday'
p1029
I64
sS'tipped'
p1030
I76
sS'mad'
p1031
I71
sS'date'
p1032
I72
sS'such'
p1033
I71
sS'suck'
p1034
I72
sS'guys'
p1035
I66
sS'grow'
p1036
I76
sS'man'
p1037
I66
sS'classroom'
p1038
I76
sS'pug'
p1039
I76
sS'stress'
p1040
I76
sS'waist'
p1041
I76
sS'frick'
p1042
I76
sS'ss'
p1043
I63
sS'maybe'
p1044
I73
sS'ggggiiiinnnnoooobbbblllliiii'
p1045
I76
sS'rollin'
p1046
I76
sS'st'
p1047
I76
sS'q'
p1048
I76
sS'rather'
p1049
I76
sS'switch'
p1050
I76
sS'jail'
p1051
I76
sS'baby,90732\n504373810414354432,lauryn_cara,2014-08-26'
p1052
I76
sS'fireball'
p1053
I76
sS'tutoring'
p1054
I76
sS'talk'
p1055
I72
sS'sd'
p1056
I76
sS'cute'
p1057
I73
sS'serving'
p1058
I75
sS'usc'
p1059
I76
sS'haircut'
p1060
I76
sS'midnight'
p1061
I74
sS'years'
p1062
I73
sS'course'
p1063
I72
sS'aha'
p1064
I76
sS'shake'
p1065
I75
sS'kanye'
p1066
I76
sS'cold'
p1067
I74
sS'still'
p1068
I59
sS'birds'
p1069
I76
sS'tore'
p1070
I76
sS'police'
p1071
I76
sS'thank'
p1072
I57
sS"he's"
p1073
I70
sS'smoothie'
p1074
I76
sS'thang'
p1075
I76
sS'birthdays'
p1076
I76
sS'hot'
p1077
I70
sS'faves'
p1078
I76
sS'window'
p1079
I73
sS'nonuts'
p1080
I76
sS'tweets'
p1081
I72
sS'main'
p1082
I75
sS'happened'
p1083
I74
sS'lonely'
p1084
I76
sS'm\xc3\xad'
p1085
I76
sS'3'
p1086
I65
sS'moms'
p1087
I73
sS'noe'
p1088
I76
sS'qs'
p1089
I76
sS'feelin'
p1090
I76
sS'lunch'
p1091
I60
sS'savor'
p1092
I76
sS'year/'
p1093
I76
sS'"feel'
p1094
I76
sS'half'
p1095
I71
sS'not'
p1096
I24
sS'now'
p1097
I29
sS'twilight'
p1098
I76
sS'hall'
p1099
I76
sS'nor'
p1100
I76
sS'time\xe2\x80\xbc\xef\xb8\x8f'
p1101
I76
sS'johnjohn-'
p1102
I76
sS'execute'
p1103
I76
sS'name'
p1104
I73
sS"ex's"
p1105
I75
sS'clutch'
p1106
I74
sS'times'
p1107
I76
sS'drop'
p1108
I76
sS'locked'
p1109
I76
sS'16:01:51.0,33.75507424,-118.29566579,2963,always'
p1110
I76
sS"italy's"
p1111
I76
sS'quarter'
p1112
I75
sS'concerts'
p1113
I76
sS'em'
p1114
I76
sS'el'
p1115
I76
sS'lowkey'
p1116
I76
sS'hiccups'
p1117
I76
sS'kane'
p1118
I76
sS'yeah'
p1119
I67
sS'ey'
p1120
I76
sS'ex'
p1121
I76
sS'year'
p1122
I66
sS'girl'
p1123
I62
sS'worried'
p1124
I75
sS'es'
p1125
I76
sS'tried'
p1126
I74
sS'album'
p1127
I76
sS'ultimately'
p1128
I76
sS'jackson'
p1129
I76
sS'opened'
p1130
I76
sS'3rd'
p1131
I75
sS'space'
p1132
I76
sS'butter)'
p1133
I76
sS'fu'
p1134
I76
sS'squared'
p1135
I76
sS'sparkle'
p1136
I76
sS'looking'
p1137
I73
sS'seriously'
p1138
I71
sS'miles'
p1139
I76
sS"shouldn't"
p1140
I75
sS'dutch'
p1141
I76
sS'people\xe2\x80\x9d'
p1142
I76
sS'dodgers'
p1143
I73
sS'cars'
p1144
I76
sS'super-needed'
p1145
I76
sS'hulk'
p1146
I76
sS'quite'
p1147
I75
sS'spooning'
p1148
I76
sS'california'
p1149
I71
sS'besides'
p1150
I76
sS'grandma'
p1151
I72
sS'care'
p1152
I72
sS'waiter'
p1153
I76
sS'yup'
p1154
I75
sS'yur'
p1155
I76
sS'chevy'
p1156
I76
sS'thing'
p1157
I72
sS'place'
p1158
I72
sS'vision'
p1159
I75
sS'yess'
p1160
I76
sS'think'
p1161
I49
sS'first'
p1162
I57
sS'cheese'
p1163
I75
sS'merrill'
p1164
I76
sS'xo'
p1165
I71
sS'americano'
p1166
I76
sS'yourself'
p1167
I75
sS'xx'
p1168
I76
sS'americans'
p1169
I76
sS'long'
p1170
I69
sS'spanish'
p1171
I76
sS'impossible'
p1172
I76
sS'sounds'
p1173
I70
sS'raped'
p1174
I76
sS'open'
p1175
I70
sS'george'
p1176
I76
sS'city'
p1177
I75
sS'little'
p1178
I66
sS'\xe0\xb9\x84\xe0\xb8\xa1\xe0\xb9\x88\xe0\xb8\xad\xe0\xb8\xb0\xe0\xb8\x9e\xe0\xb8\xb5\xe0\xb9\x88\xe0\xb8\x9c\xe0\xb8\xa1\xe0\xb8\xa7\xe0\xb9\x88\xe0\xb8\xb2\xe0\xb8\xa1\xe0\xb8\xb1\xe0\xb8\x99\xe0\xb9\x82\xe0\xb8\x9b\xe0\xb9\x8a'
p1179
I76
sS'district'
p1180
I76
sS'dedede'
p1181
I76
sS'bitc'
p1182
I76
sS'anyone'
p1183
I72
sS'psychotic'
p1184
I76
sS'fml'
p1185
I73
sS'2'
p1186
I55
sS'spoodermang'
p1187
I76
sS'kpcc'
p1188
I76
sS'white'
p1189
I74
sS'friend'
p1190
I68
sS'gives'
p1191
I76
sS'eyes'
p1192
I76
sS'hug'
p1193
I76
sS',90731\n505797323830480896,maddieteran,2014-08-30'
p1194
I76
sS'that'
p1195
I18
sS'season'
p1196
I74
sS'u*'
p1197
I76
sS'viewing'
p1198
I76
sS'cops'
p1199
I76
sS'dudes'
p1200
I76
sS'peck'
p1201
I75
sS'than'
p1202
I63
sS"here's"
p1203
I76
sS'boyfriend'
p1204
I76
sS'10'
p1205
I74
sS'13'
p1206
I76
sS'messiest'
p1207
I76
sS'15'
p1208
I74
sS'lmao'
p1209
I70
sS'i\xe2\x80\x99ll'
p1210
I76
sS'oats'
p1211
I76
sS'yayyyy'
p1212
I76
sS'18'
p1213
I75
sS'gotta'
p1214
I72
sS'transferred'
p1215
I76
sS'"oooohh'
p1216
I76
sS'r'
p1217
I72
sS'brothas!real'
p1218
I76
sS'were'
p1219
I62
sS'cards'
p1220
I76
sS'asleep'
p1221
I76
sS'encanta'
p1222
I76
sS'and'
p1223
I9
sS'ang'
p1224
I75
sS'pleaseeeee'
p1225
I76
sS'san'
p1226
I56
sS'fuckers'
p1227
I76
sS'parking'
p1228
I76
sS'turned'
p1229
I75
sS'penner'
p1230
I76
sS'sad'
p1231
I75
sS'woah'
p1232
I76
sS'say'
p1233
I64
sS'rent'
p1234
I76
sS'deff'
p1235
I76
sS'anger'
p1236
I76
sS'breakfast'
p1237
I74
sS'saw'
p1238
I70
sS'any'
p1239
I69
sS'marathon'
p1240
I76
sS'sat'
p1241
I75
sS'greek'
p1242
I76
sS'veteran'
p1243
I75
sS'16:27:03.0,33.75431039,-118.30880038,2963,mr'
p1244
I76
sS'fun,90732\n505245092592906240,mewmatt05,2014-08-29'
p1245
I76
sS'07:59:10.0,33.75634317,-118.3038901,2963,nico'
p1246
I76
sS'note'
p1247
I76
sS'squad'
p1248
I76
sS'do\xe2\x98\xba'
p1249
I76
sS'take'
p1250
I60
sS'hennessy'
p1251
I76
sS'performance'
p1252
I76
sS'rages'
p1253
I76
sS'gkg'
p1254
I76
sS'bitching'
p1255
I76
sS'begin'
p1256
I74
sS'sure'
p1257
I70
sS'pain'
p1258
I76
sS'hobbit'
p1259
I76
sS'normal'
p1260
I76
sS'arguing'
p1261
I76
sS'cheesecake'
p1262
I76
sS'price'
p1263
I76
sS'crafts'
p1264
I76
sS'falls'
p1265
I76
sS'rehearsal'
p1266
I76
sS'00:50:13.0,33.75389526,-118.29234453,2963,where'
p1267
I76
sS'occurred'
p1268
I76
sS'pair'
p1269
I76
sS'america'
p1270
I76
sS'\xe2\x88\x9eooooo'
p1271
I76
sS'michelle'
p1272
I76
sS'forever'
p1273
I73
sS'camping'
p1274
I76
sS"ans's"
p1275
I76
sS'bangin'
p1276
I76
sS'average'
p1277
I76
sS'later'
p1278
I74
sS'drive'
p1279
I70
sS'target\xe2\x80\x9d'
p1280
I76
sS"something'"
p1281
I76
sS'senior'
p1282
I74
sS'salt'
p1283
I75
sS'shop'
p1284
I75
sS'walking'
p1285
I74
sS'posse'
p1286
I76
sS'shot'
p1287
I75
sS'\xe2\x9c\xa8'
p1288
I76
sS'show'
p1289
I71
sS'german'
p1290
I76
sS'cheap'
p1291
I76
sS'sites'
p1292
I76
sS'beyonc\xc3\xa9s'
p1293
I76
sS'troy'
p1294
I76
sS'shoe'
p1295
I76
sS'hack'
p1296
I76
sS'corner'
p1297
I75
sS'curled'
p1298
I76
sS'aint'
p1299
I76
sS'snack'
p1300
I76
sS'ilyyyy'
p1301
I76
sS'\xe2\x9c\x8b'
p1302
I75
sS'\xe2\x9c\x8a'
p1303
I76
sS'cheech'
p1304
I76
sS'dick'
p1305
I75
sS'pump'
p1306
I73
sS'gulp'
p1307
I76
sS'only'
p1308
I58
sS'going'
p1309
I51
sS'black'
p1310
I75
sS'hockey'
p1311
I76
sS'\xe2\x9c\x94'
p1312
I76
sS'teefill'
p1313
I76
sS'bbbbbaaaadddd'
p1314
I76
sS'f*ing'
p1315
I76
sS'get'
p1316
I28
sS'ifly'
p1317
I76
sS'truly'
p1318
I76
sS'cannot'
p1319
I76
sS'lighter'
p1320
I76
sS'dye'
p1321
I76
sS'awaiting'
p1322
I76
sS'celebrate'
p1323
I76
sS'freaking'
p1324
I75
sS"gaga's"
p1325
I76
sS'busiest'
p1326
I76
sS'imbecile'
p1327
I76
sS"gf's"
p1328
I76
sS'morning'
p1329
I62
sS'06:55:55.0,33.75506045,-118.29574272,2963,if'
p1330
I76
sS'stupid'
p1331
I71
sS'lafriday'
p1332
I76
sS'miley'
p1333
I75
sS'pudwills'
p1334
I76
sS'bought'
p1335
I74
sS'where'
p1336
I60
sS'husband'
p1337
I75
sS'-_-'
p1338
I76
sS"y'all"
p1339
I75
sS'calas'
p1340
I76
sS'learn'
p1341
I76
sS'concert'
p1342
I75
sS'foreal'
p1343
I76
sS'lunchables'
p1344
I76
sS'up'
p1345
I25
sS'lyfe'
p1346
I74
sS'college'
p1347
I74
sS'hoes'
p1348
I75
sS'calendar'
p1349
I76
sS'sport'
p1350
I75
sS'smiling'
p1351
I76
sS'wonder'
p1352
I74
sS'staffed'
p1353
I76
sS'work,90732\n486000539470024705,chaikristin,2014-07-07'
p1354
I76
sS'farmers'
p1355
I75
sS'fascinated'
p1356
I76
sS'hooome,90732\n422838026935353344,thatmedlife,2014-01-13'
p1357
I76
sS'21:10:16.0,33.75214564,-118.3088003,2963,good'
p1358
I76
sS'thurs'
p1359
I76
sS"father's"
p1360
I76
sS'cafe)'
p1361
I73
sS'enough'
p1362
I73
sS';))))'
p1363
I76
sS'between'
p1364
I75
sS'unanimous'
p1365
I76
sS'reading'
p1366
I68
sS'03:58:36.0,33.75361185,-118.30847341,2963,my'
p1367
I76
sS'across'
p1368
I75
sS'sidetracked....from'
p1369
I76
sS'fight'
p1370
I76
sS'notice'
p1371
I76
sS'august'
p1372
I75
sS'eye'
p1373
I76
sS'screen'
p1374
I76
sS'muchies'
p1375
I76
sS'jr'
p1376
I76
sS'killing'
p1377
I76
sS'como'
p1378
I76
sS'comeback'
p1379
I76
sS'spark'
p1380
I76
sS'js'
p1381
I76
sS'come'
p1382
I64
sS'thanksgiving'
p1383
I76
sS'versdes'
p1384
I75
sS'dates'
p1385
I75
sS'22'
p1386
I76
sS'many'
p1387
I70
sS'manz'
p1388
I76
sS'quiet'
p1389
I76
sS's'
p1390
I74
sS'\xe2\x98\xba\xef\xb8\x8f,90732\n470795336961650688,jassmine_a,2014-05-26'
p1391
I76
sS'remake'
p1392
I76
sS'mani'
p1393
I76
sS"can't"
p1394
I54
sS'cancer'
p1395
I75
sS'pop'
p1396
I76
sS'nooooo'
p1397
I76
sS'poo'
p1398
I76
sS'souvlaki'
p1399
I76
sS'learning'
p1400
I72
sS'polo'
p1401
I76
sS'freak'
p1402
I76
sS'boat'
p1403
I76
sS'shop)'
p1404
I76
sS'now\xe2\x80\x9d'
p1405
I76
sS'unusual'
p1406
I76
sS':(((((((((((((((((((((((('
p1407
I76
sS'cares'
p1408
I76
sS'2cents'
p1409
I76
sS'rebuild'
p1410
I76
sS'maro'
p1411
I76
sS'ucla'
p1412
I74
sS'mark'
p1413
I76
sS'yogas/sweats'
p1414
I76
sS'jon'
p1415
I76
sS'shakers'
p1416
I76
sS'sesh'
p1417
I76
sS'staring'
p1418
I76
sS'out,90732\n512086380692787201,maddieteran,2014-09-17'
p1419
I76
sS'marisa'
p1420
I76
sS'630'
p1421
I75
sS'shopping'
p1422
I72
sS'b*tches'
p1423
I76
sS'frozen\xe2\x80\xa6'
p1424
I76
sS'eastview'
p1425
I76
sS'dangerous'
p1426
I76
sS'photos'
p1427
I76
sS'wake'
p1428
I76
sS'bonjour'
p1429
I76
sS'hidden'
p1430
I76
sS'those'
p1431
I64
sS'myself'
p1432
I65
sS'cutie'
p1433
I76
sS'these'
p1434
I61
sS'sex'
p1435
I76
sS'voldemort'
p1436
I76
sS'ratchet'
p1437
I76
sS'hmmmm'
p1438
I76
sS'cock'
p1439
I76
sS'crepes'
p1440
I76
sS'alcoholic'
p1441
I76
sS'informational'
p1442
I76
sS'bipotle'
p1443
I76
sS'coffee'
p1444
I76
sS'bros'
p1445
I75
sS'sleeping'
p1446
I76
sS'middle'
p1447
I75
sS'good'
p1448
I35
sS'12th'
p1449
I76
sS'heels'
p1450
I76
sS'protein'
p1451
I75
sS'bro,90732\n446902295716827136,mewmatt05,2014-03-21'
p1452
I76
sS'ivy'
p1453
I76
sS'worry'
p1454
I75
sS'comments'
p1455
I76
sS'different'
p1456
I76
sS'dragging'
p1457
I76
sS'plescia'
p1458
I76
sS'pay'
p1459
I75
sS'bowl'
p1460
I75
sS'tour'
p1461
I76
sS'same'
p1462
I64
sS'trip'
p1463
I76
sS'food'
p1464
I69
sS'followers'
p1465
I75
sS'underestimate'
p1466
I76
sS'buys'
p1467
I76
sS'sams'
p1468
I76
sS'05:15:29.0,33.75338729,-118.30881178,2963,ohhh'
p1469
I76
sS'baahaha'
p1470
I76
sS'events'
p1471
I76
sS'week'
p1472
I65
sS'finish'
p1473
I76
sS'screenshot'
p1474
I76
sS'silhouetto'
p1475
I76
sS'mutha'
p1476
I76
sS'13-0,90732\n497739290957582336,drewriggz,2014-08-08'
p1477
I76
sS'running'
p1478
I76
sS'fruit'
p1479
I76
sS'abalone'
p1480
I74
sS'favorites'
p1481
I76
sS'conquered'
p1482
I76
sS'totally'
p1483
I73
sS'provost'
p1484
I76
sS'post-guys'
p1485
I76
sS'awesomeness'
p1486
I76
sS'bryce'
p1487
I74
sS'dying'
p1488
I76
sS'charges'
p1489
I76
sS'charger'
p1490
I76
sS'nothin'
p1491
I76
sS'06:56:25.0,33.7533326,-118.30871506,2963,work'
p1492
I76
sS'without'
p1493
I73
sS'broskie..i'
p1494
I76
sS'very'
p1495
I69
sS'model'
p1496
I76
sS'bumping'
p1497
I76
sS'damelo'
p1498
I76
sS"you've"
p1499
I75
sS'summer'
p1500
I67
sS'\xe2\x98\xba\xef\xb8\x8f'
p1501
I76
sS'noah'
p1502
I76
sS'being'
p1503
I66
sS'money'
p1504
I67
sS'rest'
p1505
I75
sS'shouts'
p1506
I76
sS'(i'
p1507
I76
sS'sufficiently'
p1508
I76
sS'touch'
p1509
I76
sS'polish'
p1510
I75
sS"he'll"
p1511
I76
sS'reality'
p1512
I76
sS'brianna'
p1513
I76
sS'dipped'
p1514
I76
sS'thinking'
p1515
I70
sS'rose'
p1516
I76
sS"everyone's"
p1517
I76
sS'seems'
p1518
I76
sS'except'
p1519
I76
sS'blog'
p1520
I76
sS'quitters'
p1521
I76
sS'lets'
p1522
I74
sS'ahhhh'
p1523
I76
sS'4'
p1524
I62
sS'halftime'
p1525
I76
sS'dicks'
p1526
I76
sS'dentist'
p1527
I76
sS'ca'
p1528
I67
sS'ross'
p1529
I75
sS'swim'
p1530
I75
sS'parra'
p1531
I76
sS'around'
p1532
I71
sS'kills'
p1533
I76
sS'marcus'
p1534
I76
sS'read'
p1535
I74
sS'mor'
p1536
I76
sS'psa'
p1537
I76
sS'gonna'
p1538
I53
sS'early'
p1539
I69
sS'mon'
p1540
I76
sS'listening'
p1541
I75
sS'world'
p1542
I65
sS'disappointed'
p1543
I75
sS'overate'
p1544
I76
sS'tatted'
p1545
I76
sS'in-n-out'
p1546
I72
sS'towel'
p1547
I76
sS'stranger'
p1548
I76
sS'patrice'
p1549
I76
sS'patrick'
p1550
I76
sS'dick"'
p1551
I76
sS'keyed'
p1552
I76
sS'roll'
p1553
I76
sS'04:45:09.0,33.75360075,-118.30886041,2963,what'
p1554
I76
sS'either'
p1555
I74
sS'robbery'
p1556
I76
sS'??!?!?"\xe2\x80\x9d'
p1557
I76
sS"jesus'"
p1558
I76
sS'seating'
p1559
I76
sS"couldn't"
p1560
I75
sS'grub'
p1561
I76
sS'calling'
p1562
I76
sS'prays,90732\n358113528445538304,mewmatt05,2013-07-19'
p1563
I76
sS'whaaaaat'
p1564
I76
sS'doooooor'
p1565
I76
sS'table'
p1566
I73
sS'twexting'
p1567
I76
sS'pickles'
p1568
I76
sS'thinks'
p1569
I76
sS'reasons'
p1570
I76
sS'gross'
p1571
I76
sS'slice'
p1572
I76
sS'outt'
p1573
I76
sS'mood'
p1574
I75
sS'memories'
p1575
I75
sS'nooo'
p1576
I76
sS'googled'
p1577
I76
sS'stops'
p1578
I76
sS'throat'
p1579
I76
sS'food,90731\n493240047072587776,suffibulum,2014-07-27'
p1580
I76
sS'recorder'
p1581
I76
sS'beach/forest'
p1582
I76
sS'quitting'
p1583
I76
sS'football'
p1584
I74
sS'2600'
p1585
I76
sS'power'
p1586
I76
sS'pouring'
p1587
I76
sS'lmfao'
p1588
I75
sS'nails'
p1589
I72
sS'arts'
p1590
I76
sS'meniscus'
p1591
I75
sS'broken'
p1592
I76
sS'tmwr...:)'
p1593
I76
sS';)'
p1594
I72
sS'embarassing'
p1595
I76
sS'throw'
p1596
I76
sS'lock'
p1597
I76
sS'on'
p1598
I17
sS'stone'
p1599
I76
sS'ol'
p1600
I76
sS'ok'
p1601
I65
sS'ace'
p1602
I76
sS'oh'
p1603
I66
sS'og'
p1604
I76
sS'of'
p1605
I12
sS'favorite'
p1606
I74
sS'thousands'
p1607
I76
sS'later,90731\n493394780219383808,lauryn_cara,2014-07-27'
p1608
I76
sS'stang'
p1609
I76
sS'decent'
p1610
I76
sS'strrrrips'
p1611
I76
sS'40mph'
p1612
I76
sS'luck'
p1613
I75
sS'or'
p1614
I49
sS'movemy'
p1615
I76
sS'amber'
p1616
I76
sS'ladies'
p1617
I76
sS'protests'
p1618
I76
sS'accent'
p1619
I76
sS'same.dumb'
p1620
I76
sS'child'
p1621
I76
sS'snapchat'
p1622
I75
sS'vacation'
p1623
I76
sS'earring'
p1624
I76
sS'accounts'
p1625
I76
sS'parties'
p1626
I76
sS'elementary'
p1627
I76
sS'wade'
p1628
I75
sS'shrinking'
p1629
I76
sS'your'
p1630
I33
sS'neymar'
p1631
I76
sS'-___-t'
p1632
I76
sS"how's"
p1633
I75
sS'her'
p1634
I63
sS'area'
p1635
I74
sS'strictly'
p1636
I76
sS'there'
p1637
I50
sS'housewives'
p1638
I76
sS'hey'
p1639
I69
sS'lol'
p1640
I29
sS'gunna'
p1641
I76
sS'low'
p1642
I75
sS'lot'
p1643
I73
sS'4:30'
p1644
I76
sS'work\xe2\x80\xa6'
p1645
I76
sS'wreckyoslovakia\xe2\x80\x9d'
p1646
I76
sS'energy'
p1647
I76
sS'misss'
p1648
I76
sS'chipotle*'
p1649
I76
sS'complete'
p1650
I75
sS'yayy'
p1651
I76
sS'rightt'
p1652
I76
sS'hahaja'
p1653
I76
sS'wallet....thought'
p1654
I76
sS'elimination'
p1655
I76
sS'e'
p1656
I76
sS'trying'
p1657
I68
sS'with'
p1658
I21
sS'buying'
p1659
I75
sS'pull'
p1660
I75
sS'rush'
p1661
I73
sS'maaan'
p1662
I76
sS'rage'
p1663
I76
sS"wasn't"
p1664
I73
sS'pacman'
p1665
I76
sS'"it\'s'
p1666
I76
sS'dirty'
p1667
I76
sS'in&out'
p1668
I76
sS'grass'
p1669
I76
sS'agree'
p1670
I72
sS'engine'
p1671
I76
sS'vehicles'
p1672
I76
sS'videos'
p1673
I75
sS'af'
p1674
I72
sS'taste'
p1675
I75
sS'certain'
p1676
I76
sS'man\xe2\x80\xbc\xef\xb8\x8f'
p1677
I76
sS'am'
p1678
I62
sS'replicable'
p1679
I76
sS'deep'
p1680
I74
sS'an'
p1681
I62
sS'as'
p1682
I50
sS'at'
p1683
I13
sS'burrito'
p1684
I74
sS'ay'
p1685
I76
sS'watched'
p1686
I76
sS'az'
p1687
I76
sS'rice.\xe2\x80\xa6'
p1688
I76
sS'06:48:14.0,33.7533769,-118.30872604,2963,getting'
p1689
I76
sS'cream'
p1690
I75
sS'again'
p1691
I71
sS'4.7'
p1692
I76
sS'idiot'
p1693
I75
sS'deserve'
p1694
I76
sS'ringtone'
p1695
I76
sS'tight'
p1696
I74
sS'5'
p1697
I72
sS'hmu'
p1698
I76
sS'instantly'
p1699
I76
sS'you'
p1700
I7
sS'rosey'
p1701
I76
sS'cheat..i'
p1702
I76
sS'gaining'
p1703
I76
sS'championship'
p1704
I76
sS'brando'
p1705
I76
sS'students'
p1706
I76
sS'teeth'
p1707
I76
sS'cove'
p1708
I74
sS'then?\xc2\xbf'
p1709
I76
sS'brandy'
p1710
I76
sS'gon'
p1711
I76
sS'poof'
p1712
I76
sS"pedro's"
p1713
I76
sS'chris'
p1714
I76
sS'a8'
p1715
I76
sS'woohooooo'
p1716
I76
sS'finals'
p1717
I74
sS'pool'
p1718
I76
sS'alcohol'
p1719
I75
sS'oras'
p1720
I75
sS'calls'
p1721
I74
sS'spend'
p1722
I73
sS'odds'
p1723
I76
sS'05:21:06.0,33.75064442,-118.30836314,2963,nighttime'
p1724
I76
sS'having'
p1725
I66
sS'posts'
p1726
I76
sS'one..fucking'
p1727
I76
sS'u'
p1728
I32
sS'alright'
p1729
I75
sS'songs'
p1730
I76
sS'starting'
p1731
I73
sS'grubbinnn'
p1732
I76
sS'all'
p1733
I30
sS'forget'
p1734
I75
sS'chinese'
p1735
I76
sS'katy'
p1736
I76
sS'beware'
p1737
I76
sS'lack'
p1738
I76
sS'dollar'
p1739
I76
sS'month'
p1740
I75
sS'hectors'
p1741
I76
sS'coach'
p1742
I75
sS'parmesan'
p1743
I76
sS'messy'
p1744
I76
sS'follow'
p1745
I50
sS'kick-ass'
p1746
I76
sS'children'
p1747
I76
sS'griffin'
p1748
I76
sS'apartment'
p1749
I76
sS'ty'
p1750
I74
sS'tv'
p1751
I76
sS'tu'
p1752
I65
sS'ts'
p1753
I70
sS'thursday'
p1754
I72
sS'champions'
p1755
I76
sS'to'
p1756
I4
sS'tweety'
p1757
I76
sS'baby\xe2\x9d\xa4\xef\xb8\x8f,90732\n396864371197894656,mattp107,2013-11-03'
p1758
I76
sS'tf'
p1759
I74
sS'smile'
p1760
I75
sS'enjoying'
p1761
I75
sS'aaaaaaaaaahhhhhhhhhhhh'
p1762
I76
sS'norm'
p1763
I76
sS'woman'
p1764
I76
sS'worse'
p1765
I76
sS'song'
p1766
I73
sS'far'
p1767
I70
sS'fav'
p1768
I73
sS'ted-ed'
p1769
I76
sS'fat'
p1770
I75
sS'me'
p1771
I15
sS'aware'
p1772
I76
sS'fan'
p1773
I74
sS'decide'
p1774
I76
sS'fall'
p1775
I75
sS'awful'
p1776
I74
sS'ticket'
p1777
I75
sS'faf'
p1778
I65
sS'treating'
p1779
I75
sS'trippin'
p1780
I75
sS'heaven'
p1781
I76
sS'mothers'
p1782
I75
sS'theaters'
p1783
I76
sS'large'
p1784
I76
sS'jope'
p1785
I76
sS'plain'
p1786
I76
sS'dodger'
p1787
I72
sS"i'll"
p1788
I64
sS'psycho-social'
p1789
I76
sS'cookies'
p1790
I74
sS'instagram'
p1791
I76
sS'tea'
p1792
I75
sS'yasssss'
p1793
I76
sS'past'
p1794
I73
sS'burger'
p1795
I72
sS'design'
p1796
I76
sS'nba'
p1797
I76
sS'chalk'
p1798
I76
sS'what'
p1799
I36
sS'one!:-)'
p1800
I76
sS'witnessed'
p1801
I76
sS'youuu'
p1802
I76
sS'anniversary'
p1803
I76
sS'whay'
p1804
I76
sS"krista's"
p1805
I76
sS'you,90732\n508441200395694083,maddieteran,2014-09-07'
p1806
I76
sS'nurse'
p1807
I76
sS'public'
p1808
I75
sS'sux'
p1809
I76
sS'revealing'
p1810
I76
sS'full'
p1811
I73
sS'longshoremen'
p1812
I76
sS'loose'
p1813
I76
sS"annie's"
p1814
I76
sS'10rebs'
p1815
I76
sS'hours'
p1816
I70
sS'maui'
p1817
I76
sS'2km'
p1818
I76
sS'november'
p1819
I76
sS'strong'
p1820
I72
sS'legend'
p1821
I76
sS'\xe0\xb9\x83\xe0\xb8\x8a\xe0\xb9\x88\xe0\xb9\x80\xe0\xb8\xa5\xe0\xb8\xa2\xe0\xb8\xa2555555'
p1822
I76
sS'pics'
p1823
I76
sS'lied'
p1824
I76
sS'laughing'
p1825
I76
sS'catfished'
p1826
I76
sS'rory'
p1827
I76
sS'pick'
p1828
I67
sS'disneyland'
p1829
I76
sS'sticking'
p1830
I76
sS'\xe2\x9d\xa4\xef\xb8\x8f\xe2\x9d\xa4\xef\xb8\x8f\xe2\x9d\xa4\xef\xb8\x8f\xe2\x9d\xa4\xef\xb8\x8f\xe2\x9d\xa4\xef\xb8\x8f'
p1831
I76
sS'via'
p1832
I76
sS'followed'
p1833
I76
sS'hahaah'
p1834
I76
sS'family'
p1835
I73
sS'suddenly'
p1836
I76
sS'put'
p1837
I60
sS'1904'
p1838
I76
sS'seester'
p1839
I76
sS'evernote'
p1840
I76
sS'takes'
p1841
I76
sS'answered'
p1842
I76
sS'a5)'
p1843
I74
sS'donuts'
p1844
I76
sS'two'
p1845
I69
sS'(2m'
p1846
I76
sS'pearl'
p1847
I76
sS'congratulated'
p1848
I76
sS'6'
p1849
I75
sS'taken'
p1850
I74
sS'more'
p1851
I54
sS'teen'
p1852
I76
sS'tryna'
p1853
I76
sS'door'
p1854
I75
sS'grabbing'
p1855
I75
sS'feel.\xe2\x80\x9d'
p1856
I76
sS'company'
p1857
I76
sS'askin'
p1858
I76
sS'mixtape'
p1859
I76
sS'instrumental'
p1860
I76
sS'floyd'
p1861
I76
sS"ain't"
p1862
I72
sS'basically'
p1863
I75
sS'lemons'
p1864
I76
sS'that\xe2\x80\x9d'
p1865
I76
sS'hurry'
p1866
I75
sS'glad'
p1867
I71
sS'town'
p1868
I75
sS'grill'
p1869
I73
sS'hour'
p1870
I74
sS'blah'
p1871
I73
sS'sucks'
p1872
I74
sS'roosevelt'
p1873
I76
sS'05:58:58.0,33.75327,-118.30267,2963,you'
p1874
I76
sS'sudden'
p1875
I76
sS'del'
p1876
I72
sS'dem'
p1877
I75
sS'draft.\xe2\x80\x9d'
p1878
I76
sS'knocked'
p1879
I76
sS'later.....much'
p1880
I76
sS'def'
p1881
I72
sS'history'
p1882
I75
sS'beautiful'
p1883
I73
sS"isit's"
p1884
I76
sS'division'
p1885
I76
sS'share'
p1886
I74
sS'accept'
p1887
I76
sS'fangirled'
p1888
I76
sS'states'
p1889
I76
sS'today....gotta'
p1890
I76
sS'salty'
p1891
I76
sS'numbers'
p1892
I75
sS'bucks'
p1893
I76
sS',90732\n506548442332545024,maddieteran,2014-09-01'
p1894
I76
sS'dress'
p1895
I75
sS'paid,90732\n446901080371118080,mewmatt05,2014-03-21'
p1896
I76
sS'hamburgers'
p1897
I76
sS'/'
p1898
I76
sS'concept'
p1899
I76
sS'huge'
p1900
I76
sS'needs'
p1901
I73
sS'goal'
p1902
I76
sS'awkward'
p1903
I75
sS'gaffey'
p1904
I75
sS'technology'
p1905
I76
sS'breaking'
p1906
I75
sS'everyday'
p1907
I73
sS'\xe2\x9a\xbe\xef\xb8\x8f'
p1908
I76
sS'21:29:05.0,33.75652173,-118.29232042,2963,k'
p1909
I76
sS'paloma'
p1910
I76
sS'blacked'
p1911
I76
sS'okay'
p1912
I70
sS'plans'
p1913
I75
sS'rude'
p1914
I76
sS'advice'
p1915
I76
sS'nails\xe2\x80\x9d'
p1916
I76
sS'blood'
p1917
I76
sS'coming'
p1918
I74
sS'bahaha'
p1919
I76
sS'tacos'
p1920
I76
sS'me"'
p1921
I76
sS'icepops>'
p1922
I76
sS'wtf\xe2\x80\x9d'
p1923
I76
sS'a'
p1924
I5
sS'short'
p1925
I76
sS'funday'
p1926
I76
sS'crowded'
p1927
I76
sS"that'd"
p1928
I76
sS'tweeting'
p1929
I74
sS'overnight'
p1930
I76
sS'volleyball'
p1931
I75
sS'discussing'
p1932
I76
sS'secs'
p1933
I75
sS'alcoholics'
p1934
I76
sS'ego'
p1935
I76
sS'scaring'
p1936
I76
sS'media'
p1937
I75
sS'banks'
p1938
I76
sS'lasting'
p1939
I76
sS'dream'
p1940
I74
sS'playing'
p1941
I74
sS"that's"
p1942
I62
sS'sabihin'
p1943
I76
sS'mexican'
p1944
I73
sS'help'
p1945
I75
sS"don't"
p1946
I41
sS'john'
p1947
I76
sS'sooo'
p1948
I76
sS'soon'
p1949
I71
sS'old.,90732\n322952026956890113,forrestjoness,2013-04-13'
p1950
I76
sS'through'
p1951
I75
sS'committed'
p1952
I76
sS'hell'
p1953
I74
sS'mcdonalds'
p1954
I74
sS'avenue'
p1955
I76
sS'its'
p1956
I70
sS'developer'
p1957
I76
sS"barraza's"
p1958
I76
sS'style'
p1959
I76
sS'pens'
p1960
I76
sS'21'
p1961
I75
sS'arian'
p1962
I75
sS'inward'
p1963
I76
sS'solving'
p1964
I76
sS'up,90275\n488236860846518273,sarasinsemilla_,2014-07-13'
p1965
I76
sS'duxs'
p1966
I76
sS'actually'
p1967
I71
sS'late'
p1968
I74
sS'bryant'
p1969
I76
sS'sunday-'
p1970
I76
sS'relate'
p1971
I76
sS'ringtones\xe2\x80\x9d'
p1972
I76
sS'inquiry'
p1973
I76
sS'bout'
p1974
I74
sS'soccer'
p1975
I71
sS'might'
p1976
I71
sS"haven't"
p1977
I70
sS'dolls'
p1978
I75
sS'hurting'
p1979
I76
sS'evening'
p1980
I76
sS'ya'
p1981
I69
sS'car"you'
p1982
I76
sS'males'
p1983
I76
sS'ralphs'
p1984
I76
sS'dayna'
p1985
I76
sS'walls'
p1986
I76
sS'hahahahahaha'
p1987
I76
sS'starbucks'
p1988
I75
sS'(while'
p1989
I76
sS'foot'
p1990
I76
sS'yr'
p1991
I76
sS'complain'
p1992
I76
sS'easily'
p1993
I75
sS'wishful'
p1994
I76
sS'grubbin'
p1995
I76
sS'everytime'
p1996
I75
sS'always'
p1997
I60
sS'drake'
p1998
I76
sS'bless'
p1999
I76
sS'tear'
p2000
I76
sS'someone'
p2001
I67
sS'stopped'
p2002
I76
sS'turns'
p2003
I75
sS'found'
p2004
I72
sS'shocking'
p2005
I76
sS'bryar'
p2006
I76
sS"isn't"
p2007
I68
sS'heavy'
p2008
I76
sS'(but'
p2009
I76
sS'harm'
p2010
I76
sS'everyone'
p2011
I65
sS'chevron'
p2012
I69
sS'house'
p2013
I73
sS'fish'
p2014
I76
sS'hard'
p2015
I69
sS'idea'
p2016
I69
sS'gun'
p2017
I75
sS'tonite'
p2018
I73
sS'connect'
p2019
I76
sS'beyond'
p2020
I75
sS'insurance'
p2021
I76
sS'really'
p2022
I48
sS'travels'
p2023
I76
sS'perry'
p2024
I76
sS'missed'
p2025
I74
sS'track'
p2026
I76
sS'since'
p2027
I68
sS'safety'
p2028
I76
sS'7'
p2029
I75
sS'reminder'
p2030
I76
sS'dunk'
p2031
I76
sS'issue'
p2032
I74
sS'sharon'
p2033
I76
sS'ass'
p2034
I61
sS'stewards'
p2035
I76
sS'wisconsin'
p2036
I76
sS'friday'
p2037
I68
sS'youso'
p2038
I76
sS'reason'
p2039
I73
sS'killin'
p2040
I76
sS'cookie'
p2041
I76
sS'giveaway'
p2042
I75
sS'fatass'
p2043
I76
sS'ask'
p2044
I67
sS'teach'
p2045
I76
sS'beginning'
p2046
I75
sS'generate'
p2047
I76
sS'lag'
p2048
I76
sS'chrises'
p2049
I76
sS'airport'
p2050
I76
sS'show!!!\xe2\x80\x9d'
p2051
I76
sS'terrible'
p2052
I76
sS'love\xe2\x9d\xa4\xe2\x9d\xa4'
p2053
I76
sS'caption'
p2054
I76
sS'american'
p2055
I76
sS'tahm'
p2056
I76
sS'w'
p2057
I71
sS'$250'
p2058
I76
sS'assign'
p2059
I76
sS'partnerships'
p2060
I76
sS'miso'
p2061
I76
sS'indigestion'
p2062
I76
sS'doge'
p2063
I76
sS'superbowl'
p2064
I76
sS'dont'
p2065
I73
sS'feel'
p2066
I65
sS'recruiting'
p2067
I76
sS'discouraged'
p2068
I76
sS'welcome'
p2069
I72
sS'valentine'
p2070
I76
sS'feet'
p2071
I75
sS'fucked'
p2072
I74
sS'done'
p2073
I67
sS'koufax'
p2074
I76
sS'copped'
p2075
I76
sS'mcflurry'
p2076
I76
sS'bitchessss'
p2077
I76
sS'miss'
p2078
I71
sS'guess'
p2079
I73
sS'"'
p2080
I74
sS'guest'
p2081
I75
sS'watches'
p2082
I76
sS'kinder'
p2083
I76
sS'gourmet'
p2084
I76
sS'least'
p2085
I70
sS'paint'
p2086
I75
sS'station'
p2087
I72
sS'pains'
p2088
I76
sS'mama'
p2089
I76
sS'entrepreneur'
p2090
I76
sS'store'
p2091
I76
sS'\xe2\x9c\x8c\xef\xb8\x8f'
p2092
I76
sS'wahhhh'
p2093
I76
sS'selling'
p2094
I76
sS'passed'
p2095
I76
sS'relationship'
p2096
I76
sS'behind'
p2097
I76
sS'you\xe2\x80\x9d'
p2098
I76
sS'hotel'
p2099
I76
sS'park'
p2100
I74
sS'leak"'
p2101
I76
sS'blondie'
p2102
I76
sS'part'
p2103
I73
sS'jordan'
p2104
I75
sS'boredom'
p2105
I76
sS'rain'
p2106
I76
sS'off'
p2107
I45
sS'$4'
p2108
I76
sS'believe'
p2109
I73
sS'$1'
p2110
I76
sS'king'
p2111
I76
sS'b'
p2112
I73
sS'niklas'
p2113
I76
sS'double'
p2114
I73
sS'instruction'
p2115
I76
sS'stalk'
p2116
I76
sS'supposed'
p2117
I75
sS'ousted'
p2118
I75
sS'berrics'
p2119
I76
sS"mam'"
p2120
I76
sS'interactive'
p2121
I75
sS'mickey'
p2122
I76
sS'yeee'
p2123
I76
sS'juice'
p2124
I74
sS'orders'
p2125
I76
sS'vulnerable'
p2126
I76
sS'welp'
p2127
I76
sS'nights'
p2128
I75
sS'lil'
p2129
I72
sS'self'
p2130
I76
sS'acing'
p2131
I76
sS'lit'
p2132
I75
sS'also'
p2133
I74
sS'a**'
p2134
I76
sS'handel'
p2135
I76
sS'relax.\xe2\x80\x9d'
p2136
I76
sS'thing,90275\n505245524669124608,mewmatt05,2014-08-29'
p2137
I76
sS'play'
p2138
I72
sS'compa'
p2139
I76
sS'reckon'
p2140
I76
sS'quote'
p2141
I76
sS'eater'
p2142
I76
sS'kosta'
p2143
I76
sS'most'
p2144
I72
sS'plan'
p2145
I71
sS'eaten'
p2146
I75
sS'nothing'
p2147
I71
sS'11:11'
p2148
I76
sS'extremely'
p2149
I76
sS'grumpy'
p2150
I76
sS'ka'
p2151
I76
sS'5-6'
p2152
I76
sS'ke'
p2153
I76
sS'mobile'
p2154
I76
sS'doggie'
p2155
I76
sS'sometimes'
p2156
I75
sS'5-9'
p2157
I76
sS'06:47:23.0,33.75344608,-118.30872151,2963,sports'
p2158
I76
sS"they'll"
p2159
I76
sS'clean'
p2160
I75
sS'add'
p2161
I76
sS'\xe2\x98\x80\xef\xb8\x8f'
p2162
I74
sS'charged'
p2163
I76
sS'hips'
p2164
I76
sS'joining'
p2165
I76
sS'ugh'
p2166
I72
sS'gold'
p2167
I76
sS'ciroc'
p2168
I76
sS'hillside'
p2169
I75
sS'session'
p2170
I76
sS'fine'
p2171
I73
sS'find'
p2172
I70
sS'phooey'
p2173
I76
sS'impact'
p2174
I76
sS'$5'
p2175
I76
sS'duncan'
p2176
I76
sS'nervous'
p2177
I76
sS'bestfriends'
p2178
I76
sS'wtg/wtr'
p2179
I76
sS'wayne'
p2180
I76
sS'pretty'
p2181
I60
sS"09:20:00.0,33.75044168,-118.30733875,2963,there's"
p2182
I76
sS'8'
p2183
I74
sS"mom's"
p2184
I76
sS'his'
p2185
I67
sS'hit'
p2186
I65
sS'bug'
p2187
I76
sS'remedy'
p2188
I76
sS'reply'
p2189
I76
sS'during'
p2190
I76
sS'do\xe2\x80\x9d'
p2191
I76
sS'him'
p2192
I68
sS'dustin'
p2193
I76
sS'showed'
p2194
I76
sS'cry'
p2195
I76
sS',90731\n512088203541504000,maddieteran,2014-09-17'
p2196
I76
sS'weds'
p2197
I76
sS'cartoons'
p2198
I76
sS'gotten'
p2199
I76
sS'hype'
p2200
I76
sS'days\xe2\x80\x9d'
p2201
I76
sS'set'
p2202
I73
sS'ser'
p2203
I76
sS'dump'
p2204
I76
sS'supporting'
p2205
I76
sS'throwing'
p2206
I76
sS'vine'
p2207
I76
sS'\xe2\x9c\x94bridal'
p2208
I76
sS'culture'
p2209
I76
sS'see'
p2210
I49
sS'dumb'
p2211
I75
sS'are'
p2212
I31
sS'close'
p2213
I73
sS'sh*t'
p2214
I75
sS'arm'
p2215
I75
sS'seat,90731\n500326687939117058,lauryn_cara,2014-08-15'
p2216
I76
sS'pokemon'
p2217
I76
sS'pictures'
p2218
I75
sS'wow'
p2219
I64
sS'currently'
p2220
I76
sS'please'
p2221
I69
sS'fans'
p2222
I73
sS'won'
p2223
I74
sS'guilt'
p2224
I76
sS'soulmate'
p2225
I76
sS"other's"
p2226
I76
sS'nope'
p2227
I75
sS'"brain'
p2228
I76
sS'available'
p2229
I76
sS'week,90732\n505245309509722113,mewmatt05,2014-08-29'
p2230
I76
sS'chapstick'
p2231
I76
sS'keyboard'
p2232
I76
sS'sold'
p2233
I76
sS'spoiled'
p2234
I76
sS'outfit'
p2235
I76
sS'raver'
p2236
I76
sS'cashier,90732\n403691238685032448,mattp107,2013-11-22'
p2237
I76
sS'effed'
p2238
I76
sS'fame'
p2239
I76
sS'delivering'
p2240
I76
sS'pissed'
p2241
I74
sS'both'
p2242
I72
sS'c'
p2243
I76
sS'10th'
p2244
I76
sS'last'
p2245
I62
sS'munching'
p2246
I76
sS"wouldn't"
p2247
I72
sS'packing'
p2248
I76
sS'thor'
p2249
I76
sS'mcdonald'
p2250
I76
sS'forgotten'
p2251
I76
sS'thoe'
p2252
I76
sS'weirdo'
p2253
I76
sS'\xef\xb8\x8flmao'
p2254
I76
sS'bond'
p2255
I76
sS'whole'
p2256
I72
sS'vida'
p2257
I76
sS'baltimore'
p2258
I76
sS'patty'
p2259
I76
sS'liked'
p2260
I74
sS'point'
p2261
I74
sS'simple'
p2262
I74
sS'das'
p2263
I76
sS'\xe0\xb8\x97\xe0\xb8\xb3\xe0\xb9\x84\xe0\xb8\xa1\xe0\xb9\x84\xe0\xb8\xa1\xe0\xb9\x88\xe0\xb8\x8a\xe0\xb8\xad\xe0\xb8\x9a\xe0\xb9\x83\xe0\xb8\xaa\xe0\xb9\x88\xe0\xb9\x80\xe0\xb8\xaa\xe0\xb8\xb7\xe0\xb9\x89\xe0\xb8\xad\xe0\xb8\x81\xe0\xb8\xa5\xe0\xb9\x89\xe0\xb8\xb2\xe0\xb8\xa1\xe0\xb8\xad\xe0\xb8\xb0'
p2264
I76
sS'community'
p2265
I74
sS'patricia'
p2266
I76
sS'header'
p2267
I76
sS"'mysterious"
p2268
I76
sS'badminton'
p2269
I76
sS'likes'
p2270
I73
sS'rave'
p2271
I75
sS"rockin'"
p2272
I76
sS'patiently'
p2273
I76
sS'duh'
p2274
I76
sS'pp'
p2275
I76
sS'pv'
p2276
I75
sS'create'
p2277
I75
sS'acceptance'
p2278
I76
sS'political'
p2279
I76
sS'verse'
p2280
I76
sS'teacher'
p2281
I76
sS'hitting'
p2282
I76
sS'karly'
p2283
I76
sS'dropping'
p2284
I76
sS'damn'
p2285
I66
sS'assorted'
p2286
I76
sS'armory'
p2287
I76
sS'yogurtland'
p2288
I75
sS'meeting'
p2289
I75
sS'whoa'
p2290
I75
sS'important'
p2291
I76
sS'attractive'
p2292
I76
sS'slips'
p2293
I76
sS'affectionate'
p2294
I76
sS'like"'
p2295
I76
sS'gay'
p2296
I73
sS'sending'
p2297
I76
sS'fire'
p2298
I75
sS'ages'
p2299
I76
sS"what's"
p2300
I73
sS'gas'
p2301
I73
sS'out<'
p2302
I76
sS'dildo'
p2303
I76
sS'anthony'
p2304
I76
sS'fund'
p2305
I76
sS'awake'
p2306
I75
sS'yessss'
p2307
I76
sS'acyrlics'
p2308
I76
sS'mlb'
p2309
I76
sS'look'
p2310
I66
sS'tomorrow...of'
p2311
I76
sS'solid'
p2312
I76
sS'catfish'
p2313
I76
sS'straight'
p2314
I75
sS'convo'
p2315
I76
sS'budget'
p2316
I76
sS'healthy'
p2317
I75
sS'while'
p2318
I69
sS'homework'
p2319
I76
sS'hbd'
p2320
I76
sS'fun'
p2321
I73
sS',90731\n503970992218066944,lauryn_cara,2014-08-25'
p2322
I76
sS'leland'
p2323
I76
sS'guide'
p2324
I75
sS'2night'
p2325
I76
sS'real'
p2326
I62
sS'pound'
p2327
I76
sS'"fixed"'
p2328
I76
sS'portugal'
p2329
I75
sS'cents'
p2330
I76
sS'<<'
p2331
I76
sS'ducks'
p2332
I75
sS'rin'
p2333
I76
sS'st.)'
p2334
I76
sS'ready'
p2335
I66
sS'chase'
p2336
I76
sS'salons'
p2337
I76
sS'funny'
p2338
I74
sS'cockerin'
p2339
I76
sS'anymore'
p2340
I76
sS'urself'
p2341
I76
sS'rules'
p2342
I76
sS'delicious'
p2343
I75
sS'higher'
p2344
I76
sS'hallway'
p2345
I76
sS'sya'
p2346
I76
sS'used'
p2347
I74
sS'temporary'
p2348
I76
sS'optic'
p2349
I76
sS'lie'
p2350
I76
sS"06:46:31.0,33.75340184,-118.3087112,2963,can't"
p2351
I76
sS'yesterday'
p2352
I74
sS'flows'
p2353
I76
sS'*cries'
p2354
I76
sS'usually'
p2355
I76
sS'moment'
p2356
I72
sS'arrived'
p2357
I76
sS'purpose'
p2358
I76
sS'pedro"'
p2359
I76
sS'strappin'
p2360
I76
sS'pedro)'
p2361
I75
sS'euro'
p2362
I75
sS'dark'
p2363
I76
sS'tomorrw'
p2364
I76
sS'shoudve'
p2365
I76
sS'anybody'
p2366
I76
sS'grind'
p2367
I76
sS'person'
p2368
I73
sS'cheer'
p2369
I74
sS'edge'
p2370
I76
sS'homecoming'
p2371
I76
sS'chemistry'
p2372
I76
sS'appalled'
p2373
I76
sS'know'
p2374
I41
sS'alvin'
p2375
I76
sS'mom'
p2376
I61
sS'*right'
p2377
I76
sS'boutta'
p2378
I76
sS'blueray'
p2379
I76
sS'questions'
p2380
I75
sS'using'
p2381
I76
sS'&"heaven'
p2382
I76
sS'hiking'
p2383
I76
sS'cup'
p2384
I65
sS'lady'
p2385
I73
sS'bug...well'
p2386
I76
sS'education'
p2387
I76
sS'cuz'
p2388
I70
sS'rangers'
p2389
I76
sS'parents'
p2390
I76
sS'homies'
p2391
I76
sS'snap'
p2392
I75
sS'input'
p2393
I76
sS'excited'
p2394
I66
sS'surprised'
p2395
I73
sS'hater'
p2396
I75
sS'siri'
p2397
I76
sS'hdgotta'
p2398
I76
sS'big'
p2399
I70
sS'couple'
p2400
I75
sS'educator'
p2401
I76
sS'albino'
p2402
I76
sS'matters'
p2403
I76
sS'game'
p2404
I56
sS'kasi'
p2405
I76
sS'bit'
p2406
I74
sS'moody'
p2407
I76
sS"19:12:42.0,33.75517025,-118.29602553,2963,couldn't"
p2408
I76
sS'knock'
p2409
I76
sS'd'
p2410
I75
sS'wingstop'
p2411
I76
sS'message'
p2412
I76
sS'fire,90732\n391719970125520896,mattp107,2013-10-20'
p2413
I76
sS'nipple'
p2414
I75
sS'whooooo'
p2415
I76
sS'ho'
p2416
I76
sS'limo'
p2417
I76
sS'waitin'
p2418
I76
sS'sketch'
p2419
I76
sS'partying'
p2420
I75
sS'saturdays'
p2421
I76
sS'w/permits'
p2422
I76
sS'fucking'
p2423
I65
sS'spring'
p2424
I74
sS'05:55:18.0,33.75247635,-118.30887071,2963,done'
p2425
I76
sS'fake'
p2426
I76
sS'some'
p2427
I40
sS'back'
p2428
I61
sS'b4'
p2429
I76
sS'lips'
p2430
I74
sS'sprint'
p2431
I76
sS'ourselves'
p2432
I76
sS'reruns'
p2433
I76
sS'closest'
p2434
I76
sS'tchg'
p2435
I76
sS'absolutely'
p2436
I75
sS'shall'
p2437
I75
sS'pen'
p2438
I76
sS'prof'
p2439
I76
sS'bruhhh'
p2440
I76
sS't'
p2441
I75
sS'be'
p2442
I26
sS'bf'
p2443
I76
sS'eating'
p2444
I75
sS'omgg'
p2445
I76
sS'bb'
p2446
I75
sS'bc'
p2447
I75
sS'300'
p2448
I76
sS'word'
p2449
I75
sS'chick'
p2450
I74
sS'from'
p2451
I50
sS'ranchos'
p2452
I75
sS'by'
p2453
I54
sS'wildlife'
p2454
I76
sS'works'
p2455
I76
sS'handbags'
p2456
I76
sS'anything'
p2457
I74
sS'netflix'
p2458
I76
sS"mcdonald's"
p2459
I72
sS'truck'
p2460
I74
sS'idk'
p2461
I74
sS'mouth'
p2462
I76
sS'hahahah'
p2463
I76
sS'ppl'
p2464
I72
sS'seeing'
p2465
I76
sS'.....most'
p2466
I76
sS'auntie'
p2467
I76
sS'into'
p2468
I67
sS'mills'
p2469
I76
sS'?focus'
p2470
I76
sS'momma'
p2471
I76
sS'nigga'
p2472
I64
sS'wiggle....wiggle....wiggle'
p2473
I76
sS'ayyy'
p2474
I76
sS'lesson'
p2475
I76
sS'lebron'
p2476
I71
sS'rolls'
p2477
I76
sS'smells'
p2478
I72
sS'katie'
p2479
I76
sS'obsessions'
p2480
I76
sS'spending'
p2481
I74
sS'question'
p2482
I73
sS'ca)'
p2483
I48
sS'fast'
p2484
I74
sS'custom'
p2485
I76
sS"we're"
p2486
I71
sS'bridesmaids'
p2487
I76
sS'bruh'
p2488
I74
sS'forward'
p2489
I76
sS'bored'
p2490
I75
sS'hawaiian'
p2491
I76
sS'13:57:37.0,33.75499805,-118.29547014,2963,sunday'
p2492
I76
sS'poster'
p2493
I76
sS'thief'
p2494
I76
sS'boys'
p2495
I76
sS'kulang'
p2496
I76
sS'fake,90732\n460320884868136961,miggstuhh69_,2014-04-27'
p2497
I76
sS'00:18:13.0,33.75077055,-118.30872595,2963,when'
p2498
I76
sS'line'
p2499
I73
sS'raccoon'
p2500
I76
sS'info'
p2501
I76
sS'spa)'
p2502
I76
sS'impt'
p2503
I76
sS'uu'
p2504
I76
sS'fries'
p2505
I74
sS"hasn't"
p2506
I75
sS'us'
p2507
I63
sS'ur'
p2508
I69
sS'played'
p2509
I76
sS'faded'
p2510
I75
sS'highlight'
p2511
I76
sS'ua'
p2512
I76
sS'called'
p2513
I75
sS'yelled'
p2514
I76
sS'camp'
p2515
I76
sS'ordered'
p2516
I76
sS'adults'
p2517
I76
sS'ko'
p2518
I76
sS'siachristopoulos'
p2519
I75
sS'single'
p2520
I75
sS'sharing'
p2521
I76
sS'curb'
p2522
I76
sS'chat'
p2523
I69
sS'field'
p2524
I76
sS'cafe'
p2525
I48
sS'kidney'
p2526
I76
sS'tite'
p2527
I76
sS'sunken'
p2528
I76
sS'nah'
p2529
I71
sS'rescue"'
p2530
I76
sS'fracking'
p2531
I76
sS'excuses'
p2532
I76
sS'nap'
p2533
I75
sS'points'
p2534
I76
sS'pronouns'
p2535
I76
sS'ask.fm'
p2536
I76
sS'manhattan'
p2537
I76
sS'wishing'
p2538
I76
sS'nice'
p2539
I67
sS'dale'
p2540
I76
sS'sutra'
p2541
I76
sS'mustard'
p2542
I76
sS'2-legged'
p2543
I76
sS'cklsts'
p2544
I76
sS'goooooood'
p2545
I76
sS'05:00:14.0,33.75360271,-118.30887836,2963,jeff'
p2546
I76
sS'prepared'
p2547
I76
sS'helping'
p2548
I76
sS'outs'
p2549
I76
sS'lent'
p2550
I76
sS'genetics'
p2551
I76
sS'desert'
p2552
I76
sS'borland'
p2553
I76
sS'ago'
p2554
I76
sS'land'
p2555
I74
sS'texted'
p2556
I76
sS'agh'
p2557
I75
sS'nick\xe2\x80\xbc\xef\xb8\x8fhope'
p2558
I76
sS'backed'
p2559
I76
sS'walked'
p2560
I76
sS'depth'
p2561
I76
sS'2004'
p2562
I76
sS'granted.\xe2\x80\x9d'
p2563
I76
sS"she's"
p2564
I72
sS'hello'
p2565
I73
sS'once'
p2566
I73
sS'edc'
p2567
I75
sS'results'
p2568
I76
sS'clubbin'
p2569
I76
sS'hyper'
p2570
I76
sS'freakin'
p2571
I75
sS'go'
p2572
I32
sS'gossip'
p2573
I76
sS'tweeted'
p2574
I76
sS'betterme'
p2575
I76
sS'glows'
p2576
I76
sS'young'
p2577
I74
sS'send'
p2578
I76
sS'notability'
p2579
I76
sS'maddie'
p2580
I76
sS'00:48:53.0,33.75500934,-118.29567821,2963,happy'
p2581
I76
sS'sent'
p2582
I75
sS'jakob'
p2583
I76
sS'outside'
p2584
I73
sS'dessert'
p2585
I76
sS'tchr)'
p2586
I76
sS'flirted'
p2587
I76
sS'wavy'
p2588
I76
sS'putting'
p2589
I75
sS'drinking'
p2590
I76
sS'foolies'
p2591
I76
sS'06:48:46.0,33.75340995,-118.30884038,2963,got'
p2592
I76
sS'scaramouche'
p2593
I75
sS'\xe0\xb8\x81\xe0\xb8\xb8'
p2594
I76
sS'entire'
p2595
I75
sS'stiff'
p2596
I76
sS'evreyone'
p2597
I76
sS'harborview'
p2598
I75
sS'michael'
p2599
I76
sS'eve'
p2600
I76
sS'try'
p2601
I73
sS'eeeeee'
p2602
I76
sS'race'
p2603
I75
sS'whiteout'
p2604
I76
sS':)\xe2\x80\x9d'
p2605
I76
sS'radio'
p2606
I76
sS'ride'
p2607
I76
sS'booty'
p2608
I76
sS"you'd"
p2609
I76
sS'\xe2\x9d\xa4'
p2610
I76
sS'licensed'
p2611
I76
sS'jump'
p2612
I76
sS'video'
p2613
I74
sS'traveling'
p2614
I76
sS'picked'
p2615
I76
sS'reunion'
p2616
I76
sS'wheat'
p2617
I76
sS'odd'
p2618
I76
sS'submit'
p2619
I76
sS'depression'
p2620
I76
sS'*stank'
p2621
I76
sS'ladera'
p2622
I76
sS'mabigyan'
p2623
I76
sS'wallet'
p2624
I76
sS'giving'
p2625
I76
sS'slight'
p2626
I76
sS'espresso'
p2627
I76
sS"stella's"
p2628
I76
sS'seconds'
p2629
I75
sS'waiting'
p2630
I72
sS'unreal'
p2631
I76
sS'playn'
p2632
I76
sS'body'
p2633
I74
sS'delighted'
p2634
I76
sS'lee'
p2635
I76
sS'pushing'
p2636
I76
sS'commercial'
p2637
I76
sS'leo'
p2638
I76
sS'raspberries'
p2639
I76
sS"coppin'"
p2640
I76
sS'everyone\xe2\x80\xbc\xef\xb8\x8f'
p2641
I76
sS'let'
p2642
I67
sS'others'
p2643
I74
sS'sexy'
p2644
I76
sS'haters'
p2645
I76
sS'talk-based'
p2646
I76
sS'ukraine'
p2647
I76
sS'great'
p2648
I49
sS'\xe2\x9a\xbd\xef\xb8\x8f'
p2649
I75
sS'30'
p2650
I75
sS'37'
p2651
I76
sS'36'
p2652
I76
sS'leaving'
p2653
I75
sS'3+'
p2654
I76
sS'rdg'
p2655
I75
sS'geeeet'
p2656
I76
sS'survey'
p2657
I76
sS"weren't"
p2658
I76
sS'defeat'
p2659
I76
sS'cyrus"i'
p2660
I76
sS'gene'
p2661
I76
sS'makes'
p2662
I72
sS'honor'
p2663
I76
sS'lot...fuck'
p2664
I76
sS'thats'
p2665
I74
sS'wig'
p2666
I76
sS'named'
p2667
I75
sS'apple'
p2668
I76
sS'apr'
p2669
I76
sS'win'
p2670
I67
sS'limp'
p2671
I76
sS'manage'
p2672
I76
sS'wii'
p2673
I76
sS'15:22:32.0,33.75503241,-118.29574155,2963,about'
p2674
I76
sS'sacrilegious'
p2675
I76
sS'crosby'
p2676
I76
sS'names'
p2677
I75
sS'standing'
p2678
I74
sS'use'
p2679
I69
sS'hahahahaha'
p2680
I75
sS'crap'
p2681
I75
sS'&'
p2682
I40
sS'!!!!,90732\n488237697928929280,sarasinsemilla_,2014-07-13'
p2683
I76
sS'cray'
p2684
I74
sS'\xe2\x99\xa5\xef\xb8\x8f'
p2685
I76
sS'next'
p2686
I66
sS'few'
p2687
I76
sS'doubt'
p2688
I75
sS'scariest'
p2689
I76
sS'0.0'
p2690
I76
sS'cosmo'
p2691
I76
sS'babe'
p2692
I75
sS'aphrodite'
p2693
I76
sS'started'
p2694
I74
sS'?s'
p2695
I74
sS'though:)'
p2696
I76
sS'sister'
p2697
I70
sS'confused'
p2698
I76
sS'hes'
p2699
I76
sS'gettin'
p2700
I76
sS'baby'
p2701
I73
sS'teller'
p2702
I76
sS'folder'
p2703
I76
sS'women'
p2704
I76
sS'kalimera'
p2705
I76
sS'animals'
p2706
I76
sS'salad'
p2707
I73
sS'this'
p2708
I16
sS'challenge'
p2709
I76
sS'?,90275\n460327279466262528,miggstuhh69_,2014-04-27'
p2710
I76
sS'anywhere'
p2711
I75
sS'32pts'
p2712
I76
sS'praise'
p2713
I76
sS'meet'
p2714
I71
sS'bend'
p2715
I76
sS'bittersweet'
p2716
I76
sS'lmfao"'
p2717
I76
sS'yeaaaa'
p2718
I76
sS'thirsty'
p2719
I76
sS'plate'
p2720
I76
sS'oc'
p2721
I75
sS'halloween'
p2722
I74
sS'high'
p2723
I69
sS'villain'
p2724
I75
sS'something'
p2725
I70
sS'14:59:34.0,33.75513169,-118.29583958,2963,night'
p2726
I76
sS'tah'
p2727
I76
sS'native'
p2728
I76
sS'sis'
p2729
I76
sS'comes'
p2730
I76
sS'08/09'
p2731
I76
sS'sit'
p2732
I74
sS'arrangement'
p2733
I76
sS'located'
p2734
I76
sS'animal'
p2735
I75
sS'"some'
p2736
I76
sS'nosegrind'
p2737
I76
sS'instead'
p2738
I75
sS'casino'
p2739
I76
sS'stock'
p2740
I76
sS'profile'
p2741
I76
sS'tension'
p2742
I76
sS'watch'
p2743
I64
sS'youve'
p2744
I76
sS'collection'
p2745
I76
sS'ronald'
p2746
I76
sS'discomfort'
p2747
I76
sS'stars'
p2748
I76
sS'taco'
p2749
I75
sS'hahahaha'
p2750
I75
sS'spelling'
p2751
I76
sS'out*'
p2752
I76
sS'idgaf'
p2753
I76
sS'realized'
p2754
I76
sS'ot'
p2755
I76
sS'tagalog'
p2756
I76
sS',90731\n500445761805377536,suffibulum,2014-08-16'
p2757
I76
sS'noises'
p2758
I76
sS'reminders'
p2759
I76
sS'bofa'
p2760
I76
sS'missing'
p2761
I76
sS'honestly'
p2762
I73
sS'brette'
p2763
I76
sS'addiction'
p2764
I76
sS'thanksi'
p2765
I76
sS'areas'
p2766
I76
sS'move'
p2767
I76
sS'petco'
p2768
I76
sS'quietly'
p2769
I76
sS'sperm'
p2770
I76
sS"won't"
p2771
I76
sS'looks'
p2772
I75
sS'cruise'
p2773
I76
sS'mentioned'
p2774
I76
sS'bunch'
p2775
I76
sS'perfect'
p2776
I73
sS'1'
p2777
I76
sS'blake'
p2778
I76
sS'lb'
p2779
I76
sS'la'
p2780
I69
sS',90731\n491972591892967424,lauryn_cara,2014-07-23'
p2781
I76
sS'housewife'
p2782
I76
sS'[pic]'
p2783
I76
sS'color\xe2\x80\x9d'
p2784
I76
sS'2014'
p2785
I76
sS'bye'
p2786
I76
sS'hoffman'
p2787
I76
sS'soa'
p2788
I76
sS'dad'
p2789
I74
sS'designs'
p2790
I76
sS'cust'
p2791
I76
sS'tov'
p2792
I76
sS'auto'
p2793
I76
sS'dan'
p2794
I75
sS'practice'
p2795
I75
sS'06:48:15.0,33.75345821,-118.30876501,2963,tat'
p2796
I76
sS'dat'
p2797
I73
sS'aft'
p2798
I76
sS'cutting'
p2799
I76
sS'mula'
p2800
I76
sS'hands'
p2801
I74
sS'front'
p2802
I74
sS'marlins'
p2803
I76
sS'day'
p2804
I38
sS'literacy'
p2805
I76
sS'irks'
p2806
I76
sS'nfl'
p2807
I74
sS'lifetime'
p2808
I76
sS'18:23:42.0,33.75520793,-118.29560551,2963,jays'
p2809
I76
sS'delightful'
p2810
I76
sS'magnitude'
p2811
I76
sS'mode'
p2812
I76
sS'truth'
p2813
I76
sS'princesses'
p2814
I76
sS"ya'll"
p2815
I76
sS'|'
p2816
I76
sS'06:53:05.0,33.75338189,-118.30874791,2963,hahahah'
p2817
I76
sS'salsa'
p2818
I76
sS'doing'
p2819
I73
sS'apologize'
p2820
I76
sS'waking'
p2821
I76
sS'unbelievable'
p2822
I76
sS'related'
p2823
I76
sS'88'
p2824
I76
sS'books'
p2825
I73
sS':))))))'
p2826
I75
sS'our'
p2827
I69
sS'tenth'
p2828
I76
sS'special'
p2829
I76
sS'out'
p2830
I23
sS'secretly'
p2831
I75
sS'critics'
p2832
I76
sS'erupt'
p2833
I76
sS'hilarious'
p2834
I76
sS"time'"
p2835
I76
sS'cause'
p2836
I68
sS'math'
p2837
I75
sS'ferlazzo'
p2838
I76
sS'shut'
p2839
I75
sS'"mom'
p2840
I76
sS'yaaayyy'
p2841
I76
sS'rompers'
p2842
I76
sS'honeyboba\xe2\x9d\xa4\xef\xb8\x8f'
p2843
I76
sS'york'
p2844
I76
sS'straightened'
p2845
I76
sS'argentineans'
p2846
I76
sS'philip'
p2847
I76
sS'distinctive'
p2848
I76
sS'craving'
p2849
I73
sS'scary'
p2850
I74
sS'wheeling'
p2851
I76
sS'shleeeee'
p2852
I76
sS'swearrrrr'
p2853
I76
sS'snapchats'
p2854
I76
sS'could'
p2855
I68
sS'(810'
p2856
I76
sS'frrrrr'
p2857
I76
sS'david'
p2858
I73
sS'conversation'
p2859
I76
sS'49ers'
p2860
I76
sS'4th'
p2861
I75
sS"d'usse"
p2862
I76
sS'chills'
p2863
I76
sS'south'
p2864
I76
sS'loi'
p2865
I76
sS'powerful'
p2866
I74
sS'embarrassed'
p2867
I76
sS'12thplanet'
p2868
I76
sS'bitch'
p2869
I63
sS'lagging'
p2870
I76
sS'mah'
p2871
I76
sS'labron'
p2872
I76
sS'reached'
p2873
I76
sS'blows'
p2874
I76
sS'hehe'
p2875
I74
sS'heroes'
p2876
I76
sS"you're"
p2877
I64
sS'righ'
p2878
I76
sS'02:29:11.0,33.75447175,-118.29255785,2963,day'
p2879
I76
sS'dahil'
p2880
I76
sS'start'
p2881
I71
sS'ordering'
p2882
I75
sS'redondo'
p2883
I76
sS'maurice'
p2884
I76
sS'seat'
p2885
I76
sS'adopted'
p2886
I76
sS'their'
p2887
I66
sS'attack'
p2888
I76
sS'dahilan'
p2889
I76
sS'ticklish'
p2890
I76
sS'final'
p2891
I75
sS'booth'
p2892
I76
sS'malibu'
p2893
I76
sS'x-rays'
p2894
I76
sS'midnight,90731\n492471512926941185,lauryn_cara,2014-07-25'
p2895
I76
sS'shorts'
p2896
I76
sS'day?a'
p2897
I76
sS'depressing'
p2898
I75
sS'grandpa'
p2899
I76
sS'fuk'
p2900
I76
sS'annoying,90732\n508117829069971456,maddieteran,2014-09-06'
p2901
I76
sS'july'
p2902
I75
sS'botox'
p2903
I76
sS'loved'
p2904
I71
sS'hot.like'
p2905
I76
sS'kickback'
p2906
I76
sS'boring'
p2907
I74
sS'03:51:21.0,33.75352129,-118.30860756,2963,i'
p2908
I76
sS"kanye's"
p2909
I76
sS'bed'
p2910
I72
sS'arco)'
p2911
I75
sS'gayy'
p2912
I76
sS'firework'
p2913
I76
sS'cravings'
p2914
I76
sS'loves'
p2915
I73
sS'ipas'
p2916
I76
sS'sec'
p2917
I76
sS'country'
p2918
I76
sS'spurs'
p2919
I75
sS'f15'
p2920
I76
sS'1.5'
p2921
I75
sS'\\m/'
p2922
I76
sS'julian'
p2923
I76
sS'carrots'
p2924
I76
sS'comfortable'
p2925
I76
sS'tonight'
p2926
I52
sS'have'
p2927
I26
sS'need'
p2928
I57
sS'apparently'
p2929
I76
sS'angie'
p2930
I76
sS'soak'
p2931
I76
sS'min'
p2932
I75
sS'able'
p2933
I75
sS'hangover'
p2934
I76
sS'retweet'
p2935
I76
sS'esc_south'
p2936
I76
sS'which'
p2937
I75
sS'hs'
p2938
I75
sS'so'
p2939
I19
sS'techniques'
p2940
I76
sS'='
p2941
I73
sS'savages'
p2942
I76
sS'hq'
p2943
I76
sS'unless'
p2944
I76
sS'aww'
p2945
I76
sS'shana'
p2946
I76
sS'who'
p2947
I62
sS'dumbasses'
p2948
I76
sS"where's"
p2949
I76
sS'oneeee'
p2950
I76
sS'but'
p2951
I36
sS'handbag'
p2952
I76
sS'future'
p2953
I76
sS'sally'
p2954
I76
sS'why'
p2955
I47
sS'weho'
p2956
I76
sS'haylies'
p2957
I75
sS'refreshing'
p2958
I76
sS'fuckkkkk'
p2959
I76
sS'face'
p2960
I73
sS'looked'
p2961
I76
sS"you'll"
p2962
I72
sS'hi'
p2963
I74
sS"wayforward's"
p2964
I76
sS'movie'
p2965
I74
sS'1.24mi'
p2966
I76
sS'scrap'
p2967
I76
sS'fact'
p2968
I74
sS'whatsup'
p2969
I76
sS'catalina'
p2970
I76
sS'sorry,90275\n444402553996857344,sarasinsemilla_,2014-03-14'
p2971
I76
sS'text'
p2972
I72
sS'test..waiting'
p2973
I76
sS'paaaaattttttttttyyyyy'
p2974
I76
sS'pissed"'
p2975
I76
sS'bring'
p2976
I71
sS'parked'
p2977
I75
sS'chicken'
p2978
I73
sS'one'
p2979
I42
sS'partners'
p2980
I76
sS'highest'
p2981
I76
sS'based'
p2982
I76
sS'('
p2983
I71
sS'winner'
p2984
I76
sS'jar'
p2985
I75
sS'24109863100519'
p2986
I76
sS'should'
p2987
I66
sS'hector'
p2988
I76
sS'23:32:18.0,33.75375691,-118.29533613,2963,shut'
p2989
I76
sS'love/hate'
p2990
I76
sS'employee'
p2991
I76
sS'local'
p2992
I75
sS'hope'
p2993
I70
sS'meant'
p2994
I76
sS'naplaundry'
p2995
I76
sS'handle'
p2996
I76
sS'means'
p2997
I74
sS'familiar'
p2998
I76
sS'czechoslovakia'
p2999
I76
sS'hopefully'
p3000
I75
sS'overall'
p3001
I76
sS'commericals\xe2\x80\xbc\xef\xb8\x8f'
p3002
I76
sS'cinnamelts'
p3003
I76
sS'tbh'
p3004
I76
sS'awww'
p3005
I73
sS'ones'
p3006
I74
sS'cubs'
p3007
I76
sS'words'
p3008
I75
sS'probably'
p3009
I76
sS'tight,90732\n426897966763237377,mewmatt05,2014-01-25'
p3010
I76
sS'\xe2\x9d\xa4\xe2\x9d\xa4\xe2\x9d\xa4\xe2\x9d\xa4\xe2\x9d\xa4'
p3011
I76
sS'wordz'
p3012
I76
sS'smash'
p3013
I75
sS'fran'
p3014
I76
sS'firestation'
p3015
I76
sS'places'
p3016
I76
sS'brain'
p3017
I74
sS'hoechella'
p3018
I75
sS'married'
p3019
I76
sS'teams'
p3020
I73
sS"somebody's"
p3021
I76
sS'stuff'
p3022
I75
sS'shd'
p3023
I76
sS'she'
p3024
I57
sS'l\xe2\x80\xbc\xef\xb8\x8f'
p3025
I76
sS'"ira'
p3026
I76
sS'fixed'
p3027
I74
sS'77th'
p3028
I76
sS'generations'
p3029
I76
sS'joanna'
p3030
I76
sS'spotted'
p3031
I76
sS'btw'
p3032
I76
sS'prayers'
p3033
I76
sS'oreos'
p3034
I76
sS'freeze'
p3035
I76
sS'edition'
p3036
I76
sS'oomf'
p3037
I76
sS'changes'
p3038
I76
sS'desperate'
p3039
I76
sS'greece'
p3040
I75
sS'closer'
p3041
I75
sS'mamacita'
p3042
I76
sS'wire'
p3043
I76
sS'luv'
p3044
I76
sS'03:39:11.0,33.75299825,-118.30867279,2963,listening'
p3045
I76
sS'sidral'
p3046
I76
sS'spotify'
p3047
I76
sS'mexicans'
p3048
I75
sS'krispy'
p3049
I76
sS'closed'
p3050
I76
sS'pants'
p3051
I74
sS'yaman'
p3052
I76
sS'ability'
p3053
I76
sS'trynna'
p3054
I76
sS'amen'
p3055
I76
sS'joy'
p3056
I75
sS'beverages'
p3057
I75
sS'deliver'
p3058
I76
sS'job'
p3059
I72
sS'flats'
p3060
I76
sS'a9)'
p3061
I76
sS'precious'
p3062
I76
sS'problem'
p3063
I76
sS'hobo'
p3064
I75
sS'monitor'
p3065
I75
sS'hits'
p3066
I76
sS'pals'
p3067
I76
sS'joke'
p3068
I75
sS'taking'
p3069
I73
sS'equal'
p3070
I76
sS'purse-'
p3071
I76
sS'carols'
p3072
I76
sS'admit'
p3073
I76
sS'interesting'
p3074
I76
sS'bosh'
p3075
I76
sS'passing'
p3076
I76
sS'jumbotron'
p3077
I76
sS'jersey'
p3078
I76
sS'otherwise'
p3079
I76
sS'gorgeous'
p3080
I76
sS'relevant'
p3081
I76
sS'co'
p3082
I76
sS'gone'
p3083
I76
sS'wall'
p3084
I75
sS'tuesday'
p3085
I74
sS"a'good"
p3086
I76
sS'walk'
p3087
I73
sS'diet..i'
p3088
I76
sS'kings'
p3089
I69
sS'labor'
p3090
I76
sS'shoreline'
p3091
I76
sS'willy'
p3092
I76
sS'quit'
p3093
I75
sS'yay'
p3094
I73
sS'addition'
p3095
I76
sS"it's"
p3096
I27
sS'sox'
p3097
I76
sS'charts'
p3098
I76
sS'yas'
p3099
I76
sS'tutor'
p3100
I75
sS'drank'
p3101
I75
sS'hindi'
p3102
I73
sS'jacaranda'
p3103
I76
sS'waste'
p3104
I76
sS'bbq'
p3105
I76
sS'>'
p3106
I72
sS'accountability'
p3107
I76
sS'circus'
p3108
I76
sS'wanna'
p3109
I68
sS'league'
p3110
I76
sS'1201'
p3111
I76
sS'pie'
p3112
I76
sS'orange'
p3113
I76
sS'finished'
p3114
I76
sS'fan"'
p3115
I76
sS'-.-'
p3116
I75
sS'lukes..15'
p3117
I76
sS'vanity'
p3118
I76
sS'you"\xe2\x80\x9d'
p3119
I76
sS'lindley'
p3120
I76
sS'spain'
p3121
I74
sS'erin'
p3122
I75
sS'qb'
p3123
I76
sS'vimeo'
p3124
I76
sS'vanilla'
p3125
I76
sS'fitzgerald'
p3126
I76
sS'cvs'
p3127
I75
sS'choices'
p3128
I76
sS'will'
p3129
I60
sS'05:20:06.0,33.75245467,-118.30839955,2963,im'
p3130
I76
sS'hahaha'
p3131
I70
sS'wild'
p3132
I76
sS'\xe0\xb8\x99\xe0\xb9\x88\xe0\xb8\xb2\xe0\xb8\xa3\xe0\xb8\xb1\xe0\xb8\x81\xe0\xb8\x88\xe0\xb8\xb1\xe0\xb8\x94'
p3133
I76
sS'munchin'
p3134
I76
sS'~'
p3135
I76
sS'supply'
p3136
I76
sS'kayooo'
p3137
I76
sS'almost'
p3138
I70
sS'demo'
p3139
I76
sS'refs'
p3140
I76
sS'ink'
p3141
I76
sS'site'
p3142
I75
sS'hardware'
p3143
I76
sS'vs'
p3144
I76
sS'h/ss'
p3145
I76
sS'dual'
p3146
I76
sS'derrick'
p3147
I76
sS'ave'
p3148
I75
sS'kylee'
p3149
I75
sS'jenner'
p3150
I76
sS'kissed'
p3151
I76
sS'broke'
p3152
I76
sS'victorya'
p3153
I76
sS'-___-'
p3154
I76
sS')'
p3155
I76
sS'juan'
p3156
I76
sS"bangin'"
p3157
I76
sS'party'
p3158
I71
sS'strawberries'
p3159
I76
sS'gets'
p3160
I73
sS'paula'
p3161
I76
sS'ball'
p3162
I75
sS'lights&'
p3163
I76
sS'raymond'
p3164
I76
sS'dah'
p3165
I76
sS'drink'
p3166
I72
sS'mutual'
p3167
I76
sS'beast'
p3168
I76
sS'spitting'
p3169
I76
sS'scoring'
p3170
I76
sS'sisters'
p3171
I75
sS'overalls'
p3172
I76
sS'baffled'
p3173
I76
sS'9:40'
p3174
I76
sS'bassrush'
p3175
I76
sS'ashley'
p3176
I74
sS'??-.-'
p3177
I76
sS'i'
p3178
I2
sS'builder'
p3179
I76
sS'well'
p3180
I66
sS'thought'
p3181
I67
sS'knotts'
p3182
I75
sS'collin'
p3183
I76
sS"v's"
p3184
I76
sS'latest'
p3185
I75
sS'newest'
p3186
I76
sS'kiss'
p3187
I76
sS'cried'
p3188
I76
sS'less'
p3189
I75
sS'moments'
p3190
I76
sS'gr8'
p3191
I76
sS'rocked'
p3192
I76
sS'olds'
p3193
I76
sS'adv'
p3194
I76
sS"larry's"
p3195
I74
sS'effin'
p3196
I76
sS'nicks'
p3197
I76
sS'gma'
p3198
I76
sS'drunk'
p3199
I75
sS'ganna'
p3200
I76
sS'lake'
p3201
I75
sS'(29217'
p3202
I76
sS'drew'
p3203
I76
sS'battery'
p3204
I75
sS'k-5'
p3205
I75
sS'other'
p3206
I73
sS'k-2'
p3207
I76
sS'k-1'
p3208
I76
sS"neice's"
p3209
I76
sS'highlighters'
p3210
I76
sS'ohhh'
p3211
I76
sS'suit'
p3212
I76
sS'balloons'
p3213
I76
sS'smart'
p3214
I74
sS'wont'
p3215
I76
sS'pedrans'
p3216
I76
sS'checking'
p3217
I76
sS"who's"
p3218
I70
sS'sweep'
p3219
I76
sS'touch\xc3\xa9'
p3220
I76
sS'\xe2\x97\xbc\xef\xb8\x8f'
p3221
I76
sS'10/18'
p3222
I76
sS'whatever'
p3223
I75
sS'pullover'
p3224
I76
sS'nvm'
p3225
I76
sS'password'
p3226
I76
sS'pies'
p3227
I76
sS'store)'
p3228
I76
sS'debatable'
p3229
I76
sS"joanna's"
p3230
I76
sS'like'
p3231
I33
sS'success'
p3232
I75
sS'skips'
p3233
I76
sS'ring'
p3234
I76
sS'ozone'
p3235
I76
sS'sissy'
p3236
I75
sS'surgery'
p3237
I76
sS'lose'
p3238
I74
sS'become'
p3239
I75
sS'liiiiife'
p3240
I76
sS'soft'
p3241
I76
sS'accessible'
p3242
I76
sS'because'
p3243
I69
sS'14:36:41.0,33.75542867,-118.29574004,2963,mr'
p3244
I76
sS'twitter'
p3245
I72
sS'searching'
p3246
I75
sS'alive'
p3247
I76
sS'hair'
p3248
I73
sS'114'
p3249
I76
sS'cleveland'
p3250
I76
sS'home'
p3251
I62
sS'fuvs'
p3252
I76
sS'heroin'
p3253
I76
sS'forgives'
p3254
I76
sS'lead'
p3255
I76
sS'esp'
p3256
I74
sS'literally'
p3257
I75
sS'lean'
p3258
I76
sS'ironic'
p3259
I76
sS'does'
p3260
I73
sS'passion'
p3261
I76
sS'screwed'
p3262
I76
sS"ralph's"
p3263
I76
sS'pepper'
p3264
I75
sS'noise'
p3265
I76
sS'inaccurate'
p3266
I76
sS'schedule'
p3267
I75
sS'worthless'
p3268
I76
sS'slut'
p3269
I75
sS'face,90731\n504297683297632257,lauryn_cara,2014-08-26'
p3270
I76
sS'although'
p3271
I76
sS'daquan'
p3272
I76
sS'lastnight'
p3273
I76
sS'hiding'
p3274
I76
sS':-('
p3275
I76
sS'commited'
p3276
I76
sS'getting'
p3277
I63
sS'hookup'
p3278
I76
sS'shaking'
p3279
I76
sS'mofo'
p3280
I76
sS'swear'
p3281
I74
sS'glasses'
p3282
I76
sS'duck?)'
p3283
I76
sS'nessiboo'
p3284
I76
sS'own'
p3285
I72
sS'heels\xe2\x80\x9d'
p3286
I76
sS'pussy'
p3287
I76
sS'kiss310'
p3288
I76
sS'loner'
p3289
I76
sS'00:55:42.0,33.75072856,-118.30719651,2963,the'
p3290
I76
sS'guard'
p3291
I76
sS'cuh'
p3292
I76
sS'matcha'
p3293
I76
sS'additions'
p3294
I76
sS'hmmmmm'
p3295
I76
sS"in'"
p3296
I76
sS'niners'
p3297
I76
sS'ohmygodwhysofuegoyo'
p3298
I76
sS'daniels'
p3299
I76
sS'secret'
p3300
I76
sS'spots'
p3301
I76
sS'kidding'
p3302
I75
sS'biggest'
p3303
I76
sS'puta'
p3304
I76
sS'inspiration'
p3305
I76
sS'buy'
p3306
I74
sS'north'
p3307
I75
sS'chatting'
p3308
I76
sS"i've"
p3309
I57
sS'fasho'
p3310
I75
sS'bus'
p3311
I75
sS'brand'
p3312
I75
sS'bitches'
p3313
I76
sS'directs'
p3314
I76
sS'extended'
p3315
I75
sS'construction'
p3316
I76
sS'bun'
p3317
I76
sS'goals'
p3318
I74
sS'&&&'
p3319
I76
sS'ha'
p3320
I62
sS'eat'
p3321
I75
sS'bud'
p3322
I76
sS'he'
p3323
I57
sS'count'
p3324
I75
sS'made'
p3325
I70
sS'wise'
p3326
I76
sS'glory'
p3327
I75
sS'avi'
p3328
I76
sS'wish'
p3329
I75
sS'cells'
p3330
I75
sS'wife'
p3331
I74
sS'excitement'
p3332
I75
sS'torrance/wilmas/carson'
p3333
I76
sS'stories'
p3334
I76
sS'dmv'
p3335
I74
sS'faggot'
p3336
I76
sS'minutes'
p3337
I71
sS'dsiapkas'
p3338
I76
sS'poonjob'
p3339
I76
sS'attaaa'
p3340
I76
sS'pic'
p3341
I73
sS'backside'
p3342
I76
sS'grl'
p3343
I76
sS'pix'
p3344
I75
sS'erik'
p3345
I76
sS'brodie'
p3346
I76
sS'aronis'
p3347
I76
sS'shooting'
p3348
I76
sS'pit'
p3349
I76
sS'ew'
p3350
I76
sS'balcony'
p3351
I76
sS'diego'
p3352
I74
sS'spell'
p3353
I76
sS'49'
p3354
I76
sS'marley'
p3355
I76
sS'45'
p3356
I76
sS'40'
p3357
I75
sS'lately'
p3358
I75
sS'professionail'
p3359
I76
sS'book'
p3360
I75
sS'details'
p3361
I76
sS'sick'
p3362
I74
sS'grosssssssssss'
p3363
I76
sS'$3.75'
p3364
I76
sS'talkin'
p3365
I76
sS'dresses'
p3366
I76
sS'learnings'
p3367
I76
sS'again)'
p3368
I76
sS'monday'
p3369
I72
sS'sooooo'
p3370
I76
sS'class'
p3371
I71
sS'june'
p3372
I75
sS'stay'
p3373
I72
sS'kinda'
p3374
I74
sS'nintendo'
p3375
I74
sS'ok...thanks'
p3376
I76
sS'concur'
p3377
I76
sS'gap'
p3378
I76
sS'friends'
p3379
I66
sS'goin'
p3380
I75
sS'deluxe'
p3381
I76
sS'goooosssshhhh'
p3382
I76
sS'(1205'
p3383
I76
sS'yummmmy'
p3384
I76
sS'brobeans'
p3385
I76
sS'!!\xe2\x9d\xa4'
p3386
I76
sS'status'
p3387
I76
sS'understand'
p3388
I71
sS'yell'
p3389
I76
sS'8th'
p3390
I76
s.