(dp0
S''
p1
I1
sS'raining'
p2
I84
sS'd\xc3\xada'
p3
I83
sS'copy'
p4
I84
sS'yellow'
p5
I82
sS'whooped'
p6
I84
sS'escribe'
p7
I84
sS'protest'
p8
I84
sS'sleep'
p9
I68
sS'mdbp'
p10
I84
sS'gratata'
p11
I84
sS'hate'
p12
I52
sS'forget'
p13
I84
sS'presenta'
p14
I84
sS'pedro'
p15
I25
sS'buddy'
p16
I83
sS'tweet'
p17
I80
sS'presento'
p18
I84
sS'otra'
p19
I84
sS'igual'
p20
I84
sS'presents'
p21
I84
sS'goneeeee'
p22
I84
sS'edward'
p23
I84
sS'under'
p24
I82
sS'carniceria'
p25
I84
sS'sorry'
p26
I78
sS'pride'
p27
I83
sS'sway'
p28
I84
sS'worth'
p29
I81
sS'voten'
p30
I84
sS'mlb'
p31
I84
sS'updated'
p32
I84
sS'callin'
p33
I84
sS'hahahah'
p34
I84
sS'rise'
p35
I84
sS'costume'
p36
I84
sS'gimmie'
p37
I84
sS'rendezvousbutter'
p38
I84
sS'every'
p39
I68
sS'jack'
p40
I74
sS'while*drinks'
p41
I84
sS"hatin'"
p42
I84
sS'\xd9\x85\xd9\x85\xd8\xaa\xd8\xa7\xd8\xb2'
p43
I84
sS'today-'
p44
I82
sS'ala'
p45
I83
sS'bringing'
p46
I84
sS'brizeyda'
p47
I84
sS'tickets'
p48
I84
sS'school'
p49
I63
sS'parrot'
p50
I84
sS'"punch'
p51
I84
sS'duncan'
p52
I84
sS'venue'
p53
I84
sS'solution'
p54
I84
sS'hoy'
p55
I84
sS'xiyks'
p56
I84
sS'zzzzzz'
p57
I83
sS'recuerdas'
p58
I84
sS'ups'
p59
I83
sS'croatian'
p60
I83
sS'enjoy'
p61
I83
sS'chet'
p62
I84
sS'cher'
p63
I84
sS'esos'
p64
I84
sS'tired'
p65
I80
sS'miller'
p66
I84
sS'myspace'
p67
I84
sS'japanese'
p68
I84
sS'maryssa'
p69
I84
sS'nail'
p70
I84
sS'dish'
p71
I84
sS'second'
p72
I83
sS'street'
p73
I83
sS'7th'
p74
I84
sS'n'
p75
I76
sS'others)'
p76
I83
sS'shining'
p77
I84
sS'even'
p78
I67
sS'oldest'
p79
I84
sS'hide'
p80
I84
sS'ahijada'
p81
I84
sS'ruben'
p82
I84
sS'thunder'
p83
I83
sS'+'
p84
I84
sS'ahijado'
p85
I84
sS'revolves'
p86
I84
sS'phuck'
p87
I84
sS'saludos'
p88
I83
sS',90731\n503736364329103360,edwin237,2014-08-25'
p89
I84
sS'above'
p90
I84
sS"leavinnn'"
p91
I84
sS'new'
p92
I59
sS'emily'
p93
I84
sS'ever'
p94
I66
sS'told'
p95
I76
sS'shutup'
p96
I84
sS'zach'
p97
I84
sS'join'
p98
I84
sS'never'
p99
I70
sS'swag'
p100
I84
sS'here'
p101
I64
sS'scott'
p102
I84
sS'\xe2\x9d\xa4\xef\xb8\x8f'
p103
I80
sS'china'
p104
I84
sS'&&'
p105
I81
sS'active'
p106
I84
sS'herr'
p107
I84
sS'100'
p108
I83
sS"aren't"
p109
I84
sS'cracked'
p110
I84
sS'celebration'
p111
I84
sS'kids'
p112
I77
sS'k'
p113
I81
sS'changed'
p114
I84
sS'eigth'
p115
I84
sS'nigguhs'
p116
I84
sS'classsyyyy'
p117
I84
sS'tv'
p118
I83
sS'crap'
p119
I84
sS"i'd"
p120
I81
sS'smoke'
p121
I80
sS'negros'
p122
I84
sS"i'm"
p123
I9
sS'sriracha'
p124
I84
sS'partyso'
p125
I84
sS'eyebrows'
p126
I83
sS'golden'
p127
I84
sS'envious'
p128
I84
sS'bedddddd'
p129
I84
sS'icecream'
p130
I84
sS'two-state'
p131
I84
sS'highly'
p132
I83
sS'bro'
p133
I80
sS'insta'
p134
I82
sS'meats'
p135
I84
sS'mares'
p136
I84
sS'actions'
p137
I84
sS'blacking'
p138
I84
sS'am\xc3\xa9n'
p139
I84
sS'paydayyy'
p140
I84
sS'<3'
p141
I84
sS'rancho'
p142
I83
sS'would'
p143
I75
sS'\xe2\x98\xba\xe2\x98\x95'
p144
I84
sS'sweater'
p145
I84
sS'played'
p146
I81
sS"world's"
p147
I84
sS'chargers'
p148
I83
sS'asses'
p149
I84
sS'call'
p150
I76
sS'therefore'
p151
I84
sS'ellos'
p152
I84
sS'recommend'
p153
I84
sS'strike'
p154
I84
sS'survive'
p155
I83
sS'tryin'
p156
I84
sS'type'
p157
I82
sS'tell'
p158
I75
sS'holidays"'
p159
I84
sS'females'
p160
I84
sS'posting'
p161
I82
sS'holy'
p162
I84
sS'relax'
p163
I83
sS'brings'
p164
I84
sS"getcha'"
p165
I84
sS'hermana'
p166
I84
sS'haha'
p167
I67
sS'wars'
p168
I83
sS'award'
p169
I84
sS'pierced'
p170
I84
sS'phone'
p171
I76
sS'berlin'
p172
I84
sS'adult'
p173
I83
sS'excellent'
p174
I83
sS"raffaelo's"
p175
I84
sS'hold'
p176
I84
sS'striving'
p177
I84
sS'must'
p178
I79
sS'shoot'
p179
I83
sS'1990'
p180
I84
sS'coffee\xe2\x98\xba\xef\xb8\x8f\xe2\x98\x95\xef\xb8\x8f'
p181
I84
sS'word'
p182
I82
sS'room'
p183
I83
sS'after\xe2\x80\xa6'
p184
I84
sS'rights'
p185
I84
sS'work'
p186
I59
sS'mi'
p187
I75
sS'supply)'
p188
I83
sS'mj'
p189
I83
sS'movies'
p190
I79
sS'cuddle'
p191
I84
sS'era'
p192
I82
sS'times.\xe2\x80\x9d'
p193
I84
sS'mr'
p194
I84
sS'gossiping'
p195
I84
sS':-('
p196
I84
sS'shooo'
p197
I84
sS'my'
p198
I6
sS'route'
p199
I84
sS'goood'
p200
I84
sS'bell'
p201
I84
sS'give'
p202
I75
sS'laughs'
p203
I84
sS'foods'
p204
I84
sS'homie'
p205
I82
sS'want'
p206
I43
sS'scheduling'
p207
I84
sS'aaah'
p208
I84
sS'keep'
p209
I74
sS'looser'
p210
I84
sS'worse'
p211
I84
sS'sweethearts'
p212
I84
sS"lookin'"
p213
I84
sS'hoe'
p214
I83
sS'end'
p215
I82
sS'recovery'
p216
I84
sS'thing'
p217
I76
sS'$950'
p218
I84
sS'sitting'
p219
I83
sS'voy'
p220
I84
sS'yema'
p221
I84
sS'far'
p222
I80
sS'hot'
p223
I72
sS'votos'
p224
I84
sS'idol\xe2\x9d\xa4\xef\xb8\x8f\xe2\x9d\xa4\xef\xb8\x8f\xe2\x9d\xa4\xef\xb8\x8f\xe2\x9d\xa4\xef\xb8\x8f'
p225
I84
sS'answer'
p226
I83
sS'yum'
p227
I84
sS'graciasssss'
p228
I84
sS'bunz'
p229
I83
sS'beach'
p230
I79
sS'pizza'
p231
I83
sS'caldo'
p232
I84
sS'fever'
p233
I84
sS'cali-for-nia'
p234
I84
sS'elizabeth'
p235
I84
sS'beauty'
p236
I84
sS'mess'
p237
I84
sS'llegue'
p238
I84
sS'after'
p239
I72
sS'eyes-wiser'
p240
I84
sS'lab'
p241
I84
sS'whyyyy'
p242
I84
sS'wrong'
p243
I82
sS'jumping'
p244
I84
sS'lay'
p245
I84
sS'suing'
p246
I84
sS'20/20'
p247
I84
sS'law'
p248
I84
sS'lap'
p249
I84
sS'lesbian'
p250
I84
sS'types'
p251
I84
sS'las'
p252
I83
sS'fault"'
p253
I84
sS'tavern)'
p254
I73
sS'third'
p255
I83
sS'chillen'
p256
I84
sS'appreciate'
p257
I82
sS'change\xe2\x80\xbc\xef\xb8\x8f'
p258
I84
sS'childhood'
p259
I84
sS'hasta'
p260
I84
sS'green'
p261
I83
sS'boleto'
p262
I84
sS'suerte'
p263
I83
sS'enter'
p264
I84
sS'wilfred'
p265
I84
sS'1000'
p266
I84
sS'order'
p267
I83
sS'wind'
p268
I84
sS'lol,90731\n506570941061955584,edwin237,2014-09-01'
p269
I84
sS'office'
p270
I83
sS'wut'
p271
I84
sS'over'
p272
I67
sS'fall'
p273
I83
sS"'undo'"
p274
I84
sS'babyshower'
p275
I83
sS'ma\xc3\xb1ana'
p276
I84
sS'oakland'
p277
I84
sS'intoxicated'
p278
I84
sS'mayor'
p279
I83
sS'before'
p280
I78
sS'ima'
p281
I80
sS'difference'
p282
I84
sS'fit'
p283
I84
sS'somewhere'
p284
I81
sS'fix'
p285
I83
sS'venta'
p286
I84
sS'expectations'
p287
I84
sS'writing'
p288
I84
sS'better'
p289
I69
sS"rhej's"
p290
I84
sS'400'
p291
I83
sS'weeks'
p292
I83
sS'easier'
p293
I84
sS'damages'
p294
I84
sS'then'
p295
I57
sS'them'
p296
I73
sS'u_u'
p297
I84
sS'california--its'
p298
I84
sS'workout'
p299
I82
sS'grand'
p300
I82
sS"we'll"
p301
I82
sS'break'
p302
I82
sS'band'
p303
I84
sS'twits'
p304
I84
sS'carro'
p305
I84
sS'they'
p306
I54
sS'schools'
p307
I84
sS'yourself'
p308
I82
sS'bank'
p309
I78
sS'bread'
p310
I84
sS'grammar'
p311
I84
sS'meat'
p312
I84
sS'eww'
p313
I84
sS'sleepless'
p314
I83
sS'alexis'
p315
I83
sS'"happy'
p316
I84
sS'each'
p317
I81
sS'addicted'
p318
I84
sS'went'
p319
I75
sS'bells'
p320
I84
sS'bong'
p321
I83
sS'side'
p322
I82
sS'carlos'
p323
I84
sS'mean'
p324
I79
sS'candy'
p325
I84
sS'pretext'
p326
I84
sS'snakes'
p327
I84
sS'enthusiasts'
p328
I84
sS'gunna'
p329
I80
sS'laying'
p330
I84
sS'crimes'
p331
I84
sS'spider'
p332
I84
sS'jenni<3'
p333
I84
sS'celebrating'
p334
I84
sS"nowit's"
p335
I84
sS'forgot'
p336
I81
sS'not\xe2\x98\xba\xef\xb8\x8f'
p337
I84
sS'saturday'
p338
I80
sS'whip'
p339
I80
sS'rt'
p340
I73
sS'goo'
p341
I84
sS'xq'
p342
I84
sS'driving'
p343
I81
sS'god'
p344
I78
sS'nunca'
p345
I84
sS'hooked'
p346
I83
sS'manda'
p347
I84
sS'nye'
p348
I84
sS'banning'
p349
I84
sS'reader'
p350
I84
sS'medicine'
p351
I84
sS'got'
p352
I39
sS'rn'
p353
I73
sS'day"'
p354
I84
sS'alittle'
p355
I84
sS'independence'
p356
I84
sS'aid)'
p357
I78
sS'turning'
p358
I84
sS'ever\xe2\x9d\xa4\xef\xb8\x8f'
p359
I84
sS'cutest'
p360
I84
sS"you're"
p361
I69
sS'albiceleste'
p362
I84
sS'"ain\'t'
p363
I84
sS'throwbacks'
p364
I84
sS'anywhere.\xe2\x80\x9d'
p365
I84
sS'free'
p366
I77
sS'fred'
p367
I84
sS'cabrillo'
p368
I84
sS'hoodie'
p369
I84
sS"people's"
p370
I82
sS'wanted'
p371
I80
sS'sickkkkkk'
p372
I84
sS'dammit'
p373
I84
sS'ate'
p374
I81
sS'dayz'
p375
I83
sS'exposing'
p376
I84
sS'visitarme'
p377
I84
sS'starts'
p378
I83
sS'days'
p379
I76
sS'local'
p380
I84
sS'heck'
p381
I84
sS'"no'
p382
I84
sS"today's"
p383
I81
sS'gane'
p384
I84
sS'clothes'
p385
I84
sS'(at'
p386
I83
sS'fuckin'
p387
I82
sS'dodgeball'
p388
I84
sS'already'
p389
I73
sS'eason'
p390
I84
sS'grade'
p391
I83
sS'foshoe'
p392
I84
sS'hearing'
p393
I84
sS'channels'
p394
I84
sS'delicious'
p395
I83
sS"geo's"
p396
I84
sS'rats'
p397
I84
sS'rutina'
p398
I84
sS'wow.\xe2\x80\x9d'
p399
I84
sS'priority'
p400
I84
sS'olds'
p401
I84
sS'toy'
p402
I84
sS"'merica"
p403
I84
sS'reynaaa'
p404
I84
sS'spinach'
p405
I84
sS'top'
p406
I83
sS'me"'
p407
I84
sS'girls'
p408
I76
sS'1500'
p409
I84
sS'peacefully'
p410
I84
sS'needed'
p411
I82
sS'too'
p412
I51
sS'phones'
p413
I84
sS'hollywood'
p414
I84
sS'cycle'
p415
I84
sS'listen'
p416
I84
sS'wander'
p417
I84
sS'hacer'
p418
I84
sS'ceiling'
p419
I84
sS'hangout'
p420
I84
sS'gym'
p421
I84
sS'albert'
p422
I84
sS'trippy'
p423
I84
sS'\xd9\x87\xd8\xb0\xd8\xa7'
p424
I84
sS'distance'
p425
I84
sS'anxiety'
p426
I84
sS'diaria'
p427
I84
sS'showed'
p428
I84
sS'hike'
p429
I84
sS'fairytale'
p430
I83
sS'crave'
p431
I84
sS'nations'
p432
I84
sS'project'
p433
I84
sS'matter'
p434
I83
sS'classes'
p435
I83
sS'mermaid'
p436
I84
sS'iron'
p437
I73
sS'seater'
p438
I83
sS'feeling'
p439
I82
sS'powers'
p440
I83
sS'hologram'
p441
I84
sS'antojas'
p442
I84
sS'flume'
p443
I84
sS'sees'
p444
I84
sS'esta'
p445
I82
sS"mind's"
p446
I84
sS'mind'
p447
I80
sS'mine'
p448
I81
sS'ginger'
p449
I84
sS'spent'
p450
I84
sS'talking'
p451
I79
sS'lbc'
p452
I84
sS'guapo'
p453
I83
sS'manner'
p454
I84
sS'a11-5'
p455
I84
sS'seen'
p456
I77
sS'seem'
p457
I82
sS'ocean'
p458
I84
sS'card...again'
p459
I84
sS'potty'
p460
I84
sS'hermosos'
p461
I84
sS'dozen'
p462
I84
sS'cage'
p463
I84
sS'fuckinggg'
p464
I84
sS'olvido'
p465
I84
sS'1968'
p466
I84
sS'uninformed'
p467
I84
sS'-'
p468
I73
sS'maxi'
p469
I84
sS'forces'
p470
I84
sS'sprays'
p471
I84
sS'rides'
p472
I82
sS'exclusiive'
p473
I84
sS'nobody'
p474
I82
sS'though'
p475
I78
sS'temprano'
p476
I84
sS'dnt'
p477
I81
sS'audition'
p478
I82
sS'princess\xe2\x80\x9d'
p479
I84
sS'germany'
p480
I84
sS'fastback'
p481
I84
sS'pasas'
p482
I84
sS'"both'
p483
I84
sS'grave'
p484
I84
sS'maria'
p485
I84
sS'dummy'
p486
I84
sS'episode'
p487
I83
sS'doo'
p488
I84
sS'grove'
p489
I84
sS'corporate'
p490
I84
sS'medical'
p491
I83
sS'metal'
p492
I84
sS'dog'
p493
I84
sS'doe'
p494
I84
sS'freeway'
p495
I84
sS'points'
p496
I81
sS'watch.,90731\n498727574810656768,edwin237,2014-08-11'
p497
I84
sS'dos'
p498
I84
sS'left'
p499
I75
sS'annoyed'
p500
I83
sS'came'
p501
I82
sS'reserve'
p502
I84
sS'saying'
p503
I82
sS're-phrase'
p504
I84
sS'bomb'
p505
I81
sS'porterazo'
p506
I84
sS'tequila'
p507
I84
sS'labels'
p508
I83
sS'sweating'
p509
I84
sS'pops'
p510
I84
sS'prix'
p511
I84
sS'colors'
p512
I84
sS'radio'
p513
I83
sS'd8'
p514
I84
sS'compruebo'
p515
I84
sS'orleans'
p516
I84
sS'vasectomy'
p517
I84
sS'busy'
p518
I84
sS'ayyyy'
p519
I84
sS'cousins'
p520
I82
sS'weekends'
p521
I83
sS'muggles'
p522
I84
sS'bipolar'
p523
I84
sS'hrs'
p524
I83
sS'yiggity'
p525
I84
sS'rihanna'
p526
I84
sS'rich'
p527
I84
sS'folks'
p528
I84
sS'tropic'
p529
I84
sS'chipotle'
p530
I84
sS'rice'
p531
I84
sS'||'
p532
I84
sS'dammmnn'
p533
I84
sS'wearing'
p534
I82
sS'monica'
p535
I83
sS'dm'
p536
I83
sS'dj'
p537
I84
sS'10'
p538
I84
sS'de'
p539
I60
sS'watch'
p540
I77
sS'integrity'
p541
I84
sS'machos'
p542
I84
sS'shutting'
p543
I84
sS'cracks'
p544
I84
sS'letss'
p545
I84
sS'wedding'
p546
I84
sS'report'
p547
I84
sS'15'
p548
I84
sS'nasty'
p549
I84
sS'hall'
p550
I84
sS'runs'
p551
I84
sS'vemos'
p552
I84
sS'bar'
p553
I81
sS'me-the'
p554
I84
sS'officially'
p555
I82
sS'spiders'
p556
I84
sS'patch'
p557
I83
sS'bag'
p558
I83
sS'bad'
p559
I71
sS'bae'
p560
I75
sS'hp'
p561
I84
sS'shots'
p562
I84
sS'like..."so'
p563
I84
sS'grilled'
p564
I84
sS'bam'
p565
I84
sS'w/a'
p566
I84
sS'votaron'
p567
I84
sS'secretary'
p568
I84
sS'headed'
p569
I84
sS'decides'
p570
I84
sS'disaster'
p571
I84
sS'fair'
p572
I83
sS'cerca'
p573
I84
sS'w/'
p574
I78
sS'ways\xe2\x9d\xa4\xef\xb8\x8f'
p575
I84
sS'lemonade'
p576
I82
sS'montones'
p577
I84
sS'carrito'
p578
I84
sS'goodnight'
p579
I83
sS'decided'
p580
I81
sS'flashed'
p581
I84
sS'nug'
p582
I84
sS'vacaciones'
p583
I84
sS'tongiht'
p584
I84
sS'best'
p585
I63
sS'subject'
p586
I84
sS'brazil'
p587
I84
sS'eres'
p588
I84
sS'said'
p589
I74
sS'onto'
p590
I84
sS'forever,90731\n507383953339449344,edwin237,2014-09-04'
p591
I84
sS'inappropriate'
p592
I84
sS'lots'
p593
I84
sS'away'
p594
I75
sS'2000th'
p595
I84
sS'anaheim'
p596
I84
sS'"oh'
p597
I84
sS'dias'
p598
I84
sS'bien'
p599
I82
sS"there's"
p600
I73
sS'lastnight...\xe2\x80\x9d'
p601
I84
sS'props'
p602
I83
sS'mum'
p603
I84
sS'sorts'
p604
I84
sS'above\xe2\x80\xa6'
p605
I84
sS'alguien'
p606
I84
sS'viernes'
p607
I84
sS'lazy'
p608
I83
sS'men'
p609
I81
sS'omg'
p610
I73
sS'nature'
p611
I83
sS'smelled'
p612
I84
sS'weak'
p613
I84
sS'boss'
p614
I81
sS'stress'
p615
I84
sS'ws'
p616
I84
sS'wear'
p617
I83
sS'wtf'
p618
I76
sS'wth'
p619
I84
sS'cousin'
p620
I83
sS'picking'
p621
I80
sS'roller'
p622
I84
sS'kitchen'
p623
I84
sS'cop'
p624
I82
sS'climate'
p625
I84
sS'tfti'
p626
I84
sS'met'
p627
I83
sS'ikrnever'
p628
I84
sS'country'
p629
I83
sS'ill'
p630
I81
sS'ahora'
p631
I83
sS'gotten'
p632
I84
sS'una'
p633
I82
sS'quincea\xc3\xb1era..just'
p634
I84
sS'games'
p635
I80
sS'lookin'
p636
I82
sS'furry'
p637
I84
sS',90731\n335243098005319680,jchackert,2013-05-17'
p638
I84
sS'sunshine'
p639
I84
sS'argue'
p640
I84
sS'asked'
p641
I84
sS'con'
p642
I75
sS'enzo'
p643
I84
sS'relatable'
p644
I84
sS'desmienta'
p645
I84
sS'epidemic'
p646
I84
sS'\xe2\x9c\x8c\xef\xb8\x8fcan'
p647
I84
sS'tons'
p648
I83
sS'\xe2\x80\x94"'
p649
I84
sS'we??,90731\n506590431384449024,goldenbear_,2014-09-01'
p650
I84
sS'trust'
p651
I84
sS'stares'
p652
I84
sS'speak'
p653
I84
sS'hijo'
p654
I84
sS'iraq'
p655
I84
sS'raffaello'
p656
I84
sS'asks'
p657
I84
sS'youuuuuu'
p658
I84
sS'three'
p659
I84
sS'been'
p660
I65
sS'mozzarella'
p661
I84
sS'bothers'
p662
I84
sS'confident'
p663
I84
sS'beer'
p664
I83
sS'much'
p665
I59
sS'interest'
p666
I84
sS'tino'
p667
I84
sS'flexible'
p668
I84
sS'lovely'
p669
I84
sS'equivoqu\xc3\xa9'
p670
I84
sS'duties'
p671
I84
sS'life'
p672
I59
sS'soooooo'
p673
I84
sS'drugs'
p674
I82
sS'mcd'
p675
I84
sS'worker'
p676
I83
sS'buyin'
p677
I84
sS'dave'
p678
I84
sS'lift'
p679
I84
sS'child'
p680
I84
sS'catch'
p681
I76
sS'worked'
p682
I84
sS'haters'
p683
I83
sS'church)'
p684
I82
sS'feelings'
p685
I84
sS'chill'
p686
I81
sS'gracias'
p687
I81
sS'tank'
p688
I84
sS'publicly'
p689
I84
sS'moraccon'
p690
I84
sS'air'
p691
I83
sS'ugly'
p692
I82
sS'near'
p693
I84
sS'gna'
p694
I84
sS'libree'
p695
I84
sS'aid'
p696
I83
sS'weezer'
p697
I84
sS'balance'
p698
I83
sS'leaves'
p699
I82
sS'veronica'
p700
I84
sS'unos'
p701
I83
sS'"a'
p702
I84
sS'mexico'
p703
I82
sS'is'
p704
I10
sS'sushi'
p705
I76
sS'it'
p706
I12
sS'stoppp'
p707
I84
sS'weirdness'
p708
I84
sS'ii'
p709
I84
sS'throat'
p710
I84
sS'cant'
p711
I80
sS'im'
p712
I74
sS'moping'
p713
I84
sS'in'
p714
I13
sS'seize'
p715
I84
sS'throwing'
p716
I84
sS'id'
p717
I84
sS'ig'
p718
I84
sS'if'
p719
I41
sS'grown'
p720
I84
sS'nika'
p721
I84
sS'bottles'
p722
I84
sS'amiguisssss'
p723
I84
sS'perform'
p724
I83
sS'things'
p725
I72
sS'make'
p726
I63
sS'beside'
p727
I82
sS'8pm'
p728
I84
sS'patient'
p729
I75
sS'hahah'
p730
I80
sS'sickest'
p731
I84
sS'lunch\xc3\xa9'
p732
I84
sS'european'
p733
I84
sS'lunes'
p734
I83
sS'satellite'
p735
I84
sS'boiled'
p736
I84
sS'marches'
p737
I84
sS'ella'
p738
I82
sS'hang'
p739
I82
sS'coachella'
p740
I84
sS'rain'
p741
I84
sS'35-0'
p742
I84
sS'kim'
p743
I84
sS'military'
p744
I84
sS'jealous'
p745
I83
sS'totalllyyyy'
p746
I84
sS'tune'
p747
I84
sS'kid'
p748
I82
sS'butter'
p749
I84
sS'kept'
p750
I84
sS'soak'
p751
I84
sS'thx'
p752
I83
sS'youre'
p753
I82
sS'smokes'
p754
I84
sS'redeem'
p755
I84
sS'replay'
p756
I84
sS'carnitas'
p757
I84
sS'tho'
p758
I69
sS'academic'
p759
I84
sS'contact'
p760
I84
sS'greatest'
p761
I84
sS'pandora'
p762
I83
sS'mother'
p763
I83
sS'hearts'
p764
I84
sS'the'
p765
I3
sS'buuuuuut'
p766
I84
sS'yours'
p767
I82
sS'dads'
p768
I82
sS'epa'
p769
I80
sS'julio'
p770
I84
sS'capitol'
p771
I84
sS'just'
p772
I18
sS'doyersssssss'
p773
I84
sS'yea'
p774
I82
sS'photo'
p775
I80
sS'sporting'
p776
I84
sS'sleepy'
p777
I84
sS'thanks'
p778
I73
sS'human'
p779
I82
sS'yep'
p780
I84
sS'yes'
p781
I73
sS'life\xe2\x9d\xa4\xef\xb8\x8f'
p782
I84
sS'yet'
p783
I80
sS'jumpers'
p784
I84
sS'jose'
p785
I84
sS'antes'
p786
I84
sS'3rounds'
p787
I84
sS'hills'
p788
I84
sS'cherry'
p789
I84
sS'had'
p790
I65
sS'5s'
p791
I84
sS'(los'
p792
I84
sS'hay'
p793
I83
sS'haz'
p794
I84
sS'cantor'
p795
I84
sS'board'
p796
I84
sS'easy'
p797
I79
sS'starbucks)'
p798
I78
sS'contestant'
p799
I84
sS'pitiful'
p800
I84
sS'has'
p801
I70
sS'hat'
p802
I83
sS'5c'
p803
I84
sS'gave'
p804
I82
sS'tmro'
p805
I84
sS'undercovers'
p806
I84
sS'banda'
p807
I83
sS'dreams'
p808
I84
sS'apart'
p809
I84
sS'shoulder'
p810
I84
sS'brought'
p811
I84
sS'gift'
p812
I84
sS'-_-'
p813
I83
sS'texts'
p814
I84
sS'performing'
p815
I83
sS'night'
p816
I61
sS'mysisters'
p817
I84
sS'security'
p818
I84
sS'sebastian'
p819
I84
sS'casket)'
p820
I82
sS'right'
p821
I46
sS'old'
p822
I77
sS'deal'
p823
I84
sS'people'
p824
I49
sS'sends'
p825
I84
sS'crown'
p826
I84
sS'dead'
p827
I81
sS'\xe2\x8f\xa9'
p828
I84
sS'pedroca'
p829
I84
sS'salir'
p830
I84
sS'unless'
p831
I84
sS'creep'
p832
I84
sS'forgotten'
p833
I84
sS'toxic'
p834
I84
sS'humor'
p835
I84
sS'for'
p836
I14
sS'bottom'
p837
I82
sS'purple'
p838
I84
sS'sobrinito'
p839
I84
sS'opposite'
p840
I84
sS'ice'
p841
I79
sS'tonight"'
p842
I84
sS'repression'
p843
I84
sS'everything'
p844
I78
sS'fog'
p845
I84
sS'cnc'
p846
I84
sS'cnn'
p847
I84
sS'sikiera'
p848
I84
sS"sergio's"
p849
I84
sS'christmas'
p850
I78
sS'fielder'
p851
I84
sS'queda'
p852
I84
sS'corn'
p853
I84
sS'7-eleven'
p854
I84
sS'plz'
p855
I84
sS'decisions'
p856
I84
sS'criminals'
p857
I84
sS'phew'
p858
I84
sS'numero'
p859
I84
sS'menopause'
p860
I84
sS'graduated'
p861
I83
sS'post'
p862
I83
sS'super'
p863
I79
sS'properties'
p864
I84
sS'"have'
p865
I84
sS'chapter'
p866
I83
sS'rehearsal'
p867
I84
sS'.no..disappointed'
p868
I84
sS'_____'
p869
I84
sS'theirs'
p870
I84
sS'dollars'
p871
I84
sS'months'
p872
I82
sS'o'
p873
I84
sS'coworker........love'
p874
I84
sS'realising'
p875
I84
sS'dinner'
p876
I78
sS'oraci\xc3\xb3n'
p877
I84
sS'algo'
p878
I83
sS'stoked'
p879
I83
sS'mismo'
p880
I84
sS'gingerbread'
p881
I84
sS'slightly'
p882
I84
sS'azzurro'
p883
I84
sS'printeville'
p884
I84
sS'aha'
p885
I78
sS'encuentre'
p886
I84
sS'civic'
p887
I84
sS'wasting'
p888
I83
sS'selfie'
p889
I82
sS'lili'
p890
I84
sS'sol'
p891
I84
sS'soo'
p892
I83
sS'mocha'
p893
I84
sS'down'
p894
I69
sS'snack'
p895
I83
sS'clinic)'
p896
I82
sS'explain'
p897
I84
sS'pr\xc3\xb3ximo'
p898
I84
sS'soy'
p899
I80
sS'sox'
p900
I83
sS'shoots'
p901
I84
sS'birdies'
p902
I84
sS'anhelado'
p903
I84
sS'spongebob'
p904
I84
sS'cali'
p905
I82
sS'lake'
p906
I84
sS'>>>>'
p907
I84
sS'class'
p908
I81
sS'absolutely'
p909
I84
sS'fought'
p910
I84
sS'way'
p911
I77
sS'wax'
p912
I83
sS'rapes'
p913
I84
sS'music'
p914
I79
sS'empathy'
p915
I84
sS'was'
p916
I35
sS'war'
p917
I82
sS'shhh'
p918
I84
sS'happy'
p919
I58
sS'fork'
p920
I84
sS'head'
p921
I83
sS'medium'
p922
I84
sS'offer'
p923
I84
sS'becoming'
p924
I82
sS'fireworks'
p925
I84
sS'rosalia'
p926
I84
sS'happpppy'
p927
I84
sS'kiss"'
p928
I84
sS'heat'
p929
I83
sS'hear'
p930
I82
sS'idgaf'
p931
I84
sS'tiiiiime'
p932
I84
sS'sufre'
p933
I83
sS'segura'
p934
I84
sS'congratulations'
p935
I84
sS'born'
p936
I84
sS'layin'
p937
I84
sS'strongest'
p938
I84
sS'hmm'
p939
I84
sS'ruined'
p940
I83
sS"irene's"
p941
I84
sS'whiskey'
p942
I83
sS'plymouth'
p943
I84
sS'watch"'
p944
I84
sS'long-distance'
p945
I84
sS'trim'
p946
I84
sS'brightly'
p947
I84
sS'midgets'
p948
I84
sS'medication'
p949
I83
sS'sum1'
p950
I84
sS'stronger'
p951
I84
sS'covers'
p952
I83
sS'sticky'
p953
I83
sS'"belong'
p954
I84
sS'dear'
p955
I84
sS'sometime'
p956
I84
sS'exist'
p957
I84
sS'carmelo'
p958
I84
sS'(produced'
p959
I82
sS'annoying'
p960
I82
sS'trip'
p961
I83
sS'shit'
p962
I58
sS'ni'
p963
I83
sS'holaaaa'
p964
I83
sS'dying'
p965
I82
sS'no'
p966
I27
sS'anti-fracking'
p967
I84
sS'sabes'
p968
I84
sS'when'
p969
I34
sS'te\xe2\x80\xa6'
p970
I84
sS'til'
p971
I84
sS'setting'
p972
I83
sS'republic'
p973
I84
sS'holding'
p974
I84
sS'boyfriend!mom'
p975
I84
sS'test'
p976
I84
sS'holly'
p977
I83
sS'smell'
p978
I83
sS'tamale'
p979
I84
sS'picture'
p980
I80
sS"'s"
p981
I84
sS'express)'
p982
I84
sS'models'
p983
I83
sS'welcome'
p984
I83
sS'update'
p985
I83
sS'taurus'
p986
I84
sS"let's"
p987
I76
sS"rose's"
p988
I83
sS'sistas'
p989
I84
sS'rolling'
p990
I84
sS'hurt'
p991
I84
sS'weekend'
p992
I80
sS'died'
p993
I83
sS'loren'
p994
I84
sS'tweeting'
p995
I84
sS'justooooo'
p996
I84
sS'happening'
p997
I84
sS'glass'
p998
I83
sS'whyyyyyy'
p999
I84
sS'(san'
p1000
I49
sS'daily'
p1001
I83
sS"life's"
p1002
I84
sS'puse'
p1003
I84
sS'time'
p1004
I42
sS'push'
p1005
I84
sS'serious'
p1006
I83
sS'lineup'
p1007
I84
sS'songs'
p1008
I84
sS'coach'
p1009
I84
sS':('
p1010
I83
sS':)'
p1011
I78
sS'dance'
p1012
I84
sS'separates'
p1013
I84
sS'golpear'
p1014
I84
sS'cobra'
p1015
I84
sS'apts'
p1016
I84
sS'manager'
p1017
I80
sS'skate'
p1018
I84
sS'kids...did'
p1019
I84
sS'grateful'
p1020
I83
sS'maywether'
p1021
I84
sS'week\xe2\x9c\x88\xef\xb8\x8f'
p1022
I84
sS'chair'
p1023
I83
sS'primer'
p1024
I84
sS'milk'
p1025
I83
sS'\xe2\x9c\xa8'
p1026
I84
sS'jiji'
p1027
I83
sS'venice'
p1028
I84
sS'ver'
p1029
I82
sS'zone'
p1030
I83
sS'marissa'
p1031
I83
sS"when's"
p1032
I84
sS'vez'
p1033
I84
sS'pen'
p1034
I84
sS'whattttt'
p1035
I84
sS'thighs'
p1036
I84
sS'0'
p1037
I84
sS'finally'
p1038
I67
sS'cuda'
p1039
I84
sS'promoting'
p1040
I84
sS'negativity'
p1041
I84
sS'"okmeydani'
p1042
I84
sS'rainbows'
p1043
I84
sS'sing'
p1044
I84
sS'jaywalking'
p1045
I84
sS'shmoney'
p1046
I84
sS'marky'
p1047
I84
sS'4/20'
p1048
I84
sS'me'
p1049
I8
sS':o'
p1050
I84
sS'jerk'
p1051
I83
sS'contested<3'
p1052
I84
sS'frapp'
p1053
I84
sS'brownie'
p1054
I84
sS'choice'
p1055
I84
sS'1492'
p1056
I84
sS'gloomy'
p1057
I84
sS'stingray'
p1058
I84
sS'cook'
p1059
I84
sS'locked'
p1060
I83
sS'escucho'
p1061
I84
sS':p'
p1062
I82
sS'minute'
p1063
I83
sS'cool'
p1064
I77
sS"starbuck's"
p1065
I84
sS'jarols'
p1066
I84
sS'mexicans'
p1067
I84
sS'salvador'
p1068
I84
sS'level'
p1069
I84
sS'did'
p1070
I70
sS'die'
p1071
I78
sS'posts'
p1072
I82
sS'brother'
p1073
I80
sS'gum'
p1074
I83
sS'leave'
p1075
I78
sS'p'
p1076
I84
sS'soooo'
p1077
I84
sS'settle'
p1078
I84
sS'subway'
p1079
I83
sS'team'
p1080
I83
sS'quick'
p1081
I78
sS'sidewalk'
p1082
I69
sS'round'
p1083
I84
sS'yall'
p1084
I84
sS'shoe'
p1085
I84
sS'says'
p1086
I83
sS'regret'
p1087
I84
sS'trend'
p1088
I83
sS'sigh'
p1089
I84
sS'invaded'
p1090
I84
sS'shirts'
p1091
I83
sS'run'
p1092
I80
sS'migraines'
p1093
I84
sS'port'
p1094
I84
sS'drinks'
p1095
I84
sS'gallito'
p1096
I84
sS'snacks'
p1097
I84
sS'stands'
p1098
I84
sS'venga'
p1099
I84
sS'mt'
p1100
I84
sS'filler'
p1101
I84
sS'mangoneada'
p1102
I84
sS'melt'
p1103
I84
sS'thicker'
p1104
I84
sS'hungry'
p1105
I83
sS'yeiiii'
p1106
I84
sS'melo'
p1107
I84
sS'goes'
p1108
I82
sS'pine'
p1109
I84
sS'falling'
p1110
I82
sS'aeno'
p1111
I84
sS'sweaters'
p1112
I84
sS'ever.\xe2\x9d\x8e'
p1113
I84
sS'vengan'
p1114
I84
sS'clears'
p1115
I84
sS'cheetos'
p1116
I84
sS'grandparents'
p1117
I84
sS'makeup'
p1118
I83
sS'travolta'
p1119
I84
sS'water'
p1120
I80
sS'woot'
p1121
I82
sS'baseball'
p1122
I82
sS'alone'
p1123
I79
sS'along'
p1124
I82
sS"quiero!'"
p1125
I84
sS'aunque'
p1126
I84
sS'change'
p1127
I82
sS'wait'
p1128
I73
sS'box'
p1129
I79
sS'boy'
p1130
I82
sS'bra'
p1131
I84
sS'canadian'
p1132
I84
sS'healthy'
p1133
I84
sS'shift'
p1134
I81
sS'bruises'
p1135
I84
sS'ixel'
p1136
I84
sS'forgiveness'
p1137
I84
sS'lakers'
p1138
I84
sS'example'
p1139
I84
sS'boi'
p1140
I83
sS'boo'
p1141
I83
sS'usually'
p1142
I84
sS'weird'
p1143
I77
sS'tocada'
p1144
I84
sS'massage'
p1145
I82
sS'love'
p1146
I42
sS'hiking'
p1147
I84
sS'extra'
p1148
I84
sS'colbert'
p1149
I84
sS'sideyes'
p1150
I84
sS'presumir'
p1151
I84
sS'snaps'
p1152
I84
sS'losing'
p1153
I84
sS'tower)'
p1154
I84
sS'fake'
p1155
I80
sS'embarrassing'
p1156
I84
sS'rancho\xe2\x80\xa6'
p1157
I84
sS'\xe2\x9c\x82'
p1158
I84
sS'market'
p1159
I82
sS'haha"the'
p1160
I84
sS'everybody'
p1161
I82
sS'siempre'
p1162
I84
sS'saki'
p1163
I83
sS'working'
p1164
I78
sS'probaly'
p1165
I84
sS'bury'
p1166
I84
sS'javiruchis"'
p1167
I84
sS'visit'
p1168
I78
sS'nadie'
p1169
I84
sS'papas'
p1170
I83
sS'by'
p1171
I65
sS'creamy'
p1172
I84
sS'live'
p1173
I77
sS'todas'
p1174
I84
sS'iphone'
p1175
I83
sS'ahhh'
p1176
I84
sS'thru'
p1177
I83
sS'angels'
p1178
I83
sS'definitivamente'
p1179
I84
sS'today'
p1180
I50
sS'alg\xc3\xban'
p1181
I84
sS'club'
p1182
I83
sS'3-pack'
p1183
I84
sS'acceptable'
p1184
I84
sS'chocolate'
p1185
I83
sS'downtown'
p1186
I84
sS'carnival'
p1187
I84
sS'espero'
p1188
I83
sS'everywhere'
p1189
I81
sS'fingered'
p1190
I84
sS'effort'
p1191
I84
sS'"see"'
p1192
I84
sS'guanajuato)'
p1193
I84
sS'fly'
p1194
I84
sS'douche'
p1195
I83
sS'deserved'
p1196
I83
sS'niggas'
p1197
I79
sS'car'
p1198
I68
sS'pretend'
p1199
I84
sS'flu'
p1200
I84
sS'soul'
p1201
I81
sS'cat'
p1202
I84
sS'wallet'
p1203
I84
sS'hardest'
p1204
I81
sS'sour'
p1205
I83
sS'can'
p1206
I51
sS'9th'
p1207
I83
sS'searchin'
p1208
I84
sS'growing'
p1209
I83
sS'making'
p1210
I79
sS"lovin'"
p1211
I84
sS'streak'
p1212
I84
sS'heart'
p1213
I82
sS'crazy'
p1214
I76
sS'moscato'
p1215
I84
sS'fucc'
p1216
I84
sS'figure'
p1217
I84
sS'awesome'
p1218
I80
sS"didn't"
p1219
I74
sS'confused'
p1220
I82
sS'sample'
p1221
I84
sS'heard'
p1222
I84
sS'stroke'
p1223
I84
sS'dropped'
p1224
I84
sS'allowed'
p1225
I84
sS'clothing'
p1226
I84
sS'in/near'
p1227
I84
sS'purp'
p1228
I84
sS'winter'
p1229
I83
sS'accidentarse'
p1230
I84
sS'despidida'
p1231
I84
sS'watching'
p1232
I74
sS'trophies'
p1233
I84
sS'gasol'
p1234
I84
sS'1'
p1235
I81
sS'till'
p1236
I81
sS'sunday'
p1237
I81
sS'tile'
p1238
I84
sS'genocide'
p1239
I84
sS'recents'
p1240
I84
sS'ayyyeee'
p1241
I84
sS"ta'bien"
p1242
I84
sS'mas'
p1243
I80
sS"cesar's"
p1244
I84
sS'laundry'
p1245
I84
sS'may'
p1246
I84
sS'gritty'
p1247
I84
sS'spot'
p1248
I80
sS'mac'
p1249
I84
sS'birthday'
p1250
I73
sS'newer'
p1251
I84
sS'mad'
p1252
I82
sS'date'
p1253
I83
sS'such'
p1254
I84
sS'suck'
p1255
I83
sS'spouted'
p1256
I84
sS'guys'
p1257
I70
sS'grow'
p1258
I81
sS'lifting'
p1259
I84
sS'man'
p1260
I72
sS'fckn'
p1261
I83
sS'surfing'
p1262
I84
sS'natural'
p1263
I83
sS'remember'
p1264
I81
sS'succeeded'
p1265
I84
sS'chiropractic'
p1266
I84
sS'whenever'
p1267
I84
sS'maybe'
p1268
I83
sS'lineeee'
p1269
I84
sS'sp'
p1270
I84
sS'benny'
p1271
I84
sS'su'
p1272
I83
sS'st'
p1273
I81
sS'q'
p1274
I72
sS'gaffey'
p1275
I82
sS'si'
p1276
I82
sS'so'
p1277
I19
sS'ecstasy'
p1278
I84
sS'sc'
p1279
I84
sS'representation'
p1280
I84
sS'bl000000d'
p1281
I84
sS"og's"
p1282
I84
sS'se'
p1283
I77
sS'sd'
p1284
I84
sS'cute'
p1285
I79
sS'shoes'
p1286
I82
sS'klove'
p1287
I84
sS'haircut'
p1288
I81
sS'wishing'
p1289
I84
sS'years'
p1290
I80
sS'course'
p1291
I82
sS'episodes'
p1292
I83
sS'pitch'
p1293
I84
sS'cold'
p1294
I83
sS'still'
p1295
I64
sS'birds'
p1296
I84
sS'do........why'
p1297
I84
sS'group'
p1298
I80
sS'thank'
p1299
I59
sS'how'
p1300
I56
sS'interesting'
p1301
I82
sS'wyd'
p1302
I84
sS'amazing'
p1303
I82
sS'maiz'
p1304
I84
sS"he'd"
p1305
I84
sS'civil'
p1306
I84
sS'liquid'
p1307
I84
sS'party..and'
p1308
I84
sS'spell'
p1309
I84
sS'main'
p1310
I84
sS'specialbecause'
p1311
I84
sS'errrrr'
p1312
I84
sS'non'
p1313
I84
sS'noo'
p1314
I84
sS'\xd9\x83\xd8\xa7\xd9\x86'
p1315
I84
sS'halt'
p1316
I84
sS'3'
p1317
I78
sS'moms'
p1318
I84
sS'smarter'
p1319
I84
sS'speeding'
p1320
I84
sS'insomnia'
p1321
I84
sS'introduce'
p1322
I84
sS'indigenous'
p1323
I82
sS'lunch'
p1324
I79
sS'touching'
p1325
I84
sS'sphs'
p1326
I84
sS'half'
p1327
I83
sS'not'
p1328
I33
sS'now'
p1329
I39
sS'ahaha'
p1330
I84
sS'killed'
p1331
I82
sS'nos'
p1332
I83
sS'wagon'
p1333
I84
sS'name'
p1334
I78
sS'lies'
p1335
I84
sS'james'
p1336
I84
sS'drop'
p1337
I84
sS'.."sister"'
p1338
I84
sS'monteces'
p1339
I84
sS'desde'
p1340
I84
sS'rock'
p1341
I80
sS'muchas'
p1342
I83
sS'quarter'
p1343
I83
sS'em'
p1344
I80
sS'el'
p1345
I65
sS'r'
p1346
I84
sS'en'
p1347
I73
sS'honduras'
p1348
I84
sS'lowkey'
p1349
I84
sS'yeah'
p1350
I76
sS'wrap'
p1351
I84
sS'catching'
p1352
I84
sS'ex'
p1353
I82
sS'year'
p1354
I77
sS'ft'
p1355
I82
sS'girl'
p1356
I67
sS'worried'
p1357
I84
sS'salads'
p1358
I84
sS'ep'
p1359
I84
sS'es'
p1360
I80
sS'tried'
p1361
I84
sS'living'
p1362
I81
sS'and\xe2\x80\xa6'
p1363
I84
sS'rude'
p1364
I84
sS'3rd'
p1365
I84
sS'irony'
p1366
I84
sS'looking'
p1367
I79
sS'seriously'
p1368
I79
sS'miles'
p1369
I84
sS"shouldn't"
p1370
I81
sS'"racist'
p1371
I84
sS'showroom'
p1372
I84
sS'nudes'
p1373
I84
sS'correct'
p1374
I84
sS'playyy'
p1375
I84
sS'"boiled'
p1376
I84
sS'canal'
p1377
I84
sS'smfh'
p1378
I84
sS'dodgers'
p1379
I80
sS'tesito'
p1380
I84
sS'monster'
p1381
I84
sS'state'
p1382
I82
sS'cars'
p1383
I82
sS'million'
p1384
I84
sS'boobs'
p1385
I84
sS'nephew\xe2\x9d\xa4'
p1386
I84
sS'quite'
p1387
I84
sS'oro'
p1388
I84
sS'lmk'
p1389
I84
sS'california'
p1390
I79
sS'besides'
p1391
I84
sS'skythrills'
p1392
I84
sS'marina'
p1393
I84
sS'traen'
p1394
I84
sS'sista'
p1395
I84
sS'card'
p1396
I84
sS'care'
p1397
I76
sS'watts'
p1398
I84
sS'gusta'
p1399
I83
sS'forgave'
p1400
I84
sS'language'
p1401
I83
sS'yup'
p1402
I82
sS'peppering'
p1403
I84
sS'honest'
p1404
I83
sS'chevy'
p1405
I84
sS'turn'
p1406
I81
sS'principe'
p1407
I84
sS'nuff'
p1408
I84
sS'place'
p1409
I75
sS'vision'
p1410
I84
sS'envied'
p1411
I84
sS'think'
p1412
I67
sS'first'
p1413
I69
sS'emotion'
p1414
I84
sS'xo'
p1415
I79
sS'muchh'
p1416
I84
sS'dinamita'
p1417
I84
sS'xd'
p1418
I84
sS'mucho'
p1419
I83
sS'xx'
p1420
I84
sS'empezar\xc3\xa9'
p1421
I84
sS'long'
p1422
I68
sS'carry'
p1423
I84
sS'sounds'
p1424
I81
sS'drove'
p1425
I84
sS'open'
p1426
I82
sS'tomorrow'
p1427
I74
sS'city'
p1428
I71
sS'little'
p1429
I68
sS'checked'
p1430
I84
sS'llegar'
p1431
I84
sS'caught'
p1432
I82
sS'slept'
p1433
I84
sS'anyone'
p1434
I78
sS'guadalupe'
p1435
I84
sS'fml'
p1436
I81
sS'2'
p1437
I73
sS':-/'
p1438
I84
sS'moon...and'
p1439
I84
sS'white'
p1440
I80
sS'fo'
p1441
I84
sS'friend'
p1442
I76
sS'gives'
p1443
I83
sS'mining'
p1444
I83
sS'showdown'
p1445
I84
sS'trayvon'
p1446
I84
sS'hater'
p1447
I84
sS'that'
p1448
I23
sS'shawn'
p1449
I84
sS'season'
p1450
I81
sS'continuous'
p1451
I84
sS'huh'
p1452
I82
sS'cops'
p1453
I81
sS'additude'
p1454
I84
sS'alas'
p1455
I84
sS'butt'
p1456
I84
sS'baja'
p1457
I78
sS'attempt'
p1458
I84
sS'uranium'
p1459
I84
sS'flowers'
p1460
I83
sS'than'
p1461
I69
sS"here's"
p1462
I83
sS'boyfriend'
p1463
I84
sS'11'
p1464
I84
sS'wide'
p1465
I84
sS'12'
p1466
I83
sS'$10'
p1467
I84
sS'lmao'
p1468
I67
sS'i\xe2\x80\x99ll'
p1469
I84
sS'$13'
p1470
I84
sS'18'
p1471
I81
sS'gotta'
p1472
I78
sS'bailador'
p1473
I84
sS'5sos'
p1474
I84
sS'niners'
p1475
I84
sS'audy'
p1476
I84
sS'venture'
p1477
I84
sS'were'
p1478
I67
sS'fruity'
p1479
I84
sS'sophia'
p1480
I84
sS'1925'
p1481
I84
sS'and'
p1482
I11
sS'coconut'
p1483
I84
sS'san'
p1484
I40
sS'prc'
p1485
I84
sS'ahhhhhhhh'
p1486
I84
sS'pullout'
p1487
I84
sS'home!\xe2\x9d\xa4\xef\xb8\x8f'
p1488
I84
sS'parking'
p1489
I81
sS'turned'
p1490
I83
sS'slap'
p1491
I83
sS'sad'
p1492
I78
sS'say'
p1493
I74
sS'breakfast'
p1494
I79
sS'capitalism'
p1495
I84
sS'saw'
p1496
I79
sS'any'
p1497
I82
sS'kevin'
p1498
I84
sS'03:50:06.0,33.7435072,-118.2933444,2966,??where'
p1499
I84
sS'nap\xe2\x9d\xa4\xef\xb8\x8f'
p1500
I84
sS'wcw'
p1501
I84
sS'warriors'
p1502
I84
sS'ideas'
p1503
I83
sS'omfg'
p1504
I84
sS'squad'
p1505
I82
sS'hookah'
p1506
I84
sS'take'
p1507
I66
sS'ego'
p1508
I84
sS'99\xc2\xa2'
p1509
I84
sS'blunt'
p1510
I84
sS'switching'
p1511
I83
sS'200'
p1512
I84
sS'sure'
p1513
I73
sS'pain'
p1514
I83
sS'theatre'
p1515
I83
sS'normal'
p1516
I84
sS'apartment)'
p1517
I84
sS'paid'
p1518
I83
sS'cartones'
p1519
I84
sS'jajajaja'
p1520
I82
sS'vons'
p1521
I84
sS'20$'
p1522
I84
sS'inka'
p1523
I84
sS'20+'
p1524
I84
sS'america'
p1525
I81
sS'forever'
p1526
I84
sS'fuck..rather'
p1527
I84
sS'synonym'
p1528
I84
sS'especially'
p1529
I84
sS'"merry'
p1530
I84
sS'egg'
p1531
I84
sS'seafood'
p1532
I83
sS'later'
p1533
I84
sS'drive'
p1534
I83
sS'estan'
p1535
I84
sS'sunset'
p1536
I84
sS'greed'
p1537
I84
sS'axe'
p1538
I84
sS'senior'
p1539
I84
sS'sals'
p1540
I84
sS'something.\xe2\x80\x9d'
p1541
I84
sS'analee'
p1542
I84
sS'shop'
p1543
I81
sS'beaner'
p1544
I84
sS'walking'
p1545
I81
sS'playoffs'
p1546
I83
sS'compadres'
p1547
I84
sS'show'
p1548
I78
sS'peaches'
p1549
I84
sS'estoy'
p1550
I84
sS'bright'
p1551
I83
sS'drawings'
p1552
I84
sS'aggressive'
p1553
I84
sS'dantasy'
p1554
I84
sS'ground'
p1555
I84
sS'aint'
p1556
I84
sS'\xe2\x9c\x8c'
p1557
I83
sS'slow'
p1558
I83
sS'dice'
p1559
I83
sS'\xe2\x9c\x8a'
p1560
I84
sS'true'
p1561
I78
sS',90731\n505785279228411905,edwin237,2014-08-30'
p1562
I84
sS'enough'
p1563
I79
sS'either'
p1564
I82
sS'only'
p1565
I75
sS'going'
p1566
I48
sS'black'
p1567
I81
sS'brake'
p1568
I84
sS'telefono'
p1569
I84
sS'pumpkin'
p1570
I84
sS'directed'
p1571
I84
sS'savoring'
p1572
I84
sS'get'
p1573
I29
sS'freezing'
p1574
I83
sS'truly'
p1575
I83
sS'seeeee'
p1576
I84
sS'sharkeez\xe2\x80\xa6'
p1577
I84
sS'hooper'
p1578
I84
sS'vienen'
p1579
I84
sS'"dirty'
p1580
I84
sS'pimp'
p1581
I82
sS'artist'
p1582
I84
sS'leather'
p1583
I84
sS'primo'
p1584
I84
sS"else's"
p1585
I84
sS'laaa'
p1586
I84
sS'awwwww'
p1587
I84
sS'morning'
p1588
I74
sS":'("
p1589
I84
sS'stupid'
p1590
I82
sS'liable'
p1591
I84
sS'sonar'
p1592
I84
sS'miley'
p1593
I84
sS'where'
p1594
I59
sS'husband'
p1595
I84
sS"y'all"
p1596
I84
sS'ignored'
p1597
I84
sS'duckss'
p1598
I84
sS'physically'
p1599
I84
sS'josejuan'
p1600
I84
sS'mom'
p1601
I68
sS'dickhead'
p1602
I84
sS'asleep'
p1603
I81
sS'anyways'
p1604
I83
sS'hoes'
p1605
I83
sS'pisces'
p1606
I84
sS'pandora:)'
p1607
I84
sS'wonder'
p1608
I83
sS'israeli'
p1609
I84
sS'results'
p1610
I84
sS'golazo'
p1611
I83
sS'frente'
p1612
I84
sS'farmers'
p1613
I84
sS'ways'
p1614
I84
sS'cafe)'
p1615
I84
sS'outside'
p1616
I80
sS'pupusas"'
p1617
I84
sS'between'
p1618
I84
sS'across'
p1619
I84
sS'females..sucias'
p1620
I84
sS'fight'
p1621
I84
sS'notice'
p1622
I84
sS'jobs'
p1623
I84
sS'august'
p1624
I84
sS'25'
p1625
I83
sS'heatspots'
p1626
I84
sS'ju'
p1627
I84
sS'tus'
p1628
I84
sS'26'
p1629
I84
sS'garda'
p1630
I84
sS'killing'
p1631
I84
sS'blame'
p1632
I83
sS'como'
p1633
I80
sS'hurts'
p1634
I84
sS'pens'
p1635
I84
sS'come'
p1636
I60
sS'guitar'
p1637
I84
sS'dates'
p1638
I83
sS'penguins'
p1639
I84
sS'many'
p1640
I78
sS'depocrisy'
p1641
I84
sS'dedicate'
p1642
I84
sS'restroom'
p1643
I84
sS'personal'
p1644
I83
sS's'
p1645
I81
sS'residency'
p1646
I84
sS'quien'
p1647
I82
sS'delete'
p1648
I84
sS'epison'
p1649
I84
sS'canci\xc3\xb3n'
p1650
I84
sS"can't"
p1651
I56
sS'jigga'
p1652
I84
sS'merry'
p1653
I84
sS'150'
p1654
I84
sS'pot'
p1655
I84
sS'jk'
p1656
I84
sS'cuando'
p1657
I83
sS'acaban'
p1658
I83
sS'nooooo'
p1659
I84
sS'60'
p1660
I84
sS'jammed'
p1661
I84
sS"couldn't"
p1662
I80
sS'cancel'
p1663
I84
sS'cuide'
p1664
I84
sS'\xc2\xbb\xc2\xbb'
p1665
I84
sS'cesarin'
p1666
I84
sS'puppies'
p1667
I84
sS'18:33:02.0,33.7354919,-118.2893052,2966,when'
p1668
I84
sS'invert'
p1669
I84
sS'vacation'
p1670
I83
sS'coupe'
p1671
I84
sS'breath'
p1672
I84
sS'peaceful'
p1673
I84
sS'helicopter'
p1674
I84
sS'bawse'
p1675
I84
sS'mary'
p1676
I75
sS'schoolboy'
p1677
I84
sS'wants'
p1678
I81
sS'chai'
p1679
I84
sS'matters'
p1680
I84
sS'offered'
p1681
I84
sS'blessing'
p1682
I84
sS'andrew'
p1683
I83
sS'dramatic'
p1684
I84
sS'wake'
p1685
I83
sS'bmw'
p1686
I84
sS'foggy'
p1687
I84
sS'\xe2\x86\x92\xe2\x86\x92'
p1688
I84
sS'crumble'
p1689
I84
sS'amores'
p1690
I84
sS'argentina'
p1691
I83
sS'those'
p1692
I78
sS'sound'
p1693
I83
sS'myself'
p1694
I80
sS'winky'
p1695
I84
sS'casa'
p1696
I84
sS'sit'
p1697
I84
sS'turtles'
p1698
I84
sS'these'
p1699
I65
sS'might'
p1700
I83
sS'tribal'
p1701
I84
sS'sophs'
p1702
I84
sS"momma's"
p1703
I84
sS'oooooohk'
p1704
I84
sS'trick'
p1705
I84
sS'pacers'
p1706
I84
sS'gemini'
p1707
I84
sS'policies'
p1708
I84
sS'pollo'
p1709
I83
sS'cancelled'
p1710
I84
sS'muchachos'
p1711
I84
sS'care)'
p1712
I83
sS'coolest'
p1713
I84
sS'understand'
p1714
I84
sS'ive'
p1715
I83
sS'coffee'
p1716
I82
sS'bros'
p1717
I84
sS'sleeping'
p1718
I80
sS'middle'
p1719
I83
sS'someone'
p1720
I72
sS'accounting'
p1721
I84
sS'heels'
p1722
I83
sS'flipped'
p1723
I84
sS'everyday'
p1724
I83
sS'worry'
p1725
I83
sS'pirlo'
p1726
I84
sS'different'
p1727
I81
sS'williams'
p1728
I84
sS'chevron'
p1729
I84
sS'allllll'
p1730
I84
sS'doctor'
p1731
I81
sS'pay'
p1732
I82
sS'reminded'
p1733
I84
sS'same'
p1734
I78
sS'check'
p1735
I81
sS'food'
p1736
I72
sS'pac'
p1737
I84
sS'coworkers'
p1738
I83
sS'distilled'
p1739
I84
sS'doctor\xe2\x9c\xa8'
p1740
I84
sS'events'
p1741
I84
sS'todos'
p1742
I83
sS'status'
p1743
I83
sS'finish'
p1744
I83
sS'closest'
p1745
I83
sS'driver'
p1746
I83
sS'weed'
p1747
I81
sS'director'
p1748
I84
sS'running'
p1749
I83
sS'harris'
p1750
I84
sS'woohhoooo'
p1751
I84
sS'delicate'
p1752
I84
sS'favorites'
p1753
I84
sS'changing'
p1754
I84
sS'tapatio'
p1755
I83
sS'mentally'
p1756
I84
sS'awesomeness'
p1757
I84
sS'burrito'
p1758
I84
sS'quincea\xc3\xb1era'
p1759
I84
sS'charger'
p1760
I83
sS"tv's"
p1761
I84
sS'montez!"'
p1762
I84
sS'breezy'
p1763
I84
sS'caliente'
p1764
I84
sS'breeze'
p1765
I83
sS'pupusas'
p1766
I84
sS'comes'
p1767
I81
sS'alfredo'
p1768
I84
sS'bumping'
p1769
I84
sS"you've"
p1770
I82
sS'summer'
p1771
I74
sS'\xe2\x98\xba\xef\xb8\x8f'
p1772
I77
sS'being'
p1773
I71
sS'money'
p1774
I78
sS'nights"'
p1775
I84
sS'adjustments'
p1776
I84
sS'exaggerating'
p1777
I84
sS'forevs'
p1778
I84
sS'rest'
p1779
I83
sS'bikini'
p1780
I84
sS'tobe'
p1781
I84
sS'pissing'
p1782
I84
sS'kill'
p1783
I82
sS'\xd8\xa7\xd9\x84\xd9\x84\xd9\x8a'
p1784
I84
sS'spandex'
p1785
I84
sS'flavor'
p1786
I84
sS'foreva'
p1787
I84
sS'blow'
p1788
I83
sS'yaaas'
p1789
I84
sS'death'
p1790
I84
sS'hint'
p1791
I84
sS'thinking'
p1792
I81
sS"everyone's"
p1793
I84
sS'seems'
p1794
I84
sS'crib)'
p1795
I84
sS'odio'
p1796
I84
sS'lets'
p1797
I83
sS'tio'
p1798
I84
sS'ahhhh'
p1799
I84
sS'4'
p1800
I78
sS'versa'
p1801
I84
sS'thoughts'
p1802
I84
sS'tuesday'
p1803
I84
sS'real'
p1804
I76
sS'starving'
p1805
I83
sS'around'
p1806
I78
sS'amo'
p1807
I83
sS'desperately'
p1808
I84
sS'rules'
p1809
I84
sS'por'
p1810
I77
sS'stung'
p1811
I84
sS'mop'
p1812
I84
sS'gonna'
p1813
I68
sS'early'
p1814
I76
sS'campos'
p1815
I84
sS'moo'
p1816
I83
sS'\xe2\x9d\xa4'
p1817
I83
sS'tie'
p1818
I84
sS'world'
p1819
I72
sS'\xe2\x80\x98a'
p1820
I84
sS'lady'
p1821
I82
sS'rocky'
p1822
I84
sS'clan'
p1823
I84
sS'fossils'
p1824
I84
sS'cansiones'
p1825
I84
sS'buddies'
p1826
I84
sS'(106'
p1827
I84
sS't'
p1828
I83
sS'lorena'
p1829
I84
sS'nosotras'
p1830
I84
sS'omggg'
p1831
I84
sS'clap'
p1832
I83
sS'brite'
p1833
I80
sS'parecera'
p1834
I84
sS'pola'
p1835
I84
sS'grub'
p1836
I83
sS'fades'
p1837
I84
sS'camper:)'
p1838
I84
sS'pacific'
p1839
I83
sS'tarot'
p1840
I84
sS'lobster'
p1841
I84
sS'detroit'
p1842
I84
sS'table'
p1843
I82
sS'images'
p1844
I84
sS'papi'
p1845
I84
sS'stagecoach'
p1846
I84
sS'brothers'
p1847
I84
sS'gross'
p1848
I84
sS'scholarships'
p1849
I84
sS'mood'
p1850
I83
sS'noob'
p1851
I84
sS'cavity'
p1852
I84
sS'memories'
p1853
I83
sS'\xd8\xa8\xd8\xa7\xd9\x84\xd9\x8a\xe2\x80\xa6'
p1854
I84
sS'pisoton'
p1855
I84
sS'moon'
p1856
I84
sS'outa'
p1857
I84
sS'picks'
p1858
I84
sS'cramps'
p1859
I84
sS'football'
p1860
I84
sS'business'
p1861
I82
sS'siete'
p1862
I84
sS'lmfao'
p1863
I79
sS'nails'
p1864
I82
sS'polite'
p1865
I84
sS'broken'
p1866
I82
sS'^_^'
p1867
I83
sS'it??"'
p1868
I84
sS';)'
p1869
I80
sS'exciting'
p1870
I83
sS'ducking'
p1871
I84
sS'earlier'
p1872
I83
sS'acc'
p1873
I84
sS'on'
p1874
I20
sS'ok'
p1875
I83
sS'oh'
p1876
I74
sS'og'
p1877
I83
sS'of'
p1878
I15
sS'holaa'
p1879
I84
sS'violence'
p1880
I84
sS'oc'
p1881
I83
sS'desvelada'
p1882
I84
sS'shrimp'
p1883
I84
sS'greatly'
p1884
I83
sS'act'
p1885
I82
sS'luck'
p1886
I83
sS'or'
p1887
I55
sS'amber'
p1888
I83
sS'ladies'
p1889
I84
sS'spreading'
p1890
I84
sS'smelling'
p1891
I84
sS'blessed'
p1892
I84
sS'snapchat'
p1893
I80
sS'airlines'
p1894
I84
sS'nicotine'
p1895
I84
sS'rising'
p1896
I84
sS'angel'
p1897
I84
sS'parties'
p1898
I84
sS'valuable'
p1899
I84
sS"tryin'"
p1900
I84
sS'nowadays'
p1901
I84
sS'your'
p1902
I38
sS'thirty"'
p1903
I84
sS'twilight'
p1904
I84
sS'unas'
p1905
I84
sS'legacy'
p1906
I84
sS'her'
p1907
I57
sS'area'
p1908
I81
sS'ortiz'
p1909
I84
sS'there'
p1910
I71
sS'hey'
p1911
I78
sS'lol'
p1912
I30
sS'dreaming'
p1913
I84
sS'start'
p1914
I78
sS'cats'
p1915
I84
sS'freeways'
p1916
I84
sS'lot'
p1917
I81
sS'text\xe2\x80\x9d'
p1918
I84
sS'acabaron'
p1919
I84
sS'energy'
p1920
I84
sS'morrison'
p1921
I84
sS'chats'
p1922
I84
sS'interfaith'
p1923
I84
sS'tycoon'
p1924
I84
sS'mornings'
p1925
I84
sS'bby'
p1926
I84
sS'\xd9\x8a\xd8\xac\xd9\x8a'
p1927
I84
sS'pitcher'
p1928
I83
sS'lmaooo'
p1929
I84
sS'muy'
p1930
I84
sS'gorg'
p1931
I84
sS'trying'
p1932
I74
sS'with'
p1933
I22
sS'hottest'
p1934
I84
sS'buying'
p1935
I80
sS'longer'
p1936
I84
sS'pull'
p1937
I82
sS'rush'
p1938
I84
sS'quin'
p1939
I84
sS'stanford'
p1940
I84
sS"wasn't"
p1941
I76
sS'pacman'
p1942
I84
sS'technician/installer'
p1943
I84
sS'toda'
p1944
I84
sS'nearest'
p1945
I84
sS'sadness'
p1946
I84
sS'dirty'
p1947
I83
sS'grasp'
p1948
I84
sS'advantage'
p1949
I84
sS'agree'
p1950
I83
sS'usted'
p1951
I84
sS'connect'
p1952
I84
sS'gone'
p1953
I81
sS'taylor'
p1954
I83
sS'ohh'
p1955
I84
sS'af'
p1956
I79
sS'taste'
p1957
I83
sS'ah'
p1958
I82
sS'stealing'
p1959
I84
sS'moved'
p1960
I83
sS'al'
p1961
I80
sS'fallin'
p1962
I84
sS'an'
p1963
I67
sS'tengo'
p1964
I83
sS'rvp'
p1965
I84
sS'ojala'
p1966
I83
sS'at'
p1967
I16
sS'walks'
p1968
I84
sS'girlfriend'
p1969
I81
sS'watched'
p1970
I84
sS'cream'
p1971
I81
sS'yoo'
p1972
I84
sS'again'
p1973
I74
sS'maserati'
p1974
I84
sS'mas"'
p1975
I84
sS'dudes'
p1976
I84
sS'<<<'
p1977
I84
sS'graduate'
p1978
I84
sS'=)'
p1979
I84
sS'tight'
p1980
I83
sS'5'
p1981
I82
sS'hmu'
p1982
I83
sS'you'
p1983
I7
sS'trash'
p1984
I83
sS'gran'
p1985
I84
sS'presenting'
p1986
I84
sS'poor'
p1987
I83
sS'think...time'
p1988
I84
sS'bacardi'
p1989
I84
sS'obsessed'
p1990
I81
sS'students'
p1991
I84
sS'symbol'
p1992
I84
sS'nikos'
p1993
I84
sS'keepin'
p1994
I84
sS'important'
p1995
I84
sS'academy'
p1996
I84
sS'diablo'
p1997
I84
sS'fresh'
p1998
I76
sS'pool'
p1999
I84
sS'alcohol'
p2000
I83
sS'building'
p2001
I84
sS'shipping'
p2002
I84
sS'remote'
p2003
I84
sS'calls'
p2004
I83
sS'much\xc3\xadsima'
p2005
I84
sS'tricks'
p2006
I84
sS'wifi'
p2007
I84
sS'3-2'
p2008
I84
sS'$30'
p2009
I83
sS'having'
p2010
I79
sS'mass'
p2011
I83
sS'nelson'
p2012
I84
sS'alright'
p2013
I80
sS's\xc3\xb3lo'
p2014
I84
sS'starting'
p2015
I84
sS'jaja'
p2016
I83
sS'represent'
p2017
I84
sS'all'
p2018
I29
sS'tomorrows'
p2019
I84
sS'messi'
p2020
I83
sS'lack'
p2021
I84
sS'dollar'
p2022
I83
sS'durango'
p2023
I83
sS'month'
p2024
I81
sS'deadline'
p2025
I84
sS'dise'
p2026
I84
sS'responsible.,90731\n503026366732718080,ohsamiee,2014-08-23'
p2027
I84
sS'talks'
p2028
I83
sS'follow'
p2029
I60
sS'on\xe2\x98\x9d\xef\xb8\x8f'
p2030
I84
sS'faster'
p2031
I84
sS'pjs'
p2032
I84
sS'children'
p2033
I84
sS'hmmm'
p2034
I83
sS'asada'
p2035
I84
sS'ty'
p2036
I84
sS'imma'
p2037
I82
sS'tu'
p2038
I79
sS'vereeee'
p2039
I84
sS'including'
p2040
I84
sS'muchisimooo\xe2\x9d\xa4'
p2041
I84
sS'tn'
p2042
I84
sS'to'
p2043
I4
sS'tf'
p2044
I84
sS'siblings'
p2045
I84
sS'te'
p2046
I73
sS'tb'
p2047
I84
sS'jajajajajajajaja'
p2048
I84
sS'mpg'
p2049
I84
sS'woman'
p2050
I84
sS'appointment'
p2051
I84
sS"they'll"
p2052
I83
sS'song'
p2053
I78
sS'very'
p2054
I80
sS'horror'
p2055
I84
sS'paradise'
p2056
I84
sS'fav'
p2057
I84
sS'fat'
p2058
I82
sS'resistance'
p2059
I84
sS'simpsons'
p2060
I84
sS'worst'
p2061
I81
sS'17'
p2062
I84
sS'fam'
p2063
I83
sS'cerdo'
p2064
I84
sS'ticket'
p2065
I83
sS'grunion'
p2066
I84
sS'soup.,90731\n499790517312708608,edwin237,2014-08-14'
p2067
I84
sS'saludosss\xe2\x9c\x8c\xe2\x9c\x8c\xe2\x9c\x8c\xe2\x9c\x8c'
p2068
I84
sS'heaven'
p2069
I84
sS'hooking'
p2070
I83
sS'far..this'
p2071
I84
sS'mothers'
p2072
I83
sS'--'
p2073
I84
sS'list'
p2074
I83
sS'burritos'
p2075
I84
sS'large'
p2076
I84
sS'pesky'
p2077
I84
sS'liars'
p2078
I84
sS'harry'
p2079
I84
sS'small'
p2080
I84
sS'tear'
p2081
I84
sS"i'll"
p2082
I68
sS'cookies'
p2083
I84
sS'five\xe2\x80\xa6'
p2084
I84
sS'neighborhood'
p2085
I83
sS'instagram'
p2086
I79
sS'tea'
p2087
I80
sS'paso'
p2088
I84
sS'reins'
p2089
I84
sS'tee'
p2090
I84
sS'cvs'
p2091
I84
sS'sativas'
p2092
I84
sS"daniels*don't"
p2093
I84
sS'woooooooo'
p2094
I84
sS'pass'
p2095
I82
sS'cancion'
p2096
I84
sS'viera'
p2097
I84
sS'cigars'
p2098
I84
sS'what'
p2099
I47
sS'\xc3\x89chele'
p2100
I84
sS'abe'
p2101
I83
sS'deafheaven'
p2102
I84
sS'sun'
p2103
I83
sS'section'
p2104
I84
sS'hustlaaa'
p2105
I84
sS'apiado'
p2106
I84
sS'emotions'
p2107
I84
sS'\xc2\xaf\\(\xe3\x83\x84)/\xc2\xaf'
p2108
I84
sS'crush'
p2109
I81
sS'chants'
p2110
I84
sS'speller'
p2111
I84
sS'version'
p2112
I84
sS'sooooooo'
p2113
I84
sS'fuckk'
p2114
I84
sS'sup'
p2115
I84
sS'learned'
p2116
I84
sS'leia'
p2117
I84
sS'public'
p2118
I84
sS'vamos'
p2119
I81
sS'tattoos'
p2120
I84
sS'full'
p2121
I82
sS'christian'
p2122
I84
sS'ma'
p2123
I81
sS'\xe2\x80\x9cnext\xe2\x80\x9d'
p2124
I84
sS'vale'
p2125
I84
sS'hours'
p2126
I79
sS'faker'
p2127
I84
sS'trunk'
p2128
I84
sS'strong'
p2129
I82
sS'respect'
p2130
I84
sS'shoulda'
p2131
I84
sS'khris'
p2132
I84
sS'wen'
p2133
I84
sS'ahead'
p2134
I84
sS'fwd'
p2135
I84
sS'jackie'
p2136
I84
sS'experience'
p2137
I84
sS'pics'
p2138
I83
sS'peaking'
p2139
I84
sS'soon\xe2\x9d\xa4\xef\xb8\x8f'
p2140
I84
sS'amount'
p2141
I82
sS'pick'
p2142
I79
sS'action'
p2143
I83
sS'chernobyl'
p2144
I84
sS'noopee'
p2145
I84
sS'conditioning'
p2146
I84
sS'skippys'
p2147
I84
sS'*pong'
p2148
I84
sS'minutos'
p2149
I84
sS'via'
p2150
I80
sS'cuetes'
p2151
I84
sS'family'
p2152
I78
sS'suddenly'
p2153
I83
sS'donnie'
p2154
I83
sS'africa'
p2155
I84
sS'disgusting'
p2156
I84
sS'ask'
p2157
I83
sS'semester'
p2158
I83
sS'hioxo'
p2159
I84
sS'corta'
p2160
I84
sS'huzzah'
p2161
I84
sS'hommie'
p2162
I84
sS'munchies'
p2163
I84
sS'eye'
p2164
I77
sS'takes'
p2165
I83
sS'divaaaa'
p2166
I84
sS'intense'
p2167
I84
sS'donuts'
p2168
I83
sS'texting'
p2169
I83
sS'two'
p2170
I78
sS'vote'
p2171
I84
sS'rhej'
p2172
I84
sS'fulanita'
p2173
I84
sS'archives'
p2174
I84
sS'assad'
p2175
I84
sS'6'
p2176
I82
sS'shits'
p2177
I83
sS'\xd8\xb9\xd9\x85\xd8\xa7'
p2178
I84
sS'kick'
p2179
I81
sS'more'
p2180
I62
sS'tryna'
p2181
I79
sS'israel'
p2182
I84
sS'door'
p2183
I84
sS'knows'
p2184
I83
sS'lose-lose'
p2185
I84
sS'(no'
p2186
I84
sS'uno'
p2187
I84
sS'company'
p2188
I84
sS"family's"
p2189
I84
sS'disapprove'
p2190
I84
sS'excuse'
p2191
I84
sS"ain't"
p2192
I78
sS'basically'
p2193
I83
sS'broke'
p2194
I80
sS'dios'
p2195
I84
sS'dooo'
p2196
I84
sS'hurry'
p2197
I83
sS'karaoke'
p2198
I84
sS'glad'
p2199
I82
sS'town'
p2200
I82
sS'algo?amo'
p2201
I84
sS'keeping'
p2202
I83
sS'hour'
p2203
I80
sS'strain'
p2204
I84
sS'river...i'
p2205
I84
sS'sucks'
p2206
I79
sS'presentimiento'
p2207
I84
sS'03:53:55.0,33.7354788,-118.2892905,2966,this'
p2208
I84
sS'mall'
p2209
I84
sS'sudden'
p2210
I84
sS'del'
p2211
I82
sS'dem'
p2212
I84
sS'learn'
p2213
I83
sS'def'
p2214
I82
sS'beautiful'
p2215
I79
sS'nothing"'
p2216
I84
sS'brown'
p2217
I83
sS'rodriguez'
p2218
I84
sS'hayayaaaayyyy'
p2219
I84
sS'share'
p2220
I81
sS'accept'
p2221
I84
sS'boycott'
p2222
I84
sS'\xe2\x98\x95\xef\xb8\x8f'
p2223
I84
sS'acyerdas'
p2224
I84
sS'numbers'
p2225
I84
sS'yankees'
p2226
I84
sS'dress'
p2227
I84
sS'cuddy'
p2228
I84
sS'huge'
p2229
I81
sS'needs'
p2230
I81
sS'court'
p2231
I84
sS'goal'
p2232
I83
sS'bestfriends'
p2233
I84
sS'rather'
p2234
I79
sS'chops'
p2235
I84
sS'pressing'
p2236
I84
sS'fame'
p2237
I82
sS'needa'
p2238
I84
sS':d'
p2239
I84
sS'ucla'
p2240
I84
sS'hugs'
p2241
I83
sS'plans..oops'
p2242
I84
sS'sandwich'
p2243
I79
sS'okay'
p2244
I75
sS'plans'
p2245
I83
sS'mendes'
p2246
I84
sS'hoesss'
p2247
I84
sS'advice'
p2248
I83
sS'minimum'
p2249
I84
sS'acabe'
p2250
I84
sS'fb'
p2251
I84
sS'plane'
p2252
I82
sS'liliiiiiii'
p2253
I84
sS'blood'
p2254
I84
sS'numb'
p2255
I84
sS'coming'
p2256
I80
sS'okkkaayy?sis'
p2257
I84
sS'authentic'
p2258
I84
sS'quitando'
p2259
I84
sS'a'
p2260
I5
sS'funday'
p2261
I84
sS"that'd"
p2262
I84
sS'loud'
p2263
I81
sS'regardlessly'
p2264
I84
sS'spiteful'
p2265
I84
sS'volleyball'
p2266
I83
sS'deuces'
p2267
I84
sS'vegas'
p2268
I84
sS'roommates'
p2269
I84
sS'kiero'
p2270
I84
sS'$20'
p2271
I83
sS'banks'
p2272
I84
sS'facebook'
p2273
I82
sS'rentals'
p2274
I84
sS'dream'
p2275
I81
sS'playing'
p2276
I75
sS"that's"
p2277
I71
sS'replied'
p2278
I84
sS'chicks'
p2279
I84
sS'mexican'
p2280
I80
sS'help'
p2281
I80
sS"don't"
p2282
I34
sS'september'
p2283
I84
sS'$25'
p2284
I84
sS'helllloooo'
p2285
I84
sS'sooo'
p2286
I83
sS'soon'
p2287
I79
sS'trade'
p2288
I84
sS'attitude'
p2289
I84
sS'through'
p2290
I78
sS'shit\xe2\x80\x9d'
p2291
I84
sS'signs'
p2292
I83
sS'hell'
p2293
I81
sS'mcdonalds'
p2294
I83
sS'its'
p2295
I75
sS'24'
p2296
I83
sS'messed'
p2297
I83
sS'style'
p2298
I83
sS'blast'
p2299
I84
sS'20'
p2300
I82
sS'21'
p2301
I77
sS'for?girl'
p2302
I84
sS'shifts'
p2303
I84
sS'pronto'
p2304
I82
sS'thnx'
p2305
I84
sS'team"'
p2306
I84
sS'28'
p2307
I84
sS'"twerk'
p2308
I84
sS'actually'
p2309
I79
sS'late'
p2310
I81
sS'>>>'
p2311
I84
sS'sonora'
p2312
I84
sS'bummer'
p2313
I84
sS'van'
p2314
I84
sS'bout'
p2315
I80
sS'soccer'
p2316
I83
sS'sauce'
p2317
I83
sS"tf'"
p2318
I84
sS"haven't"
p2319
I79
sS'dolls'
p2320
I83
sS'fool'
p2321
I84
sS'hurting'
p2322
I83
sS'good'
p2323
I54
sS'somebody'
p2324
I84
sS'calm'
p2325
I84
sS'yo'
p2326
I75
sS'ya'
p2327
I68
sS'watsonville'
p2328
I84
sS'woulda'
p2329
I84
sS'cupcake'
p2330
I84
sS'peeing'
p2331
I84
sS'sshhhhh'
p2332
I84
sS'starbucks'
p2333
I70
sS'shred'
p2334
I84
sS'ninja'
p2335
I84
sS'complain'
p2336
I84
sS'bigger'
p2337
I84
sS'sucked'
p2338
I83
sS'2u'
p2339
I84
sS'estass'
p2340
I84
sS'pregnant'
p2341
I84
sS'sundays'
p2342
I84
sS'always'
p2343
I58
sS'suprise'
p2344
I84
sS'drake'
p2345
I84
sS'spy'
p2346
I84
sS'true\xe2\x80\xbc\xef\xb8\x8f'
p2347
I84
sS'legend'
p2348
I84
sS'pan'
p2349
I84
sS'apartheid'
p2350
I84
sS'found'
p2351
I84
sS'friendship'
p2352
I84
sS'marry'
p2353
I84
sS"isn't"
p2354
I79
sS'heavy'
p2355
I84
sS'week'
p2356
I81
sS'everyone'
p2357
I76
sS'another'
p2358
I74
sS'weight'
p2359
I84
sS'house'
p2360
I74
sS'fish'
p2361
I79
sS'hard'
p2362
I81
sS'idea'
p2363
I83
sS'adam'
p2364
I84
sS'hawaii'
p2365
I84
sS',90731\n505564629435957248,edwin237,2014-08-30'
p2366
I84
sS'99cent'
p2367
I84
sS'cloudy'
p2368
I84
sS'beyond'
p2369
I83
sS'really'
p2370
I60
sS'anxious'
p2371
I84
sS'volvemos'
p2372
I84
sS'missed'
p2373
I82
sS'songggg'
p2374
I84
sS'robert'
p2375
I84
sS'since'
p2376
I76
sS'projected'
p2377
I84
sS'krispy'
p2378
I84
sS'america)'
p2379
I81
sS'7'
p2380
I83
sS'brewers'
p2381
I84
sS'ass'
p2382
I64
sS'restaraunt'
p2383
I84
sS'nervously'
p2384
I84
sS'"luck'
p2385
I84
sS'timeline'
p2386
I84
sS'friday'
p2387
I75
sS'motherfucker'
p2388
I84
sS'tbh'
p2389
I84
sS'mmm'
p2390
I84
sS',90731\n506286374597976064,edwin237,2014-09-01'
p2391
I84
sS'reason'
p2392
I84
sS'cookie'
p2393
I82
sS'asf'
p2394
I84
sS'members'
p2395
I84
sS'imagine'
p2396
I84
sS'put'
p2397
I80
sS'saloon)'
p2398
I83
sS'bumpin'
p2399
I84
sS'turnout'
p2400
I84
sS'guy'
p2401
I70
sS'<<'
p2402
I84
sS'aire'
p2403
I84
sS'fiat'
p2404
I84
sS'benefits'
p2405
I84
sS'service'
p2406
I84
sS'dijiste'
p2407
I84
sS'needing'
p2408
I84
sS'success'
p2409
I84
sS'filter?"'
p2410
I84
sS'american'
p2411
I83
sS'w'
p2412
I81
sS'daisy'
p2413
I84
sS'lawddddd'
p2414
I84
sS'lol,90731\n501551369355280384,edwin237,2014-08-19'
p2415
I84
sS'tuyo\xe2\x80\xa6'
p2416
I84
sS'major'
p2417
I84
sS'drooling'
p2418
I83
sS'dont'
p2419
I78
sS'feel'
p2420
I68
sS'hahahahahha'
p2421
I84
sS'contender'
p2422
I84
sS'fancy'
p2423
I84
sS'valentine'
p2424
I84
sS'feet'
p2425
I84
sS'infinite'
p2426
I84
sS'aora'
p2427
I84
sS'done'
p2428
I73
sS'least'
p2429
I80
sS'guap'
p2430
I84
sS'kobe'
p2431
I83
sS'miss'
p2432
I73
sS'maple'
p2433
I84
sS'state--it'
p2434
I84
sS'guess'
p2435
I76
sS'"'
p2436
I84
sS'jet'
p2437
I83
sS'contra'
p2438
I84
sS'esas'
p2439
I84
sS'together'
p2440
I82
sS'felicidades'
p2441
I83
sS'lobby'
p2442
I84
sS'jennijeans'
p2443
I84
sS'collage'
p2444
I84
sS'bolillo'
p2445
I84
sS'smile'
p2446
I84
sS'storm'
p2447
I84
sS'bravo'
p2448
I84
sS'mama'
p2449
I83
sS'hundred'
p2450
I84
sS'syrup'
p2451
I84
sS'banana'
p2452
I84
sS'store'
p2453
I81
sS'headache'
p2454
I83
sS'quiero<3'
p2455
I84
sS'selling'
p2456
I84
sS'statement'
p2457
I84
sS'para'
p2458
I81
sS'behind'
p2459
I83
sS'scrimmage'
p2460
I84
sS'hotel'
p2461
I84
sS'park'
p2462
I83
sS'segun'
p2463
I84
sS'dentist'
p2464
I84
sS'part'
p2465
I82
sS'jordan'
p2466
I84
sS'lela'
p2467
I84
sS'off'
p2468
I63
sS'believe'
p2469
I75
sS'convinced'
p2470
I84
sS'$3'
p2471
I84
sS'obama'
p2472
I84
sS'kind'
p2473
I78
sS'legs'
p2474
I84
sS'kindly'
p2475
I84
sS'double'
p2476
I81
sS'kreme'
p2477
I84
sS'vocal'
p2478
I84
sS'yummyyy'
p2479
I84
sS'medicate'
p2480
I83
sS'2020'
p2481
I84
sS'iraqis'
p2482
I84
sS'treated'
p2483
I84
sS'uniforms'
p2484
I84
sS'outta'
p2485
I83
sS'biirthdaaay'
p2486
I84
sS'wasnt'
p2487
I84
sS'seth'
p2488
I84
sS'andas'
p2489
I84
sS'alike'
p2490
I84
sS"jessica's"
p2491
I84
sS'yeep'
p2492
I84
sS'graduation'
p2493
I84
sS'03:44:12.0,33.7354818,-118.2893054,2966,andres'
p2494
I84
sS'sell'
p2495
I83
sS'lie'
p2496
I83
sS'nights'
p2497
I82
sS'relationship'
p2498
I84
sS'dude'
p2499
I80
sS'pasaa'
p2500
I84
sS'lil'
p2501
I82
sS'jizzy'
p2502
I84
sS'self'
p2503
I83
sS'henna'
p2504
I84
sS'(832'
p2505
I83
sS'also'
p2506
I84
sS'without'
p2507
I79
sS'useless'
p2508
I83
sS'finding'
p2509
I84
sS'nuestras'
p2510
I84
sS'irritated'
p2511
I84
sS'puffing'
p2512
I84
sS'fella'
p2513
I84
sS"lyin'"
p2514
I84
sS'buff'
p2515
I84
sS'waitin'
p2516
I84
sS'play'
p2517
I73
sS'naaaaahhhhh'
p2518
I84
sS'baile'
p2519
I84
sS'approves'
p2520
I84
sS'guyzz'
p2521
I84
sS'staples'
p2522
I84
sS'most'
p2523
I83
sS'plan'
p2524
I83
sS'fiasco'
p2525
I84
sS'nothing'
p2526
I78
sS'11:11'
p2527
I81
sS"'history'"
p2528
I84
sS'friends...only'
p2529
I84
sS'evaaa...everyone'
p2530
I84
sS'grams'
p2531
I83
sS'mando'
p2532
I84
sS'performances'
p2533
I84
sS'"you\'re'
p2534
I84
sS'sometimes'
p2535
I82
sS'clubbing'
p2536
I84
sS'clean'
p2537
I84
sS'\xe2\x98\x80\xef\xb8\x8f'
p2538
I84
sS'saloon'
p2539
I81
sS'sinner'
p2540
I84
sS'dragged'
p2541
I84
sS"they're"
p2542
I78
sS'thomas'
p2543
I84
sS'ugh'
p2544
I79
sS'rebels'
p2545
I84
sS'gold'
p2546
I82
sS'moroccan'
p2547
I84
sS'carne'
p2548
I84
sS'llegado\xe2\x8f\xaa'
p2549
I84
sS'session'
p2550
I84
sS'giggled'
p2551
I84
sS'stoned'
p2552
I83
sS'coins'
p2553
I84
sS'fine'
p2554
I83
sS'find'
p2555
I77
sS'accompany'
p2556
I84
sS'giant'
p2557
I84
sS'sayin'
p2558
I84
sS'pinche'
p2559
I82
sS'paranoid'
p2560
I83
sS'stairs'
p2561
I84
sS'ruin'
p2562
I84
sS'payday'
p2563
I83
sS'beeetchh'
p2564
I84
sS'penalty'
p2565
I84
sS'idiots'
p2566
I84
sS'pretty'
p2567
I71
sS'8'
p2568
I82
sS"mom's"
p2569
I84
sS'porque'
p2570
I81
sS'his'
p2571
I73
sS'hit'
p2572
I78
sS'tommorow'
p2573
I82
sS'underboob'
p2574
I84
sS'express'
p2575
I84
sS'micheals'
p2576
I84
sS'famous'
p2577
I84
sS'feels'
p2578
I79
sS'rings'
p2579
I84
sS'longest'
p2580
I83
sS'pretending'
p2581
I84
sS"george's"
p2582
I84
sS'him'
p2583
I76
sS'typos'
p2584
I84
sS'huff'
p2585
I84
sS'leasing"'
p2586
I84
sS'frickin'
p2587
I84
sS'cry'
p2588
I82
sS'bird'
p2589
I84
sS'thots'
p2590
I84
sS'feed'
p2591
I84
sS'disrespected'
p2592
I84
sS'"give'
p2593
I84
sS'guinea'
p2594
I84
sS'vincent'
p2595
I84
sS'bloated'
p2596
I84
sS'restaurants'
p2597
I84
sS'cutie'
p2598
I84
sS'set'
p2599
I84
sS'art'
p2600
I84
sS'ser'
p2601
I83
sS"missin'"
p2602
I84
sS'\xe2\x87\xa8'
p2603
I83
sS'naked'
p2604
I84
sS'311'
p2605
I84
sS'activists'
p2606
I84
sS'sex'
p2607
I82
sS'see'
p2608
I57
sS'defense'
p2609
I84
sS'dumb'
p2610
I76
sS'are'
p2611
I37
sS'sea'
p2612
I76
sS'tender'
p2613
I84
sS'close'
p2614
I79
sS'retweet'
p2615
I82
sS'barn'
p2616
I84
sS'tamales'
p2617
I84
sS'visiting'
p2618
I84
sS'trafico'
p2619
I84
sS'pictures'
p2620
I79
sS'wow'
p2621
I74
sS'currently'
p2622
I84
sS'please'
p2623
I83
sS'sorryyy'
p2624
I84
sS'fans'
p2625
I83
sS'won'
p2626
I83
sS'!!montez'
p2627
I84
sS'probably'
p2628
I80
sS'rite'
p2629
I76
sS'donate'
p2630
I84
sS'nope'
p2631
I83
sS'corruption'
p2632
I84
sS'compliment'
p2633
I84
sS'morirrrr'
p2634
I84
sS'knowing'
p2635
I82
sS'drawn..wish'
p2636
I84
sS'missing'
p2637
I84
sS'"now'
p2638
I84
sS'both'
p2639
I84
sS'despise'
p2640
I84
sS'last'
p2641
I66
sS'license'
p2642
I83
sS'restaurant'
p2643
I83
sS'secrets'
p2644
I84
sS"wouldn't"
p2645
I83
sS'barely'
p2646
I83
sS'whitey"'
p2647
I84
sS'faaaackkk'
p2648
I84
sS'shitt'
p2649
I84
sS'extra\xc3\xb1a'
p2650
I83
sS'secreto'
p2651
I84
sS'retarded'
p2652
I84
sS'bond'
p2653
I84
sS'whole'
p2654
I81
sS'stoplight'
p2655
I84
sS'faggots'
p2656
I84
sS'liked'
p2657
I84
sS'drunk'
p2658
I77
sS'cuts'
p2659
I84
sS'sweet'
p2660
I82
sS'manners'
p2661
I83
sS'community'
p2662
I82
sS'rosa'
p2663
I84
sS'andan'
p2664
I84
sS'likes'
p2665
I84
sS'church'
p2666
I80
sS'sunrise'
p2667
I84
sS'mission'
p2668
I83
sS'deepfried'
p2669
I84
sS'expensive'
p2670
I83
sS'belt'
p2671
I84
sS'pv'
p2672
I82
sS'raise'
p2673
I84
sS'javi'
p2674
I84
sS'teacher'
p2675
I84
sS'hitting'
p2676
I84
sS'ran'
p2677
I84
sS'karly'
p2678
I84
sS'pa'
p2679
I82
sS'damn'
p2680
I73
sS'txt'
p2681
I84
sS'meeting'
p2682
I84
sS'woke'
p2683
I81
sS'horoscopos'
p2684
I84
sS'sweetheart'
p2685
I84
sS'lived'
p2686
I84
sS'flight'
p2687
I84
sS'samples'
p2688
I84
sS'sending'
p2689
I84
sS'fire'
p2690
I83
sS'planet.."'
p2691
I84
sS"what's"
p2692
I81
sS'gas'
p2693
I80
sS'else'
p2694
I78
sS'anthony'
p2695
I84
sS'lives'
p2696
I83
sS'msjs'
p2697
I84
sS'rocking'
p2698
I84
sS'cantar'
p2699
I84
sS'6oz'
p2700
I84
sS"gentleman's"
p2701
I84
sS'randomly'
p2702
I84
sS'w/the'
p2703
I84
sS'look'
p2704
I75
sS'fleek'
p2705
I84
sS'frozen'
p2706
I83
sS'straight'
p2707
I83
sS'bill'
p2708
I84
sS'bop'
p2709
I84
sS'while'
p2710
I79
sS'fue'
p2711
I84
sS'nate'
p2712
I82
sS'error'
p2713
I84
sS'fun'
p2714
I72
sS'leland'
p2715
I84
sS'robin'
p2716
I84
sS'pack'
p2717
I82
sS'grip'
p2718
I84
sS'pound'
p2719
I84
sS'hoping'
p2720
I84
sS'luvvvv'
p2721
I84
sS'embarks'
p2722
I84
sS'\xe2\x98\x9d\xef\xb8\x8f\xe2\x98\xba\xef\xb8\x8f'
p2723
I84
sS'imperialist'
p2724
I84
sS'war?\xe2\x80\x99'
p2725
I84
sS'rip'
p2726
I84
sS'paaaahhhhhh'
p2727
I84
sS'disappointing'
p2728
I84
sS'madrugar'
p2729
I84
sS'itself'
p2730
I84
sS'ready'
p2731
I72
sS'rid'
p2732
I84
sS'fast-max'
p2733
I84
sS'ohhhh'
p2734
I84
sS'ethnicity'
p2735
I84
sS'audi'
p2736
I84
sS'grans'
p2737
I84
sS'funny'
p2738
I77
sS'raiders'
p2739
I84
sS'shirt'
p2740
I84
sS'anymore'
p2741
I81
sS'...incoming'
p2742
I84
sS'toyslast'
p2743
I84
sS'p/v'
p2744
I84
sS'india\xe2\x80\x99s'
p2745
I84
sS'seei'
p2746
I84
sS'entonces'
p2747
I84
sS'peoples'
p2748
I83
sS'9'
p2749
I84
sS'contestas'
p2750
I84
sS'mucinex'
p2751
I84
sS'shorts'
p2752
I84
sS'used'
p2753
I82
sS'dime'
p2754
I84
sS'assignment'
p2755
I84
sS'cigar'
p2756
I83
sS'yesterday'
p2757
I80
sS'backstreet'
p2758
I84
sS'go!,90731\n505188300513345536,edwin237,2014-08-29'
p2759
I84
sS'moment'
p2760
I83
sS'u.s'
p2761
I84
sS'moving'
p2762
I84
sS'cleaning'
p2763
I83
sS'thirsty?me'
p2764
I84
sS'phamiliar'
p2765
I82
sS'sandals'
p2766
I84
sS'pedro)'
p2767
I82
sS'dark'
p2768
I84
sS'people"'
p2769
I84
sS'older'
p2770
I82
sS"dad's"
p2771
I83
sS'cheek'
p2772
I84
sS'anybody'
p2773
I84
sS'obviously'
p2774
I84
sS'person'
p2775
I82
sS'cheer'
p2776
I84
sS'wedding\xe2\x9a\xbe\xef\xb8\x8f'
p2777
I84
sS'y'
p2778
I74
sS'wedges'
p2779
I84
sS'spend'
p2780
I83
sS'know'
p2781
I45
sS'salvi'
p2782
I84
sS'05:31:59.0,33.7354975,-118.289341,2966,armageddon'
p2783
I84
sS'listening'
p2784
I82
sS'ilysm'
p2785
I84
sS'navi'
p2786
I84
sS'styled'
p2787
I84
sS'venados'
p2788
I84
sS'botellita'
p2789
I83
sS'using'
p2790
I83
sS'stalk'
p2791
I84
sS'pi\xc3\xb1as'
p2792
I84
sS'cut'
p2793
I81
sS'cus'
p2794
I84
sS'cup'
p2795
I84
sS'distraida'
p2796
I84
sS'hated'
p2797
I84
sS'queen'
p2798
I84
sS'danger'
p2799
I84
sS'cemetery'
p2800
I84
sS'cuz'
p2801
I81
sS'havin'
p2802
I83
sS'shexy'
p2803
I84
sS'arriba'
p2804
I84
sS'parents'
p2805
I79
sS'location'
p2806
I84
sS'crying'
p2807
I84
sS'homies'
p2808
I84
sS'snap'
p2809
I82
sS'easter'
p2810
I83
sS'excited'
p2811
I77
sS'hates'
p2812
I84
sS'"fiat'
p2813
I84
sS'march'
p2814
I83
sS'bailarme'
p2815
I84
sS'big'
p2816
I81
sS'couple'
p2817
I84
sS'mins'
p2818
I84
sS'shitty'
p2819
I81
sS'game'
p2820
I69
sS'apt'
p2821
I84
sS'hooters'
p2822
I84
sS'conversing'
p2823
I84
sS'individually'
p2824
I84
sS'wings'
p2825
I84
sS'nottt'
p2826
I84
sS'formal'
p2827
I83
sS'd'
p2828
I76
sS'flappy'
p2829
I84
sS'yaaaass'
p2830
I84
sS'doritos'
p2831
I84
sS'snowboard'
p2832
I84
sS'ignore'
p2833
I84
sS'porfas'
p2834
I84
sS'botched'
p2835
I84
sS'partying'
p2836
I83
sS'often'
p2837
I82
sS'fucking'
p2838
I70
sS'tambi\xc3\xa9n'
p2839
I83
sS'1st'
p2840
I83
sS'some'
p2841
I53
sS'back'
p2842
I54
sS'global'
p2843
I84
sS'lips'
p2844
I84
sS'examples'
p2845
I84
sS'smh'
p2846
I84
sS'mustang'
p2847
I84
sS'ravaging'
p2848
I84
sS'sheesh'
p2849
I84
sS"writer's"
p2850
I84
sS'jewelry'
p2851
I84
sS'dull'
p2852
I84
sS'contacts'
p2853
I83
sS'decision'
p2854
I84
sS'shall'
p2855
I84
sS'pep'
p2856
I84
sS'exnovia'
p2857
I84
sS'prom'
p2858
I82
sS'kopitar'
p2859
I84
sS'hermano'
p2860
I84
sS'confieso'
p2861
I84
sS'muchisimas'
p2862
I84
sS'swiffer'
p2863
I84
sS'laughing'
p2864
I82
sS'consentidos'
p2865
I84
sS'be'
p2866
I21
sS'queremos'
p2867
I84
sS'eating'
p2868
I79
sS'bb'
p2869
I84
sS'bc'
p2870
I81
sS'ultimo'
p2871
I84
sS'gamebut'
p2872
I84
sS'jumps'
p2873
I84
sS'continuing'
p2874
I84
sS'agreement'
p2875
I83
sS'there.,90731\n505563845180801024,edwin237,2014-08-30'
p2876
I84
sS'nuevo'
p2877
I82
sS'step'
p2878
I83
sS'santa'
p2879
I83
sS'become'
p2880
I84
sS'stomps'
p2881
I84
sS'usc'
p2882
I84
sS'chola'
p2883
I84
sS'reggaet\xc3\xb3n'
p2884
I83
sS'nueva'
p2885
I84
sS'shine'
p2886
I84
sS'gifts'
p2887
I84
sS'wrecking'
p2888
I84
sS'anything'
p2889
I82
sS'netflix'
p2890
I84
sS'diles'
p2891
I84
sS'lord'
p2892
I84
sS'fea'
p2893
I84
sS'oatmeal'
p2894
I84
sS'drama'
p2895
I83
sS'bello=t2'
p2896
I84
sS'pains'
p2897
I84
sS'beans'
p2898
I84
sS'idk'
p2899
I83
sS'halling'
p2900
I84
sS'mouth'
p2901
I84
sS'awe\xe2\x9d\xa4\xef\xb8\x8f'
p2902
I84
sS'wanna'
p2903
I64
sS'agradecer'
p2904
I84
sS'block'
p2905
I84
sS'seeing'
p2906
I78
sS'whatare'
p2907
I84
sS'pero'
p2908
I83
sS'into'
p2909
I81
sS'mayor\xc3\xada'
p2910
I84
sS'reservoir.\xe2\x80\x9d'
p2911
I84
sS'services'
p2912
I84
sS'momma'
p2913
I84
sS'because'
p2914
I68
sS'steven'
p2915
I84
sS'pakito'
p2916
I84
sS'sports'
p2917
I84
sS'smells'
p2918
I81
sS"washington's"
p2919
I84
sS'story'
p2920
I84
sS'"el'
p2921
I84
sS'spam'
p2922
I84
sS'spending'
p2923
I83
sS'question'
p2924
I83
sS'ca)'
p2925
I44
sS'fast'
p2926
I83
sS'perez'
p2927
I84
sS'volunteer'
p2928
I84
sS"we're"
p2929
I81
sS'bruh'
p2930
I79
sS'forward'
p2931
I81
sS'spas'
p2932
I84
sS'bored'
p2933
I80
sS'scared'
p2934
I84
sS'himself'
p2935
I84
sS'invite'
p2936
I84
sS'hawaiian'
p2937
I84
sS'murphy'
p2938
I84
sS'toooo'
p2939
I84
sS'boys'
p2940
I83
sS'mc'
p2941
I84
sS'wnt'
p2942
I83
sS'don'
p2943
I84
sS'line'
p2944
I81
sS'dramatic\xe2\x80\x9d'
p2945
I84
sS'posted'
p2946
I82
sS'info'
p2947
I83
sS'bahahahahahaha'
p2948
I84
sS'hemi'
p2949
I84
sS'jonathan'
p2950
I84
sS'chiropractor'
p2951
I82
sS'consist'
p2952
I84
sS'casablanca'
p2953
I84
sS'incase'
p2954
I84
sS'up'
p2955
I26
sS'us'
p2956
I68
sS'ur'
p2957
I80
sS'um'
p2958
I83
sS'morocco'
p2959
I84
sS'un'
p2960
I81
sS'exploration'
p2961
I84
sS'uh'
p2962
I84
sS'faded'
p2963
I83
sS'(la)'
p2964
I69
sS'z'
p2965
I84
sS'called'
p2966
I82
sS'mothafukaaa'
p2967
I84
sS'uber'
p2968
I81
sS'ordered'
p2969
I83
sS'tiniest'
p2970
I84
sS'desactivar\xc3\xa9'
p2971
I84
sS'cover'
p2972
I84
sS';d'
p2973
I84
sS'single'
p2974
I79
sS'everyone..\xe2\x80\x9d'
p2975
I84
sS'evening'
p2976
I84
sS'box)'
p2977
I82
sS'heal'
p2978
I84
sS'2-0'
p2979
I84
sS'stripper'
p2980
I84
sS'phantom'
p2981
I84
sS'rainy'
p2982
I84
sS'6th'
p2983
I84
sS'%'
p2984
I84
sS'timeline\xe2\x9c\x8c\xef\xb8\x8f'
p2985
I84
sS'crip'
p2986
I84
sS'rains'
p2987
I84
sS'fears'
p2988
I84
sS'chocar'
p2989
I84
sS'nap'
p2990
I82
sS'definitely'
p2991
I83
sS'naw'
p2992
I82
sS'grind'
p2993
I84
sS'kills'
p2994
I84
sS'ching....sigueee'
p2995
I84
sS'nice'
p2996
I77
sS'draw'
p2997
I83
sS'noche'
p2998
I83
sS'chingonas'
p2999
I84
sS'refferals'
p3000
I84
sS'william'
p3001
I84
sS'outs'
p3002
I84
sS'feardom'
p3003
I84
sS'ristorante'
p3004
I84
sS'earphones'
p3005
I84
sS'caressss'
p3006
I84
sS'ago'
p3007
I82
sS'wonton'
p3008
I84
sS'\xe2\x9c\x82\xef\xb8\x8f'
p3009
I84
sS'land'
p3010
I83
sS'e'
p3011
I83
sS'overlooking'
p3012
I84
sS'vice'
p3013
I81
sS'siiiiiiii'
p3014
I84
sS'walked'
p3015
I82
sS'shoutout'
p3016
I84
sS'\xd8\xa8\xd8\xa7\xd9\x84\xd9\x8a'
p3017
I84
sS'hella'
p3018
I81
sS'dot'
p3019
I84
sS'muchoo'
p3020
I84
sS"she's"
p3021
I81
sS'nash'
p3022
I84
sS'menace'
p3023
I84
sS'buffalo'
p3024
I84
sS'hello'
p3025
I83
sS'once'
p3026
I77
sS'essay'
p3027
I84
sS'code'
p3028
I83
sS'jason'
p3029
I84
sS'squats'
p3030
I84
sS'ankle/calf'
p3031
I83
sS'"movies'
p3032
I84
sS'ganadores'
p3033
I84
sS'12:30am'
p3034
I84
sS'groceries'
p3035
I84
sS'gang'
p3036
I82
sS'freakin'
p3037
I84
sS'go'
p3038
I39
sS'gossip'
p3039
I84
sS'psycho'
p3040
I84
sS'14th'
p3041
I84
sS'chillin'
p3042
I84
sS'charms'
p3043
I84
sS'issues'
p3044
I84
sS'tenants'
p3045
I84
sS'young'
p3046
I83
sS'send'
p3047
I81
sS'lavvvv'
p3048
I84
sS'suite'
p3049
I84
sS'women'
p3050
I84
sS'mamajoans_soulfood'
p3051
I83
sS'resources'
p3052
I83
sS'stocked'
p3053
I84
sS'random'
p3054
I80
sS'continues'
p3055
I83
sS'agua'
p3056
I84
sS'putting'
p3057
I82
sS'bosses'
p3058
I84
sS'telling'
p3059
I83
sS'diosito'
p3060
I84
sS'drinking'
p3061
I84
sS'bryant'
p3062
I83
sS'entire'
p3063
I83
sS'anotha'
p3064
I84
sS'missssss'
p3065
I84
sS'magia'
p3066
I84
sS'forsure'
p3067
I84
sS'harbor'
p3068
I81
sS'evreyone'
p3069
I84
sS'button'
p3070
I83
sS'gettin'
p3071
I84
sS'michael'
p3072
I84
sS'leader'
p3073
I84
sS'try'
p3074
I76
sS'skipped'
p3075
I84
sS'race'
p3076
I84
sS'reich'
p3077
I84
sS'congrats'
p3078
I84
sS'callsrandom'
p3079
I84
sS'havent'
p3080
I84
sS'cvs/pharmacy'
p3081
I81
sS'booty'
p3082
I82
sS'j-unit'
p3083
I84
sS'chomp'
p3084
I83
sS'waking'
p3085
I82
sS'jump'
p3086
I83
sS'privilegio'
p3087
I84
sS'video'
p3088
I83
sS'picked'
p3089
I83
sS'reunion'
p3090
I84
sS'odb'
p3091
I84
sS'duhhhh'
p3092
I84
sS'victor'
p3093
I84
sS'boobiesme'
p3094
I84
sS'power'
p3095
I84
sS'giving'
p3096
I83
sS'anthem'
p3097
I84
sS'asap'
p3098
I84
sS'espresso'
p3099
I84
sS'cell'
p3100
I84
sS'uhmm'
p3101
I84
sS'waiting'
p3102
I80
sS'capital'
p3103
I84
sS'fooding'
p3104
I84
sS'equivalent'
p3105
I84
sS'body'
p3106
I81
sS'\xd9\x88'
p3107
I84
sS'tybg'
p3108
I84
sS'chose'
p3109
I84
sS'grandma'
p3110
I84
sS'kangaroo'
p3111
I84
sS'following'
p3112
I84
sS'les'
p3113
I82
sS'let'
p3114
I75
sS'jeans'
p3115
I84
sS'sexy'
p3116
I83
sS'pierdas'
p3117
I84
sS'idolos'
p3118
I84
sS'ciegas'
p3119
I84
sS'ukraine'
p3120
I84
sS'vinegar'
p3121
I84
sS'great'
p3122
I77
sS'translate'
p3123
I84
sS'talent'
p3124
I83
sS'wsws'
p3125
I84
sS'chant'
p3126
I84
sS'30'
p3127
I83
sS'workinnnnng'
p3128
I84
sS'esque'
p3129
I83
sS'leaving'
p3130
I82
sS'periods'
p3131
I84
sS'condos'
p3132
I84
sS"weren't"
p3133
I84
sS'nervous'
p3134
I84
sS'skin'
p3135
I84
sS'opinion'
p3136
I84
sS'sabe'
p3137
I84
sS'makes'
p3138
I78
sS'maker'
p3139
I84
sS'thats'
p3140
I83
sS'highkey'
p3141
I84
sS'apple'
p3142
I84
sS'claim'
p3143
I83
sS'crashing'
p3144
I84
sS'win'
p3145
I82
sS'app'
p3146
I83
sS'private'
p3147
I84
sS'duck'
p3148
I82
sS'oval'
p3149
I84
sS'singing'
p3150
I81
sS'cloud'
p3151
I84
sS'celery'
p3152
I84
sS'use'
p3153
I79
sS'from'
p3154
I52
sS'stream'
p3155
I84
sS'usa'
p3156
I84
sS'&'
p3157
I32
sS'illegal'
p3158
I84
sS'ustedes'
p3159
I84
sS'champurrado'
p3160
I84
sS'\xe2\x99\xa5\xef\xb8\x8f'
p3161
I84
sS'next'
p3162
I70
sS'few'
p3163
I79
sS'doubt'
p3164
I84
sS'coldplay'
p3165
I84
sS'tahoe'
p3166
I83
sS'slap"'
p3167
I84
sS'mahhh'
p3168
I84
sS'weirdest'
p3169
I84
sS'chip'
p3170
I84
sS'pencil'
p3171
I84
sS'boobies'
p3172
I84
sS'citabria'
p3173
I84
sS'babe'
p3174
I79
sS'prima\xe2\x9d\xa4'
p3175
I84
sS'started'
p3176
I83
sS'about'
p3177
I52
sS'fuck'
p3178
I44
sS'sore'
p3179
I83
sS'baby'
p3180
I73
sS'central'
p3181
I84
sS'manuel'
p3182
I84
sS'starter'
p3183
I84
sS'haircuts'
p3184
I84
sS'f'
p3185
I84
sS'this'
p3186
I17
sS'ride'
p3187
I83
sS'stussy'
p3188
I83
sS'jeep'
p3189
I84
sS'wildest'
p3190
I84
sS'crossed'
p3191
I84
sS'thin'
p3192
I84
sS'meet'
p3193
I84
sS'closing'
p3194
I80
sS'drops'
p3195
I84
sS'didnt'
p3196
I82
sS'<3mil'
p3197
I84
sS'nastro'
p3198
I84
sS'control'
p3199
I83
sS'olaf'
p3200
I84
sS'yeaaaa'
p3201
I84
sS'do'
p3202
I36
sS'favorite'
p3203
I81
sS'slim'
p3204
I84
sS'halloween'
p3205
I84
sS'tay'
p3206
I84
sS'high'
p3207
I73
sS'bones'
p3208
I84
sS'starbs'
p3209
I84
sS'something'
p3210
I75
sS'wowww'
p3211
I84
sS'bbq)'
p3212
I84
sS'boner'
p3213
I84
sS'tan'
p3214
I83
sS'voice'
p3215
I82
sS'sis'
p3216
I83
sS'sir'
p3217
I84
sS'twitpic'
p3218
I84
sS'esperemos'
p3219
I84
sS'guru'
p3220
I82
sS'vibe'
p3221
I84
sS'camille'
p3222
I84
sS'seeds'
p3223
I84
sS'feta'
p3224
I84
sS'owl"'
p3225
I84
sS'instead'
p3226
I82
sS'*watched'
p3227
I84
sS'sin'
p3228
I84
sS'singleeeeeee'
p3229
I84
sS'stand'
p3230
I82
sS'especial'
p3231
I82
sS'honda'
p3232
I84
sS'valentines'
p3233
I84
sS'easily'
p3234
I84
sS'stop'
p3235
I69
sS'waters'
p3236
I84
sS'youve'
p3237
I84
sS'tied'
p3238
I84
sS'novelas'
p3239
I84
sS'durrrttyydee'
p3240
I84
sS'taco'
p3241
I81
sS'hahahaha'
p3242
I81
sS'10months'
p3243
I84
sS'da'
p3244
I84
sS'tomato'
p3245
I84
sS'somethin'
p3246
I83
sS'ittt'
p3247
I84
sS'errands'
p3248
I84
sS'light'
p3249
I84
sS'lame'
p3250
I84
sS'sux'
p3251
I84
sS'wwii'
p3252
I84
sS'scoop'
p3253
I84
sS'honestly'
p3254
I84
sS'classy'
p3255
I84
sS'like...k'
p3256
I84
sS'gano'
p3257
I84
sS'deniers'
p3258
I84
sS'mute'
p3259
I84
sS'horno'
p3260
I84
sS'meh'
p3261
I84
sS'130'
p3262
I84
sS"won't"
p3263
I79
sS'looks'
p3264
I81
sS'cruise'
p3265
I82
sS'alborotados'
p3266
I84
sS'dueces'
p3267
I84
sS'bunch'
p3268
I83
sS'perfect'
p3269
I80
sS'lounge'
p3270
I84
sS'that.,90731\n507030703662727168,edwin237,2014-09-03'
p3271
I84
sS'le'
p3272
I78
sS'lexxafizzl3123'
p3273
I84
sS'la'
p3274
I64
sS'friedkin'
p3275
I84
sS'lo'
p3276
I79
sS'broom'
p3277
I83
sS'[pic]'
p3278
I82
sS'permanent'
p3279
I83
sS'choose'
p3280
I84
sS'!('
p3281
I84
sS'2015'
p3282
I83
sS'2014'
p3283
I84
sS'bye'
p3284
I84
sS'crowds'
p3285
I84
sS'<'
p3286
I84
sS'dad'
p3287
I72
sS'puts'
p3288
I84
sS'tears'
p3289
I84
sS'crash'
p3290
I84
sS'lowkee'
p3291
I84
sS'auto'
p3292
I84
sS'nada'
p3293
I83
sS'practice'
p3294
I84
sS'fiesta'
p3295
I82
sS'jajajajaja'
p3296
I81
sS'dat'
p3297
I83
sS'mention'
p3298
I84
sS'chula'
p3299
I84
sS'yeeekin'
p3300
I84
sS'front'
p3301
I82
sS"vanessa's"
p3302
I84
sS'rotation'
p3303
I84
sS'terrible'
p3304
I84
sS'day'
p3305
I40
sS'preschool'
p3306
I84
sS'strive'
p3307
I83
sS'cocoa'
p3308
I84
sS'10pm'
p3309
I84
sS'ganen'
p3310
I84
sS'damian'
p3311
I84
sS'toes'
p3312
I84
sS'risotto'
p3313
I84
sS'nfl'
p3314
I84
sS'*doyers'
p3315
I84
sS'://'
p3316
I84
sS'slide'
p3317
I84
sS'donde'
p3318
I83
sS'denzel'
p3319
I84
sS'pomona'
p3320
I84
sS'truth'
p3321
I84
sS'dopee'
p3322
I84
sS'bills'
p3323
I83
sS'|'
p3324
I84
sS'warner'
p3325
I83
sS'seniors'
p3326
I83
sS'homeless'
p3327
I84
sS'doing'
p3328
I78
sS'strip'
p3329
I84
sS'staying'
p3330
I84
sS'related'
p3331
I84
sS'playoffffss'
p3332
I84
sS'society'
p3333
I84
sS'books'
p3334
I84
sS'thirteen'
p3335
I84
sS'our'
p3336
I62
sS'bay'
p3337
I84
sS'youu'
p3338
I84
sS'special'
p3339
I83
sS'out'
p3340
I48
sS'matt'
p3341
I84
sS'octopus'
p3342
I84
sS'heheeeee'
p3343
I84
sS'ricks'
p3344
I84
sS'inspiration'
p3345
I84
sS'\xe2\x98\x81\xe2\x98\x94'
p3346
I84
sS'rep'
p3347
I84
sS'w/o'
p3348
I84
sS'casey'
p3349
I84
sS'entren'
p3350
I84
sS'vcs'
p3351
I84
sS'ily'
p3352
I84
sS'hilarious'
p3353
I82
sS'yankee'
p3354
I84
sS'cause'
p3355
I74
sS'red'
p3356
I82
sS'earlly'
p3357
I84
sS'w/friends'
p3358
I84
sS'shut'
p3359
I79
sS'await'
p3360
I84
sS'activity'
p3361
I84
sS'completely'
p3362
I83
sS'que'
p3363
I67
sS'york'
p3364
I83
sS'x'
p3365
I84
sS'\xd9\x84\xd9\x85\xd8\xa7'
p3366
I84
sS'senior*'
p3367
I84
sS'princess'
p3368
I84
sS'baptism'
p3369
I84
sS'scary'
p3370
I83
sS'befriended'
p3371
I84
sS'premio'
p3372
I84
sS'spill'
p3373
I84
sS'steal'
p3374
I84
sS'could'
p3375
I78
sS'cuidado'
p3376
I84
sS'times'
p3377
I81
sS'conversation'
p3378
I82
sS'4th'
p3379
I82
sS'ono'
p3380
I84
sS'subtweeting'
p3381
I84
sS'biting'
p3382
I84
sS'jananana'
p3383
I84
sS'chills'
p3384
I84
sS'stuck'
p3385
I84
sS'south'
p3386
I84
sS'finest'
p3387
I84
sS'frap'
p3388
I84
sS'scene'
p3389
I84
sS'jesus'
p3390
I83
sS'whoop'
p3391
I84
sS'barbershop)'
p3392
I84
sS'bitch'
p3393
I71
sS'hiding'
p3394
I84
sS'conversation.,90731\n335218491231711232,jchackert,2013-05-17'
p3395
I84
sS"doesn't"
p3396
I80
sS'october'
p3397
I84
sS'los'
p3398
I67
sS'festival'
p3399
I84
sS'obvi'
p3400
I84
sS'durable'
p3401
I84
sS'achieved'
p3402
I84
sS'accent'
p3403
I84
sS'system'
p3404
I84
sS'dogers'
p3405
I84
sS"sophia's"
p3406
I84
sS'their'
p3407
I73
sS'jopes'
p3408
I84
sS'dominguez'
p3409
I84
sS'doesnt'
p3410
I84
sS'chaser'
p3411
I84
sS'capas'
p3412
I84
sS'beard'
p3413
I84
sS'interests'
p3414
I84
sS'vid'
p3415
I84
sS'stomach'
p3416
I83
sS'craziest'
p3417
I84
sS'4so'
p3418
I84
sS'dtla'
p3419
I84
sS'gotcha'
p3420
I84
sS'exactly'
p3421
I83
sS'but\xe2\x80\xa6'
p3422
I84
sS'hernan'
p3423
I84
sS'grandpa'
p3424
I83
sS'uconn'
p3425
I84
sS'fuk'
p3426
I84
sS'july'
p3427
I83
sS'whateverrrr'
p3428
I84
sS'herself'
p3429
I84
sS'neck'
p3430
I84
sS'loved'
p3431
I82
sS'holland'
p3432
I84
sS'boring'
p3433
I82
sS'coast'
p3434
I84
sS'shampoo'
p3435
I84
sS'bed'
p3436
I78
sS'bee'
p3437
I84
sS'ss'
p3438
I84
sS'patients'
p3439
I79
sS'loves'
p3440
I83
sS'lover'
p3441
I84
sS'matched'
p3442
I84
sS'referral'
p3443
I84
sS'bet'
p3444
I84
sS'back-to-the-future'
p3445
I84
sS'liqour'
p3446
I84
sS'24-30'
p3447
I84
sS'false'
p3448
I84
sS'ni\xc3\xb1o'
p3449
I84
sS'washington'
p3450
I84
sS'teenagers'
p3451
I84
sS'spelled'
p3452
I84
sS'comfortable'
p3453
I84
sS'tonight'
p3454
I63
sS'ummm....f'
p3455
I84
sS'thanks.what'
p3456
I84
sS'have'
p3457
I28
sS'need'
p3458
I46
sS'havi'
p3459
I84
sS'apparently'
p3460
I83
sS'babouch'
p3461
I84
sS'catholic'
p3462
I79
sS'mil'
p3463
I84
sS'mio'
p3464
I84
sS'min'
p3465
I83
sS'allergies'
p3466
I84
sS'agency'
p3467
I84
sS'able'
p3468
I80
sS'switch'
p3469
I84
sS'homeboy'
p3470
I84
sS'arm'
p3471
I82
sS'simpin'
p3472
I84
sS'mix'
p3473
I84
sS'flavored'
p3474
I84
sS'which'
p3475
I79
sS'hs'
p3476
I84
sS'truck'
p3477
I83
sS'mis'
p3478
I83
sS'='
p3479
I82
sS'brand'
p3480
I84
sS'youuuu'
p3481
I83
sS'bitchessssss'
p3482
I84
sS'easybut'
p3483
I84
sS'k.o'
p3484
I84
sS'aww'
p3485
I83
sS'who'
p3486
I62
sS'jorge'
p3487
I84
sS"where's"
p3488
I81
sS'jaaa'
p3489
I84
sS'awk'
p3490
I82
sS'plus'
p3491
I84
sS'tanaka'
p3492
I84
sS'future'
p3493
I84
sS'expired'
p3494
I84
sS'why'
p3495
I58
sS'\xd9\x8a\xd9\x82\xd9\x88\xd9\x84\xd9\x88\xd8\xa7'
p3496
I84
sS'joseph'
p3497
I84
sS'refreshing'
p3498
I84
sS'prendio'
p3499
I84
sS'reminds'
p3500
I84
sS'pulled'
p3501
I84
sS'salty'
p3502
I84
sS'request'
p3503
I84
sS'face'
p3504
I81
sS'looked'
p3505
I82
sS"you'll"
p3506
I83
sS'construction'
p3507
I84
sS'talk'
p3508
I76
sS'movie'
p3509
I78
sS'brew'
p3510
I84
sS'inane'
p3511
I84
sS'fact'
p3512
I80
sS'oreos'
p3513
I83
sS'dijo'
p3514
I84
sS'funnnnnn'
p3515
I84
sS'chances'
p3516
I83
sS'text'
p3517
I78
sS'agreed'
p3518
I84
sS'assholes'
p3519
I84
sS'bathing'
p3520
I84
sS'whyyyyyyy'
p3521
I84
sS'bring'
p3522
I82
sS'parked'
p3523
I84
sS'utter'
p3524
I84
sS'eyes'
p3525
I84
sS'socialist'
p3526
I83
sS'setter'
p3527
I84
sS'one'
p3528
I40
sS'creamed'
p3529
I84
sS'\xd9\x81\xd9\x8a'
p3530
I83
sS'blowim'
p3531
I84
sS'('
p3532
I75
sS'weeknd-'
p3533
I84
sS'woo'
p3534
I84
sS'should'
p3535
I74
sS'terminal'
p3536
I84
sS'eehh)'
p3537
I84
sS'creme'
p3538
I84
sS"anyone's"
p3539
I84
sS'bud'
p3540
I84
sS'libre'
p3541
I84
sS'employee'
p3542
I84
sS'girlie'
p3543
I84
sS'spice'
p3544
I84
sS'thousands'
p3545
I84
sS'interested'
p3546
I84
sS'hope'
p3547
I82
sS'meant'
p3548
I84
sS'nothin'
p3549
I84
sS'move'
p3550
I84
sS'handle'
p3551
I80
sS'means'
p3552
I83
sS'beat'
p3553
I81
sS'dope'
p3554
I79
sS'hopefully'
p3555
I84
sS'lucky'
p3556
I83
sS'bear'
p3557
I84
sS'99%'
p3558
I84
sS'joint'
p3559
I83
sS'awww'
p3560
I84
sS'ones'
p3561
I80
sS'02:08:59.0,33.7354802,-118.2893188,2966,i'
p3562
I84
sS'cubs'
p3563
I84
sS'words'
p3564
I84
sS'chips'
p3565
I84
sS'ghetto'
p3566
I83
sS'tobacco'
p3567
I84
sS'shy'
p3568
I83
sS'berlinger'
p3569
I84
sS'married'
p3570
I82
sS'*realizes'
p3571
I84
sS'teams'
p3572
I84
sS'stuff'
p3573
I80
sS'she'
p3574
I65
sS'muchoo<3'
p3575
I84
sS'yassss'
p3576
I83
sS'shi'
p3577
I84
sS'asian'
p3578
I84
sS'arny'
p3579
I84
sS'view'
p3580
I83
sS'guessing'
p3581
I84
sS'official'
p3582
I84
sS'weedmaps'
p3583
I84
sS'national'
p3584
I83
sS'gamestrying'
p3585
I84
sS'marchisio'
p3586
I84
sS'we'
p3587
I37
sS'biiiirthday'
p3588
I84
sS'edition'
p3589
I84
sS'oomf'
p3590
I83
sS'lowkoey'
p3591
I84
sS'desperate'
p3592
I83
sS'terms'
p3593
I84
sS'packed'
p3594
I83
sS'tripping'
p3595
I84
sS'jajjjja'
p3596
I84
sS'luv'
p3597
I84
sS'nuclear'
p3598
I84
sS'parque'
p3599
I84
sS'"it\'s'
p3600
I84
sS'misspelled'
p3601
I84
sS'favor'
p3602
I84
sS'lub'
p3603
I82
sS'alphabiotics)'
p3604
I84
sS'horrible'
p3605
I84
sS'stories'
p3606
I84
sS'gabys'
p3607
I84
sS'frustrated'
p3608
I84
sS'email'
p3609
I84
sS'calvin'
p3610
I84
sS'bought'
p3611
I81
sS'ends'
p3612
I68
sS'bound'
p3613
I84
sS'trynna'
p3614
I84
sS'onces'
p3615
I84
sS'deliver'
p3616
I84
sS'calves'
p3617
I84
sS'b-e-d'
p3618
I84
sS'the\xe2\x80\xa6'
p3619
I84
sS'job'
p3620
I82
sS'alone.my'
p3621
I84
sS'joe'
p3622
I84
sS'key'
p3623
I82
sS'rooftop'
p3624
I84
sS'selena'
p3625
I83
sS'david'
p3626
I81
sS'figured'
p3627
I84
sS'instant'
p3628
I83
sS'career'
p3629
I84
sS'joke'
p3630
I82
sS'taking'
p3631
I75
sS"he's"
p3632
I72
sS'etc'
p3633
I84
sS'busted'
p3634
I84
sS'agrupaci\xc3\xb3n'
p3635
I84
sS'ami'
p3636
I84
sS'kinds'
p3637
I84
sS'gaffeys'
p3638
I84
sS'comment'
p3639
I84
sS'co'
p3640
I83
sS'wall'
p3641
I84
sS'ca'
p3642
I58
sS'territories'
p3643
I84
sS'walk'
p3644
I82
sS'adding'
p3645
I84
sS'kings'
p3646
I82
sS'winning'
p3647
I84
sS'x_x'
p3648
I84
sS'amigo'
p3649
I84
sS'well....unless'
p3650
I84
sS'yay'
p3651
I84
sS"it's"
p3652
I33
sS'amiga'
p3653
I84
sS'home"'
p3654
I84
sS'exhausted'
p3655
I83
sS'drank'
p3656
I84
sS'slowly'
p3657
I84
sS'yah'
p3658
I84
sS'venadita'
p3659
I84
sS'feliz'
p3660
I84
sS'many.,90731\n505211246862671873,edwin237,2014-08-29'
p3661
I84
sS'waste'
p3662
I83
sS'yaa'
p3663
I84
sS'bbq'
p3664
I80
sS'>'
p3665
I81
sS'lane'
p3666
I84
sS'glock'
p3667
I84
sS'bit'
p3668
I84
sS'fall/winter'
p3669
I84
sS'received'
p3670
I84
sS'am'
p3671
I75
sS'c'
p3672
I84
sS'buggy"'
p3673
I84
sS'se\xc3\xb1or'
p3674
I84
sS'orange'
p3675
I84
sS'finished'
p3676
I84
sS'-.-'
p3677
I84
sS'kicks'
p3678
I84
sS'smoking'
p3679
I84
sS'brunch'
p3680
I84
sS'present'
p3681
I84
sS':))))'
p3682
I84
sS'homes'
p3683
I84
sS'qb'
p3684
I84
sS'toothless'
p3685
I84
sS'everrrrr'
p3686
I84
sS'brat'
p3687
I84
sS'harder'
p3688
I84
sS'as'
p3689
I54
sS'value'
p3690
I84
sS'will'
p3691
I65
sS'spitta'
p3692
I84
sS'will*'
p3693
I84
sS'texas'
p3694
I84
sS'none'
p3695
I84
sS'hahaha'
p3696
I70
sS'wild'
p3697
I84
sS'\xd9\x85\xd8\xab\xd8\xa7\xd9\x84'
p3698
I84
sS'groin'
p3699
I84
sS'~'
p3700
I84
sS'va'
p3701
I83
sS'finde'
p3702
I84
sS'almost'
p3703
I80
sS'fuhhhhh'
p3704
I84
sS'site'
p3705
I83
sS'wife'
p3706
I84
sS'rips'
p3707
I84
sS'-____-'
p3708
I84
sS'vs'
p3709
I82
sS'royers'
p3710
I84
sS'4:00p'
p3711
I84
sS'bucks'
p3712
I84
sS'uggs'
p3713
I84
sS'whore'
p3714
I82
sS'tattoo'
p3715
I81
sS'complexes'
p3716
I84
sS'beatz'
p3717
I84
sS'tupac'
p3718
I84
sS'players'
p3719
I84
sS')'
p3720
I84
sS'vintage'
p3721
I84
sS'eric'
p3722
I84
sS'member'
p3723
I84
sS'piles'
p3724
I84
sS'became'
p3725
I83
sS'christmas"'
p3726
I84
sS'dam'
p3727
I84
sS'party'
p3728
I76
sS'gets'
p3729
I78
sS'fabi'
p3730
I84
sS'paula'
p3731
I84
sS'conflicting'
p3732
I84
sS'tiempo'
p3733
I84
sS'ball'
p3734
I84
sS'mommy'
p3735
I84
sS'promo'
p3736
I84
sS'drink'
p3737
I79
sS'collab'
p3738
I84
sS'sigue'
p3739
I84
sS'firstttt'
p3740
I84
sS'sooner'
p3741
I84
sS'student'
p3742
I84
sS'fucked'
p3743
I82
sS'croissants'
p3744
I84
sS'whale'
p3745
I84
sS'feelin'
p3746
I84
sS'l.a'
p3747
I83
sS'awwww'
p3748
I84
sS'warming'
p3749
I84
sS'//'
p3750
I84
sS'ashley'
p3751
I83
sS'reflection'
p3752
I84
sS'i'
p3753
I2
sS'approve'
p3754
I84
sS'teeshirt'
p3755
I84
sS'well'
p3756
I73
sS'ones.\xe2\x80\x9d'
p3757
I84
sS'thought'
p3758
I76
sS'whywhy'
p3759
I84
sS'drone'
p3760
I84
sS'tasted'
p3761
I84
sS'my\xe2\x80\xa6'
p3762
I84
sS'entr\xc3\xa9'
p3763
I84
sS'stations'
p3764
I84
sS'15hrs'
p3765
I84
sS'coaster'
p3766
I84
sS'inebriated'
p3767
I84
sS'less'
p3768
I83
sS"should've"
p3769
I81
sS'hands'
p3770
I84
sS'jeje'
p3771
I81
sS'neeeeeed'
p3772
I84
sS'mistakes'
p3773
I84
sS'in.n.out'
p3774
I84
sS'easycome'
p3775
I84
sS'bi\xc3\xado'
p3776
I84
sS'web'
p3777
I83
sS'quiero'
p3778
I79
sS'snicker'
p3779
I84
sS'quiere'
p3780
I82
sS'point'
p3781
I76
sS'sky'
p3782
I84
sS'turnt'
p3783
I84
sS'bullshit'
p3784
I80
sS'add'
p3785
I81
sS'book'
p3786
I84
sS'5-0'
p3787
I84
sS'attractive'
p3788
I84
sS'christ'
p3789
I84
sS'crack'
p3790
I81
sS'twerk'
p3791
I84
sS'riverside'
p3792
I84
sS'smart'
p3793
I84
sS'balloons'
p3794
I84
sS'homework'
p3795
I83
sS'ellipses'
p3796
I84
sS'epason'
p3797
I84
sS'government'
p3798
I84
sS'checking'
p3799
I83
sS'hotbox'
p3800
I84
sS"who's"
p3801
I80
sS'\xc2\xbf\xc2\xbf\xc2\xbf'
p3802
I84
sS'protesters'
p3803
I84
sS'hangovers'
p3804
I84
sS'cruz'
p3805
I84
sS'ayee'
p3806
I84
sS'five'
p3807
I84
sS'whatever'
p3808
I79
sS'desk'
p3809
I84
sS'password'
p3810
I84
sS'"your'
p3811
I84
sS'debatable'
p3812
I84
sS'naturally'
p3813
I84
sS'puppy'
p3814
I83
sS'like'
p3815
I24
sS'lost'
p3816
I82
sS'loser'
p3817
I82
sS'cosas'
p3818
I84
sS"mum's"
p3819
I84
sS'sissy'
p3820
I84
sS'unthaw'
p3821
I84
sS'lose'
p3822
I83
sS'osea'
p3823
I84
sS'chick'
p3824
I83
sS'works'
p3825
I83
sS'italian'
p3826
I83
sS'gaining'
p3827
I84
sS'fettuccini'
p3828
I84
sS'nigga'
p3829
I79
sS'shabby'
p3830
I84
sS'muro'
p3831
I83
sS'twitter'
p3832
I79
sS'hummus'
p3833
I84
sS'hair'
p3834
I71
sS'tronar'
p3835
I84
sS'repeat'
p3836
I84
sS'shes'
p3837
I82
sS'home'
p3838
I74
sS'liking'
p3839
I83
sS'scares'
p3840
I84
sS'recognition'
p3841
I84
sS'meldrick'
p3842
I84
sS'happens'
p3843
I81
sS'"what'
p3844
I84
sS'leaf'
p3845
I84
sS'alch'
p3846
I84
sS'lead'
p3847
I84
sS'tmw'
p3848
I83
sS'cokes...&'
p3849
I84
sS'literally'
p3850
I76
sS'leah'
p3851
I84
sS'lean'
p3852
I84
sS'sketching'
p3853
I84
sS'busters'
p3854
I84
sS'ese'
p3855
I82
sS'does'
p3856
I78
sS'passion'
p3857
I81
sS'esa'
p3858
I84
sS'hermosura'
p3859
I84
sS'm\xc3\xa1s'
p3860
I84
sS'judgment'
p3861
I84
sS'coffee\xe2\x98\x95\xef\xb8\x8f'
p3862
I84
sS'biology'
p3863
I84
sS'schedule'
p3864
I84
sS'bonellos'
p3865
I83
sS'pues'
p3866
I84
sS'sasha'
p3867
I84
sS'puede'
p3868
I84
sS'murdered'
p3869
I84
sS'naps'
p3870
I84
sS'choked'
p3871
I84
sS'lastnight'
p3872
I84
sS'stage'
p3873
I83
sS'escuchando'
p3874
I83
sS'sister'
p3875
I72
sS':-)'
p3876
I70
sS'actual'
p3877
I84
sS'carried'
p3878
I84
sS'getting'
p3879
I68
sS"donald's"
p3880
I84
sS'raro'
p3881
I84
sS'angeles'
p3882
I76
sS'perks'
p3883
I83
sS'swear'
p3884
I78
sS'supperclub'
p3885
I84
sS'cravin'
p3886
I84
sS'tongue'
p3887
I84
sS'glasses'
p3888
I83
sS'tome'
p3889
I84
sS'chulo'
p3890
I84
sS'owl'
p3891
I84
sS'own'
p3892
I84
sS'keeps'
p3893
I84
sS'pussy'
p3894
I84
sS'tag'
p3895
I84
sS'socks'
p3896
I84
sS'loner'
p3897
I84
sS'haha\xe2\x80\x9d'
p3898
I84
sS'guard'
p3899
I84
sS'weather'
p3900
I82
sS'champ'
p3901
I84
sS'cosita'
p3902
I84
sS'hiiii'
p3903
I84
sS'quickly'
p3904
I84
sS'bombay'
p3905
I84
sS'guatemalans'
p3906
I84
sS'sabra'
p3907
I84
sS'meeee'
p3908
I84
sS'hahahhaha'
p3909
I84
sS'spots'
p3910
I84
sS'noticed'
p3911
I84
sS'bump'
p3912
I84
sS'$300'
p3913
I84
sS'biggest'
p3914
I84
sS'yrs'
p3915
I83
sS'mazola'
p3916
I84
sS'peppers'
p3917
I84
sS'catalina'
p3918
I84
sS'buy'
p3919
I75
sS'stadium'
p3920
I84
sS'2:30pm'
p3921
I84
sS"i've"
p3922
I75
sS'fasho'
p3923
I82
sS'bus'
p3924
I82
sS'coke'
p3925
I83
sS'bitches'
p3926
I79
sS'but'
p3927
I31
sS'expected'
p3928
I84
sS'hi'
p3929
I81
sS'bun'
p3930
I84
sS'ughhh'
p3931
I82
sS'mi?jaja'
p3932
I84
sS'bum'
p3933
I84
sS'caminando'
p3934
I84
sS'ha'
p3935
I82
sS'drea'
p3936
I84
sS'eat'
p3937
I75
sS'encuentren'
p3938
I84
sS'he'
p3939
I64
sS'count'
p3940
I83
sS'bien\xe2\x80\xa6'
p3941
I84
sS'made'
p3942
I79
sS'747'
p3943
I84
sS'd-bales'
p3944
I84
sS'prom!('
p3945
I84
sS'wish'
p3946
I74
sS'beb\xc3\xa9'
p3947
I84
sS'j'
p3948
I82
sS'smooth'
p3949
I84
sS'roam'
p3950
I84
sS'tacos)'
p3951
I84
sS'aqui'
p3952
I84
sS'spot)'
p3953
I82
sS'dmv'
p3954
I83
sS'cake'
p3955
I83
sS'problem'
p3956
I83
sS'piece'
p3957
I84
sS'odds'
p3958
I84
sS'skating'
p3959
I84
sS'800m'
p3960
I84
sS'(except'
p3961
I84
sS'watermarke'
p3962
I84
sS'deaths'
p3963
I84
sS'nurses'
p3964
I84
sS'domino'
p3965
I84
sS'pic'
p3966
I81
sS'gtfo'
p3967
I84
sS'topless'
p3968
I84
sS'frames'
p3969
I84
sS'pig'
p3970
I84
sS'dyed'
p3971
I84
sS'mejor'
p3972
I84
sS'ink'
p3973
I84
sS'viner'
p3974
I84
sS'ew'
p3975
I83
sS'slapping'
p3976
I84
sS'tal'
p3977
I84
sS'lunges'
p3978
I84
sS'46'
p3979
I84
sS'dressed'
p3980
I83
sS'boot'
p3981
I84
sS'40'
p3982
I84
sS'87'
p3983
I84
sS'javiruchis'
p3984
I84
sS'other'
p3985
I77
sS'popping'
p3986
I84
sS'sick'
p3987
I81
sS'u'
p3988
I66
sS'youngsters'
p3989
I84
sS'jamming'
p3990
I84
sS'12.20'
p3991
I84
sS'boog'
p3992
I84
sS'francisco'
p3993
I84
sS'star'
p3994
I73
sS'monday'
p3995
I84
sS'sooooo'
p3996
I84
sS'june'
p3997
I84
sS'stay'
p3998
I82
sS'chance'
p3999
I83
sS'calum'
p4000
I84
sS'conoces'
p4001
I84
sS'fbwhats'
p4002
I84
sS'tmb'
p4003
I84
sS'metcon'
p4004
I84
sS'02:51:22.0,33.7355203,-118.2893273,2966,earthquake'
p4005
I84
sS'friends'
p4006
I72
sS'bae<3'
p4007
I84
sS'cliff'
p4008
I83
sS'ghost'
p4009
I84
sS'constant'
p4010
I84
sS'\xe2\x80\x94'
p4011
I83
sS'stunt'
p4012
I84
sS'tanned'
p4013
I84
sS'suit'
p4014
I84
sS'pictured'
p4015
I84
sS'uhhh'
p4016
I84
sS"joan's"
p4017
I84
sS'awake'
p4018
I83
sS'"the'
p4019
I84
sS'nooo'
p4020
I84
sS'2am-sage'
p4021
I84
s.