(dp0
S''
p1
I4
sS'raining'
p2
I52
sS'four'
p3
I53
sS'sleep'
p4
I43
sS'hanging'
p5
I53
sS'6pm'
p6
I53
sS'captain'
p7
I53
sS'hate'
p8
I45
sS'marching'
p9
I53
sS'relationships'
p10
I53
sS'swag'
p11
I53
sS'tweet'
p12
I49
sS'patched'
p13
I53
sS'whatsoever'
p14
I53
sS'sorry'
p15
I47
sS'chill'
p16
I46
sS'worth'
p17
I52
sS'berent'
p18
I53
sS'blanket'
p19
I53
sS'lololol'
p20
I53
sS'every'
p21
I45
sS'bringing'
p22
I53
sS'cusses'
p23
I53
sS'school'
p24
I42
sS'solution'
p25
I53
sS'math'
p26
I53
sS'ups'
p27
I53
sS'clothes'
p28
I52
sS'enjoy'
p29
I53
sS'force'
p30
I52
sS'tired'
p31
I43
sS'chef'
p32
I53
sS'second'
p33
I52
sS'n'
p34
I49
sS'even'
p35
I38
sS'saved'
p36
I52
sS'+'
p37
I53
sS'lights'
p38
I52
sS'&nd'
p39
I53
sS'chevron\xe2\x80\xa6'
p40
I53
sS'new'
p41
I49
sS'hmmm'
p42
I53
sS'ever'
p43
I50
sS'disney'
p44
I52
sS'told'
p45
I51
sS'kicked'
p46
I53
sS'never'
p47
I41
sS'meh'
p48
I52
sS'here'
p49
I46
sS'\xe2\x9d\xa4\xef\xb8\x8f\xe2\x9d\xa4\xef\xb8\x8f\xe2\x9d\xa4\xef\xb8\x8f\xe2\x9d\xa4\xef\xb8\x8f'
p50
I53
sS'\xe2\x9d\xa4\xef\xb8\x8f'
p51
I53
sS'studio'
p52
I53
sS'active'
p53
I53
sS'100'
p54
I52
sS"aren't"
p55
I53
sS'peaceful'
p56
I53
sS'kids'
p57
I50
sS'daughter'
p58
I53
sS'jams'
p59
I53
sS'leaves'
p60
I53
sS'ignoring'
p61
I53
sS'tv'
p62
I53
sS"i'd"
p63
I48
sS'stressed'
p64
I53
sS'\xe2\x9c\x94\xef\xb8\x8f'
p65
I53
sS'military'
p66
I51
sS"i'm"
p67
I7
sS'cancellation'
p68
I53
sS'appropriately'
p69
I53
sS'company)'
p70
I52
sS'bro'
p71
I46
sS'punching'
p72
I53
sS'cocaine'
p73
I53
sS'cough'
p74
I52
sS'would'
p75
I44
sS'grove)'
p76
I49
sS'sweater'
p77
I53
sS'arms'
p78
I52
sS'm5'
p79
I53
sS'armo'
p80
I53
sS'asses'
p81
I53
sS'music'
p82
I47
sS'calm'
p83
I53
sS'survive'
p84
I53
sS"twice...you're"
p85
I53
sS'type'
p86
I51
sS'until'
p87
I49
sS'haho'
p88
I53
sS'holy'
p89
I53
sS'brings'
p90
I52
sS'haha'
p91
I53
sS'subtweet'
p92
I53
sS'hurt'
p93
I53
sS'phone'
p94
I49
sS'91'
p95
I53
sS'hold'
p96
I53
sS'must'
p97
I50
sS'me'
p98
I17
sS'ma'
p99
I53
sS'room'
p100
I47
sS'work'
p101
I47
sS'movies'
p102
I51
sS'locker'
p103
I53
sS'"born'
p104
I53
sS'root'
p105
I53
sS"hockey's"
p106
I53
sS'give'
p107
I53
sS'household'
p108
I53
sS'stressing'
p109
I53
sS'homie'
p110
I53
sS'ddevil'
p111
I52
sS'want'
p112
I37
sS'times'
p113
I51
sS'altitudes'
p114
I53
sS'dyke'
p115
I53
sS'end'
p116
I52
sS'turn'
p117
I51
sS'sitting'
p118
I53
sS'far'
p119
I52
sS'hot'
p120
I52
sS'hop'
p121
I53
sS'significance'
p122
I53
sS'answer'
p123
I51
sS'disgrace'
p124
I53
sS'gamble'
p125
I53
sS'costed'
p126
I53
sS'mouths'
p127
I53
sS'after'
p128
I48
sS'wrong'
p129
I53
sS'jumping'
p130
I52
sS'lay'
p131
I53
sS'lav'
p132
I52
sS'lesbian'
p133
I52
sS'wins'
p134
I53
sS'uzum'
p135
I52
sS'greet'
p136
I53
sS'upside'
p137
I52
sS'goodbye'
p138
I53
sS'keeps'
p139
I53
sS'leggings'
p140
I53
sS'order'
p141
I53
sS'wine'
p142
I53
sS'wut'
p143
I53
sS'over'
p144
I48
sS'is...lol'
p145
I53
sS'wuh'
p146
I53
sS'mayor'
p147
I51
sS'before'
p148
I50
sS'fix'
p149
I53
sS'imo'
p150
I53
sS'crew'
p151
I53
sS'better'
p152
I47
sS'weeks'
p153
I53
sS'then'
p154
I49
sS'them'
p155
I50
sS'programed'
p156
I53
sS'safe'
p157
I53
sS'break'
p158
I47
sS'they'
p159
I47
sS'schools'
p160
I52
sS'jetlag'
p161
I53
sS'one'
p162
I40
sS'anis'
p163
I53
sS'oxygen'
p164
I53
sS'pornhub'
p165
I53
sS'went'
p166
I49
sS'side'
p167
I51
sS'bone'
p168
I53
sS'luck'
p169
I53
sS'diana'
p170
I50
sS'series'
p171
I53
sS'parasites'
p172
I53
sS'celebrating'
p173
I53
sS'taught'
p174
I53
sS'forgot'
p175
I53
sS'dawn'
p176
I53
sS'saturday'
p177
I50
sS'rt'
p178
I53
sS'gon'
p179
I53
sS'rr'
p180
I53
sS'sang'
p181
I53
sS'god'
p182
I49
sS'smh'
p183
I53
sS'got'
p184
I45
sS'rn'
p185
I48
sS"doesn't"
p186
I50
sS'little'
p187
I47
sS'free'
p188
I52
sS'standard'
p189
I53
sS'struggle'
p190
I53
sS'boosting'
p191
I53
sS'wanted'
p192
I52
sS'ate'
p193
I53
sS'atm'
p194
I50
sS'gyotze'
p195
I53
sS'days'
p196
I51
sS'shipped'
p197
I53
sS'tempting'
p198
I53
sS'hakopian'
p199
I53
sS'loud'
p200
I51
sS'bite'
p201
I53
sS'fuckin'
p202
I42
sS'already'
p203
I46
sS'angelic'
p204
I53
sS'>>'
p205
I53
sS'grade'
p206
I53
sS'nhl'
p207
I53
sS'hearing'
p208
I53
sS'another'
p209
I51
sS'girls'
p210
I50
sS'needed'
p211
I53
sS'dumbass'
p212
I51
sS'too'
p213
I42
sS'rockin'
p214
I53
sS'hollywood'
p215
I53
sS'lol'
p216
I49
sS'listen'
p217
I50
sS'mentioning'
p218
I53
sS'gym'
p219
I53
sS'took'
p220
I52
sS'wisdom'
p221
I53
sS'nirvana'
p222
I51
sS'somewhat'
p223
I53
sS'crawl'
p224
I53
sS'rn>>>'
p225
I53
sS'begins'
p226
I52
sS'spoiler'
p227
I53
sS'shower'
p228
I53
sS'matter'
p229
I53
sS'classes'
p230
I53
sS'historical'
p231
I53
sS'akiras'
p232
I53
sS'feeling'
p233
I50
sS'mini'
p234
I53
sS'blackhawks'
p235
I53
sS'esta'
p236
I53
sS'mind'
p237
I50
sS'mine'
p238
I52
sS'talking'
p239
I47
sS'rap'
p240
I51
sS'seen'
p241
I52
sS'seem'
p242
I50
sS'mint'
p243
I53
sS'starting.\xe2\x80\x9dfuuk'
p244
I53
sS'person'
p245
I49
sS'convenient'
p246
I53
sS"guys'"
p247
I53
sS'-'
p248
I53
sS'klose'
p249
I53
sS'mario'
p250
I53
sS'regular'
p251
I53
sS'mouth'
p252
I53
sS'letter'
p253
I53
sS'pro-military'
p254
I53
sS'contain'
p255
I53
sS'maria'
p256
I49
sS'grove'
p257
I26
sS'professor'
p258
I53
sS'metal'
p259
I53
sS'dog'
p260
I53
sS'swamp'
p261
I51
sS'thunder'
p262
I53
sS'scream'
p263
I53
sS'came'
p264
I49
sS'saying'
p265
I52
sS'bomb'
p266
I53
sS'd+'
p267
I53
sS'lyrics'
p268
I53
sS'random'
p269
I53
sS'ending'
p270
I53
sS'earth'
p271
I53
sS'sharks'
p272
I53
sS'resemblance'
p273
I53
sS'694'
p274
I53
sS'*hi'
p275
I53
sS'cousins'
p276
I53
sS'bust'
p277
I52
sS'bush'
p278
I53
sS'deepest'
p279
I53
sS'rich'
p280
I53
sS'rice'
p281
I53
sS'wearing'
p282
I51
sS'do'
p283
I23
sS'di'
p284
I53
sS'watch'
p285
I52
sS'preferred'
p286
I53
sS'da'
p287
I52
sS'watermelon'
p288
I49
sS'fetish'
p289
I53
sS'beleive'
p290
I53
sS'dr'
p291
I49
sS'nurse'
p292
I53
sS'bat'
p293
I53
sS'tomik'
p294
I53
sS'bad'
p295
I45
sS'anze'
p296
I53
sS'steal'
p297
I53
sS'steam'
p298
I53
sS'ears'
p299
I51
sS"weather's"
p300
I53
sS'w/'
p301
I53
sS'goodnight'
p302
I49
sS'decided'
p303
I53
sS'bed'
p304
I52
sS'noodles'
p305
I53
sS'best'
p306
I49
sS'said'
p307
I51
sS'grandmother'
p308
I53
sS'score'
p309
I52
sS'hopefully'
p310
I53
sS'awal'
p311
I53
sS'lazy'
p312
I51
sS'omg'
p313
I53
sS'wears'
p314
I53
sS'nature'
p315
I53
sS'confusion'
p316
I53
sS'boss'
p317
I53
sS'cut'
p318
I53
sS'wtf'
p319
I47
sS'cousin'
p320
I53
sS'roller'
p321
I53
sS'faced'
p322
I53
sS'country'
p323
I52
sS'ill'
p324
I51
sS'jelly'
p325
I53
sS'edgar'
p326
I52
sS'dissapointed'
p327
I53
sS'players'
p328
I53
sS'games'
p329
I52
sS'planned'
p330
I52
sS'lookin'
p331
I53
sS'dopest'
p332
I53
sS'argue'
p333
I53
sS'asked'
p334
I53
sS'tone'
p335
I53
sS'had'
p336
I46
sS'vain'
p337
I53
sS'trust'
p338
I51
sS'chka'
p339
I53
sS'speak'
p340
I53
sS'strong'
p341
I53
sS'beef'
p342
I53
sS'three'
p343
I53
sS'been'
p344
I45
sS'beer'
p345
I52
sS'much'
p346
I36
sS'beet'
p347
I53
sS'xorovats'
p348
I53
sS'cesare'
p349
I50
sS'entered'
p350
I53
sS'lovely'
p351
I52
sS'life'
p352
I41
sS'drugs'
p353
I50
sS'chipped'
p354
I53
sS'uncommon'
p355
I53
sS'church)'
p356
I52
sS'$2000'
p357
I53
sS'has'
p358
I49
sS'woah'
p359
I53
sS'air'
p360
I53
sS'near'
p361
I53
sS'cracked'
p362
I53
sS'whhpooo'
p363
I53
sS'procedure'
p364
I53
sS'mistake'
p365
I53
sS'remembering'
p366
I53
sS'likin'
p367
I53
sS'is'
p368
I11
sS'it'
p369
I14
sS'throat'
p370
I53
sS'dizzy'
p371
I53
sS'im'
p372
I46
sS'in'
p373
I10
sS'id'
p374
I53
sS'if'
p375
I24
sS'things'
p376
I46
sS'make'
p377
I52
sS"everybody's"
p378
I53
sS'craigslist'
p379
I53
sS'manches'
p380
I53
sS'sheltered'
p381
I53
sS'babies'
p382
I53
sS'vegetable'
p383
I53
sS'superman'
p384
I53
sS'bunny'
p385
I53
sS'bells'
p386
I53
sS'pampering'
p387
I53
sS'horus'
p388
I53
sS'quentin'
p389
I53
sS'coachella'
p390
I53
sS'rain'
p391
I53
sS'kim'
p392
I53
sS'jealous'
p393
I53
sS'aka'
p394
I53
sS'thoughts'
p395
I51
sS'kid'
p396
I51
sS'butter'
p397
I53
sS'lucas'
p398
I53
sS'youre'
p399
I53
sS'ocean'
p400
I53
sS'tho'
p401
I52
sS'charity'
p402
I53
sS'mother'
p403
I53
sS'the'
p404
I2
sS'smoked'
p405
I53
sS'tha'
p406
I53
sS'left'
p407
I50
sS'hyper'
p408
I53
sS'just'
p409
I15
sS'100-0'
p410
I53
sS'yea'
p411
I50
sS'photo'
p412
I53
sS'unfollow'
p413
I53
sS'grades'
p414
I52
sS'thanks'
p415
I47
sS'human'
p416
I51
sS'facts'
p417
I53
sS'yes'
p418
I51
sS'yet'
p419
I51
sS'hah'
p420
I53
sS'eli'
p421
I53
sS'323'
p422
I53
sS'character'
p423
I53
sS'theater'
p424
I53
sS'easy'
p425
I51
sS'save'
p426
I52
sS'hav'
p427
I53
sS'sometimes\xe2\x9c\xa8\xe2\x9c\xa8'
p428
I53
sS'breaks'
p429
I52
sS'mayn'
p430
I53
sS'possible'
p431
I52
sS'boxer'
p432
I53
sS'vegassss'
p433
I53
sS'dreams'
p434
I52
sS'texts'
p435
I53
sS'54'
p436
I53
sS'hunt'
p437
I52
sS'50'
p438
I53
sS'specific'
p439
I53
sS'remind'
p440
I53
sS'night'
p441
I47
sS'trillest'
p442
I53
sS'right'
p443
I47
sS'old'
p444
I50
sS'crowd'
p445
I53
sS'people'
p446
I40
sS'dead'
p447
I52
sS'zoom'
p448
I53
sS'finna'
p449
I53
sS'enemies'
p450
I53
sS'total'
p451
I53
sS'for'
p452
I20
sS'bottom'
p453
I52
sS'a\xe2\x80\xa6'
p454
I53
sS'ice'
p455
I50
sS'everything'
p456
I50
sS'asking'
p457
I53
sS'christmas'
p458
I50
sS'apperently'
p459
I53
sS'core'
p460
I52
sS'dental'
p461
I53
sS'burn'
p462
I53
sS'keeper'
p463
I53
sS'post'
p464
I53
sS'super'
p465
I50
sS'plug'
p466
I53
sS'dollars'
p467
I53
sS'months'
p468
I53
sS'choke'
p469
I53
sS'genocide'
p470
I53
sS'islands'
p471
I53
sS'automatically'
p472
I53
sS'whats'
p473
I53
sS'lied'
p474
I53
sS'selfie'
p475
I53
sS'son'
p476
I53
sS'down'
p477
I38
sS'magazines'
p478
I53
sS'parade'
p479
I53
sS'rely'
p480
I52
sS'constantly'
p481
I53
sS'nova'
p482
I52
sS'class'
p483
I52
sS'way'
p484
I47
sS'step-by-step'
p485
I53
sS'gin'
p486
I53
sS'wat'
p487
I53
sS'was'
p488
I20
sS'halls'
p489
I53
sS'happy'
p490
I46
sS'head'
p491
I52
sS'some'
p492
I32
sS'heat'
p493
I52
sS'hear'
p494
I53
sS'idgaf'
p495
I52
sS'true'
p496
I52
sS'222'
p497
I53
sS'sniffle*'
p498
I53
sS'will!?\xe2\x80\xa6'
p499
I53
sS'heartwarming'
p500
I53
sS'bargain'
p501
I53
sS'dominicans'
p502
I53
sS'whyd'
p503
I53
sS'delete'
p504
I51
sS'hotter'
p505
I53
sS'covers'
p506
I53
sS'drive'
p507
I48
sS'exist'
p508
I53
sS'annoying'
p509
I50
sS'check'
p510
I53
sS'shit'
p511
I30
sS'kunel'
p512
I53
sS'procrastination<'
p513
I53
sS'dying'
p514
I52
sS'no'
p515
I34
sS'nd'
p516
I53
sS"anna's"
p517
I53
sS'role'
p518
I53
sS'test'
p519
I53
sS'roll'
p520
I53
sS'realize'
p521
I53
sS'picture'
p522
I52
sS'lollipops'
p523
I53
sS'dies'
p524
I52
sS'fell'
p525
I51
sS'detox'
p526
I53
sS'died'
p527
I53
sS'younger'
p528
I53
sS'1800'
p529
I53
sS'moved'
p530
I53
sS'yacht'
p531
I53
sS'together'
p532
I53
sS'time'
p533
I36
sS'songs'
p534
I50
sS'neighbors'
p535
I53
sS':/'
p536
I51
sS':('
p537
I52
sS'whoever'
p538
I53
sS'dance'
p539
I51
sS'walking'
p540
I50
sS'mile'
p541
I53
sS'shot'
p542
I53
sS'pes'
p543
I53
sS'hump'
p544
I53
sS'disgusting'
p545
I53
sS'finally'
p546
I48
sS'marks'
p547
I50
sS'suffered'
p548
I53
sS'shoot'
p549
I50
sS'tacos'
p550
I51
sS'join'
p551
I53
sS'life?me'
p552
I53
sS'minute'
p553
I53
sS'cool'
p554
I53
sS'staples'
p555
I53
sS'did'
p556
I44
sS'die'
p557
I51
sS'brother'
p558
I51
sS'turnt'
p559
I52
sS'leave'
p560
I52
sS'subway'
p561
I52
sS'team'
p562
I51
sS'quick'
p563
I51
sS'guy'
p564
I50
sS'dip'
p565
I53
sS"it'll"
p566
I53
sS'shave'
p567
I53
sS'regret'
p568
I50
sS'porn'
p569
I52
sS'sigh'
p570
I53
sS'drinks'
p571
I53
sS'current'
p572
I52
sS'goes'
p573
I53
sS'falling'
p574
I53
sS'boost'
p575
I51
sS'(glendale'
p576
I49
sS'bandwagon'
p577
I53
sS"cel's"
p578
I53
sS'water'
p579
I53
sS"hadn't"
p580
I53
sS'teacher'
p581
I52
sS'change'
p582
I52
sS'wait'
p583
I48
sS'thirty'
p584
I52
sS'my'
p585
I6
sS'lakers'
p586
I53
sS'accomplished'
p587
I53
sS'weird'
p588
I51
sS'removal\xe2\x9c\x94\xef\xb8\x8f'
p589
I53
sS'love'
p590
I42
sS'losing'
p591
I52
sS'fake'
p592
I53
sS'overthink'
p593
I53
sS'sweating'
p594
I53
sS'hahahahahahahahahahahaha'
p595
I53
sS'angry'
p596
I53
sS'visit'
p597
I53
sS'by'
p598
I45
sS'ca)'
p599
I50
sS'ayy'
p600
I52
sS'iphone'
p601
I53
sS'wondering'
p602
I52
sS'memory'
p603
I53
sS'tape'
p604
I53
sS'thru'
p605
I52
sS'today'
p606
I36
sS'oof'
p607
I51
sS'club'
p608
I52
sS'clue'
p609
I53
sS'everywhere'
p610
I52
sS'effort'
p611
I53
sS'demolish'
p612
I53
sS'car'
p613
I39
sS'soul'
p614
I52
sS'cat'
p615
I53
sS'purge'
p616
I52
sS'soup'
p617
I53
sS'can'
p618
I40
sS'making'
p619
I53
sS'novocaine'
p620
I53
sS'streak'
p621
I53
sS'heart'
p622
I52
sS'crazy'
p623
I53
sS'subsidies'
p624
I53
sS"didn't"
p625
I50
sS'fuck'
p626
I33
sS'heard'
p627
I53
sS'chin'
p628
I53
sS'lorde'
p629
I53
sS'painkillers'
p630
I52
sS'pink'
p631
I53
sS'winter'
p632
I53
sS'1'
p633
I53
sS'till'
p634
I52
sS'sunday'
p635
I53
sS'emotionless'
p636
I52
sS'may'
p637
I53
sS'3hunna'
p638
I53
sS'mac'
p639
I53
sS'pasting'
p640
I53
sS'tipped'
p641
I53
sS'mad'
p642
I52
sS'mah'
p643
I52
sS'suck'
p644
I53
sS'guys'
p645
I42
sS'man'
p646
I37
sS'assley'
p647
I53
sS'stress'
p648
I52
sS'remember'
p649
I51
sS'ghs'
p650
I52
sS'6th'
p651
I53
sS'futures'
p652
I53
sS"q's"
p653
I53
sS'st'
p654
I48
sS'q'
p655
I52
sS'so'
p656
I12
sS'kurt'
p657
I53
sS'talk'
p658
I47
sS'cute'
p659
I52
sS'fallout'
p660
I53
sS'seeing'
p661
I52
sS'090'
p662
I53
sS'years'
p663
I51
sS'brain'
p664
I53
sS'screen..rip'
p665
I53
sS'cold'
p666
I51
sS'still'
p667
I39
sS'gta'
p668
I52
sS'aper'
p669
I53
sS'apes'
p670
I53
sS'group'
p671
I53
sS'thank'
p672
I52
sS'how'
p673
I38
sS'interesting'
p674
I50
sS'torn'
p675
I53
sS'amazing'
p676
I52
sS'window'
p677
I53
sS'hotwings'
p678
I53
sS'tweets'
p679
I50
sS'ahh'
p680
I53
sS'happened'
p681
I48
sS'aching'
p682
I53
sS'longazina'
p683
I53
sS'conversations'
p684
I52
sS'feelin'
p685
I52
sS'1956'
p686
I53
sS'safari'
p687
I53
sS'half'
p688
I51
sS'not'
p689
I33
sS'leopards'
p690
I53
sS'now'
p691
I37
sS'hall'
p692
I53
sS"kliris's"
p693
I53
sS'name'
p694
I52
sS'clutch'
p695
I52
sS'drop'
p696
I52
sS'rock'
p697
I52
sS'quarter'
p698
I53
sS'em'
p699
I50
sS'lowkey'
p700
I53
sS'elephants'
p701
I53
sS'yeah'
p702
I52
sS'ey'
p703
I53
sS'year'
p704
I49
sS'girl'
p705
I51
sS'album'
p706
I52
sS'accomplish'
p707
I53
sS'3rd'
p708
I53
sS'sunburnt'
p709
I53
sS'looking'
p710
I49
sS'seriously'
p711
I52
sS'smfh'
p712
I53
sS'hibernate'
p713
I53
sS'patios'
p714
I53
sS'cars'
p715
I51
sS'million'
p716
I52
sS'quite'
p717
I53
sS'glendale'
p718
I47
sS'grandma'
p719
I53
sS'tranquilize'
p720
I53
sS'care'
p721
I48
sS'fixed'
p722
I53
sS'100%'
p723
I51
sS'tasting'
p724
I53
sS'punk'
p725
I52
sS'thing'
p726
I47
sS'place'
p727
I52
sS'promotion'
p728
I53
sS'yess'
p729
I53
sS'think'
p730
I45
sS'first'
p731
I47
sS'yourself'
p732
I48
sS'twinkie'
p733
I53
sS'fast'
p734
I51
sS'spanish'
p735
I51
sS'message'
p736
I53
sS'open'
p737
I53
sS'tomorrow'
p738
I38
sS'city'
p739
I53
sS'given'
p740
I53
sS'district'
p741
I53
sS'caught'
p742
I53
sS'slept'
p743
I52
sS'anyone'
p744
I48
sS'afterschool'
p745
I53
sS'fml'
p746
I51
sS'2'
p747
I51
sS'tell'
p748
I52
sS'white'
p749
I50
sS'friend'
p750
I53
sS'eyes'
p751
I52
sS'starfish'
p752
I53
sS'that'
p753
I16
sS'season'
p754
I53
sS'huh'
p755
I53
sS'uoeno'
p756
I53
sS'copy'
p757
I53
sS'than'
p758
I45
sS'boyfriend'
p759
I53
sS'11'
p760
I53
sS'10'
p761
I53
sS'13'
p762
I53
sS'lmao'
p763
I52
sS'17'
p764
I53
sS'16'
p765
I53
sS'depressed'
p766
I52
sS'scraping'
p767
I53
sS'gotta'
p768
I53
sS'war'
p769
I51
sS'future'
p770
I53
sS'were'
p771
I46
sS'asleep'
p772
I51
sS'sophie'
p773
I53
sS'damned'
p774
I53
sS'and'
p775
I8
sS'armored'
p776
I53
sS'vaxxxxx'
p777
I53
sS'pro'
p778
I53
sS'ani'
p779
I53
sS'sad'
p780
I48
sS'dash'
p781
I53
sS'episcopal'
p782
I50
sS'say'
p783
I42
sS'adele'
p784
I53
sS'pisces'
p785
I53
sS'turner'
p786
I53
sS'any'
p787
I52
sS'marathon'
p788
I53
sS'sat'
p789
I53
sS'advil'
p790
I53
sS'omfg'
p791
I51
sS'squad'
p792
I52
sS'hookah'
p793
I53
sS'take'
p794
I44
sS'bailey'
p795
I53
sS'wanting'
p796
I53
sS'blunt'
p797
I53
sS'channel'
p798
I53
sS'multiple'
p799
I53
sS'opposite'
p800
I53
sS'track'
p801
I53
sS'falls'
p802
I53
sS'rehearsal'
p803
I52
sS'freshmen'
p804
I53
sS'importantly'
p805
I53
sS'freshman'
p806
I53
sS'pages'
p807
I53
sS'pencils'
p808
I53
sS'luv'
p809
I53
sS'lates'
p810
I52
sS'proud'
p811
I49
sS'hungry'
p812
I52
sS'tooth'
p813
I53
sS'muzzad'
p814
I53
sS'bawling'
p815
I53
sS'cobra'
p816
I53
sS'playoffs'
p817
I53
sS'show'
p818
I52
sS'russian'
p819
I53
sS'bright'
p820
I53
sS'therapist'
p821
I53
sS'shoe'
p822
I53
sS'wallet*google'
p823
I53
sS'crashing'
p824
I53
sS'women'
p825
I53
sS"antagonist?'"
p826
I53
sS'woot'
p827
I52
sS'favor'
p828
I52
sS'dick'
p829
I53
sS'3'
p830
I50
sS'only'
p831
I50
sS'going'
p832
I36
sS'hockey'
p833
I44
sS'irritate.\xe2\x80\x9d'
p834
I53
sS'toffolis'
p835
I53
sS'\xe2\x99\xa1'
p836
I52
sS'get'
p837
I28
sS'whaaaa'
p838
I53
sS'killers'
p839
I53
sS'dyi'
p840
I53
sS'morning'
p841
I52
sS'stupid'
p842
I52
sS"could've"
p843
I52
sS'where'
p844
I48
sS"everything's"
p845
I53
sS'husband'
p846
I53
sS"y'all"
p847
I52
sS'concert'
p848
I53
sS'routine.\xe2\x80\x9d'
p849
I53
sS'college'
p850
I53
sS'stanley'
p851
I53
sS'surgery'
p852
I53
sS'sport'
p853
I53
sS'wonder'
p854
I52
sS'*looks'
p855
I53
sS'clips'
p856
I53
sS'24/7'
p857
I53
sS'jumped'
p858
I53
sS'review'
p859
I53
sS'enough'
p860
I50
sS'between'
p861
I53
sS'screen'
p862
I53
sS'supermarket'
p863
I53
sS'killing'
p864
I53
sS'guitar'
p865
I53
sS'armenian'
p866
I51
sS'jk'
p867
I53
sS'coma'
p868
I53
sS'come'
p869
I46
sS'many'
p870
I49
sS'dds)'
p871
I53
sS'gangbangs'
p872
I53
sS"can't"
p873
I34
sS'armenia'
p874
I53
sS'color'
p875
I53
sS'period'
p876
I52
sS'satisfaction'
p877
I53
sS'dropped...off'
p878
I53
sS"couldn't"
p879
I52
sS'69'
p880
I52
sS'caring'
p881
I53
sS'mark'
p882
I53
sS'breath'
p883
I52
sS'judging'
p884
I53
sS'helicopter'
p885
I53
sS'staring'
p886
I53
sS'500'
p887
I53
sS'schoolboy'
p888
I52
sS'wants'
p889
I52
sS'cobain'
p890
I53
sS'offered'
p891
I52
sS'photos'
p892
I53
sS'eatery'
p893
I52
sS'wake'
p894
I49
sS'sobaaaaa'
p895
I53
sS'champions'
p896
I53
sS'dzenut'
p897
I53
sS'countless'
p898
I53
sS'sound'
p899
I51
sS'myself'
p900
I47
sS'fangirls'
p901
I53
sS'slumber'
p902
I53
sS'intimately'
p903
I53
sS'cast'
p904
I53
sS'ignition'
p905
I53
sS'blackhawk'
p906
I52
sS'50s'
p907
I53
sS'coolest'
p908
I53
sS'ive'
p909
I53
sS'eventually'
p910
I52
sS'sleeping'
p911
I51
sS'someone'
p912
I45
sS'worry'
p913
I53
sS'pap'
p914
I53
sS'different'
p915
I49
sS'doctor'
p916
I53
sS'$20'
p917
I53
sS'same'
p918
I49
sS'unholy'
p919
I53
sS'gentlemen'
p920
I53
sS'ya'
p921
I53
sS'followers'
p922
I51
sS'buys'
p923
I53
sS'retweeting'
p924
I53
sS'week'
p925
I51
sS'favorited'
p926
I53
sS'raps'
p927
I53
sS'closest'
p928
I53
sS'assist'
p929
I53
sS'bumpin'
p930
I53
sS'director'
p931
I53
sS'running'
p932
I52
sS'fruit'
p933
I51
sS'favorites'
p934
I53
sS'totally'
p935
I53
sS'burrito'
p936
I53
sS'charger'
p937
I52
sS'nothin'
p938
I53
sS'breezy'
p939
I53
sS'without'
p940
I51
sS'glorious'
p941
I53
sS'model'
p942
I53
sS'bumping'
p943
I52
sS'summer'
p944
I51
sS'nai'
p945
I53
sS'being'
p946
I48
sS'when'
p947
I19
sS'dancers'
p948
I53
sS'violent'
p949
I53
sS'kill'
p950
I52
sS'wifey'
p951
I53
sS'exclamation'
p952
I53
sS'clueless'
p953
I53
sS'thinking'
p954
I51
sS'rose'
p955
I53
sS'nap'
p956
I49
sS'it\xe2\x80\x99s'
p957
I53
sS'4'
p958
I51
sS'flashing'
p959
I52
sS'ca'
p960
I52
sS'borat'
p961
I53
sS'real'
p962
I52
sS'psn'
p963
I53
sS'around'
p964
I51
sS'read'
p965
I49
sS'gonna'
p966
I37
sS'early'
p967
I52
sS'mom'
p968
I51
sS'morongo'
p969
I53
sS'world'
p970
I52
sS'lady'
p971
I52
sS'furniture'
p972
I53
sS'shrink'
p973
I53
sS'kopitar'
p974
I51
sS'either'
p975
I53
sS'fully'
p976
I52
sS'fives'
p977
I53
sS"fuckers'"
p978
I53
sS'ibuprofen'
p979
I53
sS'brothers'
p980
I51
sS'mood'
p981
I48
sS'memories'
p982
I53
sS'stops'
p983
I53
sS'911'
p984
I53
sS'fractures'
p985
I53
sS'asap'
p986
I52
sS'lmfao'
p987
I51
sS'nails'
p988
I52
sS'throwback'
p989
I53
sS';)'
p990
I52
sS'on'
p991
I23
sS'ok'
p992
I44
sS'oh'
p993
I41
sS'jeep'
p994
I53
sS'gunshots'
p995
I53
sS'favorite'
p996
I52
sS'stand'
p997
I53
sS'neighbor'
p998
I53
sS'chow'
p999
I53
sS'alec'
p1000
I53
sS'or'
p1001
I44
sS'ladies'
p1002
I52
sS'snapchat'
p1003
I53
sS'annotate'
p1004
I53
sS'claymores'
p1005
I53
sS'dreaming'
p1006
I53
sS'syringe'
p1007
I53
sS'your'
p1008
I29
sS'jerks'
p1009
I53
sS'jigar'
p1010
I53
sS'her'
p1011
I48
sS'strictly'
p1012
I53
sS'there'
p1013
I43
sS'hey'
p1014
I52
sS'd.d.s)'
p1015
I52
sS'arev'
p1016
I53
sS'knockout'
p1017
I53
sS'lions'
p1018
I53
sS'low'
p1019
I51
sS'lot'
p1020
I53
sS'dumping'
p1021
I53
sS'smashes'
p1022
I53
sS'yupp'
p1023
I53
sS'mars'
p1024
I53
sS'trying'
p1025
I51
sS'with'
p1026
I23
sS'buying'
p1027
I53
sS"they're"
p1028
I52
sS'dawg'
p1029
I53
sS'politically'
p1030
I53
sS'agree'
p1031
I53
sS'gone'
p1032
I50
sS'citizenship'
p1033
I53
sS'af'
p1034
I42
sS'taste'
p1035
I51
sS'ah'
p1036
I53
sS'accents'
p1037
I53
sS'am'
p1038
I46
sS'deep'
p1039
I52
sS'an'
p1040
I39
sS'as'
p1041
I43
sS'at'
p1042
I13
sS'gaborik='
p1043
I53
sS'watched'
p1044
I53
sS'ieaiaio'
p1045
I53
sS'again'
p1046
I51
sS'idiot'
p1047
I50
sS'fuck.you'
p1048
I53
sS'e39'
p1049
I53
sS'yummmm'
p1050
I53
sS'up<<<<<<<'
p1051
I53
sS'announcements'
p1052
I53
sS'you'
p1053
I5
sS'trash'
p1054
I53
sS'poor'
p1055
I53
sS'xanax'
p1056
I53
sS'henrikh'
p1057
I53
sS'-__-'
p1058
I53
sS'yourwelcome'
p1059
I53
sS'finals'
p1060
I53
sS'building'
p1061
I53
sS'shutup'
p1062
I53
sS'ssdd'
p1063
I53
sS'having'
p1064
I49
sS'u'
p1065
I52
sS'alright'
p1066
I51
sS'starting'
p1067
I53
sS'bmw'
p1068
I53
sS'cheetos'
p1069
I53
sS'all'
p1070
I28
sS'forget'
p1071
I53
sS'dollar'
p1072
I53
sS'surgical'
p1073
I53
sS'unblock'
p1074
I53
sS'welfare'
p1075
I53
sS'follow'
p1076
I51
sS'movies>'
p1077
I53
sS'carpet'
p1078
I52
sS'apartment'
p1079
I53
sS'imma'
p1080
I49
sS'to'
p1081
I3
sS'tl'
p1082
I52
sS'those'
p1083
I50
sS'tf'
p1084
I46
sS'enjoying'
p1085
I53
sS'tb'
p1086
I53
sS'paying'
p1087
I53
sS'woman'
p1088
I52
sS'worse'
p1089
I52
sS'song'
p1090
I45
sS'very'
p1091
I52
sS'fat'
p1092
I52
sS'fan'
p1093
I52
sS'decide'
p1094
I53
sS'ticket'
p1095
I53
sS'trippin'
p1096
I52
sS'laying'
p1097
I53
sS'joined'
p1098
I53
sS'large'
p1099
I53
sS'these'
p1100
I48
sS'harry'
p1101
I53
sS'small'
p1102
I53
sS"i'll"
p1103
I44
sS'cookies'
p1104
I53
sS'neighborhood'
p1105
I53
sS'past'
p1106
I49
sS'functioning'
p1107
I53
sS'90s'
p1108
I53
sS'what'
p1109
I23
sS'sun'
p1110
I52
sS'fucks'
p1111
I53
sS'verdugo'
p1112
I53
sS'learned'
p1113
I52
sS'public'
p1114
I53
sS'tattoos'
p1115
I53
sS'full'
p1116
I51
sS'hours'
p1117
I53
sS'mourning'
p1118
I53
sS'respect'
p1119
I53
sS'search'
p1120
I53
sS'ahead'
p1121
I53
sS'allows'
p1122
I53
sS'pics'
p1123
I53
sS'whiny'
p1124
I53
sS'soldier'
p1125
I53
sS'amount'
p1126
I53
sS'pick'
p1127
I52
sS"would've"
p1128
I52
sS'exited'
p1129
I53
sS'shuffle'
p1130
I53
sS'family'
p1131
I53
sS'cowardly'
p1132
I53
sS'put'
p1133
I48
sS'vip'
p1134
I53
sS'eye'
p1135
I53
sS'\xe2\x98\x9d\xef\xb8\x8f'
p1136
I53
sS'two'
p1137
I50
sS'pearl'
p1138
I53
sS'meruh'
p1139
I53
sS'6'
p1140
I51
sS'shits'
p1141
I51
sS'more'
p1142
I44
sS'oreos'
p1143
I53
sS'tryna'
p1144
I53
sS'door'
p1145
I52
sS'floyd'
p1146
I52
sS"ain't"
p1147
I50
sS'stick'
p1148
I52
sS'broke'
p1149
I53
sS'soloists'
p1150
I53
sS'town'
p1151
I53
sS'grill'
p1152
I53
sS'keeping'
p1153
I53
sS'hour'
p1154
I52
sS'sucks'
p1155
I51
sS'toofers'
p1156
I53
sS'dem'
p1157
I53
sS'learn'
p1158
I53
sS'beautiful'
p1159
I53
sS'compare'
p1160
I53
sS'brown'
p1161
I53
sS'stackin'
p1162
I53
sS'rossmoyne'
p1163
I53
sS'states'
p1164
I53
sS'minimum'
p1165
I53
sS'numbers'
p1166
I52
sS'ave'
p1167
I53
sS'information'
p1168
I53
sS'needs'
p1169
I51
sS'awkward'
p1170
I52
sS'quesadilla'
p1171
I53
sS'argam'
p1172
I53
sS'flashbang'
p1173
I53
sS'gtfo'
p1174
I52
sS"today's"
p1175
I53
sS'rude'
p1176
I53
sS'goals>'
p1177
I53
sS'soundtrack'
p1178
I53
sS'plane'
p1179
I52
sS'blood'
p1180
I53
sS'numb'
p1181
I52
sS'coming'
p1182
I53
sS'choice'
p1183
I53
sS'a'
p1184
I3
sS'short'
p1185
I53
sS'morphine'
p1186
I53
sS'fagit'
p1187
I53
sS'register'
p1188
I53
sS'dream'
p1189
I52
sS'playing'
p1190
I53
sS"that's"
p1191
I43
sS'infant'
p1192
I53
sS'mexican'
p1193
I53
sS'help'
p1194
I52
sS"don't"
p1195
I28
sS'september'
p1196
I53
sS'soon'
p1197
I52
sS'trade'
p1198
I53
sS'thermal'
p1199
I53
sS'through'
p1200
I49
sS'hell'
p1201
I53
sS'its'
p1202
I47
sS'dont'
p1203
I53
sS'24'
p1204
I53
sS'21'
p1205
I53
sS'glide'
p1206
I53
sS'call'
p1207
I52
sS'28'
p1208
I53
sS'actually'
p1209
I47
sS'late'
p1210
I47
sS'argentina'
p1211
I53
sS'might'
p1212
I49
sS"haven't"
p1213
I49
sS'finer'
p1214
I53
sS'fool'
p1215
I51
sS'good'
p1216
I37
sS'yo'
p1217
I51
sS'food'
p1218
I49
sS'vomit'
p1219
I53
sS'compound'
p1220
I53
sS'foot'
p1221
I53
sS'everytime'
p1222
I53
sS'always'
p1223
I44
sS'robbin'
p1224
I53
sS'swimsuit'
p1225
I53
sS'payed'
p1226
I53
sS'habits'
p1227
I52
sS'turns'
p1228
I53
sS'found'
p1229
I53
sS'2k'
p1230
I53
sS'heavy'
p1231
I53
sS'time...1123a'
p1232
I53
sS'everyone'
p1233
I52
sS'house'
p1234
I48
sS'hard'
p1235
I52
sS'idea'
p1236
I53
sS'gun'
p1237
I52
sS'event'
p1238
I53
sS'really'
p1239
I46
sS'lovers'
p1240
I53
sS'prolly'
p1241
I50
sS'since'
p1242
I51
sS'7'
p1243
I53
sS'ass'
p1244
I46
sS'bass'
p1245
I53
sS"armenia's"
p1246
I53
sS'timeline'
p1247
I53
sS'friday'
p1248
I52
sS'motherfucker'
p1249
I52
sS'asa'
p1250
I53
sS'disneyland'
p1251
I53
sS'imagine'
p1252
I52
sS'ask'
p1253
I50
sS'teach'
p1254
I53
sS'beginning'
p1255
I53
sS'launch'
p1256
I53
sS'caption'
p1257
I53
sS'edges'
p1258
I53
sS'trade/waive'
p1259
I53
sS'assign'
p1260
I53
sS'usda'
p1261
I53
sS'feel'
p1262
I44
sS'number'
p1263
I53
sS'sisters'
p1264
I53
sS'done'
p1265
I50
sS'cerveza'
p1266
I53
sS'miss'
p1267
I50
sS'maple'
p1268
I53
sS'guess'
p1269
I50
sS'heads'
p1270
I53
sS'guest'
p1271
I53
sS'gpd'
p1272
I53
sS'airborne'
p1273
I53
sS'paint'
p1274
I53
sS'ton'
p1275
I52
sS'bruh-ing'
p1276
I53
sS'headache'
p1277
I53
sS'relationship'
p1278
I53
sS'behind'
p1279
I53
sS'exploded'
p1280
I53
sS'dentist'
p1281
I49
sS'ashley'
p1282
I53
sS'believe'
p1283
I52
sS'unrealistic'
p1284
I53
sS'kind'
p1285
I52
sS'double'
p1286
I53
sS'recording'
p1287
I53
sS'stalk'
p1288
I53
sS'stale'
p1289
I53
sS'toe'
p1290
I53
sS'ousted'
p1291
I53
sS'cleaner'
p1292
I53
sS'vapshe'
p1293
I53
sS'krew'
p1294
I53
sS'awoken'
p1295
I53
sS'showers'
p1296
I53
sS'cleaned'
p1297
I53
sS'sell'
p1298
I52
sS'mountain'
p1299
I53
sS'nights'
p1300
I53
sS'shelby'
p1301
I53
sS'trip'
p1302
I51
sS'also'
p1303
I50
sS'sandwiches'
p1304
I53
sS'play'
p1305
I51
sS'most'
p1306
I49
sS'axpor'
p1307
I53
sS'experiences'
p1308
I53
sS'eaten'
p1309
I53
sS'nothing'
p1310
I50
sS'kay'
p1311
I53
sS'extremely'
p1312
I52
sS'screenwriter'
p1313
I53
sS'"unsung'
p1314
I53
sS'nail'
p1315
I53
sS'sometimes'
p1316
I46
sS'cover'
p1317
I53
sS'mammoth'
p1318
I53
sS'clean'
p1319
I52
sS'lying'
p1320
I53
sS'joining'
p1321
I53
sS'ugh'
p1322
I50
sS'phones<'
p1323
I53
sS'gold'
p1324
I53
sS'manlier'
p1325
I53
sS'blended'
p1326
I53
sS'hugging'
p1327
I53
sS'stfu'
p1328
I53
sS'fine'
p1329
I53
sS'find'
p1330
I52
sS'fvck'
p1331
I53
sS'nervous'
p1332
I51
sS'pretty'
p1333
I49
sS'california)'
p1334
I53
sS'his'
p1335
I44
sS'hit'
p1336
I49
sS'mein'
p1337
I53
sS'tommorow'
p1338
I53
sS'express'
p1339
I53
sS'famous'
p1340
I52
sS'feels'
p1341
I51
sS'procrastination'
p1342
I52
sS'during'
p1343
I52
sS'narek'
p1344
I51
sS'lalain'
p1345
I52
sS'him'
p1346
I50
sS'wuuuuuttttt'
p1347
I53
sS'common'
p1348
I53
sS'gotten'
p1349
I53
sS'intelligence'
p1350
I53
sS'vine'
p1351
I51
sS'ara'
p1352
I51
sS'see'
p1353
I40
sS'defense'
p1354
I53
sS'dumb'
p1355
I53
sS'are'
p1356
I33
sS'close'
p1357
I51
sS'retweet'
p1358
I53
sS'spirits'
p1359
I52
sS'muted'
p1360
I53
sS'movie'
p1361
I52
sS'wow'
p1362
I50
sS'please'
p1363
I50
sS'fans'
p1364
I51
sS'probably'
p1365
I52
sS'rlly'
p1366
I53
sS'nope'
p1367
I53
sS'piss'
p1368
I53
sS'knowing'
p1369
I52
sS'iron'
p1370
I53
sS'sold'
p1371
I53
sS'ahoy'
p1372
I53
sS'pissed'
p1373
I51
sS'bitches<'
p1374
I53
sS'c'
p1375
I53
sS'last'
p1376
I52
sS'license'
p1377
I53
sS'restaurant'
p1378
I53
sS'mkhitaryan'
p1379
I53
sS"wouldn't"
p1380
I53
sS'mcdonald'
p1381
I53
sS'became'
p1382
I52
sS'cubed'
p1383
I53
sS'ankap'
p1384
I53
sS'whole'
p1385
I52
sS'loaf'
p1386
I53
sS'headed'
p1387
I53
sS'8\xe2\x83\xa30\xe2\x83\xa38\xe2\x83\xa3'
p1388
I53
sS'whatever'
p1389
I51
sS'header'
p1390
I52
sS'likes'
p1391
I53
sS'church'
p1392
I50
sS'rave'
p1393
I53
sS'mission'
p1394
I53
sS'expensive'
p1395
I53
sS'muting'
p1396
I53
sS'dug'
p1397
I53
sS'dropping'
p1398
I53
sS'damn'
p1399
I49
sS'meeting'
p1400
I52
sS'woke'
p1401
I50
sS'treatment'
p1402
I53
sS'kunum'
p1403
I53
sS'lived'
p1404
I53
sS'anythin'
p1405
I53
sS'gay'
p1406
I53
sS'frito'
p1407
I53
sS"what's"
p1408
I49
sS'else'
p1409
I49
sS'anthony'
p1410
I53
sS'awake'
p1411
I51
sS"what'd"
p1412
I53
sS'funk'
p1413
I53
sS'look'
p1414
I41
sS'straight'
p1415
I50
sS'convo'
p1416
I53
sS'tomoto'
p1417
I53
sS'pill'
p1418
I53
sS'while'
p1419
I51
sS'287'
p1420
I53
sS'shift'
p1421
I53
sS'fun'
p1422
I48
sS'fuk'
p1423
I51
sS'loop'
p1424
I53
sS'pack'
p1425
I53
sS'styles'
p1426
I53
sS'annnnnnnd'
p1427
I53
sS'costly'
p1428
I53
sS'rip'
p1429
I53
sS'ducks'
p1430
I53
sS'swagg'
p1431
I53
sS"karen's"
p1432
I53
sS'impersonate'
p1433
I53
sS'fuuuckkkk'
p1434
I53
sS'ready'
p1435
I51
sS'leaving'
p1436
I53
sS'alone'
p1437
I53
sS'coca-cola'
p1438
I53
sS"germany's"
p1439
I53
sS'funny'
p1440
I48
sS'anymore'
p1441
I52
sS'noooo'
p1442
I53
sS'stomachs'
p1443
I53
sS'peoples'
p1444
I53
sS'federer'
p1445
I53
sS'eww'
p1446
I53
sS'keys'
p1447
I53
sS'assessment'
p1448
I53
sS'yesterday'
p1449
I53
sS'moment'
p1450
I51
sS'tobacco'
p1451
I53
sS'wheres'
p1452
I53
sS'prolase'
p1453
I53
sS'episcopal\xe2\x80\xa6'
p1454
I53
sS'posted'
p1455
I53
sS'obviously'
p1456
I53
sS'regretting'
p1457
I53
sS'flags'
p1458
I53
sS'listening'
p1459
I53
sS'4th'
p1460
I51
sS'reincarnated'
p1461
I53
sS'questions'
p1462
I51
sS'using'
p1463
I53
sS'useful'
p1464
I53
sS'praying'
p1465
I53
sS'balled'
p1466
I53
sS'cup'
p1467
I50
sS'workers'
p1468
I53
sS'cuz'
p1469
I53
sS'parents'
p1470
I48
sS'snap'
p1471
I52
sS'input'
p1472
I53
sS'excited'
p1473
I51
sS'cuh'
p1474
I53
sS'customers'
p1475
I53
sS'watermel\xc3\xb2n>'
p1476
I53
sS'queso'
p1477
I53
sS'big'
p1478
I49
sS'couple'
p1479
I53
sS'shitty'
p1480
I53
sS'game'
p1481
I44
sS'bit'
p1482
I52
sS'knock'
p1483
I53
sS'bout'
p1484
I53
sS'lost'
p1485
I53
sS'marian'
p1486
I53
sS'shaped'
p1487
I53
sS'follows'
p1488
I53
sS'fagol'
p1489
I53
sS'popular'
p1490
I53
sS'often'
p1491
I53
sS'fucking'
p1492
I38
sS'spring'
p1493
I50
sS'magnificent'
p1494
I53
sS'back'
p1495
I40
sS'bounce'
p1496
I53
sS'un-curry'
p1497
I52
sS'5'
p1498
I53
sS'fatfuck'
p1499
I53
sS'anna'
p1500
I50
sS'be'
p1501
I27
sS'eating'
p1502
I53
sS'palmer'
p1503
I52
sS'confidence'
p1504
I53
sS'step'
p1505
I53
sS'santa'
p1506
I53
sS'tufenkian'
p1507
I52
sS'bayern'
p1508
I53
sS'intense'
p1509
I53
sS'anything'
p1510
I44
sS'netflix'
p1511
I53
sS'idk'
p1512
I53
sS'germany'
p1513
I53
sS'hatred'
p1514
I53
sS'wanna'
p1515
I42
sS'silence'
p1516
I53
sS'repair'
p1517
I53
sS'garbage'
p1518
I53
sS'into'
p1519
I48
sS'martinez'
p1520
I53
sS'because'
p1521
I53
sS'canal'
p1522
I53
sS'story'
p1523
I53
sS'gaborik'
p1524
I52
sS'spam'
p1525
I53
sS'measured'
p1526
I53
sS'question'
p1527
I52
sS'live'
p1528
I53
sS'long'
p1529
I51
sS'bruh'
p1530
I51
sS'forward'
p1531
I52
sS'bored'
p1532
I51
sS'himself'
p1533
I53
sS'inches'
p1534
I53
sS'poster'
p1535
I53
sS'adjusting'
p1536
I53
sS'boys'
p1537
I53
sS'link'
p1538
I53
sS'hopes'
p1539
I52
sS'inchek'
p1540
I53
sS'penguin'
p1541
I52
sS'laziest'
p1542
I53
sS'fries'
p1543
I53
sS'up'
p1544
I21
sS'us'
p1545
I52
sS'planet'
p1546
I53
sS"tomorrow's"
p1547
I53
sS'planes'
p1548
I52
sS'highlight'
p1549
I53
sS'called'
p1550
I53
sS"'sexual"
p1551
I53
sS'associates'
p1552
I53
sS'takedown'
p1553
I53
sS'ancestors'
p1554
I53
sS'peace'
p1555
I52
sS'bubblegum'
p1556
I53
sS'nick'
p1557
I52
sS'politicians'
p1558
I53
sS'nice'
p1559
I43
sS'lucio'
p1560
I53
sS'booger'
p1561
I53
sS'chocolate'
p1562
I53
sS'ago'
p1563
I53
sS'skydive'
p1564
I53
sS'lana'
p1565
I53
sS'outing'
p1566
I53
sS'holes'
p1567
I53
sS'walked'
p1568
I53
sS'2000'
p1569
I53
sS'hella'
p1570
I52
sS"she's"
p1571
I53
sS'hello'
p1572
I52
sS'once'
p1573
I52
sS'frends'
p1574
I53
sS'goal>>>'
p1575
I53
sS'siktiret'
p1576
I53
sS'go'
p1577
I35
sS'gn'
p1578
I53
sS'flashback'
p1579
I53
sS'chillin'
p1580
I51
sS'turkish'
p1581
I53
sS'furnished'
p1582
I53
sS'peanut'
p1583
I53
sS'young'
p1584
I53
sS'send'
p1585
I53
sS'languages'
p1586
I53
sS'shirak'
p1587
I52
sS'retweets'
p1588
I53
sS'maryland'
p1589
I53
sS'kashi'
p1590
I53
sS'outside'
p1591
I53
sS'account'
p1592
I53
sS'stocker'
p1593
I53
sS'axchi'
p1594
I53
sS'yourselves'
p1595
I53
sS'nausea'
p1596
I53
sS'entire'
p1597
I51
sS'magic'
p1598
I53
sS'marry'
p1599
I53
sS'gettin'
p1600
I53
sS'eve'
p1601
I53
sS'try'
p1602
I53
sS"you'd"
p1603
I52
sS'waking'
p1604
I52
sS'jump'
p1605
I53
sS'video'
p1606
I53
sS'traveling'
p1607
I53
sS"mark's"
p1608
I53
sS'seconds'
p1609
I53
sS'waiting'
p1610
I53
sS'attire'
p1611
I53
sS'dortmund'
p1612
I53
sS'body'
p1613
I53
sS'degree'
p1614
I53
sS'punch'
p1615
I53
sS'eminem'
p1616
I52
sS'desiree'
p1617
I53
sS'radicals'
p1618
I53
sS'les'
p1619
I53
sS'let'
p1620
I49
sS'others'
p1621
I53
sS'ooohhhh'
p1622
I53
sS'great'
p1623
I44
sS'33'
p1624
I53
sS'involved'
p1625
I53
sS'30'
p1626
I52
sS'lumibisou\xe2\x80\xa6'
p1627
I53
sS'34'
p1628
I53
sS'engine'
p1629
I53
sS'makes'
p1630
I50
sS'named'
p1631
I53
sS'shovel'
p1632
I53
sS'win'
p1633
I51
sS"griswold's"
p1634
I53
sS'ligament'
p1635
I53
sS'redo'
p1636
I51
sS'ape'
p1637
I52
sS'use'
p1638
I53
sS'from'
p1639
I36
sS'&'
p1640
I51
sS'$300'
p1641
I52
sS'next'
p1642
I50
sS'few'
p1643
I51
sS'themselves'
p1644
I53
sS'awesome'
p1645
I53
sS'popped'
p1646
I53
sS"up...it's"
p1647
I53
sS'started'
p1648
I51
sS'about'
p1649
I31
sS':-)'
p1650
I53
sS'headstands'
p1651
I53
sS'annoy'
p1652
I53
sS'quifed'
p1653
I53
sS'balls'
p1654
I53
sS'animals'
p1655
I53
sS'this'
p1656
I17
sS'challenge'
p1657
I53
sS'donut'
p1658
I53
sS'anywhere'
p1659
I53
sS'drill'
p1660
I53
sS'of'
p1661
I9
sS'meet'
p1662
I53
sS'tarantino'
p1663
I52
sS'anymore...lyk'
p1664
I53
sS'process'
p1665
I53
sS'lock'
p1666
I53
sS'benz'
p1667
I52
sS'tax'
p1668
I53
sS'high'
p1669
I53
sS'slit'
p1670
I53
sS'something'
p1671
I44
sS'slip'
p1672
I53
sS'blvd'
p1673
I53
sS'serial'
p1674
I53
sS'sit'
p1675
I53
sS'six'
p1676
I52
sS'brian'
p1677
I53
sS'seeds'
p1678
I52
sS'days>>'
p1679
I53
sS'stock'
p1680
I53
sS'outlier'
p1681
I53
sS'stop'
p1682
I47
sS'7-11'
p1683
I53
sS'realized'
p1684
I53
sS'host'
p1685
I53
sS'light'
p1686
I52
sS'lines'
p1687
I53
sS"od'd"
p1688
I52
sS'allow'
p1689
I53
sS'fuckup'
p1690
I53
sS'suprised'
p1691
I53
sS'maaaan'
p1692
I53
sS"won't"
p1693
I53
sS'looks'
p1694
I53
sS'mentioned'
p1695
I53
sS'horny'
p1696
I53
sS"wife's"
p1697
I53
sS'perfect'
p1698
I51
sS'la'
p1699
I50
sS'banquet'
p1700
I53
sS'degrees'
p1701
I53
sS'pop-up'
p1702
I52
sS'2014'
p1703
I53
sS'holiday'
p1704
I53
sS'dad'
p1705
I50
sS'dam'
p1706
I53
sS'material'
p1707
I53
sS'runs'
p1708
I52
sS'dat'
p1709
I51
sS'cutting'
p1710
I53
sS'oxormi'
p1711
I53
sS'sonata'
p1712
I53
sS'hands'
p1713
I52
sS'front'
p1714
I53
sS'day'
p1715
I35
sS'shiet'
p1716
I53
sS'wrangler'
p1717
I53
sS'kattt'
p1718
I53
sS'lowride'
p1719
I53
sS'slide'
p1720
I52
sS'truth'
p1721
I53
sS'active-er'
p1722
I53
sS'nationals'
p1723
I53
sS'doing'
p1724
I48
sS'donda'
p1725
I53
sS'related'
p1726
I53
sS'books'
p1727
I53
sS'measure'
p1728
I53
sS'82'
p1729
I53
sS'our'
p1730
I51
sS'80'
p1731
I53
sS'3:00am'
p1732
I53
sS'popping'
p1733
I53
sS'out'
p1734
I22
sS'gandon'
p1735
I53
sS'bag'
p1736
I53
sS'disgusts'
p1737
I53
sS'barley'
p1738
I53
sS'hilarious'
p1739
I53
sS'cause'
p1740
I42
sS'red'
p1741
I51
sS'willialien'
p1742
I53
sS'shut'
p1743
I53
sS'wines'
p1744
I53
sS'activity'
p1745
I53
sS'molly'
p1746
I53
sS'completely'
p1747
I53
sS'craving'
p1748
I53
sS'scary'
p1749
I53
sS'cait'
p1750
I53
sS'could'
p1751
I45
sS'keep'
p1752
I52
sS'conversation'
p1753
I53
sS'birthday'
p1754
I50
sS'cain'
p1755
I53
sS'repeats'
p1756
I53
sS'asile'
p1757
I53
sS'finest'
p1758
I53
sS'scene'
p1759
I53
sS'embarrassed'
p1760
I53
sS'bitch'
p1761
I53
sS'such'
p1762
I48
sS'owner'
p1763
I53
sS'new"'
p1764
I53
sS'hehe'
p1765
I51
sS"you're"
p1766
I30
sS'start'
p1767
I53
sS'bears'
p1768
I53
sS'harur'
p1769
I53
sS'their'
p1770
I49
sS'jingle'
p1771
I53
sS'boil'
p1772
I53
sS'gummy'
p1773
I53
sS'2-1'
p1774
I53
sS'shelf'
p1775
I53
sS'trifflin'
p1776
I53
sS'depressing'
p1777
I52
sS'gotchu'
p1778
I53
sS'boring'
p1779
I52
sS'anthonyonc\xc3\x89'
p1780
I53
sS'youtube'
p1781
I53
sS'flashed'
p1782
I53
sS'loves'
p1783
I52
sS'bet'
p1784
I53
sS'function'
p1785
I53
sS'false'
p1786
I53
sS'beatin'
p1787
I53
sS'tonight'
p1788
I49
sS'comfortably'
p1789
I53
sS'have'
p1790
I25
sS'need'
p1791
I41
sS'waken'
p1792
I53
sS'apparently'
p1793
I53
sS'linked'
p1794
I53
sS'bastard'
p1795
I53
sS'min'
p1796
I52
sS'soad'
p1797
I52
sS'able'
p1798
I52
sS'congratz'
p1799
I53
sS'mix'
p1800
I53
sS'which'
p1801
I53
sS'honestly'
p1802
I52
sS'='
p1803
I50
sS'coke'
p1804
I53
sS'who'
p1805
I40
sS'cracking'
p1806
I53
sS'why'
p1807
I37
sS'face'
p1808
I50
sS'looked'
p1809
I52
sS'kunem'
p1810
I52
sS"you'll"
p1811
I52
sS'macaroons'
p1812
I53
sS'pictures'
p1813
I53
sS'skunk'
p1814
I52
sS'ho'
p1815
I53
sS'impression'
p1816
I53
sS'recess'
p1817
I50
sS'text'
p1818
I52
sS'anyway'
p1819
I53
sS'lloyd'
p1820
I53
sS'chicken'
p1821
I53
sS'tire'
p1822
I53
sS'winner'
p1823
I53
sS'should'
p1824
I50
sS'brighter'
p1825
I53
sS"there's"
p1826
I50
sS'satan'
p1827
I52
sS'local'
p1828
I53
sS'hope'
p1829
I50
sS'cube'
p1830
I51
sS'watching'
p1831
I52
sS'beat'
p1832
I53
sS'goodmornin'
p1833
I52
sS'lucky'
p1834
I53
sS'tbh'
p1835
I51
sS'ones'
p1836
I53
sS'words'
p1837
I53
sS'bead'
p1838
I53
sS'chips'
p1839
I53
sS'donate'
p1840
I53
sS'trucks'
p1841
I53
sS'h'
p1842
I53
sS'rapper'
p1843
I53
sS'stuff'
p1844
I52
sS'she'
p1845
I52
sS'camels'
p1846
I53
sS'mercedes'
p1847
I52
sS'calls'
p1848
I53
sS'grab'
p1849
I53
sS'(glendale)'
p1850
I27
sS'europe'
p1851
I53
sS'ogre'
p1852
I53
sS'acquired'
p1853
I53
sS'we'
p1854
I40
sS'yeaaaaa'
p1855
I53
sS'computer'
p1856
I53
sS'desperate'
p1857
I53
sS'jarhead'
p1858
I53
sS'closer'
p1859
I52
sS'turks'
p1860
I53
sS'nightmare'
p1861
I53
sS'genius'
p1862
I52
sS'closed'
p1863
I53
sS'routine'
p1864
I53
sS'pants'
p1865
I53
sS'ends'
p1866
I53
sS'joy'
p1867
I53
sS'kicking'
p1868
I53
sS'job'
p1869
I50
sS'merry'
p1870
I51
sS'hobo'
p1871
I53
sS'david'
p1872
I53
sS'joke'
p1873
I52
sS"he's"
p1874
I51
sS'etc'
p1875
I52
sS'figures'
p1876
I51
sS'jersey'
p1877
I52
sS'relevant'
p1878
I53
sS'tuesday'
p1879
I52
sS'makin'
p1880
I52
sS'walk'
p1881
I50
sS'walt'
p1882
I52
sS'denis'
p1883
I53
sS'laugh'
p1884
I50
sS'kings'
p1885
I44
sS'[pic]'
p1886
I53
sS'ad'
p1887
I53
sS'yay'
p1888
I51
sS'addition'
p1889
I53
sS"it's"
p1890
I34
sS'literal'
p1891
I53
sS'drank'
p1892
I52
sS'slowly'
p1893
I53
sS"it'd"
p1894
I53
sS'define'
p1895
I53
sS'puberty'
p1896
I52
sS'hmu'
p1897
I52
sS'wsup'
p1898
I53
sS'ovechkin'
p1899
I53
sS'general'
p1900
I53
sS'spain'
p1901
I53
sS'bye'
p1902
I53
sS'laser'
p1903
I53
sS'hesitant'
p1904
I53
sS'coals'
p1905
I53
sS'will'
p1906
I46
sS'hahaha'
p1907
I53
sS'wild'
p1908
I52
sS'overreacted'
p1909
I53
sS'shavos'
p1910
I53
sS'site'
p1911
I53
sS'pluck'
p1912
I53
sS'avi'
p1913
I52
sS'bucks'
p1914
I51
sS'lambs'
p1915
I53
sS'fkn'
p1916
I53
sS'unite'
p1917
I53
sS'campus'
p1918
I53
sS'speaker'
p1919
I53
sS'film'
p1920
I53
sS'inch'
p1921
I53
sS'party'
p1922
I53
sS'gets'
p1923
I51
sS'difficult'
p1924
I53
sS'injured'
p1925
I53
sS'ball'
p1926
I53
sS'moyes'
p1927
I53
sS'selfish'
p1928
I53
sS'effect'
p1929
I53
sS'fucked'
p1930
I45
sS'pull'
p1931
I53
sS'retard'
p1932
I53
sS'off'
p1933
I44
sS'center'
p1934
I53
sS'i'
p1935
I1
sS'well'
p1936
I44
sS'thought'
p1937
I49
sS'retiring'
p1938
I53
sS'english'
p1939
I51
sS'coaster'
p1940
I53
sS'less'
p1941
I50
sS'cries'
p1942
I53
sS'happiness'
p1943
I53
sS'schleep'
p1944
I53
sS'nicks'
p1945
I53
sS'bullshit'
p1946
I51
sS'crack'
p1947
I53
sS'twerk'
p1948
I53
sS'homework'
p1949
I47
sS'government'
p1950
I52
sS"who's"
p1951
I52
sS'>'
p1952
I53
sS'five'
p1953
I53
sS'know'
p1954
I35
sS'facial'
p1955
I53
sS'like'
p1956
I18
sS'success'
p1957
I53
sS'chairs'
p1958
I52
sS'garage'
p1959
I53
sS'lose'
p1960
I53
sS'become'
p1961
I52
sS'page'
p1962
I52
sS'replacement'
p1963
I53
sS'nigga'
p1964
I52
sS'usa"'
p1965
I53
sS'twitter'
p1966
I36
sS'alive'
p1967
I53
sS'hair'
p1968
I42
sS'shet'
p1969
I53
sS"why'd"
p1970
I53
sS'home'
p1971
I49
sS'scares'
p1972
I53
sS'happens'
p1973
I51
sS'lead'
p1974
I53
sS'literally'
p1975
I51
sS'ese'
p1976
I53
sS'does'
p1977
I49
sS'passion'
p1978
I53
sS'schedule'
p1979
I52
sS'murdered'
p1980
I53
sS'sister'
p1981
I52
sS'nutella*'
p1982
I53
sS'getting'
p1983
I47
sS'flake'
p1984
I53
sS'swear'
p1985
I52
sS'owl'
p1986
I53
sS'own'
p1987
I52
sS'please.stop.talking'
p1988
I53
sS'socks'
p1989
I52
sS'weather'
p1990
I53
sS'artists'
p1991
I53
sS'pointless'
p1992
I53
sS'mere'
p1993
I53
sS'vai'
p1994
I53
sS'savin'
p1995
I53
sS'kidding'
p1996
I53
sS'overtime'
p1997
I53
sS'vay'
p1998
I52
sS'biggest'
p1999
I52
sS'cousinnn'
p2000
I53
sS'bagged'
p2001
I53
sS'cricket'
p2002
I53
sS'buy'
p2003
I51
sS"i've"
p2004
I48
sS'hp'
p2005
I53
sS'bitches'
p2006
I53
sS'hw'
p2007
I52
sS'but'
p2008
I29
sS'volume'
p2009
I53
sS'neutral'
p2010
I53
sS'hi'
p2011
I51
sS'goals'
p2012
I53
sS'hm'
p2013
I53
sS'ha'
p2014
I50
sS'eat'
p2015
I51
sS'he'
p2016
I43
sS'recess)'
p2017
I50
sS'made'
p2018
I48
sS'*spits'
p2019
I53
sS'wish'
p2020
I46
sS'scroll'
p2021
I53
sS'd.d.s'
p2022
I52
sS'cake'
p2023
I53
sS'minutes'
p2024
I53
sS'ooooooooooooooooooo'
p2025
I53
sS'chip'
p2026
I53
sS'advertisement'
p2027
I53
sS'pic'
p2028
I52
sS'mcm'
p2029
I53
sS'3-0'
p2030
I53
sS'happen'
p2031
I51
sS'balcony'
p2032
I53
sS'47'
p2033
I53
sS'45'
p2034
I53
sS'edgar*'
p2035
I53
sS'virtual'
p2036
I53
sS'lately'
p2037
I53
sS'book'
p2038
I52
sS'sick'
p2039
I47
sS'zhor'
p2040
I48
sS'monday'
p2041
I53
sS'chance'
p2042
I53
sS'ariana'
p2043
I53
sS'friends'
p2044
I50
sS'goin'
p2045
I53
sS'ranks'
p2046
I53
sS'baker'
p2047
I53
sS'entertainment'
p2048
I53
sS'earthquake'
p2049
I53
sS'%95'
p2050
I53
sS'understand'
p2051
I53
s.