(dp0
S''
p1
I9
sS'essay'
p2
I31
sS'all'
p3
I24
sS'coach'
p4
I31
sS':('
p5
I32
sS':)'
p6
I32
sS'nail.tears'
p7
I32
sS'skip'
p8
I32
sS'hampton'
p9
I32
sS'month'
p10
I31
sS'baby'
p11
I30
sS'sleep'
p12
I31
sS'ice'
p13
I32
sS'go'
p14
I24
sS'follow'
p15
I32
sS'hate'
p16
I27
sS'strangers'
p17
I32
sS"up'"
p18
I32
sS'father'
p19
I32
sS'riots'
p20
I32
sS'to'
p21
I4
sS'finally'
p22
I32
sS'lord'
p23
I32
sS'slowest'
p24
I32
sS'mascot'
p25
I32
sS'worth'
p26
I32
sS'town'
p27
I32
sS':{{'
p28
I32
sS'very'
p29
I32
sS'fat'
p30
I32
sS'stocker'
p31
I32
sS'surprise'
p32
I32
sS'telling'
p33
I32
sS'school'
p34
I5
sS'heaven'
p35
I32
sS'staples'
p36
I32
sS'cause'
p37
I32
sS'wednesday'
p38
I31
sS'other\xe2\x80\xa6'
p39
I32
sS'try'
p40
I32
sS'team'
p41
I30
sS'small'
p42
I32
sS'guy'
p43
I31
sS'tru'
p44
I32
sS'yall'
p45
I32
sS"i'll"
p46
I32
sS'sex"'
p47
I32
sS'work'
p48
I32
sS'titled'
p49
I32
sS'tired'
p50
I32
sS'yourself'
p51
I32
sS'waking'
p52
I32
sS'second'
p53
I32
sS'fabulous'
p54
I32
sS'video'
p55
I31
sS'7th'
p56
I32
sS'2million'
p57
I32
sS'others)'
p58
I31
sS'even'
p59
I31
sS'what'
p60
I28
sS'+'
p61
I32
sS'payday'
p62
I32
sS'melo'
p63
I32
sS'new'
p64
I31
sS'officially'
p65
I31
sS'disney'
p66
I30
sS'(glendale'
p67
I10
sS'apartments)'
p68
I32
sS'hungover'
p69
I32
sS'never'
p70
I31
sS'drew'
p71
I32
sS'hours'
p72
I32
sS'let'
p73
I32
sS'others'
p74
I32
sS'alone'
p75
I32
sS'along'
p76
I32
sS'teacher'
p77
I32
sS'change'
p78
I31
sS'dry'
p79
I32
sS'boy'
p80
I31
sS'great'
p81
I28
sS'kids'
p82
I32
sS'my'
p83
I13
sS'k'
p84
I32
sS'30'
p85
I32
sS'experience'
p86
I32
sS'leaving'
p87
I32
sS'stomachs'
p88
I32
sS'ralphs)'
p89
I32
sS'pick'
p90
I32
sS"i'm"
p91
I2
sS'glenoaks'
p92
I32
sS'love'
p93
I27
sS'hahaah'
p94
I32
sS'family'
p95
I32
sS'win'
p96
I32
sS'feelings'
p97
I32
sS'unis'
p98
I32
sS'everybody'
p99
I32
sS'use'
p100
I32
sS'from'
p101
I29
sS'working'
p102
I32
sS'iced'
p103
I32
sS'intense'
p104
I32
sS'>:)'
p105
I32
sS'live'
p106
I32
sS'pero'
p107
I32
sS'tears'
p108
I32
sS'next'
p109
I31
sS'ca)'
p110
I10
sS'call'
p111
I31
sS'6'
p112
I31
sS'type'
p113
I32
sS'tell'
p114
I32
sS'today'
p115
I28
sS'more'
p116
I28
sS'door'
p117
I32
sS'holy'
p118
I32
sS'started'
p119
I32
sS'brings'
p120
I32
sS'acceptable'
p121
I32
sS'haha'
p122
I32
sS'it'
p123
I20
sS'train'
p124
I32
sS"ain't"
p125
I32
sS'broke'
p126
I31
sS'known'
p127
I32
sS'sorry'
p128
I32
sS'glad'
p129
I32
sS'must'
p130
I32
sS'me'
p131
I14
sS'high'
p132
I32
sS'keeping'
p133
I32
sS'1992'
p134
I32
sS'room'
p135
I32
sS'hour'
p136
I32
sS'this'
p137
I20
sS'car'
p138
I30
sS'oh'
p139
I31
sS'mi'
p140
I32
sS"airmax's"
p141
I32
sS'glendale)'
p142
I32
sS'can'
p143
I25
sS'v'
p144
I32
sS'gossiping'
p145
I32
sS'meet'
p146
I32
sS'didnt'
p147
I31
sS'history'
p148
I32
sS'crazy'
p149
I32
sS'months'
p150
I32
sS'embarrassing'
p151
I32
sS'zinsco'
p152
I32
sS'give'
p153
I32
sS'pie'
p154
I32
sS'half-marathon'
p155
I32
sS'fuck'
p156
I29
sS'states'
p157
I32
sS'something'
p158
I32
sS'want'
p159
I27
sS'occur'
p160
I32
sS'/'
p161
I32
sS'needs'
p162
I32
sS'rather'
p163
I31
sS'means'
p164
I31
sS'how'
p165
I28
sS'hot'
p166
I31
sS'interview'
p167
I32
sS'<---you'
p168
I32
sS'beach'
p169
I32
sS'pizza'
p170
I32
sS'staying'
p171
I32
sS'express'
p172
I32
sS'laters*'
p173
I32
sS'may'
p174
I30
sS'stop'
p175
I32
sS'after'
p176
I29
sS'spot'
p177
I32
sS'fart'
p178
I32
sS'stario'
p179
I32
sS'birthday'
p180
I32
sS'coming'
p181
I30
sS'such'
p182
I31
sS'suck'
p183
I32
sS'guys'
p184
I32
sS'avengers'
p185
I32
sS'man'
p186
I30
sS'a'
p187
I12
sS'roses'
p188
I32
sS'danny'
p189
I32
sS'remember'
p190
I32
sS'wanna'
p191
I30
sS'counter'
p192
I32
sS'lines'
p193
I32
sS'st'
p194
I32
sS'provide'
p195
I32
sS'everyone'
p196
I31
sS'grande'
p197
I32
sS'goodbye'
p198
I32
sS'fan'
p199
I32
sS'dream'
p200
I30
sS'playing'
p201
I32
sS"that's"
p202
I32
sS'termin\xc3\xb3'
p203
I32
sS'comerme'
p204
I32
sS'help'
p205
I32
sS'comiendo'
p206
I32
sS"don't"
p207
I27
sS'over'
p208
I31
sS"won't"
p209
I32
sS'quake'
p210
I31
sS'replies'
p211
I32
sS'hell'
p212
I32
sS'still'
p213
I28
sS'homies..\xe2\x80\xa6'
p214
I32
sS'mayor'
p215
I32
sS'beside'
p216
I32
sS'\xe2\x98\xba\xe2\x98\xba'
p217
I32
sS'thank'
p218
I30
sS'la'
p219
I30
sS'interesting'
p220
I32
sS"barista'a"
p221
I32
sS'amazing'
p222
I31
sS'[pic]'
p223
I32
sS'late'
p224
I30
sS'window'
p225
I31
sS'degrees'
p226
I32
sS'spoiling'
p227
I32
sS'isaac'
p228
I32
sS'weeks'
p229
I31
sS'holiday'
p230
I32
sS'<'
p231
I32
sS'happened'
p232
I32
sS'dad'
p233
I29
sS'then'
p234
I31
sS'coffee'
p235
I30
sS'good'
p236
I30
sS'views'
p237
I32
sS'food'
p238
I29
sS'safe'
p239
I32
sS'maxxxxx'
p240
I32
sS'break'
p241
I32
sS'starbucks'
p242
I15
sS'\xe2\x98\xba\xef\xb8\x8f'
p243
I31
sS'not'
p244
I28
sS'now'
p245
I27
sS'day'
p246
I26
sS'pregnant'
p247
I32
sS'always'
p248
I32
sS'drop'
p249
I32
sS'suprise'
p250
I32
sS'choir'
p251
I29
sS'weather'
p252
I32
sS'victory'
p253
I32
sS'found'
p254
I31
sS'luck'
p255
I32
sS'el'
p256
I32
sS'ankles'
p257
I32
sS'en'
p258
I32
sS'series'
p259
I32
sS'bout'
p260
I32
sS'snaps'
p261
I32
sS'bowls'
p262
I32
sS'forgot'
p263
I32
sS'out'
p264
I24
sS'rt'
p265
I31
sS'living'
p266
I32
sS'missed'
p267
I32
sS'candlelight'
p268
I30
sS'god'
p269
I32
sS'looking'
p270
I32
sS'bday'
p271
I32
sS'bae'
p272
I32
sS'7'
p273
I32
sS'got'
p274
I31
sS'rn'
p275
I31
sS'ref'
p276
I32
sS'math'
p277
I28
sS'drink'
p278
I31
sS'bass'
p279
I32
sS'comeeeeeee'
p280
I32
sS'motherfucker'
p281
I32
sS'free'
p282
I32
sS'whammy'
p283
I32
sS'release'
p284
I32
sS'bumps'
p285
I32
sS'cookie'
p286
I32
sS'vacations'
p287
I32
sS'ask'
p288
I32
sS'mma'
p289
I32
sS'training'
p290
I32
sS'ate'
p291
I32
sS'could'
p292
I30
sS'sicker'
p293
I32
sS'thing'
p294
I32
sS'place'
p295
I32
sS'soda'
p296
I32
sS'think'
p297
I30
sS'south'
p298
I32
sS'first'
p299
I31
sS'montessori'
p300
I8
sS'already'
p301
I32
sS'dont'
p302
I32
sS'hearsay'
p303
I32
sS'feel'
p304
I32
sS'perecer'
p305
I32
sS'owned'
p306
I32
sS'one'
p307
I28
sS'done'
p308
I32
sS'lol'
p309
I29
sS'another'
p310
I32
sS'says'
p311
I32
sS'blows'
p312
I32
sS'miss'
p313
I32
sS'tomorrow'
p314
I32
sS"you're"
p315
I30
sS"there's"
p316
I32
sS'their'
p317
I31
sS'jafjfasdklfja'
p318
I32
sS'least'
p319
I32
sS'dillon'
p320
I30
sS'2'
p321
I29
sS'too'
p322
I29
sS'final'
p323
I31
sS'store'
p324
I32
sS'craziest'
p325
I32
sS'relationship'
p326
I32
sS'that'
p327
I19
sS'huh'
p328
I32
sS'dentist'
p329
I32
sS'part'
p330
I31
sS'bieber'
p331
I32
sS'overwhelming'
p332
I32
sS"what's"
p333
I32
sS'11'
p334
I32
sS'10'
p335
I31
sS'ratchets'
p336
I31
sS'compliments'
p337
I32
sS'lmao'
p338
I30
sS'gotta'
p339
I32
sS'shower'
p340
I32
sS'matter'
p341
I32
sS'greg'
p342
I32
sS'supposed'
p343
I32
sS'maybe'
p344
I31
sS'amount'
p345
I32
sS'feeling'
p346
I32
sS'ousted'
p347
I32
sS'and'
p348
I14
sS'outta'
p349
I32
sS'clip'
p350
I32
sS'"sure"'
p351
I32
sS'mind'
p352
I30
sS'ginger'
p353
I32
sS'tonight'
p354
I31
sS'talking'
p355
I31
sS'say'
p356
I32
sS'have'
p357
I25
sS'need'
p358
I30
sS'mins'
p359
I31
sS'saw'
p360
I32
sS'worst'
p361
I32
sS'congrats'
p362
I31
sS"i've"
p363
I32
sS'click'
p364
I32
sS'also'
p365
I31
sS'which'
p366
I32
sS'online'
p367
I32
sS'so'
p368
I15
sS'registered'
p369
I32
sS"'09"
p370
I32
sS'hoover'
p371
I32
sS'manor'
p372
I32
sS'who'
p373
I31
sS'rehearsal'
p374
I31
sS'complexes'
p375
I32
sS'70'
p376
I32
sS'awe'
p377
I31
sS'extremely'
p378
I32
sS'why'
p379
I30
sS'forever'
p380
I32
sS'edc'
p381
I32
sS'viciously'
p382
I32
sS'proud'
p383
I30
sS'stronger'
p384
I32
sS'tooth'
p385
I32
sS'kunem'
p386
I32
sS'definitely'
p387
I32
sS'aunt'
p388
I32
sS'link'
p389
I32
sS'indo'
p390
I32
sS'away'
p391
I32
sS'fact'
p392
I32
sS'saying'
p393
I31
sS'ugh'
p394
I29
sS'siktir'
p395
I32
sS'show'
p396
I32
sS'queen'
p397
I32
sS'ftw'
p398
I32
sS'hyped'
p399
I32
sS'earth'
p400
I32
sS'sharks'
p401
I31
sS'flowers'
p402
I32
sS'aaaaaaaaaahhhh'
p403
I32
sS'\xe2\x9c\x8b'
p404
I31
sS'with'
p405
I24
sS'behind'
p406
I32
sS'should'
p407
I31
sS'only'
p408
I31
sS'going'
p409
I28
sS'black'
p410
I32
sS'hockey'
p411
I32
sS'dysfunctional'
p412
I32
sS'wasssap'
p413
I32
sS'8'
p414
I31
sS'chipotle'
p415
I32
sS'boyle'
p416
I32
sS'do'
p417
I29
sS'his'
p418
I30
sS'handle'
p419
I32
sS'get'
p420
I25
sS'beat'
p421
I31
sS'de'
p422
I31
sS'watch'
p423
I32
sS'bear'
p424
I32
sS'da'
p425
I32
sS'bean'
p426
I32
sS'him'
p427
I32
sS'stranger'
p428
I32
sS'morning'
p429
I30
sS'ganas'
p430
I32
sS'caramel'
p431
I32
sS'she'
p432
I31
sS'glendale'
p433
I6
sS'through'
p434
I32
sS'where'
p435
I32
sS'lutheran'
p436
I30
sS'w/'
p437
I20
sS'nedtrabencon'
p438
I32
sS'sex'
p439
I32
sS'lyff'
p440
I32
sS'see'
p441
I32
sS'college'
p442
I32
sS'are'
p443
I29
sS'fail'
p444
I32
sS'best'
p445
I32
sS'wonder'
p446
I32
sS'jumped'
p447
I32
sS'wow'
p448
I32
sS'genius'
p449
I32
sS'3'
p450
I29
sS'won'
p451
I32
sS'luh'
p452
I32
sS'goaaaaallll'
p453
I32
sS'we'
p454
I28
sS'omg'
p455
I30
sS'joy'
p456
I32
sS'night!!!!:)))'
p457
I32
sS'were'
p458
I32
sS'eatery)'
p459
I32
sS'here'
p460
I30
sS'wtf'
p461
I32
sS'condo'
p462
I32
sS'come'
p463
I30
sS'legit'
p464
I32
sS'improve'
p465
I32
sS'both'
p466
I32
sS'cos'
p467
I32
sS'last'
p468
I28
sS'many'
p469
I32
sS'ill'
p470
I32
sS"he's"
p471
I32
sS'job'
p472
I32
sS'dough'
p473
I32
sS'april'
p474
I32
sS'faces'
p475
I32
sS"can't"
p476
I30
sS'armenian'
p477
I31
sS'jj'
p478
I32
sS'point'
p479
I32
sS'seems'
p480
I32
sS'walk'
p481
I32
sS'hers'
p482
I32
sS'likes'
p483
I32
sS'church'
p484
I32
sS'kings'
p485
I31
sS'ether'
p486
I32
sS'better'
p487
I31
sS'mamat'
p488
I32
sS'yay'
p489
I32
sS"it's"
p490
I20
sS'fa\xe2\x80\x9d'
p491
I32
sS'venia'
p492
I32
sS'been'
p493
I31
sS'beer'
p494
I32
sS'much'
p495
I30
sS'damn'
p496
I30
sS'noel'
p497
I32
sS'woke'
p498
I31
sS'define'
p499
I32
sS'wants'
p500
I32
sS'life'
p501
I31
sS'gay'
p502
I31
sS'firefighters'
p503
I32
sS'starbucks.i'
p504
I32
sS'hits'
p505
I32
sS'mastered'
p506
I32
sS'(1200'
p507
I32
sS'church)'
p508
I31
sS'chill'
p509
I32
sS'paying'
p510
I31
sS'randomly'
p511
I32
sS'2016'
p512
I32
sS'look'
p513
I32
sS'these'
p514
I31
sS'"ether"'
p515
I32
sS'n'
p516
I32
sS'will'
p517
I30
sS'cast'
p518
I31
sS'near'
p519
I32
sS'cancelled'
p520
I32
sS'ktla'
p521
I32
sS'taking'
p522
I32
sS'coolest'
p523
I32
sS'theres'
p524
I32
sS'absents'
p525
I32
sS'is'
p526
I17
sS'"i'
p527
I32
sS'bros'
p528
I32
sS'sleeping'
p529
I32
sS'couples'
p530
I32
sS'in'
p531
I16
sS'ready'
p532
I32
sS'ave'
p533
I32
sS'farsi'
p534
I32
sS'gods'
p535
I32
sS'if'
p536
I29
sS'canvases'
p537
I32
sS'different'
p538
I32
sS'make'
p539
I30
sS'funniest'
p540
I32
sS'same'
p541
I29
sS'any'
p542
I32
sS'gentlemen'
p543
I32
sS'ya'
p544
I32
sS'wizards'
p545
I32
sS'gets'
p546
I32
sS'killed'
p547
I32
sS'week'
p548
I31
sS'used'
p549
I32
sS'in>>>'
p550
I32
sS'assist'
p551
I32
sS'yesterday'
p552
I32
sS'hand'
p553
I32
sS'fridays'
p554
I32
sS'kim'
p555
I32
sS'changing'
p556
I32
sS'l.a'
p557
I32
sS'understand'
p558
I32
sS'kid'
p559
I31
sS'early'
p560
I32
sS'center'
p561
I31
sS'i'
p562
I3
sS'well'
p563
I32
sS'burgers'
p564
I31
sS'comes'
p565
I32
sS'mother'
p566
I31
sS'the'
p567
I7
sS'con'
p568
I32
sS'left'
p569
I31
sS'watching'
p570
I32
sS'they'
p571
I26
sS'just'
p572
I22
sS'being'
p573
I32
sS'money'
p574
I31
sS'lmfaoooo'
p575
I32
sS'kill'
p576
I32
sS'thanks'
p577
I29
sS'yes'
p578
I28
sS'waffles'
p579
I32
sS'speed'
p580
I32
sS'cut'
p581
I31
sS'thankfully'
p582
I32
sS'omfg'
p583
I32
sS"we've"
p584
I32
sS'had'
p585
I30
sS'bullshit'
p586
I32
sS'shout'
p587
I32
sS'parents'
p588
I32
sS'4'
p589
I32
sS'easy'
p590
I32
sS'starbucks)'
p591
I32
sS'has'
p592
I30
sS'gave'
p593
I31
sS'real'
p594
I32
sS'march'
p595
I32
sS'big'
p596
I32
sS"who's"
p597
I32
sS'splenda'
p598
I32
sS'tmrw'
p599
I32
sS'game'
p600
I31
sS'know'
p601
I26
sS'window"'
p602
I32
sS'immediately'
p603
I32
sS'you'
p604
I14
sS'dare'
p605
I32
sS'trash'
p606
I32
sS'like'
p607
I23
sS'gift'
p608
I32
sS'smell'
p609
I32
sS'specific'
p610
I32
sS't'
p611
I32
sS'night'
p612
I30
sS'because'
p613
I29
sS'old'
p614
I32
sS'people'
p615
I28
sS'fucking'
p616
I29
sS'spring'
p617
I31
sS'back'
p618
I30
sS'pacific'
p619
I11
sS'fools'
p620
I32
sS'home'
p621
I32
sS'snoring'
p622
I32
sS'friend'
p623
I32
sS'for'
p624
I15
sS'comments'
p625
I32
sS':-}'
p626
I32
sS'laughing'
p627
I32
sS'be'
p628
I18
sS'power'
p629
I32
sS'lmfao'
p630
I32
sS'nails'
p631
I31
sS'lose'
p632
I32
sS'empty'
p633
I32
sS's/o'
p634
I32
sS'hectic'
p635
I32
sS'putting'
p636
I32
sS'losing'
p637
I32
sS'post'
p638
I32
sS'embarassing'
p639
I32
sS'super'
p640
I32
sS'by'
p641
I32
sS'earlier'
p642
I32
sS'panel'
p643
I32
sS'hearing'
p644
I32
sS'on'
p645
I24
sS'about'
p646
I29
sS'gifts'
p647
I32
sS'would'
p648
I32
sS'anything'
p649
I31
sS'getting'
p650
I29
sS'of'
p651
I23
sS'&'
p652
I25
sS'favorite'
p653
I32
sS'inviting'
p654
I32
sS'graduation'
p655
I32
sS'awwww'
p656
I32
sS'swear'
p657
I31
sS'idk'
p658
I32
sS'hahahah'
p659
I32
sS'or'
p660
I29
sS'wontons'
p661
I32
sS'kinda'
p662
I32
sS'jumpin'
p663
I32
sS'bound'
p664
I32
sS'ppl'
p665
I32
sS'down'
p666
I30
sS'right'
p667
I30
sS'champ'
p668
I31
sS'"jumping'
p669
I32
sS'elementary'
p670
I8
sS'heckkkkkk'
p671
I32
sS'your'
p672
I29
sS"'shut"
p673
I32
sS'unas'
p674
I32
sS'fast'
p675
I32
sS'her'
p676
I32
sS'there'
p677
I30
sS'hey'
p678
I31
sS'long'
p679
I30
sS'class'
p680
I28
sS'start'
p681
I30
sS'drank'
p682
I32
sS"we're"
p683
I32
sS'way'
p684
I32
sS'was'
p685
I17
sS'happy'
p686
I31
sS'invite'
p687
I32
sS'believe'
p688
I32
sS'562'
p689
I32
sS'ahhh'
p690
I32
sS'but'
p691
I25
sS'hear'
p692
I31
sS'line'
p693
I29
sS'trying'
p694
I30
sS'true'
p695
I30
sS'he'
p696
I26
sS"they're"
p697
I32
sS'made'
p698
I27
sS'dominican'
p699
I32
sS"wasn't"
p700
I32
sS'wish'
p701
I30
sS'official'
p702
I31
sS'up'
p703
I21
sS'us'
p704
I32
sS'ur'
p705
I32
sS'bbq'
p706
I31
sS"ryan's"
p707
I32
sS'sometimes'
p708
I32
sS'paint'
p709
I32
sS'classic'
p710
I31
sS'certain'
p711
I32
sS'year'
p712
I32
sS'am'
p713
I30
sS'al'
p714
I31
sS'mundo'
p715
I31
sS'an'
p716
I29
sS'meanwhile'
p717
I32
sS'as'
p718
I30
sS'salem'
p719
I30
sS'at'
p720
I1
sS'prayer'
p721
I32
sS'shit'
p722
I29
sS'cream'
p723
I31
sS'again'
p724
I31
sS'no'
p725
I28
sS'when'
p726
I24
sS'afford'
p727
I32
sS'pasadena'
p728
I32
sS'5'
p729
I32
sS'holding'
p730
I32
sS'mnths'
p731
I32
sS'sharis'
p732
I31
sS'really'
p733
I29
sS'scandal'
p734
I32
sS'trip!!!:)'
p735
I32
sS'nice'
p736
I32
sS'junk'
p737
I32
sS"'s"
p738
I32
sS"excuses/story's"
p739
I32
sS'work\xe2\x80\xa6'
p740
I32
sS'felt'
p741
I31
sS'problems'
p742
I32
sS'=('
p743
I32
sS'stay'
p744
I32
sS"let's"
p745
I32
sS'accounts'
p746
I32
sS'song'
p747
I32
sS'friends'
p748
I31
sS'ago'
p749
I32
sS'tweeting'
p750
I32
sS'happening'
p751
I32
sS'age'
p752
I32
sS'youtube'
p753
I32
sS'hello'
p754
I32
sS'u'
p755
I29
sS'came'
p756
I32
sS'time'
p757
I25
sS'far'
p758
I32
sS'serious'
p759
I32
sS'starting'
p760
I32
sS'having'
p761
I31
s.