(dp0
S''
p1
I2
sS'edc'
p2
I17
sS'all'
p3
I11
sS':/'
p4
I17
sS':)'
p5
I17
sS'go'
p6
I12
sS'buddy'
p7
I16
sS'religion'
p8
I17
sS'tv'
p9
I17
sS'tweet'
p10
I17
sS'reh'
p11
I17
sS'to'
p12
I2
sS'..pointer'
p13
I17
sS'alberto'
p14
I17
sS'sorry'
p15
I17
sS'olympics.awesome'
p16
I17
sS'very'
p17
I16
sS'vegan'
p18
I17
sS'gracias'
p19
I17
sS'every'
p20
I17
sS'mickeys'
p21
I17
sS'did'
p22
I17
sS'brother'
p23
I16
sS'forgets'
p24
I17
sS'samurai'
p25
I17
sS'red'
p26
I17
sS'team'
p27
I15
sS'guy'
p28
I17
sS'enjoy'
p29
I16
sS'sauuuuuz'
p30
I17
sS'says'
p31
I17
sS'regret'
p32
I17
sS'me"'
p33
I17
sS'anyyyyyy'
p34
I17
sS'\xd0\xbd\xd0\xb0\xd1\x81'
p35
I17
sS'sign'
p36
I17
sS'video'
p37
I15
sS'honors'
p38
I17
sS'even'
p39
I17
sS'what'
p40
I15
sS'*difference'
p41
I17
sS'emotions'
p42
I17
sS'\xd0\xb3\xd0\xb4\xd0\xb5'
p43
I17
sS'new'
p44
I17
sS'officially'
p45
I17
sS'disney'
p46
I17
sS'men'
p47
I17
sS'french'
p48
I17
sS'let'
p49
I16
sS'nanny'
p50
I17
sS'change'
p51
I17
sS'great'
p52
I13
sS'kids'
p53
I15
sS'31'
p54
I17
sS"i'm"
p55
I10
sS'makes'
p56
I17
sS'love'
p57
I15
sS'family'
p58
I16
sS'win'
p59
I15
sS'jackhammer"papazian'
p60
I17
sS'guests'
p61
I17
sS'sermon'
p62
I17
sS'cha'
p63
I16
sS'from'
p64
I14
sS'proceed'
p65
I17
sS'&'
p66
I14
sS'next'
p67
I17
sS'depicted'
p68
I17
sS'6'
p69
I17
sS'candidates'
p70
I17
sS'tell'
p71
I14
sS'today'
p72
I12
sS'more'
p73
I17
sS'females'
p74
I17
sS'company'
p75
I17
sS'pic'
p76
I17
sS'baby'
p77
I16
sS'97'
p78
I17
sS'me'
p79
I10
sS'hour'
p80
I17
sS'this'
p81
I11
sS'getting'
p82
I17
sS'mi'
p83
I17
sS'entertained'
p84
I17
sS'napkins'
p85
I17
sS'can'
p86
I17
sS'blooming'
p87
I17
sS'knocked'
p88
I17
sS'my'
p89
I8
sS'history'
p90
I17
sS'\xd0\xb4\xd0\xb5\xd0\xbd\xd0\xb5\xd0\xb3'
p91
I17
sS'\xd0\xb2\xd0\xb5\xd1\x81\xd0\xb5\xd0\xbb\xd0\xbe'
p92
I17
sS'$29.99unlimited'
p93
I17
sS'figure'
p94
I17
sS'awesome'
p95
I17
sS'fuck'
p96
I17
sS'today:)'
p97
I16
sS'high'
p98
I17
sS'something'
p99
I16
sS'want'
p100
I16
sS'story'
p101
I17
sS'sign!;)'
p102
I17
sS'itc.)'
p103
I17
sS'sir'
p104
I17
sS'thing'
p105
I17
sS'get'
p106
I16
sS'how'
p107
I17
sS'amazing'
p108
I17
sS'forwarddddddddddd'
p109
I17
sS'145'
p110
I16
sS'explorer'
p111
I17
sS"get'em"
p112
I17
sS'spot'
p113
I17
sS'babysat'
p114
I17
sS'birthday'
p115
I13
sS'coming'
p116
I16
sS'hahahaha'
p117
I17
sS'such'
p118
I16
sS'man'
p119
I17
sS'a'
p120
I5
sS'danny'
p121
I17
sS'osssu'
p122
I17
sS'light'
p123
I17
sS'chief'
p124
I17
sS'so'
p125
I13
sS'allow'
p126
I17
sS'worst'
p127
I17
sS'\xc2\xaf\\_(\xe3\x83\x84)_/\xc2\xaf'
p128
I17
sS"don't"
p129
I17
sS'over'
p130
I16
sS'soon'
p131
I15
sS';)))'
p132
I17
sS"won't"
p133
I17
sS'month!\xe2\x80\x9dwhere'
p134
I17
sS'cold'
p135
I17
sS'still'
p136
I16
sS'before'
p137
I16
sS'style'
p138
I17
sS'thank'
p139
I13
sS'22'
p140
I17
sS'la'
p141
I14
sS'jim'
p142
I17
sS'actually'
p143
I16
sS'late'
p144
I17
sS'wall-e'
p145
I17
sS'i-a.)'
p146
I17
sS'91202'
p147
I16
sS'2011'
p148
I17
sS'visiting'
p149
I17
sS'texas'
p150
I17
sS'then'
p151
I15
sS'good'
p152
I13
sS'janeiro'
p153
I17
sS'flew'
p154
I17
sS'lunch'
p155
I17
sS'they'
p156
I17
sS'not'
p157
I15
sS'now'
p158
I15
sS'day'
p159
I15
sS'worlds'
p160
I17
sS'rocky'
p161
I16
sS'always'
p162
I17
sS'debut'
p163
I16
sS'montanha'
p164
I17
sS'muchas'
p165
I17
sS'went'
p166
I17
sS'carlos'
p167
I17
sS'luck'
p168
I14
sS'el'
p169
I17
sS'everyone'
p170
I14
sS'house'
p171
I17
sS'hard'
p172
I16
sS'year'
p173
I16
sS'our'
p174
I15
sS'beyond'
p175
I17
sS'saturday'
p176
I17
sS'special'
p177
I17
sS'out'
p178
I14
sS'living'
p179
I17
sS'rq'
p180
I17
sS'defend'
p181
I17
sS'looking'
p182
I17
sS'\xd1\x83'
p183
I17
sS"they'll"
p184
I17
sS'got'
p185
I16
sS'\xd1\x8f'
p186
I17
sS'\xd0\xb2\xd0\xbe\xd0\xbe\xd0\xb1\xd1\x89\xd0\xb5'
p187
I17
sS'forgive'
p188
I17
sS'quite'
p189
I17
sS'(alberto)'
p190
I17
sS'training'
p191
I17
sS'yard'
p192
I17
sS'\xd0\xbd\xd0\xb5\xd1\x82'
p193
I17
sS'days'
p194
I16
sS'keep'
p195
I17
sS'conversation'
p196
I17
sS'bakery)'
p197
I17
sS'onto'
p198
I17
sS'think'
p199
I17
sS'waited'
p200
I17
sS'first'
p201
I15
sS"i'll"
p202
I17
sS'powerful'
p203
I17
sS'one'
p204
I15
sS'done'
p205
I17
sS'bitch'
p206
I17
sS'ring'
p207
I17
sS'miss'
p208
I17
sS'between'
p209
I17
sS"you're"
p210
I17
sS'little'
p211
I17
sS'tpjj'
p212
I17
sS'5th'
p213
I17
sS'girls'
p214
I17
sS'2'
p215
I16
sS'master'
p216
I17
sS'too'
p217
I14
sS'storm'
p218
I17
sS'friend'
p219
I17
sS'listen'
p220
I17
sS'that'
p221
I10
sS'part'
p222
I17
sS'9:45'
p223
I17
sS'than'
p224
I17
sS"here's"
p225
I17
sS'anxiety'
p226
I17
sS'was'
p227
I16
sS'bed'
p228
I17
sS'outrageous'
p229
I17
sS'matter'
p230
I17
sS'and'
p231
I7
sS'\xd0\xa1\xd1\x83\xd0\xba'
p232
I17
sS'boston'
p233
I17
sS'\xd0\xb7\xd0\xb0\xd0\xba\xd0\xbe\xd0\xbd\xd1\x87\xd0\xb8\xd0\xbb\xd1\x81\xd1\x8f'
p234
I17
sS'tonight'
p235
I16
sS'raw'
p236
I17
sS'do...i'
p237
I17
sS'have'
p238
I15
sS'pre-marketing'
p239
I17
sS'seminar'
p240
I17
sS'congrats'
p241
I13
sS'fucking'
p242
I17
sS'take'
p243
I16
sS'2016'
p244
I17
sS'sure'
p245
I16
sS'~1'
p246
I17
sS'camiseta'
p247
I17
sS'most'
p248
I16
sS"sevan's"
p249
I17
sS'nothing'
p250
I17
sS'don'
p251
I17
sS'professor'
p252
I17
sS'proud'
p253
I17
sS"photog's"
p254
I17
sS'competitors'
p255
I15
sS'pleases'
p256
I17
sS'babysitters'
p257
I17
sS'halpert'
p258
I17
sS'jared'
p259
I17
sS'op\xe2\x80\x9d'
p260
I17
sS'wraps'
p261
I16
sS'with'
p262
I16
sS'ossu'
p263
I17
sS'should'
p264
I16
sS'2700+sf'
p265
I17
sS'only'
p266
I17
sS'black'
p267
I17
sS'lemme'
p268
I17
sS'factor'
p269
I17
sS')\xe2\x80\x9d'
p270
I17
sS'8'
p271
I17
sS'brotha'
p272
I17
sS'do'
p273
I14
sS'his'
p274
I14
sS'watching'
p275
I15
sS'beat'
p276
I17
sS'de'
p277
I17
sS'stop'
p278
I17
sS'appetizer'
p279
I17
sS'feels'
p280
I17
sS'competing'
p281
I17
sS'dye'
p282
I17
sS'celebrate'
p283
I17
sS'friend!!!;)'
p284
I17
sS'\xd1\x85\xd0\xb7'
p285
I17
sS'artist'
p286
I17
sS'ever'
p287
I17
sS'guys\xe2\x80\x9d'
p288
I17
sS'next)'
p289
I17
sS'bad'
p290
I16
sS'she'
p291
I17
sS'finishing'
p292
I17
sS'set'
p293
I17
sS'national'
p294
I17
sS'laaaates'
p295
I17
sS'see'
p296
I11
sS'asleep'
p297
I17
sS'are'
p298
I13
sS'nocturnal'
p299
I17
sS'best'
p300
I13
sS'brazil'
p301
I17
sS'inappropriate'
p302
I17
sS'movie'
p303
I17
sS'nightmare'
p304
I17
sS'3'
p305
I14
sS"there's"
p306
I17
sS'adoian'
p307
I17
sS'finger'
p308
I17
sS'hopefully'
p309
I17
sS'15th'
p310
I17
sS'kukla'
p311
I17
sS'knowing'
p312
I17
sS'we'
p313
I16
sS'never'
p314
I17
sS'recently'
p315
I17
sS'sold'
p316
I17
sS'jp'
p317
I17
sS'picking'
p318
I17
sS'come'
p319
I16
sS'jon'
p320
I17
sS'figured'
p321
I17
sS'last'
p322
I16
sS'career'
p323
I17
sS"benny's"
p324
I17
sS'day!;)'
p325
I17
sS'tour'
p326
I17
sS'dora'
p327
I17
sS'omori'
p328
I17
sS'por'
p329
I17
sS'learning'
p330
I16
sS'village'
p331
I17
sS'blonde'
p332
I17
sS'care**'
p333
I17
sS'belt'
p334
I16
sS'amigo'
p335
I17
sS'better'
p336
I17
sS'didier'
p337
I17
sS'"you'
p338
I17
sS"it's"
p339
I14
sS'barra'
p340
I17
sS'much'
p341
I16
sS'damn'
p342
I16
sS'505'
p343
I17
sS'meeting'
p344
I17
sS'bbq'
p345
I15
sS'\xd0\xb1\xd1\x83\xd0\xb4\xd0\xb5\xd1\x82'
p346
I17
sS'life'
p347
I17
sS'cal'
p348
I17
sS'gay'
p349
I17
sS"what's"
p350
I17
sS'present'
p351
I17
sS'honest'
p352
I17
sS'holiday'
p353
I17
sS'look'
p354
I16
sS'say'
p355
I17
sS'pre-hair'
p356
I17
sS'tonight!\xe2\x80\x9dthank'
p357
I17
sS'<3'
p358
I17
sS'almost'
p359
I17
sS'is'
p360
I10
sS'it'
p361
I13
sS'rio'
p362
I16
sS'avi'
p363
I17
sS'in'
p364
I9
sS'if'
p365
I16
sS'realizing'
p366
I17
sS'b.)'
p367
I17
sS'speech'
p368
I17
sS'buys'
p369
I17
sS'several'
p370
I17
sS'asleep...wtf'
p371
I17
sS'dawggggggg'
p372
I17
sS'week'
p373
I17
sS'victory\xe2\x80\x9d'
p374
I17
sS'1-3'
p375
I17
sS'drink'
p376
I17
sS'yesterday'
p377
I17
sS'rain'
p378
I17
sS'hand'
p379
I17
sS'fucked'
p380
I17
sS'burrito'
p381
I17
sS'thx'
p382
I15
sS'i'
p383
I3
sS'\xd0\xb1\xd0\xb5\xd0\xbd\xd0\xb7\xd0\xb8\xd0\xbd'
p384
I17
sS'well'
p385
I17
sS'obviously'
p386
I17
sS'person'
p387
I17
sS'greatest'
p388
I17
sS'y'
p389
I17
sS'drogba'
p390
I17
sS'the'
p391
I1
sS'just'
p392
I16
sS'being'
p393
I16
sS'yey'
p394
I17
sS'fighters'
p395
I17
sS'thanks'
p396
I17
sS'yes'
p397
I17
sS'had'
p398
I17
sS'4'
p399
I17
sS'has'
p400
I16
sS'excited'
p401
I16
sS'surprised'
p402
I17
sS'real'
p403
I17
sS'livin'
p404
I17
sS'big'
p405
I16
sS'gonna'
p406
I17
sS'tmrw'
p407
I16
sS'know'
p408
I17
sS'listening'
p409
I17
sS'world'
p410
I17
sS'like'
p411
I13
sS'lost'
p412
I17
sS'night'
p413
I17
sS'become'
p414
I17
sS'prepping'
p415
I17
sS'nigga'
p416
I17
sS'laugh'
p417
I17
sS'deal'
p418
I17
sS'people'
p419
I17
sS'family!!!;)'
p420
I17
sS'some'
p421
I17
sS'back'
p422
I17
sS'born'
p423
I17
sS'home'
p424
I16
sS'guess'
p425
I17
sS'creep'
p426
I17
sS'gracie'
p427
I16
sS'luxe'
p428
I17
sS'parabens'
p429
I17
sS'for'
p430
I6
sS'memories'
p431
I17
sS'/'
p432
I17
sS'everything'
p433
I17
sS'asking'
p434
I17
sS'prof'
p435
I17
sS'3:30'
p436
I17
sS'christmas'
p437
I17
sS'bd'
p438
I17
sS'be'
p439
I15
sS'who'
p440
I17
sS'run'
p441
I17
sS'ba'
p442
I17
sS'business'
p443
I17
sS'\xd0\xb8'
p444
I16
sS'\xd0\xbc\xd1\x8b'
p445
I17
sS'\xd1\x82\xd0\xb5\xd0\xbb'
p446
I17
sS';)'
p447
I17
sS'by'
p448
I14
sS'on'
p449
I11
sS'about'
p450
I17
sS'oh'
p451
I16
sS'of'
p452
I11
sS'sept'
p453
I17
sS'tape'
p454
I17
sS'clubhouse'
p455
I17
sS'own'
p456
I17
sS'bjj'
p457
I17
sS'son'
p458
I17
sS'down'
p459
I17
sS'right'
p460
I17
sS'champ'
p461
I17
sS'bedtime'
p462
I17
sS'female'
p463
I17
sS'ayyy'
p464
I17
sS'your'
p465
I14
sS'fast'
p466
I17
sS'her'
p467
I17
sS'area'
p468
I17
sS'\xd1\x81\xd1\x8f\xd0\xb4\xd0\xb5\xd1\x82'
p469
I17
sS'there'
p470
I15
sS'hey'
p471
I17
sS'lol'
p472
I15
sS'fight'
p473
I17
sS'start'
p474
I16
sS'way'
p475
I15
sS'roomate'
p476
I17
sS'bruder'
p477
I17
sS'war'
p478
I17
sS'happy'
p479
I15
sS'offering'
p480
I17
sS"i've"
p481
I17
sS'but'
p482
I16
sS'her..(cnt'
p483
I17
sS'crane'
p484
I17
sS'trying'
p485
I16
sS'true'
p486
I17
sS'junior'
p487
I17
sS'he'
p488
I17
sS'4ever'
p489
I17
sS'wish'
p490
I15
sS'up'
p491
I16
sS'\xd0\xa1\xd0\xba\xd0\xbe\xd1\x80\xd0\xbe'
p492
I17
sS'ur'
p493
I16
sS'record'
p494
I17
sS'those'
p495
I17
sS'pumped'
p496
I17
sS'minutes'
p497
I17
sS'exhausted'
p498
I17
sS'tournament'
p499
I17
sS'am'
p500
I15
sS'an'
p501
I13
sS'ap'
p502
I17
sS'as'
p503
I17
sS'at'
p504
I11
sS'aids'
p505
I17
sS'girlfriend'
p506
I17
sS'watched'
p507
I16
sS'dying'
p508
I17
sS'no'
p509
I17
sS'when'
p510
I16
sS'virtual'
p511
I17
sS'reality'
p512
I17
sS'ny'
p513
I17
sS'you'
p514
I4
sS'b/c'
p515
I17
sS'testosterone...when'
p516
I17
sS'nice'
p517
I16
sS'suites'
p518
I17
sS'2004'
p519
I17
sS'academies'
p520
I17
sS'bianca'
p521
I17
sS'important'
p522
I17
sS'chris'
p523
I17
sS'song'
p524
I17
sS'weekend'
p525
I17
sS'fighter'
p526
I17
sS'longer'
p527
I17
sS'u'
p528
I14
sS'chillinggggg'
p529
I17
sS'time'
p530
I15
sS'"the'
p531
I17
s.