(dp0
S''
p1
I7
sS'edc'
p2
I30
sS'glenoaks'
p3
I10
sS'forget'
p4
I30
sS'themed'
p5
I30
sS'update-'
p6
I29
sS'all'
p7
I25
sS'devine'
p8
I30
sS'sleep'
p9
I30
sS'hating'
p10
I30
sS'go'
p11
I29
sS'follow'
p12
I30
sS'hate'
p13
I28
sS'apartment'
p14
I30
sS'imma'
p15
I30
sS'whoever'
p16
I30
sS'to'
p17
I5
sS'finally'
p18
I29
sS'program'
p19
I30
sS'eench'
p20
I30
sS'rhythm'
p21
I30
sS'under'
p22
I30
sS'worth'
p23
I30
sS'me'
p24
I17
sS'kats'
p25
I30
sS'lungs'
p26
I30
sS'song'
p27
I29
sS'very'
p28
I30
sS'fav'
p29
I30
sS'fat'
p30
I30
sS'vegas'
p31
I30
sS'every'
p32
I30
sS'jack'
p33
I30
sS'bummed'
p34
I30
sS'hibernating'
p35
I30
sS'fuckkkk'
p36
I30
sS'cool'
p37
I30
sS'school'
p38
I30
sS'hour'
p39
I30
sS'level'
p40
I30
sS'did'
p41
I27
sS'gettin'
p42
I30
sS'deals'
p43
I30
sS'library.\xe2\x80\x9d'
p44
I30
sS'ekav'
p45
I30
sS'fuuuck'
p46
I30
sS'guy'
p47
I29
sS'ups'
p48
I30
sS'ashely'
p49
I30
sS'clothes'
p50
I30
sS"i'll"
p51
I27
sS'charter'
p52
I30
sS'work'
p53
I29
sS'says'
p54
I30
sS'tea'
p55
I30
sS'streets'
p56
I30
sS'cyber'
p57
I30
sS'tires'
p58
I30
sS'second'
p59
I30
sS'crescent'
p60
I30
sS'folk'
p61
I30
sS'even'
p62
I30
sS'glendale)'
p63
I10
sS'what'
p64
I24
sS'anorexic'
p65
I30
sS'corazon'
p66
I30
sS'wrecked'
p67
I29
sS'piper'
p68
I30
sS'espresso'
p69
I30
sS'current'
p70
I29
sS'lights'
p71
I30
sS'endorse'
p72
I30
sS'new'
p73
I29
sS'ever'
p74
I29
sS'method'
p75
I30
sS'heaavvvvvy'
p76
I30
sS'told'
p77
I30
sS'enthusiast'
p78
I30
sS'full'
p79
I30
sS'screams'
p80
I30
sS'never'
p81
I27
sS'commercial'
p82
I30
sS'here'
p83
I30
sS'leo'
p84
I30
sS'hours'
p85
I26
sS'\xe2\x9d\xa4\xef\xb8\x8f'
p86
I30
sS'focused'
p87
I30
sS'lmfaoooooooooooooo'
p88
I30
sS'wagyu'
p89
I30
sS"aren't"
p90
I30
sS'teacher'
p91
I30
sS'change'
p92
I30
sS'wait'
p93
I29
sS'boy'
p94
I30
sS'great'
p95
I28
sS'kids'
p96
I30
sS'\xe2\x9a\xbd\xef\xb8\x8f'
p97
I30
sS'study'
p98
I30
sS'2048'
p99
I30
sS'leaving'
p100
I27
sS'gleams'
p101
I30
sS'franklin'
p102
I30
sS'('
p103
I30
sS'real'
p104
I30
sS'opinion'
p105
I30
sS"i'm"
p106
I4
sS"someone's"
p107
I30
sS'settled'
p108
I30
sS'explain'
p109
I30
sS'eyebrows'
p110
I30
sS'lmfaoooo'
p111
I30
sS'love'
p112
I26
sS'family'
p113
I30
sS'tweak'
p114
I30
sS'bro'
p115
I30
sS'put'
p116
I30
sS"you're*"
p117
I30
sS'fbi'
p118
I30
sS'"my'
p119
I30
sS'parking'
p120
I30
sS'lime'
p121
I30
sS'use'
p122
I30
sS'from'
p123
I26
sS'takes'
p124
I30
sS'would'
p125
I24
sS'&'
p126
I29
sS'remains'
p127
I30
sS'two'
p128
I26
sS'next'
p129
I30
sS'live'
p130
I30
sS'calm'
p131
I30
sS'6'
p132
I29
sS'taken'
p133
I30
sS'thru'
p134
I30
sS'tell'
p135
I30
sS'today'
p136
I30
sS'more'
p137
I30
sS'mystical'
p138
I30
sS'tryna'
p139
I30
sS'holy'
p140
I29
sS'started'
p141
I29
sS'company'
p142
I30
sS'mi\xe2\x80\xa6'
p143
I30
sS'sister'
p144
I30
sS'fuck'
p145
I26
sS'99'
p146
I30
sS'phone'
p147
I30
sS'backwards'
p148
I30
sS'baby'
p149
I30
sS'coyote'
p150
I30
sS'hole'
p151
I30
sS'agoooo'
p152
I30
sS'must'
p153
I30
sS'fly'
p154
I30
sS'high'
p155
I29
sS'ma'
p156
I30
sS'salad'
p157
I30
sS'this'
p158
I11
sS'car'
p159
I29
sS'looool'
p160
I30
sS'getting'
p161
I29
sS'mi'
p162
I30
sS'soul'
p163
I30
sS'again\xe2\x9d\xa4\xef\xb8\x8f'
p164
I30
sS'remain'
p165
I30
sS'anywhere'
p166
I30
sS'del'
p167
I30
sS'can'
p168
I28
sS'sky'
p169
I30
sS'following'
p170
I30
sS'camry'
p171
I30
sS'my'
p172
I8
sS'loyal\xe2\x80\x9d'
p173
I30
sS'help'
p174
I30
sS'crazy'
p175
I30
sS'bitchhhhhhhhhh'
p176
I30
sS'kenneth'
p177
I30
sS'give'
p178
I29
sS'91201-1163united'
p179
I30
sS"didn't"
p180
I30
sS'confused'
p181
I30
sS'states'
p182
I29
sS'heard'
p183
I30
sS'something'
p184
I30
sS'want'
p185
I27
sS'dennis'
p186
I30
sS'firmly'
p187
I30
sS'pogh'
p188
I30
sS'goal'
p189
I30
sS'sit'
p190
I30
sS'rather'
p191
I30
sS'breaking'
p192
I29
sS'boyeen'
p193
I30
sS'how'
p194
I26
sS'amazing'
p195
I28
sS'blessings'
p196
I30
sS'hop'
p197
I30
sS'turk'
p198
I30
sS'chase'
p199
I30
sS"doesn't"
p200
I30
sS'stand'
p201
I30
sS'snaps'
p202
I30
sS'may'
p203
I30
sS'after'
p204
I27
sS'spot'
p205
I30
sS'needs'
p206
I30
sS'walk'
p207
I30
sS'wrong'
p208
I29
sS'birthday'
p209
I28
sS'taco'
p210
I29
sS'date'
p211
I30
sS'reggie'
p212
I30
sS'guys'
p213
I29
sS'man'
p214
I28
sS'a'
p215
I6
sS'attempt'
p216
I30
sS'remember'
p217
I29
sS'light'
p218
I30
sS'feels'
p219
I30
sS'throws'
p220
I30
sS'lizardman'
p221
I30
sS'honestly'
p222
I28
sS'fuckin'
p223
I30
sS'keeps'
p224
I30
sS"that's"
p225
I28
sS'cute'
p226
I30
sS'closely'
p227
I30
sS"don't"
p228
I22
sS'over'
p229
I29
sS'installed'
p230
I30
sS'cain"'
p231
I30
sS'course'
p232
I30
sS'already'
p233
I30
sS'through'
p234
I30
sS'eiger'
p235
I30
sS'still'
p236
I25
sS'its'
p237
I29
sS'before'
p238
I30
sS'24'
p239
I30
sS'hardwell'
p240
I29
sS'thank'
p241
I29
sS"he's"
p242
I30
sS"e's"
p243
I30
sS'solving'
p244
I30
sS'sexiest'
p245
I30
sS'nazook'
p246
I30
sS'fag'
p247
I30
sS'405'
p248
I30
sS'degrees'
p249
I30
sS'bout'
p250
I29
sS'soccer'
p251
I29
sS'into'
p252
I30
sS'texas'
p253
I30
sS'happened'
p254
I30
sS'dad'
p255
I30
sS'then'
p256
I30
sS'them'
p257
I28
sS'good'
p258
I23
sS'seatbelt'
p259
I30
sS'combination'
p260
I30
sS'ya'
p261
I29
sS'noc'
p262
I30
sS'lunch'
p263
I30
sS'they'
p264
I28
sS'oh..okay'
p265
I30
sS'not'
p266
I22
sS'one'
p267
I22
sS'cage'
p268
I30
sS'bullshit'
p269
I28
sS'foos'
p270
I29
sS'christ'
p271
I30
sS'meat'
p272
I30
sS'always'
p273
I26
sS'l'
p274
I30
sS'labeling'
p275
I30
sS'slide'
p276
I30
sS'mode'
p277
I30
sS'truth'
p278
I30
sS'rock'
p279
I30
sS'vaiiii'
p280
I29
sS'went'
p281
I28
sS"isn't"
p282
I30
sS'2k'
p283
I30
sS'status'
p284
I30
sS'everyone'
p285
I30
sS'mental'
p286
I30
sS'doing'
p287
I30
sS'house'
p288
I29
sS'used'
p289
I30
sS'books'
p290
I29
sS'ey'
p291
I30
sS'ex'
p292
I30
sS'forgot'
p293
I29
sS'girl'
p294
I29
sS'beyond'
p295
I29
sS'butthurt'
p296
I30
sS'saturday'
p297
I30
sS'yesssssss'
p298
I30
sS'really'
p299
I27
sS'category'
p300
I30
sS'by'
p301
I30
sS'prolly'
p302
I30
sS'driving'
p303
I29
sS'god'
p304
I29
sS'jump'
p305
I30
sS'cameras'
p306
I30
sS'"test'
p307
I30
sS'looking'
p308
I30
sS'seriously'
p309
I30
sS'miles'
p310
I30
sS"shouldn't"
p311
I30
sS'hilarious'
p312
I30
sS'print'
p313
I30
sS'got'
p314
I30
sS'rn'
p315
I29
sS'hammmm'
p316
I30
sS'cause'
p317
I30
sS'ass'
p318
I30
sS'dirt'
p319
I29
sS'cars'
p320
I30
sS'friday'
p321
I30
sS'quite'
p322
I30
sS'cut'
p323
I30
sS'california'
p324
I30
sS'grandma'
p325
I30
sS'ask'
p326
I30
sS'hand'
p327
I30
sS'orc'
p328
I30
sS'care'
p329
I30
sS'ate'
p330
I30
sS'your'
p331
I23
sS'launch'
p332
I30
sS'could'
p333
I29
sS'headphones'
p334
I30
sS'ds2'
p335
I30
sS'days'
p336
I30
sS'times'
p337
I27
sS'filter'
p338
I30
sS'thing'
p339
I29
sS'american'
p340
I30
sS'place'
p341
I30
sS'w'
p342
I30
sS'helank'
p343
I30
sS'snowboarding'
p344
I30
sS'think'
p345
I27
sS'south'
p346
I30
sS'first'
p347
I30
sS'blind'
p348
I30
sS'major'
p349
I30
sS'(13'
p350
I10
sS'sansa'
p351
I30
sS'feel'
p352
I29
sS'expectations'
p353
I30
sS'coming'
p354
I28
sS'welcome'
p355
I30
sS'yourself'
p356
I30
sS'midlands'
p357
I30
sS'bitch'
p358
I30
sS'another'
p359
I28
sS'owner'
p360
I30
sS'message'
p361
I30
sS'kidding'
p362
I30
sS'open'
p363
I29
sS'tomorrow'
p364
I26
sS'mercury'
p365
I30
sS"you're"
p366
I29
sS'little'
p367
I30
sS'long'
p368
I30
sS'discussed'
p369
I30
sS'sunday"me'
p370
I30
sS'slept'
p371
I30
sS'system'
p372
I30
sS'fiction'
p373
I30
sS'fml'
p374
I30
sS'2'
p375
I30
sS'too'
p376
I29
sS'white'
p377
I30
sS'friend'
p378
I30
sS'rodman'
p379
I30
sS'frustration'
p380
I30
sS'relationship'
p381
I30
sS'that'
p382
I18
sS'season'
p383
I29
sS'sentinels'
p384
I30
sS'exactly'
p385
I30
sS'park'
p386
I30
sS'accurately'
p387
I30
sS'negro'
p388
I30
sS'boots'
p389
I30
sS'skyrim'
p390
I30
sS'believe'
p391
I30
sS'than'
p392
I29
sS'boyfriend'
p393
I30
sS'past'
p394
I30
sS'13'
p395
I29
sS'lmao'
p396
I28
sS'leg"'
p397
I30
sS'bed'
p398
I28
sS'shower'
p399
I30
sS'r'
p400
I30
sS'marriage'
p401
I30
sS'were'
p402
I30
sS'hacking'
p403
I30
sS'ousted'
p404
I30
sS'and'
p405
I9
sS'kenneth\xe2\x80\xa6'
p406
I30
sS'p.s'
p407
I30
sS'hoes'
p408
I30
sS'mind'
p409
I28
sS'mine'
p410
I30
sS'slap'
p411
I30
sS'sad'
p412
I30
sS'randomly'
p413
I30
sS'say'
p414
I27
sS'have'
p415
I19
sS'throat'
p416
I28
sS'seen'
p417
I29
sS'seem'
p418
I30
sS'turn'
p419
I30
sS'saw'
p420
I30
sS'tells'
p421
I30
sS'thought'
p422
I30
sS'speakers'
p423
I30
sS'nights'
p424
I30
sS'realm'
p425
I30
sS'ghe'
p426
I30
sS'offer'
p427
I30
sS'-'
p428
I30
sS'lit'
p429
I30
sS'chest'
p430
I30
sS'squad'
p431
I30
sS'take'
p432
I29
sS'doors'
p433
I30
sS"'d"
p434
I30
sS'so'
p435
I23
sS'play'
p436
I29
sS'sure'
p437
I30
sS'normal'
p438
I30
sS's\xe2\x80\x9d'
p439
I30
sS'mcconaughny'
p440
I30
sS'salmon'
p441
I30
sS'falls'
p442
I30
sS'tapia'
p443
I30
sS'cigarette'
p444
I30
sS'nothing'
p445
I28
sS'oil'
p446
I30
sS'..well'
p447
I30
sS'd.o.d'
p448
I30
sS'darkness'
p449
I30
sS'forever'
p450
I29
sS'indy'
p451
I30
sS'hungry'
p452
I30
sS'spill'
p453
I30
sS'freeway'
p454
I30
sS'ways'
p455
I30
sS'salt'
p456
I30
sS'deadmau5'
p457
I30
sS'boredom'
p458
I30
sS'niggaaaa'
p459
I30
sS'despise'
p460
I30
sS'hyper'
p461
I30
sS'hunger'
p462
I30
sS'agreed'
p463
I30
sS'jpmorgan'
p464
I30
sS'corner'
p465
I30
sS'mister'
p466
I30
sS'ground'
p467
I30
sS'aint'
p468
I30
sS'sweats'
p469
I30
sS'slow'
p470
I30
sS'cousins'
p471
I30
sS'ruin'
p472
I30
sS'enough'
p473
I29
sS'sugar'
p474
I30
sS'tries'
p475
I30
sS'yea'
p476
I30
sS'only'
p477
I28
sS'going'
p478
I28
sS'black'
p479
I30
sS'pretty'
p480
I30
sS'folks'
p481
I30
sS'8'
p482
I30
sS'shiiiieeeeet'
p483
I30
sS'handsome'
p484
I30
sS'brotha'
p485
I29
sS'hope'
p486
I30
sS'loved'
p487
I30
sS'wearing'
p488
I30
sS'do'
p489
I27
sS'warmers'
p490
I30
sS'his'
p491
I26
sS'hit'
p492
I30
sS'get'
p493
I29
sS'luke'
p494
I30
sS'wooooow'
p495
I30
sS'honda'
p496
I30
sS'stop'
p497
I30
sS'truly'
p498
I30
sS'mernem'
p499
I30
sS'stars'
p500
I30
sS'words'
p501
I29
sS'heat:pls'
p502
I30
sS'ninjutsu'
p503
I30
sS"george's"
p504
I29
sS'stog'
p505
I30
sS'considerate'
p506
I30
sS'enemy'
p507
I30
sS'runs'
p508
I30
sS'bar'
p509
I30
sS'nullification'
p510
I30
sS'married'
p511
I30
sS'morning'
p512
I29
sS'naked'
p513
I30
sS'twice'
p514
I30
sS'bad'
p515
I28
sS'stuff'
p516
I30
sS'she'
p517
I27
sS'shots'
p518
I29
sS'glendale'
p519
I29
sS'miley'
p520
I30
sS'tehranits'
p521
I30
sS"y'all"
p522
I30
sS'samantha'
p523
I30
sS'habit'
p524
I30
sS'w/'
p525
I29
sS'reported'
p526
I30
sS'seat'
p527
I30
sS'see'
p528
I30
sS'are'
p529
I23
sS'dragon'
p530
I30
sS'nocturnal'
p531
I30
sS'verchapes'
p532
I30
sS'"fuck'
p533
I30
sS'best'
p534
I28
sS'juliet'
p535
I30
sS'rdglendale'
p536
I30
sS'said'
p537
I30
sS'closet'
p538
I30
sS'lots'
p539
I29
sS'movie'
p540
I30
sS'wow'
p541
I30
sS'mayor'
p542
I30
sS'3'
p543
I29
sS"there's"
p544
I30
sS'hopefully'
p545
I30
sS'probably'
p546
I29
sS"wife's"
p547
I30
sS'rosa'
p548
I30
sS'solo'
p549
I30
sS'we'
p550
I27
sS'missing'
p551
I29
sS'killing'
p552
I30
sS'raver'
p553
I30
sS'wear'
p554
I30
sS'hurts'
p555
I30
sS'trolling'
p556
I30
sS'come'
p557
I28
sS'mage'
p558
I30
sS'"easier"'
p559
I30
sS'hits'
p560
I30
sS'tfti'
p561
I30
sS'last'
p562
I27
sS'missions'
p563
I29
sS'met'
p564
I30
sS'many'
p565
I28
sS'ill'
p566
I28
sS'barely'
p567
I30
sS'dar'
p568
I30
sS'unfollows/follows'
p569
I30
sS'thinking'
p570
I30
sS'whole'
p571
I30
sS"can't"
p572
I27
sS'torn'
p573
I30
sS'grandview'
p574
I10
sS'drunk'
p575
I30
sS'color'
p576
I30
sS'sweet'
p577
I9
sS'ca'
p578
I29
sS'jeans'
p579
I30
sS'height'
p580
I30
sS'header'
p581
I30
sS'laugh'
p582
I30
sS'table'
p583
I30
sS'chka'
p584
I30
sS'seer'
p585
I30
sS'save'
p586
I30
sS'invented'
p587
I30
sS'puts'
p588
I30
sS'homework...about'
p589
I30
sS"it's"
p590
I26
sS'three'
p591
I30
sS'now"'
p592
I30
sS'zardoz'
p593
I30
sS'reduction'
p594
I30
sS'much'
p595
I28
sS'umf'
p596
I30
sS'"i\'m'
p597
I30
sS'figure'
p598
I30
sS'home)'
p599
I30
sS'killed'
p600
I30
sS'pm'
p601
I30
sS'wants'
p602
I30
sS'tangents'
p603
I30
sS"skyrim's"
p604
I30
sS'hmu'
p605
I29
sS"what's"
p606
I29
sS'lmaooooo'
p607
I30
sS'spills'
p608
I30
sS'vigens'
p609
I30
sS'personally'
p610
I30
sS'fellow'
p611
I30
sS'painter'
p612
I30
sS'italina)'
p613
I29
sS'look'
p614
I29
sS'these'
p615
I29
sS'n'
p616
I28
sS'will'
p617
I28
sS'genious'
p618
I30
sS'while'
p619
I30
sS"haven't"
p620
I30
sS'investigating'
p621
I30
sS'ultra'
p622
I29
sS'k'
p623
I30
sS'pack'
p624
I29
sS'heno'
p625
I30
sS'colleague'
p626
I30
sS'flex'
p627
I30
sS'is'
p628
I14
sS'it'
p629
I16
sS'need'
p630
I26
sS'someone'
p631
I29
sS'im'
p632
I30
sS'triple'
p633
I30
sS'in'
p634
I12
sS'vanish'
p635
I30
sS'worry'
p636
I30
sS'if'
p637
I25
sS'funny'
p638
I30
sS'different'
p639
I30
sS'shooting'
p640
I30
sS'noooo'
p641
I30
sS'border'
p642
I30
sS'make'
p643
I27
sS'funniest'
p644
I30
sS'any'
p645
I30
sS'moms'
p646
I30
sS'pad'
p647
I30
sS'"i'
p648
I30
sS'party'
p649
I29
sS'attack'
p650
I30
sS'week'
p651
I29
sS'ball'
p652
I29
sS'postponed."me'
p653
I30
sS'dime'
p654
I30
sS'nic'
p655
I30
sS'boo'
p656
I30
sS'yesterday'
p657
I30
sS'romeo'
p658
I30
sS'uses'
p659
I30
sS'advertisement'
p660
I30
sS'fucked'
p661
I30
sS'speechless'
p662
I30
sS'aka'
p663
I30
sS'thoughts'
p664
I29
sS'off'
p665
I28
sS'"shinobi"'
p666
I30
sS'score'
p667
I30
sS'i'
p668
I2
sS'makes'
p669
I30
sS'well'
p670
I29
sS'tho'
p671
I29
sS'without'
p672
I29
sS'greatest'
p673
I30
sS'21'
p674
I30
sS'san'
p675
I30
sS'the'
p676
I3
sS'raving'
p677
I30
sS'understand'
p678
I30
sS'\xe2\x98\xba\xef\xb8\x8f'
p679
I30
sS'just'
p680
I20
sS'being'
p681
I29
sS'money'
p682
I30
sS'clinic'
p683
I30
sS'kill'
p684
I30
sS'thanks'
p685
I26
sS'human'
p686
I30
sS'world'
p687
I30
sS'followed'
p688
I30
sS'yes'
p689
I30
sS'spells'
p690
I30
sS'blow'
p691
I30
sS'now'
p692
I30
sS'officially'
p693
I30
sS"we've"
p694
I30
sS'workers'
p695
I30
sS"everyone's"
p696
I30
sS'had'
p697
I25
sS'except'
p698
I30
sS'u-verse'
p699
I30
sS'day'
p700
I28
sS'hay'
p701
I29
sS'lets'
p702
I30
sS'4'
p703
I30
sS'crying'
p704
I29
sS'snap'
p705
I30
sS'cucina'
p706
I29
sS'flashing'
p707
I30
sS'has'
p708
I30
sS'excited'
p709
I30
sS'trashed'
p710
I30
sS'build'
p711
I30
sS'ridiculously'
p712
I30
sS'starving'
p713
I30
sS'around'
p714
I30
sS'couple'
p715
I30
sS"who's"
p716
I30
sS'gonna'
p717
I28
sS'game'
p718
I29
sS'know'
p719
I29
sS'mom'
p720
I28
sS'using'
p721
I30
sS'depicts'
p722
I30
sS'lady'
p723
I30
sS'sharis'
p724
I30
sS'apart'
p725
I30
sS'barbarian'
p726
I30
sS'like'
p727
I15
sS'lost'
p728
I30
sS'mirin'
p729
I30
sS'ring'
p730
I30
sS'piece'
p731
I30
sS'candy'
p732
I30
sS'lightning'
p733
I30
sS'collect'
p734
I30
sS'true'
p735
I30
sS'nose'
p736
I29
sS'night'
p737
I26
sS'nerves'
p738
I30
sS'because'
p739
I28
sS'old'
p740
I29
sS'collectors'
p741
I30
sS'people'
p742
I25
sS'fucking'
p743
I24
sS'twitter'
p744
I29
sS'visions'
p745
I30
sS'some'
p746
I28
sS'bounce'
p747
I30
sS'tumblr'
p748
I30
sS'palm'
p749
I30
sS'home'
p750
I1
sS'employment'
p751
I30
sS'thinks'
p752
I30
sS'happens'
p753
I30
sS'mood'
p754
I30
sS'for'
p755
I14
sS'pet'
p756
I30
sS'literally'
p757
I30
sS'peeves'
p758
I30
sS'ice'
p759
I30
sS'moon'
p760
I30
sS'everything'
p761
I29
sS'does'
p762
I30
sS'sr5'
p763
I30
sS'foo'
p764
I30
sS'either'
p765
I30
sS'be'
p766
I20
sS'ripped'
p767
I30
sS'who'
p768
I28
sS'run'
p769
I30
sS'business'
p770
I30
sS'lmfao'
p771
I30
sS'100%'
p772
I30
sS'speak'
p773
I30
sS'broken'
p774
I30
sS'was...flux...and...pavilion'
p775
I30
sS'laidback'
p776
I30
sS'santa'
p777
I30
sS'found'
p778
I29
sS'at&t'
p779
I30
sS'bury'
p780
I30
sS'between'
p781
I30
sS'shine'
p782
I30
sS'on'
p783
I11
sS'about'
p784
I26
sS'anything'
p785
I30
sS'oh'
p786
I28
sS'of'
p787
I14
sS'favorite'
p788
I30
sS'truck'
p789
I30
sS'acl'
p790
I30
sS'swear'
p791
I29
sS'idk'
p792
I30
sS'west'
p793
I30
sS'mean'
p794
I30
sS'wanna'
p795
I30
sS'or'
p796
I30
sS'road'
p797
I30
sS'repair'
p798
I30
sS'wasting'
p799
I30
sS'selfie'
p800
I30
sS'child'
p801
I30
sS'down'
p802
I27
sS'prisoner'
p803
I30
sS'nigga'
p804
I30
sS'"energy"'
p805
I30
sS'wrap'
p806
I30
sS'abel'
p807
I30
sS'gramma'
p808
I30
sS'eh'
p809
I30
sS'vai'
p810
I27
sS'spongebob'
p811
I30
sS'her'
p812
I23
sS'"candy'
p813
I30
sS'grapevine'
p814
I30
sS'sneeze'
p815
I30
sS'there'
p816
I28
sS'hey'
p817
I30
sS'lol'
p818
I25
sS'custom'
p819
I30
sS'stuck'
p820
I29
sS"how'd"
p821
I30
sS'been'
p822
I30
sS'infected'
p823
I30
sS'funnier'
p824
I30
sS'way'
p825
I29
sS'biggest'
p826
I29
sS'bored'
p827
I30
sS'was'
p828
I25
sS'redbull'
p829
I30
sS'jan.eera'
p830
I30
sS'happy'
p831
I28
sS'files'
p832
I30
sS'himself'
p833
I30
sS'neighbors'
p834
I30
sS"i've"
p835
I28
sS'downstairs'
p836
I30
sS'coke'
p837
I30
sS'but'
p838
I21
sS'set**'
p839
I30
sS'heat'
p840
I30
sS'hear'
p841
I30
sS'shant'
p842
I30
sS'trying'
p843
I29
sS'with'
p844
I24
sS'eat'
p845
I30
sS'he'
p846
I30
sS'count'
p847
I29
sS'pull'
p848
I30
sS'wish'
p849
I30
sS'gta:v'
p850
I29
sS'up'
p851
I30
sS'us'
p852
I28
sS'gtav'
p853
I30
sS'problem'
p854
I30
sS'>'
p855
I30
sS'pulp'
p856
I30
sS'suzy'
p857
I30
sS'"hai"'
p858
I30
sS'detailed'
p859
I30
sS'gone'
p860
I29
sS'"candy"'
p861
I30
sS'taste'
p862
I30
sS'youtube'
p863
I30
sS'an'
p864
I29
sS'ap'
p865
I30
sS'as'
p866
I26
sS'right'
p867
I30
sS'at'
p868
I6
sS'fashioned'
p869
I30
sS'months....honestly'
p870
I30
sS'pip'
p871
I30
sS'hes'
p872
I30
sS'face'
p873
I30
sS'trip'
p874
I30
sS'shit'
p875
I23
sS'again'
p876
I29
sS'jesus'
p877
I30
sS'dying'
p878
I30
sS'no'
p879
I24
sS'when'
p880
I25
sS'wander'
p881
I30
sS'other'
p882
I30
sS'diego'
p883
I30
sS'sick'
p884
I30
sS'you'
p885
I13
sS'out'
p886
I23
sS'roll'
p887
I30
sS'picture'
p888
I30
sS'la'
p889
I30
sS'monday'
p890
I30
sS'felt'
p891
I30
sS'coronas'
p892
I30
sS'gcc'
p893
I30
sS'helping'
p894
I30
sS'important'
p895
I30
sS'kinda'
p896
I30
sS'tackle'
p897
I30
sS'hurt'
p898
I30
sS'weekend'
p899
I29
sS'pool'
p900
I30
sS'cliff'
p901
I30
sS'ago'
p902
I30
sS'happening'
p903
I30
sS'snagged'
p904
I30
sS'wife'
p905
I29
sS'rain..my'
p906
I30
sS'jewel'
p907
I30
sS'daily'
p908
I30
sS'time'
p909
I28
sS"she's"
p910
I29
sS'once'
p911
I30
s.