(dp0
S''
p1
I4
sS'raining'
p2
I79
sS'limited'
p3
I79
sS'hats'
p4
I79
sS'?,91201\n521807460147793921,gurrruohm,2014-10-13'
p5
I79
sS'sleek'
p6
I79
sS'team....freethrows'
p7
I79
sS'papis'
p8
I79
sS'sleep'
p9
I72
sS'asian'
p10
I78
sS'captain'
p11
I79
sS'hate'
p12
I60
sS'worked'
p13
I79
sS'relationships'
p14
I78
sS'whose'
p15
I79
sS'swag'
p16
I78
sS'feeding'
p17
I79
sS'buddy'
p18
I78
sS"com'l"
p19
I77
sS'paris'
p20
I77
sS'tweet'
p21
I71
sS'similarity'
p22
I79
sS'honourary'
p23
I79
sS'bike'
p24
I78
sS"ticket'"
p25
I79
sS'clubbbb'
p26
I79
sS'under'
p27
I76
sS'lord'
p28
I78
sS'sorry'
p29
I61
sS'$40'
p30
I79
sS'adladin'
p31
I79
sS'worth'
p32
I78
sS'winfrey'
p33
I79
sS'rescue'
p34
I79
sS':/,91201\n521805803716489216,gurrruohm,2014-10-13'
p35
I79
sS'aurora'
p36
I79
sS'dirty,91201\n521810041070837760,gurrruohm,2014-10-13'
p37
I79
sS'smack'
p38
I79
sS'every'
p39
I74
sS'ala'
p40
I79
sS'bringing'
p41
I78
sS'electronics'
p42
I79
sS'vast'
p43
I79
sS'dreamworks'
p44
I79
sS'tickets'
p45
I78
sS'school'
p46
I65
sS'parrot'
p47
I78
sS'skills'
p48
I78
sS'venue'
p49
I79
sS'people\xe2\x80\x9d'
p50
I79
sS'"really'
p51
I79
sS'red'
p52
I75
sS'straight'
p53
I78
sS'clothes'
p54
I76
sS'enjoy'
p55
I77
sS'tired'
p56
I75
sS'awake'
p57
I79
sS'almond'
p58
I79
sS'feathers'
p59
I78
sS'smalls'
p60
I79
sS'tires'
p61
I79
sS'dildo'
p62
I79
sS'crave'
p63
I79
sS'street'
p64
I77
sS'"selfie'
p65
I79
sS'air'
p66
I79
sS'snuggled'
p67
I79
sS'even'
p68
I55
sS'"yo"'
p69
I79
sS'hide'
p70
I79
sS"tonight's"
p71
I79
sS'+'
p72
I79
sS'cooking'
p73
I78
sS'hydration'
p74
I79
sS'lights'
p75
I79
sS'pawel'
p76
I79
sS'designing'
p77
I79
sS'zoomed'
p78
I79
sS'new'
p79
I46
sS'tips'
p80
I79
sS'heather'
p81
I79
sS'ever'
p82
I66
sS'disney'
p83
I79
sS'told'
p84
I73
sS'crunch'
p85
I79
sS'kicked'
p86
I79
sS'festive'
p87
I78
sS'pancakes'
p88
I79
sS'never'
p89
I63
sS"jessie's"
p90
I79
sS'here'
p91
I60
sS'\xe2\x9d\xa4\xef\xb8\x8f'
p92
I74
sS'flores'
p93
I78
sS'studio'
p94
I74
sS'cart'
p95
I79
sS'personified'
p96
I79
sS'100'
p97
I79
sS"aren't"
p98
I78
sS'tatum'
p99
I78
sS'104'
p100
I79
sS'birthdayenjoy'
p101
I79
sS'kids'
p102
I78
sS'daughter'
p103
I79
sS'items'
p104
I79
sS'k'
p105
I77
sS'changed'
p106
I78
sS'"why'
p107
I79
sS'2048'
p108
I79
sS'pinning'
p109
I79
sS"i'd"
p110
I73
sS'mentos'
p111
I79
sS'smoke'
p112
I77
sS"i'm"
p113
I11
sS'swappable'
p114
I79
sS'golden'
p115
I79
sS'fantastic'
p116
I76
sS'hunch'
p117
I79
sS'strap'
p118
I79
sS'brought'
p119
I78
sS'patience'
p120
I79
sS'best\xe2\x80\x9d'
p121
I79
sS'cocaine'
p122
I79
sS'fribae'
p123
I78
sS'rancho'
p124
I79
sS'would'
p125
I61
sS'sweater'
p126
I79
sS'achieve'
p127
I79
sS"world's"
p128
I79
sS'craving'
p129
I79
sS'cali'
p130
I79
sS'music'
p131
I73
sS'calm'
p132
I77
sS'unfortunately'
p133
I79
sS'survive'
p134
I79
sS'type'
p135
I79
sS'until'
p136
I77
sS'reevaluate'
p137
I79
sS'posting'
p138
I79
sS'holy'
p139
I77
sS'successful'
p140
I79
sS'brings'
p141
I79
sS'expose'
p142
I79
sS'haha'
p143
I64
sS'subtweet'
p144
I77
sS'frozen\xe2\x9d\x84\xef\xb8\x8f\xe2\x9b\x84\xef\xb8\x8f'
p145
I79
sS'hurt'
p146
I79
sS'phone'
p147
I75
sS'achilles'
p148
I79
sS'warm'
p149
I79
sS'surgeon'
p150
I79
sS'adult'
p151
I79
sS'breaths'
p152
I79
sS'nagging'
p153
I79
sS'hold'
p154
I78
sS'"exhilarating"'
p155
I79
sS'97'
p156
I79
sS'must'
p157
I76
sS'me'
p158
I9
sS'join'
p159
I79
sS'room'
p160
I76
sS'err'
p161
I79
sS'rights'
p162
I79
sS'work'
p163
I54
sS'movies'
p164
I78
sS'cuddle'
p165
I79
sS'era'
p166
I79
sS'ms'
p167
I79
sS'mr'
p168
I78
sS'my'
p169
I6
sS'could'
p170
I71
sS'saturday'
p171
I77
sS'vodka'
p172
I79
sS'give'
p173
I71
sS'indie'
p174
I79
sS'stressing'
p175
I78
sS'la"'
p176
I79
sS'honey'
p177
I79
sS'currency'
p178
I79
sS'homie'
p179
I74
sS'23:49:43.0,34.16549291,-118.30349623,3016.02,i'
p180
I79
sS'want'
p181
I47
sS'"afraid"'
p182
I79
sS'maleficent'
p183
I79
sS'appointment'
p184
I79
sS'david'
p185
I79
sS'guarantee'
p186
I79
sS'ceremony'
p187
I79
sS'end'
p188
I76
sS'recovery'
p189
I79
sS'skyler'
p190
I79
sS'thing'
p191
I71
sS'hoo'
p192
I79
sS'yaasssss'
p193
I79
sS'id'
p194
I77
sS'machine'
p195
I79
sS'how'
p196
I36
sS'hot'
p197
I66
sS'answer'
p198
I79
sS'butting'
p199
I79
sS'beach'
p200
I75
sS'pizza'
p201
I77
sS'ovr'
p202
I79
sS'over-sized'
p203
I79
sS'fever'
p204
I79
sS'bday'
p205
I79
sS'after'
p206
I75
sS'demanding'
p207
I79
sS'wrong'
p208
I76
sS'tricopter'
p209
I79
sS'hollister'
p210
I79
sS'suing'
p211
I79
sS'law'
p212
I79
sS'parallel'
p213
I79
sS'superbad'
p214
I79
sS'danny'
p215
I79
sS'gummie'
p216
I79
sS'third'
p217
I79
sS'chillen'
p218
I79
sS'croissant'
p219
I78
sS'seduce'
p220
I79
sS'appreciate'
p221
I78
sS'lololol'
p222
I79
sS'imbedded'
p223
I79
sS'greek'
p224
I79
sS'luvvving'
p225
I79
sS'green'
p226
I77
sS'goodbye'
p227
I79
sS'keeps'
p228
I79
sS'fan'
p229
I79
sS"fori'd"
p230
I79
sS'wine'
p231
I79
sS'salon'
p232
I79
sS'office'
p233
I79
sS'wut'
p234
I76
sS'over'
p235
I58
sS'bleach'
p236
I79
sS'fab'
p237
I79
sS'keyboard'
p238
I79
sS'nets'
p239
I79
sS'before'
p240
I75
sS'ima'
p241
I79
sS'fittings'
p242
I78
sS'fit'
p243
I79
sS'personal'
p244
I79
sS'starbuxxxx'
p245
I79
sS'doung'
p246
I79
sS'expectations'
p247
I79
sS'crew'
p248
I77
sS'better'
p249
I68
sS'production'
p250
I79
sS'weeks'
p251
I76
sS'prius'
p252
I79
sS'belly'
p253
I79
sS'then'
p254
I63
sS'them'
p255
I65
sS'xxoo'
p256
I79
sS'foolio'
p257
I79
sS'workout'
p258
I78
sS"we'll"
p259
I78
sS'break'
p260
I78
sS'band'
p261
I77
sS'giraffe'
p262
I79
sS'they'
p263
I59
sS'one'
p264
I46
sS'silver'
p265
I74
sS'saddened'
p266
I79
sS'kicking'
p267
I79
sS'l'
p268
I77
sS'goddamn'
p269
I79
sS'chicksxsticks'
p270
I79
sS'victory'
p271
I73
sS'each'
p272
I79
sS'greattttttttttt'
p273
I79
sS'went'
p274
I73
sS'side'
p275
I75
sS'mean'
p276
I70
sS'train'
p277
I79
sS'bowls'
p278
I79
sS'taught'
p279
I78
sS'lifter'
p280
I79
sS'stealing'
p281
I78
sS'ring'
p282
I78
sS'rt'
p283
I73
sS'driving'
p284
I79
sS'oprah'
p285
I79
sS'god'
p286
I70
sS'george'
p287
I79
sS'strangers'
p288
I79
sS'is*'
p289
I79
sS'got'
p290
I38
sS'rn'
p291
I62
sS'washes'
p292
I79
sS'forth'
p293
I79
sS'flashy'
p294
I79
sS'turning'
p295
I79
sS'cutest'
p296
I79
sS"you're"
p297
I63
sS'leopard'
p298
I79
sS'given'
p299
I79
sS'free'
p300
I77
sS'l\xe2\x9d\xa4\xef\xb8\x8fve'
p301
I79
sS'appointments'
p302
I79
sS'icky'
p303
I79
sS'corrects'
p304
I79
sS'scoped'
p305
I79
sS'lisa'
p306
I79
sS'wanted'
p307
I72
sS'soundcloud'
p308
I79
sS'ate'
p309
I78
sS'auditioned'
p310
I78
sS'created'
p311
I79
sS'starts'
p312
I79
sS'atm'
p313
I79
sS'days'
p314
I72
sS'outfits'
p315
I77
sS'disturbed'
p316
I79
sS"today's"
p317
I78
sS'soda'
p318
I79
sS'mini-homemade-celebratory'
p319
I79
sS'fuckin'
p320
I78
sS'angelou'
p321
I79
sS'already'
p322
I69
sS'lol\xe2\x80\x9d'
p323
I79
sS'unfollowed'
p324
I78
sS'grade'
p325
I79
sS'beyonce\xe2\x80\x9d'
p326
I79
sS'hunned'
p327
I79
sS'veggie'
p328
I79
sS'hearing'
p329
I79
sS'wash'
p330
I77
sS'another'
p331
I74
sS'mings'
p332
I79
sS'thick'
p333
I79
sS'hood'
p334
I77
sS'service'
p335
I78
sS'sarcasm'
p336
I79
sS'top'
p337
I77
sS'girls'
p338
I73
sS'fml'
p339
I78
sS"he'll"
p340
I79
sS'needed'
p341
I79
sS'dumbass'
p342
I78
sS'too'
p343
I54
sS'uh'
p344
I79
sS'hollywood'
p345
I78
sS'legs'
p346
I79
sS'bitter'
p347
I78
sS'lollllllllllllllllllll'
p348
I79
sS'listen'
p349
I78
sS'urban'
p350
I78
sS'kno'
p351
I79
sS'centered'
p352
I79
sS'bacon'
p353
I79
sS'gym'
p354
I78
sS'took'
p355
I78
sS'wisdom'
p356
I79
sS'keke'
p357
I79
sS'is\xe2\x80\x9d'
p358
I79
sS'nahi'
p359
I79
sS'injected'
p360
I79
sS'begins'
p361
I79
sS'nail'
p362
I77
sS'asssss'
p363
I79
sS'orgasm'
p364
I79
sS'crosses'
p365
I79
sS'tree'
p366
I79
sS'second'
p367
I79
sS'preparation'
p368
I79
sS'matter'
p369
I78
sS'fabulous'
p370
I77
sS"rnyj'zph"
p371
I79
sS'hottie'
p372
I79
sS'seater'
p373
I79
sS'powerade'
p374
I79
sS'hacking'
p375
I79
sS'feeling'
p376
I74
sS'mini'
p377
I79
sS'fashion'
p378
I76
sS'esta'
p379
I79
sS'ran'
p380
I79
sS'portraits'
p381
I79
sS'modern'
p382
I78
sS'mind'
p383
I73
sS'mine'
p384
I77
sS'drip'
p385
I79
sS'trip'
p386
I79
sS'talking'
p387
I75
sS'guapo'
p388
I79
sS'rap'
p389
I79
sS'seen'
p390
I78
sS'mins'
p391
I78
sS'mint'
p392
I79
sS'contents'
p393
I79
sS'it\xe2\x80\x9d'
p394
I79
sS'uninformed'
p395
I79
sS'-'
p396
I65
sS'kaya'
p397
I79
sS'asians>'
p398
I79
sS'neverland'
p399
I79
sS'fitting'
p400
I79
sS'chocolate--but'
p401
I79
sS'brains'
p402
I79
sS'bfffffff'
p403
I79
sS'reals'
p404
I79
sS'toein'
p405
I79
sS'dere-lick'
p406
I79
sS'blue'
p407
I76
sS'summmin'
p408
I79
sS'though'
p409
I76
sS'doin'
p410
I79
sS'dial'
p411
I79
sS'looming'
p412
I79
sS'kelly'
p413
I79
sS'regular'
p414
I79
sS'germany'
p415
I79
sS"'91-"
p416
I79
sS'tyt'
p417
I79
sS'jean'
p418
I78
sS'yes--and'
p419
I79
sS'episode'
p420
I76
sS'menswear'
p421
I79
sS'released'
p422
I79
sS'consumed'
p423
I79
sS'm'
p424
I79
sS'dog'
p425
I69
sS'doe'
p426
I78
sS'freeway'
p427
I77
sS'definitely'
p428
I77
sS'deeply'
p429
I79
sS'yessssssss'
p430
I79
sS'responded'
p431
I79
sS'came'
p432
I76
sS'saying'
p433
I77
sS'bomb'
p434
I79
sS'inspire'
p435
I79
sS'opinions'
p436
I79
sS'surgery\xe2\x80\x9d'
p437
I79
sS'random'
p438
I79
sS'loubs'
p439
I79
sS'ending'
p440
I79
sS'colors'
p441
I79
sS'radio'
p442
I79
sS'earth'
p443
I78
sS'tempted'
p444
I79
sS'imploded'
p445
I79
sS'enjoyed'
p446
I78
sS'toast'
p447
I79
sS'orleans'
p448
I79
sS'busy'
p449
I78
sS'yaaasss'
p450
I79
sS'mi\xc3\xa9rcoles'
p451
I79
sS'saludos'
p452
I79
sS'sugar'
p453
I79
sS'rihanna'
p454
I79
sS'bliss'
p455
I79
sS'rick'
p456
I79
sS'neyosit'
p457
I79
sS'mend'
p458
I79
sS'chipotle'
p459
I79
sS'rice'
p460
I79
sS'wearing'
p461
I72
sS'do'
p462
I31
sS'dm'
p463
I78
sS'dj'
p464
I78
sS'klein'
p465
I79
sS'de'
p466
I77
sS'watch'
p467
I75
sS"homework'll"
p468
I79
sS'da'
p469
I74
sS'geek'
p470
I79
sS'amazon'
p471
I79
sS'wedding'
p472
I78
sS'report'
p473
I79
sS'poutine'
p474
I79
sS'happiest'
p475
I78
sS'dr'
p476
I78
sS'net'
p477
I79
sS'lmao'
p478
I65
sS'earn'
p479
I79
sS'officially'
p480
I78
sS'bay'
p481
I79
sS'bag'
p482
I78
sS'bad'
p483
I67
sS'bae'
p484
I69
sS'fitted'
p485
I79
sS'poldi'
p486
I79
sS'ban'
p487
I79
sS'bam'
p488
I79
sS'ears'
p489
I78
sS'respond'
p490
I79
sS'fault'
p491
I79
sS'blew'
p492
I79
sS'w/'
p493
I73
sS'liquor'
p494
I79
sS'lemonade'
p495
I79
sS'laaaates'
p496
I78
sS'decided'
p497
I78
sS'submitted'
p498
I79
sS'holding'
p499
I79
sS'best'
p500
I65
sS'pebbles'
p501
I79
sS'said'
p502
I74
sS'onto'
p503
I79
sS'inappropriate'
p504
I78
sS'lots'
p505
I79
sS'away'
p506
I66
sS'rushing'
p507
I79
sS'"oh'
p508
I79
sS"there's"
p509
I77
sS'irl'
p510
I79
sS'hopefully'
p511
I79
sS'sorts'
p512
I79
sS'indecisive'
p513
I79
sS'lazy'
p514
I76
sS'men'
p515
I78
sS'omg'
p516
I27
sS'wears'
p517
I79
sS'adding'
p518
I79
sS'weak'
p519
I78
sS'boise'
p520
I79
sS'nahhh'
p521
I79
sS'wear'
p522
I71
sS'wtf'
p523
I64
sS'poisoning'
p524
I79
sS'news'
p525
I78
sS'kitchen'
p526
I79
sS'cop'
p527
I79
sS'goddess'
p528
I78
sS'tfti'
p529
I79
sS'showing\xe2\x80\xa6'
p530
I79
sS'met'
p531
I78
sS'country'
p532
I78
sS'ill'
p533
I79
sS'canuk'
p534
I79
sS'jelly'
p535
I78
sS'bodysuit'
p536
I77
sS'brag'
p537
I79
sS'planned'
p538
I79
sS'lookin'
p539
I79
sS'(12.95)...car'
p540
I79
sS'asked'
p541
I76
sS'ily'
p542
I76
sS'boys>'
p543
I79
sS'triunfo'
p544
I79
sS'canyon'
p545
I79
sS'blonde'
p546
I78
sS'trust'
p547
I79
sS'speak'
p548
I79
sS'conference'
p549
I79
sS'bathroom'
p550
I79
sS'tint'
p551
I79
sS'rsxrs'
p552
I79
sS'angel'
p553
I78
sS'shouting'
p554
I79
sS'chrome'
p555
I79
sS'\xe2\x80\x9cart'
p556
I79
sS'way\xc2\xbf'
p557
I79
sS'been'
p558
I59
sS'spur'
p559
I74
sS"phuckin'"
p560
I79
sS'beer'
p561
I76
sS'much'
p562
I45
sS'basic'
p563
I73
sS'privilege'
p564
I78
sS'flexible'
p565
I79
sS'lovely'
p566
I79
sS'duties'
p567
I79
sS'threw'
p568
I78
sS'chug'
p569
I79
sS'life'
p570
I57
sS'spit'
p571
I79
sS'drugs'
p572
I79
sS'16%'
p573
I79
sS'sooooo'
p574
I77
sS'ariana'
p575
I79
sS'fest'
p576
I79
sS'168'
p577
I78
sS'child'
p578
I79
sS'catch'
p579
I79
sS'hops."'
p580
I79
sS'spin'
p581
I79
sS'has'
p582
I53
sS'sculpt'
p583
I79
sS'n'
p584
I63
sS'strangest'
p585
I79
sS'ugly'
p586
I79
sS'near'
p587
I79
sS',91201\n521862350735826944,gurrruohm,2014-10-14'
p588
I79
sS'voice'
p589
I76
sS'leaves'
p590
I78
sS'mistake'
p591
I78
sS'pyramid'
p592
I79
sS'mexico'
p593
I79
sS'thursdays'
p594
I79
sS'is'
p595
I8
sS'sushi'
p596
I79
sS'it'
p597
I14
sS'ii'
p598
I79
sS'player'
p599
I77
sS'cant'
p600
I79
sS'dizzy'
p601
I79
sS'im'
p602
I70
sS'piercings'
p603
I79
sS'in'
p604
I13
sS'casting'
p605
I79
sS'mouse'
p606
I79
sS'south*'
p607
I79
sS'trusted'
p608
I79
sS'if'
p609
I37
sS'grown'
p610
I79
sS'itunes'
p611
I79
sS'memorial'
p612
I79
sS'nike'
p613
I79
sS'things'
p614
I69
sS'make'
p615
I46
sS'greatttttt'
p616
I79
sS'airport'
p617
I78
sS'yero_tv'
p618
I79
sS'myself/by'
p619
I79
sS'split'
p620
I79
sS'babies'
p621
I79
sS'couple'
p622
I79
sS'cleveland.\xe2\x80\x9d'
p623
I79
sS'yung'
p624
I79
sS'wheel'
p625
I79
sS'meets'
p626
I79
sS'alittle'
p627
I78
sS'social'
p628
I78
sS'hang'
p629
I76
sS'rain'
p630
I79
sS'hand'
p631
I78
sS'fridays'
p632
I79
sS'portal'
p633
I78
sS'kim'
p634
I76
sS'jealous'
p635
I79
sS'aka'
p636
I78
sS'kid'
p637
I78
sS'butter'
p638
I79
sS'prescribed'
p639
I79
sS'practiced'
p640
I79
sS'thx'
p641
I71
sS'1975'
p642
I79
sS'congrats'
p643
I76
sS'dada'
p644
I79
sS'kyle'
p645
I79
sS'tho'
p646
I67
sS'practices'
p647
I79
sS'grandville'
p648
I79
sS'"giants"'
p649
I79
sS'mother'
p650
I77
sS'claims'
p651
I79
sS'the'
p652
I2
sS'left'
p653
I77
sS'rjfs'
p654
I72
sS'background'
p655
I79
sS'just'
p656
I20
sS'sentence'
p657
I79
sS'photo'
p658
I78
sS'unfollow'
p659
I79
sS'sleepy'
p660
I79
sS'elysse'
p661
I79
sS'quotes'
p662
I78
sS'thanks'
p663
I65
sS'cape'
p664
I79
sS'yes'
p665
I64
sS'yet'
p666
I68
sS'hah'
p667
I78
sS'hai'
p668
I79
sS'cherry'
p669
I79
sS'had'
p670
I62
sS'show....kind'
p671
I79
sS'shout'
p672
I79
sS'spread'
p673
I77
sS'easy'
p674
I79
sS'save'
p675
I78
sS'canuks'
p676
I79
sS'breaky'
p677
I79
sS'maya'
p678
I78
sS'appreciated'
p679
I79
sS'vanessa'
p680
I79
sS'bands'
p681
I78
sS'tmrw'
p682
I68
sS'discreet'
p683
I79
sS'sparkly"'
p684
I79
sS'birth'
p685
I79
sS'back?!\xe2\x80\x9d'
p686
I79
sS'bee..walking'
p687
I79
sS'apart'
p688
I79
sS'bro'
p689
I79
sS'59'
p690
I79
sS'ditto'
p691
I78
sS'texts'
p692
I78
sS'lily'
p693
I78
sS'lowkey"'
p694
I79
sS'50'
p695
I78
sS'theyre'
p696
I79
sS'steps'
p697
I79
sS'5+'
p698
I79
sS'night'
p699
I67
sS'on~~it'
p700
I79
sS'oncoming'
p701
I79
sS'right'
p702
I61
sS'old'
p703
I69
sS'deal'
p704
I78
sS'people'
p705
I67
sS'reeeally'
p706
I79
sS'somehow'
p707
I78
sS'acai'
p708
I76
sS'hyaena*'
p709
I79
sS'shake"'
p710
I79
sS'poolside'
p711
I79
sS'dear'
p712
I76
sS'multiple'
p713
I79
sS'ignore'
p714
I79
sS'humor'
p715
I79
sS'for'
p716
I15
sS'fox'
p717
I79
sS'comments'
p718
I78
sS'brb'
p719
I79
sS'filming'
p720
I78
sS'fog'
p721
I79
sS'shakespeare'
p722
I79
sS'artist/musician'
p723
I79
sS'420'
p724
I79
sS'3:30'
p725
I78
sS'who'
p726
I54
sS'pls'
p727
I73
sS'energy'
p728
I79
sS'extraordinaire'
p729
I79
sS'disappeared'
p730
I79
sS'olsen'
p731
I79
sS'losing'
p732
I79
sS'post'
p733
I71
sS'pll'
p734
I79
sS'super'
p735
I75
sS"5'"
p736
I79
sS'gartner'
p737
I79
sS'pausing'
p738
I79
sS'hexacopter'
p739
I77
sS'vaginas'
p740
I79
sS'ribs'
p741
I79
sS'valentines'
p742
I79
sS'o'
p743
I77
sS'sprinklers'
p744
I79
sS'dinner'
p745
I78
sS'stoked'
p746
I77
sS'slightly'
p747
I79
sS'match'
p748
I79
sS'bath'
p749
I79
sS'mbn'
p750
I78
sS'thinner'
p751
I79
sS'cap-e-tan'
p752
I79
sS'civil'
p753
I79
sS'selfie'
p754
I77
sS'son'
p755
I76
sS'down'
p756
I63
sS'thankful'
p757
I79
sS'sos'
p758
I79
sS'tonight\xe2\x9c\xa8'
p759
I79
sS'shoots'
p760
I79
sS'rant'
p761
I79
sS'anorexic'
p762
I79
sS'beth'
p763
I79
sS'fabric'
p764
I79
sS'support'
p765
I79
sS'flying'
p766
I78
sS'jealousy'
p767
I79
sS'class'
p768
I75
sS'stuck'
p769
I76
sS'^av\xe2\x80\x9d'
p770
I79
sS'way'
p771
I68
sS'wax'
p772
I78
sS'call'
p773
I71
sS'boyohboyohboyohboy'
p774
I79
sS'was'
p775
I27
sS'hdybyz'
p776
I79
sS'happy'
p777
I58
sS'head'
p778
I75
sS'northridge'
p779
I79
sS'attempted'
p780
I79
sS'becoming'
p781
I77
sS'converse'
p782
I78
sS'cuban'
p783
I79
sS'tyvm~all'
p784
I79
sS'garments'
p785
I79
sS'heat'
p786
I77
sS'hear'
p787
I77
sS'true'
p788
I74
sS'congratulations'
p789
I79
sS'responding'
p790
I79
sS'fairchild'
p791
I79
sS'happen'
p792
I73
sS'born'
p793
I79
sS'admittin'
p794
I79
sS'limousine'
p795
I79
sS'inside'
p796
I78
sS'mtv'
p797
I79
sS'clubs'
p798
I79
sS'tell'
p799
I66
sS'apostles'
p800
I79
sS'adore'
p801
I79
sS'atta'
p802
I79
sS'totoro'
p803
I78
sS'scream'
p804
I79
sS'daddy'
p805
I76
sS'frands'
p806
I79
sS'delete'
p807
I79
sS'diagnose'
p808
I79
sS'emoticon'
p809
I79
sS'later'
p810
I73
sS'liberal'
p811
I79
sS'puerto'
p812
I79
sS'classic'
p813
I79
sS'naahhhhhhhhhhh'
p814
I79
sS'vegas-fantastic'
p815
I79
sS'covers'
p816
I78
sS'drive'
p817
I78
sS'(sorry'
p818
I79
sS'sometime'
p819
I78
sS'exist'
p820
I79
sS'fashioned'
p821
I79
sS'muffins'
p822
I79
sS'annoying'
p823
I77
sS'mold'
p824
I79
sS'check'
p825
I72
sS'shit'
p826
I53
sS'holla'
p827
I79
sS'vista'
p828
I79
sS'nl'
p829
I79
sS'dying'
p830
I78
sS'floor'
p831
I77
sS'when'
p832
I43
sS'reality'
p833
I79
sS'ny'
p834
I79
sS'interested'
p835
I79
sS'meowt'
p836
I79
sS'whet'
p837
I78
sS'oscar'
p838
I79
sS'test'
p839
I79
sS'smell'
p840
I79
sS'roll'
p841
I79
sS"kim's"
p842
I79
sS'meeeee'
p843
I79
sS'picture'
p844
I77
sS'sink'
p845
I79
sS"'s"
p846
I78
sS'snarky'
p847
I79
sS'eiffel'
p848
I79
sS'update'
p849
I78
sS'diet'
p850
I79
sS"let's"
p851
I70
sS'fell'
p852
I79
sS'award'
p853
I79
sS'smelling'
p854
I79
sS'rolling'
p855
I79
sS'transfers'
p856
I79
sS'weekend'
p857
I76
sS'died'
p858
I79
sS'happening'
p859
I79
sS'apology'
p860
I79
sS'moved'
p861
I78
sS'contacts'
p862
I79
sS'together'
p863
I75
sS'jacket'
p864
I79
sS'vietnam'
p865
I79
sS'7am'
p866
I79
sS'time'
p867
I51
sS'push'
p868
I79
sS'serious'
p869
I79
sS'songs'
p870
I77
sS':/'
p871
I71
sS':('
p872
I74
sS':)'
p873
I61
sS'dance'
p874
I78
sS'glam'
p875
I79
sS'ouch'
p876
I79
sS'laura'
p877
I79
sS'hdyxbyz'
p878
I79
sS'manager'
p879
I79
sS'anons'
p880
I79
sS'ice'
p881
I77
sS'grateful'
p882
I79
sS'skiing'
p883
I79
sS'rop'
p884
I77
sS'milk'
p885
I79
sS'row'
p886
I79
sS"code's"
p887
I79
sS'meryl'
p888
I79
sS'everything'
p889
I75
sS'flash'
p890
I79
sS'father'
p891
I79
sS'prom'
p892
I79
sS'whattttt'
p893
I79
sS'0'
p894
I79
sS'finally'
p895
I73
sS'asking'
p896
I79
sS'gigi'
p897
I78
sS'nugs'
p898
I78
sS'agreed'
p899
I79
sS'glamorous--check'
p900
I79
sS'rebecca'
p901
I79
sS'brown'
p902
I79
sS':o'
p903
I79
sS'03:17:34.0,34.16547677,-118.30350512,3016.02,ooga'
p904
I79
sS':d'
p905
I79
sS'iggy'
p906
I79
sS'none'
p907
I78
sS'vegan'
p908
I79
sS'choice'
p909
I79
sS'ale=better+less'
p910
I79
sS'vegas'
p911
I79
sS'anonymous'
p912
I79
sS'kitten'
p913
I78
sS'cook'
p914
I79
sS'word'
p915
I78
sS'trouble'
p916
I78
sS'sonora'
p917
I77
sS'cool'
p918
I71
sS'pogba'
p919
I79
sS'din'
p920
I79
sS'dating'
p921
I79
sS'"glad'
p922
I79
sS'did'
p923
I62
sS'die'
p924
I78
sS'peeps'
p925
I79
sS'brother'
p926
I79
sS'turnt'
p927
I78
sS'travels'
p928
I79
sS'soooo'
p929
I79
sS'hittin'
p930
I79
sS'team'
p931
I76
sS'quick'
p932
I77
sS'guy'
p933
I70
sS'round'
p934
I79
sS'dis'
p935
I74
sS'blade'
p936
I79
sS'trend'
p937
I79
sS'sign'
p938
I77
sS'cost'
p939
I79
sS'anaconda'
p940
I78
sS'sayo'
p941
I79
sS'yakult'
p942
I79
sS'bake'
p943
I79
sS'fear'
p944
I79
sS'h/t'
p945
I79
sS'uniform'
p946
I79
sS'rub'
p947
I79
sS'goes'
p948
I71
sS'falling'
p949
I79
sS'order'
p950
I79
sS'filled'
p951
I79
sS'(glendale'
p952
I77
sS'angelina'
p953
I79
sS'understanding'
p954
I79
sS'water'
p955
I79
sS'pause'
p956
I79
sS'alone'
p957
I79
sS'along'
p958
I79
sS'change'
p959
I78
sS'wait'
p960
I65
sS'box'
p961
I77
sS'boy'
p962
I76
sS'thirty'
p963
I79
sS'brilliant'
p964
I78
sS'shift'
p965
I79
sS'cinnamon'
p966
I78
sS'boo'
p967
I76
sS'weird'
p968
I76
sS'itttttt'
p969
I79
sS'nowhere'
p970
I79
sS'engineer'
p971
I79
sS'love'
p972
I25
sS'extra'
p973
I75
sS'patrias'
p974
I79
sS'yogurt\xe2\x80\x9d'
p975
I79
sS'://////\xe2\x80\x9d'
p976
I79
sS'moraine'
p977
I79
sS'bullington'
p978
I79
sS'fake'
p979
I78
sS'touchdown'
p980
I79
sS'pony'
p981
I79
sS'should'
p982
I77
sS'peep'
p983
I79
sS'post-'
p984
I79
sS'gonzo'
p985
I79
sS'franco'
p986
I79
sS'working'
p987
I77
sS'positive'
p988
I79
sS'visit'
p989
I75
sS'only'
p990
I59
sS'sports'
p991
I79
sS'live'
p992
I74
sS'jam'
p993
I79
sS'ayy'
p994
I78
sS'iphone'
p995
I79
sS'wondering'
p996
I79
sS'experience'
p997
I79
sS'scope'
p998
I78
sS'thru'
p999
I78
sS'angels'
p1000
I79
sS'today'
p1001
I46
sS'loving'
p1002
I77
sS'marbles'
p1003
I79
sS'apparent'
p1004
I79
sS'chocolate'
p1005
I78
sS'everywhere'
p1006
I78
sS'sequoia'
p1007
I79
sS'effort'
p1008
I79
sS'douche'
p1009
I79
sS'car'
p1010
I70
sS'cap'
p1011
I79
sS'soul'
p1012
I77
sS'jude'
p1013
I79
sS'cat'
p1014
I76
sS'purge'
p1015
I79
sS'attacks'
p1016
I79
sS'can'
p1017
I38
sS'cal'
p1018
I79
sS'growing'
p1019
I77
sS'making'
p1020
I75
sS'gr8ly'
p1021
I79
sS'natasha'
p1022
I79
sS'heart'
p1023
I78
sS'crazy'
p1024
I76
sS'months'
p1025
I79
sS':d\xe2\x80\x9d'
p1026
I79
sS'figure'
p1027
I79
sS'awesome'
p1028
I75
sS"didn't"
p1029
I66
sS'confused'
p1030
I78
sS'topic'
p1031
I79
sS'heard'
p1032
I76
sS'burbank'
p1033
I78
sS'naenae'
p1034
I79
sS'vallarta'
p1035
I79
sS'(included)...transmission'
p1036
I79
sS'spa'
p1037
I78
sS'clothing'
p1038
I79
sS'pink'
p1039
I75
sS'cunnilinguini'
p1040
I79
sS'productive'
p1041
I79
sS'winter'
p1042
I79
sS'tube'
p1043
I79
sS'watching'
p1044
I72
sS'1'
p1045
I72
sS'till'
p1046
I79
sS'sunday'
p1047
I77
sS'fpv'
p1048
I79
sS'prenup'
p1049
I78
sS'elephant'
p1050
I79
sS'\xe2\x9d\xa4\xef\xb8\x8f\xe2\x9d\xa4\xef\xb8\x8f\xe2\x9d\xa4\xef\xb8\x8f'
p1051
I79
sS'pint'
p1052
I79
sS'staying'
p1053
I79
sS'designer'
p1054
I78
sS'6...usually'
p1055
I79
sS'skates'
p1056
I79
sS'cocktail'
p1057
I79
sS'may'
p1058
I75
sS'ponies'
p1059
I79
sS'spot'
p1060
I79
sS'stil'
p1061
I79
sS'comin'
p1062
I79
sS'crashed'
p1063
I79
sS'birthday'
p1064
I73
sS'mad'
p1065
I76
sS'date'
p1066
I77
sS'such'
p1067
I70
sS'suck'
p1068
I76
sS'guys'
p1069
I56
sS'avengers'
p1070
I79
sS'repeat'
p1071
I79
sS'man'
p1072
I71
sS'stress'
p1073
I79
sS'remember'
p1074
I72
sS'conscious'
p1075
I79
sS'maybe'
p1076
I74
sS'swangin'
p1077
I78
sS'su'
p1078
I79
sS'st'
p1079
I79
sS'si'
p1080
I79
sS'mango'
p1081
I78
sS'so'
p1082
I12
sS'tunes'
p1083
I79
sS"around'"
p1084
I79
sS'basket'
p1085
I79
sS'wtvr'
p1086
I79
sS'travel'
p1087
I79
sS'talk'
p1088
I75
sS'cute'
p1089
I67
sS'tagged'
p1090
I78
sS'shoes'
p1091
I77
sS'indeed'
p1092
I79
sS'haircut'
p1093
I78
sS'wishing'
p1094
I76
sS'years'
p1095
I75
sS'course'
p1096
I77
sS'aha'
p1097
I79
sS'lyric'
p1098
I79
sS'kanye'
p1099
I79
sS'cold'
p1100
I79
sS'still'
p1101
I56
sS'irene'
p1102
I75
sS'thank'
p1103
I60
sS"he's"
p1104
I76
sS'=)'
p1105
I75
sS'bagels'
p1106
I79
sS'rondo'
p1107
I79
sS'curls'
p1108
I79
sS'amazing'
p1109
I66
sS"he'd"
p1110
I79
sS'maid'
p1111
I79
sS'window'
p1112
I79
sS'farmer'
p1113
I79
sS'tweets'
p1114
I76
sS'showered'
p1115
I79
sS'texas'
p1116
I79
sS'happened'
p1117
I77
sS'amazingggg'
p1118
I79
sS'non'
p1119
I79
sS'moms'
p1120
I78
sS'devastated'
p1121
I78
sS'feelin'
p1122
I79
sS'lunch'
p1123
I76
sS'srsly'
p1124
I75
sS'*laughs'
p1125
I79
sS'tails'
p1126
I79
sS'half'
p1127
I78
sS'not'
p1128
I28
sS'now'
p1129
I45
sS'killed'
p1130
I78
sS'wont'
p1131
I79
sS'layering'
p1132
I79
sS'name'
p1133
I72
sS'eewwwww'
p1134
I79
sS'"shamrock'
p1135
I79
sS'clutch'
p1136
I79
sS'drop'
p1137
I78
sS'locked'
p1138
I79
sS'rock'
p1139
I78
sS'avi>'
p1140
I79
sS'muchas'
p1141
I79
sS'hoy'
p1142
I79
sS'reminds'
p1143
I79
sS'vogue'
p1144
I79
sS'em'
p1145
I76
sS'el'
p1146
I79
sS'en'
p1147
I79
sS'fired'
p1148
I79
sS'receipt'
p1149
I79
sS'directing'
p1150
I79
sS'yeah'
p1151
I79
sS'boosie'
p1152
I79
sS'5/23'
p1153
I79
sS'catching'
p1154
I78
sS'circus'
p1155
I79
sS'year'
p1156
I71
sS'ft'
p1157
I79
sS'girl'
p1158
I56
sS'worried'
p1159
I79
sS'ep'
p1160
I79
sS'neighbourhood'
p1161
I79
sS'plans'
p1162
I79
sS'album'
p1163
I78
sS'living'
p1164
I78
sS'quokka'
p1165
I79
sS'looking'
p1166
I78
sS'attracted'
p1167
I79
sS'seriously'
p1168
I76
sS'penguins'
p1169
I79
sS'mametown'
p1170
I79
sS"shouldn't"
p1171
I79
sS'hacked'
p1172
I79
sS'internet'
p1173
I77
sS'correct'
p1174
I79
sS'shows'
p1175
I79
sS'goth'
p1176
I79
sS'earlier'
p1177
I78
sS'riffle'
p1178
I79
sS'"infected"'
p1179
I79
sS'boobs'
p1180
I77
sS'possibility'
p1181
I79
sS'yassss'
p1182
I79
sS'lmk'
p1183
I79
sS'california'
p1184
I77
sS'jacks'
p1185
I79
sS'grandma'
p1186
I79
sS'inevitable'
p1187
I79
sS'card'
p1188
I79
sS'clurrrb'
p1189
I79
sS'partner'
p1190
I79
sS'training'
p1191
I79
sS"100'"
p1192
I79
sS'yup'
p1193
I78
sS'100%'
p1194
I79
sS'directing)'
p1195
I79
sS'british'
p1196
I79
sS'honest'
p1197
I78
sS'motion'
p1198
I79
sS'turn'
p1199
I74
sS'okehh'
p1200
I79
sS'place'
p1201
I74
sS'think'
p1202
I62
sS'first'
p1203
I66
sS'cheese'
p1204
I79
sS'hoppin'
p1205
I79
sS'xo'
p1206
I78
sS'xoxo'
p1207
I79
sS'xd'
p1208
I79
sS'yourself'
p1209
I77
sS'xx'
p1210
I79
sS'long'
p1211
I72
sS'sparkles'
p1212
I79
sS'vote'
p1213
I79
sS'chubby'
p1214
I79
sS'sounds'
p1215
I74
sS'fight'
p1216
I79
sS'open'
p1217
I79
sS'tomorrow'
p1218
I69
sS'size'
p1219
I78
sS'city'
p1220
I79
sS'little'
p1221
I72
sS'boulevard'
p1222
I79
sS'checked'
p1223
I79
sS'district'
p1224
I79
sS'bag...no'
p1225
I79
sS'slept'
p1226
I79
sS'dressed'
p1227
I79
sS'plastic'
p1228
I79
sS'anyone'
p1229
I71
sS'crack"'
p1230
I79
sS'2'
p1231
I57
sS'white'
p1232
I76
sS'national'
p1233
I79
sS'friend'
p1234
I74
sS'bloodshed'
p1235
I79
sS'eyes'
p1236
I72
sS'whedon'
p1237
I79
sS'on/'
p1238
I79
sS'billyrock'
p1239
I79
sS'that'
p1240
I16
sS'legit,91201\n521809628061921280,gurrruohm,2014-10-13'
p1241
I79
sS'season'
p1242
I75
sS'moscow'
p1243
I79
sS"men's"
p1244
I79
sS'huh'
p1245
I75
sS'horchata'
p1246
I79
sS'boba'
p1247
I78
sS'southbound'
p1248
I79
sS'cops'
p1249
I79
sS'hur'
p1250
I79
sS'butt'
p1251
I78
sS'on2'
p1252
I79
sS'flowers'
p1253
I78
sS'than'
p1254
I67
sS'11'
p1255
I79
sS'10'
p1256
I75
sS'13'
p1257
I78
sS'12'
p1258
I79
sS'$10'
p1259
I79
sS'14'
p1260
I78
sS'17'
p1261
I78
sS'depressed'
p1262
I78
sS'expert?i'
p1263
I79
sS'gotta'
p1264
I73
sS'r'
p1265
I60
sS'were'
p1266
I68
sS'werk'
p1267
I77
sS'fruity'
p1268
I79
sS'slashing'
p1269
I79
sS'and'
p1270
I10
sS'san'
p1271
I78
sS'sam'
p1272
I78
sS'parking'
p1273
I77
sS'sad'
p1274
I74
sS'say'
p1275
I71
sS'tanning'
p1276
I79
sS'dtb'
p1277
I79
sS'allen'
p1278
I77
sS'saw'
p1279
I74
sS'any'
p1280
I68
sS'marathon'
p1281
I78
sS'elsewhere'
p1282
I79
sS'staappettt\xe2\x98\xba\xef\xb8\x8f\xe2\x98\xba\xef\xb8\x8f\xe2\x98\xba\xef\xb8\x8f\xe2\x98\xba\xef\xb8\x8f'
p1283
I79
sS';-)\xe2\x80\x9d'
p1284
I79
sS'ideas'
p1285
I79
sS'zoo'
p1286
I78
sS'here--no'
p1287
I79
sS'squad'
p1288
I79
sS'hookah'
p1289
I78
sS'take'
p1290
I70
sS'batman'
p1291
I79
sS'performance'
p1292
I79
sS'creepers'
p1293
I79
sS'w/o*'
p1294
I79
sS'channel'
p1295
I79
sS'bitching'
p1296
I79
sS'200'
p1297
I79
sS'begin'
p1298
I79
sS'sure'
p1299
I76
sS'pain'
p1300
I78
sS'equestrian'
p1301
I79
sS'candidly'
p1302
I79
sS'price'
p1303
I79
sS'knew'
p1304
I77
sS'hometown'
p1305
I79
sS'kit-kats'
p1306
I79
sS'falls'
p1307
I79
sS'shucks--thanks'
p1308
I79
sS'nutella'
p1309
I79
sS'nice"'
p1310
I79
sS'america'
p1311
I77
sS'mainstream'
p1312
I79
sS'axr'
p1313
I79
sS'forever'
p1314
I79
sS"as'f"
p1315
I79
sS'lates'
p1316
I79
sS'proud'
p1317
I77
sS'hungry'
p1318
I76
sS'tooth'
p1319
I78
sS'senior'
p1320
I76
sS'snowman"'
p1321
I79
sS'salt'
p1322
I79
sS'shop'
p1323
I79
sS'beaner'
p1324
I79
sS'walking'
p1325
I77
sS'shot'
p1326
I77
sS'*cough*'
p1327
I79
sS'show'
p1328
I61
sS'cheap'
p1329
I78
sS'bright'
p1330
I78
sS'corner'
p1331
I79
sS'fifth'
p1332
I79
sS'aint'
p1333
I75
sS'\xe2\x9c\x8c'
p1334
I77
sS'upgrade'
p1335
I79
sS'\xe2\x9c\x8b'
p1336
I78
sS'icecream'
p1337
I79
sS'daily'
p1338
I79
sS'dick'
p1339
I77
sS'3'
p1340
I73
sS'crime'
p1341
I79
sS'tears'
p1342
I78
sS'going'
p1343
I48
sS'black'
p1344
I76
sS'madeline'
p1345
I79
sS'robe'
p1346
I79
sS'bridge'
p1347
I79
sS'get'
p1348
I35
sS'mormon'
p1349
I79
sS'mission'
p1350
I79
sS'carambaaaah'
p1351
I79
sS'cannot'
p1352
I79
sS'snark'
p1353
I79
sS'negative'
p1354
I79
sS'juleps'
p1355
I79
sS'dye'
p1356
I78
sS'tays'
p1357
I79
sS'celebrate'
p1358
I79
sS'gel'
p1359
I79
sS'artist'
p1360
I79
sS'seldom'
p1361
I79
sS'borrow'
p1362
I79
sS'morning'
p1363
I75
sS'naked'
p1364
I77
sS'jokes'
p1365
I78
sS'stupid'
p1366
I77
sS"could've"
p1367
I79
sS'miley'
p1368
I78
sS'where'
p1369
I67
sS"everything's"
p1370
I79
sS"y'all"
p1371
I76
sS'lyft'
p1372
I79
sS'mess'
p1373
I79
sS'concert'
p1374
I79
sS'imposter'
p1375
I79
sS"bill's"
p1376
I79
sS'seat'
p1377
I79
sS'cologne'
p1378
I79
sS'horse'
p1379
I79
sS'anyways'
p1380
I79
sS'hoes'
p1381
I78
sS'peso'
p1382
I79
sS'wonder'
p1383
I75
sS'cadets'
p1384
I79
sS'then\xe2\x80\x9d'
p1385
I79
sS'24/7'
p1386
I79
sS'avenue'
p1387
I79
sS'ignorant'
p1388
I79
sS'cafe)'
p1389
I79
sS'enough'
p1390
I75
sS'gaga'
p1391
I79
sS'justified'
p1392
I79
sS'reading'
p1393
I78
sS'across'
p1394
I78
sS'decks'
p1395
I79
sS'gives'
p1396
I79
sS'notice'
p1397
I79
sS'august'
p1398
I77
sS'messed'
p1399
I79
sS'biebers'
p1400
I79
sS'jr'
p1401
I79
sS'killing'
p1402
I79
sS'guitar'
p1403
I78
sS'como'
p1404
I79
sS'jk'
p1405
I75
sS'comeback'
p1406
I79
sS'tub'
p1407
I79
sS'cities'
p1408
I79
sS'come'
p1409
I59
sS'5/30'
p1410
I79
sS'jb'
p1411
I79
sS'blame'
p1412
I79
sS'mans'
p1413
I78
sS'rayne!\xe2\x80\x9d'
p1414
I79
sS'mona'
p1415
I79
sS'cakes'
p1416
I79
sS'many'
p1417
I76
sS'stupidest'
p1418
I79
sS'reeeeelaaaaax'
p1419
I79
sS'somewhere'
p1420
I79
sS'tour'
p1421
I79
sS'remake'
p1422
I79
sS'mani'
p1423
I79
sS'compadres'
p1424
I79
sS"can't"
p1425
I39
sS'among'
p1426
I79
sS'fabric...multiple'
p1427
I79
sS'"faking'
p1428
I79
sS'por'
p1429
I79
sS'pop'
p1430
I78
sS"heli's"
p1431
I79
sS'jammed'
p1432
I79
sS'me\xe2\x9d\xa4\xef\xb8\x8f'
p1433
I79
sS"couldn't"
p1434
I77
sS'keely'
p1435
I79
sS'idgi'
p1436
I79
sS'endeavor'
p1437
I79
sS'poll'
p1438
I79
sS'nicole'
p1439
I78
sS'cramps'
p1440
I79
sS'symptoms'
p1441
I79
sS'cares'
p1442
I79
sS'west'
p1443
I78
sS'tadia'
p1444
I79
sS'vacation'
p1445
I78
sS'tropical'
p1446
I78
sS'workshop'
p1447
I79
sS'mars'
p1448
I79
sS'sesh'
p1449
I79
sS'504'
p1450
I78
sS'wants'
p1451
I75
sS'shopping'
p1452
I78
sS'(1551'
p1453
I79
sS'formed'
p1454
I79
sS'chillll'
p1455
I79
sS'tiger'
p1456
I79
sS'dramatic'
p1457
I79
sS'wake'
p1458
I77
sS'hatin'
p1459
I79
sS'hardcore'
p1460
I78
sS'sticky'
p1461
I77
sS'irrelevant'
p1462
I79
sS'bout'
p1463
I78
sS'those'
p1464
I75
sS'sound'
p1465
I76
sS'myself'
p1466
I73
sS'soccer'
p1467
I79
sS'casa'
p1468
I79
sS'these'
p1469
I66
sS'sauce'
p1470
I79
sS'tamara'
p1471
I79
sS'cast'
p1472
I79
sS'gatekeepers/secretaries'
p1473
I79
sS'moors'
p1474
I79
sS'ratchet'
p1475
I76
sS'ally'
p1476
I79
sS'editorial'
p1477
I79
sS'cancelled'
p1478
I79
sS'invited'
p1479
I79
sS'spooned'
p1480
I79
sS'eventually'
p1481
I79
sS'figurines'
p1482
I79
sS'coffee'
p1483
I75
sS'couples'
p1484
I79
sS'canceled'
p1485
I79
sS'sudden'
p1486
I78
sS'cookies)'
p1487
I79
sS'heels'
p1488
I79
sS'beaver'
p1489
I79
sS'everyday'
p1490
I75
sS'worry'
p1491
I79
sS'different'
p1492
I79
sS'williams'
p1493
I79
sS'harsh'
p1494
I79
sS'"sns"'
p1495
I79
sS'pay'
p1496
I77
sS'reminded'
p1497
I79
sS'sketchy'
p1498
I79
sS'same'
p1499
I60
sS'(kinda'
p1500
I79
sS'food'
p1501
I71
sS'bows'
p1502
I79
sS'urself'
p1503
I79
sS'"i'
p1504
I79
sS'reminder'
p1505
I78
sS'cramming'
p1506
I79
sS'week'
p1507
I68
sS'jeffrey'
p1508
I79
sS'oil'
p1509
I79
sS'"k"'
p1510
I79
sS'ye'
p1511
I79
sS'quien'
p1512
I79
sS'driver'
p1513
I79
sS'drives'
p1514
I79
sS'weed'
p1515
I77
sS'producers'
p1516
I78
sS'running'
p1517
I78
sS'intended'
p1518
I79
sS'totally'
p1519
I78
sS'cartoon'
p1520
I79
sS'eligible'
p1521
I79
sS'weave'
p1522
I78
sS'\xe2\x9c\x8c\xef\xb8\x8f'
p1523
I79
sS'drain'
p1524
I79
sS'ethel--i'
p1525
I79
sS'charger'
p1526
I79
sS'no'
p1527
I29
sS'oooh...sssomebody'
p1528
I79
sS'nothin'
p1529
I79
sS'"how'
p1530
I79
sS'without'
p1531
I76
sS'relief'
p1532
I79
sS'model'
p1533
I76
sS'unacceptable.\xe2\x80\x9d'
p1534
I79
sS'summer'
p1535
I76
sS'\xe2\x98\xba\xef\xb8\x8f'
p1536
I74
sS'vent'
p1537
I79
sS'being'
p1538
I66
sS'money'
p1539
I78
sS'saaawweeet'
p1540
I79
sS'actress'
p1541
I79
sS'shouts'
p1542
I79
sS'pissing'
p1543
I79
sS'(i'
p1544
I78
sS'kill'
p1545
I78
sS'wifey'
p1546
I79
sS'flavor'
p1547
I79
sS'speed'
p1548
I78
sS'kudi'
p1549
I79
sS'death'
p1550
I78
sS'feminist'
p1551
I79
sS'thinking'
p1552
I77
sS'lolllll'
p1553
I76
sS"everyone's"
p1554
I77
sS'except'
p1555
I77
sS'lyanne'
p1556
I79
sS'lets'
p1557
I77
sS'setting'
p1558
I79
sS'surprise'
p1559
I79
sS'4'
p1560
I71
sS'actors'
p1561
I79
sS"tiffany's"
p1562
I79
sS'delucas'
p1563
I79
sS'ross'
p1564
I79
sS'real'
p1565
I66
sS'around'
p1566
I77
sS'read'
p1567
I76
sS'splenda'
p1568
I79
sS'fridge'
p1569
I78
sS'gonna'
p1570
I57
sS'dark'
p1571
I78
sS'traffic'
p1572
I71
sS'darn'
p1573
I79
sS'listening'
p1574
I77
sS'vacuum'
p1575
I79
sS'world'
p1576
I75
sS'accepted'
p1577
I79
sS'lady'
p1578
I74
sS'rear'
p1579
I79
sS'ooga'
p1580
I79
sS'pounds'
p1581
I79
sS'patrick'
p1582
I79
sS'bracelet'
p1583
I79
sS'audience'
p1584
I77
sS'either'
p1585
I73
sS'hallelujah'
p1586
I79
sS'64'
p1587
I79
sS'tower'
p1588
I79
sS'cafecito'
p1589
I79
sS'twelve'
p1590
I79
sS':/,91201\n521807585603645440,gurrruohm,2014-10-13'
p1591
I79
sS'pretty\xe2\x80\x9d'
p1592
I79
sS'doll'
p1593
I79
sS'lucy'
p1594
I79
sS'erase'
p1595
I79
sS'papi'
p1596
I79
sS'rocks'
p1597
I79
sS'bluetooth'
p1598
I79
sS'gross'
p1599
I79
sS'poe'
p1600
I79
sS'thotties'
p1601
I79
sS'mood'
p1602
I78
sS'pecos'
p1603
I79
sS'noon'
p1604
I79
sS'nooo'
p1605
I79
sS'extensively'
p1606
I79
sS'stops'
p1607
I78
sS'moon'
p1608
I79
sS'dealership'
p1609
I79
sS'hipster'
p1610
I79
sS'landspeeder'
p1611
I79
sS'louisianan'
p1612
I79
sS'bentz'
p1613
I79
sS'quitting'
p1614
I79
sS'felt'
p1615
I77
sS'power'
p1616
I79
sS'asap'
p1617
I77
sS'seconds'
p1618
I78
sS'nails'
p1619
I72
sS'cringing'
p1620
I79
sS'stunning'
p1621
I79
sS'broken'
p1622
I79
sS'threesome\xe2\x80\x9d'
p1623
I79
sS'terrified'
p1624
I79
sS';)'
p1625
I79
sS'throw'
p1626
I78
sS"'the"
p1627
I79
sS'on'
p1628
I16
sS'stone'
p1629
I79
sS'ok'
p1630
I61
sS'oh'
p1631
I63
sS'of'
p1632
I17
sS'industry'
p1633
I79
sS'paralysis'
p1634
I79
sS'favorite'
p1635
I76
sS'meal'
p1636
I79
sS'srs'
p1637
I74
sS'journey'
p1638
I79
sS'wolf'
p1639
I78
sS'stand'
p1640
I77
sS'oy'
p1641
I79
sS'act'
p1642
I79
sS'mixed'
p1643
I79
sS'srx'
p1644
I79
sS'luck'
p1645
I77
sS'or'
p1646
I44
sS'road'
p1647
I79
sS'blessed'
p1648
I77
sS'snapchat'
p1649
I76
sS'augustus'
p1650
I79
sS'let"s'
p1651
I79
sS'rising'
p1652
I79
sS'inbox'
p1653
I79
sS'homeless'
p1654
I79
sS'parties'
p1655
I78
sS'operator'
p1656
I78
sS'troll'
p1657
I79
sS'fantasy'
p1658
I79
sS'your'
p1659
I34
sS'breath'
p1660
I79
sS"how's"
p1661
I78
sS'her'
p1662
I59
sS'remix)"'
p1663
I79
sS'slurpee'
p1664
I78
sS'there'
p1665
I67
sS'show.the'
p1666
I79
sS'hey'
p1667
I72
sS'lol'
p1668
I32
sS'geaux'
p1669
I79
sS'los'
p1670
I77
sS"how'd"
p1671
I79
sS'cats'
p1672
I79
sS'racist'
p1673
I79
sS'low'
p1674
I79
sS'lot'
p1675
I71
sS'valley'
p1676
I78
sS'strict'
p1677
I79
sS'project'
p1678
I79
sS'delilah'
p1679
I79
sS'complete'
p1680
I79
sS'kittens'
p1681
I79
sS'lmaooo'
p1682
I79
sS"realized--that's"
p1683
I79
sS'cottage'
p1684
I79
sS'trying'
p1685
I75
sS'with'
p1686
I22
sS'handsome'
p1687
I76
sS'football'
p1688
I79
sS"they're"
p1689
I76
sS'rush'
p1690
I79
sS'october'
p1691
I79
sS'rage'
p1692
I78
sS"wasn't"
p1693
I75
sS'swole'
p1694
I79
sS'bucket'
p1695
I77
sS'tellin'
p1696
I78
sS'"it\'s'
p1697
I79
sS'miguel'
p1698
I79
sS"rt's"
p1699
I78
sS"it'd"
p1700
I79
sS'xmen'
p1701
I79
sS'torso'
p1702
I79
sS'asss'
p1703
I79
sS'aa'
p1704
I79
sS'gone'
p1705
I75
sS'ab'
p1706
I72
sS'videos'
p1707
I79
sS'af'
p1708
I78
sS'momentarily'
p1709
I79
sS'certain'
p1710
I79
sS'forgot'
p1711
I78
sS'am'
p1712
I50
sS'deep'
p1713
I78
sS'an'
p1714
I51
sS'as'
p1715
I66
sS'tasty'
p1716
I79
sS'at'
p1717
I24
sS'aw'
p1718
I76
sS'girlfriend'
p1719
I79
sS'watched'
p1720
I79
sS'moves'
p1721
I79
sS'nerd'
p1722
I78
sS'film'
p1723
I75
sS'fill'
p1724
I79
sS'tedious'
p1725
I79
sS'again'
p1726
I69
sS'dankkkk'
p1727
I79
sS'lollllll'
p1728
I78
sS'lolllllll'
p1729
I78
sS'drafts'
p1730
I79
sS'idiot'
p1731
I78
sS'diarrhea'
p1732
I79
sS'women?\xe2\x80\x9d'
p1733
I79
sS'event'
p1734
I78
sS'roses'
p1735
I77
sS'assffghjkl'
p1736
I79
sS'twerk'
p1737
I78
sS'you'
p1738
I7
sS'puppy'
p1739
I79
sS'pedis'
p1740
I79
sS'poor'
p1741
I77
sS'polar'
p1742
I79
sS'brandi'
p1743
I79
sS'obsessed'
p1744
I77
sS'xanax'
p1745
I79
sS'shelter'
p1746
I79
sS'katzenberg'
p1747
I79
sS'important'
p1748
I79
sS'track'
p1749
I79
sS'brands'
p1750
I79
sS'babbby'
p1751
I79
sS'missed'
p1752
I79
sS'building'
p1753
I79
sS'carbs'
p1754
I79
sS'srry'
p1755
I78
sS'wondered'
p1756
I79
sS'calls'
p1757
I79
sS"life's"
p1758
I79
sS'clowning'
p1759
I79
sS'barcelona'
p1760
I79
sS'saved'
p1761
I79
sS'exhausting'
p1762
I78
sS'ombr\xc3\xa9'
p1763
I79
sS'u'
p1764
I18
sS'nelson'
p1765
I79
sS'jussdooyouuubooobooo'
p1766
I79
sS'dvr'
p1767
I79
sS'starting'
p1768
I78
sS'all'
p1769
I30
sS'forget'
p1770
I78
sS'southland'
p1771
I79
sS'daaammmmnnnn'
p1772
I79
sS'dollar'
p1773
I78
sS'month'
p1774
I77
sS'shrooms'
p1775
I79
sS'follow'
p1776
I74
sS'als'
p1777
I79
sS'or?\xe2\x80\x9d'
p1778
I79
sS'woooow'
p1779
I79
sS'collaborated'
p1780
I79
sS'apartment'
p1781
I79
sS'ty'
p1782
I77
sS'imma'
p1783
I78
sS'lining'
p1784
I79
sS'wassup'
p1785
I77
sS'thursday'
p1786
I78
sS'laughing'
p1787
I79
sS'tn'
p1788
I77
sS'to'
p1789
I3
sS'baddies'
p1790
I79
sS'tf'
p1791
I76
sS'mandela'
p1792
I79
sS'premium'
p1793
I79
sS'worse'
p1794
I79
sS'song'
p1795
I73
sS'very'
p1796
I70
sS'fav'
p1797
I75
sS'fat'
p1798
I74
sS'sasha'
p1799
I79
sS'selfies'
p1800
I79
sS'worst'
p1801
I74
sS'decide'
p1802
I78
sS'fall'
p1803
I77
sS'awful'
p1804
I78
sS'ticket'
p1805
I76
sS'ramen'
p1806
I78
sS'(~100)'
p1807
I79
sS'treating'
p1808
I79
sS'heaven'
p1809
I78
sS'w/my'
p1810
I79
sS'corset'
p1811
I79
sS'cable'
p1812
I79
sS'mothers'
p1813
I79
sS'skeletal'
p1814
I79
sS'list'
p1815
I77
sS"brendon310's"
p1816
I79
sS'large'
p1817
I79
sS'sang'
p1818
I79
sS'hahaaaaaaa'
p1819
I79
sS'dankest'
p1820
I79
sS'vibey'
p1821
I79
sS'study'
p1822
I79
sS'dodger'
p1823
I79
sS'runway'
p1824
I79
sS"i'll"
p1825
I71
sS'cookies'
p1826
I78
sS'neighborhood'
p1827
I79
sS'instagram'
p1828
I75
sS'tea'
p1829
I76
sS'yasssss'
p1830
I79
sS'tangerines?"'
p1831
I79
sS'past'
p1832
I78
sS'burger'
p1833
I78
sS'paw-dicure'
p1834
I79
sS'snippets'
p1835
I79
sS'putting'
p1836
I79
sS"'winning"
p1837
I79
sS'what'
p1838
I32
sS'whopper"'
p1839
I79
sS'nano'
p1840
I79
sS'straighter'
p1841
I79
sS'sun'
p1842
I79
sS'sum'
p1843
I79
sS'dirt'
p1844
I79
sS'crust'
p1845
I79
sS'caffeine'
p1846
I79
sS'crush'
p1847
I79
sS'sooooooo'
p1848
I79
sS'learned'
p1849
I77
sS'racing'
p1850
I79
sS'movement'
p1851
I79
sS'edited'
p1852
I79
sS'full'
p1853
I77
sS'hash'
p1854
I79
sS"c'mon"
p1855
I79
sS'loose'
p1856
I77
sS'hours'
p1857
I75
sS'down\xe2\x80\x9d'
p1858
I79
sS'chaca,91201\n521810545498800129,gurrruohm,2014-10-13'
p1859
I79
sS'november'
p1860
I79
sS'strong'
p1861
I76
sS'lotta'
p1862
I79
sS'search'
p1863
I79
sS'4real'
p1864
I79
sS'through'
p1865
I75
sS'pics'
p1866
I78
sS'stella'
p1867
I79
sS'amount'
p1868
I78
sS'milkshake'
p1869
I79
sS'fwy'
p1870
I77
sS'gear'
p1871
I79
sS'pick'
p1872
I77
sS'action'
p1873
I79
sS"would've"
p1874
I79
sS'extant'
p1875
I79
sS"'twas"
p1876
I79
sS'cappuccino'
p1877
I79
sS'via'
p1878
I78
sS'followed'
p1879
I79
sS'hoodie'
p1880
I79
sS'family'
p1881
I74
sS'nooooooooo'
p1882
I79
sS"website--that's"
p1883
I79
sS'vin'
p1884
I79
sS'put'
p1885
I73
sS'toys'
p1886
I79
sS'gazza'
p1887
I79
sS'seester'
p1888
I79
sS'emoji'
p1889
I79
sS'eye'
p1890
I78
sS'takes'
p1891
I78
sS'harlequin'
p1892
I79
sS'kaitlyn'
p1893
I79
sS'texting'
p1894
I78
sS'two'
p1895
I76
sS'wings\xe2\x80\x9d'
p1896
I79
sS'omgggg'
p1897
I79
sS'pitching'
p1898
I79
sS'6'
p1899
I77
sS'themmmmm'
p1900
I79
sS'homework'
p1901
I79
sS'dwade'
p1902
I79
sS'trabajo'
p1903
I79
sS'more'
p1904
I52
sS'teen'
p1905
I77
sS'tryna'
p1906
I74
sS'diamond'
p1907
I79
sS'knows'
p1908
I77
sS'company'
p1909
I79
sS'excuse'
p1910
I77
sS'guuuurl'
p1911
I79
sS"ain't"
p1912
I69
sS'stick'
p1913
I79
sS'broke'
p1914
I77
sS'rudeness'
p1915
I79
sS'coyote'
p1916
I79
sS'glad'
p1917
I79
sS'town'
p1918
I77
sS'weighed'
p1919
I79
sS'keeping'
p1920
I78
sS'bajar'
p1921
I79
sS'hour'
p1922
I76
sS'sucks'
p1923
I79
sS'dew'
p1924
I79
sS'glendale)'
p1925
I78
sS'seester:('
p1926
I79
sS'del'
p1927
I79
sS'resources'
p1928
I79
sS'morgan'
p1929
I79
sS'v'
p1930
I69
sS'male'
p1931
I79
sS'def'
p1932
I76
sS'beautiful'
p1933
I75
sS'embarrassing'
p1934
I78
sS'bffs'
p1935
I79
sS'jessies'
p1936
I79
sS'share'
p1937
I79
sS'states'
p1938
I79
sS'twista'
p1939
I79
sS'\xe2\x98\x95\xef\xb8\x8f'
p1940
I79
sS'sense'
p1941
I79
sS'learning/practicing'
p1942
I79
sS'gallon'
p1943
I79
sS'dress'
p1944
I71
sS'ughhhh'
p1945
I79
sS'trejo'
p1946
I79
sS'huge'
p1947
I79
sS'needs'
p1948
I75
sS'juve'
p1949
I79
sS'goal'
p1950
I79
sS'awkward'
p1951
I79
sS'khakis'
p1952
I79
sS'chaca'
p1953
I79
sS'peregrine'
p1954
I79
sS'stayed'
p1955
I78
sS'fame'
p1956
I79
sS'needa'
p1957
I79
sS'occasionally'
p1958
I79
sS'stix'
p1959
I79
sS'expecting'
p1960
I79
sS'plant'
p1961
I79
sS'shouldnt'
p1962
I79
sS'okay'
p1963
I77
sS'tried'
p1964
I79
sS'advice'
p1965
I79
sS'fb'
p1966
I79
sS'blood'
p1967
I79
sS'numb'
p1968
I79
sS'coming'
p1969
I66
sS'710'
p1970
I79
sS'response'
p1971
I79
sS'a'
p1972
I5
sS'refuse'
p1973
I79
sS'short'
p1974
I78
sS'la/runway'
p1975
I79
sS'tweeting'
p1976
I78
sS'toiletries'
p1977
I79
sS'eats'
p1978
I79
sS'volleyball'
p1979
I79
sS'buns'
p1980
I79
sS')'
p1981
I79
sS'shore'
p1982
I79
sS'media'
p1983
I79
sS'banks'
p1984
I79
sS'bookoflifemovie'
p1985
I79
sS'geographic'
p1986
I79
sS'egg'
p1987
I79
sS'playing'
p1988
I79
sS"that's"
p1989
I46
sS'"in'
p1990
I78
sS'mexican'
p1991
I79
sS'help'
p1992
I79
sS"don't"
p1993
I26
sS'sooo'
p1994
I77
sS'soon'
p1995
I78
sS'greattttt'
p1996
I79
sS'trade'
p1997
I79
sS'bcuz'
p1998
I79
sS'paper'
p1999
I78
sS'scott'
p2000
I78
sS'hell'
p2001
I76
sS'smiling'
p2002
I79
sS'suffer'
p2003
I79
sS'heli'
p2004
I78
sS'its'
p2005
I76
sS'brie'
p2006
I79
sS'24'
p2007
I78
sS'25'
p2008
I79
sS'style'
p2009
I77
sS'20'
p2010
I77
sS'22'
p2011
I79
sS'sale'
p2012
I79
sS'scully'
p2013
I79
sS'actually'
p2014
I63
sS'late'
p2015
I72
sS'minute'
p2016
I79
sS'aahahahahaha'
p2017
I79
sS'ronniejoseph'
p2018
I75
sS'margarita'
p2019
I79
sS'might'
p2020
I76
sS"haven't"
p2021
I72
sS'fool'
p2022
I79
sS'good'
p2023
I43
sS'somebody'
p2024
I79
sS'yo'
p2025
I76
sS'ya'
p2026
I57
sS'it"'
p2027
I78
sS'arsenal'
p2028
I79
sS"you've"
p2029
I78
sS'pasaload'
p2030
I79
sS'ninja'
p2031
I79
sS'yr'
p2032
I78
sS'complain'
p2033
I79
sS'desperately'
p2034
I79
sS'pregnant'
p2035
I79
sS'always'
p2036
I69
sS'drake'
p2037
I78
sS"victoria's"
p2038
I79
sS'someone'
p2039
I56
sS'stopped'
p2040
I78
sS'23:47:33.0,34.16554911,-118.30343127,3016.02,to'
p2041
I79
sS'found'
p2042
I73
sS"isn't"
p2043
I74
sS'heavy'
p2044
I79
sS'32768'
p2045
I79
sS'everyone'
p2046
I55
sS'delicious'
p2047
I79
sS'weight'
p2048
I78
sS'deltona'
p2049
I79
sS'house'
p2050
I76
sS'fish'
p2051
I77
sS'hard'
p2052
I74
sS'idea'
p2053
I79
sS'accidentally'
p2054
I79
sS'tonite'
p2055
I79
sS'expect'
p2056
I79
sS'anarchy'
p2057
I75
sS'really'
p2058
I54
sS'lipstick'
p2059
I76
sS'ftw'
p2060
I78
sS'glitter'
p2061
I79
sS'since'
p2062
I75
sS'ftd'
p2063
I79
sS'7'
p2064
I78
sS'ass'
p2065
I66
sS'pun'
p2066
I79
sS'bass'
p2067
I79
sS'angry\xe2\x80\x9d'
p2068
I79
sS'timeline'
p2069
I79
sS'friday'
p2070
I77
sS'story'
p2071
I78
sS'tbh:/'
p2072
I79
sS'reallll'
p2073
I79
sS'reason'
p2074
I78
sS'killin'
p2075
I79
sS'cookie'
p2076
I79
sS'disneyland'
p2077
I79
sS'acorn'
p2078
I79
sS'imagine'
p2079
I77
sS'ask'
p2080
I76
sS'director'
p2081
I79
sS'owners'
p2082
I79
sS'tru'
p2083
I79
sS'success'
p2084
I79
sS'americas'
p2085
I78
sS'american'
p2086
I78
sS'drybar'
p2087
I79
sS'w'
p2088
I62
sS'parked'
p2089
I79
sS'feed'
p2090
I74
sS'major'
p2091
I79
sS'dont'
p2092
I76
sS'feel'
p2093
I63
sS'relate'
p2094
I79
sS'number'
p2095
I79
sS'welcome'
p2096
I79
sS'tow'
p2097
I79
sS'dust'
p2098
I79
sS'done'
p2099
I71
sS'felicidades'
p2100
I79
sS'pablo'
p2101
I79
sS'miss'
p2102
I59
sS'jer'
p2103
I79
sS'guess'
p2104
I72
sS'"'
p2105
I77
sS'jew'
p2106
I79
sS'jet'
p2107
I79
sS'script'
p2108
I79
sS'least'
p2109
I77
sS'wonderful'
p2110
I79
sS'statement'
p2111
I79
sS'mama'
p2112
I75
sS'olde'
p2113
I79
sS'southern'
p2114
I79
sS'banana'
p2115
I78
sS'store'
p2116
I77
sS'headache'
p2117
I79
sS'relationship'
p2118
I79
sS'behind'
p2119
I78
sS'norma'
p2120
I78
sS'hotel'
p2121
I79
sS'.50'
p2122
I79
sS'mmmm'
p2123
I79
sS'luckily'
p2124
I79
sS'part'
p2125
I76
sS'bank'
p2126
I79
sS'doctors'
p2127
I79
sS'norms'
p2128
I76
sS'ashley'
p2129
I79
sS'albums'
p2130
I79
sS'believe'
p2131
I74
sS'stairs'
p2132
I79
sS'center'
p2133
I79
sS'kind'
p2134
I76
sS'b'
p2135
I73
sS'compliments'
p2136
I79
sS'double'
p2137
I78
sS'grey'
p2138
I78
sS'creapiest'
p2139
I79
sS'youth'
p2140
I79
sS"bitch's"
p2141
I79
sS'supposed'
p2142
I78
sS'dang'
p2143
I79
sS'sister'
p2144
I79
sS'treated'
p2145
I79
sS'remembers'
p2146
I79
sS'motivation'
p2147
I79
sS'direct'
p2148
I79
sS'juice'
p2149
I79
sS'kara'
p2150
I78
sS'sell'
p2151
I77
sS'lie'
p2152
I77
sS'tyvm'
p2153
I79
sS'nights'
p2154
I79
sS'built'
p2155
I78
sS'badass/martial'
p2156
I79
sS'lil'
p2157
I76
sS'self'
p2158
I76
sS'cave'
p2159
I78
sS'couch'
p2160
I79
sS'also'
p2161
I76
sS'self\xe2\x80\x9d'
p2162
I79
sS'lip'
p2163
I79
sS'build'
p2164
I78
sS'26pts'
p2165
I79
sS'1500'
p2166
I79
sS'you\xe2\x80\x9d'
p2167
I79
sS"lyin'"
p2168
I79
sS'youre'
p2169
I77
sS'play'
p2170
I76
sS'electric'
p2171
I79
sS'serena'
p2172
I79
sS'quote'
p2173
I77
sS'eggs'
p2174
I79
sS'most'
p2175
I73
sS'brooklyn'
p2176
I78
sS'72'
p2177
I79
sS'nothing'
p2178
I78
sS'seasons'
p2179
I79
sS':))))'
p2180
I79
sS'grams'
p2181
I77
sS'windows'
p2182
I79
sS'clear'
p2183
I79
sS'sometimes'
p2184
I73
sS'cover'
p2185
I78
sS'wenger'
p2186
I79
sS'faithless'
p2187
I79
sS"they'll"
p2188
I79
sS'bubby'
p2189
I79
sS'clean'
p2190
I76
sS'barrel'
p2191
I79
sS'shoutout'
p2192
I79
sS'hips'
p2193
I79
sS'filmed'
p2194
I79
sS'despise'
p2195
I79
sS'ugh'
p2196
I67
sS'gold'
p2197
I77
sS'aaaaand'
p2198
I79
sS'lay'
p2199
I79
sS'dicaprio'
p2200
I79
sS'capitalizes'
p2201
I79
sS'stfu'
p2202
I79
sS'session'
p2203
I79
sS'siri'
p2204
I79
sS'sweaty'
p2205
I79
sS'fine'
p2206
I78
sS'find'
p2207
I77
sS'choco'
p2208
I79
sS'giant'
p2209
I79
sS'bff'
p2210
I78
sS'aintno'
p2211
I79
sS'justice'
p2212
I79
sS'nervous'
p2213
I78
sS'payday'
p2214
I79
sS'unhappy'
p2215
I79
sS'pretty'
p2216
I72
sS'8'
p2217
I79
sS"should've"
p2218
I79
sS'woooooow'
p2219
I79
sS'his'
p2220
I64
sS'hit'
p2221
I75
sS'cutieeee'
p2222
I79
sS'distance'
p2223
I79
sS'attire'
p2224
I79
sS'financing'
p2225
I79
sS'7pm'
p2226
I79
sS'latch'
p2227
I79
sS'feels'
p2228
I78
sS'grew'
p2229
I79
sS'pretending'
p2230
I79
sS'during'
p2231
I77
sS"know-it's"
p2232
I79
sS'him'
p2233
I67
sS'huff'
p2234
I79
sS'anyways\xe2\x80\x9d'
p2235
I79
sS'motorcycles'
p2236
I79
sS'cry'
p2237
I79
sS'now;(\xe2\x80\x9d'
p2238
I79
sS"professor's"
p2239
I79
sS"wcw's"
p2240
I79
sS'witches'
p2241
I79
sS'gotten'
p2242
I78
sS'naughty'
p2243
I79
sS'x'
p2244
I78
sS"23:39:57.0,34.16561943,-118.30337511,3016.02,i'm"
p2245
I79
sS'river'
p2246
I78
sS'gallons'
p2247
I79
sS'14th'
p2248
I79
sS'wrote'
p2249
I79
sS'insane'
p2250
I79
sS'set'
p2251
I76
sS'art'
p2252
I78
sS'fuqqqq'
p2253
I79
sS'creepiest'
p2254
I79
sS"endeavor's"
p2255
I79
sS'carpool'
p2256
I79
sS'vine'
p2257
I79
sS'rhinestone'
p2258
I79
sS'sex'
p2259
I77
sS'see'
p2260
I48
sS'danielle!\xe2\x80\x9d'
p2261
I79
sS'are'
p2262
I40
sS'sea'
p2263
I79
sS'content'
p2264
I79
sS'close'
p2265
I79
sS'retweet'
p2266
I78
sS'lee'
p2267
I79
sS'shower'
p2268
I79
sS'visiting'
p2269
I78
sS'muted'
p2270
I79
sS'movie'
p2271
I72
sS'wow'
p2272
I68
sS'currently'
p2273
I78
sS'please'
p2274
I74
sS'fans'
p2275
I78
sS'plywood'
p2276
I79
sS'probably'
p2277
I74
sS'rlly'
p2278
I70
sS'nope'
p2279
I79
sS'compliment'
p2280
I78
sS'available'
p2281
I79
sS'recently'
p2282
I77
sS'missing'
p2283
I77
sS'uuu'
p2284
I79
sS's'
p2285
I79
sS'attention'
p2286
I79
sS'outfit'
p2287
I76
sS"'make"
p2288
I79
sS'spray'
p2289
I79
sS'yussssss'
p2290
I79
sS"melanie's"
p2291
I79
sS'fuckas'
p2292
I79
sS'pissed'
p2293
I79
sS'both'
p2294
I76
sS'c'
p2295
I77
sS'10th'
p2296
I79
sS'last'
p2297
I65
sS'license'
p2298
I79
sS'thot'
p2299
I79
sS"wouldn't"
p2300
I78
sS'annual'
p2301
I79
sS'fan-'
p2302
I79
sS'anon'
p2303
I79
sS'entertain'
p2304
I79
sS'alot'
p2305
I79
sS'sext'
p2306
I79
sS"palmer's"
p2307
I79
sS'whole'
p2308
I75
sS'patty'
p2309
I79
sS'flies'
p2310
I78
sS'drunk'
p2311
I73
sS'sweet'
p2312
I76
sS'"masks"'
p2313
I79
sS'smashing'
p2314
I79
sS'dudes'
p2315
I78
sS'header'
p2316
I79
sS'likes'
p2317
I78
sS'naps'
p2318
I79
sS'create'
p2319
I79
sS'creativity'
p2320
I79
sS'verse'
p2321
I79
sS'secret'
p2322
I79
sS'pa'
p2323
I79
sS'damn'
p2324
I64
sS'brick'
p2325
I79
sS'meeting'
p2326
I79
sS'whoa'
p2327
I79
sS'woke'
p2328
I78
sS'pm'
p2329
I77
sS'firm'
p2330
I79
sS'gay'
p2331
I72
sS'passengers'
p2332
I79
sS'fire'
p2333
I79
sS'snookies'
p2334
I78
sS"what's"
p2335
I69
sS'gas'
p2336
I78
sS'39'
p2337
I79
sS'else'
p2338
I76
sS'being/sleeping'
p2339
I79
sS'fritz'
p2340
I79
sS'gal'
p2341
I79
sS'lives'
p2342
I77
sS'rai'
p2343
I79
sS'exquisite'
p2344
I79
sS'funk'
p2345
I79
sS'fur'
p2346
I79
sS'look'
p2347
I61
sS'frozen'
p2348
I78
sS'"do'
p2349
I79
sS'tip'
p2350
I79
sS'convo'
p2351
I79
sS'fux'
p2352
I79
sS'while'
p2353
I77
sS'kick'
p2354
I77
sS'mimosas'
p2355
I79
sS'fun'
p2356
I71
sS'robin'
p2357
I79
sS'pack'
p2358
I79
sS'mota'
p2359
I79
sS'<3'
p2360
I79
sS'cents'
p2361
I79
sS'calvin'
p2362
I79
sS'1000%'
p2363
I79
sS'terminator'
p2364
I79
sS'triple'
p2365
I79
sS'screws'
p2366
I79
sS'ready'
p2367
I74
sS'rid'
p2368
I79
sS'funny'
p2369
I71
sS'communal'
p2370
I79
sS'esteakkkkkkkk'
p2371
I79
sS'gettting'
p2372
I79
sS'shirt'
p2373
I79
sS'anymore'
p2374
I77
sS'noooo'
p2375
I78
sS'belong'
p2376
I78
sS'rules'
p2377
I79
sS"lilli's"
p2378
I79
sS'whore"'
p2379
I79
sS'chaaaaiiiiiiiinnnnnnzzzzzzz'
p2380
I79
sS'grand'
p2381
I79
sS'shirk'
p2382
I79
sS'campus.\xe2\x80\xa6'
p2383
I79
sS'spears'
p2384
I79
sS'franklin'
p2385
I78
sS'flaggotxgrad'
p2386
I79
sS'used'
p2387
I76
sS'temporary'
p2388
I79
sS'mountain'
p2389
I79
sS'keys'
p2390
I78
sS'blair'
p2391
I79
sS'recovered'
p2392
I79
sS'yesterday'
p2393
I79
sS'alert'
p2394
I78
sS'moment'
p2395
I76
sS'levels'
p2396
I79
sS'moving'
p2397
I78
sS'vampires'
p2398
I79
sS'lacrosse'
p2399
I79
sS'hmmmmmm'
p2400
I79
sS'noodle'
p2401
I77
sS'older'
p2402
I79
sS'cheek'
p2403
I79
sS'spent'
p2404
I79
sS'person'
p2405
I68
sS'edge'
p2406
I79
sS'flags'
p2407
I79
sS'homecoming'
p2408
I79
sS'inspirational'
p2409
I79
sS'y'
p2410
I73
sS'salon*'
p2411
I79
sS'dommy'
p2412
I79
sS'spend'
p2413
I79
sS'raima'
p2414
I79
sS'mom'
p2415
I62
sS'bottoms'
p2416
I79
sS'regardless'
p2417
I78
sS'moorpark'
p2418
I79
sS'letting'
p2419
I78
sS'cut'
p2420
I76
sS'$'
p2421
I79
sS'adrienne'
p2422
I79
sS'cup'
p2423
I79
sS'hated'
p2424
I78
sS'3dretro'
p2425
I73
sS'cuz'
p2426
I76
sS'source'
p2427
I78
sS'parents'
p2428
I79
sS'crying'
p2429
I77
sS'homies'
p2430
I79
sS'snap'
p2431
I79
sS'cum'
p2432
I79
sS'easter'
p2433
I79
sS'excited'
p2434
I75
sS'hates'
p2435
I76
sS'cuh'
p2436
I79
sS'australia'
p2437
I78
sS'tumblr:('
p2438
I79
sS'big'
p2439
I73
sS'showing'
p2440
I78
sS'work:('
p2441
I79
sS'shitty'
p2442
I77
sS'game'
p2443
I70
sS'ahhhmmmaaaazing'
p2444
I79
sS'biz'
p2445
I79
sS'moods'
p2446
I79
sS'shading'
p2447
I79
sS'wings'
p2448
I79
sS'projects'
p2449
I79
sS'formal'
p2450
I79
sS'painted'
p2451
I79
sS'd'
p2452
I79
sS'follows'
p2453
I79
sS'message'
p2454
I79
sS're-stock'
p2455
I79
sS'shapes'
p2456
I79
sS'sentiment.\xe2\x80\x9d'
p2457
I79
sS'unstable'
p2458
I79
sS':-))))'
p2459
I79
sS'donno'
p2460
I79
sS'bruin'
p2461
I79
sS'sketch'
p2462
I79
sS'google'
p2463
I79
sS'often'
p2464
I78
sS'fucking'
p2465
I52
sS'obliged'
p2466
I79
sS'cheerleader'
p2467
I79
sS'some'
p2468
I55
sS'back'
p2469
I56
sS'lipo'
p2470
I79
sS'b4'
p2471
I78
sS'lips'
p2472
I79
sS'uptons'
p2473
I79
sS'palm'
p2474
I79
sS'agghh'
p2475
I79
sS'greener'
p2476
I79
sS'kinda'
p2477
I79
sS'worksa'
p2478
I79
sS'swallowed'
p2479
I79
sS'carbonation'
p2480
I79
sS'stables'
p2481
I74
sS'thotful'
p2482
I77
sS'absolutely'
p2483
I79
sS'k-rock'
p2484
I79
sS'pros'
p2485
I79
sS'js'
p2486
I79
sS'erytang'
p2487
I79
sS'pen'
p2488
I77
sS'tends'
p2489
I79
sS'pee'
p2490
I79
sS'\xe2\x80\x9camerica'
p2491
I79
sS't'
p2492
I78
sS'be'
p2493
I23
sS'bf'
p2494
I76
sS'run'
p2495
I78
sS'bb'
p2496
I74
sS'bc'
p2497
I67
sS'remembered'
p2498
I78
sS'goooood'
p2499
I79
sS'step'
p2500
I73
sS'maddy'
p2501
I79
sS'lounges'
p2502
I79
sS'yaaassss'
p2503
I79
sS'lottery'
p2504
I79
sS'raspberry'
p2505
I79
sS'30$'
p2506
I79
sS'by'
p2507
I64
sS'shine'
p2508
I79
sS'faith'
p2509
I79
sS'cautious'
p2510
I79
sS'zip'
p2511
I79
sS'anything'
p2512
I78
sS'netflix'
p2513
I78
sS'iced'
p2514
I79
sS'favor'
p2515
I79
sS'graduation'
p2516
I78
sS'iiiiii'
p2517
I79
sS'deserves'
p2518
I79
sS'agave'
p2519
I79
sS'idk'
p2520
I76
sS'bish'
p2521
I75
sS"adrine's"
p2522
I79
sS'you....bitch'
p2523
I79
sS'hahahah'
p2524
I78
sS'block'
p2525
I79
sS'ppl'
p2526
I68
sS'seeing'
p2527
I76
sS'namaste'
p2528
I79
sS'jimmy'
p2529
I79
sS'colorado'
p2530
I79
sS'dude'
p2531
I75
sS'into'
p2532
I68
sS'wasupp'
p2533
I79
sS'nonsense'
p2534
I79
sS'gtfo'
p2535
I79
sS'because'
p2536
I71
sS'master'
p2537
I79
sS'boo...yes'
p2538
I79
sS'lesson'
p2539
I79
sS'cho'
p2540
I79
sS'lebron'
p2541
I79
sS'smells'
p2542
I79
sS'impressed'
p2543
I79
sS'me),91201\n521810332923084800,gurrruohm,2014-10-13'
p2544
I79
sS'computer'
p2545
I79
sS'apparently'
p2546
I79
sS'sequence'
p2547
I79
sS'question'
p2548
I76
sS'ca)'
p2549
I77
sS'fast'
p2550
I78
sS'addicting'
p2551
I79
sS"we're"
p2552
I76
sS'dodgers'
p2553
I79
sS'forward'
p2554
I79
sS'bored'
p2555
I77
sS'lexi'
p2556
I79
sS'scared'
p2557
I79
sS'"pov'
p2558
I79
sS'evs)'
p2559
I75
sS'hawaiian'
p2560
I79
sS'potassium'
p2561
I79
sS'laffy'
p2562
I79
sS'doh'
p2563
I79
sS'glamour'
p2564
I77
sS'boys'
p2565
I71
sS'hail'
p2566
I79
sS'boyz'
p2567
I79
sS'junior'
p2568
I79
sS'\xe2\x9d\xa4\xe2\x80\x9d'
p2569
I79
sS'info'
p2570
I79
sS'tumblr'
p2571
I73
sS'chiropractor'
p2572
I79
sS'originals'
p2573
I79
sS'uti'
p2574
I79
sS'"throwback"'
p2575
I79
sS'up'
p2576
I29
sS'us'
p2577
I71
sS'ur'
p2578
I59
sS'um'
p2579
I77
sS'mucccchhh'
p2580
I79
sS'saks'
p2581
I79
sS'uk'
p2582
I79
sS'neezy'
p2583
I76
sS'strands'
p2584
I79
sS'called'
p2585
I76
sS'uber'
p2586
I79
sS'subtweets<<<<'
p2587
I79
sS'ordered'
p2588
I79
sS'tiniest'
p2589
I79
sS'pencil'
p2590
I79
sS'hedwig'
p2591
I79
sS'*twitches*'
p2592
I79
sS'3/17'
p2593
I79
sS'single'
p2594
I77
sS'cure'
p2595
I79
sS'gpen'
p2596
I79
sS'chat'
p2597
I79
sS'chocolatiers'
p2598
I79
sS'cafe'
p2599
I77
sS'yearbook'
p2600
I79
sS'chella'
p2601
I79
sS'muestra'
p2602
I79
sS'codes'
p2603
I79
sS'peach'
p2604
I79
sS'hehehe'
p2605
I79
sS'listen/watch'
p2606
I79
sS'nah'
p2607
I77
sS'excuses'
p2608
I79
sS'nap'
p2609
I78
sS'coded'
p2610
I79
sS'tits'
p2611
I79
sS'raina'
p2612
I79
sS'nice'
p2613
I70
sS'scrub'
p2614
I79
sS'mustard'
p2615
I79
sS'ly2'
p2616
I79
sS'missin'
p2617
I77
sS'papa'
p2618
I79
sS'cater'
p2619
I79
sS'meals'
p2620
I76
sS"there'll"
p2621
I79
sS'ago'
p2622
I74
sS'holister'
p2623
I79
sS'\xe2\x9c\x82\xef\xb8\x8f'
p2624
I79
sS'land'
p2625
I79
sS'neila'
p2626
I79
sS'lana'
p2627
I79
sS'practically'
p2628
I78
sS'complicating'
p2629
I78
sS'hipster.\xe2\x80\x9d'
p2630
I79
sS'age'
p2631
I79
sS'teams'
p2632
I79
sS'youtube'
p2633
I79
sS'annoyed'
p2634
I79
sS'impatient'
p2635
I79
sS'hella'
p2636
I78
sS'lying'
p2637
I79
sS'far'
p2638
I75
sS"she's"
p2639
I77
sS'underrated'
p2640
I78
sS'having'
p2641
I73
sS'once'
p2642
I76
sS'edc'
p2643
I76
sS'code'
p2644
I79
sS'scratch'
p2645
I78
sS'gg'
p2646
I79
sS'gf'
p2647
I78
sS'groceries'
p2648
I79
sS'braaaa'
p2649
I79
sS'go'
p2650
I46
sS'gossip'
p2651
I78
sS'strep'
p2652
I79
sS'kate'
p2653
I77
sS'slot'
p2654
I79
sS'peanut'
p2655
I79
sS'young'
p2656
I78
sS'send'
p2657
I74
sS'suits'
p2658
I79
sS'blaze'
p2659
I79
sS'passion'
p2660
I79
sS'friendly'
p2661
I79
sS'sent'
p2662
I76
sS'garden'
p2663
I79
sS'outside'
p2664
I79
sS'meetstay'
p2665
I79
sS'\xe2\x9d\xa4\xef\xb8\x8f\xe2\x80\x9d'
p2666
I79
sS'givenchy'
p2667
I77
sS'balls'
p2668
I79
sS'facebook'
p2669
I77
sS'telling'
p2670
I79
sS'yourselves'
p2671
I79
sS'drinking'
p2672
I78
sS'splattering'
p2673
I79
sS'wipe'
p2674
I79
sS'britney'
p2675
I79
sS'security'
p2676
I79
sS'eva'
p2677
I73
sS'marry'
p2678
I79
sS'michael'
p2679
I79
sS'try'
p2680
I76
sS'threat'
p2681
I79
sS'evs'
p2682
I73
sS'leonardo'
p2683
I79
sS'ride'
p2684
I77
sS'ya?,91201\n521809496834732032,gurrruohm,2014-10-13'
p2685
I79
sS"you'd"
p2686
I79
sS'\xe2\x9d\xa4'
p2687
I79
sS'0x6'
p2688
I79
sS'waking'
p2689
I78
sS'video'
p2690
I72
sS'braids'
p2691
I79
sS'nephew'
p2692
I79
sS'comprehend'
p2693
I79
sS'pajamas'
p2694
I79
sS'rivera'
p2695
I79
sS'business'
p2696
I79
sS'lolll'
p2697
I79
sS'squeeze'
p2698
I79
sS'vivian'
p2699
I79
sS'valet'
p2700
I79
sS'waiting'
p2701
I74
sS'indian'
p2702
I79
sS'eating'
p2703
I79
sS'capital'
p2704
I79
sS'body'
p2705
I74
sS'song/lyric'
p2706
I78
sS'tybg'
p2707
I79
sS'chose'
p2708
I79
sS'leg'
p2709
I78
sS'kangaroo'
p2710
I79
sS'pushing'
p2711
I79
sS'indicator'
p2712
I79
sS'guuuuurl'
p2713
I79
sS'whimpy'
p2714
I79
sS'following'
p2715
I79
sS'let'
p2716
I70
sS'conceited'
p2717
I79
sS'others'
p2718
I78
sS'sexy'
p2719
I79
sS'invented'
p2720
I79
sS'delinquent'
p2721
I79
sS'great'
p2722
I62
sS'talent'
p2723
I79
sS'boyyyszzaaa'
p2724
I79
sS'poured'
p2725
I79
sS'30'
p2726
I78
sS'alaska'
p2727
I78
sS'leaving'
p2728
I78
sS'opinion'
p2729
I78
sS'makes'
p2730
I70
sS'thats'
p2731
I78
sS'wif'
p2732
I79
sS'apple'
p2733
I78
sS'nearest'
p2734
I79
sS'win'
p2735
I78
sS'app'
p2736
I79
sS'confession'
p2737
I79
sS'stalking'
p2738
I79
sS'private'
p2739
I79
sS'wit'
p2740
I79
sS'duck'
p2741
I79
sS'car...priceless'
p2742
I79
sS'singing'
p2743
I79
sS'standing'
p2744
I79
sS'use'
p2745
I76
sS'hahahahaha'
p2746
I79
sS'from'
p2747
I44
sS'usa'
p2748
I78
sS'&'
p2749
I42
sS'breakup'
p2750
I79
sS'chocolates'
p2751
I79
sS'cray'
p2752
I77
sS'next'
p2753
I69
sS'few'
p2754
I77
sS'camera'
p2755
I79
sS'scariest'
p2756
I79
sS'chu'
p2757
I79
sS'vehicle'
p2758
I79
sS'chip'
p2759
I79
sS'cheeks'
p2760
I78
sS'$20'
p2761
I79
sS'babe'
p2762
I79
sS'280mm'
p2763
I79
sS'calling'
p2764
I79
sS'r/c'
p2765
I79
sS'crafting'
p2766
I79
sS'fuck'
p2767
I57
sS'"party'
p2768
I79
sS'sore'
p2769
I79
sS':-)'
p2770
I69
sS'baby'
p2771
I67
sS'us--tyvm'
p2772
I79
sS'anymore.\xe2\x80\x9d'
p2773
I79
sS'salad'
p2774
I78
sS'locks'
p2775
I79
sS'this'
p2776
I19
sS'challenge'
p2777
I78
sS'donut'
p2778
I79
sS'unreal'
p2779
I79
sS'meet'
p2780
I77
sS'didnt'
p2781
I79
sS'pennslyvania'
p2782
I79
sS'dropped'
p2783
I79
sS'bittersweet'
p2784
I79
sS'slid'
p2785
I79
sS'thirsty'
p2786
I79
sS'plate'
p2787
I79
sS'process'
p2788
I79
sS'pieces'
p2789
I79
sS'high'
p2790
I73
sS'star\xe2\x80\xa6'
p2791
I79
sS'something'
p2792
I76
sS'high"'
p2793
I79
sS'skirt'
p2794
I79
sS'sis'
p2795
I76
sS'burroughs'
p2796
I77
sS'tao'
p2797
I79
sS'\xe2\x80\x9d-'
p2798
I79
sS'meehhh'
p2799
I79
sS'vibe'
p2800
I79
sS'stole'
p2801
I79
sS'six'
p2802
I79
sS'obsesed'
p2803
I79
sS'schoolgirl'
p2804
I79
sS'nomination!\xe2\x80\x9d'
p2805
I79
sS'dwa'
p2806
I79
sS'animal'
p2807
I76
sS'slamming'
p2808
I79
sS'instead'
p2809
I74
sS'fam'
p2810
I79
sS'gurl'
p2811
I79
sS'alicia'
p2812
I79
sS'quadcopters'
p2813
I79
sS'stop'
p2814
I62
sS'waters'
p2815
I79
sS'23:39:27.0,34.16561943,-118.30337511,3016.02,i'
p2816
I79
sS'collection'
p2817
I73
sS'babysat'
p2818
I79
sS'mcsketcherson'
p2819
I79
sS'tack'
p2820
I79
sS'meee:('
p2821
I79
sS'taco'
p2822
I79
sS'hahahaha'
p2823
I78
sS'ahahaha'
p2824
I79
sS'overreacting'
p2825
I79
sS'15'
p2826
I79
sS'hahaha--no'
p2827
I79
sS'light'
p2828
I77
sS'sit'
p2829
I79
sS'liner'
p2830
I79
sS'cudi'
p2831
I79
sS'chief'
p2832
I79
sS'honestly'
p2833
I73
sS'again...not'
p2834
I79
sS'allow'
p2835
I79
sS'raima\xe2\x80\x9d'
p2836
I79
sS'*runs'
p2837
I79
sS'houston'
p2838
I79
sS'mute'
p2839
I79
sS'move'
p2840
I76
sS'hun'
p2841
I79
sS'lifeeeee'
p2842
I79
sS'nigguh'
p2843
I79
sS"won't"
p2844
I76
sS'looks'
p2845
I75
sS'damnit'
p2846
I79
sS'hock'
p2847
I79
sS'omekase'
p2848
I79
sS'perfect'
p2849
I78
sS'bridges'
p2850
I79
sS'crabby'
p2851
I79
sS'falcon'
p2852
I79
sS'la'
p2853
I67
sS'ln'
p2854
I79
sS'thruuuuu'
p2855
I79
sS'[pic]'
p2856
I78
sS'permanent'
p2857
I79
sS'degrees'
p2858
I78
sS'choose'
p2859
I79
sS'pussy'
p2860
I79
sS'2014'
p2861
I73
sS'bye'
p2862
I77
sS'2013'
p2863
I79
sS'2012'
p2864
I79
sS'dad'
p2865
I75
sS'loosing'
p2866
I79
sS'ruined'
p2867
I79
sS'pure'
p2868
I79
sS'auto'
p2869
I77
sS'practice'
p2870
I77
sS'fiesta'
p2871
I79
sS'flew'
p2872
I76
sS'dresscode'
p2873
I79
sS'dat'
p2874
I78
sS'hands'
p2875
I78
sS'front'
p2876
I79
sS'kindness'
p2877
I79
sS'day'
p2878
I38
sS'urge'
p2879
I79
sS"night's"
p2880
I79
sS'tues'
p2881
I79
sS'omhngg'
p2882
I79
sS'doesnt'
p2883
I78
sS'trap'
p2884
I79
sS'|'
p2885
I62
sS'glasses'
p2886
I78
sS'studios'
p2887
I74
sS'treetop'
p2888
I79
sS'doing'
p2889
I69
sS'chunk'
p2890
I79
sS'heated'
p2891
I79
sS'snaps'
p2892
I79
sS'-morgan'
p2893
I79
sS'skank'
p2894
I79
sS'elementary'
p2895
I79
sS'ourselves'
p2896
I79
sS'our'
p2897
I62
sS'80'
p2898
I79
sS'special'
p2899
I79
sS'out'
p2900
I32
sS'secretly'
p2901
I79
sS'rex'
p2902
I79
sS'gomez'
p2903
I79
sS'desert'
p2904
I79
sS'piccasso'
p2905
I79
sS'mato'
p2906
I79
sS'smog'
p2907
I78
sS'cause'
p2908
I76
sS'clone'
p2909
I79
sS'announced'
p2910
I79
sS'shitload'
p2911
I79
sS'dictionary'
p2912
I79
sS'frank'
p2913
I78
sS'molly'
p2914
I79
sS'baeeee'
p2915
I79
sS'release'
p2916
I79
sS'completely'
p2917
I77
sS'york'
p2918
I78
sS'napkins'
p2919
I79
sS'early'
p2920
I79
sS'princess'
p2921
I79
sS'scary'
p2922
I78
sS'g'
p2923
I79
sS'dubbed'
p2924
I79
sS'eh!\xe2\x80\x9d'
p2925
I79
sS'recipes'
p2926
I78
sS'florida'
p2927
I77
sS'spongebob'
p2928
I79
sS'times'
p2929
I76
sS'conversation'
p2930
I79
sS'length'
p2931
I79
sS'adrian'
p2932
I79
sS'subtweeting'
p2933
I78
sS'keef'
p2934
I79
sS'sns'
p2935
I79
sS'borealis'
p2936
I79
sS'soldered'
p2937
I79
sS'scene'
p2938
I78
sS'lollll'
p2939
I79
sS'embarrassed'
p2940
I79
sS'bitch'
p2941
I53
sS'mah'
p2942
I79
sS'blows'
p2943
I79
sS"'bout"
p2944
I79
sS"doesn't"
p2945
I71
sS'playlist'
p2946
I79
sS'follow--looking'
p2947
I79
sS'start'
p2948
I73
sS'festival'
p2949
I79
sS'fuckers'
p2950
I78
sS'hilary'
p2951
I79
sS'einstein'
p2952
I79
sS'their'
p2953
I71
sS'vagina'
p2954
I79
sS'behaved'
p2955
I79
sS'lapd'
p2956
I78
sS'cuddling'
p2957
I79
sS'lllllll'
p2958
I79
sS'stomach'
p2959
I79
sS'shiny'
p2960
I79
sS'wall.\xe2\x80\x9d'
p2961
I79
sS'exactly'
p2962
I78
sS'depressing'
p2963
I79
sS'nosey'
p2964
I79
sS'july'
p2965
I79
sS'shut'
p2966
I79
sS'loved'
p2967
I77
sS'boring'
p2968
I79
sS"kanye's"
p2969
I79
sS'bed'
p2970
I76
sS'loves'
p2971
I77
sS'lovey'
p2972
I79
sS'bet'
p2973
I78
sS'wakes'
p2974
I79
sS'"cause'
p2975
I79
sS'p.s'
p2976
I79
sS'bipolar'
p2977
I79
sS'atlantano'
p2978
I79
sS'tonight'
p2979
I67
sS'p.m'
p2980
I79
sS'alfonso'
p2981
I79
sS'have'
p2982
I25
sS'need'
p2983
I44
sS'curved'
p2984
I79
sS'somethinnn'
p2985
I79
sS'beliebers'
p2986
I79
sS'clearly'
p2987
I79
sS'rotor'
p2988
I79
sS'afraid'
p2989
I79
sS'lames\xe2\x80\x9d'
p2990
I79
sS'min'
p2991
I78
sS'come-on'
p2992
I79
sS'lilo'
p2993
I79
sS'gratz'
p2994
I79
sS'able'
p2995
I76
sS'waffles'
p2996
I79
sS'comes'
p2997
I79
sS'demolished'
p2998
I79
sS'which'
p2999
I79
sS'truck'
p3000
I78
sS'kno;('
p3001
I79
sS'trivia'
p3002
I79
sS'='
p3003
I77
sS';-)'
p3004
I74
sS'motha'
p3005
I79
sS'unless'
p3006
I78
sS'aww'
p3007
I79
sS'sewing'
p3008
I78
sS'jorge'
p3009
I79
sS"where's"
p3010
I79
sS'lust'
p3011
I79
sS'williams\xe2\x80\x9d'
p3012
I79
sS'sedan'
p3013
I79
sS'delve'
p3014
I79
sS'highschool'
p3015
I79
sS'future'
p3016
I78
sS'segment'
p3017
I79
sS'why'
p3018
I53
sS'deny'
p3019
I79
sS'refreshing'
p3020
I79
sS'breh'
p3021
I79
sS'classy\xe2\x80\x9d'
p3022
I79
sS'face'
p3023
I76
sS"you'll"
p3024
I77
sS'4400mah'
p3025
I79
sS'urs'
p3026
I79
sS'occasion'
p3027
I79
sS'skinny'
p3028
I76
sS'painting'
p3029
I78
sS'fact'
p3030
I76
sS'ughhh'
p3031
I79
sS'designerxangel'
p3032
I79
sS'oreos'
p3033
I79
sS'you~~'
p3034
I79
sS'area*'
p3035
I79
sS'kaskade'
p3036
I79
sS'text'
p3037
I75
sS'drink.\xe2\x80\x9d'
p3038
I79
sS'bring'
p3039
I76
sS'dtla'
p3040
I79
sS'chicken'
p3041
I79
sS'longer'
p3042
I79
sS'lasts\xe2\x80\xa6'
p3043
I79
sS'wowwwwzers'
p3044
I79
sS'staff'
p3045
I79
sS'unanimously'
p3046
I79
sS'based'
p3047
I78
sS'downstairs'
p3048
I79
sS'winner'
p3049
I79
sS'woo'
p3050
I79
sS'yonce'
p3051
I77
sS'...and'
p3052
I79
sS'lemme'
p3053
I78
sS'qx'
p3054
I79
sS'riding'
p3055
I79
sS'spice'
p3056
I78
sS'flinch'
p3057
I79
sS'hope'
p3058
I70
sS'meant'
p3059
I79
sS'rumbo'
p3060
I79
sS'handle'
p3061
I77
sS'means'
p3062
I77
sS'beat'
p3063
I79
sS'dope'
p3064
I79
sS'ko'
p3065
I79
sS'bear'
p3066
I78
sS'fwy)'
p3067
I79
sS'me.\xe2\x80\x9d'
p3068
I79
sS'bean'
p3069
I79
sS'ones'
p3070
I79
sS'stars'
p3071
I79
sS'words'
p3072
I79
sS'yaassss'
p3073
I79
sS'ghetto'
p3074
I75
sS'gray'
p3075
I79
sS'uggs.\xe2\x80\x9d'
p3076
I79
sS"it--you're"
p3077
I79
sS'hiring'
p3078
I78
sS'h'
p3079
I79
sS'married'
p3080
I79
sS'eyebrow'
p3081
I79
sS'tuned'
p3082
I77
sS'stuff'
p3083
I71
sS'she'
p3084
I67
sS'dangerous'
p3085
I79
sS'glendale'
p3086
I76
sS'moooo'
p3087
I79
sS'fixed'
p3088
I79
sS'11am'
p3089
I78
sS'knowing'
p3090
I79
sS'btw'
p3091
I76
sS'housewives'
p3092
I79
sS'exists'
p3093
I79
sS'prayers'
p3094
I79
sS'frame'
p3095
I78
sS'134'
p3096
I79
sS'we'
p3097
I33
sS'whatevs'
p3098
I79
sS'toiletry'
p3099
I79
sS'edition'
p3100
I79
sS'relatable'
p3101
I79
sS'chuck'
p3102
I79
sS'powder'
p3103
I79
sS'desperate'
p3104
I79
sS'packed'
p3105
I79
sS'blunts'
p3106
I79
sS'salsa'
p3107
I79
sS'luv'
p3108
I71
sS'lollllllllll'
p3109
I79
sS'pattern'
p3110
I79
sS'horny'
p3111
I79
sS'genius'
p3112
I79
sS'state'
p3113
I78
sS'pictas'
p3114
I79
sS'bruno'
p3115
I79
sS'closed'
p3116
I77
sS'nominees'
p3117
I79
sS'progress'
p3118
I79
sS'wembley'
p3119
I79
sS'email'
p3120
I79
sS'bought'
p3121
I79
sS'opening'
p3122
I78
sS'keg'
p3123
I79
sS'joy'
p3124
I78
sS'heart\xe2\x80\x9d'
p3125
I79
sS'mambos'
p3126
I79
sS'butts'
p3127
I79
sS'22lbs'
p3128
I79
sS'the\xe2\x80\xa6'
p3129
I79
sS'job'
p3130
I75
sS'impulsively'
p3131
I79
sS'jog'
p3132
I79
sS'underwear'
p3133
I78
sS'boss'
p3134
I79
sS'selena'
p3135
I79
sS'butta'
p3136
I79
sS'staring'
p3137
I79
sS'aqui'
p3138
I79
sS'joke'
p3139
I78
sS'gimmmeee'
p3140
I79
sS'equal'
p3141
I79
sS'drug'
p3142
I78
sS'busted'
p3143
I79
sS'interesting'
p3144
I78
sS'omw'
p3145
I78
sS'swallow'
p3146
I79
sS'jersey'
p3147
I78
sS'comment'
p3148
I79
sS'gorgeous'
p3149
I78
sS'(w/'
p3150
I79
sS'relevant'
p3151
I79
sS'locale)'
p3152
I79
sS'"tough'
p3153
I79
sS'cc'
p3154
I79
sS'fukin'
p3155
I79
sS'taylor'
p3156
I79
sS'cousin'
p3157
I79
sS'tiene'
p3158
I79
sS'quit'
p3159
I79
sS'yay'
p3160
I77
sS'die\xe2\x80\x9d'
p3161
I79
sS'tremendous'
p3162
I79
sS"it's"
p3163
I41
sS'tutor'
p3164
I79
sS'thottie'
p3165
I78
sS'drank'
p3166
I77
sS'yah'
p3167
I79
sS'qualify'
p3168
I79
sS'hottest'
p3169
I79
sS'louisiana'
p3170
I76
sS'bbq'
p3171
I79
sS'>'
p3172
I79
sS'lane'
p3173
I79
sS'lynnanne'
p3174
I79
sS'neutrals'
p3175
I79
sS'wanna'
p3176
I56
sS'puberty'
p3177
I79
sS'paradise"'
p3178
I79
sS'hmu'
p3179
I77
sS'vibing'
p3180
I79
sS'nominations'
p3181
I79
sS'taffy:/'
p3182
I79
sS'hmm'
p3183
I78
sS'finished'
p3184
I74
sS'accident'
p3185
I79
sS'nosey...,91201\n521808903172935680,gurrruohm,2014-10-13'
p3186
I79
sS'-.-'
p3187
I79
sS'mail'
p3188
I78
sS'smoking'
p3189
I79
sS'brunch'
p3190
I78
sS'general'
p3191
I79
sS'twins!!!\xe2\x80\x9d'
p3192
I79
sS'painter'
p3193
I79
sS'plaid'
p3194
I79
sS'unlike'
p3195
I79
sS'vanilla'
p3196
I78
sS'brat'
p3197
I79
sS'harder'
p3198
I79
sS'value'
p3199
I79
sS'will'
p3200
I61
sS'gucci'
p3201
I79
sS'carole'
p3202
I79
sS'hahaha'
p3203
I76
sS'pictures'
p3204
I79
sS'ponyo'
p3205
I79
sS'cuzin'
p3206
I79
sS'almost'
p3207
I77
sS'demo'
p3208
I79
sS'oueeee'
p3209
I79
sS'probs'
p3210
I79
sS'surface'
p3211
I79
sS'helped'
p3212
I78
sS'gothic'
p3213
I79
sS'avi'
p3214
I72
sS'partynextdoor'
p3215
I79
sS'lifetime'
p3216
I79
sS'hearted'
p3217
I79
sS'ave'
p3218
I79
sS'uggs'
p3219
I79
sS'(1521'
p3220
I79
sS'whore'
p3221
I78
sS'tattoo'
p3222
I79
sS'diets'
p3223
I79
sS'cross'
p3224
I79
sS'kash'
p3225
I79
sS'eric'
p3226
I79
sS'gesture'
p3227
I79
sS'nod'
p3228
I79
sS'yasssss,91201\n521515984289423360,gurrruohm,2014-10-13'
p3229
I79
sS'shuttle'
p3230
I78
sS'party'
p3231
I78
sS'gets'
p3232
I75
sS'tattos'
p3233
I79
sS'tomatoes'
p3234
I79
sS'ball'
p3235
I79
sS'premiere'
p3236
I79
sS'drink'
p3237
I76
sS'collab'
p3238
I79
sS'ion'
p3239
I78
sS'takers'
p3240
I78
sS'fucked'
p3241
I77
sS'yoga'
p3242
I79
sS'13th)"'
p3243
I79
sS'awwww'
p3244
I79
sS'keep'
p3245
I77
sS'off'
p3246
I65
sS'rubbed'
p3247
I79
sS'i'
p3248
I1
sS'well'
p3249
I70
sS'1957'
p3250
I79
sS'fighting'
p3251
I79
sS'thought'
p3252
I69
sS'patterns'
p3253
I78
sS'wyd'
p3254
I79
sS'thruuuu'
p3255
I79
sS'english'
p3256
I79
sS'position'
p3257
I79
sS'privada'
p3258
I79
sS'alec'
p3259
I79
sS'usual'
p3260
I79
sS'flown'
p3261
I79
sS'less'
p3262
I79
sS'upton'
p3263
I79
sS'accurate'
p3264
I77
sS'liked'
p3265
I78
sS'missss'
p3266
I79
sS'now!!\xe2\x80\x9d'
p3267
I79
sS'graduate'
p3268
I79
sS'bicycles'
p3269
I79
sS'adr'
p3270
I78
sS'point'
p3271
I75
sS'lake'
p3272
I77
sS'ketchup'
p3273
I79
sS'nicki'
p3274
I79
sS'5'
p3275
I72
sS'riverside'
p3276
I79
sS'smart'
p3277
I78
sS'sonic'
p3278
I79
sS'rights"'
p3279
I79
sS"who's"
p3280
I76
sS'rice??:)'
p3281
I79
sS'five'
p3282
I79
sS'know'
p3283
I42
sS'facial'
p3284
I79
sS'jaaaaawdinnnss'
p3285
I79
sS'dani..break'
p3286
I79
sS'taking'
p3287
I79
sS'laaaaates'
p3288
I79
sS'(caked'
p3289
I79
sS'busy~~just'
p3290
I79
sS'hear/see'
p3291
I79
sS'loss'
p3292
I79
sS'minnie'
p3293
I79
sS'like'
p3294
I21
sS'lost'
p3295
I73
sS'sizes'
p3296
I79
sS'miami'
p3297
I79
sS'perpetual'
p3298
I79
sS'fernando'
p3299
I79
sS'controllers'
p3300
I79
sS'actress"'
p3301
I79
sS'lose'
p3302
I77
sS'nerves'
p3303
I78
sS'pasties'
p3304
I79
sS'works'
p3305
I79
sS'soft'
p3306
I79
sS'page'
p3307
I78
sS'nigga'
p3308
I75
sS"mambo's"
p3309
I77
sS'foreseeable'
p3310
I79
sS'twitter'
p3311
I68
sS'done!\xe2\x80\x9d'
p3312
I79
sS'alive'
p3313
I79
sS'hair'
p3314
I71
sS'niggs'
p3315
I79
sS'homo'
p3316
I78
sS'shes'
p3317
I79
sS"why'd"
p3318
I78
sS'stuffs'
p3319
I79
sS'home'
p3320
I72
sS'liking'
p3321
I79
sS'homg'
p3322
I79
sS'happens'
p3323
I78
sS'jeremy'
p3324
I79
sS'literally'
p3325
I49
sS"mo'"
p3326
I79
sS'lean'
p3327
I79
sS'twerking'
p3328
I78
sS'does'
p3329
I70
sS'juicyb\xc3\x86rai'
p3330
I79
sS'oatmeal'
p3331
I79
sS'bosses'
p3332
I79
sS'leader'
p3333
I79
sS'blurry'
p3334
I79
sS'hijo'
p3335
I79
sS'pepper'
p3336
I78
sS'blowing'
p3337
I79
sS'schedule'
p3338
I79
sS'bowling'
p3339
I79
sS'slut'
p3340
I79
sS'buttoned'
p3341
I79
sS'pressure'
p3342
I79
sS'host'
p3343
I79
sS'snapped'
p3344
I79
sS'stage'
p3345
I79
sS'about'
p3346
I58
sS'photoshoot'
p3347
I78
sS'emails'
p3348
I79
sS'justin'
p3349
I78
sS'slayed'
p3350
I78
sS'getting'
p3351
I70
sS'hookup'
p3352
I79
sS'waist'
p3353
I79
sS'angeles'
p3354
I78
sS'swear'
p3355
I79
sS'intimidation--oh'
p3356
I79
sS'fiestas'
p3357
I79
sS'swimming'
p3358
I78
sS'channing'
p3359
I79
sS'own'
p3360
I75
sS'gatsby'
p3361
I79
sS'political'
p3362
I79
sS'patar'
p3363
I79
sS'tag'
p3364
I79
sS'socks'
p3365
I79
sS'chris'
p3366
I79
sS'weather'
p3367
I78
sS'promise'
p3368
I79
sS'tiny'
p3369
I79
sS'winging'
p3370
I79
sS'drowning-'
p3371
I79
sS'lowkey'
p3372
I79
sS'yaaaaaay'
p3373
I79
sS'bothers'
p3374
I79
sS'thang'
p3375
I77
sS'museum'
p3376
I79
sS'museums'
p3377
I79
sS'believer'
p3378
I79
sS'frustration'
p3379
I79
sS'biggest'
p3380
I79
sS'buena'
p3381
I79
sS'fgt\xe2\x80\x9d'
p3382
I79
sS'funnel'
p3383
I79
sS'buy'
p3384
I73
sS'triggered'
p3385
I79
sS"i've"
p3386
I59
sS'bus'
p3387
I79
sS'brand'
p3388
I77
sS'bitches'
p3389
I72
sS'but'
p3390
I24
sS'delivery'
p3391
I79
sS'expected'
p3392
I79
sS'hi'
p3393
I76
sS'goals'
p3394
I76
sS'hc'
p3395
I78
sS'ha'
p3396
I78
sS'eat'
p3397
I73
sS'bud'
p3398
I78
sS'he'
p3399
I52
sS'count'
p3400
I78
sS'made'
p3401
I67
sS'wise'
p3402
I79
sS'beds'
p3403
I79
sS'places'
p3404
I79
sS'campus'
p3405
I79
sS'wish'
p3406
I69
sS'j'
p3407
I79
sS'backfires'
p3408
I79
sS'signed'
p3409
I79
sS'record'
p3410
I79
sS'dms'
p3411
I79
sS'aslan'
p3412
I79
sS'cake'
p3413
I79
sS'problem'
p3414
I77
sS'piece'
p3415
I76
sS'minutes'
p3416
I78
sS'floridian'
p3417
I79
sS'thnks'
p3418
I79
sS'irish'
p3419
I79
sS'whatever'
p3420
I79
sS'recognize'
p3421
I79
sS'pic'
p3422
I77
sS'kisses'
p3423
I76
sS'recon'
p3424
I79
sS'beats'
p3425
I79
sS'adorbs'
p3426
I79
sS'shooting'
p3427
I76
sS'bubblescum'
p3428
I79
sS'ew'
p3429
I78
sS"l'oreal"
p3430
I79
sS'spell'
p3431
I79
sS'cuties"'
p3432
I79
sS'loud'
p3433
I79
sS'-uber'
p3434
I79
sS'petition'
p3435
I79
sS'45'
p3436
I78
sS'claiming'
p3437
I79
sS'lately'
p3438
I78
sS'other'
p3439
I72
sS"04:21:14.0,34.16552363,-118.30340948,3016.02,it's"
p3440
I79
sS'sick'
p3441
I74
sS'quantities'
p3442
I79
sS'commme'
p3443
I79
sS'boob'
p3444
I78
sS'talkin'
p3445
I78
sS'canada'
p3446
I79
sS'francisco'
p3447
I79
sS'monday'
p3448
I78
sS'innovative'
p3449
I79
sS'excite'
p3450
I79
sS'june'
p3451
I79
sS'rayne'
p3452
I79
sS'stay'
p3453
I75
sS'stag'
p3454
I79
sS'chance'
p3455
I79
sS'rey'
p3456
I79
sS'booboo'
p3457
I78
sS'pinup'
p3458
I79
sS'friends'
p3459
I61
sS'dimitwee'
p3460
I79
sS'coat'
p3461
I79
sS'4s'
p3462
I79
sS'rule'
p3463
I79
sS'dey'
p3464
I79
sS'amanda'
p3465
I79
sS'write'
p3466
I79
sS'understand'
p3467
I79
sS'hooves'
p3468
I79
s.