(dp0
S''
p1
I2
sS'all'
p2
I22
sS':/'
p3
I23
sS':)'
p4
I24
sS'whatevaa'
p5
I24
sS'excellent'
p6
I24
sS'\xe2\x80\x9cwoman'
p7
I24
sS'manager'
p8
I24
sS'sleep'
p9
I23
sS'go'
p10
I22
sS'hate'
p11
I24
sS'seemed'
p12
I24
sS'up"'
p13
I24
sS'young'
p14
I24
sS'tp'
p15
I23
sS'to'
p16
I3
sS'aaron'
p17
I24
sS'asking'
p18
I24
sS'under'
p19
I24
sS'suite'
p20
I24
sS'11:30'
p21
I24
sS'activities'
p22
I20
sS'woman'
p23
I24
sS'stanton'
p24
I24
sS'garden'
p25
I23
sS'nezki'
p26
I24
sS'sitting'
p27
I24
sS'fav'
p28
I24
sS"women's"
p29
I24
sS'vegas'
p30
I24
sS'every'
p31
I24
sS'entire'
p32
I24
sS'school'
p33
I23
sS'eden'
p34
I16
sS'try'
p35
I24
sS'crack\xe2\x80\x9d'
p36
I24
sS'past'
p37
I24
sS'burger'
p38
I18
sS'saya'
p39
I24
sS'eating'
p40
I24
sS'others)'
p41
I24
sS'jesus'
p42
I21
sS'what'
p43
I24
sS'christ'
p44
I21
sS'decisions'
p45
I24
sS'while'
p46
I24
sS'find'
p47
I23
sS'wouldnt'
p48
I24
sS'verdugo'
p49
I24
sS'new'
p50
I23
sS'tribute'
p51
I19
sS'ever'
p52
I24
sS'exercise'
p53
I24
sS'(glendale'
p54
I23
sS'kicked'
p55
I24
sS'barometer'
p56
I24
sS'leg'
p57
I24
sS'hungover'
p58
I24
sS'men'
p59
I23
sS'here'
p60
I23
sS'dikira'
p61
I24
sS'\xe2\x9d\xa4\xef\xb8\x8f'
p62
I24
sS's/o'
p63
I24
sS'kamu'
p64
I23
sS'making'
p65
I23
sS'alone'
p66
I23
sS'100'
p67
I24
sS'celebration'
p68
I24
sS'great'
p69
I24
sS'kids'
p70
I22
sS'daughter'
p71
I23
sS'shift'
p72
I24
sS'solo'
p73
I24
sS'credit'
p74
I24
sS'existent'
p75
I24
sS'bucs'
p76
I24
sS'weird'
p77
I24
sS'makes'
p78
I24
sS'thats'
p79
I24
sS'teenage'
p80
I24
sS'pakbet'
p81
I24
sS'love'
p82
I20
sS'berat'
p83
I23
sS'fres'
p84
I24
sS'unos'
p85
I24
sS'(me'
p86
I24
sS'post'
p87
I24
sS'casket'
p88
I24
sS'from'
p89
I19
sS'would'
p90
I21
sS'&'
p91
I24
sS'ariel'
p92
I24
sS'donuts'
p93
I24
sS'dude'
p94
I23
sS'next'
p95
I24
sS'15-10'
p96
I24
sS"tito's"
p97
I24
sS'music'
p98
I23
sS'pitching'
p99
I24
sS'taken'
p100
I24
sS'means'
p101
I24
sS'prep'
p102
I24
sS'today'
p103
I24
sS'more'
p104
I23
sS'teen'
p105
I24
sS'faith'
p106
I24
sS'started'
p107
I24
sS'oscar'
p108
I24
sS'haha'
p109
I20
sS'subtweet'
p110
I24
sS'cusine'
p111
I24
sS'estrellados'
p112
I24
sS'\xe2\x9d\xa4\xef\xb8\x8f\xe2\x9d\xa4\xef\xb8\x8f'
p113
I24
sS'sleeping'
p114
I24
sS'yaassssssss'
p115
I24
sS'adventist'
p116
I24
sS'me'
p117
I11
sS'keeping'
p118
I24
sS'ma'
p119
I24
sS'room'
p120
I24
sS'hour'
p121
I24
sS'niggas'
p122
I23
sS'this'
p123
I13
sS'mo'
p124
I24
sS'work'
p125
I21
sS'kingina'
p126
I24
sS'gainz'
p127
I24
sS'cat'
p128
I24
sS'glendale)'
p129
I24
sS'movies'
p130
I24
sS'can'
p131
I23
sS'of'
p132
I6
sS'alwayss'
p133
I24
sS'closing'
p134
I24
sS'my'
p135
I5
sS'ibu'
p136
I24
sS'gycked'
p137
I24
sS'heart'
p138
I23
sS'challenging'
p139
I24
sS'thirsty'
p140
I24
sS'give'
p141
I23
sS'in'
p142
I7
sS'share'
p143
I24
sS'fuck'
p144
I21
sS'accept'
p145
I24
sS'heard'
p146
I24
sS'something'
p147
I24
sS'hickman'
p148
I24
sS'handle'
p149
I24
sS'clothing'
p150
I24
sS'ceremony'
p151
I23
sS'information'
p152
I24
sS'needs'
p153
I23
sS'memorize'
p154
I24
sS'acts'
p155
I24
sS'iniiiiii'
p156
I24
sS'1'
p157
I23
sS'till'
p158
I24
sS'sunday'
p159
I23
sS'forest'
p160
I24
sS'place'
p161
I24
sS'pizza'
p162
I24
sS'badly'
p163
I24
sS'lah'
p164
I24
sS'watch'
p165
I24
sS'after'
p166
I19
sS'southern'
p167
I23
sS'4th'
p168
I24
sS'mad'
p169
I24
sS'guys'
p170
I24
sS'fm'
p171
I24
sS'man'
p172
I18
sS'a'
p173
I8
sS'leroy'
p174
I24
sS'maybe'
p175
I23
sS'sp'
p176
I24
sS'lost'
p177
I24
sS'anytime'
p178
I24
sS'si'
p179
I24
sS'so'
p180
I12
sS'celebrate\xe2\x80\xa6'
p181
I24
sS'cane'
p182
I24
sS'order'
p183
I24
sS"skaf's\xe2\x80\xa6"
p184
I24
sS"that's"
p185
I24
sS'fifa'
p186
I24
sS'cute'
p187
I24
sS'office'
p188
I23
sS"don't"
p189
I22
sS'soon'
p190
I23
sS'ended'
p191
I24
sS'bullpen'
p192
I23
sS"won't"
p193
I24
sS'looks'
p194
I24
sS'during'
p195
I24
sS'broadway'
p196
I24
sS'still'
p197
I20
sS'its'
p198
I23
sS'before'
p199
I23
sS'24'
p200
I24
sS'needa'
p201
I24
sS'how'
p202
I19
sS'lateral'
p203
I24
sS'sexiest'
p204
I24
sS'amazing'
p205
I22
sS'[pic]'
p206
I23
sS'late'
p207
I24
sS'atm\xe2\x80\x9d'
p208
I24
sS'serenaded'
p209
I24
sS'imy'
p210
I24
sS'hobby'
p211
I24
sS'main'
p212
I24
sS'spot'
p213
I24
sS"haven't"
p214
I24
sS"skaf's"
p215
I24
sS'them'
p216
I23
sS'good'
p217
I24
sS'=)))))'
p218
I24
sS'ya'
p219
I23
sS'dam'
p220
I23
sS'workout'
p221
I24
sS'spell'
p222
I24
sS'yg'
p223
I24
sS"you've"
p224
I24
sS'they'
p225
I19
sS'not'
p226
I17
sS'now'
p227
I22
sS'day'
p228
I23
sS'yw'
p229
I24
sS"physician's"
p230
I24
sS'wont'
p231
I24
sS'alex'
p232
I23
sS'meat'
p233
I24
sS'tanda'
p234
I24
sS'other...too'
p235
I24
sS'aleks'
p236
I24
sS'each'
p237
I21
sS'deandre'
p238
I24
sS'entirely'
p239
I24
sS'stock'
p240
I24
sS"isn't"
p241
I24
sS'heavy'
p242
I24
sS'studios'
p243
I24
sS'yrs'
p244
I24
sS'lists"'
p245
I24
sS'house'
p246
I22
sS'hard'
p247
I24
sS'reduce'
p248
I24
sS'yeah'
p249
I24
sS'becanda'
p250
I24
sS'our'
p251
I23
sS'fuckbifre'
p252
I24
sS'beyond'
p253
I24
sS'86'
p254
I24
sS'event'
p255
I24
sS'out'
p256
I21
sS'rt'
p257
I20
sS'12'
p258
I24
sS'alcohol'
p259
I24
sS'ughhhhh'
p260
I24
sS'god'
p261
I21
sS'rd'
p262
I24
sS'attracted'
p263
I24
sS'7'
p264
I23
sS'internet'
p265
I24
sS'got'
p266
I20
sS'blg'
p267
I24
sS"one's"
p268
I24
sS'ass'
p269
I23
sS'foundation'
p270
I24
sS'dodgers'
p271
I24
sS"doesn't"
p272
I23
sS'huevos'
p273
I23
sS'cars'
p274
I24
sS'pic"'
p275
I24
sS'saints)'
p276
I22
sS'toy'
p277
I24
sS'california'
p278
I23
sS'besides'
p279
I24
sS'grandma'
p280
I24
sS'put'
p281
I24
sS'wanted'
p282
I22
sS'too)'
p283
I24
sS'hacked'
p284
I24
sS'starts'
p285
I24
sS'could'
p286
I24
sS'days'
p287
I23
sS'times'
p288
I24
sS'whaaaaatttt'
p289
I24
sS'birthday'
p290
I24
sS'iso'
p291
I24
sS"today's"
p292
I23
sS'think'
p293
I24
sS'already'
p294
I24
sS'feel'
p295
I22
sS'wasp'
p296
I24
sS'one'
p297
I19
sS'feet'
p298
I24
sS'done'
p299
I23
sS'bitch'
p300
I24
sS'carry'
p301
I24
sS'chubby'
p302
I24
sS'1:20'
p303
I24
sS'open'
p304
I23
sS'tomorrow'
p305
I24
sS"'em"
p306
I24
sS"you're"
p307
I23
sS'little'
p308
I24
sS'basketball'
p309
I24
sS'ordering'
p310
I24
sS'automobile'
p311
I23
sS'caught'
p312
I24
sS'\xe6\xb7\xb1\xe5\xa4\x9c\xe3\x81\xae\xe3\x82\xa4\xe3\x82\xbf\xe3\x83\xaa\xe3\x82\xa2\xe3\x83\xbc\xe3\x83\xbc\xe3\x82\x93'
p313
I24
sS'accent'
p314
I24
sS'least'
p315
I24
sS'celebratory'
p316
I24
sS'their'
p317
I15
sS'fml'
p318
I24
sS'2'
p319
I24
sS'too'
p320
I24
sS'white'
p321
I24
sS'john'
p322
I24
sS'fiers'
p323
I24
sS'final'
p324
I24
sS'friend'
p325
I23
sS'headache'
p326
I24
sS'that'
p327
I16
sS'ocie'
p328
I24
sS'gym'
p329
I24
sS'nobody'
p330
I24
sS'ridiculous'
p331
I24
sS'because'
p332
I23
sS'mattingly'
p333
I24
sS'tithe'
p334
I24
sS'cleanse'
p335
I24
sS"here's"
p336
I24
sS'11'
p337
I24
sS'wide'
p338
I24
sS'antojan'
p339
I24
sS'hah-nya'
p340
I24
sS'15'
p341
I24
sS'lmao'
p342
I24
sS'17'
p343
I24
sS'boring'
p344
I24
sS'gotta'
p345
I24
sS'bed'
p346
I24
sS'youth'
p347
I23
sS'classes'
p348
I24
sS'hahahhahahahha'
p349
I24
sS'spurs'
p350
I24
sS'and'
p351
I9
sS'fashion'
p352
I24
sS'outta'
p353
I24
sS'san'
p354
I24
sS'willingness'
p355
I24
sS'ran'
p356
I24
sS'giancarlo'
p357
I24
sS'mind'
p358
I23
sS'argument'
p359
I24
sS'sad'
p360
I24
sS'randomly'
p361
I24
sS'talking'
p362
I23
sS'sax'
p363
I24
sS'defending'
p364
I24
sS'have'
p365
I20
sS'need'
p366
I20
sS'seen'
p367
I24
sS'ocean'
p368
I24
sS'saw'
p369
I24
sS'any'
p370
I23
sS'sell'
p371
I24
sS'prosperity'
p372
I24
sS'gabriela'
p373
I24
sS'lil'
p374
I24
sS'advil'
p375
I24
sS'-'
p376
I17
sS'snow'
p377
I24
sS'specs'
p378
I24
sS'chest'
p379
I24
sS"artenos's"
p380
I24
sS'take'
p381
I23
sS'performance'
p382
I24
sS'rides'
p383
I24
sS'collapsed'
p384
I24
sS'even'
p385
I23
sS'tonight'
p386
I24
sS'sets'
p387
I24
sS'diminishing'
p388
I24
sS'kan'
p389
I24
sS'buffet'
p390
I24
sS'most'
p391
I23
sS'mouth'
p392
I24
sS'plan'
p393
I24
sS'complaints'
p394
I24
sS'extremely'
p395
I24
sS'why'
p396
I22
sS'trapping'
p397
I24
sS'ka'
p398
I24
sS'medical'
p399
I24
sS'camp'
p400
I24
sS'ko'
p401
I24
sS'dog'
p402
I23
sS'15.14.13.12.11.10.9'
p403
I24
sS'looked'
p404
I24
sS'yang'
p405
I24
sS'nge-spa'
p406
I24
sS'se'
p407
I24
sS'clean'
p408
I23
sS'wow'
p409
I24
sS'fact'
p410
I24
sS'saying'
p411
I24
sS'show'
p412
I22
sS'heeeeey'
p413
I24
sS'shoe'
p414
I24
sS'earth'
p415
I23
sS'enjoyed'
p416
I24
sS'make'
p417
I24
sS'impact'
p418
I23
sS'busy'
p419
I23
sS'dinasalan'
p420
I24
sS'cried'
p421
I24
sS'jaw'
p422
I24
sS'saints'
p423
I24
sS'hrs'
p424
I24
sS'rico'
p425
I24
sS'going'
p426
I23
sS'about'
p427
I24
sS'rich'
p428
I24
sS'kali'
p429
I24
sS'wearing'
p430
I24
sS'do'
p431
I18
sS'his'
p432
I24
sS'hit'
p433
I22
sS'hiv'
p434
I24
sS'get'
p435
I20
sS'goodluck'
p436
I24
sS'erikarobie'
p437
I24
sS'reps'
p438
I23
sS'tbt'
p439
I24
sS'tbh'
p440
I24
sS'feels'
p441
I24
sS'ones'
p442
I24
sS'despite'
p443
I24
sS'aaa'
p444
I23
sS'nasty'
p445
I24
sS'dr'
p446
I24
sS'him'
p447
I24
sS'prime'
p448
I23
sS'mrs.hayrikyan'
p449
I24
sS'bar'
p450
I18
sS'showed'
p451
I24
sS'girl'
p452
I24
sS'morning'
p453
I23
sS'bad'
p454
I22
sS'priest'
p455
I24
sS'aee'
p456
I24
sS'she'
p457
I23
sS'glendale'
p458
I24
sS'fixed'
p459
I24
sS'costume'
p460
I24
sS'learn'
p461
I23
sS'concert'
p462
I23
sS'crunch'
p463
I24
sS'w/'
p464
I23
sS'[wealth]'
p465
I24
sS'lazy'
p466
I24
sS'pushed'
p467
I24
sS'see'
p468
I22
sS'sec'
p469
I24
sS'are'
p470
I22
sS'snapchatting'
p471
I24
sS'milwaukee'
p472
I24
sS'hammer'
p473
I24
sS'xxxxx'
p474
I24
sS'best'
p475
I24
sS'definitely'
p476
I24
sS'planet'
p477
I24
sS'tripping'
p478
I24
sS'itu'
p479
I23
sS'camping'
p480
I24
sS'away'
p481
I23
sS'demons'
p482
I24
sS'buko'
p483
I24
sS'fans'
p484
I24
sS'score'
p485
I24
sS'between'
p486
I24
sS'probably'
p487
I24
sS'teens'
p488
I23
sS'ima'
p489
I24
sS'we'
p490
I17
sS'never'
p491
I22
sS'wa'
p492
I24
sS'sorrow'
p493
I24
sS'mastermind'
p494
I24
sS'however'
p495
I24
sS'job'
p496
I23
sS'ws'
p497
I24
sS'wth'
p498
I24
sS'picking'
p499
I22
sS'come'
p500
I24
sS'legit'
p501
I24
sS'taking'
p502
I23
sS"he's"
p503
I24
sS'wifey'
p504
I24
sS'blimp'
p505
I24
sS'oh'
p506
I24
sS'players'
p507
I23
sS'drugs'
p508
I24
sS'whole'
p509
I23
sS'asked'
p510
I24
sS"can't"
p511
I22
sS'drugs"'
p512
I24
sS'drunk'
p513
I24
sS'beyonce'
p514
I24
sS'gitu'
p515
I24
sS"couldn't"
p516
I24
sS'church'
p517
I16
sS'actually'
p518
I24
sS'chka'
p519
I24
sS'basis'
p520
I24
sS'monthly'
p521
I24
sS"it's"
p522
I22
sS'ca)'
p523
I24
sS'seneng'
p524
I24
sS'hitting'
p525
I24
sS'strengthen'
p526
I24
sS'beer'
p527
I24
sS'dropping'
p528
I22
sS'damn'
p529
I23
sS'dangers'
p530
I24
sS'sesh'
p531
I24
sS'bbq'
p532
I24
sS'attractive'
p533
I24
sS'wants'
p534
I24
sS'life'
p535
I24
sS'girls'
p536
I24
sS'senang'
p537
I24
sS'gunpoint'
p538
I24
sS'levels'
p539
I24
sS'pekerjaan'
p540
I24
sS'gak'
p541
I23
sS'puerto'
p542
I24
sS'catch'
p543
I23
sS'talent'
p544
I24
sS'160'
p545
I24
sS'chill'
p546
I24
sS'case'
p547
I24
sS'lebanese'
p548
I24
sS'holiday'
p549
I24
sS'"laundry'
p550
I24
sS'these'
p551
I24
sS'might'
p552
I24
sS'straight'
p553
I24
sS'cash'
p554
I24
sS'n'
p555
I23
sS'will'
p556
I23
sS'kazaz'
p557
I20
sS'74th'
p558
I24
sS'kelahiran'
p559
I24
sS'happened'
p560
I24
sS'pyramid'
p561
I24
sS'almost'
p562
I24
sS'is'
p563
I15
sS'it'
p564
I12
sS'clearly'
p565
I24
sS'biar'
p566
I24
sS'someone'
p567
I24
sS'im'
p568
I23
sS'snuck'
p569
I24
sS'ready'
p570
I24
sS'rodrigo'
p571
I24
sS'if'
p572
I19
sS'grown'
p573
I24
sS'cuisine'
p574
I24
sS'pat'
p575
I24
sS'anymore'
p576
I24
sS'juan'
p577
I24
sS'sacra'
p578
I24
sS'vanessa'
p579
I24
sS'speech'
p580
I24
sS'hahah'
p581
I24
sS'siigh'
p582
I24
sS'"i'
p583
I24
sS'party'
p584
I23
sS'yung'
p585
I24
sS'ball'
p586
I24
sS'latter-day'
p587
I21
sS'evil'
p588
I24
sS'strength'
p589
I24
sS'kim'
p590
I24
sS'unicorn'
p591
I24
sS'fucked'
p592
I24
sS"i'm"
p593
I10
sS'robbed'
p594
I24
sS'early'
p595
I24
sS'off'
p596
I22
sS'i'
p597
I4
sS'miss'
p598
I24
sS'well'
p599
I24
sS'spent'
p600
I24
sS'picks'
p601
I24
sS'tho'
p602
I23
sS'burgers'
p603
I24
sS'hamtractor/lying'
p604
I24
sS'mother'
p605
I24
sS'y'
p606
I24
sS'traffic'
p607
I24
sS'the'
p608
I1
sS'posses'
p609
I24
sS'summer'
p610
I24
sS'mom'
p611
I24
sS'just'
p612
I18
sS'being'
p613
I22
sS'gods'
p614
I24
sS'rest'
p615
I23
sS'maketh'
p616
I24
sS'thanks'
p617
I22
sS'followed'
p618
I23
sS'bangga'
p619
I24
sS'betul'
p620
I24
sS'yet'
p621
I24
sS'hah'
p622
I24
sS'\xc3\x9cber'
p623
I24
sS'yr'
p624
I23
sS'hal'
p625
I24
sS'spnnining'
p626
I24
sS'drive'
p627
I24
sS'had'
p628
I24
sS'calgon'
p629
I24
sS'killed'
p630
I24
sS'add'
p631
I24
sS'warms'
p632
I24
sS'4'
p633
I23
sS'5'
p634
I24
sS'has'
p635
I23
sS'excited'
p636
I24
sS'gave'
p637
I23
sS'real'
p638
I24
sS'soundmaker"'
p639
I24
sS'budgie'
p640
I24
sS'big'
p641
I24
sS'possible'
p642
I22
sS'gonna'
p643
I23
sS'dark'
p644
I24
sS'matters'
p645
I24
sS'game'
p646
I24
sS'reads'
p647
I24
sS'know'
p648
I23
sS'listening'
p649
I24
sS'press'
p650
I24
sS'world'
p651
I23
sS'part'
p652
I24
sS'knock'
p653
I24
sS'nigha'
p654
I24
sS'nay'
p655
I24
sS'like'
p656
I20
sS'rewatching'
p657
I24
sS'hahahahah'
p658
I24
sS'(101'
p659
I24
sS'always'
p660
I24
sS'ivan'
p661
I24
sS'sebastian'
p662
I24
sS'curls'
p663
I24
sS'sketch'
p664
I24
sS'right'
p665
I20
sS'old'
p666
I23
sS'fucking'
p667
I24
sS'twitter'
p668
I24
sS'some'
p669
I23
sS'back'
p670
I23
sS'remy'
p671
I24
sS'hush'
p672
I24
sS'terrace)'
p673
I24
sS'home'
p674
I24
sS'thugfashion'
p675
I24
sS'thinks'
p676
I24
sS'"what'
p677
I24
sS'for'
p678
I16
sS'phenomenal'
p679
I24
sS"jim's"
p680
I24
sS'"idleness"'
p681
I24
sS'passion'
p682
I24
sS'cheaters.......ew'
p683
I24
sS'be'
p684
I21
sS'who'
p685
I24
sS'\xe2\x9c\x88\xef\xb8\x8f'
p686
I24
sS'business'
p687
I24
sS'$15k'
p688
I24
sS'costumes'
p689
I24
sS'vigen'
p690
I24
sS'zombie'
p691
I24
sS'attendance'
p692
I24
sS'boxes'
p693
I24
sS'losing'
p694
I24
sS'carol'
p695
I24
sS'by'
p696
I19
sS'on'
p697
I10
sS'sister'
p698
I23
sS'incline'
p699
I24
sS'anything'
p700
I24
sS'getting'
p701
I23
sS'apocalypse\xe2\x80\x9d'
p702
I24
sS'army'
p703
I24
sS'hot'
p704
I24
sS'dinner'
p705
I23
sS'blessings'
p706
I24
sS'idk'
p707
I23
sS'wanna'
p708
I24
sS'or'
p709
I23
sS'"please'
p710
I24
sS'seeing'
p711
I23
sS'own'
p712
I24
sS'colorado'
p713
I24
sS'auntie'
p714
I24
sS'ahh'
p715
I24
sS'soo'
p716
I24
sS'down'
p717
I24
sS'nigga'
p718
I23
sS'lesson'
p719
I23
sS'your'
p720
I22
sS'deadass'
p721
I24
sS'her'
p722
I22
sS'weekend'
p723
I24
sS'there'
p724
I24
sS'live'
p725
I24
sS'lol'
p726
I22
sS'kidding'
p727
I24
sS'stuck'
p728
I24
sS'much'
p729
I24
sS"we're"
p730
I23
sS'way'
p731
I24
sS'suit'
p732
I24
sS'ihy'
p733
I24
sS'agbu'
p734
I22
sS'was'
p735
I18
sS'hei'
p736
I24
sS'happy'
p737
I24
sS'okay"me'
p738
I24
sS'suck)'
p739
I24
sS'believe'
p740
I24
sS'but'
p741
I17
sS'construction'
p742
I24
sS'hear'
p743
I23
sS'ughhh'
p744
I24
sS'with'
p745
I14
sS'he'
p746
I17
sS'made'
p747
I24
sS'tossed'
p748
I24
sS'duudeeeeee'
p749
I24
sS'celebrating'
p750
I24
sS'wish'
p751
I24
sS'inside'
p752
I24
sS'up'
p753
I14
sS'us'
p754
I20
sS"irene's"
p755
I24
sS'(cont)'
p756
I23
sS'ap'
p757
I24
sS'play'
p758
I24
sS'taste'
p759
I24
sS'setuju'
p760
I24
sS'universal'
p761
I23
sS'donuts)'
p762
I24
sS'am'
p763
I23
sS'mike'
p764
I24
sS'an'
p765
I22
sS'coordinator'
p766
I24
sS'as'
p767
I23
sS'conan'
p768
I24
sS'at'
p769
I10
sS'trip'
p770
I24
sS'shit'
p771
I21
sS'again'
p772
I22
sS'ehhh'
p773
I24
sS'want'
p774
I24
sS'no'
p775
I23
sS'45'
p776
I24
sS'when'
p777
I24
sS'ppl!!!!!!!1'
p778
I24
sS'(sometimes'
p779
I24
sS'club'
p780
I23
sS'other'
p781
I23
sS'compares'
p782
I24
sS'tits'
p783
I24
sS'you'
p784
I14
sS'really'
p785
I23
sS'smell'
p786
I24
sS'kiis'
p787
I24
sS'\xe3\x81\x93\xe3\x83\xbc\xe3\x82\x86\xe9\x9b\xb0\xe5\x9b\xb2\xe6\xb0\x97\xe3\x81\x84\xe3\x81\x84'
p788
I24
sS"grubbin'"
p789
I24
sS'welcome'
p790
I24
sS'm'
p791
I24
sS'stay'
p792
I24
sS'william'
p793
I24
sS'fell'
p794
I24
sS'sandwhich'
p795
I24
sS'chris'
p796
I24
sS'friends'
p797
I23
sS'\xe2\x80\x93'
p798
I24
sS'e'
p799
I24
sS'buko)'
p800
I24
sS'finished'
p801
I24
sS'daily'
p802
I24
sS'shoutout'
p803
I24
sS'time'
p804
I21
sS'understand'
p805
I24
sS'"the'
p806
I24
sS'having'
p807
I24
s.