(dp0
S''
p1
I2
sS'all'
p2
I22
sS'rabbit'
p3
I24
sS'dance'
p4
I24
sS'dollar'
p5
I24
sS'gy'
p6
I24
sS'month'
p7
I24
sS'four'
p8
I24
sS'sleep'
p9
I23
sS'go'
p10
I14
sS'muppet'
p11
I24
sS'hate'
p12
I21
sS'hurry'
p13
I24
sS'buddy'
p14
I24
sS'tweet'
p15
I18
sS'young'
p16
I24
sS'to'
p17
I4
sS'finally'
p18
I24
sS'text'
p19
I24
sS'pay'
p20
I24
sS'sorry'
p21
I24
sS'jaywalking'
p22
I24
sS'screen'
p23
I24
sS'worth'
p24
I23
sS'brown'
p25
I24
sS'point'
p26
I24
sS'nite'
p27
I22
sS'fishnet'
p28
I24
sS'tacos'
p29
I23
sS'every'
p30
I24
sS'animals'
p31
I24
sS'difference'
p32
I24
sS'tickets'
p33
I23
sS'bestfriend'
p34
I24
sS'did'
p35
I23
sS'die'
p36
I24
sS'michael'
p37
I24
sS'this'
p38
I15
sS'vidaar'
p39
I24
sS'recall'
p40
I24
sS'small'
p41
I24
sS'guy'
p42
I22
sS'reliable'
p43
I24
sS'yall'
p44
I24
sS"i'll"
p45
I24
sS'booty'
p46
I24
sS'tired'
p47
I24
sS'waking'
p48
I24
sS'nail'
p49
I24
sS'video'
p50
I22
sS'b\xc3\xa9b\xc3\xa9'
p51
I24
sS'cat'
p52
I23
sS'even'
p53
I23
sS'what'
p54
I16
sS'pathetic'
p55
I24
sS"tonight's"
p56
I24
sS'goes'
p57
I24
sS'new'
p58
I23
sS'ever'
p59
I23
sS'plush'
p60
I24
sS'(glendale'
p61
I23
sS'shutup'
p62
I24
sS'never'
p63
I22
sS'here'
p64
I24
sS'vomiting'
p65
I24
sS'\xe2\x9d\xa4\xef\xb8\x8f'
p66
I23
sS'let'
p67
I23
sS'alone'
p68
I24
sS'along'
p69
I24
sS'earthquake'
p70
I24
sS'dork'
p71
I24
sS'wait'
p72
I20
sS'great'
p73
I19
sS'my'
p74
I9
sS'exceptionally'
p75
I24
sS'experience'
p76
I24
sS'amount'
p77
I24
sS'boo'
p78
I21
sS'action'
p79
I24
sS"i'm"
p80
I14
sS'makes'
p81
I24
sS'thats'
p82
I22
sS'killer'
p83
I24
sS'love'
p84
I20
sS'julie'
p85
I24
sS"justin's"
p86
I24
sS'outro'
p87
I24
sS'support'
p88
I24
sS'total'
p89
I24
sS'seester'
p90
I24
sS'ruin-island'
p91
I24
sS'use'
p92
I24
sS'cheating'
p93
I24
sS'from'
p94
I22
sS'working'
p95
I24
sS'&'
p96
I19
sS'chi'
p97
I24
sS'texting'
p98
I24
sS'frog'
p99
I24
sS'next'
p100
I22
sS'few'
p101
I23
sS'live'
p102
I24
sS'doubt'
p103
I24
sS'chinchilla'
p104
I24
sS'gorgeous'
p105
I24
sS'mysterious'
p106
I24
sS'survive'
p107
I24
sS'raiding'
p108
I24
sS'type'
p109
I24
sS'tell'
p110
I22
sS'today'
p111
I23
sS'more'
p112
I22
sS'babe'
p113
I24
sS'knows'
p114
I24
sS'on'
p115
I19
sS'chocolate'
p116
I24
sS'phone'
p117
I24
sS'ass\xe2\x80\xa6'
p118
I24
sS'basically'
p119
I24
sS'broke'
p120
I24
sS'baby'
p121
I24
sS'doom'
p122
I24
sS'must'
p123
I22
sS'me'
p124
I11
sS'works'
p125
I24
sS'douche'
p126
I24
sS'room'
p127
I23
sS'hour'
p128
I24
sS'meee'
p129
I24
sS'car'
p130
I24
sS'ride'
p131
I24
sS'oh'
p132
I24
sS'mi'
p133
I24
sS'roof'
p134
I24
sS'regrets'
p135
I24
sS'movies'
p136
I24
sS'anywhere'
p137
I24
sS'can'
p138
I22
sS'island'
p139
I23
sS'knocked'
p140
I24
sS'meet'
p141
I23
sS'arm"'
p142
I24
sS'beautiful'
p143
I22
sS'give'
p144
I23
sS'process'
p145
I24
sS'fuck'
p146
I20
sS'7pm'
p147
I24
sS'something'
p148
I24
sS'want'
p149
I21
sS'keep'
p150
I24
sS'2years'
p151
I24
sS'pink'
p152
I24
sS'turn'
p153
I23
sS'watching'
p154
I22
sS'till'
p155
I24
sS'hot'
p156
I22
sS'hugs'
p157
I24
sS'instead'
p158
I24
sS'badly'
p159
I24
sS'tried'
p160
I24
sS'tattoo'
p161
I24
sS'may'
p162
I23
sS'watch'
p163
I22
sS'advice'
p164
I24
sS'after'
p165
I21
sS'wrong'
p166
I24
sS'coming'
p167
I24
sS'date'
p168
I24
sS'heroes'
p169
I24
sS'monsters'
p170
I24
sS'guys'
p171
I22
sS'types'
p172
I24
sS'a'
p173
I5
sS'muppets'
p174
I24
sS'ghs'
p175
I24
sS'feels'
p176
I24
sS'bangerz'
p177
I24
sS'so'
p178
I11
sS'frequent'
p179
I24
sS'swollen'
p180
I24
sS'fan'
p181
I24
sS'"million'
p182
I24
sS'talk'
p183
I24
sS'wine'
p184
I23
sS'cute'
p185
I23
sS'westbrook'
p186
I24
sS'torturous'
p187
I24
sS"don't"
p188
I22
sS'move'
p189
I24
sS'mission'
p190
I23
sS'differe'
p191
I24
sS'course'
p192
I24
sS'through'
p193
I24
sS'hell'
p194
I23
sS'its'
p195
I24
sS'before'
p196
I23
sS'utenc'
p197
I24
sS'(totally'
p198
I24
sS'thank'
p199
I24
sS'la'
p200
I23
sS'beyonce'
p201
I24
sS'amazing'
p202
I24
sS'[pic]'
p203
I24
sS'late'
p204
I24
sS'soccer'
p205
I24
sS'might'
p206
I24
sS"haven't"
p207
I23
sS'then'
p208
I21
sS'them'
p209
I20
sS'good'
p210
I18
sS'yo'
p211
I24
sS'ya'
p212
I24
sS'safe'
p213
I24
sS'doll'
p214
I24
sS'yg'
p215
I24
sS'scene'
p216
I24
sS'lunch'
p217
I23
sS'starbucks'
p218
I24
sS'they'
p219
I24
sS'half'
p220
I23
sS'not'
p221
I19
sS'now'
p222
I20
sS'overboard'
p223
I24
sS'day'
p224
I21
sS'kiket'
p225
I24
sS'alex'
p226
I24
sS'name'
p227
I24
sS'oxygen'
p228
I24
sS'always'
p229
I23
sS'transmission'
p230
I24
sS'keri'
p231
I24
sS'americans'
p232
I24
sS'pgs'
p233
I24
sS'yayay'
p234
I24
sS'el'
p235
I23
sS'rodriguez'
p236
I24
sS'everyone'
p237
I23
sS'doing'
p238
I24
sS'house'
p239
I23
sS'hard'
p240
I23
sS'yeah'
p241
I23
sS'society'
p242
I24
sS'tonite'
p243
I23
sS'farewell'
p244
I24
sS'our'
p245
I21
sS'happen'
p246
I23
sS'worried'
p247
I24
sS'shannon'
p248
I24
sS'really'
p249
I21
sS'album'
p250
I24
sS'sebastian'
p251
I24
sS'driving'
p252
I24
sS'sharpest'
p253
I24
sS'defend'
p254
I24
sS'since'
p255
I24
sS'attracted'
p256
I24
sS"goin'"
p257
I24
sS'7'
p258
I24
sS'704-0472'
p259
I24
sS'got'
p260
I23
sS'cause'
p261
I23
sS'waters'
p262
I24
sS'(?)'
p263
I24
sS'ass'
p264
I24
sS'monster'
p265
I24
sS'oooft'
p266
I24
sS'city'
p267
I24
sS'fave'
p268
I24
sS'story'
p269
I24
sS'free'
p270
I24
sS'ban'
p271
I24
sS'ask'
p272
I23
sS'wanted'
p273
I24
sS'havent'
p274
I24
sS'scary'
p275
I24
sS'ate'
p276
I24
sS'starts'
p277
I24
sS'days'
p278
I24
sS'times'
p279
I23
sS'thing'
p280
I23
sS'conducted'
p281
I24
sS'place'
p282
I24
sS'massive'
p283
I24
sS'w'
p284
I24
sS'think'
p285
I22
sS'fuckin'
p286
I24
sS'hazal'
p287
I24
sS'shave'
p288
I24
sS'already'
p289
I24
sS'feel'
p290
I24
sS'ewwwww'
p291
I24
sS'number'
p292
I24
sS'(424)'
p293
I24
sS'one'
p294
I19
sS'jealous'
p295
I24
sS'done'
p296
I22
sS'lol'
p297
I15
sS'sounds'
p298
I24
sS'miss'
p299
I22
sS"doesn't"
p300
I24
sS'little'
p301
I24
sS'checked'
p302
I24
sS'letting'
p303
I24
sS'phonetics'
p304
I24
sS'me"'
p305
I24
sS'girls'
p306
I24
sS'their'
p307
I24
sS'2'
p308
I22
sS'too'
p309
I20
sS'white'
p310
I24
sS'speaking'
p311
I24
sS'bobo'
p312
I24
sS'eyes'
p313
I23
sS'shell'
p314
I24
sS'lot'
p315
I24
sS'that'
p316
I18
sS'uncommonly'
p317
I24
sS'took'
p318
I24
sS'rejected'
p319
I24
sS'depressing'
p320
I24
sS'cops'
p321
I24
sS'butt'
p322
I24
sS'believe'
p323
I22
sS'loved'
p324
I22
sS'lmao'
p325
I23
sS'double'
p326
I24
sS'gotta'
p327
I23
sS'goodnight'
p328
I24
sS'shower'
p329
I24
sS'r'
p330
I22
sS'silly'
p331
I24
sS'lovez'
p332
I24
sS'and'
p333
I7
sS'tasted'
p334
I24
sS'viewer'
p335
I24
sS'hashtags'
p336
I24
sS'mind'
p337
I24
sS'tonight'
p338
I23
sS'talking'
p339
I22
sS'say'
p340
I23
sS'have'
p341
I16
sS'need'
p342
I23
sS'saw'
p343
I24
sS'any'
p344
I23
sS'dozen'
p345
I24
sS'-'
p346
I23
sS'ideas'
p347
I24
sS'also'
p348
I24
sS'practices'
p349
I24
sS'lip'
p350
I24
sS'take'
p351
I23
sS'laughed'
p352
I24
sS'linda'
p353
I24
sS'greatest'
p354
I24
sS'bets'
p355
I24
sS'play'
p356
I22
sS'unless'
p357
I24
sS'track'
p358
I24
sS'arpine'
p359
I24
sS'eggs'
p360
I24
sS'who'
p361
I21
sS'lmaooo'
p362
I24
sS'most'
p363
I24
sS'germany'
p364
I24
sS'plan'
p365
I24
sS'nothing'
p366
I22
sS'america'
p367
I24
sS'why'
p368
I23
sS'queens'
p369
I24
sS'forever'
p370
I24
sS'gtfooooo'
p371
I24
sS'especially'
p372
I24
sS'upset'
p373
I24
sS'drive'
p374
I24
sS'face'
p375
I22
sS'aunt'
p376
I24
sS"that's"
p377
I24
sS'away'
p378
I24
sS'came'
p379
I24
sS'ugh'
p380
I24
sS'spaced'
p381
I24
sS'grimsicle'
p382
I24
sS'lmaoo'
p383
I24
sS'queen'
p384
I24
sS'assholes'
p385
I24
sS'v.v'
p386
I23
sS'stfu'
p387
I24
sS'find'
p388
I24
sS'restaurant)'
p389
I23
sS'btw'
p390
I24
sS'crime'
p391
I24
sS'being'
p392
I24
sS'only'
p393
I20
sS'going'
p394
I23
sS'black'
p395
I24
sS'pretty'
p396
I22
sS'8'
p397
I24
sS'piano'
p398
I24
sS'hope'
p399
I22
sS'do'
p400
I20
sS'dm'
p401
I24
sS'hit'
p402
I24
sS'get'
p403
I19
sS'stop'
p404
I22
sS'da'
p405
I22
sS'tbh'
p406
I24
sS'awww'
p407
I23
sS'ones'
p408
I24
sS'wedding'
p409
I22
sS'him'
p410
I23
sS'unfortunately'
p411
I24
sS'bat'
p412
I24
sS'conclusion'
p413
I24
sS'girl'
p414
I24
sS'shy'
p415
I23
sS'cry'
p416
I24
sS'morning'
p417
I24
sS"somebody's"
p418
I24
sS'bae'
p419
I23
sS'she'
p420
I22
sS'glendale'
p421
I24
sS'evreytime'
p422
I24
sS'tanker'
p423
I24
sS'where'
p424
I22
sS"yg's"
p425
I24
sS'ears'
p426
I24
sS'insane'
p427
I24
sS'beautified'
p428
I24
sS'set'
p429
I23
sS'concert'
p430
I24
sS'dillon'
p431
I24
sS'national'
p432
I24
sS'kylie'
p433
I24
sS'see'
p434
I15
sS'online'
p435
I24
sS'are'
p436
I18
sS'sea'
p437
I24
sS'parking'
p438
I24
sS'lastnite'
p439
I24
sS'2mph'
p440
I24
sS'best'
p441
I24
sS'wonder'
p442
I24
sS'said'
p443
I23
sS'movie'
p444
I24
sS'wow'
p445
I21
sS'please'
p446
I23
sS'birds'
p447
I24
sS'3'
p448
I24
sS"there's"
p449
I23
sS'between'
p450
I24
sS'do....bam'
p451
I24
sS'email'
p452
I24
sS'piss'
p453
I24
sS'available'
p454
I24
sS'solo'
p455
I24
sS'we'
p456
I19
sS'omg'
p457
I23
sS'god'
p458
I24
sS'alexander'
p459
I24
sS'attention'
p460
I24
sS'elvorix'
p461
I24
sS'job'
p462
I22
sS'armenian'
p463
I24
sS'armenia'
p464
I24
sS'jk'
p465
I24
sS'fluently'
p466
I24
sS'come'
p467
I22
sS'both'
p468
I24
sS'dates'
p469
I24
sS'tfti'
p470
I24
sS'last'
p471
I24
sS'restaurant'
p472
I22
sS'ill'
p473
I24
sS'23'
p474
I23
sS'quiet'
p475
I24
sS'against'
p476
I24
sS'tour'
p477
I24
sS'atleast'
p478
I24
sS'baseball'
p479
I24
sS'swallow'
p480
I24
sS'asked'
p481
I24
sS"can't"
p482
I19
sS'spirit)'
p483
I24
sS'sloth'
p484
I24
sS'spear'
p485
I24
sS'drunk'
p486
I23
sS'reasons'
p487
I24
sS'"jk"'
p488
I24
sS'okkkk'
p489
I24
sS'walk'
p490
I24
sS'pm'
p491
I24
sS'cried'
p492
I24
sS'church'
p493
I24
sS'vessel'
p494
I24
sS'respect'
p495
I24
sS'winning'
p496
I24
sS'better'
p497
I24
sS'bathroom'
p498
I24
sS'howard'
p499
I24
sS"it's"
p500
I21
sS'been'
p501
I24
sS'whos'
p502
I24
sS'much'
p503
I22
sS'damn'
p504
I23
sS'4'
p505
I24
sS'life'
p506
I24
sS'squirrel'
p507
I24
sS'cop'
p508
I24
sS'fire'
p509
I24
sS'am'
p510
I24
sS'6k'
p511
I24
sS'>_<'
p512
I23
sS'wake'
p513
I24
sS'bmw'
p514
I24
sS'hashtag'
p515
I24
sS'pig'
p516
I24
sS'spirit'
p517
I24
sS'chill'
p518
I24
sS'kiptus'
p519
I23
sS'turns'
p520
I24
sS'these'
p521
I24
sS'slept'
p522
I24
sS'straight'
p523
I24
sS'convo'
p524
I24
sS'rens'
p525
I24
sS'n'
p526
I22
sS'will'
p527
I20
sS'heyy'
p528
I24
sS'fun'
p529
I22
sS"wouldn't"
p530
I24
sS'"don\'t'
p531
I24
sS'<3'
p532
I24
sS'is'
p533
I9
sS'it'
p534
I8
sS'cant'
p535
I22
sS'in'
p536
I11
sS'ready'
p537
I24
sS'partner'
p538
I24
sS'everyday'
p539
I24
sS'worry'
p540
I24
sS'if'
p541
I17
sS'jenner'
p542
I24
sS'funny'
p543
I22
sS'shirt'
p544
I24
sS')'
p545
I22
sS'things'
p546
I24
sS'make'
p547
I22
sS'funniest'
p548
I24
sS'belly'
p549
I23
sS'copying'
p550
I24
sS'peoples'
p551
I24
sS'inch'
p552
I24
sS'party'
p553
I24
sS'week'
p554
I24
sS'finish'
p555
I23
sS'diego'
p556
I24
sS'moving'
p557
I24
sS'"1'
p558
I24
sS'sisters'
p559
I24
sS'l.a'
p560
I24
sS'bob'
p561
I24
sS'priest'
p562
I24
sS'off'
p563
I24
sS'thx'
p564
I23
sS'i'
p565
I1
sS'well'
p566
I21
sS'without'
p567
I23
sS'comes'
p568
I23
sS'sets'
p569
I24
sS'knw'
p570
I24
sS'the'
p571
I3
sS'yours'
p572
I24
sS'left'
p573
I24
sS'summer'
p574
I24
sS'just'
p575
I20
sS'less'
p576
I24
sS'yea'
p577
I21
sS'photo'
p578
I24
sS'hands'
p579
I24
sS'aspect'
p580
I24
sS'polish'
p581
I24
sS'yes'
p582
I24
sS'yet'
p583
I24
sS'begin'
p584
I24
sS'tits'
p585
I24
sS'sunflower'
p586
I24
sS'omfg'
p587
I24
sS'thinking'
p588
I24
sS"we've"
p589
I24
sS'deprived'
p590
I24
sS'had'
p591
I23
sS'except'
p592
I24
sS'lets'
p593
I23
sS'parents'
p594
I24
sS'doom.)"'
p595
I24
sS'has'
p596
I23
sS'easter'
p597
I24
sS'raven'
p598
I24
sS"tomlin's"
p599
I24
sS'around'
p600
I24
sS'big'
p601
I24
sS'tricking'
p602
I24
sS'possible'
p603
I23
sS'gonna'
p604
I24
sS'early'
p605
I24
sS'game'
p606
I22
sS'know'
p607
I21
sS'world'
p608
I22
sS'bit'
p609
I24
sS'disappointed'
p610
I24
sS'rumor'
p611
I24
sS'mariam'
p612
I24
sS'like'
p613
I17
sS'performing'
p614
I24
sS'dunnnn'
p615
I24
sS'arthur'
p616
I24
sS'mexk'
p617
I24
sS'omgg'
p618
I24
sS'james'
p619
I24
sS'dirties'
p620
I24
sS'because'
p621
I23
sS'often'
p622
I24
sS'people'
p623
I20
sS'twitter'
p624
I24
sS'some'
p625
I23
sS'back'
p626
I20
sS'pacific'
p627
I24
sS'hair'
p628
I24
sS'lips'
p629
I24
sS'home'
p630
I24
sS'divine'
p631
I24
sS'txt'
p632
I24
sS'for'
p633
I13
sS'contacts'
p634
I24
sS'ice'
p635
I24
sS'does'
p636
I24
sS'fob'
p637
I24
sS'pee'
p638
I24
sS'be'
p639
I21
sS'medieval'
p640
I24
sS'lmfao'
p641
I24
sS'nails'
p642
I24
sS'night'
p643
I24
sS'snake'
p644
I24
sS'ruz'
p645
I24
sS'how'
p646
I14
sS';)'
p647
I24
sS'exciting'
p648
I24
sS'super'
p649
I23
sS'by'
p650
I21
sS'mamita'
p651
I20
sS"something's"
p652
I24
sS'about'
p653
I19
sS':-)'
p654
I15
sS'ok'
p655
I24
sS'would'
p656
I23
sS'anything'
p657
I23
sS'getting'
p658
I24
sS'zealous'
p659
I24
sS'of'
p660
I12
sS'awwww'
p661
I23
sS'dinner'
p662
I24
sS'seeds'
p663
I24
sS'idk'
p664
I24
sS'permission'
p665
I24
sS'sry'
p666
I24
sS'wanna'
p667
I22
sS'or'
p668
I23
sS'mtasti'
p669
I24
sS'seeing'
p670
I24
sS'aha'
p671
I24
sS'dials'
p672
I24
sS'2nite'
p673
I24
sS'film'
p674
I24
sS'into'
p675
I22
sS'augustus'
p676
I24
sS'down'
p677
I22
sS'actually'
p678
I24
sS'impressed'
p679
I24
sS'forth'
p680
I24
sS'.-'
p681
I24
sS'her'
p682
I23
sS'housing'
p683
I24
sS'there'
p684
I23
sS'sock'
p685
I24
sS'ca)'
p686
I23
sS'long'
p687
I23
sS'watched'
p688
I24
sS'way'
p689
I22
sS'was'
p690
I17
sS'happy'
p691
I24
sS'buy'
p692
I23
sS"i've"
p693
I23
sS'eyeliner'
p694
I24
sS'but'
p695
I16
sS'jus'
p696
I24
sS'hi'
p697
I24
sS'lini'
p698
I24
sS'scope'
p699
I24
sS'cuming'
p700
I24
sS'turtle'
p701
I24
sS'with'
p702
I13
sS'eat'
p703
I24
sS'he'
p704
I22
sS"they're"
p705
I23
sS'made'
p706
I24
sS'inside'
p707
I24
sS'up'
p708
I22
sS'ur'
p709
I23
sS'problem'
p710
I24
sS'>'
p711
I24
sS'agree'
p712
I23
sS'ohh'
p713
I24
sS'videos'
p714
I24
sS'peruvian'
p715
I19
sS'stronger'
p716
I24
sS'moved'
p717
I24
sS"you've"
p718
I24
sS'an'
p719
I22
sS'churtel'
p720
I24
sS'sometime'
p721
I24
sS'at'
p722
I18
sS'chat'
p723
I24
sS'prayer'
p724
I23
sS'girlfriend'
p725
I24
sS'females'
p726
I24
sS'awhile'
p727
I24
sS'check'
p728
I21
sS'shit'
p729
I24
sS'cream'
p730
I24
sS'again'
p731
I23
sS'dying'
p732
I23
sS'no'
p733
I19
sS'vickie'
p734
I24
sS'when'
p735
I19
sS'effin'
p736
I24
sS'hovo'
p737
I24
sS'5'
p738
I24
sS'holding'
p739
I24
sS'you'
p740
I6
sS'out'
p741
I19
sS"you're"
p742
I24
sS'nice'
p743
I21
sS'rt'
p744
I24
sS'star'
p745
I24
sS'hey'
p746
I24
sS'medina'
p747
I24
sS"let's"
p748
I24
sS'town'
p749
I24
sS'drag'
p750
I23
sS'tiger'
p751
I24
sS'miles'
p752
I24
sS'calls'
p753
I24
sS'wife'
p754
I24
sS"he's"
p755
I24
sS'age'
p756
I24
sS'dog'
p757
I24
sS"life's"
p758
I24
sS'mast'
p759
I24
sS'u'
p760
I10
sS'time'
p761
I20
sS'starting'
p762
I23
sS'hello'
p763
I24
sS'dreams'
p764
I24
s.