(dp0
S''
p1
I6
sS'hats'
p2
I83
sS'saves'
p3
I83
sS'felt'
p4
I83
sS'four'
p5
I83
sS'catch'
p6
I80
sS'sleep'
p7
I66
sS'asian'
p8
I83
sS"friend's"
p9
I83
sS'hanging'
p10
I82
sS'hate'
p11
I65
sS'tomorrows'
p12
I83
sS'otro'
p13
I83
sS'rootbeer'
p14
I83
sS'tweet'
p15
I80
sS'otra'
p16
I83
sS'mate'
p17
I83
sS'340'
p18
I83
sS'dillons'
p19
I83
sS'whatsoever'
p20
I83
sS'hermana'
p21
I83
sS'lord'
p22
I83
sS'sorry'
p23
I74
sS'pride'
p24
I83
sS'restock'
p25
I83
sS'worth'
p26
I83
sS'nooooooooooooo'
p27
I83
sS'someone,91766\n430505557112279040,robert_kills,2014-02-04'
p28
I83
sS'you\xe2\x99\xa5\xe2\x99\xa5'
p29
I83
sS'brenda\xe2\x99\xa5'
p30
I83
sS'every'
p31
I80
sS'jack'
p32
I83
sS'oceano'
p33
I83
sS'globos'
p34
I83
sS'tickets'
p35
I77
sS'*bitch'
p36
I83
sS'school'
p37
I76
sS'bestfriend'
p38
I83
sS'wednesday'
p39
I83
sS'oooo'
p40
I83
sS'oooh'
p41
I83
sS'ba\xc3\xb1ateeeee'
p42
I83
sS'enjoy'
p43
I83
sS'esos'
p44
I83
sS'tired'
p45
I78
sS'convo'
p46
I83
sS'lavender'
p47
I83
sS'second'
p48
I83
sS'date\xe2\x99\xa5'
p49
I83
sS'7th'
p50
I83
sS'even'
p51
I61
sS'ugly'
p52
I80
sS'acorde'
p53
I83
sS'+'
p54
I82
sS'finally.,91766\n430568780607918081,robert_kills,2014-02-04'
p55
I83
sS'lights'
p56
I83
sS'h&m'
p57
I83
sS'new'
p58
I73
sS'ever'
p59
I78
sS'disney'
p60
I82
sS'told'
p61
I78
sS'mee'
p62
I83
sS'kicked'
p63
I83
sS'luciana'
p64
I83
sS'zach'
p65
I83
sS'mel'
p66
I82
sS'never'
p67
I59
sS'jasmine'
p68
I83
sS'here'
p69
I71
sS'pata'
p70
I83
sS'met'
p71
I82
sS'02:22:34.0,34.05012079,-117.75077862,4025.02,i'
p72
I83
sS'muaaaahhh'
p73
I83
sS"&'"
p74
I82
sS'screamo'
p75
I83
sS'chino'
p76
I80
sS"aren't"
p77
I83
sS'celebration'
p78
I83
sS'digits'
p79
I83
sS'thaaaaang'
p80
I83
sS'kids'
p81
I82
sS'20:02:02.0,34.04978845,-117.76808071,4025.02,i'
p82
I83
sS'leaves'
p83
I82
sS'climbed'
p84
I83
sS'ignoring'
p85
I83
sS'itunes'
p86
I82
sS'smoke'
p87
I82
sS"i'm"
p88
I1
sS"someone's"
p89
I83
sS'vinyl'
p90
I83
sS'eyebrows'
p91
I81
sS'feelings'
p92
I83
sS'bro'
p93
I81
sS'hahahahah'
p94
I81
sS'unos'
p95
I83
sS'insta'
p96
I82
sS'p\xe2\x99\xa5r\xe2\x99\xa5o\xe2\x99\xa5m'
p97
I83
sS'dahhhh'
p98
I83
sS'<3'
p99
I69
sS'"she\'s'
p100
I83
sS'would'
p101
I64
sS'hospital'
p102
I83
sS'played'
p103
I81
sS'tl'
p104
I83
sS'cali'
p105
I82
sS'call'
p106
I73
sS'therefore'
p107
I82
sS'survive'
p108
I83
sS'type'
p109
I81
sS'until'
p110
I79
sS'breathe'
p111
I83
sS'posting'
p112
I82
sS'relax'
p113
I81
sS'oscar'
p114
I83
sS'haha'
p115
I32
sS'hurt'
p116
I80
sS'phone'
p117
I70
sS'warm'
p118
I83
sS'goooooodd!\xe2\x9a\xbd\xef\xb8\x8f'
p119
I83
sS'midst'
p120
I83
sS'hold'
p121
I83
sS'immature'
p122
I83
sS'must'
p123
I79
sS'me'
p124
I12
sS'ma'
p125
I82
sS'room'
p126
I81
sS'work'
p127
I55
sS'mi'
p128
I82
sS'nappy'
p129
I83
sS'hizo'
p130
I83
sS'movies'
p131
I82
sS'mw'
p132
I83
sS'dated?\xe2\x80\x9d'
p133
I83
sS'era'
p134
I79
sS'mr'
p135
I82
sS'guise'
p136
I83
sS'my'
p137
I9
sS'empieza'
p138
I83
sS'gettin'
p139
I83
sS'give'
p140
I79
sS'roshruns'
p141
I83
sS'want'
p142
I68
sS'maleficent'
p143
I83
sS'asleep.,91766\n430505624191774720,robert_kills,2014-02-04'
p144
I83
sS'real..fucking'
p145
I83
sS'keep'
p146
I77
sS'bowties'
p147
I83
sS'r13'
p148
I83
sS'hoe'
p149
I83
sS'end'
p150
I82
sS'~(^-^)~'
p151
I83
sS'watching!\xe2\x9a\xbd\xef\xb8\x8f'
p152
I83
sS'yaaaas'
p153
I83
sS'sitting'
p154
I83
sS'49ers'
p155
I83
sS'dahhh\xe2\x99\xa5\xe2\x99\xa5'
p156
I83
sS'how'
p157
I48
sS'hot'
p158
I72
sS'gato'
p159
I80
sS'answer'
p160
I81
sS'beach'
p161
I76
sS'charging'
p162
I83
sS'hoy'
p163
I83
sS'badly'
p164
I82
sS'untill'
p165
I83
sS'beauty'
p166
I83
sS'\xe2\x99\xa5\xe2\x99\xa5\xe2\x99\xa5'
p167
I74
sS'mess'
p168
I82
sS'after'
p169
I76
sS'befor'
p170
I83
sS'wrong'
p171
I79
sS'salsa'
p172
I81
sS'(:\xe2\x80\x9d'
p173
I83
sS'types'
p174
I83
sS'las'
p175
I81
sS'chillen'
p176
I83
sS'appreciate'
p177
I83
sS'pambaso'
p178
I83
sS'upside'
p179
I83
sS'jungle'
p180
I83
sS'keeps'
p181
I83
sS'order'
p182
I83
sS'over'
p183
I75
sS'fam'
p184
I82
sS'tricked'
p185
I83
sS';)))'
p186
I83
sS'ma\xc3\xb1ana'
p187
I82
sS'mayor'
p188
I83
sS'before'
p189
I74
sS'ima'
p190
I74
sS'gaaaahh<333'
p191
I83
sS'somewhere'
p192
I82
sS'cres'
p193
I83
sS'writing'
p194
I83
sS'better'
p195
I72
sS'tramp'
p196
I83
sS'espinoza'
p197
I82
sS'weeks'
p198
I81
sS'fin'
p199
I83
sS'easier'
p200
I83
sS'then'
p201
I66
sS'them'
p202
I74
sS'borracha'
p203
I83
sS',91766\n505650374124924928,realitys4suckrs,2014-08-30'
p204
I83
sS'downs'
p205
I83
sS'safe'
p206
I82
sS"we'll"
p207
I82
sS'break'
p208
I80
sS'band'
p209
I83
sS'bang'
p210
I83
sS'they'
p211
I48
sS'schools'
p212
I83
sS'killed'
p213
I83
sS'one'
p214
I53
sS'bank'
p215
I83
sS'netherlands'
p216
I81
sS'alex'
p217
I83
sS'regulo'
p218
I83
sS'rocks'
p219
I83
sS'"yas"'
p220
I83
sS'victory'
p221
I82
sS'"happy'
p222
I83
sS'each'
p223
I80
sS'went'
p224
I71
sS'what..fuck..appreciate'
p225
I83
sS'luci'
p226
I83
sS'mean'
p227
I75
sS'lifted'
p228
I83
sS'gunna'
p229
I83
sS'forgot'
p230
I78
sS'smores'
p231
I83
sS'saturday'
p232
I81
sS'rt'
p233
I82
sS'laaaavvvv'
p234
I83
sS'goo'
p235
I83
sS'*he,91766\n497866826525593600,realitys4suckrs,2014-08-08'
p236
I83
sS'driving'
p237
I82
sS'god'
p238
I73
sS'washed'
p239
I83
sS'lier\xe2\x99\xa5\xe2\x99\xa5'
p240
I83
sS'content'
p241
I83
sS'cuteeeee'
p242
I83
sS'daniel'
p243
I83
sS'good\xe2\x80\x9d'
p244
I83
sS'smh'
p245
I78
sS'got'
p246
I41
sS'rn'
p247
I77
sS'hermosa'
p248
I83
sS'foto'
p249
I83
sS"you're"
p250
I70
sS'given'
p251
I83
sS'free'
p252
I81
sS'man..not'
p253
I83
sS'joley'
p254
I83
sS'hoodie'
p255
I82
sS'wanted'
p256
I77
sS'6pack'
p257
I83
sS'ate'
p258
I83
sS'sprit'
p259
I83
sS'starts'
p260
I83
sS'messages'
p261
I83
sS'days'
p262
I75
sS'regrese'
p263
I83
sS'flawless'
p264
I83
sS'heck'
p265
I83
sS"today's"
p266
I83
sS'loud'
p267
I83
sS'hercules<3'
p268
I83
sS'already'
p269
I68
sS'hearing'
p270
I83
sS'staying'
p271
I83
sS'lettuce'
p272
I83
sS'floors'
p273
I83
sS'another'
p274
I78
sS'thick'
p275
I83
sS'looow'
p276
I83
sS'p^$$*'
p277
I83
sS'mercury'
p278
I83
sS'toy'
p279
I83
sS'girly'
p280
I83
sS'dogg'
p281
I83
sS'top'
p282
I81
sS'girls'
p283
I72
sS'sometin'
p284
I83
sS'needed'
p285
I82
sS'disappointed'
p286
I83
sS'too'
p287
I51
sS'tom'
p288
I83
sS'ayeeee'
p289
I83
sS'listen'
p290
I83
sS'tgat'
p291
I83
sS'5-10'
p292
I83
sS'hangout'
p293
I82
sS'tooo'
p294
I82
sS'otravez'
p295
I83
sS'took'
p296
I79
sS'digo'
p297
I83
sS'nahh'
p298
I83
sS'wasted'
p299
I83
sS'dude-.-'
p300
I83
sS'diga'
p301
I83
sS'trek'
p302
I82
sS'treo'
p303
I83
sS'mierda'
p304
I83
sS'spending'
p305
I82
sS'shower'
p306
I79
sS'matter'
p307
I82
sS'girl-'
p308
I83
sS'classes'
p309
I83
sS'silly'
p310
I83
sS'speaking'
p311
I83
sS'iron'
p312
I83
sS'feeling'
p313
I79
sS'guessin'
p314
I83
sS'mini'
p315
I83
sS'esta'
p316
I83
sS'ran'
p317
I83
sS'caleb'
p318
I83
sS'mine'
p319
I83
sS'talking'
p320
I76
sS'rap'
p321
I83
sS'seen'
p322
I80
sS'extra\xc3\xb1as.\xe2\x80\x9d'
p323
I83
sS'mins'
p324
I83
sS',91766\n463807244681752577,amercado1026,2014-05-06'
p325
I83
sS'instragram'
p326
I83
sS'riden'
p327
I83
sS'ignoras'
p328
I83
sS'strength'
p329
I83
sS'anoche'
p330
I83
sS'ricos'
p331
I83
sS'waiiiittttt'
p332
I83
sS'-'
p333
I80
sS'niece'
p334
I81
sS'kayy'
p335
I83
sS'reals'
p336
I82
sS'gym?"'
p337
I83
sS'shall'
p338
I80
sS':)<3'
p339
I83
sS'ah\xc3\xad'
p340
I83
sS'anatomy'
p341
I83
sS'germany'
p342
I81
sS'plenty'
p343
I83
sS'nachos'
p344
I83
sS'singer'
p345
I83
sS'treats'
p346
I82
sS'nostrils'
p347
I83
sS'flor'
p348
I82
sS'metal'
p349
I83
sS'dog'
p350
I83
sS'definitely'
p351
I83
sS'tech'
p352
I83
sS'dos'
p353
I82
sS'boyfriends'
p354
I82
sS'annoyed'
p355
I83
sS'came'
p356
I81
sS'saying'
p357
I80
sS'bomb'
p358
I80
sS'pope'
p359
I82
sS'queen'
p360
I81
sS'nominated'
p361
I83
sS'\xe2\x99\xa5\xe2\x99\xa5\xe2\x99\xa5\xe2\x99\xa5\xe2\x99\xa5\xe2\x99\xa5\xe2\x99\xa5\xe2\x99\xa5\xe2\x99\xa5\xe2\x99\xa5\xe2\x99\xa5\xe2\x99\xa5\xe2\x99\xa5\xe2\x99\xa5\xe2\x99\xa5\xe2\x99\xa5\xe2\x99\xa5\xe2\x99\xa5\xe2\x99\xa5'
p362
I83
sS'stupeedddd'
p363
I83
sS'difference&i'
p364
I83
sS'sunsets'
p365
I83
sS'busy'
p366
I83
sS'just'
p367
I20
sS'ayyyy'
p368
I83
sS'weekends'
p369
I83
sS'hrs'
p370
I83
sS'sugar'
p371
I83
sS'rihanna'
p372
I83
sS'rich'
p373
I81
sS'rica'
p374
I83
sS'wearing'
p375
I81
sS'do'
p376
I42
sS'dm'
p377
I82
sS'asians'
p378
I83
sS'df'
p379
I83
sS'de'
p380
I72
sS'stop'
p381
I75
sS'gustaria'
p382
I83
sS'"sorry'
p383
I83
sS'nasty'
p384
I83
sS'dp'
p385
I83
sS'ravenswood'
p386
I83
sS'officially'
p387
I82
sS'16:58:09.0,34.05006829,-117.75075319,4025.02,circa'
p388
I83
sS'comprar'
p389
I83
sS'bad'
p390
I65
sS'bae'
p391
I76
sS'shots'
p392
I83
sS'lol,91766\n505649326769459200,realitys4suckrs,2014-08-30'
p393
I83
sS'release'
p394
I83
sS'bam'
p395
I83
sS'steal'
p396
I83
sS'yasss'
p397
I83
sS'fair'
p398
I81
sS'w/'
p399
I82
sS'nut'
p400
I83
sS'goodnight'
p401
I75
sS'decided'
p402
I83
sS'fail'
p403
I83
sS'best'
p404
I69
sS'brazil'
p405
I80
sS'eres'
p406
I83
sS'said'
p407
I77
sS'away'
p408
I76
sS'rings'
p409
I83
sS'shaved'
p410
I83
sS'bien'
p411
I82
sS"there's"
p412
I78
sS'melissa'
p413
I83
sS'hopefully'
p414
I81
sS'yogurt'
p415
I82
sS'tomorrowcan'
p416
I83
sS'we'
p417
I49
sS'men'
p418
I83
sS'omg'
p419
I48
sS'wears'
p420
I83
sS'rims'
p421
I82
sS'lupe'
p422
I83
sS'21:08:38.0,34.04974641,-117.76808884,4025.02,getting'
p423
I83
sS'weak'
p424
I83
sS'ceci'
p425
I82
sS'wear'
p426
I81
sS'wtf'
p427
I79
sS'wth'
p428
I83
sS'news'
p429
I81
sS'convertible'
p430
I83
sS'nahhhh'
p431
I83
sS'roller'
p432
I83
sS'ham'
p433
I83
sS'jkjk'
p434
I81
sS'planner'
p435
I83
sS'fault'
p436
I83
sS'ill'
p437
I79
sS'adventures'
p438
I83
sS'against'
p439
I83
sS'players'
p440
I83
sS'games'
p441
I83
sS'dahhhhh'
p442
I81
sS'argue'
p443
I83
sS'asked'
p444
I83
sS'coo'
p445
I82
sS'ily'
p446
I82
sS'yaay'
p447
I83
sS'30th'
p448
I83
sS'had'
p449
I57
sS'gooaaaallllllllllll'
p450
I83
sS'2nd'
p451
I83
sS'diff'
p452
I83
sS'trust'
p453
I80
sS'100'
p454
I83
sS'speak'
p455
I81
sS'beed'
p456
I83
sS'puts'
p457
I83
sS'7ish'
p458
I83
sS'three'
p459
I83
sS'been'
p460
I69
sS'cyrus'
p461
I83
sS'hahahhaha'
p462
I83
sS'beer'
p463
I82
sS'much'
p464
I67
sS'expected'
p465
I82
sS'savia'
p466
I83
sS'idol'
p467
I83
sS'life'
p468
I73
sS'sprite'
p469
I83
sS'sooooo'
p470
I83
sS'buyif'
p471
I83
sS'worked'
p472
I82
sS'chill'
p473
I80
sS'goodone'
p474
I83
sS'has'
p475
I75
sS'foreverxxi'
p476
I83
sS'tastes'
p477
I83
sS'n'
p478
I80
sS'encontrar'
p479
I83
sS'near'
p480
I83
sS'knockout'
p481
I83
sS'surprised'
p482
I83
sS'cracked'
p483
I83
sS'voice'
p484
I81
sS'remembering'
p485
I83
sS'iz'
p486
I83
sS'17:39:47.0,34.05005558,-117.75071776,4025.02,lol,91766\n498161717713465344,realitys4suckrs,2014-08-09'
p487
I83
sS'mexico'
p488
I76
sS'is'
p489
I13
sS'it'
p490
I13
sS'ik'
p491
I83
sS'________"'
p492
I83
sS'im'
p493
I80
sS'experience'
p494
I83
sS'in'
p495
I17
sS'ia'
p496
I83
sS"bro's"
p497
I83
sS'seattle'
p498
I83
sS'ig'
p499
I81
sS'if'
p500
I57
sS'drapesthor'
p501
I83
sS'bottles'
p502
I83
sS'alwaysalways'
p503
I83
sS'things'
p504
I75
sS'make'
p505
I69
sS'niki'
p506
I83
sS'scurrd'
p507
I82
sS'hahah'
p508
I75
sS'babies'
p509
I83
sS'80s'
p510
I82
sS':(('
p511
I83
sS'entitled'
p512
I83
sS'meets'
p513
I83
sS'ello'
p514
I83
sS'mujeres'
p515
I83
sS'screw'
p516
I83
sS"modelo's"
p517
I83
sS'hang'
p518
I80
sS'rain'
p519
I82
sS'hand'
p520
I83
sS'kik'
p521
I82
sS'lol\xe2\x80\x9d'
p522
I82
sS'jealous'
p523
I82
sS'kid'
p524
I83
sS'postponed'
p525
I83
sS'tho'
p526
I60
sS'<3333'
p527
I80
sS'pandora'
p528
I83
sS'mother'
p529
I81
sS'the'
p530
I10
sS'yours'
p531
I83
sS'left'
p532
I81
sS'loveeehhhh'
p533
I83
sS'golazoooooo'
p534
I83
sS'yea'
p535
I77
sS'unfollow'
p536
I83
sS'sleepy'
p537
I82
sS'greys'
p538
I83
sS'hahahha'
p539
I80
sS'thanks'
p540
I71
sS'booboo'
p541
I83
sS'yep'
p542
I83
sS'yes'
p543
I74
sS'yet'
p544
I78
sS'previous'
p545
I82
sS'hah'
p546
I83
sS'antes'
p547
I83
sS'-_____-,91766\n430505231739138048,robert_kills,2014-02-04'
p548
I83
sS'pac-man'
p549
I83
sS'hills'
p550
I82
sS'character'
p551
I82
sS'pointing'
p552
I83
sS'save'
p553
I82
sS',91766\n430059261264003072,robert_kills,2014-02-02'
p554
I83
sS'5c'
p555
I83
sS'gave'
p556
I83
sS'birth'
p557
I83
sS'banda'
p558
I83
sS'perfecta'
p559
I83
sS'dreams'
p560
I83
sS'brought'
p561
I81
sS'aprovechar'
p562
I83
sS'-_-'
p563
I83
sS'gift'
p564
I83
sS'texts'
p565
I83
sS'festivities'
p566
I83
sS'avatar'
p567
I83
sS'night'
p568
I61
sS'right'
p569
I56
sS'old'
p570
I79
sS'corto'
p571
I83
sS'deal'
p572
I83
sS'people'
p573
I65
sS'conteste'
p574
I83
sS'dead'
p575
I82
sS'born'
p576
I82
sS'clubs'
p577
I82
sS'kbbq'
p578
I83
sS'guess'
p579
I82
sS'tutorial'
p580
I83
sS'for'
p581
I18
sS'roncovacoco'
p582
I82
sS'fox'
p583
I83
sS'ice'
p584
I83
sS'creative'
p585
I83
sS'aaaaaa'
p586
I83
sS'everything'
p587
I81
sS'ucsc'
p588
I83
sS'asking'
p589
I81
sS'\xd9\x81\xd8\xba\xd9\x8a\xd8\xa7\xd8\xa8'
p590
I83
sS'lmqo'
p591
I83
sS'umm'
p592
I83
sS'foo'
p593
I81
sS'christmas'
p594
I83
sS'quede'
p595
I83
sS'pls'
p596
I83
sS'burn'
p597
I83
sS'disappeared'
p598
I83
sS'lmao,91766\n498980050025197568,realitys4suckrs,2014-08-11'
p599
I83
sS'post'
p600
I83
sS'pll'
p601
I83
sS'super'
p602
I82
sS'cory'
p603
I83
sS'trophy'
p604
I82
sS'agarrarlo'
p605
I83
sS'cowboy'
p606
I83
sS'meow'
p607
I83
sS'months'
p608
I83
sS'burbank'
p609
I83
sS'patrickkkkkk'
p610
I83
sS"fo'"
p611
I83
sS'plus'
p612
I83
sS'23:51:29.0,34.05008039,-117.75058299,4025.02,turns'
p613
I83
sS'sweater'
p614
I83
sS'facetime'
p615
I83
sS'aha'
p616
I82
sS'ahh'
p617
I81
sS'soo'
p618
I77
sS'son'
p619
I82
sS'down'
p620
I73
sS'donated'
p621
I83
sS'wan'
p622
I83
sS'heheh'
p623
I83
sS'days.thor'
p624
I83
sS'fight'
p625
I79
sS'stuck'
p626
I81
sS'victorious'
p627
I83
sS'way'
p628
I67
sS'music'
p629
I79
sS'was'
p630
I25
sS'war'
p631
I83
sS'minors'
p632
I83
sS'encanta'
p633
I82
sS'head'
p634
I79
sS'hangover'
p635
I83
sS'fireworks'
p636
I80
sS':/,91766\n499438438202871808,realitys4suckrs,2014-08-13'
p637
I83
sS'heat'
p638
I83
sS'uncle'
p639
I82
sS'*.*'
p640
I83
sS'true'
p641
I76
sS'mahhhh'
p642
I83
sS'\xc3\xa1ngeles'
p643
I83
sS'muaaah'
p644
I83
sS'inside'
p645
I83
sS'ruined'
p646
I82
sS"wait'"
p647
I83
sS'sapphire'
p648
I83
sS'neva'
p649
I83
sS'daddy'
p650
I83
sS'penal'
p651
I81
sS'150'
p652
I83
sS'proud'
p653
I81
sS'llevo'
p654
I83
sS'hungry'
p655
I83
sS'exist'
p656
I83
sS'haha,91766\n430085374409310208,robert_kills,2014-02-02'
p657
I83
sS'annoying'
p658
I81
sS':),91766\n431321933913653248,robert_kills,2014-02-06'
p659
I83
sS'trip'
p660
I82
sS'shit'
p661
I71
sS'danielle'
p662
I83
sS'ni'
p663
I83
sS'dying'
p664
I79
sS'no'
p665
I37
sS'tit'
p666
I83
sS'sabes'
p667
I83
sS'when'
p668
I38
sS'webos'
p669
I83
sS'handed'
p670
I83
sS'tooooo'
p671
I83
sS'interested'
p672
I83
sS'whet'
p673
I83
sS'\xd8\xad\xd9\x81\xd8\xa7\xd8\xb2\xd8\xa7\xd8\xaa'
p674
I83
sS'test'
p675
I81
sS'tie'
p676
I83
sS'meeeee'
p677
I83
sS'picture'
p678
I81
sS'football'
p679
I82
sS'coronas'
p680
I82
sS'update'
p681
I83
sS'diet'
p682
I83
sS"let's"
p683
I73
sS'hahahahahah'
p684
I82
sS'cleaver'
p685
I83
sS'game!\xe2\x9a\xbd\xef\xb8\x8f'
p686
I83
sS'weekend'
p687
I77
sS'died'
p688
I83
sS'uffff'
p689
I83
sS'younger'
p690
I83
sS'happening'
p691
I83
sS'together'
p692
I80
sS'stealing'
p693
I83
sS'personal'
p694
I83
sS'time'
p695
I50
sS'serious'
p696
I81
sS'decision'
p697
I83
sS':))'
p698
I82
sS':/'
p699
I81
sS':('
p700
I24
sS':)'
p701
I29
sS':*'
p702
I82
sS'switched'
p703
I83
sS'dance'
p704
I82
sS'hermosas'
p705
I83
sS'roy'
p706
I83
sS'mile'
p707
I83
sS'/'
p708
I83
sS'dijo'
p709
I83
sS'recodo'
p710
I83
sS':3'
p711
I83
sS'yummy'
p712
I83
sS'finally'
p713
I77
sS'^.*'
p714
I83
sS'text'
p715
I79
sS'ven'
p716
I83
sS'sing'
p717
I83
sS'shakespeare'
p718
I83
sS'2,91766\n501412749503508480,realitys4suckrs,2014-08-18'
p719
I83
sS'^.^'
p720
I34
sS'pk!!!!!\xe2\x9a\xbd\xef\xb8\x8f'
p721
I83
sS':o'
p722
I75
sS'3am'
p723
I82
sS':d'
p724
I78
sS'that\xe2\x80\xa6'
p725
I83
sS':c'
p726
I79
sS'vegas'
p727
I83
sS'masturbate'
p728
I83
sS'cook'
p729
I83
sS'word'
p730
I82
sS'trouble'
p731
I83
sS'advance\xe2\x9a\xbd\xef\xb8\x8f'
p732
I83
sS'<333333'
p733
I82
sS'minute'
p734
I82
sS'cool'
p735
I79
sS'did'
p736
I72
sS'die'
p737
I79
sS'posts'
p738
I82
sS'brother'
p739
I82
sS'-_-\xe2\x80\x9d'
p740
I83
sS'leave'
p741
I75
sS'soooo'
p742
I81
sS'subway'
p743
I83
sS'team'
p744
I83
sS'guy'
p745
I80
sS'round'
p746
I83
sS'yall'
p747
I83
sS"it'll"
p748
I83
sS'shave'
p749
I83
sS'unexpected'
p750
I83
sS'says'
p751
I79
sS'regret'
p752
I80
sS'farted'
p753
I83
sS'sign'
p754
I83
sS'shirts'
p755
I83
sS'baes\xe2\x99\xa1\xe2\x80\x9d'
p756
I83
sS'pedo'
p757
I82
sS'\xee\x90\x91'
p758
I83
sS'drinks'
p759
I83
sS'curse'
p760
I83
sS'stressful'
p761
I83
sS'celebrated'
p762
I83
sS'melt'
p763
I83
sS'goes'
p764
I80
sS'falling'
p765
I81
sS'gawd'
p766
I83
sS'alina'
p767
I83
sS'angelina'
p768
I83
sS'makeup'
p769
I82
sS'yessssss!!!\xe2\x9a\xbd\xef\xb8\x8f'
p770
I83
sS'french'
p771
I81
sS'water'
p772
I83
sS'upgrade'
p773
I83
sS'alone'
p774
I80
sS'along'
p775
I81
sS'change'
p776
I78
sS'wait'
p777
I68
sS'issssss'
p778
I83
sS'boy'
p779
I80
sS'yessss'
p780
I82
sS'healthy'
p781
I80
sS'golazooooooooo!!!!!!\xe2\x9a\xbd\xef\xb8\x8f'
p782
I83
sS'jay'
p783
I83
sS'sheeeee'
p784
I83
sS'beautiful"'
p785
I83
sS'exams'
p786
I83
sS'boo'
p787
I79
sS'ughhhhhhh'
p788
I83
sS'weird'
p789
I82
sS'omggggg'
p790
I82
sS'love'
p791
I31
sS'hiking'
p792
I83
sS'extra'
p793
I83
sS'everrrrrrr'
p794
I83
sS'1st'
p795
I80
sS'inla'
p796
I83
sS'igues'
p797
I83
sS'working'
p798
I77
sS'prove'
p799
I83
sS'positive'
p800
I83
sS'angry'
p801
I82
sS'pero'
p802
I71
sS'yet\xe2\x9c\xa8'
p803
I83
sS'papas'
p804
I83
sS'by'
p805
I78
sS'live'
p806
I80
sS':(((((((('
p807
I83
sS'ayy'
p808
I80
sS'iphone'
p809
I80
sS'm\xc3\xado'
p810
I83
sS'thru'
p811
I79
sS'angels'
p812
I83
sS'today'
p813
I52
sS'loving'
p814
I82
sS"love's"
p815
I83
sS'bombastic'
p816
I83
sS'club'
p817
I79
sS'santos<3'
p818
I83
sS'chocolate'
p819
I83
sS'downtown'
p820
I83
sS'02:57:24.0,34.04448216,-117.75419542,4025.02,homemade'
p821
I83
sS"dad's"
p822
I83
sS'ecuador\xe2\x9a\xbd\xef\xb8\x8f'
p823
I83
sS"cruz's"
p824
I83
sS',91766\n505648724266074112,realitys4suckrs,2014-08-30'
p825
I83
sS'mmhmm'
p826
I83
sS'niggas'
p827
I83
sS'car'
p828
I75
sS'cat'
p829
I82
sS'wallet'
p830
I83
sS'can'
p831
I53
sS'cabeza'
p832
I83
sS'growing'
p833
I83
sS'making'
p834
I81
sS'niggah'
p835
I81
sS"denny's"
p836
I82
sS'heart'
p837
I78
sS'crazy'
p838
I78
sS'muah'
p839
I83
sS'awesome'
p840
I77
sS"didn't"
p841
I70
sS'fuck'
p842
I70
sS'agent'
p843
I83
sS'heard'
p844
I80
sS'ceying'
p845
I83
sS'winter'
p846
I83
sS'pine'
p847
I83
sS'endiento'
p848
I83
sS'1'
p849
I81
sS'till'
p850
I79
sS'sunday'
p851
I76
sS'fourth'
p852
I83
sS'speaks'
p853
I82
sS'mas'
p854
I82
sS'mar'
p855
I83
sS'may'
p856
I83
sS'southern'
p857
I82
sS'louder'
p858
I83
sS'crashed'
p859
I82
sS'birthday'
p860
I59
sS'mad'
p861
I80
sS'date'
p862
I81
sS'such'
p863
I76
sS'suck'
p864
I83
sS'guys'
p865
I70
sS'jk\xe2\x80\x9d'
p866
I83
sS'man'
p867
I67
sS'remember'
p868
I82
sS'whenever'
p869
I83
sS'wanna'
p870
I58
sS'jajajajaj'
p871
I83
sS'su'
p872
I83
sS'2hrs'
p873
I83
sS'q'
p874
I79
sS'si'
p875
I82
sS'so'
p876
I15
sS'deposit'
p877
I83
sS'swollen'
p878
I83
sS'fallas'
p879
I83
sS'talk'
p880
I77
sS'cute'
p881
I75
sS'tagged'
p882
I83
sS'shoes'
p883
I82
sS'clubbing'
p884
I83
sS'kani\xe2\x99\xa5\xe2\x99\xa5'
p885
I83
sS'years'
p886
I79
sS'course'
p887
I81
sS'still'
p888
I56
sS'birds'
p889
I83
sS'tora'
p890
I4
sS'thank'
p891
I65
sS'curly'
p892
I83
sS"he's"
p893
I72
sS'lnow'
p894
I83
sS'amazing'
p895
I71
sS'cheyenne'
p896
I83
sS'tweets'
p897
I80
sS'ours'
p898
I81
sS'main'
p899
I80
sS'golazooo'
p900
I82
sS'happened'
p901
I82
sS'azules'
p902
I83
sS'papitas'
p903
I83
sS'moms'
p904
I81
sS'devastated'
p905
I83
sS'hahahhahahaha'
p906
I83
sS'birches'
p907
I83
sS'lunch'
p908
I83
sS'not'
p909
I39
sS'now'
p910
I39
sS'flip"'
p911
I83
sS'bullshit'
p912
I82
sS'nor'
p913
I83
sS'nos'
p914
I83
sS'wont'
p915
I83
sS'name'
p916
I79
sS'fudge'
p917
I83
sS'drop'
p918
I83
sS'debating'
p919
I83
sS'jalisco'
p920
I83
sS'drom'
p921
I83
sS'rock'
p922
I79
sS"italy's"
p923
I83
sS'concerts'
p924
I82
sS'em'
p925
I82
sS'el'
p926
I77
sS'en'
p927
I81
sS'honduras'
p928
I82
sS'lowkey'
p929
I83
sS'kani'
p930
I83
sS'ughh'
p931
I83
sS'yeah'
p932
I73
sS'acepto'
p933
I83
sS'ex'
p934
I78
sS'year'
p935
I77
sS'ft'
p936
I83
sS'girl'
p937
I69
sS'calling'
p938
I83
sS'es'
p939
I78
sS'tried'
p940
I80
sS":'("
p941
I80
sS'ultimately'
p942
I83
sS'3rd'
p943
I81
sS'looking'
p944
I78
sS'bday'
p945
I82
sS'seriously'
p946
I79
sS"shouldn't"
p947
I83
sS'internet'
p948
I82
sS'correct'
p949
I83
sS'shows'
p950
I82
sS'hulk'
p951
I83
sS'bumpn'
p952
I83
sS'you!!!!\xe2\x99\xa5\xe2\x99\xa5\xe2\x99\xa5\xe2\x99\xa5\xe2\x99\xa5'
p953
I83
sS'chile!!!\xe2\x9a\xbd\xef\xb8\x8f'
p954
I83
sS'california'
p955
I82
sS'caro'
p956
I75
sS'besides'
p957
I83
sS'grandma'
p958
I77
sS'tienes'
p959
I83
sS'card'
p960
I82
sS'care'
p961
I78
sS'gusta'
p962
I82
sS'language'
p963
I83
sS'guste'
p964
I83
sS'"how'
p965
I83
sS'calories'
p966
I83
sS'gusto'
p967
I83
sS'turn'
p968
I77
sS'place'
p969
I82
sS'qui\xc3\xa9n'
p970
I83
sS'horas'
p971
I83
sS'yess'
p972
I81
sS'think'
p973
I66
sS'first'
p974
I73
sS'blind'
p975
I83
sS'cheese'
p976
I83
sS'626'
p977
I83
sS'22:07:41.0,34.05008483,-117.75073956,4025.02,lmao,91766\n497866740697550848,realitys4suckrs,2014-08-08'
p978
I83
sS'xd'
p979
I81
sS'yourself'
p980
I80
sS'fast'
p981
I82
sS'spanish'
p982
I81
sS'sounds'
p983
I80
sS'open'
p984
I82
sS'tomorrow'
p985
I59
sS'discharged'
p986
I83
sS'size'
p987
I83
sS'city'
p988
I79
sS'little'
p989
I76
sS'encanto'
p990
I83
sS'caught'
p991
I83
sS'anyone'
p992
I80
sS'fml'
p993
I82
sS'2'
p994
I79
sS'tell'
p995
I81
sS',91766\n497866765880156160,realitys4suckrs,2014-08-08'
p996
I83
sS'white'
p997
I79
sS'friend'
p998
I78
sS'eyes'
p999
I81
sS'that'
p1000
I19
sS'season'
p1001
I83
sS'memo'
p1002
I83
sS'huh'
p1003
I83
sS'boba'
p1004
I83
sS':(\xe2\x99\xa5\xe2\x99\xa5\xe2\x99\xa5\xe2\x99\xa5\xe2\x99\xa5'
p1005
I83
sS'viewing'
p1006
I83
sS'butt'
p1007
I83
sS"19:25:29.0,34.04984917,-117.76808172,4025.02,'my"
p1008
I83
sS'copy'
p1009
I83
sS'than'
p1010
I73
sS"here's"
p1011
I83
sS'boyfriend'
p1012
I79
sS'11'
p1013
I83
sS'10'
p1014
I83
sS'12'
p1015
I81
sS'lmao'
p1016
I47
sS'16'
p1017
I83
sS'19'
p1018
I83
sS'gotta'
p1019
I76
sS'omw,91766\n499742849353539584,realitys4suckrs,2014-08-14'
p1020
I83
sS'future'
p1021
I83
sS'were'
p1022
I68
sS'college'
p1023
I83
sS'happy'
p1024
I57
sS'and'
p1025
I15
sS'20s'
p1026
I83
sS'san'
p1027
I81
sS'sam'
p1028
I83
sS'contenta'
p1029
I83
sS'turned'
p1030
I83
sS'sad'
p1031
I76
sS'winding'
p1032
I83
sS'say'
p1033
I72
sS'mereses'
p1034
I83
sS'lurking'
p1035
I83
sS'breakfast'
p1036
I83
sS'saw'
p1037
I78
sS'any'
p1038
I78
sS'sat'
p1039
I80
sS'flirt'
p1040
I83
sS',91766\n483081773979410432,marcsanfranz,2014-06-29'
p1041
I83
sS'note'
p1042
I82
sS'omfg'
p1043
I82
sS'omggg'
p1044
I77
sS'take'
p1045
I68
sS"joey's"
p1046
I83
sS'wanting'
p1047
I83
sS'switching'
p1048
I83
sS'dread'
p1049
I83
sS'urge'
p1050
I83
sS'begin'
p1051
I83
sS'sure'
p1052
I71
sS'pain'
p1053
I81
sS'track'
p1054
I83
sS'knew'
p1055
I82
sS'paid'
p1056
I82
sS'insanity'
p1057
I83
sS'juego!\xe2\x9a\xbd\xef\xb8\x8f'
p1058
I83
sS'reaction.\xe2\x80\x9d'
p1059
I83
sS'voice)'
p1060
I83
sS'knee'
p1061
I82
sS'fck'
p1062
I83
sS'forever'
p1063
I79
sS'especially'
p1064
I83
sS'siiii'
p1065
I83
sS'later'
p1066
I82
sS'drive'
p1067
I78
sS'mrs'
p1068
I82
sS'hear'
p1069
I79
sS'senior'
p1070
I82
sS'walking'
p1071
I82
sS'show'
p1072
I70
sS'estoy'
p1073
I83
sS'ants'
p1074
I83
sS'remnants'
p1075
I83
sS'650...as'
p1076
I83
sS'\xe2\x99\xa5\xe2\x80\x9d'
p1077
I83
sS'specifically'
p1078
I83
sS'title'
p1079
I83
sS'outside'
p1080
I82
sS'42'
p1081
I83
sS'only'
p1082
I68
sS'going'
p1083
I60
sS'daaa'
p1084
I83
sS'sierra'
p1085
I83
sS'posted'
p1086
I83
sS'get'
p1087
I42
sS'truly'
p1088
I82
sS'cannot'
p1089
I80
sS'bandwagons'
p1090
I83
sS'dye'
p1091
I83
sS'whaaat'
p1092
I83
sS'freaking'
p1093
I80
sS'*reply'
p1094
I83
sS'picbut'
p1095
I83
sS'a\xc3\xban'
p1096
I83
sS'artist'
p1097
I83
sS'whahaha'
p1098
I83
sS'amargos'
p1099
I83
sS'awwwww'
p1100
I83
sS'morning'
p1101
I78
sS'naked'
p1102
I82
sS":')"
p1103
I80
sS'stupid'
p1104
I83
sS"could've"
p1105
I83
sS'miley'
p1106
I83
sS'pants'
p1107
I82
sS'where'
p1108
I78
sS"y'all"
p1109
I81
sS'concert'
p1110
I77
sS'serious?!dasss'
p1111
I83
sS'asleep'
p1112
I80
sS'^^,91766\n503296389657268224,realitys4suckrs,2014-08-23'
p1113
I83
sS'hoes'
p1114
I83
sS'lapworths'
p1115
I83
sS':/,91766\n505634592619900929,realitys4suckrs,2014-08-30'
p1116
I83
sS'wonder'
p1117
I83
sS'daaaaang'
p1118
I83
sS'fails'
p1119
I82
sS'(pan)'
p1120
I83
sS'golazo'
p1121
I83
sS"father's"
p1122
I83
sS'3'
p1123
I82
sS'dinero'
p1124
I83
sS'team\xe2\x9a\xbd\xef\xb8\x8f'
p1125
I83
sS'uh'
p1126
I83
sS'august'
p1127
I83
sS'kool'
p1128
I83
sS'farts'
p1129
I83
sS'faded'
p1130
I83
sS'jacobs'
p1131
I83
sS'blame'
p1132
I82
sS'elijah'
p1133
I82
sS'como'
p1134
I81
sS'jk'
p1135
I74
sS'thrilling'
p1136
I83
sS'06:03:10.0,34.05019681,-117.75064074,4025.02,me'
p1137
I83
sS'come'
p1138
I66
sS'dahhhhhh'
p1139
I83
sS'byes'
p1140
I83
sS'guitar'
p1141
I83
sS'dates'
p1142
I83
sS'(emphasis'
p1143
I83
sS'talented'
p1144
I83
sS'check)'
p1145
I83
sS'many'
p1146
I82
sS'quiet'
p1147
I82
sS'restroom'
p1148
I83
sS'mana'
p1149
I82
sS'tour'
p1150
I83
sS'present'
p1151
I83
sS'hhaha'
p1152
I83
sS'chorizo'
p1153
I83
sS'delete'
p1154
I83
sS'con!your'
p1155
I83
sS'comes'
p1156
I80
sS'6'
p1157
I83
sS'cancer'
p1158
I83
sS'maaahhhhh'
p1159
I83
sS'hurts'
p1160
I80
sS'por'
p1161
I79
sS'pos'
p1162
I82
sS'pop'
p1163
I80
sS"couldn't"
p1164
I81
sS'consider'
p1165
I83
sS'cramps'
p1166
I83
sS'mare'
p1167
I83
sS'marc'
p1168
I83
sS'hardly'
p1169
I83
sS'qu\xc3\xa9'
p1170
I83
sS'wants'
p1171
I80
sS'robben'
p1172
I82
sS"jordan's"
p1173
I83
sS'baes<3'
p1174
I83
sS'blessing'
p1175
I83
sS'andrew'
p1176
I83
sS'photos'
p1177
I83
sS'javier'
p1178
I83
sS'wake'
p1179
I81
sS'hashtag'
p1180
I82
sS'irrelevant'
p1181
I83
sS'argentina'
p1182
I83
sS'those'
p1183
I81
sS'pilot'
p1184
I83
sS'sound'
p1185
I83
sS'myself'
p1186
I82
sS'these'
p1187
I75
sS'cash'
p1188
I83
sS'ratchet'
p1189
I83
sS'\xe2\x99\xa5\xe2\x99\xa5\xe2\x99\xa5\xe2\x99\xa5\xe2\x99\xa5'
p1190
I83
sS'dorks'
p1191
I83
sS'situation'
p1192
I83
sS'invited'
p1193
I83
sS'robaron'
p1194
I83
sS'ive'
p1195
I83
sS'tenemos.\xe2\x80\x9d'
p1196
I83
sS'coffee'
p1197
I82
sS'sleeping'
p1198
I81
sS'sudden'
p1199
I82
sS'tips('
p1200
I83
sS'everyday'
p1201
I83
sS'worry'
p1202
I82
sS'pap'
p1203
I83
sS'different'
p1204
I80
sS'rooting'
p1205
I83
sS'ajouraye'
p1206
I83
sS'pay'
p1207
I83
sS'paz'
p1208
I82
sS'nighter'
p1209
I82
sS'same'
p1210
I74
sS'check'
p1211
I80
sS'food'
p1212
I80
sS'coworkers'
p1213
I83
sS'"i'
p1214
I83
sS'reminder'
p1215
I83
sS'workout'
p1216
I83
sS'week'
p1217
I78
sS'persona'
p1218
I83
sS'"k"'
p1219
I83
sS'holla'
p1220
I83
sS'fuuuuuuuhhhhh'
p1221
I83
sS'running'
p1222
I81
sS'olvera'
p1223
I83
sS'deff'
p1224
I83
sS'changing'
p1225
I83
sS'totally'
p1226
I79
sS'\xe2\x9c\x8c\xef\xb8\x8f'
p1227
I79
sS'costa'
p1228
I83
sS'<33333'
p1229
I77
sS'ranch'
p1230
I83
sS'friends\xe2\x99\xa5\xe2\x99\xa5'
p1231
I83
sS'without'
p1232
I80
sS'pupusas'
p1233
I83
sS"can't"
p1234
I52
sS'bottle'
p1235
I82
sS'relied'
p1236
I83
sS'\xe2\x9a\xaa\xef\xb8\x8f'
p1237
I82
sS'consisted'
p1238
I83
sS'honesty'
p1239
I83
sS'summer'
p1240
I81
sS'(x'
p1241
I83
sS'muahhh'
p1242
I83
sS'\xe2\x98\xba\xef\xb8\x8f'
p1243
I81
sS'jason\xe2\x80\xa6'
p1244
I83
sS'being'
p1245
I72
sS'money'
p1246
I82
sS'rest'
p1247
I81
sS'me,91766\n499755114974826496,realitys4suckrs,2014-08-14'
p1248
I83
sS'today<3'
p1249
I83
sS'verdad'
p1250
I83
sS'actor'
p1251
I83
sS'\xe2\x80\xa2.\xe2\x80\xa2'
p1252
I83
sS'death'
p1253
I82
sS'dipped'
p1254
I83
sS'julion'
p1255
I82
sS'thinking'
p1256
I82
sS'seems'
p1257
I83
sS'-the'
p1258
I83
sS'lets'
p1259
I83
sS'ahhhh'
p1260
I83
sS'pjs'
p1261
I83
sS'tuesday'
p1262
I83
sS'real'
p1263
I75
sS'whatttt'
p1264
I83
sS'fucked'
p1265
I83
sS'around'
p1266
I78
sS'read'
p1267
I81
sS'cuando'
p1268
I79
sS'gonna'
p1269
I45
sS'period'
p1270
I83
sS'dark'
p1271
I82
sS'np'
p1272
I83
sS'seahawks'
p1273
I81
sS'mom'
p1274
I72
sS'it.\xe2\x80\x9d'
p1275
I83
sS'world'
p1276
I76
sS'cd'
p1277
I83
sS'lady'
p1278
I81
sS'zendaya'
p1279
I83
sS'in-n-out'
p1280
I82
sS'stranger'
p1281
I83
sS"thinkin'"
p1282
I83
sS'nissan'
p1283
I83
sS'either'
p1284
I78
sS'se\xc3\xb1ores'
p1285
I83
sS'really<333'
p1286
I83
sS'\xee\x90\x9f\xee\x90\x9f\xee\x90\x9f'
p1287
I83
sS"ajouraye's"
p1288
I83
sS'ewww'
p1289
I82
sS'garey'
p1290
I83
sS'gatooooo'
p1291
I83
sS'"goodnight'
p1292
I83
sS'thinks'
p1293
I82
sS'yesss'
p1294
I81
sS'kaiser'
p1295
I83
sS'mood'
p1296
I81
sS'tote'
p1297
I83
sS'!,91766\n431227899161489408,robert_kills,2014-02-06'
p1298
I83
sS'moon'
p1299
I82
sS'^-^'
p1300
I83
sS'idk,91766\n503999989643620352,realitys4suckrs,2014-08-25'
p1301
I83
sS'doggy'
p1302
I83
sS'welcome'
p1303
I82
sS'business'
p1304
I83
sS'asap'
p1305
I83
sS'lmfao'
p1306
I76
sS'francia'
p1307
I83
sS'waddup'
p1308
I83
sS';$'
p1309
I83
sS':)))'
p1310
I78
sS';)'
p1311
I40
sS';('
p1312
I81
sS'throw'
p1313
I83
sS';-'
p1314
I83
sS'on'
p1315
I22
sS'adoro<3333'
p1316
I83
sS'ok'
p1317
I81
sS'oh'
p1318
I62
sS'of'
p1319
I16
sS'favorite'
p1320
I77
sS'side'
p1321
I83
sS'stand'
p1322
I81
sS'neighbor'
p1323
I83
sS'act'
p1324
I81
sS'luck'
p1325
I82
sS"nene's"
p1326
I83
sS'or'
p1327
I62
sS'road'
p1328
I83
sS'golazooooooo'
p1329
I83
sS'pho-king'
p1330
I83
sS'burning'
p1331
I82
sS'youe'
p1332
I83
sS'snapchat'
p1333
I76
sS'posss'
p1334
I83
sS'yas'
p1335
I83
sS'heated'
p1336
I83
sS'elementary'
p1337
I83
sS'youu'
p1338
I83
sS'your'
p1339
I40
sS'het'
p1340
I83
sS"how's"
p1341
I83
sS'her'
p1342
I60
sS'hes'
p1343
I83
sS'coluchi'
p1344
I83
sS'ortiz'
p1345
I82
sS'dirt&'
p1346
I83
sS'there'
p1347
I64
sS'hey'
p1348
I77
sS'lol'
p1349
I14
sS'los'
p1350
I80
sS'cats'
p1351
I83
sS'lot'
p1352
I77
sS'valencia'
p1353
I83
sS'05:41:22.0,34.04972391,-117.76813821,4025.02,would'
p1354
I83
sS'ehh'
p1355
I83
sS'morrison'
p1356
I81
sS'dormir'
p1357
I83
sS'19:24:52.0,34.04969176,-117.76821868,4025.02,i'
p1358
I83
sS'complete'
p1359
I83
sS'haciendo'
p1360
I82
sS"you'"
p1361
I83
sS'rice&beans'
p1362
I83
sS'"i\'m'
p1363
I83
sS'you"'
p1364
I83
sS'toooooo'
p1365
I83
sS'selvin'
p1366
I83
sS'land'
p1367
I83
sS'unreliable'
p1368
I83
sS'trying'
p1369
I79
sS'with'
p1370
I20
sS'handsome'
p1371
I82
sS"they're"
p1372
I78
sS'october'
p1373
I83
sS'not....at....all'
p1374
I83
sS'6ish'
p1375
I83
sS"wasn't"
p1376
I77
sS'spamming'
p1377
I83
sS'dreadmari'
p1378
I83
sS'bae<3'
p1379
I83
sS'bbq'
p1380
I83
sS'awwhhh'
p1381
I83
sS'quedara'
p1382
I83
sS'escoje'
p1383
I83
sS'agree'
p1384
I83
sS'gone'
p1385
I80
sS'ac'
p1386
I83
sS'espantes'
p1387
I83
sS'ohh'
p1388
I83
sS'videos'
p1389
I81
sS'af'
p1390
I82
sS'00:48:37.0,34.04968288,-117.76813813,4025.02,today'
p1391
I83
sS'ak'
p1392
I83
sS'chile!!!!!\xe2\x9a\xbd\xef\xb8\x8f'
p1393
I83
sS'am'
p1394
I67
sS'deep'
p1395
I83
sS'an'
p1396
I69
sS'as'
p1397
I62
sS'okayyy'
p1398
I83
sS'at'
p1399
I2
sS'~(\xe2\x80\xa2o\xe2\x80\xa2)~'
p1400
I83
sS'-____-'
p1401
I83
sS'watched'
p1402
I82
sS'horse'
p1403
I83
sS':/,91766\n505637498907664384,realitys4suckrs,2014-08-30'
p1404
I83
sS'you.\xe2\x80\x9d'
p1405
I83
sS'iglesias-'
p1406
I83
sS'again'
p1407
I68
sS'tragos'
p1408
I83
sS'maybe'
p1409
I83
sS'yoga'
p1410
I82
sS'idiot'
p1411
I83
sS'deserve'
p1412
I82
sS'imgonna'
p1413
I83
sS'elotero'
p1414
I83
sS'dassss'
p1415
I83
sS'roses'
p1416
I83
sS'5'
p1417
I82
sS'yoy'
p1418
I83
sS'announcements'
p1419
I83
sS'you'
p1420
I8
sS'asgod'
p1421
I83
sS'offered'
p1422
I83
sS'poor'
p1423
I83
sS'monteith'
p1424
I83
sS'21<3333'
p1425
I83
sS'jajjaa'
p1426
I83
sS'tireddd'
p1427
I83
sS'obsessed'
p1428
I83
sS'chicharito'
p1429
I83
sS'teeth'
p1430
I83
sS'drift'
p1431
I83
sS'-__-'
p1432
I83
sS'keepin'
p1433
I83
sS'ptown'
p1434
I83
sS'brandy'
p1435
I83
sS'important'
p1436
I83
sS'pierdes'
p1437
I83
sS'chris'
p1438
I83
sS'finals'
p1439
I81
sS'fuckin'
p1440
I83
sS'20mins'
p1441
I83
sS'awhhh'
p1442
I83
sS'curve'
p1443
I83
sS'couse'
p1444
I83
sS'derrick'
p1445
I83
sS'mass'
p1446
I82
sS'alright'
p1447
I82
sS'songs'
p1448
I83
sS'starting'
p1449
I83
sS'jaja'
p1450
I82
sS'all'
p1451
I37
sS'surrounded'
p1452
I83
sS'forget'
p1453
I74
sS'lacf'
p1454
I82
sS'dollar'
p1455
I83
sS'af\xe2\x80\x9d'
p1456
I83
sS'month'
p1457
I80
sS'awhh'
p1458
I81
sS'grandma\xe2\x80\xa6'
p1459
I83
sS'code'
p1460
I83
sS'talks'
p1461
I83
sS'follow'
p1462
I74
sS'(in'
p1463
I83
sS'woooow'
p1464
I83
sS'griffin'
p1465
I83
sS'tv'
p1466
I81
sS'tu'
p1467
I74
sS'thursday'
p1468
I82
sS'spirit'
p1469
I83
sS'to'
p1470
I7
sS'aaron'
p1471
I83
sS'alvarez'
p1472
I82
sS'felling'
p1473
I83
sS'ti'
p1474
I83
sS'tf'
p1475
I83
sS'smile'
p1476
I81
sS'te'
p1477
I71
sS'tb'
p1478
I83
sS'worse'
p1479
I80
sS'song'
p1480
I74
sS'far'
p1481
I81
sS'fat'
p1482
I83
sS'selfies'
p1483
I83
sS'fan'
p1484
I82
sS'bestie'
p1485
I81
sS'fall'
p1486
I78
sS'awful'
p1487
I83
sS'*home,91766\n505520753014362112,realitys4suckrs,2014-08-30'
p1488
I83
sS'ticket'
p1489
I81
sS'difference'
p1490
I83
sS'upppp'
p1491
I83
sS'trippin'
p1492
I83
sS'heaven'
p1493
I83
sS'<33'
p1494
I79
sS'skawars'
p1495
I83
sS'laying'
p1496
I83
sS'\xe2\x99\xa5\xe2\x99\xa1'
p1497
I82
sS'sang'
p1498
I82
sS'!!!\xe2\x99\xa5\xe2\x99\xa5'
p1499
I82
sS'hyu'
p1500
I83
sS'liars'
p1501
I83
sS'mundial'
p1502
I83
sS'dodger'
p1503
I82
sS"i'll"
p1504
I68
sS'cookies'
p1505
I81
sS'instagram'
p1506
I79
sS'mexico!!\xe2\x9a\xbd\xef\xb8\x8f\xe2\x9a\xbd\xef\xb8\x8f'
p1507
I83
sS'tea'
p1508
I82
sS'paso'
p1509
I83
sS'joking..i'
p1510
I83
sS'hahahahahahah'
p1511
I83
sS'past'
p1512
I83
sS'yassssssss'
p1513
I83
sS'pass'
p1514
I83
sS'what'
p1515
I46
sS'darkness'
p1516
I83
sS'sun'
p1517
I80
sS'youuu'
p1518
I82
sS'tanya'
p1519
I83
sS'fuckk'
p1520
I81
sS'man!\xe2\x9a\xbd\xef\xb8\x8f'
p1521
I83
sS'vamos'
p1522
I79
sS'full'
p1523
I80
sS'do\xc3\xb1ez'
p1524
I83
sS"caro's"
p1525
I82
sS'revenge'
p1526
I83
sS'hours'
p1527
I78
sS'comgrulations'
p1528
I83
sS'depend'
p1529
I83
sS'strong'
p1530
I83
sS'ohhhhluciano'
p1531
I83
sS'inspired'
p1532
I83
sS'creepy'
p1533
I83
sS'pics'
p1534
I83
sS'stella'
p1535
I78
sS'amount'
p1536
I83
sS'ohhhhh'
p1537
I82
sS'pick'
p1538
I83
sS"would've"
p1539
I81
sS'disneyland'
p1540
I82
sS'trainer'
p1541
I83
sS'\xe2\x99\xa5\xe2\x99\xa5\xe2\x99\xa5\xe2\x99\xa5\xe2\x99\xa5\xe2\x99\xa5\xe2\x99\xa5\xe2\x99\xa5\xe2\x99\xa5'
p1542
I83
sS'followed'
p1543
I82
sS'family'
p1544
I81
sS'suddenly'
p1545
I83
sS'put'
p1546
I82
sS'trained'
p1547
I83
sS'whoever'
p1548
I83
sS'twc'
p1549
I82
sS'vejar'
p1550
I83
sS'eye'
p1551
I83
sS'takes'
p1552
I81
sS'nothings'
p1553
I83
sS'longggg'
p1554
I83
sS'pasado'
p1555
I83
sS'texting'
p1556
I83
sS'two'
p1557
I78
sS'omgggg'
p1558
I81
sS'gorgeous'
p1559
I80
sS'taken'
p1560
I82
sS'mannnnnn'
p1561
I83
sS'more'
p1562
I69
sS'tryna'
p1563
I83
sS'diamond'
p1564
I83
sS'knows'
p1565
I80
sS'hella"'
p1566
I83
sS'company'
p1567
I83
sS'pobres'
p1568
I83
sS'mixtape'
p1569
I83
sS'granted'
p1570
I83
sS"ain't"
p1571
I81
sS'basically'
p1572
I83
sS'broke'
p1573
I79
sS'dios'
p1574
I83
sS'hurry'
p1575
I83
sS'glad'
p1576
I75
sS'town'
p1577
I83
sS'\xe2\x9a\xbd\xef\xb8\x8f\xe2\x9a\xbd\xef\xb8\x8f\xe2\x9a\xbd\xef\xb8\x8f\xe2\x9a\xbd\xef\xb8\x8f'
p1578
I83
sS'none'
p1579
I83
sS'hour'
p1580
I83
sS'sucks'
p1581
I79
sS'del'
p1582
I79
sS'morgan'
p1583
I83
sS'learn'
p1584
I83
sS'marble'
p1585
I83
sS'beautiful'
p1586
I78
sS'seviper'
p1587
I83
sS'deondre'
p1588
I83
sS'socal'
p1589
I83
sS'states'
p1590
I83
sS'hha'
p1591
I83
sS'smartphone'
p1592
I83
sS'salty'
p1593
I83
sS'-_____-'
p1594
I83
sS'ave'
p1595
I83
sS'station'
p1596
I83
sS'airplane'
p1597
I83
sS'lonnggggg'
p1598
I83
sS'prada'
p1599
I83
sS'ughhhh'
p1600
I83
sS'huge'
p1601
I81
sS'needs'
p1602
I79
sS'goal'
p1603
I81
sS'awkward'
p1604
I83
sS'rather'
p1605
I83
sS'acts'
p1606
I83
sS'dismissed'
p1607
I83
sS'...fondly'
p1608
I83
sS'ayyyyy'
p1609
I83
sS'cst'
p1610
I83
sS'okaaayyyy'
p1611
I83
sS"07:02:17.0,34.04984792,-117.76815196,4025.02,i'm"
p1612
I83
sS'sandwich'
p1613
I83
sS'okay'
p1614
I62
sS'plans'
p1615
I82
sS'rude'
p1616
I82
sS'minus'
p1617
I83
sS'advice'
p1618
I83
sS'yeppp'
p1619
I83
sS'lol,91766\n504872261203922944,realitys4suckrs,2014-08-28'
p1620
I83
sS'fb'
p1621
I83
sS'coming'
p1622
I77
sS'tacos'
p1623
I83
sS'pambasos'
p1624
I83
sS'a'
p1625
I11
sS'short'
p1626
I83
sS'orchard'
p1627
I83
sS'register'
p1628
I83
sS'grande'
p1629
I83
sS'dream'
p1630
I82
sS'playing'
p1631
I75
sS"that's"
p1632
I63
sS'miso'
p1633
I83
sS'mexican'
p1634
I77
sS'help'
p1635
I81
sS"don't"
p1636
I36
sS'september'
p1637
I83
sS'reminded'
p1638
I83
sS'sooo'
p1639
I81
sS'soon'
p1640
I76
sS'bcuz'
p1641
I82
sS'armooooo'
p1642
I83
sS'chicka'
p1643
I83
sS'through'
p1644
I80
sS'penales'
p1645
I83
sS'hell'
p1646
I83
sS'brokkeeeee'
p1647
I83
sS'its'
p1648
I66
sS'member'
p1649
I83
sS'style'
p1650
I82
sS'20'
p1651
I77
sS'21'
p1652
I82
sS'23'
p1653
I83
sS'pray'
p1654
I83
sS'sale'
p1655
I83
sS'hahahahahhaha'
p1656
I83
sS'actually'
p1657
I76
sS'late'
p1658
I79
sS'tormorrow'
p1659
I83
sS',91766\n460107204394094592,amercado1026,2014-04-26'
p1660
I83
sS'bout'
p1661
I82
sS'soccer'
p1662
I82
sS'might'
p1663
I81
sS'digas'
p1664
I83
sS"haven't"
p1665
I80
sS'hurting'
p1666
I82
sS'good'
p1667
I33
sS'somebody'
p1668
I83
sS'calm'
p1669
I83
sS'yo'
p1670
I80
sS'ya'
p1671
I72
sS'all\xe2\x9a\xbd\xef\xb8\x8f\xe2\x9a\xbd\xef\xb8\x8f\xe2\x9a\xbd\xef\xb8\x8f'
p1672
I83
sS'clippers'
p1673
I83
sS'hahahahahaha'
p1674
I83
sS'starbucks'
p1675
I83
sS'complain'
p1676
I83
sS'bigger'
p1677
I83
sS'agooooo'
p1678
I83
sS'easily'
p1679
I83
sS'pregnant'
p1680
I83
sS'always'
p1681
I66
sS'homework:('
p1682
I83
sS'2x'
p1683
I83
sS'tear'
p1684
I83
sS'someone'
p1685
I69
sS'habits'
p1686
I83
sS'emmure'
p1687
I83
sS'found'
p1688
I81
sS'difficult'
p1689
I83
sS"isn't"
p1690
I83
sS"tongue',91766\n431663959532249088,robert_kills,2014-02-07"
p1691
I83
sS'everyone'
p1692
I76
sS'weeknd'
p1693
I83
sS'weight'
p1694
I83
sS'house'
p1695
I70
sS'hard'
p1696
I78
sS'idea'
p1697
I81
sS'gun'
p1698
I83
sS'"incredibly'
p1699
I83
sS'perffff'
p1700
I83
sS'thing'
p1701
I77
sS'todo'
p1702
I82
sS'event'
p1703
I83
sS'really'
p1704
I50
sS'somos'
p1705
I83
sS';))'
p1706
I83
sS'missed'
p1707
I82
sS'deary'
p1708
I83
sS'\xe2\x99\xa5\xe2\x99\xa5about'
p1709
I83
sS'since'
p1710
I78
sS'testify'
p1711
I83
sS'perro'
p1712
I83
sS'7'
p1713
I83
sS'grimace'
p1714
I83
sS'ass'
p1715
I71
sS'drink'
p1716
I83
sS'friday'
p1717
I83
sS'forgive'
p1718
I82
sS'reason'
p1719
I79
sS'time.\xe2\x8c\x9b\xef\xb8\x8f\xe2\x8f\xb0\xe2\x8c\x9a\xef\xb8\x8f'
p1720
I83
sS'(fire\xe2\x99\xa5)'
p1721
I83
sS'conditioning'
p1722
I82
sS'imagine'
p1723
I83
sS'ask'
p1724
I81
sS'heads'
p1725
I83
sS'beginning'
p1726
I82
sS'greeaaaatttt'
p1727
I83
sS'bumped'
p1728
I83
sS'owners'
p1729
I83
sS'"she'
p1730
I83
sS'stampyes'
p1731
I83
sS'dijiste'
p1732
I82
sS'lemus'
p1733
I83
sS'sicker'
p1734
I83
sS'caption'
p1735
I83
sS'american'
p1736
I83
sS'jelly'
p1737
I83
sS'quiebra'
p1738
I83
sS'daisy'
p1739
I83
sS'new-age'
p1740
I83
sS'exercising'
p1741
I83
sS'feed'
p1742
I83
sS'dont'
p1743
I80
sS'feel'
p1744
I58
sS'mamut'
p1745
I83
sS'alesana'
p1746
I82
sS'number'
p1747
I83
sS'feet'
p1748
I83
sS'cada'
p1749
I83
sS'much..its'
p1750
I83
sS'done'
p1751
I80
sS'approximately'
p1752
I83
sS'mist'
p1753
I83
sS'miss'
p1754
I73
sS'congraulations'
p1755
I83
sS'story'
p1756
I81
sS'"'
p1757
I74
sS'penal!\xe2\x9a\xbd\xef\xb8\x8f'
p1758
I83
sS'least'
p1759
I82
sS'wonderful'
p1760
I81
sS'bolillo'
p1761
I83
sS'storm'
p1762
I83
sS'aver'
p1763
I83
sS'fought'
p1764
I82
sS'essays'
p1765
I83
sS'hundred'
p1766
I83
sS'ecuador'
p1767
I83
sS'headache'
p1768
I80
sS'passed'
p1769
I83
sS'para'
p1770
I80
sS'mhmm'
p1771
I83
sS'jamie'
p1772
I83
sS'park'
p1773
I80
sS'night<33333'
p1774
I83
sS'mmmm'
p1775
I83
sS'rockin'
p1776
I83
sS'dentist'
p1777
I83
sS'part'
p1778
I83
sS'pants&'
p1779
I83
sS'believe'
p1780
I81
sS'-blame'
p1781
I83
sS'$1'
p1782
I83
sS'king'
p1783
I83
sS'kind'
p1784
I82
sS'grew'
p1785
I83
sS'dudeyour'
p1786
I83
sS'recording'
p1787
I83
sS'stalk'
p1788
I83
sS'supposed'
p1789
I82
sS'dang'
p1790
I83
sS'remembers'
p1791
I83
sS'motivation'
p1792
I82
sS'outta'
p1793
I83
sS'\xd8\xb7\xd8\xa3'
p1794
I83
sS'well'
p1795
I73
sS'yeee'
p1796
I83
sS'randomly'
p1797
I83
sS':)))))))'
p1798
I83
sS'illiterate'
p1799
I83
sS'alike'
p1800
I83
sS'vulnerable'
p1801
I83
sS'sell'
p1802
I83
sS'lie'
p1803
I80
sS'relationship'
p1804
I83
sS'dude'
p1805
I64
sS'clutch'
p1806
I83
sS'lil'
p1807
I82
sS'discounts'
p1808
I83
sS'self'
p1809
I83
sS'also'
p1810
I82
sS'lip'
p1811
I83
sS'useless'
p1812
I83
sS'yeahh'
p1813
I83
sS'\xee\x90\x92'
p1814
I83
sS'liz'
p1815
I81
sS'tequilasos'
p1816
I83
sS'piensas'
p1817
I83
sS'play'
p1818
I73
sS'added'
p1819
I83
sS'nowden'
p1820
I83
sS'reach'
p1821
I82
sS'nothing'
p1822
I80
sS'seasons'
p1823
I83
sS'kay'
p1824
I82
sS'\xe2\x9a\xbd\xef\xb8\x8f\xe2\x9a\xbd\xef\xb8\x8f\xe2\x9a\xbd\xef\xb8\x8f'
p1825
I83
sS'understands'
p1826
I83
sS':))))'
p1827
I79
sS'bug'
p1828
I83
sS'clear'
p1829
I83
sS'sometimes'
p1830
I77
sS'ko'
p1831
I82
sS'km'
p1832
I83
sS'lupita'
p1833
I83
sS'cabrona'
p1834
I83
sS'shoutout'
p1835
I82
sS'hips'
p1836
I83
sS'ugh'
p1837
I58
sS'gold'
p1838
I82
sS'tener'
p1839
I83
sS'grandmas'
p1840
I83
sS'stfu'
p1841
I83
sS'weho'
p1842
I83
sS'naomi'
p1843
I83
sS'fine'
p1844
I82
sS'find'
p1845
I79
sS'bff'
p1846
I82
sS'pinche'
p1847
I82
sS'00:58:33.0,34.04961772,-117.76798609,4025.02,i'
p1848
I83
sS'nervous'
p1849
I83
sS'fullerton'
p1850
I83
sS'payday'
p1851
I83
sS'penalty'
p1852
I83
sS'bitxh'
p1853
I83
sS'pretty'
p1854
I70
sS'8'
p1855
I83
sS'-lily'
p1856
I83
sS'his'
p1857
I76
sS'hit'
p1858
I75
sS'mell'
p1859
I83
sS'express'
p1860
I83
sS'famous'
p1861
I83
sS'feels'
p1862
I77
sS'observatory'
p1863
I83
sS'longest'
p1864
I82
sS'during'
p1865
I79
sS'workouts'
p1866
I83
sS'him'
p1867
I71
sS'alexander'
p1868
I83
sS'showed'
p1869
I83
sS'cry'
p1870
I76
sS'perfume'
p1871
I83
sS'diggin'
p1872
I83
sS'common'
p1873
I83
sS'kill'
p1874
I83
sS'river'
p1875
I83
sS'set'
p1876
I83
sS'throwing'
p1877
I83
sS'manning'
p1878
I83
sS'see'
p1879
I54
sS'individual'
p1880
I82
sS'dumb'
p1881
I81
sS'are'
p1882
I48
sS'tender'
p1883
I83
sS'close'
p1884
I82
sS'angie'
p1885
I83
sS'bakkkk'
p1886
I83
sS'visiting'
p1887
I83
sS'03:20:03.0,34.05010534,-117.75068935,4025.02,i'
p1888
I83
sS',91766\n460785216689164288,amercado1026,2014-04-28'
p1889
I83
sS'wow'
p1890
I70
sS'please'
p1891
I78
sS'robins'
p1892
I83
sS'years('
p1893
I83
sS'won'
p1894
I83
sS'probably'
p1895
I82
sS"rockin'"
p1896
I83
sS'nope'
p1897
I82
sS'compliment'
p1898
I83
sS'piss'
p1899
I83
sS'knowing'
p1900
I81
sS'solo'
p1901
I83
sS'goallllllllll'
p1902
I83
sS'missing'
p1903
I83
sS'sold'
p1904
I83
sS'sigil'
p1905
I83
sS'outfit'
p1906
I82
sS'quiero'
p1907
I83
sS'both'
p1908
I80
sS'waaaaaaaaahhhh'
p1909
I83
sS'last'
p1910
I72
sS'license'
p1911
I83
sS'aloe'
p1912
I83
sS'thou'
p1913
I83
sS"wouldn't"
p1914
I81
sS'barely'
p1915
I76
sS'foreign'
p1916
I82
sS'smh\xe2\x80\x9d'
p1917
I83
sS'retarded'
p1918
I83
sS'whole'
p1919
I81
sS'liked'
p1920
I81
sS'guts'
p1921
I83
sS'este'
p1922
I83
sS'reasons'
p1923
I83
sS'sweet'
p1924
I78
sS'salimos'
p1925
I83
sS'dances'
p1926
I83
sS'simply'
p1927
I83
sS'likes'
p1928
I83
sS'church'
p1929
I82
sS'yesssssssss'
p1930
I83
sS'u,91766\n503296129945976832,realitys4suckrs,2014-08-23'
p1931
I83
sS'expensive'
p1932
I83
sS'devil'
p1933
I83
sS'cream'
p1934
I83
sS'humorous'
p1935
I83
sS'karla'
p1936
I83
sS'lmao,91766\n504855778310647808,realitys4suckrs,2014-08-28'
p1937
I83
sS'hitting'
p1938
I83
sS'pa'
p1939
I83
sS'damn'
p1940
I58
sS'ireland'
p1941
I83
sS'danngg'
p1942
I83
sS'pile'
p1943
I83
sS'yogurtland'
p1944
I83
sS'woke'
p1945
I79
sS'4'
p1946
I83
sS'gay'
p1947
I83
sS'fire'
p1948
I82
sS'mind'
p1949
I81
sS"what's"
p1950
I77
sS'else'
p1951
I80
sS'gal'
p1952
I83
sS'understand'
p1953
I80
sS':)))))'
p1954
I82
sS'gag'
p1955
I83
sS'like='
p1956
I83
sS'weather<3'
p1957
I83
sS'packers'
p1958
I83
sS'respirando'
p1959
I83
sS'3more'
p1960
I83
sS'truuuuu'
p1961
I83
sS'look'
p1962
I72
sS'juice'
p1963
I83
sS'frozen'
p1964
I83
sS'straight'
p1965
I83
sS'ahah'
p1966
I83
sS'fuego!!!\xe2\x9a\xbd\xef\xb8\x8f'
p1967
I83
sS'22:07:56.0,34.05008642,-117.75074903,4025.02,fucking'
p1968
I83
sS'while'
p1969
I77
sS'homework'
p1970
I83
sS'macleod'
p1971
I83
sS'luciano'
p1972
I80
sS'medlton'
p1973
I83
sS'thoes'
p1974
I82
sS'hoping'
p1975
I82
sS'rip'
p1976
I83
sS'skype'
p1977
I83
sS'ready'
p1978
I71
sS'bow'
p1979
I83
sS'seem'
p1980
I83
sS'duhh'
p1981
I83
sS'funny'
p1982
I78
sS'yes\xe2\x99\xa5\xe2\x99\xa5'
p1983
I83
sS'anymore'
p1984
I81
sS'noooo'
p1985
I83
sS'notch'
p1986
I83
sS'-jt'
p1987
I83
sS'9'
p1988
I81
sS'spears'
p1989
I83
sS'daughters'
p1990
I83
sS'weekday'
p1991
I83
sS'pikachu'
p1992
I83
sS'\xe2\x98\x85\xe2\x98\x85'
p1993
I82
sS'yesterday'
p1994
I80
sS'00:57:00.0,34.04967441,-117.76813762,4025.02,you'
p1995
I83
sS'moment'
p1996
I82
sS'walmart'
p1997
I82
sS'moving'
p1998
I82
sS'apenas'
p1999
I83
sS'better\xe2\x98\xba\xef\xb8\x8f'
p2000
I83
sS'early'
p2001
I77
sS'older'
p2002
I83
sS'ohhhhhhhhhhhhhhhhhhh'
p2003
I83
sS'glasshouse'
p2004
I80
sS'spent'
p2005
I82
sS'county'
p2006
I83
sS'obviously'
p2007
I82
sS'person'
p2008
I80
sS'flags'
p2009
I82
sS'y'
p2010
I76
sS'spend'
p2011
I83
sS'adoptedavengers'
p2012
I83
sS'cloud\xe2\x99\xa3\xe2\x99\xa3'
p2013
I83
sS'tim'
p2014
I83
sS'>.<'
p2015
I83
sS'listening'
p2016
I83
sS'shape'
p2017
I83
sS'hercules'
p2018
I83
sS'questions'
p2019
I83
sS'using'
p2020
I83
sS'cut'
p2021
I82
sS'cuffs'
p2022
I83
sS'cup'
p2023
I82
sS'hated'
p2024
I83
sS'cuz'
p2025
I69
sS'season\xe2\x99\xa5'
p2026
I83
sS'parents'
p2027
I81
sS'crying'
p2028
I80
sS'snap'
p2029
I83
sS'uchi'
p2030
I4
sS'excited'
p2031
I74
sS'hates'
p2032
I83
sS'defiantly'
p2033
I83
sS'17:24:40.0,34.0491681,-117.7607436,4025.02,gunna'
p2034
I83
sS'customers'
p2035
I82
sS'marco'
p2036
I83
sS'march'
p2037
I83
sS'big'
p2038
I78
sS'couple'
p2039
I81
sS'sittin'
p2040
I83
sS'diiiick'
p2041
I83
sS'lovin'
p2042
I83
sS'complaing'
p2043
I83
sS'game'
p2044
I60
sS'mero'
p2045
I83
sS'bit'
p2046
I82
sS'me,91766\n505633869056327680,realitys4suckrs,2014-08-30'
p2047
I83
sS'moody'
p2048
I83
sS'knock'
p2049
I83
sS'banjo'
p2050
I83
sS'd'
p2051
I83
sS'hahha'
p2052
I82
sS'anda'
p2053
I83
sS'popular'
p2054
I83
sS'dick"'
p2055
I83
sS'waitin'
p2056
I83
sS'haaaayyyyy'
p2057
I83
sS'<333'
p2058
I81
sS'promblem'
p2059
I83
sS'fucking'
p2060
I71
sS'tambi\xc3\xa9n'
p2061
I83
sS'hour.\xe2\x80\x9d'
p2062
I83
sS'fake'
p2063
I81
sS'some'
p2064
I61
sS'back'
p2065
I54
sS'palm'
p2066
I83
sS'sight'
p2067
I83
sS'closest'
p2068
I83
sS'fake,91766\n505635893999198209,realitys4suckrs,2014-08-30'
p2069
I83
sS'absolutely'
p2070
I81
sS'though'
p2071
I81
sS'drunk:)\xe2\x80\x9don'
p2072
I83
sS'prom'
p2073
I80
sS'weekend!\xe2\x9a\xbd\xef\xb8\x8f'
p2074
I83
sS'laughing'
p2075
I81
sS'be'
p2076
I27
sS'eating'
p2077
I80
sS'remembered'
p2078
I82
sS':/,91766\n504871795728465920,realitys4suckrs,2014-08-28'
p2079
I83
sS'puras'
p2080
I82
sS'nowhere'
p2081
I83
sS'become'
p2082
I83
sS'2/3'
p2083
I83
sS'intense'
p2084
I80
sS"pal'"
p2085
I83
sS'anything'
p2086
I79
sS'netflix'
p2087
I81
sS'idw'
p2088
I83
sS'nosebleed'
p2089
I83
sS'chile!!\xe2\x9a\xbd\xef\xb8\x8f'
p2090
I83
sS'graduation'
p2091
I82
sS'fuckkk'
p2092
I83
sS'awwww'
p2093
I83
sS'deserves'
p2094
I83
sS'idk'
p2095
I76
sS'bish'
p2096
I83
sS'wrinkled'
p2097
I83
sS'hahahah'
p2098
I76
sS'silence'
p2099
I83
sS'ppl'
p2100
I80
sS'seeing'
p2101
I80
sS'david'
p2102
I83
sS'auntie'
p2103
I83
sS'visit'
p2104
I82
sS'into'
p2105
I79
sS'within'
p2106
I83
sS'nonsense'
p2107
I83
sS'momma'
p2108
I83
sS'nigga'
p2109
I75
sS'\xd9\x84\xd8\xa7\xd9\x86\xd8\xaa\xd9\x82\xd8\xa7\xd9\x84'
p2110
I83
sS'ayyy'
p2111
I82
sS'downhill'
p2112
I83
sS'ontario'
p2113
I83
sS'brazil!!!\xe2\x9a\xbd\xef\xb8\x8f'
p2114
I83
sS'pierde'
p2115
I83
sS'jameson'
p2116
I83
sS'ew'
p2117
I83
sS'question'
p2118
I81
sS'ca)'
p2119
I3
sS'long'
p2120
I76
sS'camera'
p2121
I83
sS"we're"
p2122
I82
sS'bruh'
p2123
I82
sS'forward'
p2124
I83
sS'todas'
p2125
I83
sS'bored'
p2126
I82
sS'scared'
p2127
I81
sS'perv'
p2128
I83
sS't-shirt'
p2129
I83
sS'boys'
p2130
I83
sS'yesssss'
p2131
I83
sS'5-6'
p2132
I83
sS'familia'
p2133
I82
sS'line'
p2134
I83
sS'\xe2\x99\xa5'
p2135
I73
sS'junior'
p2136
I83
sS'\xe2\x99\xa1'
p2137
I83
sS'uv'
p2138
I83
sS'up'
p2139
I31
sS'us'
p2140
I77
sS'ur'
p2141
I78
sS'um'
p2142
I83
sS'un'
p2143
I81
sS'ahha'
p2144
I77
sS'mushy'
p2145
I83
sS'end\xe2\x9a\xbd\xef\xb8\x8f'
p2146
I83
sS'z'
p2147
I82
sS'called'
p2148
I80
sS'yelled'
p2149
I83
sS'bell'
p2150
I83
sS'week<<<<<<<<<<'
p2151
I83
sS"emmure's"
p2152
I83
sS'influence'
p2153
I83
sS'single'
p2154
I82
sS'boo<3'
p2155
I83
sS'af,91766\n498166878418661376,realitys4suckrs,2014-08-09'
p2156
I83
sS'yearbook'
p2157
I83
sS'stripper'
p2158
I83
sS'cornerparents'
p2159
I83
sS'6th'
p2160
I83
sS'06:08:01.0,34.04964,-117.76813184,4025.02,glad'
p2161
I83
sS'fixing'
p2162
I83
sS'nah'
p2163
I78
sS'peace'
p2164
I79
sS'germany&not'
p2165
I83
sS"00:58:17.0,34.04965664,-117.76821524,4025.02,don't"
p2166
I83
sS'nap'
p2167
I82
sS'actors'
p2168
I83
sS'naw'
p2169
I83
sS'nice'
p2170
I76
sS'explaining'
p2171
I83
sS'papi'
p2172
I83
sS'awhhhh'
p2173
I83
sS'<shade'
p2174
I83
sS'him!boy-'
p2175
I83
sS'a\xc3\xb1o'
p2176
I83
sS'formal'
p2177
I83
sS'score'
p2178
I83
sS'ago'
p2179
I82
sS'off,91766\n497866912198451200,realitys4suckrs,2014-08-08'
p2180
I83
sS'guys\xe2\x99\xa5now'
p2181
I83
sS'acaricia'
p2182
I83
sS'texted'
p2183
I83
sS'chaoui'
p2184
I83
sS'youtube'
p2185
I81
sS'walked'
p2186
I83
sS'scream'
p2187
I83
sS'peeps'
p2188
I82
sS'carrying'
p2189
I83
sS'.,91766\n431308278644359168,robert_kills,2014-02-06'
p2190
I83
sS'pues'
p2191
I79
sS'"fake'
p2192
I83
sS"she's"
p2193
I73
sS'having'
p2194
I77
sS'once'
p2195
I81
sS'essay'
p2196
I83
sS'pervert'
p2197
I83
sS'jason'
p2198
I82
sS'whatevssss'
p2199
I83
sS'happy"'
p2200
I83
sS'gf'
p2201
I83
sS'windy'
p2202
I82
sS'borrachera'
p2203
I83
sS'\xe2\x99\xa5\xe2\x99\xa5'
p2204
I59
sS'go'
p2205
I30
sS':)\xe2\x99\xa5\xe2\x99\xa5'
p2206
I83
sS'young'
p2207
I83
sS'send'
p2208
I81
sS'languages'
p2209
I83
sS'ahhaha'
p2210
I83
sS'sent'
p2211
I83
sS'cumbias'
p2212
I83
sS'craaaaazy'
p2213
I83
sS'wishes'
p2214
I83
sS'putting'
p2215
I83
sS'juturna'
p2216
I83
sS'\xe2\x99\xa1\xe2\x99\xa1'
p2217
I83
sS'18:00:13.0,34.05006731,-117.75072095,4025.02,lmao,91766\n498161735564410880,realitys4suckrs,2014-08-09'
p2218
I83
sS"23:47:09.0,34.05008089,-117.75077585,4025.02,what's"
p2219
I83
sS':)with'
p2220
I83
sS'wearath'
p2221
I83
sS'17:39:43.0,34.05009966,-117.75060376,4025.02,fuck'
p2222
I83
sS'michael'
p2223
I83
sS'try'
p2224
I82
sS'iba'
p2225
I83
sS'cvs/pharmacy'
p2226
I82
sS'joey'
p2227
I83
sS'booty'
p2228
I83
sS"you'd"
p2229
I83
sS'crop'
p2230
I82
sS'jump'
p2231
I83
sS'carla'
p2232
I81
sS'video'
p2233
I81
sS'ummm'
p2234
I83
sS'graduating'
p2235
I83
sS'plays'
p2236
I83
sS'giving'
p2237
I82
sS'anthem'
p2238
I81
sS'sweaty'
p2239
I83
sS'seconds'
p2240
I83
sS'waiting'
p2241
I80
sS'ahhhhh'
p2242
I83
sS'body'
p2243
I83
sS'flo'
p2244
I83
sS'leg'
p2245
I83
sS'commercial'
p2246
I82
sS'punch'
p2247
I83
sS'sino'
p2248
I83
sS'unfollowed/blocked'
p2249
I83
sS'let'
p2250
I70
sS'others'
p2251
I81
sS'sexy'
p2252
I82
sS'extra\xc3\xb1o'
p2253
I83
sS'great'
p2254
I68
sS'\xe2\x9a\xbd\xef\xb8\x8f'
p2255
I74
sS'adjusts'
p2256
I83
sS'makea'
p2257
I83
sS'leaving'
p2258
I83
sS'engine'
p2259
I83
sS'justice'
p2260
I83
sS"weren't"
p2261
I83
sS'opinion'
p2262
I82
sS'makes'
p2263
I79
sS'claro'
p2264
I83
sS'win'
p2265
I80
sS'app'
p2266
I83
sS'dedicated'
p2267
I83
sS'manny'
p2268
I83
sS'wit'
p2269
I82
sS'chilly'
p2270
I83
sS'singing'
p2271
I80
sS'use'
p2272
I83
sS'hahahahaha'
p2273
I80
sS'from'
p2274
I60
sS'snoop'
p2275
I83
sS'&'
p2276
I30
sS'feo'
p2277
I82
sS'next'
p2278
I66
sS'few'
p2279
I83
sS'doubt'
p2280
I82
sS'chu'
p2281
I83
sS'frida'
p2282
I83
sS'themselves'
p2283
I83
sS'popped'
p2284
I83
sS'babe'
p2285
I82
sS'congratz'
p2286
I83
sS'started'
p2287
I81
sS'econ'
p2288
I83
sS'about'
p2289
I49
sS'dayyyy'
p2290
I83
sS'sore'
p2291
I83
sS'train'
p2292
I81
sS'losin'
p2293
I83
sS'baby'
p2294
I81
sS'unfaithful'
p2295
I83
sS'account'
p2296
I83
sS'practicing'
p2297
I82
sS'britney'
p2298
I83
sS'f'
p2299
I83
sS'this'
p2300
I23
sS'ride'
p2301
I81
sS'mommah'
p2302
I83
sS'pour'
p2303
I83
sS'thin'
p2304
I83
sS'awwhh'
p2305
I82
sS'aight'
p2306
I81
sS'meet'
p2307
I82
sS'didnt'
p2308
I81
sS'ok..so'
p2309
I83
sS'porque'
p2310
I83
sS'geez'
p2311
I83
sS'loco'
p2312
I83
sS'key-holder'
p2313
I83
sS'high'
p2314
I82
sS'pulling'
p2315
I83
sS'something'
p2316
I74
sS'soccer?\xe2\x9a\xbd\xef\xb8\x8f'
p2317
I83
sS'tan'
p2318
I83
sS'enrique'
p2319
I83
sS'rape'
p2320
I83
sS'sis'
p2321
I83
sS'warpedtour'
p2322
I83
sS'falls'
p2323
I83
sS'sit'
p2324
I82
sS'maribell'
p2325
I83
sS'pentatonix'
p2326
I83
sS'six'
p2327
I82
sS'brian'
p2328
I83
sS'blessings'
p2329
I83
sS'animal'
p2330
I83
sS'.-'
p2331
I83
sS'instead'
p2332
I81
sS'struggled'
p2333
I83
sS'sin'
p2334
I82
sS'pomona'
p2335
I78
sS'estakie<3'
p2336
I83
sS'watch'
p2337
I74
sS'fart'
p2338
I83
sS'wrist'
p2339
I83
sS'taco'
p2340
I83
sS'hahahaha'
p2341
I76
sS'realized'
p2342
I83
sS'ot'
p2343
I83
sS'lame'
p2344
I82
sS'(51)'
p2345
I83
sS'destroying'
p2346
I83
sS'honestly'
p2347
I82
sS'mishtekdkd'
p2348
I83
sS'drag\xc3\xb3n'
p2349
I83
sS'primero'
p2350
I83
sS'\xd8\xb6\xd8\xa6\xd9\x8a\xd9\x84'
p2351
I83
sS"mexico's"
p2352
I83
sS'takers'
p2353
I83
sS'move'
p2354
I82
sS'outage'
p2355
I83
sS'including'
p2356
I83
sS'looks'
p2357
I79
sS'bunch'
p2358
I83
sS'perfect'
p2359
I82
sS'write'
p2360
I82
sS'blake'
p2361
I82
sS'le'
p2362
I83
sS'la'
p2363
I64
sS'baaaamb'
p2364
I83
sS'lo'
p2365
I81
sS"05:09:31.0,34.04962429,-117.76792937,4025.02,it's"
p2366
I83
sS'glee'
p2367
I83
sS'2014'
p2368
I83
sS'bye'
p2369
I82
sS'<'
p2370
I83
sS'2013'
p2371
I83
sS'dad'
p2372
I81
sS'nada'
p2373
I83
sS'wth!!!oh'
p2374
I83
sS'dat'
p2375
I83
sS'mention'
p2376
I82
sS',91766\n502298856877342720,amercado1026,2014-08-21'
p2377
I83
sS'kiss'
p2378
I83
sS'hands'
p2379
I82
sS'front'
p2380
I78
sS'-french'
p2381
I83
sS'day'
p2382
I52
sS'escuela'
p2383
I83
sS'february'
p2384
I83
sS'mmhm'
p2385
I83
sS'recuerdo'
p2386
I82
sS'coaches'
p2387
I83
sS'gurl'
p2388
I81
sS'truth'
p2389
I83
sS'\xee\x8c\xab'
p2390
I83
sS'wuldntbe'
p2391
I83
sS'parec\xc3\xada'
p2392
I83
sS'glasses'
p2393
I83
sS'bueno'
p2394
I83
sS'doing'
p2395
I73
sS'buena'
p2396
I83
sS'apologize'
p2397
I83
sS'snaps'
p2398
I83
sS'changed'
p2399
I83
sS'82'
p2400
I83
sS'our'
p2401
I80
sS'o.0'
p2402
I83
sS'sexual'
p2403
I83
sS'goalkeeper'
p2404
I83
sS'special'
p2405
I83
sS'out'
p2406
I43
sS'havasu'
p2407
I83
sS'respects'
p2408
I82
sS'rev'
p2409
I83
sS'elote'
p2410
I83
sS'cousin)'
p2411
I83
sS'barley'
p2412
I83
sS'hilarious'
p2413
I83
sS'foeshowwww'
p2414
I83
sS'smog'
p2415
I82
sS'we\xe2\x80\x99re'
p2416
I83
sS'cause'
p2417
I81
sS'red'
p2418
I81
sS'locura.\xe2\x80\x9d'
p2419
I83
sS'fun'
p2420
I70
sS'shut'
p2421
I79
sS'o.o'
p2422
I83
sS'spot'
p2423
I83
sS'ipod'
p2424
I83
sS'que'
p2425
I56
sS'york'
p2426
I83
sS'?!?,91766\n431610710821306370,robert_kills,2014-02-07'
p2427
I83
sS'embarrass'
p2428
I83
sS'craving'
p2429
I83
sS'log'
p2430
I83
sS'scary'
p2431
I82
sS'!!!\xe2\x99\xa5\xe2\x99\xa5\xe2\x99\xa5\xe2\x99\xa5\xe2\x99\xa5'
p2432
I83
sS'g'
p2433
I83
sS'snapchats'
p2434
I82
sS'could'
p2435
I79
sS'times'
p2436
I79
sS'conversation'
p2437
I83
sS'misssss'
p2438
I83
sS'4th'
p2439
I82
sS',91766\n505996936126541824,realitys4suckrs,2014-08-31'
p2440
I83
sS'chills'
p2441
I83
sS'thankssss'
p2442
I83
sS'poquito'
p2443
I83
sS'sipppiii!\xe2\x80\x9dya'
p2444
I83
sS'scene'
p2445
I83
sS'philadelphia'
p2446
I83
sS'bitch'
p2447
I80
sS'mah'
p2448
I83
sS'highkey'
p2449
I82
sS'sharon'
p2450
I83
sS'sadly'
p2451
I83
sS'start'
p2452
I77
sS'avengers'
p2453
I83
sS'their'
p2454
I75
sS'noooooo'
p2455
I83
sS'quieras'
p2456
I83
sS'ankle'
p2457
I83
sS'jajajajajajajjaja'
p2458
I83
sS'-.-,91766\n430194861329768448,robert_kills,2014-02-03'
p2459
I83
sS'final'
p2460
I78
sS'yeeeehhh'
p2461
I83
sS'haver'
p2462
I83
sS'2-0'
p2463
I82
sS'2-1'
p2464
I83
sS'stars'
p2465
I83
sS'square'
p2466
I83
sS'exactly'
p2467
I82
sS'depressing'
p2468
I83
sS'merito<333'
p2469
I83
sS'july'
p2470
I80
sS'room.....and'
p2471
I83
sS'loved'
p2472
I78
sS'pelota'
p2473
I83
sS'beg'
p2474
I82
sS'bed'
p2475
I75
sS'fuck.\xe2\x80\x9d'
p2476
I83
sS'em.\xe2\x80\x9d'
p2477
I83
sS'loves'
p2478
I81
sS'lover'
p2479
I83
sS'sec'
p2480
I83
sS'bet'
p2481
I82
sS'ferry'
p2482
I83
sS'drunk'
p2483
I83
sS'\\m/'
p2484
I82
sS'comfortable'
p2485
I83
sS'tonight'
p2486
I60
sS'have'
p2487
I27
sS'need'
p2488
I44
sS'carlita'
p2489
I83
sS'sings'
p2490
I82
sS'afraid'
p2491
I83
sS'min'
p2492
I83
sS'studying'
p2493
I82
sS'awwhhhhhh'
p2494
I83
sS'able'
p2495
I82
sS'battles'
p2496
I83
sS'which'
p2497
I83
sS'asshole'
p2498
I83
sS'='
p2499
I83
sS'vendr\xc3\xa1'
p2500
I83
sS'youuuu'
p2501
I82
sS'lugar'
p2502
I83
sS'uggghhhhh'
p2503
I83
sS'unless'
p2504
I83
sS'^^'
p2505
I80
sS'aww'
p2506
I82
sS'who'
p2507
I65
sS'pyt'
p2508
I83
sS"where's"
p2509
I83
sS'awwhhhhh'
p2510
I83
sS'**'
p2511
I83
sS'awh'
p2512
I81
sS'why'
p2513
I60
sS'spirits'
p2514
I83
sS'ayyyyyyy'
p2515
I83
sS'saddest'
p2516
I83
sS'face'
p2517
I80
sS'looked'
p2518
I83
sS"you'll"
p2519
I83
sS'se'
p2520
I76
sS'14:18:51.0,34.0448885,-117.7548503,4025.02,my'
p2521
I83
sS'movie'
p2522
I70
sS'fact'
p2523
I81
sS'goals'
p2524
I83
sS'mk'
p2525
I83
sS'hoodies'
p2526
I83
sS'brenda'
p2527
I83
sS'perversion'
p2528
I82
sS'anyway'
p2529
I82
sS'bring'
p2530
I82
sS'guey'
p2531
I80
sS'parked'
p2532
I83
sS'besina'
p2533
I83
sS'telling'
p2534
I83
sS'drillnkkk'
p2535
I83
sS'earned'
p2536
I83
sS'('
p2537
I74
sS'winner'
p2538
I83
sS'descansa'
p2539
I83
sS"won't"
p2540
I82
sS'should'
p2541
I73
sS'reminisce'
p2542
I83
sS'held'
p2543
I83
sS'paisa'
p2544
I82
sS'plazita'
p2545
I83
sS'barrio'
p2546
I83
sS'hope'
p2547
I71
sS'watching'
p2548
I71
sS'beat'
p2549
I82
sS'dope'
p2550
I82
sS'flirting'
p2551
I83
sS'overall'
p2552
I83
sS'lucky'
p2553
I82
sS'tbh'
p2554
I80
sS'awww'
p2555
I81
sS'ones'
p2556
I82
sS'words'
p2557
I83
sS'ghetto'
p2558
I83
sS'married'
p2559
I81
sS'\xe2\x99\xa5\xe2\x99\xa5\xe2\x99\xa5\xe2\x99\xa5'
p2560
I79
sS'teams'
p2561
I82
sS'stuff'
p2562
I77
sS'she'
p2563
I52
sS'gran'
p2564
I82
sS'dangerous'
p2565
I83
sS'me<3'
p2566
I82
sS'gerardo'
p2567
I82
sS'preach'
p2568
I82
sS'btw'
p2569
I83
sS'hardwood'
p2570
I83
sS'smooth'
p2571
I83
sS'national'
p2572
I81
sS'computer'
p2573
I83
sS'snapchatting'
p2574
I83
sS'compartir'
p2575
I83
sS'tengo'
p2576
I83
sS'contusion'
p2577
I83
sS'freddy'
p2578
I83
sS'braid'
p2579
I83
sS'ralph'
p2580
I83
sS',91766\n505637653656510465,realitys4suckrs,2014-08-30'
p2581
I83
sS'fosho'
p2582
I83
sS'happiness.\xe2\x98\x9d\xef\xb8\x8f'
p2583
I83
sS'necrophelia'
p2584
I81
sS'bought'
p2585
I79
sS'trynna'
p2586
I82
sS'amen'
p2587
I83
sS'kicking'
p2588
I83
sS'job'
p2589
I83
sS'key'
p2590
I82
sS'police'
p2591
I83
sS'ronda'
p2592
I83
sS'taking'
p2593
I83
sS'rest!,91766\n431611239370739714,robert_kills,2014-02-07'
p2594
I83
sS'minds'
p2595
I83
sS'tlc'
p2596
I83
sS'admit'
p2597
I83
sS'&friends'
p2598
I83
sS'jersey'
p2599
I82
sS'rima'
p2600
I83
sS'comment'
p2601
I83
sS'wall'
p2602
I83
sS'ca'
p2603
I83
sS'walk'
p2604
I83
sS'denise'
p2605
I83
sS'cx'
p2606
I81
sS'laugh'
p2607
I81
sS'cousin'
p2608
I77
sS'respect'
p2609
I82
sS'quit'
p2610
I83
sS"em'"
p2611
I83
sS'yay'
p2612
I80
sS"it's"
p2613
I35
sS'amiga'
p2614
I82
sS'drank'
p2615
I83
sS'bby'
p2616
I83
sS'certain'
p2617
I83
sS'estava'
p2618
I83
sS'proposal'
p2619
I83
sS'quik'
p2620
I83
sS'>'
p2621
I83
sS'penny'
p2622
I83
sS"nene'"
p2623
I83
sS'league'
p2624
I83
sS'llamava'
p2625
I83
sS"doesn't"
p2626
I82
sS'hmm'
p2627
I83
sS'finished'
p2628
I83
sS'-.-'
p2629
I49
sS'smoking'
p2630
I83
sS'fellow'
p2631
I83
sS'spain'
p2632
I83
sS'yuuuup'
p2633
I83
sS'eyelashes'
p2634
I83
sS'holiday'
p2635
I83
sS'unlike'
p2636
I83
sS'everrrrr'
p2637
I83
sS'nd'
p2638
I83
sS'harder'
p2639
I82
sS'tshirt'
p2640
I83
sS'choices'
p2641
I83
sS'will'
p2642
I52
sS'hahaha'
p2643
I60
sS'pictures'
p2644
I83
sS'askes'
p2645
I83
sS'portero'
p2646
I83
sS'cuzin'
p2647
I83
sS'boo<:33'
p2648
I83
sS'almost'
p2649
I82
sS'esquites'
p2650
I83
sS'refs'
p2651
I83
sS'cryyyyyyy'
p2652
I83
sS'fags'
p2653
I83
sS'helped'
p2654
I83
sS'vs'
p2655
I81
sS'mexico!!\xe2\x9a\xbd\xef\xb8\x8f'
p2656
I83
sS'lifetime'
p2657
I83
sS'bucks'
p2658
I83
sS'thor'
p2659
I83
sS')'
p2660
I77
sS'radiation'
p2661
I83
sS'juat'
p2662
I83
sS'foxx'
p2663
I83
sS'parts'
p2664
I83
sS'party'
p2665
I79
sS'dieta'
p2666
I83
sS'gets'
p2667
I83
sS'ochoa'
p2668
I82
sS'tiempo'
p2669
I83
sS'ball'
p2670
I83
sS'pho'
p2671
I83
sS'zorra'
p2672
I83
sS'promo'
p2673
I83
sS'lol,91766\n499754908023664641,realitys4suckrs,2014-08-14'
p2674
I83
sS'everyone,91766\n504414979517194240,realitys4suckrs,2014-08-26'
p2675
I83
sS'upon'
p2676
I82
sS'-_______-'
p2677
I83
sS'romeo'
p2678
I83
sS'sigue'
p2679
I82
sS'tinga'
p2680
I83
sS'fucken'
p2681
I83
sS'novela'
p2682
I79
sS'v6'
p2683
I83
sS'sisters'
p2684
I83
sS'identity'
p2685
I83
sS'pull'
p2686
I83
sS'ofc'
p2687
I83
sS'dahhh'
p2688
I82
sS'skelton'
p2689
I83
sS'off'
p2690
I72
sS'i'
p2691
I5
sS'in?!preview'
p2692
I83
sS'banging'
p2693
I83
sS'thought'
p2694
I69
sS'47'
p2695
I83
sS'con'
p2696
I82
sS'taller'
p2697
I83
sS'coaster'
p2698
I83
sS'cried'
p2699
I82
sS'(pomona'
p2700
I3
sS'hospital\xe2\x80\xa6'
p2701
I83
sS"should've"
p2702
I81
sS'keeping'
p2703
I83
sS'old-school'
p2704
I83
sS'seats'
p2705
I83
sS'graduate'
p2706
I83
sS'life,91766\n504830742807851008,realitys4suckrs,2014-08-28'
p2707
I83
sS'happiness'
p2708
I81
sS'ahhhhhh'
p2709
I83
sS'beiibiiiii"'
p2710
I83
sS'surreal'
p2711
I83
sS'ahaha'
p2712
I83
sS'vida'
p2713
I83
sS',91766\n500428511509614593,realitys4suckrs,2014-08-15'
p2714
I83
sS'lake'
p2715
I83
sS'realize'
p2716
I81
sS'add'
p2717
I81
sS'book'
p2718
I83
sS'ska'
p2719
I83
sS'wet'
p2720
I83
sS'ohhh'
p2721
I80
sS'grow'
p2722
I83
sS'smart'
p2723
I83
sS'kick'
p2724
I80
sS'tests'
p2725
I83
sS'fate'
p2726
I83
sS'checking'
p2727
I83
sS'ahhaa'
p2728
I83
sS"who's"
p2729
I81
sS'crushed'
p2730
I83
sS'5am'
p2731
I83
sS'know'
p2732
I28
sS'knot'
p2733
I83
sS'coincidence'
p2734
I83
sS'chingados'
p2735
I83
sS'necessary'
p2736
I83
sS'like'
p2737
I26
sS'lost'
p2738
I77
sS'miami'
p2739
I83
sS'candy'
p2740
I83
sS'qbs.two'
p2741
I83
sS'5hrs'
p2742
I82
sS';),91766\n430068614259941377,robert_kills,2014-02-02'
p2743
I83
sS'lose'
p2744
I81
sS'osea'
p2745
I83
sS'chick'
p2746
I83
sS'works'
p2747
I83
sS'page'
p2748
I83
sS'because'
p2749
I79
sS'truuuuue'
p2750
I83
sS'twitter'
p2751
I77
sS',91766\n462359974270615552,amercado1026,2014-05-02'
p2752
I83
sS'alive'
p2753
I81
sS'hair'
p2754
I76
sS'22:27:18.0,34.0448775,-117.7547143,4025.02,i'
p2755
I83
sS'sickles'
p2756
I83
sS'yuuuu'
p2757
I82
sS'home'
p2758
I59
sS'yuuup'
p2759
I82
sS'shakira'
p2760
I83
sS'happens'
p2761
I82
sS'350z'
p2762
I81
sS'sucks,91766\n505262427852652546,realitys4suckrs,2014-08-29'
p2763
I83
sS'literally'
p2764
I81
sS'leah'
p2765
I83
sS'ese'
p2766
I82
sS'does'
p2767
I80
sS'esa'
p2768
I82
sS'eso'
p2769
I83
sS'mode'
p2770
I83
sS'regain'
p2771
I83
sS'schedule'
p2772
I81
sS'bowling'
p2773
I83
sS'gooooood'
p2774
I83
sS'lastnight'
p2775
I82
sS'sister'
p2776
I74
sS':-)'
p2777
I82
sS'iced'
p2778
I83
sS':-/'
p2779
I83
sS'getting'
p2780
I74
sS'*guys,91766\n505632659440037889,realitys4suckrs,2014-08-30'
p2781
I83
sS'scott'
p2782
I83
sS'angeles'
p2783
I83
sS'swear'
p2784
I81
sS'puppies'
p2785
I83
sS'01:01:54.0,34.05004144,-117.75076691,4025.02,this'
p2786
I83
sS'own'
p2787
I79
sS'mraz'
p2788
I83
sS'death"'
p2789
I83
sS'conway'
p2790
I83
sS'that,91766\n504873554949591040,realitys4suckrs,2014-08-28'
p2791
I83
sS'weather'
p2792
I80
sS'better&better'
p2793
I83
sS'golazoooooii'
p2794
I83
sS'ver'
p2795
I83
sS'eh'
p2796
I83
sS"glk's"
p2797
I83
sS'van'
p2798
I83
sS'val'
p2799
I83
sS'daniels'
p2800
I83
sS'noticed'
p2801
I83
sS'lonely'
p2802
I83
sS'lob'
p2803
I83
sS'buy'
p2804
I76
sS'out\xe2\x98\xba\xef\xb8\x8f'
p2805
I83
sS':*\xe2\x80\x9d'
p2806
I83
sS"i've"
p2807
I81
sS'bus'
p2808
I82
sS'coke'
p2809
I83
sS'bitches'
p2810
I79
sS'hw'
p2811
I82
sS'but'
p2812
I21
sS'hi'
p2813
I80
sS'ughhh'
p2814
I82
sS'23:47:57.0,34.05001308,-117.7506844,4025.02,i'
p2815
I83
sS'hc'
p2816
I83
sS'ha'
p2817
I75
sS'eat'
p2818
I81
sS'he'
p2819
I55
sS'count'
p2820
I83
sS'selfish'
p2821
I83
sS'made'
p2822
I68
sS'farrah'
p2823
I83
sS'whether'
p2824
I83
sS'wish'
p2825
I72
sS'j'
p2826
I83
sS'chaperone'
p2827
I83
sS'below'
p2828
I83
sS"22:07:35.0,34.05009306,-117.75073517,4025.02,he's"
p2829
I83
sS'empty'
p2830
I83
sS'dmv'
p2831
I83
sS'display'
p2832
I83
sS'whateva'
p2833
I82
sS'cmon'
p2834
I83
sS'pic'
p2835
I81
sS'pie'
p2836
I83
sS':0'
p2837
I83
sS'disfrutar'
p2838
I83
sS"queen's"
p2839
I83
sS"cousin's"
p2840
I83
sS'goodness'
p2841
I82
sS'shooting'
p2842
I83
sS'happen'
p2843
I82
sS'diego'
p2844
I82
sS'compared'
p2845
I83
sS'dressed'
p2846
I83
sS'percent'
p2847
I83
sS'40'
p2848
I83
sS'lately'
p2849
I83
sS'deserved'
p2850
I83
sS'other'
p2851
I80
sS'neighbourhood'
p2852
I83
sS'sick'
p2853
I78
sS'u'
p2854
I62
sS'ahhahaha'
p2855
I83
sS'er'
p2856
I83
sS'talkin'
p2857
I82
sS'/.\\\xe2\x80\x9d'
p2858
I83
sS'francisco'
p2859
I83
sS'star'
p2860
I82
sS'monday'
p2861
I83
sS'living'
p2862
I83
sS'class'
p2863
I83
sS'june'
p2864
I83
sS'funnest'
p2865
I83
sS'stay'
p2866
I75
sS'ti<3333'
p2867
I83
sS'chance'
p2868
I83
sS'kinda'
p2869
I79
sS'badass'
p2870
I83
sS'friends'
p2871
I66
sS'ghost'
p2872
I83
sS'bitchws'
p2873
I83
sS's\xc3\xb3lo'
p2874
I83
sS'4s'
p2875
I83
sS':(((((((((('
p2876
I83
sS'&everything'
p2877
I83
sS'zangoose'
p2878
I83
sS'yell'
p2879
I83
sS'ohhhh'
p2880
I83
s.