(dp0
S''
p1
I1
sS'andru'
p2
I91
sS'todays'
p3
I91
sS'whoops'
p4
I91
sS'saves'
p5
I91
sS'angeles.\xe2\x80\x9d'
p6
I91
sS',91766\n506911571805626368,arnufoofoo,2014-09-02'
p7
I91
sS'bob'
p8
I91
sS'catch'
p9
I91
sS'sleep'
p10
I70
sS'asian'
p11
I91
sS'eldo'
p12
I91
sS'hanging'
p13
I90
sS'mansion'
p14
I91
sS'appetite'
p15
I88
sS'captain'
p16
I89
sS'hate'
p17
I70
sS'(which'
p18
I91
sS'friends""'
p19
I91
sS'humming'
p20
I91
sS'buddy'
p21
I90
sS'goooooooood'
p22
I91
sS'tweet'
p23
I85
sS'guys._'
p24
I91
sS'up"'
p25
I91
sS'cess'
p26
I91
sS'endings'
p27
I91
sS'hahhahaha'
p28
I91
sS'underdogs'
p29
I91
sS'whatsoever'
p30
I91
sS'under'
p31
I90
sS'dreamers'
p32
I91
sS'lord'
p33
I90
sS'sorry'
p34
I79
sS'worth'
p35
I88
sS'bye2u'
p36
I91
sS'hahahah'
p37
I91
sS'muthafuckin'
p38
I91
sS'mata'
p39
I91
sS'jacs'
p40
I91
sS"today'"
p41
I91
sS'lololol'
p42
I91
sS'every'
p43
I81
sS'jack'
p44
I91
sS"jason's"
p45
I91
sS'soumya'
p46
I91
sS'screaming'
p47
I90
sS'monkeys'
p48
I91
sS'mothra'
p49
I91
sS'tickets'
p50
I90
sS'school'
p51
I69
sS'bestfriend'
p52
I89
sS'sunk'
p53
I91
sS'supports'
p54
I91
sS'wednesday'
p55
I91
sS'oooo'
p56
I91
sS'solid'
p57
I91
sS'red'
p58
I87
sS'hoe!,91766\n491826882703147008,arnufoofoo,2014-07-23'
p59
I91
sS'happier'
p60
I91
sS'9pm'
p61
I91
sS'enjoy'
p62
I87
sS'10k'
p63
I91
sS'time!,91766\n476974006680051712,arnufoofoo,2014-06-12'
p64
I91
sS'tired'
p65
I78
sS'phones'
p66
I90
sS'hating'
p67
I90
sS'bacon'
p68
I90
sS'direct'
p69
I91
sS'frosted'
p70
I91
sS'tires'
p71
I89
sS'tfios'
p72
I91
sS'second'
p73
I90
sS'street'
p74
I90
sS'10s'
p75
I91
sS'cesar'
p76
I91
sS'theory'
p77
I91
sS'even'
p78
I63
sS'strangest'
p79
I91
sS'hoe!,91766\n493646230010855425,arnufoofoo,2014-07-28'
p80
I91
sS'christ'
p81
I89
sS'saved'
p82
I90
sS'+'
p83
I91
sS'cooking'
p84
I91
sS'fingers'
p85
I91
sS'f*ck'
p86
I91
sS'lights'
p87
I91
sS'above'
p88
I90
sS'new'
p89
I53
sS'room...it'
p90
I91
sS'ever'
p91
I72
sS'happythursday'
p92
I91
sS'disney'
p93
I89
sS'told'
p94
I84
sS'hero'
p95
I89
sS'screams'
p96
I91
sS'pancakes'
p97
I91
sS'bye,91766\n389114736152829952,ssamanthanicole,2013-10-12'
p98
I91
sS'night,91766\n478455084246777856,arnufoofoo,2014-06-16'
p99
I91
sS'never'
p100
I59
sS'jasmine'
p101
I88
sS'meh'
p102
I91
sS'here'
p103
I64
sS'\xe2\x9d\xa4\xef\xb8\x8f'
p104
I74
sS'&&'
p105
I91
sS'20:39:46.0,34.03645471,-117.7802954,4033.18,i'
p106
I91
sS'aftermath'
p107
I91
sS'100'
p108
I90
sS"aren't"
p109
I90
sS'dry'
p110
I91
sS'reggae'
p111
I91
sS'kids'
p112
I89
sS'09:17:59.0,34.03639334,-117.78058454,4033.18,my'
p113
I91
sS'jams'
p114
I91
sS'items'
p115
I91
sS'study'
p116
I89
sS'changed'
p117
I90
sS'"why'
p118
I91
sS'piercing'
p119
I91
sS'robin'
p120
I91
sS'00:11:00.0,34.03633569,-117.78055946,4033.18,i'
p121
I91
sS'tv'
p122
I88
sS'suzzanna'
p123
I91
sS"i'd"
p124
I90
sS'umami'
p125
I90
sS'loop'
p126
I91
sS'smoke'
p127
I86
sS'stressed'
p128
I90
sS"i'm"
p129
I5
sS"someone's"
p130
I91
sS'hummels'
p131
I91
sS'eyebrows'
p132
I91
sS'chataaaaaaa'
p133
I91
sS'pen\xe2\x9c\x92\xef\xb8\x8f'
p134
I91
sS'highly'
p135
I91
sS'bro'
p136
I79
sS'hahahahah'
p137
I91
sS'guests'
p138
I91
sS'bri'
p139
I91
sS"hadn't"
p140
I91
sS"5's"
p141
I91
sS'gorillas'
p142
I91
sS'counts'
p143
I91
sS'txt'
p144
I91
sS'familia\xe2\x99\xa5\xef\xb8\x8e'
p145
I91
sS'rancho'
p146
I87
sS'dna'
p147
I91
sS'would'
p148
I77
sS'army'
p149
I91
sS'played'
p150
I91
sS'manicure'
p151
I91
sS'craving'
p152
I91
sS'12235'
p153
I91
sS'cali'
p154
I88
sS"blondie's"
p155
I91
sS'call'
p156
I80
sS'therefore'
p157
I91
sS'recommend'
p158
I91
sS'typa'
p159
I91
sS'survive'
p160
I91
sS'kaling'
p161
I91
sS'tryin'
p162
I91
sS'type'
p163
I90
sS'until'
p164
I82
sS'armorall'
p165
I91
sS'breathe'
p166
I91
sS'up,91766\n344502617646432256,elninote84,2013-06-11'
p167
I91
sS'females'
p168
I88
sS'posting'
p169
I91
sS'holy'
p170
I84
sS'successful'
p171
I91
sS'brings'
p172
I91
sS'mwd'
p173
I91
sS'haha'
p174
I55
sS'muse'
p175
I91
sS'"i'
p176
I90
sS'phone'
p177
I79
sS'00:01:13.0,34.03877706,-117.76577138,4033.18,i'
p178
I91
sS'dukes'
p179
I91
sS'5s=5'
p180
I91
sS'hold'
p181
I87
sS'lickin'
p182
I91
sS'blocking'
p183
I91
sS'06:53:24.0,34.0238123,-117.74966726,4033.18,i'
p184
I91
sS'must'
p185
I87
sS'shoot'
p186
I89
sS'te'
p187
I91
sS'locked'
p188
I89
sS'room'
p189
I85
sS'mo'
p190
I91
sS'work'
p191
I58
sS'refusing'
p192
I91
sS'worn'
p193
I91
sS'movies'
p194
I88
sS'scrubs,91766\n490755583499198464,arnufoofoo,2014-07-20'
p195
I91
sS'yeeeee,91766\n484060560892256256,arnufoofoo,2014-07-01'
p196
I91
sS'elbow'
p197
I90
sS':-('
p198
I91
sS'my'
p199
I4
sS'route'
p200
I90
sS'anticipating'
p201
I91
sS'kines'
p202
I90
sS'phone.,91766\n502955362111471616,that_viic,2014-08-22'
p203
I91
sS'goood'
p204
I91
sS'give'
p205
I85
sS'honestly,91766\n477551305972400129,arnufoofoo,2014-06-13'
p206
I91
sS'floor'
p207
I91
sS'laughs'
p208
I90
sS'stressing'
p209
I91
sS'honey'
p210
I90
sS'right?!,91766\n471880713457782784,arnufoofoo,2014-05-29'
p211
I91
sS'foods'
p212
I80
sS'homie'
p213
I89
sS'want'
p214
I43
sS'gordo'
p215
I91
sS'keep'
p216
I82
sS'rid'
p217
I91
sS'fosho,91766\n488252208496918528,arnufoofoo,2014-07-13'
p218
I91
sS'hoe'
p219
I90
sS'end'
p220
I88
sS'thing'
p221
I80
sS'complaining'
p222
I91
sS'travel'
p223
I89
sS'sitting'
p224
I89
sS',91766\n478247485476179969,arnufoofoo,2014-06-15'
p225
I91
sS'braids'
p226
I91
sS'stilll'
p227
I91
sS'far'
p228
I89
sS'hot'
p229
I81
sS'19:27:43.0,34.03631544,-117.78052775,4033.18,i'
p230
I91
sS'turk'
p231
I91
sS'h**'
p232
I91
sS'beach'
p233
I86
sS'cornrows'
p234
I91
sS'ay'
p235
I91
sS'pizza'
p236
I89
sS'yassssss'
p237
I91
sS'pokes'
p238
I91
sS'beauty'
p239
I90
sS'up,91766\n326349253612040193,areyoudowns,2013-04-22'
p240
I91
sS'mess'
p241
I91
sS'16:47:02.0,34.02688984,-117.76111107,4033.18,talk'
p242
I91
sS'after'
p243
I77
sS'rams'
p244
I91
sS'00:33:22.0,34.03649031,-117.78044201,4033.18,,91766\n476875175560892416,arnufoofoo,2014-06-11'
p245
I91
sS'wrong'
p246
I87
sS'raiders'
p247
I91
sS'lay'
p248
I90
sS"landscaper's"
p249
I91
sS'lap'
p250
I90
sS'08:32:36.0,34.03637689,-117.78056363,4033.18,did'
p251
I91
sS'baaaaaaby'
p252
I91
sS"they're"
p253
I89
sS'purchase'
p254
I91
sS'horchata'
p255
I91
sS'attempt'
p256
I89
sS'8:00'
p257
I91
sS'third'
p258
I91
sS'wins'
p259
I91
sS'appreciate'
p260
I90
sS'hasta'
p261
I91
sS'green'
p262
I88
sS'ultimate'
p263
I91
sS'goodbye'
p264
I90
sS'keeps'
p265
I89
sS'worst'
p266
I90
sS'wind'
p267
I90
sS'wine'
p268
I91
sS'fifa'
p269
I90
sS'longer'
p270
I91
sS'school)'
p271
I91
sS'toaster'
p272
I91
sS',91766\n327850074065477632,areyoudowns,2013-04-26'
p273
I91
sS'golfwang'
p274
I91
sS'over'
p275
I64
sS'fall'
p276
I89
sS'migos'
p277
I91
sS'jerry'
p278
I91
sS'kylano'
p279
I91
sS'london'
p280
I91
sS'kappas'
p281
I91
sS'foreal'
p282
I91
sS'smile.\xe2\x80\x9d'
p283
I91
sS'haahah'
p284
I91
sS'sooooon'
p285
I91
sS'mayor'
p286
I90
sS'before'
p287
I79
sS'ima'
p288
I82
sS'venti'
p289
I91
sS'10.5'
p290
I91
sS'fit'
p291
I91
sS'bringing'
p292
I91
sS'backpack'
p293
I91
sS'crew'
p294
I90
sS'better'
p295
I66
sS'condition'
p296
I91
sS'gymnast'
p297
I91
sS'imy'
p298
I90
sS'weeks'
p299
I89
sS'easier'
p300
I90
sS'then'
p301
I72
sS'them'
p302
I71
sS'jerking'
p303
I91
sS'workout'
p304
I89
sS'safe'
p305
I89
sS'"lil'
p306
I91
sS'break'
p307
I81
sS'bang'
p308
I90
sS'hiring'
p309
I91
sS'xd'
p310
I91
sS'\xe2\x98\xba\xef\xb8\x8f'
p311
I89
sS'butthurt'
p312
I91
sS'baking'
p313
I91
sS'galaxy'
p314
I91
sS'mucho'
p315
I91
sS'bank'
p316
I90
sS'counter'
p317
I91
sS'alex'
p318
I90
sS'meat'
p319
I91
sS'oxygen'
p320
I91
sS'ewwww'
p321
I91
sS'l'
p322
I81
sS'alexis'
p323
I89
sS'rocks'
p324
I91
sS'choir'
p325
I89
sS'zarina'
p326
I91
sS'newport'
p327
I91
sS'needing'
p328
I91
sS'reasonable'
p329
I91
sS'each'
p330
I88
sS'$50'
p331
I91
sS'went'
p332
I80
sS'entitled'
p333
I91
sS'jay-z'
p334
I91
sS'side'
p335
I87
sS'luck'
p336
I90
sS'outtime'
p337
I91
sS'kaboodlehole'
p338
I91
sS'diana'
p339
I90
sS'list'
p340
I90
sS'guys,91766\n489129199664259072,arnufoofoo,2014-07-15'
p341
I91
sS'well,91766\n326348167274696704,areyoudowns,2013-04-22'
p342
I91
sS'taught'
p343
I90
sS'yvette'
p344
I90
sS'number"dumb'
p345
I91
sS'forgot'
p346
I84
sS'aids'
p347
I91
sS'gunnu'
p348
I90
sS'saturday'
p349
I86
sS'ir'
p350
I91
sS'rt'
p351
I80
sS'ru'
p352
I91
sS'gon'
p353
I91
sS'driving'
p354
I86
sS'oprah'
p355
I91
sS'god'
p356
I79
sS'tried'
p357
I91
sS'dime'
p358
I91
sS'sms'
p359
I91
sS'vibes'
p360
I91
sS'rd'
p361
I89
sS'05:30:38.0,34.0366227,-117.78037327,4033.18,50'
p362
I91
sS'singing*"this'
p363
I91
sS'snapchaaaaattt'
p364
I91
sS'waaaaay'
p365
I91
sS'smh'
p366
I84
sS'medicine'
p367
I91
sS'got'
p368
I45
sS'rn'
p369
I73
sS'"gooooooooooooool!"'
p370
I91
sS'forth'
p371
I91
sS'sliding'
p372
I91
sS'crotch'
p373
I91
sS',91766\n479477427467329537,arnufoofoo,2014-06-19'
p374
I91
sS'18:17:49.0,34.03648985,-117.7805617,4033.18,when'
p375
I91
sS'00:51:41.0,34.03635552,-117.78062731,4033.18,work'
p376
I91
sS"you're"
p377
I72
sS'hf'
p378
I91
sS'20:30:00.0,34.03652193,-117.78028044,4033.18,oh'
p379
I91
sS'harry'
p380
I91
sS'fave'
p381
I91
sS'revenge'
p382
I90
sS'free'
p383
I87
sS'08:32:55.0,34.03637689,-117.78056363,4033.18,it'
p384
I91
sS'kayla'
p385
I91
sS'17:58:55.0,34.0321029,-117.75887005,4033.18,this'
p386
I91
sS'struggle'
p387
I90
sS"sophia's"
p388
I90
sS"people's"
p389
I91
sS'wanted'
p390
I88
sS'21:18:37.0,34.0290604,-117.7567168,4033.18,i'
p391
I91
sS'monkey'
p392
I91
sS'ate'
p393
I89
sS'dayz'
p394
I91
sS'leeeeeeeeeg,91766\n472813760642428928,arnufoofoo,2014-05-31'
p395
I91
sS'lead"'
p396
I91
sS'17-14'
p397
I91
sS'starts'
p398
I86
sS'atl'
p399
I91
sS'messages'
p400
I91
sS'days'
p401
I86
sS'outfits'
p402
I91
sS'filter'
p403
I91
sS'flawless'
p404
I91
sS'licked'
p405
I91
sS'heck'
p406
I91
sS"today's"
p407
I87
sS'love,91766\n477704905524654080,arnufoofoo,2014-06-14'
p408
I91
sS'liquids'
p409
I91
sS'broken'
p410
I91
sS'messaged'
p411
I91
sS'loud'
p412
I91
sS"guillermo's"
p413
I91
sS'fuckin'
p414
I91
sS'cleaning'
p415
I91
sS'tho:)'
p416
I91
sS'maggie'
p417
I91
sS'rang'
p418
I91
sS'already'
p419
I76
sS'grade'
p420
I89
sS'wass'
p421
I91
sS'kaela'
p422
I91
sS'hearing'
p423
I90
sS'dictionary'
p424
I91
sS'lettuce'
p425
I91
sS'terrible,91766\n499339009915912192,arnufoofoo,2014-08-12'
p426
I91
sS'disappearing'
p427
I91
sS'delicious'
p428
I90
sS'in&it'
p429
I91
sS'sober'
p430
I90
sS'hurts,91766\n481190323226288129,arnufoofoo,2014-06-23'
p431
I91
sS'izzypoo,91766\n484050796414128128,arnufoofoo,2014-07-01'
p432
I91
sS'14:01:58.0,34.02426308,-117.75455416,4033.18,forever'
p433
I91
sS'nah"'
p434
I91
sS'(\xe6\xb3\xa2\xe8\x8e\xab\xe7\xba\xb3'
p435
I25
sS'viejita!,91766\n501129671854272513,arnufoofoo,2014-08-17'
p436
I91
sS'service'
p437
I90
sS'lego'
p438
I90
sS'top'
p439
I90
sS'me"'
p440
I91
sS'girls'
p441
I88
sS'vagina'
p442
I91
sS'mobbin'
p443
I91
sS'needed'
p444
I90
sS'dumbass'
p445
I90
sS'too'
p446
I51
sS'"grizz"'
p447
I91
sS'bitter'
p448
I91
sS'dogs'
p449
I89
sS'listen'
p450
I90
sS'urban'
p451
I91
sS'that,91766\n477513828389752832,arnufoofoo,2014-06-13'
p452
I91
sS'collapse'
p453
I91
sS'now,91766\n495633326552928256,arnufoofoo,2014-08-02'
p454
I91
sS'gym'
p455
I89
sS'took'
p456
I85
sS'trippy'
p457
I90
sS'ankle'
p458
I91
sS'asshole,91766\n506907614618218496,arnufoofoo,2014-09-02'
p459
I91
sS'05:06:57.0,34.03636102,-117.78054979,4033.18,my'
p460
I91
sS'nahh'
p461
I91
sS'haren'
p462
I91
sS'prego'
p463
I91
sS'mercy'
p464
I91
sS'18:09:56.0,34.03633717,-117.78061376,4033.18,my'
p465
I91
sS'ew'
p466
I91
sS'(\xe2\x8c\x92-\xe2\x8c\x92'
p467
I91
sS'21:24:44.0,34.03631418,-117.78049259,4033.18,wcw'
p468
I91
sS'mierda'
p469
I91
sS"god's"
p470
I91
sS'shower'
p471
I90
sS'matter'
p472
I90
sS'classes'
p473
I89
sS'williams'
p474
I91
sS'iron'
p475
I91
sS'hottie'
p476
I91
sS'myyyyyy'
p477
I91
sS'feeling'
p478
I83
sS'bidder'
p479
I91
sS'chisme'
p480
I91
sS'desperate'
p481
I91
sS'mini'
p482
I91
sS'mermaid'
p483
I91
sS'fashion'
p484
I91
sS'sees'
p485
I91
sS'esta'
p486
I91
sS'ran'
p487
I89
sS'chingon'
p488
I91
sS'mind'
p489
I89
sS'buta'
p490
I91
sS'anybody'
p491
I89
sS'talking'
p492
I76
sS'infront'
p493
I91
sS'rap'
p494
I90
sS'fast,91766\n500376357592109057,that_viic,2014-08-15'
p495
I91
sS'seen'
p496
I88
sS'seem'
p497
I91
sS'obviously'
p498
I90
sS'beckett'
p499
I91
sS'ray'
p500
I90
sS'nipples'
p501
I91
sS'strength'
p502
I91
sS'mostly'
p503
I91
sS'shoes,91766\n482588697347375104,arnufoofoo,2014-06-27'
p504
I91
sS'28-30'
p505
I91
sS'fuck,91766\n449997552209756160,stagedrobbery,2014-03-29'
p506
I91
sS'man,91766\n478981753000828928,arnufoofoo,2014-06-17'
p507
I91
sS'-'
p508
I90
sS':p,91766\n505973753063301120,arnufoofoo,2014-08-31'
p509
I91
sS'often)'
p510
I91
sS'practices'
p511
I91
sS'derek'
p512
I91
sS'snoo'
p513
I88
sS'doors'
p514
I91
sS'laughed'
p515
I91
sS'reals'
p516
I91
sS'rides'
p517
I91
sS'menudo'
p518
I91
sS'blue'
p519
I89
sS'urs'
p520
I91
sS'exactly'
p521
I91
sS'norco'
p522
I91
sS'though'
p523
I82
sS'doin'
p524
I90
sS"johnny's"
p525
I91
sS'mario'
p526
I91
sS'regular'
p527
I91
sS'mouth'
p528
I90
sS'letter'
p529
I91
sS'22:42:38.0,34.02358721,-117.75341833,4033.18,had'
p530
I91
sS',91766\n491454346345725954,arnufoofoo,2014-07-22'
p531
I91
sS'bsb'
p532
I90
sS'kuz'
p533
I91
sS"girl's"
p534
I91
sS'episode'
p535
I90
sS'21:38:08.0,34.0414793,-117.76874179,4033.18,finally'
p536
I91
sS'doc'
p537
I91
sS'professor'
p538
I91
sS'real"'
p539
I91
sS'm'
p540
I91
sS'dog'
p541
I85
sS'breathes'
p542
I91
sS'doe'
p543
I90
sS'freeway'
p544
I85
sS'dbs'
p545
I91
sS'definitely'
p546
I90
sS'aunt'
p547
I89
sS'principle'
p548
I91
sS'pineapple'
p549
I90
sS'voting'
p550
I90
sS'annoyed'
p551
I88
sS'came'
p552
I79
sS'haha,91766\n479001302102335488,arnufoofoo,2014-06-17'
p553
I91
sS'07:34:05.0,34.03657006,-117.78035517,4033.18,tonight'
p554
I91
sS'saying'
p555
I85
sS'bomb'
p556
I87
sS'overpriced'
p557
I91
sS'tequila'
p558
I91
sS'queen'
p559
I90
sS'cocko'
p560
I91
sS'sexist'
p561
I91
sS'fucks'
p562
I91
sS'pops'
p563
I90
sS"18:23:05.0,34.03632083,-117.78055903,4033.18,it's"
p564
I91
sS'colors'
p565
I91
sS'7.1'
p566
I91
sS'radio'
p567
I90
sS'overload'
p568
I91
sS'muther'
p569
I91
sS'sneaking'
p570
I91
sS'tempted'
p571
I91
sS'probs'
p572
I91
sS'count'
p573
I91
sS'lessons'
p574
I91
sS'sweats'
p575
I91
sS'busy'
p576
I89
sS'whooooole'
p577
I91
sS'just'
p578
I23
sS'hdds'
p579
I91
sS'ment'
p580
I91
sS'cousins'
p581
I90
sS'life\xe2\x80\x9d'
p582
I91
sS'15:20:51.0,34.02834335,-117.76090886,4033.18,i'
p583
I91
sS'hrs'
p584
I90
sS'sugar'
p585
I91
sS'rihanna'
p586
I91
sS'17:41:33.0,34.02913917,-117.7601376,4033.18,literally'
p587
I91
sS'version'
p588
I91
sS'anymore!,91766\n472846755604619264,arnufoofoo,2014-05-31'
p589
I91
sS'stabbing'
p590
I91
sS'tight"'
p591
I91
sS'sooooooo'
p592
I91
sS'chipotle'
p593
I91
sS'personality'
p594
I91
sS'wearing'
p595
I88
sS'do'
p596
I33
sS'dm'
p597
I89
sS'godzilla'
p598
I91
sS'wide'
p599
I91
sS"olivia's"
p600
I91
sS'frostbites'
p601
I91
sS'de'
p602
I90
sS'watch'
p603
I80
sS'ahahaha'
p604
I91
sS'12'
p605
I91
sS'supplies'
p606
I90
sS'nigguh'
p607
I91
sS'goddesses'
p608
I91
sS'gahaha'
p609
I91
sS'dr'
p610
I90
sS'14'
p611
I91
sS'runs'
p612
I91
sS'bar'
p613
I90
sS'covering'
p614
I91
sS'officially'
p615
I91
sS'hammocks'
p616
I91
sS',91766\n488252425254363136,arnufoofoo,2014-07-13'
p617
I91
sS'tonight,91766\n484104876956217344,arnufoofoo,2014-07-01'
p618
I91
sS'quinieeeee\xe2\x9d\xa4'
p619
I91
sS'twice'
p620
I88
sS'bad'
p621
I72
sS'bae'
p622
I76
sS'shots'
p623
I91
sS'18'
p624
I91
sS'envy.but'
p625
I91
sS'steak'
p626
I91
sS'ruins'
p627
I91
sS'wincos'
p628
I91
sS'respond'
p629
I90
sS'"game'
p630
I91
sS'habit'
p631
I89
sS'w/'
p632
I89
sS'today.best'
p633
I91
sS'resist'
p634
I91
sS'goodnight'
p635
I89
sS'decided'
p636
I91
sS',91766\n516534178699964416,familyman_jay23,2014-09-29'
p637
I91
sS'result'
p638
I91
sS'escaping'
p639
I91
sS'jerseys'
p640
I90
sS'katrina)'
p641
I91
sS'best'
p642
I69
sS'zack'
p643
I91
sS'brazil'
p644
I90
sS'said'
p645
I75
sS'joyride'
p646
I91
sS'sorta'
p647
I91
sS',91766\n500440361375133696,biglipluda,2014-08-16'
p648
I91
sS'away'
p649
I81
sS'imessage'
p650
I91
sS'6\xe2\x83\xa3'
p651
I91
sS'niggas\xe2\x80\x9d'
p652
I91
sS'16:40:55.0,34.0253172,-117.7633341,4033.18,rt'
p653
I91
sS'bien'
p654
I91
sS'score'
p655
I90
sS'-______-'
p656
I91
sS'finger'
p657
I85
sS'hopefully'
p658
I87
sS'approach'
p659
I91
sS'$60'
p660
I91
sS'14:06:16.0,34.02500547,-117.75601815,4033.18,,91766\n512242487579406336,vickigurol,2014-09-17'
p661
I91
sS'warrior'
p662
I90
sS'we'
p663
I39
sS',91766\n333699186748956673,kristinenuique,2013-05-12'
p664
I91
sS'omg'
p665
I75
sS'21:07:06.0,34.03633964,-117.78066805,4033.18,my'
p666
I91
sS'nothin.\xe2\x80\x9dsmoke'
p667
I91
sS'=[[[['
p668
I91
sS'much!!"'
p669
I91
sS'boss'
p670
I90
sS'omw'
p671
I91
sS'wear'
p672
I88
sS'wtf'
p673
I81
sS'wth'
p674
I90
sS'news'
p675
I87
sS'motto'
p676
I91
sS'kitchen'
p677
I91
sS'faced'
p678
I91
sS'received'
p679
I91
sS'tfti'
p680
I91
sS'met'
p681
I90
sS'fault'
p682
I90
sS'ill'
p683
I90
sS'adventures'
p684
I91
sS'against'
p685
I90
sS'players'
p686
I87
sS'games'
p687
I87
sS'planned'
p688
I91
sS'receiver'
p689
I91
sS'asked'
p690
I88
sS'ily'
p691
I79
sS'pre'
p692
I91
sS"06:06:14.0,34.03635558,-117.78062406,4033.18,isabel's"
p693
I91
sS'"bossy'
p694
I91
sS'had'
p695
I61
sS'ayeee'
p696
I90
sS'phillps'
p697
I91
sS'waaay'
p698
I91
sS'2nd'
p699
I89
sS'lick'
p700
I91
sS'corniest'
p701
I91
sS'loaded'
p702
I91
sS"01:41:41.0,34.03632214,-117.78050232,4033.18,i'm"
p703
I91
sS'trust'
p704
I89
sS'chino'
p705
I91
sS'22:13:18.0,34.03633335,-117.78058804,4033.18,today'
p706
I91
sS'hysterically'
p707
I91
sS'putt'
p708
I91
sS'bathroom'
p709
I91
sS'asks'
p710
I90
sS'swerved'
p711
I91
sS'three'
p712
I90
sS'been'
p713
I64
sS'quickly'
p714
I91
sS'oooooo'
p715
I91
sS'beer'
p716
I86
sS'much'
p717
I64
sS'tina'
p718
I91
sS'expected'
p719
I91
sS'15:06:26.0,34.0304457,-117.7566509,4033.18,old'
p720
I91
sS'lovely'
p721
I90
sS'07:01:57.0,34.03634251,-117.78063803,4033.18,tonight'
p722
I91
sS',91766\n488071496829394944,arnufoofoo,2014-07-12'
p723
I91
sS'life'
p724
I65
sS'soooooo'
p725
I91
sS'uh-oh'
p726
I90
sS'sunshine'
p727
I91
sS'sooooo'
p728
I90
sS'search'
p729
I91
sS'think,91766\n324598012863197185,areyoudowns,2013-04-17'
p730
I91
sS'niigga'
p731
I91
sS'personally'
p732
I91
sS'boopi,91766\n472810196079628288,arnufoofoo,2014-05-31'
p733
I91
sS',91766\n472510885748277248,arnufoofoo,2014-05-30'
p734
I91
sS'worked'
p735
I91
sS'cunt'
p736
I90
sS'chill'
p737
I90
sS'has'
p738
I62
sS'tank'
p739
I87
sS'9:30-10'
p740
I91
sS'blount'
p741
I91
sS'tastes'
p742
I91
sS'n'
p743
I85
sS'pt.2'
p744
I91
sS'ugly'
p745
I84
sS'lizard'
p746
I91
sS'melted'
p747
I91
sS'depp'
p748
I91
sS'b-day'
p749
I90
sS'right,91766\n484579119338774528,arnufoofoo,2014-07-03'
p750
I91
sS'stopping'
p751
I91
sS'cracked'
p752
I91
sS'voice'
p753
I90
sS'k'
p754
I89
sS'/:&'
p755
I91
sS'"www"'
p756
I91
sS'19:48:55.0,34.03660357,-117.78037241,4033.18,excited'
p757
I91
sS'mexico'
p758
I91
sS'is'
p759
I10
sS'sushi'
p760
I87
sS'it'
p761
I16
sS'agenda'
p762
I91
sS'jackie'
p763
I91
sS'player'
p764
I91
sS'cant'
p765
I91
sS'im'
p766
I74
sS'piercings'
p767
I91
sS'in'
p768
I13
sS'01:33:57.0,34.04112349,-117.76822806,4033.18,,91766\n483364183094734849,stagedrobbery,2014-06-29'
p769
I91
sS'seattle'
p770
I88
sS'id'
p771
I89
sS'if'
p772
I48
sS'grown'
p773
I90
sS'alien'
p774
I91
sS'nike'
p775
I90
sS'things'
p776
I78
sS'make'
p777
I58
sS'happening,91766\n477548464184643587,arnufoofoo,2014-06-13'
p778
I91
sS'polaroid'
p779
I91
sS'bella'
p780
I87
sS'rebellion'
p781
I91
sS'complex'
p782
I91
sS'patient'
p783
I91
sS'hahah'
p784
I89
sS'babies'
p785
I91
sS'dvds'
p786
I91
sS',91766\n503582738394271745,biglipluda,2014-08-24'
p787
I91
sS',91766\n481936059370971136,arnufoofoo,2014-06-25'
p788
I91
sS'yung'
p789
I91
sS'wheel'
p790
I91
sS'bearded'
p791
I91
sS'croptop'
p792
I91
sS'fuss'
p793
I91
sS'isababe'
p794
I91
sS'lusts'
p795
I91
sS'social'
p796
I91
sS'hang'
p797
I89
sS'coachella'
p798
I90
sS'rain'
p799
I88
sS'kik'
p800
I88
sS'heartbroken'
p801
I91
sS'debit'
p802
I91
sS'tapitio'
p803
I91
sS'portal'
p804
I91
sS'jealous'
p805
I88
sS'fun!,91766\n493162123791302656,arnufoofoo,2014-07-26'
p806
I91
sS'protected'
p807
I91
sS'goofed'
p808
I91
sS"he'll"
p809
I89
sS'thoughts'
p810
I89
sS'kid'
p811
I88
sS'butter'
p812
I91
sS',91766\n504371840421097474,arnufoofoo,2014-08-26'
p813
I91
sS'hurting...hw'
p814
I91
sS'narrow'
p815
I91
sS"mother's"
p816
I91
sS'los'
p817
I90
sS'youre'
p818
I87
sS'redeem'
p819
I91
sS'ocean'
p820
I91
sS'tho'
p821
I73
sS'contact'
p822
I90
sS'pandora'
p823
I89
sS'mother'
p824
I90
sS'leggarret'
p825
I91
sS'the'
p826
I4
sS'dads'
p827
I90
sS'left'
p828
I85
sS'joshua'
p829
I91
sS'mingle'
p830
I91
sS'kettle'
p831
I91
sS'sleeps'
p832
I90
sS'w.e'
p833
I91
sS'yea'
p834
I90
sS'teching'
p835
I91
sS'laptop'
p836
I91
sS'sleepy'
p837
I90
sS'flub."'
p838
I91
sS"04:42:34.0,34.03663087,-117.78059917,4033.18,isabel's"
p839
I91
sS'ginnie'
p840
I91
sS'grades'
p841
I91
sS'psych'
p842
I91
sS'thanks'
p843
I70
sS'yes'
p844
I65
sS'waht'
p845
I91
sS'yet'
p846
I82
sS'sleepiness'
p847
I91
sS'previous'
p848
I91
sS'adding'
p849
I91
sS'handshake'
p850
I91
sS'broncos'
p851
I91
sS'hills'
p852
I91
sS'omfg'
p853
I91
sS'josh'
p854
I89
sS'savs'
p855
I91
sS'hilly'
p856
I91
sS'jules'
p857
I91
sS'19:39:02.0,34.03228336,-117.75991101,4033.18,slow'
p858
I91
sS'consideration'
p859
I91
sS'east'
p860
I90
sS'hat'
p861
I89
sS'gave'
p862
I87
sS'shoulder'
p863
I91
sS'germanys'
p864
I91
sS'which'
p865
I91
sS'appreciated'
p866
I91
sS':-):-):-):-):-):-):-):-):-):-):-):-):-)'
p867
I91
sS'bands'
p868
I91
sS'breaks'
p869
I91
sS'addicts'
p870
I91
sS'selanne'
p871
I91
sS'19:25:23.0,34.03631909,-117.78057083,4033.18,mexico'
p872
I91
sS'background'
p873
I91
sS'23:08:36.0,34.03829786,-117.77647742,4033.18,*goes'
p874
I91
sS'judge'
p875
I91
sS'feelings'
p876
I91
sS'isabel.,91766\n492939000135417856,arnufoofoo,2014-07-26'
p877
I91
sS'd'
p878
I90
sS'desire'
p879
I91
sS'brought'
p880
I89
sS'53%'
p881
I91
sS'mir'
p882
I91
sS'gift'
p883
I90
sS'-_-'
p884
I89
sS'texts'
p885
I90
sS'bpm'
p886
I91
sS'50'
p887
I90
sS'theyre'
p888
I91
sS'specific'
p889
I91
sS'remind'
p890
I91
sS'mosquito'
p891
I91
sS'night'
p892
I71
sS'amor'
p893
I91
sS'security'
p894
I91
sS'rite"7000'
p895
I91
sS'\xe2\x9d\x84\xef\xb8\x8f\xe2\x9d\x84\xef\xb8\x8f\xe2\x9d\x84\xef\xb8\x8f\xe2\x9d\x84\xef\xb8\x8f\xe2\x9d\x84\xef\xb8\x8f,91766\n500219193615073280,chantalodalys,2014-08-15'
p896
I91
sS'hunchback'
p897
I91
sS'right'
p898
I59
sS'old'
p899
I86
sS',91766\n465324171430739969,lupegee15,2014-05-11'
p900
I91
sS'deal'
p901
I87
sS'people'
p902
I54
sS'sends'
p903
I91
sS'somehow'
p904
I91
sS'dead'
p905
I90
sS'unnecessary'
p906
I91
sS'sponge'
p907
I91
sS'you,91766\n324612968039997440,areyoudowns,2013-04-17'
p908
I91
sS'donald'
p909
I91
sS"nothing's"
p910
I91
sS'2\xe2\x80\xa6'
p911
I91
sS'dear'
p912
I91
sS'"tbh"'
p913
I91
sS'vato'
p914
I90
sS'finna'
p915
I91
sS'confusing'
p916
I91
sS',91766\n491824136549703680,arnufoofoo,2014-07-23'
p917
I91
sS'humor'
p918
I91
sS'for'
p919
I21
sS'bottom'
p920
I90
sS'ear'
p921
I91
sS'roster'
p922
I91
sS'/'
p923
I90
sS'orr?,91766\n476593704111587328,arnufoofoo,2014-06-11'
p924
I91
sS'everything'
p925
I81
sS'equal'
p926
I91
sS'foo'
p927
I90
sS'christmas'
p928
I91
sS'hazel'
p929
I91
sS'pls'
p930
I91
sS'deleted'
p931
I91
sS'corm'
p932
I91
sS'payment'
p933
I90
sS'burn'
p934
I91
sS'plz'
p935
I91
sS'long?"...it\'s'
p936
I91
sS"17:40:58.0,34.03633733,-117.78052877,4033.18,it's"
p937
I91
sS'paid'
p938
I89
sS'losing'
p939
I91
sS'eye'
p940
I91
sS'post'
p941
I85
sS'super'
p942
I90
sS'shopping"'
p943
I91
sS'16:26:56.0,34.02449983,-117.76612169,4033.18,chill'
p944
I91
sS'_ashley_autumn_'
p945
I91
sS',91766\n452505677072568320,stagedrobbery,2014-04-05'
p946
I91
sS'eat'
p947
I74
sS'\xe2\x9d\xa4\xef\xb8\x8f,91766\n503718827444944896,arnufoofoo,2014-08-25'
p948
I91
sS'months'
p949
I88
sS'adipose'
p950
I91
sS'beta'
p951
I91
sS'o'
p952
I86
sS'dinner'
p953
I91
sS'plus'
p954
I90
sS'plur'
p955
I89
sS'chrysler'
p956
I91
sS'sickness'
p957
I91
sS'commit'
p958
I91
sS'bitterness."'
p959
I91
sS'3way'
p960
I91
sS'you,91766\n484060280180047872,arnufoofoo,2014-07-01'
p961
I91
sS'insects.\xe2\x80\x9d'
p962
I91
sS'facetime'
p963
I91
sS'thisssssss'
p964
I91
sS'aha'
p965
I86
sS'whats'
p966
I88
sS'04:18:34.0,34.03648566,-117.78042155,4033.18,i'
p967
I91
sS'19:15:20.0,34.03639224,-117.78047587,4033.18,today'
p968
I91
sS'selfie'
p969
I89
sS'bound'
p970
I90
sS'soo'
p971
I87
sS'ppl'
p972
I89
sS'down'
p973
I80
sS'thankful'
p974
I90
sS'sos'
p975
I91
sS'fiuck'
p976
I91
sS'rounds'
p977
I91
sS'annoyance'
p978
I91
sS'beth'
p979
I91
sS'peoples'
p980
I91
sS'chargers'
p981
I90
sS'sally'
p982
I91
sS'support'
p983
I91
sS'>>>>'
p984
I91
sS'class'
p985
I85
sS'surprised'
p986
I91
sS'stuck'
p987
I90
sS'pi'
p988
I91
sS"boy's"
p989
I91
sS'way'
p990
I67
sS'triplets'
p991
I91
sS'music'
p992
I87
sS'wat'
p993
I91
sS'was'
p994
I26
sS'happy'
p995
I52
sS'18:35:38.0,34.03635027,-117.78055254,4033.18,my'
p996
I91
sS'head'
p997
I86
sS'yolo'
p998
I91
sS'ac,91766\n488248800742350849,arnufoofoo,2014-07-13'
p999
I91
sS'gorgeous'
p1000
I90
sS'05:13:03.0,34.02267182,-117.75030177,4033.18,forget'
p1001
I91
sS'undress'
p1002
I91
sS'tbh,91766\n477548629134028800,arnufoofoo,2014-06-13'
p1003
I91
sS'shits'
p1004
I91
sS'chapter..,91766\n501417735738638336,arnufoofoo,2014-08-18'
p1005
I91
sS'hear'
p1006
I90
sS'idgaf'
p1007
I91
sS'placement'
p1008
I91
sS'jennifer'
p1009
I91
sS'true'
p1010
I85
sS'din-din'
p1011
I91
sS'01:53:10.0,34.024293,-117.75501215,4033.18,with'
p1012
I91
sS'randomest'
p1013
I91
sS'responding'
p1014
I91
sS'happen'
p1015
I88
sS'born'
p1016
I91
sS'inside'
p1017
I91
sS'runners-'
p1018
I91
sS'tell'
p1019
I83
sS'epps'
p1020
I91
sS',91766\n480072675822284801,stagedrobbery,2014-06-20'
p1021
I91
sS'08:52:40.0,34.03809913,-117.77370821,4033.18,,91766\n507663987970830336,b_r_i_t_n_e_y__,2014-09-04'
p1022
I91
sS'20lbs.!gonna'
p1023
I91
sS'nicest'
p1024
I91
sS'things"'
p1025
I91
sS'atta'
p1026
I89
sS'(cont)'
p1027
I91
sS'emotional'
p1028
I89
sS'daddy'
p1029
I90
sS'delete'
p1030
I91
sS'later'
p1031
I87
sS'proved'
p1032
I91
sS'sticks'
p1033
I91
sS'tryna'
p1034
I88
sS'158'
p1035
I91
sS'rahh'
p1036
I91
sS'17:49:26.0,34.02466814,-117.75619777,4033.18,i'
p1037
I91
sS'hungry'
p1038
I89
sS'swollen'
p1039
I91
sS'better,91766\n472831279222648833,arnufoofoo,2014-05-31'
p1040
I91
sS'awhile'
p1041
I90
sS'annoying'
p1042
I89
sS'check'
p1043
I90
sS'shit'
p1044
I44
sS'pipe'
p1045
I91
sS'dying'
p1046
I87
sS'no'
p1047
I42
sS'na'
p1048
I91
sS'commercials'
p1049
I90
sS'when'
p1050
I32
sS'reality'
p1051
I91
sS'17:54:53.0,34.03638413,-117.78052147,4033.18,this'
p1052
I91
sS'ny'
p1053
I91
sS'role'
p1054
I91
sS'holding'
p1055
I91
sS'test'
p1056
I89
sS'asleep....my'
p1057
I91
sS'ball.\xe2\x80\x9d'
p1058
I91
sS'picture'
p1059
I84
sS'holt'
p1060
I91
sS'brothers'
p1061
I89
sS"20:37:59.0,34.03632858,-117.78057296,4033.18,i'm"
p1062
I91
sS'dies'
p1063
I90
sS'football'
p1064
I88
sS'convincing'
p1065
I91
sS'day...gettin'
p1066
I91
sS'diet'
p1067
I90
sS"let's"
p1068
I80
sS'fell'
p1069
I90
sS'cambria'
p1070
I91
sS'08:51:47.0,34.03633557,-117.78066509,4033.18,i'
p1071
I91
sS'scores'
p1072
I91
sS'hahahahahah'
p1073
I91
sS'shatters'
p1074
I91
sS'07:44:44.0,34.03656985,-117.78039515,4033.18,izzypoos'
p1075
I91
sS'weekend'
p1076
I81
sS'died'
p1077
I91
sS"lego's"
p1078
I91
sS'spiderman'
p1079
I91
sS'faster'
p1080
I87
sS'rolling,91766\n472802170518003712,arnufoofoo,2014-05-31'
p1081
I91
sS'compassion'
p1082
I91
sS',91766\n492928338474721281,arnufoofoo,2014-07-26'
p1083
I91
sS'daily'
p1084
I90
sS'stealing'
p1085
I91
sS'time'
p1086
I46
sS'serious'
p1087
I89
sS'beamer'
p1088
I91
sS'backward'
p1089
I91
sS',91766\n446200571012186112,xquietstorm08x,2014-03-19'
p1090
I91
sS'songs'
p1091
I91
sS'rideee,91766\n493245330155008000,kelliehough7,2014-07-27'
p1092
I91
sS',91766\n487677000237056000,arnufoofoo,2014-07-11'
p1093
I91
sS'coach'
p1094
I90
sS':('
p1095
I86
sS':)'
p1096
I84
sS'dance'
p1097
I89
sS'rob'
p1098
I91
sS'ouch'
p1099
I91
sS'snip'
p1100
I89
sS':>'
p1101
I91
sS'ice'
p1102
I88
sS'grateful'
p1103
I91
sS'battle'
p1104
I91
sS':0'
p1105
I91
sS'nigga"'
p1106
I91
sS'hodgy'
p1107
I91
sS'flan'
p1108
I91
sS'yummy'
p1109
I91
sS'zone'
p1110
I91
sS'religion'
p1111
I91
sS'flash'
p1112
I90
sS"22:05:10.0,34.03631752,-117.7805439,4033.18,i'm"
p1113
I91
sS'nawh'
p1114
I91
sS'amaze'
p1115
I91
sS'finally'
p1116
I83
sS'lmaoo'
p1117
I90
sS'me'
p1118
I12
sS':o'
p1119
I89
sS'icing'
p1120
I91
sS'keenan'
p1121
I91
sS'wooooo'
p1122
I91
sS'tacos'
p1123
I90
sS'hurts,91766\n498380355544428544,arnufoofoo,2014-08-10'
p1124
I91
sS'vegas'
p1125
I87
sS'stays'
p1126
I90
sS'join'
p1127
I90
sS'trouble'
p1128
I89
sS':p'
p1129
I90
sS'cool'
p1130
I83
sS'beating'
p1131
I91
sS'solves'
p1132
I91
sS'level'
p1133
I90
sS'did'
p1134
I64
sS'die'
p1135
I82
sS'did."'
p1136
I91
sS'gun'
p1137
I90
sS'turnt'
p1138
I90
sS'leave'
p1139
I85
sS'p'
p1140
I90
sS"04:37:55.0,34.0245949,-117.7558501,4033.18,doesn't"
p1141
I91
sS'belgiuuuuummm\xe2\x80\x9d'
p1142
I91
sS'subway'
p1143
I90
sS'hittin'
p1144
I91
sS'team'
p1145
I84
sS'quick'
p1146
I89
sS'guy'
p1147
I76
sS'dip'
p1148
I90
sS'round'
p1149
I91
sS',91766\n497265875708174336,arnufoofoo,2014-08-07'
p1150
I91
sS"it'll"
p1151
I91
sS'upper'
p1152
I90
sS'heinz'
p1153
I91
sS'says'
p1154
I83
sS'regret'
p1155
I91
sS'porn'
p1156
I91
sS'sigh'
p1157
I87
sS'ragnarrelay'
p1158
I91
sS'wishhaha'
p1159
I91
sS'sparkle?,91766\n486678404628897793,arnufoofoo,2014-07-09'
p1160
I91
sS'maya,91766\n386524576177332224,samstake_,2013-10-05'
p1161
I91
sS'trent'
p1162
I91
sS'run'
p1163
I85
sS'19:19:24.0,34.03633579,-117.78059327,4033.18,dirty'
p1164
I91
sS'fear'
p1165
I90
sS'irritated'
p1166
I91
sS'beautifuls'
p1167
I91
sS'wondering'
p1168
I91
sS'appear'
p1169
I91
sS'mt'
p1170
I90
sS'fuuuuuuuck'
p1171
I91
sS'05:16:04.0,34.03635423,-117.78050009,4033.18,the'
p1172
I91
sS'today,91766\n472880130201620481,arnufoofoo,2014-05-31'
p1173
I91
sS'melt'
p1174
I91
sS'truuu,91766\n477552516305932289,arnufoofoo,2014-06-13'
p1175
I91
sS'ewww\xe2\x9c\x8b'
p1176
I91
sS'goes'
p1177
I87
sS'goooood'
p1178
I91
sS'eaten'
p1179
I91
sS'reply'
p1180
I90
sS'18:47:40.0,34.03632594,-117.78059792,4033.18,my'
p1181
I91
sS'ummmm'
p1182
I91
sS'corn'
p1183
I91
sS'oldies'
p1184
I91
sS'he.comes'
p1185
I91
sS'hairs'
p1186
I91
sS'makeup'
p1187
I88
sS'"bad"'
p1188
I91
sS'contemplate'
p1189
I91
sS'swimming~'
p1190
I91
sS'slow'
p1191
I91
sS'baseball'
p1192
I90
sS'patience'
p1193
I91
sS'alone'
p1194
I86
sS'laughin'
p1195
I91
sS'along'
p1196
I90
sS'teacher'
p1197
I90
sS'change'
p1198
I86
sS'wait'
p1199
I75
sS'box'
p1200
I91
sS'buck'
p1201
I90
sS'yessss'
p1202
I89
sS'thirty'
p1203
I91
sS'washer'
p1204
I91
sS'healthy'
p1205
I91
sS'shift'
p1206
I88
sS'teaching'
p1207
I91
sS'guilty'
p1208
I91
sS'lakers'
p1209
I91
sS"tomorrow's"
p1210
I91
sS'5ever'
p1211
I90
sS'boi'
p1212
I91
sS'total'
p1213
I91
sS'boo'
p1214
I89
sS'usually'
p1215
I91
sS'tha'
p1216
I91
sS'weird'
p1217
I85
sS'ty-dye'
p1218
I91
sS'studies'
p1219
I91
sS'homecoming'
p1220
I91
sS'teenage'
p1221
I91
sS'love'
p1222
I27
sS'extra'
p1223
I91
sS'bs'
p1224
I91
sS'prefer'
p1225
I91
sS'ever...so'
p1226
I91
sS"isabel's"
p1227
I87
sS'fake'
p1228
I90
sS'responddd,91766\n404060216028696576,leodelrecords,2013-11-23'
p1229
I91
sS'"my'
p1230
I91
sS'21:27:50.0,34.0364323,-117.78044921,4033.18,so'
p1231
I91
sS'too,91766\n472826536458850306,arnufoofoo,2014-05-31'
p1232
I91
sS'everybody'
p1233
I90
sS',91766\n350378094458191872,jcos53,2013-06-27'
p1234
I91
sS'bayern'
p1235
I91
sS'gaaaaawddddd'
p1236
I91
sS'working'
p1237
I89
sS'prove'
p1238
I91
sS'aye'
p1239
I90
sS'ladyyyy!"'
p1240
I91
sS'angry'
p1241
I90
sS'dude'
p1242
I83
sS'tears'
p1243
I91
sS'$35everything'
p1244
I91
sS'by'
p1245
I62
sS'19:46:45.0,34.03642442,-117.78042473,4033.18,but'
p1246
I91
sS'live'
p1247
I88
sS'bases'
p1248
I91
sS'iphone'
p1249
I89
sS'peru'
p1250
I90
sS'ahhh'
p1251
I90
sS'believing'
p1252
I91
sS'thru'
p1253
I89
sS'14:11:40.0,34.02503723,-117.75724291,4033.18,sooo'
p1254
I91
sS'today'
p1255
I45
sS'"dance'
p1256
I91
sS'yeezys'
p1257
I91
sS'son'
p1258
I91
sS'hooked'
p1259
I91
sS'weight'
p1260
I91
sS'club'
p1261
I91
sS'"dotcom"'
p1262
I91
sS"padilla's"
p1263
I91
sS'apparent'
p1264
I91
sS'cashier'
p1265
I91
sS',91766\n449460244725235712,xquietstorm08x,2014-03-28'
p1266
I91
sS'chocolate'
p1267
I89
sS'downtown'
p1268
I91
sS'everywhere'
p1269
I89
sS'06:57:00.0,34.03633283,-117.78056586,4033.18,i'
p1270
I91
sS'riding'
p1271
I91
sS'casillas\xe2\x80\x9d,91766\n477551059410247680,arnufoofoo,2014-06-13'
p1272
I91
sS'cases'
p1273
I91
sS'effort'
p1274
I91
sS'twittaaa'
p1275
I91
sS'you,91766\n477703930785185793,arnufoofoo,2014-06-14'
p1276
I91
sS'fosho'
p1277
I90
sS'sanctified'
p1278
I91
sS'wal-mart'
p1279
I90
sS'car'
p1280
I72
sS'originally'
p1281
I91
sS'cowboy'
p1282
I91
sS'smileys/emojis'
p1283
I91
sS'soul'
p1284
I90
sS'20:55:59.0,34.03631978,-117.78057064,4033.18,people'
p1285
I91
sS'decker'
p1286
I90
sS'wallet'
p1287
I89
sS'hardest'
p1288
I91
sS'can'
p1289
I40
sS'cam'
p1290
I90
sS'kendrick'
p1291
I90
sS'making'
p1292
I80
sS'disgust'
p1293
I91
sS'laughter'
p1294
I90
sS'streak'
p1295
I91
sS'heart'
p1296
I83
sS'crazy'
p1297
I88
sS'valentines'
p1298
I91
sS'figure'
p1299
I90
sS'bitches"...where'
p1300
I91
sS'awesome'
p1301
I83
sS"didn't"
p1302
I78
sS'fuck'
p1303
I40
sS'looooooooong'
p1304
I91
sS'heard'
p1305
I86
sS'chin'
p1306
I91
sS'dropped'
p1307
I87
sS'lorde'
p1308
I91
sS'persies'
p1309
I91
sS'pink'
p1310
I91
sS'happy\xe2\x98\xba\xef\xb8\x8f'
p1311
I91
sS'07:41:32.0,34.03658335,-117.78040638,4033.18,who'
p1312
I91
sS'productive'
p1313
I90
sS'winter'
p1314
I91
sS'better..,91766\n481343065232125953,arnufoofoo,2014-06-24'
p1315
I91
sS'watching'
p1316
I84
sS's5'
p1317
I91
sS'1'
p1318
I84
sS'till'
p1319
I88
sS'sunday'
p1320
I87
sS'wednesday\xe2\x99\xa1'
p1321
I91
sS'stage,91766\n487025666160730112,arnufoofoo,2014-07-10'
p1322
I91
sS'pure'
p1323
I90
sS'holland'
p1324
I91
sS'$12all'
p1325
I91
sS'\xe2\x9d\xa4\xef\xb8\x8f\xe2\x9d\xa4\xef\xb8\x8f\xe2\x9d\xa4\xef\xb8\x8f'
p1326
I90
sS'speaks'
p1327
I91
sS'injusticeeeeeee"'
p1328
I91
sS'forgave'
p1329
I91
sS'night\xe2\x80\x9d'
p1330
I91
sS'staying'
p1331
I89
sS'buffet)'
p1332
I91
sS'fire-pit'
p1333
I91
sS'stoked'
p1334
I91
sS'2010?,91766\n477553185419038720,arnufoofoo,2014-06-13'
p1335
I91
sS'may'
p1336
I85
sS'coworker'
p1337
I91
sS'slush'
p1338
I90
sS'spot'
p1339
I89
sS'comin'
p1340
I91
sS'crashed'
p1341
I91
sS'heartbreaking'
p1342
I91
sS'birthday'
p1343
I70
sS'mad'
p1344
I80
sS'islands'
p1345
I91
sS'date'
p1346
I85
sS'such'
p1347
I81
sS'suck'
p1348
I84
sS'sipping'
p1349
I91
sS'guys'
p1350
I83
sS'?"'
p1351
I90
sS'man'
p1352
I68
sS'sz'
p1353
I90
sS'stress'
p1354
I90
sS'7'
p1355
I91
sS'remember'
p1356
I84
sS'19:46:45.0,34.03633214,-117.78051862,4033.18,he'
p1357
I91
sS'fckk'
p1358
I91
sS'whenever'
p1359
I91
sS'maybe'
p1360
I87
sS'night!,91766\n342044847747760128,bobbywash43,2013-06-04'
p1361
I91
sS'swangin'
p1362
I91
sS'benny'
p1363
I91
sS'rollin'
p1364
I90
sS'mango'
p1365
I90
sS'so'
p1366
I17
sS'rn,91766\n516271441138827264,anthonydelrio85,2014-09-28'
p1367
I91
sS'think."'
p1368
I91
sS'sc'
p1369
I91
sS'sat'
p1370
I91
sS'pulled'
p1371
I90
sS'talk'
p1372
I74
sS'sd'
p1373
I91
sS'cute'
p1374
I86
sS'shoes'
p1375
I87
sS'usc'
p1376
I91
sS'indeed'
p1377
I91
sS'colt'
p1378
I91
sS'midnight'
p1379
I91
sS'years'
p1380
I90
sS'course'
p1381
I87
sS'kanye'
p1382
I90
sS'isaabooty'
p1383
I89
sS'still'
p1384
I57
sS'birds'
p1385
I91
sS'dreading'
p1386
I91
sS'djs'
p1387
I91
sS'apes'
p1388
I91
sS'group'
p1389
I91
sS'thank'
p1390
I72
sS'curly'
p1391
I91
sS'how'
p1392
I47
sS'interesting'
p1393
I90
sS'bagels'
p1394
I91
sS'amazing'
p1395
I85
sS':b\xe2\x80\x9d'
p1396
I91
sS'wooooooooooooo'
p1397
I91
sS'window'
p1398
I91
sS'22:22:41.0,34.04075095,-117.76848832,4033.18,ew'
p1399
I91
sS'stroooooodle'
p1400
I91
sS'tweets'
p1401
I88
sS'manbulge'
p1402
I91
sS'a.k.a'
p1403
I91
sS'main'
p1404
I91
sS'ahh'
p1405
I90
sS'happened'
p1406
I85
sS'lonely'
p1407
I91
sS'wtf...i'
p1408
I91
sS'moms'
p1409
I86
sS'chelsea'
p1410
I91
sS'bein'
p1411
I91
sS'killer'
p1412
I91
sS'insomnia'
p1413
I91
sS'hilarious'
p1414
I91
sS'sooner'
p1415
I90
sS'feelin'
p1416
I90
sS'lunch'
p1417
I86
sS'half'
p1418
I88
sS'not'
p1419
I33
sS'grows'
p1420
I91
sS'now'
p1421
I43
sS'provision'
p1422
I91
sS'ketchup'
p1423
I90
sS'nor'
p1424
I91
sS'su'
p1425
I91
sS'argentina'
p1426
I91
sS'name'
p1427
I86
sS'realist'
p1428
I91
sS'hawaiin'
p1429
I91
sS'james'
p1430
I91
sS'drop'
p1431
I88
sS'birthday5'
p1432
I91
sS'debating'
p1433
I91
sS"06:27:19.0,34.03635399,-117.7805894,4033.18,don't"
p1434
I91
sS'omo'
p1435
I91
sS'rock'
p1436
I88
sS'at?:(,91766\n507374062968897537,arnufoofoo,2014-09-04'
p1437
I91
sS',91766\n516317526499008512,tpbeef,2014-09-28'
p1438
I91
sS'em'
p1439
I89
sS'el'
p1440
I89
sS'en'
p1441
I91
sS'eh'
p1442
I91
sS'tankian'
p1443
I91
sS'krush'
p1444
I91
sS'ed'
p1445
I91
sS'receipt'
p1446
I91
sS'yeah'
p1447
I72
sS'vamos,91766\n484059223307743234,arnufoofoo,2014-07-01'
p1448
I91
sS'ayyy'
p1449
I91
sS'ex'
p1450
I90
sS'year'
p1451
I77
sS'(phillips'
p1452
I91
sS'girl'
p1453
I75
sS'obsession'
p1454
I91
sS'surprise'
p1455
I88
sS'fu'
p1456
I91
sS'giddy'
p1457
I91
sS'living'
p1458
I90
sS'jackson'
p1459
I91
sS'3rd'
p1460
I91
sS'space'
p1461
I91
sS',91766\n484189364201590784,arnufoofoo,2014-07-02'
p1462
I91
sS'sunburnt'
p1463
I91
sS'looking'
p1464
I85
sS'bday'
p1465
I91
sS'seriously'
p1466
I79
sS'dammit!!,91766\n484757184790528001,arnufoofoo,2014-07-03'
p1467
I91
sS"shouldn't"
p1468
I88
sS'internet'
p1469
I91
sS'07:39:40.0,34.03647807,-117.78050839,4033.18,the'
p1470
I91
sS'shows'
p1471
I90
sS'smfh'
p1472
I91
sS'earlier'
p1473
I90
sS'morning,91766\n324620165885087744,areyoudowns,2013-04-17'
p1474
I91
sS'monster'
p1475
I91
sS'existed'
p1476
I91
sS'06:12:26.0,34.03646634,-117.78036707,4033.18,schleep,91766\n502689279223410688,arnufoofoo,2014-08-22'
p1477
I91
sS'cars'
p1478
I90
sS'boobs'
p1479
I91
sS'pumping'
p1480
I91
sS'quite'
p1481
I90
sS'20:05:42.0,34.03651635,-117.78036129,4033.18,my'
p1482
I91
sS'lmk'
p1483
I91
sS'california'
p1484
I91
sS'caro'
p1485
I91
sS'besides'
p1486
I89
sS'grandma'
p1487
I89
sS'marina'
p1488
I91
sS'gots'
p1489
I91
sS',91766\n496579560813502464,_ecg22,2014-08-05'
p1490
I91
sS'cough'
p1491
I89
sS'keith'
p1492
I91
sS'card'
p1493
I89
sS'care'
p1494
I88
sS'relarionship'
p1495
I91
sS'underwear'
p1496
I91
sS'luego'
p1497
I91
sS'hooker'
p1498
I91
sS'deck'
p1499
I91
sS'yup'
p1500
I90
sS'transition'
p1501
I91
sS'forlan'
p1502
I91
sS'17:54:56.0,34.03631713,-117.78053244,4033.18,snip'
p1503
I91
sS'chevy'
p1504
I91
sS'turn'
p1505
I86
sS'place'
p1506
I88
sS'gordon'
p1507
I91
sS'sho'
p1508
I90
sS'yess'
p1509
I90
sS'think'
p1510
I62
sS'waited'
p1511
I91
sS'first'
p1512
I77
sS'blind'
p1513
I90
sS'626'
p1514
I91
sS'pomona)'
p1515
I86
sS'xm'
p1516
I91
sS'sock'
p1517
I91
sS'waves'
p1518
I90
sS'potter'
p1519
I91
sS'crib'
p1520
I91
sS'one'
p1521
I54
sS'weeeeell'
p1522
I91
sS'long'
p1523
I82
sS'spanish'
p1524
I91
sS'carry'
p1525
I91
sS'sounds'
p1526
I90
sS'drove'
p1527
I90
sS'open'
p1528
I90
sS'tomorrow'
p1529
I69
sS'size'
p1530
I89
sS'city'
p1531
I87
sS'little'
p1532
I74
sS',91766\n487681015700140032,exotic_ishy,2014-07-11'
p1533
I91
sS'downstairs'
p1534
I91
sS'caught'
p1535
I89
sS'slept'
p1536
I86
sS'twerked'
p1537
I91
sS'20:28:38.0,34.02370497,-117.76577049,4033.18,i'
p1538
I91
sS'anyone'
p1539
I84
sS'fml'
p1540
I91
sS'2'
p1541
I79
sS':-/'
p1542
I91
sS'white'
p1543
I83
sS"pose...i'm"
p1544
I91
sS'friend'
p1545
I80
sS'coals'
p1546
I91
sS'eyes'
p1547
I86
sS'hug'
p1548
I90
sS'activity'
p1549
I91
sS'unobtainable'
p1550
I91
sS'that'
p1551
I19
sS'season'
p1552
I91
sS'sider,91766\n501182297929162752,vickigurol,2014-08-18'
p1553
I91
sS'boba'
p1554
I90
sS'spider.\xe2\x80\x9d'
p1555
I91
sS'hurt'
p1556
I91
sS'ridiculous'
p1557
I91
sS'20:19:54.0,34.02686616,-117.76113111,4033.18,leah'
p1558
I91
sS'sociology'
p1559
I91
sS'dessert'
p1560
I91
sS'butt'
p1561
I88
sS'assssss'
p1562
I91
sS'thai'
p1563
I91
sS'than'
p1564
I72
sS'boyfriend'
p1565
I89
sS'vibes...really'
p1566
I91
sS'10'
p1567
I84
sS'13'
p1568
I90
sS'u&'
p1569
I91
sS'$10'
p1570
I91
sS'lmao'
p1571
I56
sS'22:00:18.0,34.03630876,-117.78050641,4033.18,,91766\n499609474789691392,arnufoofoo,2014-08-13'
p1572
I91
sS'19'
p1573
I89
sS'favors'
p1574
I91
sS'gotta'
p1575
I84
sS'chado'
p1576
I91
sS'again,91766\n489517092090044418,arnufoofoo,2014-07-16'
p1577
I91
sS'r'
p1578
I89
sS'people.me-'
p1579
I91
sS'were'
p1580
I75
sS',91766\n403654716527091712,redeyesjr,2013-11-21'
p1581
I91
sS'asleep'
p1582
I89
sS',91766\n480977074866237440,arnufoofoo,2014-06-23'
p1583
I91
sS'sublime'
p1584
I91
sS'browser'
p1585
I91
sS'and'
p1586
I9
sS'fuck,91766\n497163229823782912,arnufoofoo,2014-08-06'
p1587
I91
sS'san'
p1588
I90
sS'angel'
p1589
I91
sS'22:58:21.0,34.0428795,-117.7700314,4033.18,ugh'
p1590
I91
sS'sac'
p1591
I90
sS'always!,91766\n347896845713940480,jcos53,2013-06-21'
p1592
I91
sS'hoes'
p1593
I91
sS'argument'
p1594
I91
sS'slap'
p1595
I90
sS'sad'
p1596
I88
sS'woah'
p1597
I91
sS'say'
p1598
I83
sS'thot'
p1599
I91
sS'breakfast'
p1600
I87
sS'saw'
p1601
I82
sS'any'
p1602
I83
sS"here...what's"
p1603
I91
sS'stoners'
p1604
I90
sS'00:58:12.0,34.0363459,-117.78055168,4033.18,moms'
p1605
I91
sS'dream,91766\n494602210014019584,arnufoofoo,2014-07-30'
p1606
I91
sS'wcw'
p1607
I90
sS'sewing'
p1608
I91
sS'note'
p1609
I91
sS'phillips'
p1610
I84
sS'rehearsals'
p1611
I91
sS'squad'
p1612
I91
sS'hookah'
p1613
I91
sS'take'
p1614
I69
sS'online'
p1615
I89
sS'wanting'
p1616
I90
sS'blunt'
p1617
I89
sS'02:39:38.0,34.0251361,-117.7701922,4033.18,planet'
p1618
I91
sS'channel'
p1619
I88
sS'mouth...duh'
p1620
I91
sS'begin'
p1621
I91
sS'sure'
p1622
I86
sS'pain'
p1623
I91
sS'lollll'
p1624
I91
sS'normal'
p1625
I86
sS'1/3'
p1626
I91
sS'knew'
p1627
I89
sS',91766\n511342900160917505,anthonydelrio85,2014-09-15'
p1628
I91
sS'buffet'
p1629
I87
sS'ooooops'
p1630
I91
sS'boiling'
p1631
I91
sS'abut'
p1632
I91
sS'purty'
p1633
I91
sS'america'
p1634
I90
sS'woooo'
p1635
I91
sS'forever'
p1636
I87
sS'you.>>>'
p1637
I91
sS'beachfront'
p1638
I91
sS'especially'
p1639
I91
sS'considered'
p1640
I90
sS'times.what'
p1641
I91
sS'man?,91766\n487788342705008640,jeffreybasa,2014-07-12'
p1642
I91
sS'proud'
p1643
I90
sS'drive'
p1644
I83
sS'tooth'
p1645
I91
sS'corny'
p1646
I91
sS'sunset'
p1647
I91
sS'shhhhhhhhhhh'
p1648
I91
sS'*hug*'
p1649
I91
sS'uncle'
p1650
I85
sS'senior'
p1651
I91
sS'fiance'
p1652
I91
sS'sigma'
p1653
I91
sS'choice'
p1654
I91
sS'shop'
p1655
I91
sS"coldplay's"
p1656
I91
sS'walking'
p1657
I91
sS'shot'
p1658
I90
sS'\xe2\x9c\xa8'
p1659
I91
sS'show'
p1660
I84
sS'german'
p1661
I91
sS'cococaine'
p1662
I91
sS'discovered'
p1663
I91
sS'bright'
p1664
I91
sS'fuck!!!!!,91766\n287013770721624064,pablothebatman,2013-01-04'
p1665
I91
sS'"125'
p1666
I91
sS'shoe'
p1667
I90
sS"lexi's"
p1668
I91
sS',91766\n496913053376847872,arnufoofoo,2014-08-06'
p1669
I91
sS'aggressive'
p1670
I91
sS'woooooooooooooooooooo'
p1671
I91
sS'ground'
p1672
I90
sS'aint'
p1673
I89
sS'\xe2\x99\xa5\xe2\x80\x9d'
p1674
I91
sS'upgrade'
p1675
I90
sS'slop'
p1676
I91
sS'\xe2\x9c\x8b'
p1677
I90
sS'favor'
p1678
I91
sS'me,91766\n475342361115885568,arnufoofoo,2014-06-07'
p1679
I91
sS'dick'
p1680
I90
sS'3'
p1681
I84
sS',91766\n484939529480966145,arnufoofoo,2014-07-04'
p1682
I91
sS'either'
p1683
I89
sS'only'
p1684
I79
sS'going'
p1685
I49
sS'black'
p1686
I83
sS'outrage'
p1687
I91
sS'\xe2\x99\xa1'
p1688
I91
sS'05:16:08.0,34.0365173,-117.78030035,4033.18,im'
p1689
I91
sS'pumpkin'
p1690
I90
sS'05:33:09.0,34.0237802,-117.7495929,4033.18,we'
p1691
I91
sS'season,91766\n480978499163811840,arnufoofoo,2014-06-23'
p1692
I91
sS'get'
p1693
I29
sS'goodluck'
p1694
I91
sS'assistant'
p1695
I91
sS'midriff'
p1696
I91
sS',91766\n475911112685129728,arnufoofoo,2014-06-09'
p1697
I91
sS'cannot'
p1698
I91
sS'nearly'
p1699
I91
sS'lighter'
p1700
I91
sS'dye'
p1701
I91
sS'ita'
p1702
I91
sS'brekky'
p1703
I91
sS'freaking'
p1704
I87
sS'bcuz'
p1705
I91
sS'lame'
p1706
I91
sS'seent'
p1707
I91
sS'suckz'
p1708
I91
sS'borrow'
p1709
I91
sS'morning'
p1710
I76
sS'naked'
p1711
I91
sS":')"
p1712
I91
sS'stupid'
p1713
I85
sS'scott'
p1714
I91
sS'finishing'
p1715
I91
sS'pants'
p1716
I89
sS'where'
p1717
I79
sS'real.,91766\n511386474747797505,vanessa_darlinn,2014-09-15'
p1718
I91
sS'predisposed'
p1719
I91
sS"y'all"
p1720
I81
sS'secret,91766\n472960208424013825,emilystingray,2014-06-01'
p1721
I91
sS'concert'
p1722
I89
sS'espn'
p1723
I91
sS'station'
p1724
I91
sS'respondddd'
p1725
I91
sS'mom'
p1726
I69
sS'ends'
p1727
I91
sS"hasn't"
p1728
I91
sS'isabel'
p1729
I71
sS'college'
p1730
I90
sS'\xe2\x99\x90'
p1731
I91
sS'parking'
p1732
I91
sS'impressions'
p1733
I91
sS'surgery'
p1734
I91
sS'comment,91766\n483680640093540352,alyssawightmann,2014-06-30'
p1735
I91
sS'wonder'
p1736
I88
sS'21:44:20.0,34.02776125,-117.76013178,4033.18,celebrating'
p1737
I91
sS'"fortune"'
p1738
I91
sS'22:42:51.0,34.03635438,-117.78060197,4033.18,people'
p1739
I91
sS'trynna'
p1740
I91
sS'farmers'
p1741
I91
sS',91766\n500441719515934720,biglipluda,2014-08-16'
p1742
I91
sS'review'
p1743
I91
sS'bootleg'
p1744
I91
sS'"is'
p1745
I91
sS"father's"
p1746
I90
sS'underestimate'
p1747
I91
sS'enough'
p1748
I87
sS';))))'
p1749
I91
sS'irresponsibility'
p1750
I91
sS'reading'
p1751
I91
sS'across'
p1752
I91
sS'dempsey'
p1753
I91
sS'notice'
p1754
I90
sS'august'
p1755
I91
sS'ever,91766\n508674338891919360,arnufoofoo,2014-09-07'
p1756
I91
sS'name"'
p1757
I91
sS'fearless'
p1758
I91
sS'biotchh'
p1759
I91
sS'preach'
p1760
I91
sS'killing'
p1761
I90
sS'newspaper'
p1762
I91
sS'nd'
p1763
I91
sS'(dope'
p1764
I91
sS'share'
p1765
I91
sS'jj'
p1766
I91
sS'hurts'
p1767
I84
sS'coma'
p1768
I91
sS'je'
p1769
I91
sS'spark'
p1770
I90
sS'ahahahahaha'
p1771
I90
sS'come'
p1772
I69
sS'04:17:57.0,34.03642535,-117.78038585,4033.18,twitter'
p1773
I91
sS'sign,91766\n481119093446045696,arnufoofoo,2014-06-23'
p1774
I91
sS'blame'
p1775
I91
sS'dates'
p1776
I91
sS'dies........i'
p1777
I91
sS'girls*'
p1778
I91
sS'faggit'
p1779
I91
sS'many'
p1780
I77
sS'gwk'
p1781
I91
sS'restroom'
p1782
I91
sS'22:52:28.0,34.03640376,-117.78036246,4033.18,date'
p1783
I91
sS'jo'
p1784
I91
sS'mane'
p1785
I91
sS'improv'
p1786
I91
sS'05:56:26.0,34.03633799,-117.7805192,4033.18,ima'
p1787
I91
sS"'o'"
p1788
I91
sS"can't"
p1789
I58
sS'deported'
p1790
I91
sS'perdimos'
p1791
I91
sS'6:30'
p1792
I90
sS'ohhhhh'
p1793
I91
sS'color'
p1794
I90
sS'..almost'
p1795
I91
sS'jk'
p1796
I91
sS'jeans'
p1797
I90
sS'period'
p1798
I89
sS'pop'
p1799
I89
sS'60'
p1800
I91
sS"couldn't"
p1801
I91
sS'polo'
p1802
I91
sS'69'
p1803
I91
sS'vente'
p1804
I91
sS'"fix'
p1805
I91
sS'tub'
p1806
I91
sS'boat'
p1807
I90
sS'turkey'
p1808
I90
sS'save'
p1809
I91
sS'jobbbbbbbb'
p1810
I91
sS'capable'
p1811
I91
sS'west'
p1812
I90
sS'classic'
p1813
I90
sS'undershirt'
p1814
I91
sS'carey'
p1815
I91
sS'tomorrow,91766\n483866843765932032,arnufoofoo,2014-07-01'
p1816
I91
sS'fraaan'
p1817
I91
sS'breath'
p1818
I91
sS'fey'
p1819
I91
sS'did...lucky'
p1820
I91
sS'tonsils'
p1821
I91
sS'"bitch'
p1822
I91
sS'20k'
p1823
I91
sS'home.,91766\n481552033221079040,stagedrobbery,2014-06-24'
p1824
I91
sS'sisterhood'
p1825
I91
sS'500'
p1826
I91
sS'ruining'
p1827
I90
sS'wants'
p1828
I89
sS'tournament'
p1829
I91
sS'shopping'
p1830
I90
sS'laney'
p1831
I91
sS'how,91766\n489518180864253952,arnufoofoo,2014-07-16'
p1832
I91
sS'bad,91766\n477551671401127937,arnufoofoo,2014-06-13'
p1833
I91
sS'dramatic'
p1834
I90
sS'wake'
p1835
I89
sS'bmw'
p1836
I91
sS'acquiring'
p1837
I91
sS'ruby'
p1838
I91
sS'champions'
p1839
I90
sS'those'
p1840
I85
sS'sound'
p1841
I91
sS'polly'
p1842
I91
sS'myself'
p1843
I83
sS'soccer'
p1844
I90
sS'casa'
p1845
I89
sS'these'
p1846
I76
sS'tribal'
p1847
I91
sS'trick'
p1848
I91
sS',91766\n484591305146646529,arnufoofoo,2014-07-03'
p1849
I91
sS'scar'
p1850
I91
sS'goodmorning'
p1851
I91
sS'=<'
p1852
I91
sS'01:30:21.0,34.03444731,-117.76103206,4033.18,i'
p1853
I91
sS'coco'
p1854
I90
sS'situation'
p1855
I90
sS'finer'
p1856
I91
sS'cock'
p1857
I91
sS'pushed'
p1858
I91
sS'ive'
p1859
I91
sS'mhmmm'
p1860
I91
sS'one-run'
p1861
I91
sS'20:43:04.0,34.03632212,-117.78058912,4033.18,,91766\n478997349713182720,arnufoofoo,2014-06-17'
p1862
I91
sS'eventually'
p1863
I91
sS'purse'
p1864
I91
sS'caltrans'
p1865
I91
sS'sleeping'
p1866
I87
sS'middle'
p1867
I91
sS'sudden'
p1868
I88
sS'releases'
p1869
I91
sS'accounting'
p1870
I91
sS'heels'
p1871
I91
sS',91766\n499342799968686080,arnufoofoo,2014-08-12'
p1872
I91
sS'protein'
p1873
I91
sS'flipped'
p1874
I91
sS'everyday'
p1875
I85
sS'worry'
p1876
I90
sS'different'
p1877
I89
sS'him!,91766\n500551617243258880,arnufoofoo,2014-08-16'
p1878
I91
sS'allllll'
p1879
I91
sS'doctor'
p1880
I91
sS'18:50:44.0,34.02707253,-117.75388286,4033.18,i'
p1881
I91
sS'pay'
p1882
I88
sS'10:30'
p1883
I91
sS'$25'
p1884
I91
sS'same'
p1885
I76
sS'trip'
p1886
I89
sS'shifts'
p1887
I90
sS"jockin'"
p1888
I91
sS'pac'
p1889
I91
sS'followers'
p1890
I90
sS'arguments'
p1891
I91
sS'coworkers'
p1892
I91
sS"21:09:04.0,34.03633611,-117.78060954,4033.18,i'm"
p1893
I91
sS'hell\xe2\x80\xa6'
p1894
I91
sS',91766\n475678742690267137,arnufoofoo,2014-06-08'
p1895
I91
sS'disappointment'
p1896
I91
sS'week'
p1897
I73
sS'favorited'
p1898
I91
sS'oil'
p1899
I90
sS'screenshot'
p1900
I91
sS'singapore'
p1901
I91
sS'driver'
p1902
I91
sS'drives'
p1903
I91
sS'weed'
p1904
I87
sS'cheers'
p1905
I90
sS'running'
p1906
I88
sS'favorites'
p1907
I91
sS'changing'
p1908
I91
sS'tapatio'
p1909
I91
sS'totally'
p1910
I91
sS'cross'
p1911
I91
sS'fuuuuuuck'
p1912
I91
sS'\xe2\x9c\x8c\xef\xb8\x8f'
p1913
I90
sS'emoji)'
p1914
I91
sS'breakdowns'
p1915
I91
sS',91766\n511661475543670784,vickigurol,2014-09-15'
p1916
I91
sS'aunts'
p1917
I90
sS'girls,91766\n479013969504387072,arnufoofoo,2014-06-17'
p1918
I91
sS'ranch'
p1919
I81
sS'23:17:30.0,34.02298062,-117.7583844,4033.18,this'
p1920
I91
sS'roommate'
p1921
I91
sS'nothin'
p1922
I90
sS'properly...not'
p1923
I91
sS'"how'
p1924
I91
sS'05:31:00.0,34.03654869,-117.78036112,4033.18,because'
p1925
I91
sS'without'
p1926
I86
sS'flakes'
p1927
I91
sS'comes'
p1928
I88
sS'bottle'
p1929
I91
sS'everything\xe2\x80\x9dsounds'
p1930
I91
sS'21:19:37.0,34.03632538,-117.78057073,4033.18,im'
p1931
I91
sS'summer'
p1932
I79
sS'(x'
p1933
I90
sS'they'
p1934
I64
sS'ya'
p1935
I82
sS'money'
p1936
I82
sS'neon'
p1937
I91
sS'rest'
p1938
I86
sS'idols'
p1939
I91
sS'pissing'
p1940
I90
sS'kill'
p1941
I90
sS'apes?,91766\n493288024692621312,_kingfernie,2014-07-27'
p1942
I91
sS'touch'
p1943
I90
sS'it.,91766\n482391892496113665,arnufoofoo,2014-06-27'
p1944
I91
sS'weekly'
p1945
I91
sS'blow'
p1946
I91
sS'graving'
p1947
I91
sS'death'
p1948
I87
sS'up/have'
p1949
I91
sS'thinking'
p1950
I87
sS'"hugepackage"'
p1951
I91
sS',91766\n500317728306384897,chantalodalys,2014-08-15'
p1952
I91
sS"everyone's"
p1953
I91
sS'except'
p1954
I90
sS'it\xe2\x80\x99s'
p1955
I91
sS'sportin'
p1956
I90
sS'mann'
p1957
I89
sS'lets'
p1958
I89
sS'ahhhh'
p1959
I91
sS'4'
p1960
I86
sS'sampler'
p1961
I91
sS'ca'
p1962
I67
sS'momentum'
p1963
I91
sS'real'
p1964
I86
sS'starving'
p1965
I91
sS'jake'
p1966
I91
sS'around'
p1967
I85
sS'dland'
p1968
I91
sS'read'
p1969
I87
sS'por'
p1970
I91
sS'17:50:49.0,34.02464689,-117.75681275,4033.18,my'
p1971
I91
sS'gonna'
p1972
I65
sS'paranormal'
p1973
I91
sS'dark'
p1974
I87
sS'18:22:03.0,34.0296499,-117.7648248,4033.18,the'
p1975
I91
sS'curry'
p1976
I91
sS'traffic'
p1977
I85
sS'seahawks'
p1978
I90
sS'listening'
p1979
I87
sS'(-'
p1980
I89
sS'world'
p1981
I87
sS'earls'
p1982
I91
sS'coming,91766\n477550473453400064,arnufoofoo,2014-06-13'
p1983
I91
sS'lady'
p1984
I86
sS'whittier'
p1985
I91
sS'3005'
p1986
I91
sS'in-n-out'
p1987
I91
sS"06:07:19.0,34.03633007,-117.78058258,4033.18,i'm"
p1988
I91
sS'$."'
p1989
I91
sS"21:36:04.0,34.0276421,-117.76019839,4033.18,what's"
p1990
I91
sS'iphone5'
p1991
I91
sS'sundays'
p1992
I91
sS'brown,91766\n500552765798879232,arnufoofoo,2014-08-16'
p1993
I91
sS'nose'
p1994
I90
sS'(103'
p1995
I91
sS'fully'
p1996
I91
sS'crzy'
p1997
I91
sS'burpees'
p1998
I91
sS';p'
p1999
I91
sS'ruthless,91766\n502612531610128385,arnufoofoo,2014-08-22'
p2000
I91
sS'doll'
p2001
I90
sS'naah'
p2002
I91
sS'competition'
p2003
I90
sS'chuck'
p2004
I91
sS'depressed'
p2005
I91
sS'neck\xe2\x80\x9d'
p2006
I91
sS'*kani'
p2007
I91
sS'too..,91766\n442009469690462208,taybachh,2014-03-07'
p2008
I91
sS'yayyy'
p2009
I91
sS'23:07:57.0,34.03018632,-117.7598496,4033.18,they'
p2010
I91
sS';o'
p2011
I91
sS'thinks'
p2012
I89
sS'yesss'
p2013
I86
sS'daytime'
p2014
I91
sS'gross'
p2015
I90
sS'outs'
p2016
I91
sS'mood'
p2017
I86
sS'in\xe2\x80\xa6'
p2018
I91
sS'nazi'
p2019
I91
sS'nooo'
p2020
I91
sS'mph'
p2021
I91
sS'stops'
p2022
I91
sS'kms'
p2023
I91
sS'yooooo'
p2024
I91
sS'picks'
p2025
I91
sS'fckkk'
p2026
I91
sS'dimples'
p2027
I90
sS'knife'
p2028
I91
sS'refer'
p2029
I91
sS'willy'
p2030
I91
sS'felt'
p2031
I88
sS'transformers'
p2032
I91
sS'business'
p2033
I89
sS'quit'
p2034
I91
sS'lmfao'
p2035
I82
sS'nails'
p2036
I89
sS'fitness'
p2037
I91
sS'tde'
p2038
I91
sS'loudest'
p2039
I91
sS'uneasy'
p2040
I91
sS'netflix'
p2041
I91
sS',91766\n493653304983842816,arnufoofoo,2014-07-28'
p2042
I91
sS'throwback'
p2043
I90
sS';)'
p2044
I88
sS'exciting'
p2045
I89
sS';/'
p2046
I90
sS'ducking'
p2047
I91
sS'on'
p2048
I24
sS'ok'
p2049
I85
sS'oh'
p2050
I70
sS'of'
p2051
I14
sS'youzzz'
p2052
I91
sS'oc'
p2053
I90
sS'meal'
p2054
I91
sS'srs'
p2055
I91
sS'lol,91766\n476427715109588993,stagedrobbery,2014-06-10'
p2056
I91
sS'wolf'
p2057
I91
sS'stand'
p2058
I90
sS'decent'
p2059
I89
sS'evan'
p2060
I91
sS'mean'
p2061
I87
sS'or'
p2062
I57
sS'road'
p2063
I86
sS'tonight,91766\n472983232053391361,emilystingray,2014-06-01'
p2064
I91
sS'sleeepsss'
p2065
I91
sS'smelling'
p2066
I91
sS'blessed'
p2067
I90
sS'snapchat'
p2068
I88
sS'augustus'
p2069
I91
sS'rummikub'
p2070
I91
sS'cent'
p2071
I91
sS'parties'
p2072
I90
sS'elementary'
p2073
I90
sS'mark'
p2074
I91
sS'your'
p2075
I41
sS'restless'
p2076
I91
sS'loc'
p2077
I91
sS'tendinitis'
p2078
I91
sS"how's"
p2079
I91
sS'her'
p2080
I60
sS'ihop'
p2081
I91
sS'there'
p2082
I75
sS'vh1'
p2083
I91
sS'hey'
p2084
I78
sS'lol'
p2085
I34
sS'ass"'
p2086
I91
sS'lmfaooo'
p2087
I91
sS'gunna'
p2088
I90
sS'cafe'
p2089
I91
sS'cats'
p2090
I91
sS'low'
p2091
I90
sS'lot'
p2092
I83
sS'cloths'
p2093
I91
sS'hen'
p2094
I91
sS'energy'
p2095
I91
sS'treat'
p2096
I91
sS'media'
p2097
I91
sS'clothes"'
p2098
I91
sS'dormir'
p2099
I90
sS'complete'
p2100
I90
sS'hacienda'
p2101
I91
sS'yupp'
p2102
I91
sS'you"'
p2103
I91
sS'strikes'
p2104
I91
sS'yaya'
p2105
I90
sS'ended'
p2106
I91
sS'"what\'s'
p2107
I91
sS'unreliable'
p2108
I91
sS'pitched'
p2109
I91
sS'trying'
p2110
I81
sS'with'
p2111
I11
sS'\xe2\x98\xba\xef\xb8\x8f,91766\n506485713076908032,arnufoofoo,2014-09-01'
p2112
I91
sS'buying'
p2113
I89
sS'spice'
p2114
I91
sS'pull'
p2115
I89
sS'rush'
p2116
I90
sS'waste'
p2117
I91
sS'meezy'
p2118
I91
sS'rage'
p2119
I91
sS"wasn't"
p2120
I88
sS'hardly'
p2121
I91
sS'ronaldo'
p2122
I90
sS'bucket'
p2123
I91
sS'churro'
p2124
I91
sS'20lbs.!!gonna'
p2125
I91
sS'do."'
p2126
I91
sS'dirty'
p2127
I91
sS'dvd'
p2128
I91
sS'in&out'
p2129
I91
sS'agree'
p2130
I89
sS'23:37:51.0,34.03632064,-117.78048427,4033.18,my'
p2131
I91
sS'gone'
p2132
I89
sS'ac'
p2133
I90
sS'taylor'
p2134
I91
sS'02:06:46.0,34.0358572,-117.7627655,4033.18,ugh'
p2135
I91
sS'butthole'
p2136
I91
sS'videos'
p2137
I91
sS'af'
p2138
I84
sS'taste'
p2139
I91
sS'ah'
p2140
I89
sS'describe'
p2141
I90
sS'am'
p2142
I75
sS'al'
p2143
I91
sS'an'
p2144
I68
sS'bruh,91766\n326348782021263361,areyoudowns,2013-04-22'
p2145
I91
sS'ap'
p2146
I89
sS'as'
p2147
I60
sS'07:04:08.0,34.03633163,-117.78061285,4033.18,i'
p2148
I91
sS'at'
p2149
I8
sS'aw'
p2150
I88
sS'girlfriend'
p2151
I90
sS'watched'
p2152
I91
sS'az'
p2153
I91
sS'\xe2\x9c\x8f\xef\xb8\x8f'
p2154
I91
sS'you.\xe2\x80\x9d'
p2155
I91
sS'cream'
p2156
I89
sS'again'
p2157
I76
sS'beyond'
p2158
I91
sS'yoga'
p2159
I91
sS'baaaaabeee'
p2160
I91
sS'idiot'
p2161
I91
sS'vickie'
p2162
I91
sS'lathargic'
p2163
I91
sS'ste-whens'
p2164
I91
sS',91766\n492004952957394944,arnufoofoo,2014-07-23'
p2165
I91
sS'this,91766\n475373253809025024,stagedrobbery,2014-06-07'
p2166
I91
sS'field'
p2167
I91
sS'5'
p2168
I86
sS'evenings'
p2169
I91
sS'you'
p2170
I7
sS'puppy'
p2171
I89
sS'n9ne'
p2172
I91
sS'karma'
p2173
I91
sS'poor'
p2174
I90
sS'requested'
p2175
I91
sS'poop'
p2176
I91
sS'drive-thru'
p2177
I91
sS'bother'
p2178
I91
sS'kairos'
p2179
I91
sS'soon;/'
p2180
I91
sS'acosta'
p2181
I91
sS'whistling'
p2182
I91
sS'ptown'
p2183
I91
sS'18:18:06.0,34.03633245,-117.78058476,4033.18,then'
p2184
I91
sS"she's"
p2185
I79
sS'chris'
p2186
I88
sS'sneeze'
p2187
I91
sS'finals'
p2188
I90
sS'alcohol'
p2189
I90
sS'tricky'
p2190
I91
sS'10:25:19.0,34.0296894,-117.764361,4033.18,made'
p2191
I91
sS'lineup'
p2192
I91
sS'remote'
p2193
I91
sS'06:33:56.0,34.03635491,-117.78066705,4033.18,tonight'
p2194
I91
sS'wife'
p2195
I91
sS'requires'
p2196
I91
sS"life's"
p2197
I91
sS'wifi'
p2198
I91
sS'daysss'
p2199
I91
sS'barcelona'
p2200
I91
sS'am..,91766\n500552450034925568,arnufoofoo,2014-08-16'
p2201
I91
sS'u'
p2202
I61
sS'alright'
p2203
I86
sS'powwow'
p2204
I91
sS'theyll'
p2205
I91
sS'starting'
p2206
I90
sS'humping'
p2207
I91
sS',91766\n479031783376158721,arnufoofoo,2014-06-17'
p2208
I91
sS'cheetos'
p2209
I91
sS'all'
p2210
I30
sS'9/10'
p2211
I91
sS'liar'
p2212
I91
sS'forget'
p2213
I89
sS'washed'
p2214
I91
sS'jussssttttt'
p2215
I91
sS'dollar'
p2216
I91
sS'month'
p2217
I90
sS'jasminnaaaaa'
p2218
I91
sS'typhani'
p2219
I91
sS':/'
p2220
I91
sS'07:56:20.0,34.03633477,-117.78051693,4033.18,groot'
p2221
I91
sS'cameron'
p2222
I90
sS'follow'
p2223
I91
sS'sue\xc3\xb1o'
p2224
I91
sS'decisions'
p2225
I90
sS'children'
p2226
I90
sS'hmmm'
p2227
I91
sS'strangers'
p2228
I91
sS'-a'
p2229
I91
sS'liar"'
p2230
I91
sS'imma'
p2231
I88
sS'costco'
p2232
I91
sS'tu'
p2233
I90
sS',91766\n512965903844376576,vickigurol,2014-09-19'
p2234
I91
sS'thursday'
p2235
I90
sS'former'
p2236
I91
sS'to'
p2237
I3
sS'aaron'
p2238
I91
sS'foster'
p2239
I91
sS'commander'
p2240
I91
sS'great!,91766\n505177256138784768,arnufoofoo,2014-08-29'
p2241
I91
sS'tf'
p2242
I84
sS'smile'
p2243
I88
sS'enjoying'
p2244
I91
sS'presentation'
p2245
I91
sS'wiff'
p2246
I91
sS'latinoamerica'
p2247
I91
sS'ghana'
p2248
I91
sS"mechachief_megafun's"
p2249
I90
sS'05:01:29.0,34.03658896,-117.78035659,4033.18,rt'
p2250
I91
sS'woman'
p2251
I84
sS'worse'
p2252
I89
sS',91766\n496820901565194240,arnufoofoo,2014-08-06'
p2253
I91
sS'song'
p2254
I85
sS'very'
p2255
I85
sS'day)'
p2256
I91
sS'fav'
p2257
I90
sS'fat'
p2258
I82
sS'hahahahahahaha'
p2259
I90
sS'selfies'
p2260
I90
sS'rl'
p2261
I91
sS'done,91766\n489295705647742977,arnufoofoo,2014-07-16'
p2262
I91
sS'fan'
p2263
I90
sS'difficult'
p2264
I91
sS'decide'
p2265
I91
sS'fam'
p2266
I85
sS'winning'
p2267
I91
sS'ticket'
p2268
I88
sS'ramen'
p2269
I90
sS'fuckkkk'
p2270
I91
sS'hoes"'
p2271
I91
sS'tears,91766\n474709593407229952,arnufoofoo,2014-06-06'
p2272
I91
sS'trippin'
p2273
I90
sS'breakfast.,91766\n498952900622970880,brayos_,2014-08-11'
p2274
I91
sS'jenna'
p2275
I91
sS'celebrity'
p2276
I91
sS'laying'
p2277
I90
sS'manager'
p2278
I91
sS'it!!!\xe2\x80\x9d'
p2279
I91
sS'large'
p2280
I91
sS'sang'
p2281
I90
sS'donovan'
p2282
I90
sS'16'
p2283
I91
sS'startin'
p2284
I91
sS'plain'
p2285
I90
sS'small'
p2286
I89
sS'anal'
p2287
I91
sS'dodger'
p2288
I89
sS"i'll"
p2289
I73
sS'quicker'
p2290
I91
sS'neighborhood'
p2291
I90
sS'instagram'
p2292
I90
sS'tea'
p2293
I90
sS'kushnuggz'
p2294
I91
sS'past'
p2295
I91
sS'niiiiiice'
p2296
I91
sS'zero'
p2297
I89
sS'pass'
p2298
I90
sS'link'
p2299
I91
sS'harder'
p2300
I91
sS'nbd'
p2301
I91
sS'conscience'
p2302
I91
sS'whaaaadup'
p2303
I91
sS'what'
p2304
I38
sS'abc'
p2305
I91
sS'darkness'
p2306
I91
sS'clock'
p2307
I90
sS'sun'
p2308
I91
sS'follower'
p2309
I90
sS'rip'
p2310
I91
sS'anniversary'
p2311
I91
sS'emotions'
p2312
I91
sS'!\xe2\x98\xba'
p2313
I91
sS'crush'
p2314
I81
sS"sadie's?:)"
p2315
I91
sS'abs'
p2316
I91
sS'sus'
p2317
I91
sS'bye2usx10000000'
p2318
I91
sS'subtweets'
p2319
I91
sS'racing'
p2320
I91
sS'public'
p2321
I91
sS'rhet'
p2322
I91
sS'movement'
p2323
I91
sS'tattoos'
p2324
I91
sS'full'
p2325
I86
sS'christian'
p2326
I91
sS"c'mon"
p2327
I90
sS'again,91766\n491116943152119809,arnufoofoo,2014-07-21'
p2328
I91
sS'ma'
p2329
I90
sS'hungover'
p2330
I91
sS'homee'
p2331
I91
sS'flags\xe2\x80\x9di'
p2332
I91
sS'motherfucker'
p2333
I91
sS'hours'
p2334
I85
sS'cancelled'
p2335
I90
sS'excess'
p2336
I91
sS'vals'
p2337
I91
sS'i.e'
p2338
I91
sS'refuckingtweet'
p2339
I91
sS'01:22:03.0,34.02362643,-117.76604768,4033.18,ucla'
p2340
I91
sS'shoulda'
p2341
I90
sS'dude\xe2\x80\xa6'
p2342
I91
sS'creeps'
p2343
I90
sS'bullshit'
p2344
I91
sS'inspired'
p2345
I91
sS'909'
p2346
I89
sS',91766\n492599632837345281,arnufoofoo,2014-07-25'
p2347
I91
sS'experience'
p2348
I91
sS'pics'
p2349
I90
sS'sofas'
p2350
I91
sS'amount'
p2351
I89
sS'base'
p2352
I91
sS'fwy'
p2353
I91
sS'pick'
p2354
I88
sS',91766\n493267827369836544,familyman_jay23,2014-07-27'
p2355
I91
sS"would've"
p2356
I89
sS'sunburned'
p2357
I91
sS'annoyed,91766\n492008340398944256,arnufoofoo,2014-07-23'
p2358
I91
sS'asf'
p2359
I91
sS'became'
p2360
I91
sS'jazmine'
p2361
I91
sS'family'
p2362
I83
sS',91766\n477550919471468544,arnufoofoo,2014-06-13'
p2363
I91
sS"2013'"
p2364
I91
sS'09:13:31.0,34.03638443,-117.78052913,4033.18,but'
p2365
I91
sS'ask'
p2366
I88
sS'semester'
p2367
I89
sS'23:19:43.0,34.03633421,-117.78061273,4033.18,gonna'
p2368
I91
sS'dripps'
p2369
I91
sS'toys'
p2370
I91
sS'"i\'ve'
p2371
I91
sS'pulls'
p2372
I91
sS'reallly'
p2373
I91
sS'emoji'
p2374
I90
sS'dgaf'
p2375
I91
sS'\xee\x90\x8a\xee\x90\x92,91766\n519947500250083328,luvyuhmutha,2014-10-08'
p2376
I91
sS'takes'
p2377
I91
sS'=),91766\n484600317875470336,arnufoofoo,2014-07-03'
p2378
I91
sS'\xe2\x98\x9d\xef\xb8\x8f'
p2379
I91
sS'two'
p2380
I84
sS'omgggg'
p2381
I91
sS'torro'
p2382
I91
sS'6'
p2383
I89
sS'taken'
p2384
I90
sS'more'
p2385
I57
sS'flat'
p2386
I89
sS'diamond'
p2387
I91
sS'door'
p2388
I91
sS'knows'
p2389
I88
sS',91766\n497810282207789056,arnufoofoo,2014-08-08'
p2390
I91
sS'company'
p2391
I91
sS'17:17:58.0,34.03634147,-117.78068791,4033.18,la'
p2392
I91
sS"ain't"
p2393
I81
sS'basically'
p2394
I90
sS'broke'
p2395
I86
sS'amputate'
p2396
I91
sS'known'
p2397
I91
sS'that\xe2\x80\x9d'
p2398
I91
sS'hurry'
p2399
I88
sS'dislike'
p2400
I91
sS'glad'
p2401
I86
sS'grill'
p2402
I87
sS'none'
p2403
I90
sS'recovering'
p2404
I91
sS'hour'
p2405
I86
sS'07:48:24.0,34.0366069,-117.78023749,4033.18,my'
p2406
I91
sS'der'
p2407
I90
sS'shelves'
p2408
I91
sS'sucks'
p2409
I88
sS'jhene'
p2410
I91
sS'offended'
p2411
I91
sS'paragraph'
p2412
I91
sS'del'
p2413
I91
sS'learn'
p2414
I89
sS'knocked'
p2415
I89
sS'sahara'
p2416
I91
sS'tortuga'
p2417
I91
sS'dee'
p2418
I91
sS'beautiful'
p2419
I83
sS'cuzzin'
p2420
I91
sS'embarrassing'
p2421
I91
sS'23rd'
p2422
I91
sS'brown'
p2423
I89
sS'alright"'
p2424
I91
sS'vente!,91766\n500880565273247745,arnufoofoo,2014-08-17'
p2425
I91
sS'terrible'
p2426
I91
sS'lolol'
p2427
I87
sS'sense'
p2428
I88
sS'11:00'
p2429
I91
sS'"guide"'
p2430
I91
sS'dress'
p2431
I91
sS'unappreciated'
p2432
I91
sS'huge'
p2433
I90
sS'needs'
p2434
I81
sS'court'
p2435
I91
sS'awkward'
p2436
I91
sS'rather'
p2437
I91
sS'breaking'
p2438
I89
sS'way\xe2\x80\x9d'
p2439
I91
sS'thaaanng'
p2440
I91
sS'justin'
p2441
I91
sS'aaaay'
p2442
I91
sS'"oceans"'
p2443
I91
sS'sandwich'
p2444
I90
sS'okay'
p2445
I77
sS'plans'
p2446
I88
sS'tattoo'
p2447
I91
sS'notre'
p2448
I91
sS'signature'
p2449
I91
sS'soundtrack'
p2450
I91
sS'now,91766\n484591244887089153,arnufoofoo,2014-07-03'
p2451
I91
sS'lighting'
p2452
I91
sS'blood'
p2453
I90
sS'opening'
p2454
I91
sS'coming'
p2455
I82
sS'bahaha'
p2456
I89
sS'fuuuu'
p2457
I90
sS'fl'
p2458
I91
sS'bahahahahahahahahhaah'
p2459
I91
sS'a'
p2460
I6
sS'refuse'
p2461
I91
sS'short'
p2462
I91
sS"funnyjoke's"
p2463
I91
sS'doritos'
p2464
I90
sS'resemble'
p2465
I91
sS'tweeting'
p2466
I91
sS"kimchi's"
p2467
I91
sS':(,91766\n486675809894031360,arnufoofoo,2014-07-09'
p2468
I91
sS',91766\n511661333457403904,vickigurol,2014-09-15'
p2469
I91
sS'wishes'
p2470
I91
sS'shade'
p2471
I91
sS'$20'
p2472
I90
sS'"are'
p2473
I91
sS'dream'
p2474
I84
sS'playing'
p2475
I88
sS"that's"
p2476
I68
sS'05:23:43.0,34.03663767,-117.78036681,4033.18,nice'
p2477
I91
sS'mexican'
p2478
I91
sS'help'
p2479
I83
sS"don't"
p2480
I30
sS'september'
p2481
I91
sS'nighter'
p2482
I91
sS'sooo'
p2483
I91
sS'soon'
p2484
I87
sS'trade'
p2485
I90
sS'doinggggggg'
p2486
I91
sS'performance'
p2487
I91
sS'isnt'
p2488
I91
sS'paper'
p2489
I90
sS'through'
p2490
I87
sS'us:))'
p2491
I91
sS'filters'
p2492
I91
sS'hollyyy'
p2493
I91
sS'bulletstorm'
p2494
I90
sS'hell'
p2495
I79
sS'smiling'
p2496
I91
sS'markie'
p2497
I90
sS'its'
p2498
I75
sS'24'
p2499
I90
sS'messed'
p2500
I89
sS'style'
p2501
I91
sS'20'
p2502
I90
sS'21'
p2503
I89
sS'pcs'
p2504
I91
sS'sale'
p2505
I91
sS'bro!,91766\n481844466907480065,arnufoofoo,2014-06-25'
p2506
I91
sS'actually'
p2507
I81
sS'late'
p2508
I87
sS'\xe6\xb3\xa2\xe8\x8e\xab\xe7\xba\xb3'
p2509
I72
sS'coo,91766\n421100704283885568,jeffreybasa,2014-01-09'
p2510
I91
sS'symptoms'
p2511
I91
sS':l,91766\n488250435761762304,arnufoofoo,2014-07-13'
p2512
I91
sS'bout'
p2513
I85
sS'cutie'
p2514
I90
sS'might'
p2515
I88
sS"haven't"
p2516
I85
sS',91766\n501447269137526784,arnufoofoo,2014-08-18'
p2517
I91
sS'hurting'
p2518
I90
sS'good'
p2519
I35
sS'somebody'
p2520
I90
sS'yo'
p2521
I81
sS'food'
p2522
I82
sS'\xe2\x80\xa6and'
p2523
I91
sS'uhm'
p2524
I91
sS'ye'
p2525
I91
sS'noticing'
p2526
I91
sS'yg'
p2527
I90
sS'arsenal'
p2528
I90
sS'starbucks'
p2529
I79
sS'montclair'
p2530
I91
sS'foot'
p2531
I90
sS'valentine'
p2532
I91
sS'complain'
p2533
I91
sS'bigger'
p2534
I89
sS'sucked'
p2535
I91
sS'natedawggggg'
p2536
I91
sS'shifty'
p2537
I91
sS'failed'
p2538
I91
sS'everytime'
p2539
I91
sS'17:01:18.0,34.0340881,-117.7627335,4033.18,so'
p2540
I91
sS'always'
p2541
I62
sS'drake'
p2542
I91
sS'jaime'
p2543
I91
sS'bless'
p2544
I90
sS'someone'
p2545
I70
sS'stopped'
p2546
I89
sS'cramming'
p2547
I91
sS'all.,91766\n500891173058129924,arnufoofoo,2014-08-17'
p2548
I91
sS'turns'
p2549
I91
sS'found'
p2550
I89
sS'shocking'
p2551
I91
sS'fuck,91766\n481348829904502785,arnufoofoo,2014-06-24'
p2552
I91
sS"isn't"
p2553
I83
sS'camaro'
p2554
I91
sS'heavy'
p2555
I91
sS'status'
p2556
I91
sS'everyone'
p2557
I73
sS'lad'
p2558
I91
sS'another'
p2559
I82
sS'mums'
p2560
I91
sS'house'
p2561
I78
sS'fish'
p2562
I90
sS'hard'
p2563
I83
sS'idea'
p2564
I90
sS'banquet'
p2565
I91
sS'finish'
p2566
I91
sS'connect'
p2567
I91
sS'fist'
p2568
I91
sS'pho'
p2569
I91
sS'balance'
p2570
I91
sS'02:56:41.0,34.0340131,-117.7626661,4033.18,good'
p2571
I91
sS'fanksgiving'
p2572
I91
sS'really'
p2573
I48
sS"06:09:24.0,34.0236536,-117.7530113,4033.18,i'll"
p2574
I91
sS'lovers'
p2575
I91
sS'prolly'
p2576
I91
sS'missed'
p2577
I89
sS'item'
p2578
I91
sS'robert'
p2579
I91
sS'since'
p2580
I82
sS'18:37:05.0,34.03658676,-117.76983251,4033.18,happy'
p2581
I91
sS'soooo'
p2582
I91
sS'acting'
p2583
I91
sS'streaking'
p2584
I91
sS'blunts'
p2585
I89
sS"they'll"
p2586
I91
sS'lolz'
p2587
I91
sS"00:09:01.0,34.03632504,-117.78054857,4033.18,i'll"
p2588
I91
sS'show.,91766\n487721960189591553,arnufoofoo,2014-07-11'
p2589
I91
sS'ass'
p2590
I70
sS'afterwards.,91766\n475356366589001728,arnufoofoo,2014-06-07'
p2591
I91
sS'bass'
p2592
I91
sS'drifting'
p2593
I91
sS'1-7'
p2594
I91
sS'friday'
p2595
I84
sS'forgive'
p2596
I89
sS'bombshell'
p2597
I91
sS'asb'
p2598
I91
sS'reason'
p2599
I88
sS'killin'
p2600
I90
sS'cookie'
p2601
I90
sS'disneyland'
p2602
I88
sS'put'
p2603
I82
sS'night.,91766\n472849656666279936,rararaul191,2014-05-31'
p2604
I91
sS',91766\n500006172766642176,arnufoofoo,2014-08-14'
p2605
I91
sS"4g's"
p2606
I91
sS'thrown'
p2607
I91
sS'cindy'
p2608
I91
sS'ranch)'
p2609
I91
sS'16:53:55.0,34.03634133,-117.78061968,4033.18,thank'
p2610
I91
sS'right?!,91766\n494594467865702401,arnufoofoo,2014-07-30'
p2611
I91
sS'08:08:30.0,34.03636877,-117.78046992,4033.18,tonight'
p2612
I91
sS'cheering'
p2613
I91
sS'afternoon'
p2614
I91
sS'nerf'
p2615
I91
sS'w'
p2616
I90
sS'bumper'
p2617
I91
sS'concussion'
p2618
I91
sS'\xee\x90\x92'
p2619
I91
sS'feed'
p2620
I91
sS'flood'
p2621
I91
sS'08:11:18.0,34.03652928,-117.78032399,4033.18,i'
p2622
I91
sS'mr'
p2623
I91
sS'dont'
p2624
I79
sS'feel'
p2625
I61
sS'(insert'
p2626
I91
sS'number'
p2627
I90
sS'fancy'
p2628
I89
sS'twisted'
p2629
I91
sS'feet'
p2630
I90
sS'fucked'
p2631
I89
sS'sailor'
p2632
I91
sS'20:34:15.0,34.02439405,-117.7502255,4033.18,that'
p2633
I91
sS'done'
p2634
I72
sS'cups'
p2635
I91
sS'miss'
p2636
I63
sS'20:27:22.0,34.03632416,-117.78056195,4033.18,ochoa'
p2637
I91
sS'temples'
p2638
I91
sS'min'
p2639
I90
sS'razor'
p2640
I90
sS'guess'
p2641
I86
sS'"'
p2642
I88
sS'discussed'
p2643
I91
sS'together'
p2644
I86
sS'comfy'
p2645
I89
sS'least'
p2646
I86
sS'182'
p2647
I91
sS'leash'
p2648
I91
sS'manda'
p2649
I91
sS'saint'
p2650
I91
sS'06:58:52.0,34.03633629,-117.78053711,4033.18,miss,91766\n483867268426657793,arnufoofoo,2014-07-01'
p2651
I91
sS'mama'
p2652
I89
sS'dfd'
p2653
I91
sS'essays'
p2654
I90
sS'pants"'
p2655
I91
sS'store'
p2656
I88
sS'witnessing'
p2657
I91
sS'02:55:02.0,34.0317649,-117.7596131,4033.18,cocaine'
p2658
I91
sS'muscles'
p2659
I91
sS'passed'
p2660
I91
sS'relationship'
p2661
I89
sS'relieved'
p2662
I91
sS'grimy'
p2663
I91
sS'park'
p2664
I90
sS'jeanine'
p2665
I91
sS'windows'
p2666
I91
sS'appreciation'
p2667
I91
sS'dentist'
p2668
I91
sS'part'
p2669
I83
sS'jordan'
p2670
I90
sS'parr'
p2671
I91
sS'evaaahhhhh'
p2672
I91
sS'doctors'
p2673
I91
sS'ditching'
p2674
I91
sS'06:36:47.0,34.0363292,-117.78057084,4033.18,today'
p2675
I91
sS'believe'
p2676
I85
sS'stairs'
p2677
I91
sS'grace'
p2678
I90
sS'king'
p2679
I91
sS'kind'
p2680
I90
sS'b'
p2681
I81
sS'jokes'
p2682
I91
sS'x((((('
p2683
I91
sS'gotten'
p2684
I90
sS',91766\n496814635300192256,arnufoofoo,2014-08-06'
p2685
I91
sS'grey'
p2686
I91
sS'pampered'
p2687
I91
sS'supposed'
p2688
I88
sS'insulted'
p2689
I91
sS'charger'
p2690
I91
sS'nuthin'
p2691
I91
sS'umma'
p2692
I91
sS'dane'
p2693
I91
sS'headache'
p2694
I91
sS'aay'
p2695
I91
sS'shirts'
p2696
I91
sS'sunblock'
p2697
I91
sS'swerveeeee'
p2698
I91
sS'outta'
p2699
I89
sS'uncomfortable'
p2700
I91
sS'kart'
p2701
I90
sS'well'
p2702
I76
sS'perfect!,91766\n477976704426590208,arnufoofoo,2014-06-15'
p2703
I91
sS'fights'
p2704
I91
sS'lmaooooo'
p2705
I90
sS'man,91766\n489525071275249665,arnufoofoo,2014-07-16'
p2706
I91
sS'randomly'
p2707
I91
sS'juice'
p2708
I90
sS"izz's"
p2709
I91
sS'selling'
p2710
I91
sS'ahahah'
p2711
I91
sS'good,91766\n493288098147483650,_kingfernie,2014-07-27'
p2712
I91
sS'*eats'
p2713
I91
sS'wipers'
p2714
I91
sS'sell'
p2715
I90
sS'thought'
p2716
I83
sS'nights'
p2717
I91
sS'built'
p2718
I91
sS'dancing'
p2719
I91
sS'lil'
p2720
I82
sS'icecream'
p2721
I91
sS'self'
p2722
I89
sS'now!,91766\n484405050496655360,arnufoofoo,2014-07-02'
p2723
I91
sS'couch'
p2724
I91
sS'also'
p2725
I89
sS'tech'
p2726
I91
sS'henny'
p2727
I91
sS'yeahh'
p2728
I91
sS'lis'
p2729
I91
sS'finding'
p2730
I89
sS'drinks'
p2731
I91
sS',91766\n488553051074990081,arnufoofoo,2014-07-14'
p2732
I91
sS'eff'
p2733
I91
sS'tvguide'
p2734
I91
sS'waitin'
p2735
I91
sS'graduating'
p2736
I91
sS'play'
p2737
I81
sS'exstended'
p2738
I91
sS'tho..,91766\n474611984432787456,arnufoofoo,2014-06-05'
p2739
I91
sS'geno'
p2740
I91
sS',91766\n490355996825370625,arnufoofoo,2014-07-19'
p2741
I91
sS'gummybears'
p2742
I91
sS'waist'
p2743
I91
sS'reach'
p2744
I90
sS'wasssup'
p2745
I90
sS'steam'
p2746
I91
sS'jst'
p2747
I90
sS'most'
p2748
I83
sS'plan'
p2749
I90
sS'71'
p2750
I89
sS'nothing'
p2751
I84
sS'boycotting'
p2752
I91
sS'09:55:24.0,34.02425614,-117.76656412,4033.18,he'
p2753
I91
sS'extremely'
p2754
I90
sS'refrigerator'
p2755
I90
sS'78'
p2756
I91
sS'teemu'
p2757
I91
sS'incase'
p2758
I91
sS'kk'
p2759
I87
sS'serj'
p2760
I91
sS'clear'
p2761
I90
sS'sometimes'
p2762
I88
sS'18:16:33.0,34.02868774,-117.7608453,4033.18,egg,91766\n476418908153331712,stagedrobbery,2014-06-10'
p2763
I91
sS'hyena'
p2764
I91
sS'yolo!,91766\n500335420819791873,chantalodalys,2014-08-15'
p2765
I91
sS'clean'
p2766
I91
sS'pieces-shocking'
p2767
I91
sS'\xe2\x98\x80\xef\xb8\x8f'
p2768
I91
sS'latest'
p2769
I91
sS'shoutout'
p2770
I91
sS',91766\n471887249978556418,arnufoofoo,2014-05-29'
p2771
I91
sS'stones'
p2772
I91
sS'17:22:30.0,34.03644597,-117.78039431,4033.18,about'
p2773
I91
sS'06:58:41.0,34.03633629,-117.78053711,4033.18,i,91766\n483867247207665664,arnufoofoo,2014-07-01'
p2774
I91
sS'ugh'
p2775
I88
sS'tobacoco'
p2776
I91
sS'beefin'
p2777
I91
sS'gold'
p2778
I91
sS'loubear'
p2779
I91
sS'm\xc3\xbcnchen'
p2780
I91
sS'stfu'
p2781
I90
sS'weho'
p2782
I91
sS'stoned'
p2783
I90
sS'miller'
p2784
I91
sS'21:38:46.0,34.03228336,-117.75991101,4033.18,send'
p2785
I91
sS'fine'
p2786
I91
sS'find'
p2787
I84
sS'gangs'
p2788
I91
sS'chamango'
p2789
I91
sS'frontin'
p2790
I91
sS'"hahaahahahahha"'
p2791
I91
sS'bff'
p2792
I90
sS'21:24:47.0,34.03647121,-117.78040985,4033.18,i'
p2793
I91
sS'paranoid'
p2794
I91
sS'nervous'
p2795
I90
sS'less'
p2796
I91
sS'poppin'
p2797
I91
sS'being'
p2798
I77
sS'simplicity'
p2799
I91
sS'hungry,91766\n479004552822136832,arnufoofoo,2014-06-17'
p2800
I91
sS'pretty'
p2801
I79
sS'8'
p2802
I87
sS'moses'
p2803
I91
sS'68'
p2804
I91
sS'his'
p2805
I71
sS'hit'
p2806
I85
sS'freaks'
p2807
I91
sS'beyonc\xc3\xa9'
p2808
I91
sS'ungrateful'
p2809
I91
sS"dm'd"
p2810
I91
sS'express'
p2811
I91
sS'grocery'
p2812
I91
sS'trees'
p2813
I90
sS'famous'
p2814
I91
sS'feels'
p2815
I89
sS'08:00:53.0,34.03637559,-117.7805241,4033.18,today'
p2816
I91
sS'baskin'
p2817
I91
sS'shared'
p2818
I91
sS'during'
p2819
I89
sS'him'
p2820
I71
sS'username,91766\n472960056414056448,emilystingray,2014-06-01'
p2821
I91
sS'catches'
p2822
I91
sS'sleeve'
p2823
I91
sS'rft'
p2824
I91
sS'freaky'
p2825
I91
sS'cry'
p2826
I85
sS'08:17:27.0,34.02942132,-117.75666264,4033.18,lmaooooo'
p2827
I91
sS'16:13:34.0,34.04186216,-117.76911909,4033.18,shhluuuurrrrppppp'
p2828
I91
sS'vermaelen'
p2829
I91
sS'mistakes'
p2830
I91
sS'laughing'
p2831
I91
sS'father>>'
p2832
I91
sS'double'
p2833
I91
sS'cease'
p2834
I91
sS'river'
p2835
I91
sS',91766\n420760021236858880,drizzypink99,2014-01-08'
p2836
I91
sS'wrote'
p2837
I91
sS'californian'
p2838
I91
sS'insane'
p2839
I91
sS'bars'
p2840
I90
sS'set'
p2841
I90
sS'art'
p2842
I91
sS'spanky'
p2843
I91
sS'shootin'
p2844
I91
sS'throwing'
p2845
I90
sS'uses'
p2846
I91
sS'sex'
p2847
I89
sS'18:12:23.0,34.03634432,-117.7805755,4033.18,dutch'
p2848
I91
sS'tip'
p2849
I91
sS'see'
p2850
I55
sS'defense'
p2851
I90
sS'dumb'
p2852
I88
sS'are'
p2853
I29
sS'08:58:34.0,34.0313891,-117.7591989,4033.18,had'
p2854
I91
sS"sadie's"
p2855
I91
sS'19:33:09.0,34.02957121,-117.7579692,4033.18,when'
p2856
I91
sS'close'
p2857
I87
sS'23:32:05.0,34.03632972,-117.78053019,4033.18,wce'
p2858
I91
sS'retweet'
p2859
I88
sS'locals'
p2860
I91
sS'pancakes\xe2\x80\xa6'
p2861
I91
sS"dm's"
p2862
I91
sS'crushing'
p2863
I91
sS'don\xe2\x80\x99t'
p2864
I90
sS'mine'
p2865
I91
sS'pictures'
p2866
I84
sS'wow'
p2867
I87
sS'currently'
p2868
I90
sS'please'
p2869
I84
sS'slapped'
p2870
I91
sS'work,91766\n467766345309097984,stagedrobbery,2014-05-17'
p2871
I91
sS'fans'
p2872
I89
sS'won'
p2873
I90
sS'various'
p2874
I91
sS'happiness'
p2875
I91
sS'wiiilcoooooox"'
p2876
I91
sS'probably'
p2877
I85
sS'rite'
p2878
I90
sS'nope'
p2879
I91
sS'funeral'
p2880
I91
sS',91766\n484599337104576512,arnufoofoo,2014-07-03'
p2881
I91
sS'steelers'
p2882
I91
sS'available'
p2883
I91
sS'solo'
p2884
I90
sS'pushing'
p2885
I91
sS'sh**'
p2886
I91
sS'missing'
p2887
I91
sS'fun!,91766\n497928798071824384,arnufoofoo,2014-08-09'
p2888
I91
sS'sold'
p2889
I91
sS',91766\n401491121848594432,hahestead,2013-11-15'
p2890
I91
sS'outfit'
p2891
I90
sS'coffee'
p2892
I91
sS'french'
p2893
I91
sS'stereos'
p2894
I91
sS'jackies'
p2895
I91
sS'pissed'
p2896
I89
sS'girl,91766\n487863851350642689,arnufoofoo,2014-07-12'
p2897
I91
sS'both'
p2898
I85
sS'c'
p2899
I89
sS'f'
p2900
I91
sS'last'
p2901
I70
sS'reverse'
p2902
I91
sS'license'
p2903
I89
sS'secrets'
p2904
I90
sS'ousted'
p2905
I91
sS"wouldn't"
p2906
I83
sS'barely'
p2907
I89
sS',91766\n475679413233664001,arnufoofoo,2014-06-08'
p2908
I91
sS'thoo'
p2909
I91
sS"19:45:57.0,34.0271879,-117.75706412,4033.18,db's"
p2910
I91
sS'sterling'
p2911
I91
sS'alot'
p2912
I91
sS'retarded'
p2913
I91
sS"19:41:26.0,34.0364339,-117.78045977,4033.18,let's"
p2914
I91
sS'whole'
p2915
I81
sS'load'
p2916
I90
sS'liked'
p2917
I88
sS'\xe2\x98\xba'
p2918
I91
sS'drunk'
p2919
I87
sS'reasons'
p2920
I91
sS'sweet'
p2921
I85
sS'you...did'
p2922
I91
sS'whatever'
p2923
I87
sS'besters'
p2924
I91
sS'header'
p2925
I88
sS'happy:)'
p2926
I91
sS'uoeno'
p2927
I91
sS'likes'
p2928
I91
sS'sexy'
p2929
I89
sS'expensive'
p2930
I88
sS'duh'
p2931
I89
sS"luz's"
p2932
I91
sS'naps'
p2933
I89
sS'raise'
p2934
I91
sS'hillsong'
p2935
I91
sS'chick'
p2936
I91
sS'equivalent'
p2937
I91
sS'homies'
p2938
I91
sS'blink'
p2939
I91
sS'again,91766\n489501145094578176,arnufoofoo,2014-07-16'
p2940
I91
sS'earthquake'
p2941
I91
sS'rivals'
p2942
I91
sS'dropping'
p2943
I90
sS'damn'
p2944
I77
sS',91766\n483867340526731265,arnufoofoo,2014-07-01'
p2945
I91
sS'relajate'
p2946
I91
sS'dude\xe2\x80\x9d'
p2947
I91
sS',91766\n482588627608674304,arnufoofoo,2014-06-27'
p2948
I91
sS'steph'
p2949
I91
sS'genetically'
p2950
I91
sS'empty'
p2951
I90
sS'treatment'
p2952
I91
sS'slips'
p2953
I91
sS'relaaaaaxxxx'
p2954
I91
sS'\xe2\x9d\xa4\xef\xb8\x8f,91766\n478455164513173504,arnufoofoo,2014-06-16'
p2955
I91
sS'champion'
p2956
I91
sS'gay'
p2957
I90
sS'boy'
p2958
I85
sS'fire'
p2959
I90
sS"what's"
p2960
I79
sS'gas'
p2961
I84
sS'today,91766\n482042130882236417,arnufoofoo,2014-06-26'
p2962
I91
sS'07:51:04.0,34.0363966,-117.78053739,4033.18,but'
p2963
I91
sS'else'
p2964
I88
sS'cruisers'
p2965
I91
sS'races'
p2966
I91
sS'understand'
p2967
I88
sS'ohhh'
p2968
I91
sS'0-4\xe2\x80\x9d'
p2969
I91
sS'wedding'
p2970
I90
sS'06:58:58.0,34.03633629,-117.78053711,4033.18,her,91766\n483867313691967489,arnufoofoo,2014-07-01'
p2971
I91
sS'plants'
p2972
I91
sS'stolen'
p2973
I90
sS'truuuuu'
p2974
I91
sS'look'
p2975
I82
sS'raw'
p2976
I91
sS'frozen'
p2977
I89
sS'straight'
p2978
I90
sS'bill'
p2979
I91
sS'anti-smoking'
p2980
I91
sS'ahhha'
p2981
I91
sS'tre'
p2982
I91
sS'while'
p2983
I87
sS'fue'
p2984
I91
sS'match'
p2985
I91
sS'tweaker'
p2986
I91
sS'fun'
p2987
I72
sS'kissing'
p2988
I91
sS'eddy'
p2989
I91
sS'guide'
p2990
I91
sS'\xe2\x98\xba\xef\xb8\x8f\xe2\x98\xba\xef\xb8\x8f\xe2\x98\xba\xef\xb8\x8f\xe2\x80\x9d,91766\n492186847150231553,arnufoofoo,2014-07-24'
p2991
I91
sS'theres'
p2992
I90
sS'smacked'
p2993
I91
sS'hoping'
p2994
I91
sS'portugal'
p2995
I91
sS'moth'
p2996
I90
sS'shoukdve'
p2997
I91
sS'danes'
p2998
I91
sS'04:37:19.0,34.024104,-117.7538968,4033.18,mir'
p2999
I91
sS'rio'
p3000
I88
sS'itself'
p3001
I91
sS'nightstand'
p3002
I91
sS'owes'
p3003
I90
sS'skype'
p3004
I91
sS'ready'
p3005
I89
sS'chrysler))'
p3006
I91
sS'mskaybae'
p3007
I91
sS'south'
p3008
I91
sS'merrier'
p3009
I91
sS'funny'
p3010
I78
sS'regulate'
p3011
I91
sS'08:59:56.0,34.02682378,-117.76133428,4033.18,so'
p3012
I91
sS'shirt'
p3013
I91
sS'anymore'
p3014
I88
sS'grant'
p3015
I91
sS'rosy'
p3016
I91
sS'20:36:57.0,34.03641269,-117.78044636,4033.18,*van,91766\n477550128627073026,arnufoofoo,2014-06-13'
p3017
I91
sS'ayeeeeee'
p3018
I91
sS'grand'
p3019
I85
sS'9'
p3020
I90
sS'it\xe2\x80\x9d'
p3021
I91
sS'eww'
p3022
I91
sS'used'
p3023
I91
sS'anyone*'
p3024
I91
sS'kemp'
p3025
I91
sS'yesterday'
p3026
I87
sS'tonight,91766\n478444130939314176,arnufoofoo,2014-06-16'
p3027
I91
sS'moment'
p3028
I88
sS'walmart'
p3029
I89
sS'moving'
p3030
I90
sS'user'
p3031
I91
sS'possible.\xe2\x80\x9d'
p3032
I91
sS"t'aime"
p3033
I91
sS"might've"
p3034
I91
sS'ab'
p3035
I91
sS'fairplex'
p3036
I91
sS'plate'
p3037
I91
sS'early'
p3038
I84
sS'noodle'
p3039
I90
sS'picky'
p3040
I91
sS'dicking'
p3041
I91
sS'older'
p3042
I90
sS'anxious'
p3043
I91
sS'spent'
p3044
I90
sS'grind'
p3045
I90
sS'victor,91766\n482048846558531584,arnufoofoo,2014-06-26'
p3046
I91
sS'person'
p3047
I86
sS'kelly'
p3048
I91
sS'spend'
p3049
I90
sS'beer-my'
p3050
I91
sS'i\xe2\x80\x99m'
p3051
I89
sS'one-year'
p3052
I91
sS'simp'
p3053
I91
sS'\xe2\x9d\xa4'
p3054
I85
sS'decisions,91766\n474708654604562433,arnufoofoo,2014-06-06'
p3055
I91
sS'boutta'
p3056
I91
sS'12:17:28.0,34.028,-117.759,4033.18,up'
p3057
I91
sS'asdfghjkl'
p3058
I91
sS'questions'
p3059
I89
sS'using'
p3060
I91
sS'bouta'
p3061
I91
sS'prince'
p3062
I91
sS'alignment'
p3063
I91
sS'letting'
p3064
I89
sS'tables'
p3065
I90
sS'*middlefingeremoji*'
p3066
I91
sS'cus'
p3067
I91
sS'$'
p3068
I91
sS'cup'
p3069
I90
sS"bella's"
p3070
I91
sS'"me'
p3071
I91
sS'cuz'
p3072
I86
sS'signals'
p3073
I91
sS'parents'
p3074
I88
sS'crying'
p3075
I85
sS'courtney'
p3076
I90
sS'snap'
p3077
I88
sS'excited'
p3078
I83
sS'hates'
p3079
I91
sS'bio'
p3080
I90
sS'customers'
p3081
I91
sS'march'
p3082
I91
sS'frustrate'
p3083
I91
sS'big'
p3084
I81
sS'couple'
p3085
I90
sS'tits'
p3086
I91
sS'non-believer'
p3087
I91
sS'shitty'
p3088
I91
sS'game'
p3089
I66
sS',91766\n490189499276599296,arnufoofoo,2014-07-18'
p3090
I91
sS'bit'
p3091
I87
sS'everythin'
p3092
I91
sS'donuts'
p3093
I91
sS'projects'
p3094
I91
sS'flannel'
p3095
I91
sS'loooook'
p3096
I91
sS'rotate'
p3097
I91
sS'success'
p3098
I90
sS'flappy'
p3099
I87
sS'mans'
p3100
I91
sS'da'
p3101
I91
sS'22:59:11.0,34.0245194,-117.7709793,4033.18,my'
p3102
I91
sS'strife'
p3103
I91
sS'shapes'
p3104
I91
sS'miami'
p3105
I91
sS'23:25:17.0,34.04094737,-117.76836572,4033.18,hold'
p3106
I91
sS'yorker'
p3107
I91
sS'darrius'
p3108
I91
sS"'til"
p3109
I91
sS'roscoes'
p3110
I91
sS'!\xe2\x9d\xa4'
p3111
I91
sS'foolish'
p3112
I91
sS'walrus'
p3113
I91
sS'ho'
p3114
I91
sS'ily\xe2\x9d\xa4'
p3115
I91
sS'circles'
p3116
I91
sS"b'"
p3117
I91
sS'33rd'
p3118
I91
sS'often'
p3119
I91
sS'fucking'
p3120
I58
sS'spring'
p3121
I89
sS'fathers'
p3122
I91
sS'1st'
p3123
I91
sS'some'
p3124
I65
sS'back'
p3125
I59
sS'chamaca'
p3126
I91
sS'lips'
p3127
I91
sS'ayyyy,91766\n483363813966610432,stagedrobbery,2014-06-29'
p3128
I91
sS'fabric'
p3129
I91
sS'plates...lol'
p3130
I91
sS'curious'
p3131
I91
sS'nicaragua'
p3132
I90
sS'ourselves'
p3133
I91
sS'spirithoods'
p3134
I91
sS'delivered'
p3135
I90
sS'overthink'
p3136
I91
sS'redo'
p3137
I91
sS'absolutely'
p3138
I91
sS'js'
p3139
I91
sS',91766\n456768402250420224,sbsanbernardino,2014-04-17'
p3140
I91
sS'prom'
p3141
I90
sS'65mph'
p3142
I91
sS'yoooo'
p3143
I91
sS'dating'
p3144
I91
sS'rappers'
p3145
I91
sS't'
p3146
I90
sS'be'
p3147
I28
sS'bf'
p3148
I91
sS'eating'
p3149
I86
sS'hallelujah'
p3150
I91
sS'bb'
p3151
I85
sS'bc'
p3152
I84
sS'300'
p3153
I91
sS'word'
p3154
I86
sS'lose'
p3155
I91
sS'laker'
p3156
I91
sS'rug'
p3157
I90
sS's/o'
p3158
I91
sS'heyward-bey'
p3159
I91
sS'jazzy'
p3160
I91
sS'step'
p3161
I90
sS'nowhere'
p3162
I91
sS'izzypoo,91766\n477553575673856000,arnufoofoo,2014-06-13'
p3163
I91
sS'crap'
p3164
I90
sS'raspberry'
p3165
I91
sS'intense'
p3166
I90
sS'tea?,91766\n372600062586544128,l_alderete,2013-08-28'
p3167
I91
sS'faith'
p3168
I91
sS'gnome'
p3169
I90
sS'anything'
p3170
I87
sS'mol\xc3\xa9'
p3171
I91
sS'"take'
p3172
I91
sS"mcdonald's"
p3173
I90
sS'16:40:24.0,34.03635846,-117.78063861,4033.18,work'
p3174
I91
sS'graduation'
p3175
I89
sS'drama'
p3176
I90
sS'\xe2\x80\x93pooh'
p3177
I91
sS'beans'
p3178
I91
sS'idk'
p3179
I81
sS'bish'
p3180
I91
sS'positive'
p3181
I91
sS'germany'
p3182
I90
sS'classics'
p3183
I91
sS'wanna'
p3184
I72
sS'idc'
p3185
I88
sS'block'
p3186
I91
sS'(58'
p3187
I91
sS'seeing'
p3188
I87
sS'david'
p3189
I90
sS"'cause"
p3190
I90
sS'se\xc3\xb1ora'
p3191
I91
sS'auntie'
p3192
I90
sS'visit'
p3193
I88
sS'into'
p3194
I85
sS'(909)'
p3195
I91
sS',91766\n491734744275505152,maaaaannnard,2014-07-23'
p3196
I91
sS'17:36:49.0,34.03663976,-117.78060403,4033.18,my'
p3197
I91
sS'05:43:27.0,34.03638565,-117.78055596,4033.18,two'
p3198
I91
sS'dame'
p3199
I91
sS'momma'
p3200
I90
sS'nigga'
p3201
I69
sS'smelly'
p3202
I91
sS'steven'
p3203
I90
sS'with\\of'
p3204
I91
sS'lesson'
p3205
I91
sS'lebron'
p3206
I91
sS'unfair'
p3207
I91
sS'bruh,91766\n506700887729795072,arnufoofoo,2014-09-02'
p3208
I91
sS'rows'
p3209
I91
sS'story'
p3210
I88
sS'arcade'
p3211
I91
sS'zig'
p3212
I91
sS'spending'
p3213
I87
sS'treated'
p3214
I91
sS'dizzle'
p3215
I91
sS'tiiiiiiime'
p3216
I91
sS'question'
p3217
I90
sS'ca)'
p3218
I20
sS'fast'
p3219
I84
sS'hoodie'
p3220
I91
sS'vivir'
p3221
I91
sS"we're"
p3222
I90
sS'dodgers'
p3223
I91
sS'bruh'
p3224
I87
sS'forward'
p3225
I88
sS'bored'
p3226
I90
sS'lexi'
p3227
I90
sS'scared'
p3228
I90
sS',91766\n492593041429913600,arnufoofoo,2014-07-25'
p3229
I91
sS'tomorrow..,91766\n476884931008675840,arnufoofoo,2014-06-12'
p3230
I91
sS'zealand'
p3231
I91
sS'invite'
p3232
I89
sS'hawaiian'
p3233
I90
sS"rp's"
p3234
I91
sS'poster'
p3235
I91
sS'raisins'
p3236
I90
sS'boys'
p3237
I88
sS'properly'
p3238
I91
sS'kasey'
p3239
I91
sS'hopes'
p3240
I91
sS'line'
p3241
I88
sS'cran'
p3242
I91
sS'posted'
p3243
I90
sS'tumblr'
p3244
I91
sS'20:30:40.0,34.03653318,-117.78032022,4033.18,i'
p3245
I91
sS',91766\n482066115074338816,arnufoofoo,2014-06-26'
p3246
I91
sS'consist'
p3247
I91
sS'mrs'
p3248
I91
sS'angels'
p3249
I91
sS'naji'
p3250
I91
sS'fries'
p3251
I90
sS'up'
p3252
I37
sS'us'
p3253
I73
sS'ur'
p3254
I83
sS'clips'
p3255
I91
sS'maturity'
p3256
I91
sS'beaties'
p3257
I91
sS'amounts'
p3258
I91
sS'uh'
p3259
I90
sS'mature'
p3260
I91
sS'faded'
p3261
I91
sS'unexpected'
p3262
I91
sS'highlight'
p3263
I91
sS'z'
p3264
I91
sS'groove'
p3265
I90
sS'called'
p3266
I88
sS'yelled'
p3267
I91
sS'bell'
p3268
I91
sS'55mph'
p3269
I91
sS'butthead'
p3270
I91
sS'fckin'
p3271
I91
sS'flow'
p3272
I91
sS'......,91766\n470125217327489024,queenjocelynnn,2014-05-24'
p3273
I91
sS'chai'
p3274
I91
sS',91766\n493962218971471874,arnufoofoo,2014-07-29'
p3275
I91
sS'bootcamp'
p3276
I91
sS'single'
p3277
I89
sS'warning'
p3278
I91
sS'chat'
p3279
I90
sS'rally'
p3280
I91
sS'smh...that'
p3281
I91
sS'magna'
p3282
I91
sS'hmmmmm'
p3283
I91
sS'fun,91766\n500552621925883904,arnufoofoo,2014-08-16'
p3284
I91
sS'[telegraph]\xe2\x80\x9d'
p3285
I91
sS'divine'
p3286
I91
sS'lemon'
p3287
I91
sS'saaaarrra'
p3288
I91
sS'air'
p3289
I91
sS'nah'
p3290
I88
sS'peace'
p3291
I89
sS'kills'
p3292
I91
sS'nick'
p3293
I89
sS'nap'
p3294
I85
sS'naw'
p3295
I90
sS'nat'
p3296
I91
sS'wtf.\xe2\x80\x9d,91766\n515063138409250816,xquietstorm08x,2014-09-25'
p3297
I91
sS'singed'
p3298
I91
sS'nice'
p3299
I80
sS'smiles'
p3300
I91
sS'mustard'
p3301
I91
sS'awhhhh'
p3302
I91
sS'smitten'
p3303
I91
sS'kansas'
p3304
I91
sS'problems'
p3305
I91
sS'lolhahah'
p3306
I91
sS'helping'
p3307
I90
sS'cumbias'
p3308
I91
sS'waaah'
p3309
I91
sS'oedipus'
p3310
I91
sS'formal'
p3311
I91
sS'clue'
p3312
I91
sS',91766\n488248164336406528,arnufoofoo,2014-07-13'
p3313
I91
sS'meals'
p3314
I91
sS'ago'
p3315
I89
sS'uhhhhh'
p3316
I91
sS'lane'
p3317
I91
sS'land'
p3318
I90
sS'e'
p3319
I89
sS'lana'
p3320
I91
sS'18:23:44.0,34.03638537,-117.7803814,4033.18,my'
p3321
I91
sS'zags'
p3322
I91
sS'outing'
p3323
I91
sS'walked'
p3324
I90
sS"pages...that's"
p3325
I91
sS'lowkey'
p3326
I91
sS'sebastian"'
p3327
I91
sS'17:34:05.0,34.03636607,-117.7805811,4033.18,ze'
p3328
I91
sS'pues'
p3329
I91
sS'fresh'
p3330
I90
sS'bandaid'
p3331
I91
sS'berries'
p3332
I91
sS'one,91766\n492351986344288256,arnufoofoo,2014-07-24'
p3333
I91
sS'having'
p3334
I86
sS'once'
p3335
I88
sS'essay'
p3336
I87
sS'edc'
p3337
I88
sS'\xe2\x98\xba\xef\xb8\x8f\xe2\x98\xba\xef\xb8\x8f\xe2\x98\xba\xef\xb8\x8f'
p3338
I91
sS'22:33:07.0,34.03631921,-117.78054159,4033.18,thank'
p3339
I91
sS'buddy!,91766\n506138382649405440,arnufoofoo,2014-08-31'
p3340
I91
sS'edd'
p3341
I91
sS'squats'
p3342
I91
sS'laziness'
p3343
I91
sS'starbs'
p3344
I91
sS'thomas'
p3345
I91
sS'totem'
p3346
I91
sS'noobs'
p3347
I91
sS'\xe2\x9d\xa4\xef\xb8\x8f\xe2\x9d\xa4\xef\xb8\x8f'
p3348
I91
sS'groceries'
p3349
I91
sS'gang'
p3350
I91
sS'ga'
p3351
I91
sS'go'
p3352
I36
sS'gossip'
p3353
I89
sS'hooka'
p3354
I91
sS'chillin'
p3355
I91
sS'issues'
p3356
I91
sS'izzypoo'
p3357
I90
sS'sd,91766\n503022200681947136,alinaali99ms007,2014-08-23'
p3358
I91
sS'.rico\xe2\x80\xa6'
p3359
I91
sS'food\xe2\x80\x9d'
p3360
I91
sS'young'
p3361
I89
sS'mercedes'
p3362
I91
sS'breakout'
p3363
I91
sS'bruhh'
p3364
I91
sS'hits!,91766\n508669172486651904,arnufoofoo,2014-09-07'
p3365
I91
sS'hints'
p3366
I91
sS'friendly'
p3367
I91
sS'sent'
p3368
I89
sS',91766\n485307051149500419,arnufoofoo,2014-07-05'
p3369
I91
sS'11:30'
p3370
I90
sS'ty'
p3371
I91
sS'random'
p3372
I91
sS'dreaming'
p3373
I91
sS'outside'
p3374
I90
sS'already\xe2\x80\x9d'
p3375
I91
sS'gina'
p3376
I22
sS'thoooo'
p3377
I91
sS'plugs'
p3378
I91
sS'facebook'
p3379
I91
sS'hummels!,91766\n503062187435257856,arnufoofoo,2014-08-23'
p3380
I91
sS"03:26:48.0,34.03633804,-117.78057189,4033.18,where's"
p3381
I91
sS'telling'
p3382
I91
sS'drinking'
p3383
I89
sS'wandolowski'
p3384
I91
sS'\xe2\x80\x9cmanchester'
p3385
I91
sS'entire'
p3386
I91
sS'magic'
p3387
I91
sS'meant'
p3388
I91
sS'positions'
p3389
I91
sS'joel'
p3390
I91
sS'gettin'
p3391
I88
sS'michael'
p3392
I90
sS'motherland,91766\n489998368567869443,arnufoofoo,2014-07-18'
p3393
I91
sS'leader'
p3394
I91
sS'try'
p3395
I87
sS'tunnel'
p3396
I91
sS'knuck'
p3397
I90
sS'congrats'
p3398
I89
sS'contract.\xe2\x80\x9d'
p3399
I91
sS'gamefaqs'
p3400
I91
sS'havent'
p3401
I91
sS'17:32:35.0,34.03656046,-117.78044963,4033.18,summertime'
p3402
I91
sS'challenge'
p3403
I91
sS'concluded'
p3404
I91
sS'booty'
p3405
I91
sS'organized'
p3406
I91
sS'2-6pm'
p3407
I91
sS'01:42:26.0,34.03841386,-117.77658891,4033.18,calaaaaaaaaaaaaaafornia,91766\n501143586801725440,vickigurol,2014-08-17'
p3408
I91
sS'uncomfortably'
p3409
I91
sS'yourself'
p3410
I91
sS'boots'
p3411
I91
sS'waking'
p3412
I91
sS'hilarious!,91766\n500550291960627200,arnufoofoo,2014-08-16'
p3413
I91
sS'you"how'
p3414
I91
sS'spider.18'
p3415
I91
sS'video'
p3416
I87
sS'traveling'
p3417
I91
sS'picked'
p3418
I91
sS'ummm'
p3419
I91
sS'dynamics'
p3420
I91
sS'acid'
p3421
I91
sS'odd'
p3422
I91
sS'23:57:06.0,34.03635172,-117.7806076,4033.18,i'
p3423
I91
sS'purge'
p3424
I91
sS'plays'
p3425
I89
sS'power'
p3426
I90
sS'troy'
p3427
I91
sS'soup'
p3428
I90
sS'giving'
p3429
I90
sS'60fwy'
p3430
I91
sS'foods)'
p3431
I89
sS'luck!\xe2\x9d\xa4'
p3432
I91
sS'\xe2\x80\xa2\xe2\x98\x80\xef\xb8\x8f'
p3433
I91
sS"man's"
p3434
I91
sS'cell'
p3435
I91
sS'seconds'
p3436
I91
sS'waiting'
p3437
I85
sS'gn'
p3438
I91
sS'one?kathy-idk'
p3439
I91
sS'bird'
p3440
I87
sS'exercise'
p3441
I91
sS'body'
p3442
I91
sS'lee'
p3443
I91
sS'degree'
p3444
I91
sS'leg'
p3445
I89
sS'kangaroo'
p3446
I91
sS'cal'
p3447
I91
sS'punch'
p3448
I91
sS'you.,91766\n500297468894908417,hannacrawley,2014-08-15'
p3449
I91
sS'eminem'
p3450
I91
sS'dressed'
p3451
I91
sS'mkay'
p3452
I91
sS'let'
p3453
I77
sS'others'
p3454
I90
sS'sing'
p3455
I89
sS'loser'
p3456
I91
sS'1000step'
p3457
I91
sS'great'
p3458
I71
sS'metro'
p3459
I91
sS'credits'
p3460
I91
sS'receive'
p3461
I91
sS'bites'
p3462
I91
sS'30'
p3463
I89
sS'calvin'
p3464
I91
sS'leaving'
p3465
I89
sS'ayyyy'
p3466
I91
sS'eatin'
p3467
I91
sS"'for"
p3468
I91
sS'shallowness.,91766\n447296264678305792,jason_909,2014-03-22'
p3469
I91
sS'popcorn'
p3470
I91
sS',91766\n493969137316544512,arnufoofoo,2014-07-29'
p3471
I91
sS'makes'
p3472
I68
sS'fruitvale'
p3473
I91
sS'thats'
p3474
I90
sS',91766\n490028200974487552,arnufoofoo,2014-07-18'
p3475
I91
sS'named'
p3476
I91
sS'daaaaamn'
p3477
I91
sS'apple'
p3478
I89
sS'well!,91766\n492187814541291520,arnufoofoo,2014-07-24'
p3479
I91
sS'win'
p3480
I88
sS'teacup'
p3481
I91
sS'neice'
p3482
I89
sS'private'
p3483
I91
sS'serna'
p3484
I91
sS'devyn'
p3485
I91
sS'wit'
p3486
I88
sS'names'
p3487
I91
sS'duck'
p3488
I91
sS'como'
p3489
I91
sS'foreel'
p3490
I90
sS'singing'
p3491
I89
sS'use'
p3492
I82
sS'hahahahaha'
p3493
I90
sS'from'
p3494
I60
sS'stream'
p3495
I91
sS'usa'
p3496
I87
sS'&'
p3497
I55
sS'next'
p3498
I74
sS'few'
p3499
I91
sS'doubt'
p3500
I90
sS'scariest'
p3501
I91
sS'chu'
p3502
I90
sS'crab'
p3503
I91
sS'december'
p3504
I91
sS'heart,91766\n498710812727324673,kaytaayee,2014-08-11'
p3505
I91
sS'camero'
p3506
I91
sS'belgian'
p3507
I91
sS'possession'
p3508
I91
sS'popped'
p3509
I91
sS'clever'
p3510
I91
sS'babe'
p3511
I73
sS'rich'
p3512
I91
sS'upcoming'
p3513
I91
sS'started'
p3514
I85
sS'novacane'
p3515
I91
sS'about'
p3516
I47
sS'confused'
p3517
I90
sS'trail'
p3518
I91
sS'opposing'
p3519
I91
sS'baby'
p3520
I69
sS'circle'
p3521
I91
sS'women'
p3522
I87
sS'annoy'
p3523
I90
sS'07:54:25.0,34.02685808,-117.76099574,4033.18,fucking'
p3524
I91
sS'fooling'
p3525
I91
sS'ramen)'
p3526
I91
sS'midterm'
p3527
I90
sS'this'
p3528
I18
sS'me,91766\n497269090927378432,arnufoofoo,2014-08-07'
p3529
I91
sS'ride'
p3530
I88
sS'package'
p3531
I91
sS'21:39:36.0,34.03828584,-117.76537478,4033.18,in'
p3532
I91
sS'creepy'
p3533
I91
sS'anywhere'
p3534
I91
sS',91766\n497517337126248449,_ecg22,2014-08-07'
p3535
I91
sS'praise'
p3536
I91
sS'freedom'
p3537
I91
sS'*smile'
p3538
I91
sS'fulfill'
p3539
I90
sS'closing'
p3540
I91
sS'didnt'
p3541
I90
sS'not..and'
p3542
I91
sS'point'
p3543
I87
sS'loca'
p3544
I91
sS'tap'
p3545
I90
sS'06:01:38.0,34.02533609,-117.75458484,4033.18,if'
p3546
I91
sS'thirsty'
p3547
I91
sS'snacks'
p3548
I91
sS'favorite'
p3549
I81
sS',91766\n471886405640007680,arnufoofoo,2014-05-29'
p3550
I91
sS'tax'
p3551
I91
sS'high'
p3552
I86
sS'carrot'
p3553
I90
sS'something'
p3554
I82
sS'slip'
p3555
I90
sS'bones'
p3556
I91
sS'arnie'
p3557
I89
sS'sharkboy'
p3558
I91
sS'protip'
p3559
I91
sS'sis'
p3560
I91
sS'mix'
p3561
I91
sS'(bill'
p3562
I91
sS'united'
p3563
I90
sS'surrounded'
p3564
I91
sS'sit'
p3565
I87
sS'vibe'
p3566
I91
sS'05:30:11.0,34.0264875,-117.75284179,4033.18,,91766\n452465900117975040,vinnysulo,2014-04-05'
p3567
I91
sS'six'
p3568
I91
sS'struggles'
p3569
I91
sS'17:00:47.0,34.03634659,-117.78055624,4033.18,chowder'
p3570
I91
sS'06:32:55.0,34.03635226,-117.78058787,4033.18,so'
p3571
I91
sS"jas's"
p3572
I91
sS'instead'
p3573
I88
sS'comedy'
p3574
I91
sS'sin'
p3575
I91
sS'pomona'
p3576
I81
sS'sag"'
p3577
I91
sS'y'
p3578
I91
sS'attend'
p3579
I91
sS'stop'
p3580
I80
sS'waters'
p3581
I91
sS'act'
p3582
I87
sS'yasss'
p3583
I91
sS'collection'
p3584
I91
sS'spoiling'
p3585
I91
sS'fart'
p3586
I91
sS'pigs'
p3587
I91
sS'wrist'
p3588
I91
sS'men'
p3589
I91
sS'taco'
p3590
I90
sS'hahahaha'
p3591
I90
sS'ties'
p3592
I91
sS'coast'
p3593
I91
sS'cuddling'
p3594
I91
sS'realized'
p3595
I90
sS'05:57:43.0,34.02565238,-117.75296566,4033.18,the'
p3596
I91
sS'04:15:01.0,34.036452,-117.78049473,4033.18,the'
p3597
I91
sS'light'
p3598
I90
sS'05:27:01.0,34.03642426,-117.78053765,4033.18,i'
p3599
I91
sS'knucck'
p3600
I91
sS'bompton'
p3601
I91
sS'scoop'
p3602
I91
sS'hw...fucking'
p3603
I91
sS'honestly'
p3604
I81
sS"18:41:49.0,34.03638269,-117.78051735,4033.18,let's"
p3605
I91
sS'allow'
p3606
I90
sS'aff'
p3607
I91
sS'mustache'
p3608
I90
sS'ha'
p3609
I91
sS'flans'
p3610
I91
sS'thigh'
p3611
I91
sS'fattest'
p3612
I91
sS'ambition'
p3613
I91
sS'move'
p3614
I88
sS'joanny'
p3615
I91
sS'knowledgable'
p3616
I91
sS"won't"
p3617
I89
sS'looks'
p3618
I82
sS"george's"
p3619
I91
sS'damnit'
p3620
I91
sS'horny'
p3621
I90
sS'cleeean'
p3622
I91
sS'bunch'
p3623
I91
sS'perfect'
p3624
I85
sS'write'
p3625
I90
sS'awesome,91766\n471886144108392449,arnufoofoo,2014-05-29'
p3626
I91
sS'le'
p3627
I90
sS'lb'
p3628
I91
sS'7\xe2\x83\xa3'
p3629
I91
sS'la'
p3630
I87
sS',91766\n479724756669718528,arnufoofoo,2014-06-19'
p3631
I91
sS'emails'
p3632
I91
sS'mental'
p3633
I91
sS'what\xe2\x80\xa6'
p3634
I91
sS'choose'
p3635
I91
sS'johnny'
p3636
I91
sS'"bad'
p3637
I91
sS'2014'
p3638
I90
sS'it,91766\n484060587110825984,arnufoofoo,2014-07-01'
p3639
I91
sS'bye'
p3640
I87
sS'dad'
p3641
I75
sS'ass,91766\n503792371805323265,arnufoofoo,2014-08-25'
p3642
I91
sS'daa'
p3643
I91
sS'dab'
p3644
I90
sS'thans'
p3645
I91
sS'nada'
p3646
I91
sS'practice'
p3647
I90
sS'camino'
p3648
I90
sS'flew'
p3649
I91
sS'dat'
p3650
I90
sS'grossed'
p3651
I91
sS'cutting'
p3652
I90
sS'socks'
p3653
I91
sS'legendary'
p3654
I91
sS'hands'
p3655
I89
sS'front'
p3656
I89
sS'insisting'
p3657
I91
sS'day'
p3658
I33
sS'stiffmy'
p3659
I91
sS'toes'
p3660
I91
sS'orange'
p3661
I91
sS'21:33:24.0,34.03659299,-117.78034142,4033.18,yesssss'
p3662
I91
sS',91766\n488237099426918404,summerswagner,2014-07-13'
p3663
I91
sS'shield'
p3664
I91
sS'estuviera'
p3665
I91
sS'slide'
p3666
I91
sS'doesnt'
p3667
I90
sS'truth'
p3668
I89
sS"kathy-i'm"
p3669
I91
sS"tommy's"
p3670
I91
sS'activate'
p3671
I91
sS'bueno'
p3672
I91
sS'?\xc2\xbf'
p3673
I91
sS'doing'
p3674
I84
sS'adventure'
p3675
I90
sS'strip'
p3676
I91
sS'doers'
p3677
I91
sS'product'
p3678
I91
sS'poolball'
p3679
I91
sS'activia'
p3680
I91
sS'butt\xe2\x80\xa6'
p3681
I91
sS'siana'
p3682
I91
sS'b*tch'
p3683
I91
sS'our'
p3684
I83
sS'meth'
p3685
I90
sS'talkin'
p3686
I91
sS'special'
p3687
I88
sS'out'
p3688
I33
sS'tou'
p3689
I91
sS'why\xe2\x80\x9d'
p3690
I91
sS'defend'
p3691
I91
sS'13(maybe'
p3692
I91
sS'rn,91766\n510238955011182592,k_urias,2014-09-12'
p3693
I91
sS'hahha\xe2\x80\x9d'
p3694
I91
sS'tests"'
p3695
I91
sS'08:24:40.0,34.02684919,-117.76084151,4033.18,my'
p3696
I91
sS'huuuuuuungry'
p3697
I91
sS'gift,91766\n472855437302194176,arnufoofoo,2014-05-31'
p3698
I91
sS"20:36:37.0,34.03635291,-117.78060373,4033.18,i'm"
p3699
I91
sS'hott'
p3700
I91
sS'\xe2\x9d\xa4\xef\xb8\x8f,91766\n499347351283437568,arnufoofoo,2014-08-13'
p3701
I91
sS'cause'
p3702
I83
sS'darkwhite'
p3703
I91
sS'math'
p3704
I89
sS'twerk?"'
p3705
I91
sS'afford'
p3706
I91
sS',91766\n508664180988080128,arnufoofoo,2014-09-07'
p3707
I91
sS'shut'
p3708
I88
sS'wallpaper'
p3709
I90
sS'outkast'
p3710
I91
sS'bww'
p3711
I91
sS'ten,91766\n287013625074425858,pablothebatman,2013-01-04'
p3712
I91
sS'caramel'
p3713
I91
sS'control'
p3714
I91
sS'que'
p3715
I91
sS'meeee'
p3716
I91
sS'princess'
p3717
I86
sS'"skype'
p3718
I91
sS'hostile'
p3719
I91
sS'g'
p3720
I90
sS'*top'
p3721
I91
sS'snapchats'
p3722
I90
sS'could'
p3723
I76
sS'mac'
p3724
I91
sS'spongebob'
p3725
I91
sS'times'
p3726
I89
sS'conversation'
p3727
I91
sS'49ers'
p3728
I90
sS'4th'
p3729
I90
sS'shutout'
p3730
I91
sS'...but'
p3731
I91
sS'stawp'
p3732
I91
sS'chills'
p3733
I91
sS'scare'
p3734
I91
sS'scarf'
p3735
I91
sS'kendall'
p3736
I91
sS'finest'
p3737
I90
sS'bluff'
p3738
I91
sS'frap'
p3739
I91
sS'sack'
p3740
I91
sS'jesus'
p3741
I88
sS'embarrassed'
p3742
I91
sS'weak'
p3743
I91
sS'bitch'
p3744
I82
sS'mah'
p3745
I90
sS'smells'
p3746
I91
sS'noticed'
p3747
I91
sS'reliable'
p3748
I91
sS'braces'
p3749
I90
sS"doesn't"
p3750
I87
sS'18:55:59.0,34.03633992,-117.78064523,4033.18,bapada'
p3751
I91
sS'fuckery'
p3752
I90
sS'start'
p3753
I80
sS'obvi'
p3754
I91
sS'rockstar'
p3755
I90
sS'accent'
p3756
I90
sS'hilary'
p3757
I91
sS'grow'
p3758
I91
sS',91766\n505147259864903680,arnufoofoo,2014-08-29'
p3759
I91
sS'their'
p3760
I84
sS'attack'
p3761
I90
sS'dudes'
p3762
I91
sS'belligerently'
p3763
I91
sS'cuzzo'
p3764
I90
sS'final'
p3765
I88
sS'amen'
p3766
I91
sS'soon,91766\n477962969905516544,arnufoofoo,2014-06-14'
p3767
I91
sS'afternoon!,91766\n499676847953559553,arnufoofoo,2014-08-13'
p3768
I91
sS'inwoot'
p3769
I91
sS'stomach'
p3770
I90
sS'stars'
p3771
I91
sS'shorts'
p3772
I91
sS'06:19:58.0,34.03632585,-117.78053042,4033.18,izzypoo'
p3773
I91
sS'nobody'
p3774
I88
sS'dude,91766\n486675654025306112,arnufoofoo,2014-07-09'
p3775
I91
sS'mederos'
p3776
I91
sS'depressing'
p3777
I91
sS'grandpa'
p3778
I91
sS'rn!!!,91766\n477550211556847616,arnufoofoo,2014-06-13'
p3779
I91
sS'alecs'
p3780
I91
sS"that'll"
p3781
I91
sS'kylie'
p3782
I91
sS'neck'
p3783
I90
sS'loved'
p3784
I90
sS'defeats'
p3785
I91
sS'correlate'
p3786
I91
sS'boring'
p3787
I91
sS'07:57:38.0,34.03649391,-117.78044117,4033.18,i'
p3788
I91
sS'brady'
p3789
I91
sS'measured'
p3790
I91
sS'zenon'
p3791
I91
sS'bed'
p3792
I81
sS',91766\n481120761873043457,arnufoofoo,2014-06-23'
p3793
I91
sS'injured'
p3794
I91
sS'loves'
p3795
I86
sS'visited'
p3796
I91
sS'fuuuuuuuuck'
p3797
I91
sS'whyyy'
p3798
I91
sS'collecting'
p3799
I91
sS'hairstyle'
p3800
I91
sS'fasho!\xe2\x98\xba'
p3801
I91
sS'sea'
p3802
I91
sS',91766\n472793837136404480,arnufoofoo,2014-05-31'
p3803
I91
sS'yesssssssssssssssw'
p3804
I91
sS'julian'
p3805
I91
sS'deodorant'
p3806
I91
sS'p.t'
p3807
I91
sS'tonight'
p3808
I58
sS'mornings'
p3809
I91
sS'suprises'
p3810
I91
sS'have'
p3811
I31
sS'need'
p3812
I50
sS'p.e'
p3813
I91
sS'save."'
p3814
I91
sS'screw'
p3815
I91
sS'jets,91766\n507731545705447424,arnufoofoo,2014-09-05'
p3816
I91
sS'afraid'
p3817
I91
sS'sprinkler'
p3818
I91
sS'checkout'
p3819
I91
sS'dallas'
p3820
I90
sS'studying'
p3821
I88
sS'able'
p3822
I89
sS'homeboy'
p3823
I89
sS'montgomery'
p3824
I91
sS'hr'
p3825
I91
sS'starbucks.,91766\n452464058453614592,vinnysulo,2014-04-05'
p3826
I91
sS'nasty'
p3827
I91
sS'etem'
p3828
I91
sS'babes'
p3829
I90
sS'bus'
p3830
I91
sS'truck'
p3831
I88
sS'asshole'
p3832
I91
sS'martha'
p3833
I91
sS'='
p3834
I90
sS'coke'
p3835
I91
sS';-)'
p3836
I91
sS'blades'
p3837
I91
sS"bachelor's"
p3838
I91
sS'blippers'
p3839
I91
sS'06:47:47.0,34.03649163,-117.78042262,4033.18,i'
p3840
I91
sS'aww'
p3841
I88
sS'claremont'
p3842
I91
sS'who'
p3843
I63
sS',91766\n508747335019425793,arnufoofoo,2014-09-07'
p3844
I91
sS'fullerton'
p3845
I91
sS"where's"
p3846
I90
sS'intentions'
p3847
I91
sS'moths'
p3848
I91
sS'songstatus'
p3849
I91
sS'connected'
p3850
I91
sS'forreal'
p3851
I90
sS',91766\n492914283487834112,arnufoofoo,2014-07-26'
p3852
I91
sS'highschool'
p3853
I91
sS'expired'
p3854
I91
sS'why'
p3855
I50
sS"husband's"
p3856
I91
sS'lames'
p3857
I90
sS"ac's"
p3858
I91
sS'deny'
p3859
I91
sS'wilcox'
p3860
I91
sS'refreshing'
p3861
I91
sS'benteke'
p3862
I91
sS'visiting'
p3863
I91
sS'upset'
p3864
I88
sS'thanksgiving'
p3865
I90
sS'fafsa'
p3866
I91
sS'face'
p3867
I85
sS'looked'
p3868
I90
sS'fontana'
p3869
I91
sS"you'll"
p3870
I90
sS'se'
p3871
I91
sS'movie'
p3872
I80
sS'brew'
p3873
I91
sS'skinny'
p3874
I91
sS'typical'
p3875
I91
sS'painting'
p3876
I91
sS'peto'
p3877
I91
sS'fact'
p3878
I88
sS'ughhh'
p3879
I90
sS'mmmmmmmm'
p3880
I91
sS'meee'
p3881
I91
sS'invited'
p3882
I91
sS'kaskade'
p3883
I91
sS'chances'
p3884
I91
sS'text'
p3885
I82
sS'agreed'
p3886
I91
sS'indoor'
p3887
I91
sS'04:18:20.0,34.03632978,-117.78056407,4033.18,best'
p3888
I91
sS'unbelievable'
p3889
I91
sS'bring'
p3890
I87
sS'planning'
p3891
I91
sS'manchester'
p3892
I91
sS'bedroom'
p3893
I91
sS'chicken'
p3894
I90
sS'beacg,91766\n464634130391904256,miapuhawan,2014-05-09'
p3895
I91
sS'decade'
p3896
I91
sS'staff'
p3897
I91
sS'tira'
p3898
I91
sS'highest'
p3899
I90
sS'perla'
p3900
I91
sS'tire'
p3901
I90
sS'jay'
p3902
I90
sS'('
p3903
I90
sS'brighten'
p3904
I90
sS'should'
p3905
I79
sS'buttons'
p3906
I91
sS'continuara,91766\n442438992697372673,samiiraexo,2014-03-08'
p3907
I91
sS"there's"
p3908
I81
sS'tape'
p3909
I91
sS'lemme'
p3910
I91
sS'employed'
p3911
I91
sS'partially'
p3912
I91
sS'monkey,91766\n472983467441938434,emilystingray,2014-06-01'
p3913
I91
sS'hope'
p3914
I79
sS'awwe'
p3915
I91
sS'arns'
p3916
I91
sS'time*,91766\n491709946757517312,vickigurol,2014-07-22'
p3917
I91
sS'means'
p3918
I87
sS'beat'
p3919
I89
sS'12)'
p3920
I91
sS'dope'
p3921
I80
sS'cranky'
p3922
I91
sS'lucky'
p3923
I90
sS'bear'
p3924
I91
sS'days..,91766\n494291800874438656,rhipiee,2014-07-30'
p3925
I91
sS'tbh'
p3926
I83
sS'awww'
p3927
I89
sS'ones'
p3928
I90
sS'perfection'
p3929
I91
sS'words'
p3930
I91
sS'allowed'
p3931
I91
sS'yeh,91766\n460079380950028289,stagedrobbery,2014-04-26'
p3932
I91
sS',91766\n492931786385547265,arnufoofoo,2014-07-26'
p3933
I91
sS'chips'
p3934
I91
sS'burned'
p3935
I91
sS'ghetto'
p3936
I90
sS'campus'
p3937
I91
sS"21:41:36.0,34.03635267,-117.78043117,4033.18,i'm"
p3938
I91
sS'08:20:30.0,34.02672809,-117.76048067,4033.18,too'
p3939
I91
sS'qt'
p3940
I91
sS'brain'
p3941
I89
sS'stupid.,91766\n495682411016228864,arnufoofoo,2014-08-02'
p3942
I91
sS'h'
p3943
I89
sS'married'
p3944
I91
sS'eyebrow'
p3945
I91
sS'calling'
p3946
I91
sS'default'
p3947
I91
sS'wal*mart'
p3948
I91
sS'stuff'
p3949
I84
sS'she'
p3950
I69
sS'dangerous'
p3951
I91
sS'yassss'
p3952
I88
sS'grab'
p3953
I91
sS'view'
p3954
I89
sS'knowing'
p3955
I91
sS'official'
p3956
I90
sS'effer'
p3957
I91
sS'prayers'
p3958
I91
sS'lazy'
p3959
I91
sS'edition'
p3960
I87
sS',91766\n497652842375561217,arnufoofoo,2014-08-08'
p3961
I91
sS'oomf'
p3962
I91
sS"rowena's"
p3963
I91
sS'(78'
p3964
I90
sS'cold'
p3965
I90
sS'packed'
p3966
I91
sS'luv'
p3967
I91
sS'gfs'
p3968
I91
sS'apparently'
p3969
I91
sS',91766\n492012036407042048,arnufoofoo,2014-07-23'
p3970
I91
sS'here?"'
p3971
I91
sS'ralph'
p3972
I91
sS'hungry,91766\n495407989051113472,arnufoofoo,2014-08-02'
p3973
I91
sS'00:25:37.0,34.0365056,-117.78032307,4033.18,i'
p3974
I91
sS'genius'
p3975
I91
sS'work,91766\n477706243360833536,arnufoofoo,2014-06-14'
p3976
I91
sS'batmobile'
p3977
I91
sS'\xe2\x98\xba\xef\xb8\x8f\xe2\x80\x9d'
p3978
I90
sS'horrible'
p3979
I90
sS'20:04:25.0,34.0284371,-117.7598553,4033.18,yeah'
p3980
I91
sS'neither'
p3981
I91
sS'email'
p3982
I89
sS'hot!,91766\n500538169478369280,arnufoofoo,2014-08-16'
p3983
I91
sS'bought'
p3984
I88
sS'ken'
p3985
I91
sS'bleed'
p3986
I91
sS'blinker'
p3987
I91
sS'cello'
p3988
I91
sS'princess,91766\n484926315514966017,arnufoofoo,2014-07-04'
p3989
I91
sS'spotify'
p3990
I91
sS'gambino'
p3991
I91
sS'joy'
p3992
I89
sS'buddy....fuck'
p3993
I91
sS'kicking'
p3994
I90
sS'job'
p3995
I84
sS'potluck'
p3996
I91
sS'key'
p3997
I91
sS'felicia'
p3998
I91
sS'precious'
p3999
I91
sS'summerrr'
p4000
I91
sS'swift'
p4001
I91
sS'faggot'
p4002
I90
sS'legit'
p4003
I91
sS'staring'
p4004
I87
sS'\xc2\xbf'
p4005
I91
sS'mindy'
p4006
I91
sS'joke'
p4007
I91
sS'taking'
p4008
I80
sS"he's"
p4009
I82
sS'aqua'
p4010
I91
sS'bae.,91766\n517722991594323968,xquietstorm08x,2014-10-02'
p4011
I91
sS'trips'
p4012
I91
sS'april'
p4013
I90
sS'admit'
p4014
I90
sS'tiffany'
p4015
I91
sS'quarter.me-oh'
p4016
I91
sS'passing'
p4017
I91
sS'mr.stump'
p4018
I91
sS'jersey'
p4019
I89
sS'orthodontist'
p4020
I91
sS'comment'
p4021
I91
sS'cj'
p4022
I91
sS'hehehe'
p4023
I91
sS'co'
p4024
I91
sS'girllll'
p4025
I91
sS'wall'
p4026
I89
sS'tuesday'
p4027
I89
sS'makin'
p4028
I90
sS'walk'
p4029
I88
sS'fukin'
p4030
I91
sS'cx'
p4031
I91
sS'movieee'
p4032
I91
sS'laugh'
p4033
I84
sS'cousin'
p4034
I87
sS'whispering'
p4035
I91
sS'respect'
p4036
I90
sS'[pic]'
p4037
I91
sS'00:17:46.0,34.03653846,-117.78036062,4033.18,isabel'
p4038
I91
sS'natalie'
p4039
I91
sS'amigo'
p4040
I91
sS'pouring'
p4041
I91
sS'yay'
p4042
I88
sS'earrings...oh'
p4043
I91
sS'leads'
p4044
I91
sS'muahahaha'
p4045
I91
sS"it's"
p4046
I34
sS'dyke"'
p4047
I91
sS'darren'
p4048
I90
sS'quiz'
p4049
I91
sS'(90'
p4050
I90
sS'exhausted'
p4051
I91
sS'freeway,91766\n508311108440948736,therealpaulchoi,2014-09-06'
p4052
I91
sS'slowly'
p4053
I89
sS'yah'
p4054
I89
sS'bby'
p4055
I90
sS'daisy'
p4056
I91
sS'16:43:04.0,34.036349,-117.78060183,4033.18,i'
p4057
I91
sS'bbq'
p4058
I90
sS'>'
p4059
I90
sS'mike'
p4060
I90
sS'liverpool'
p4061
I90
sS'nonsense'
p4062
I91
sS'league'
p4063
I90
sS'vince'
p4064
I91
sS'07:06:18.0,34.03632863,-117.78059335,4033.18,i'
p4065
I91
sS'"girl'
p4066
I91
sS'crappy'
p4067
I91
sS'21:41:27.0,34.03641416,-117.78036104,4033.18,chich,91766\n481121988279152640,arnufoofoo,2014-06-23'
p4068
I91
sS'hmm'
p4069
I88
sS'finished'
p4070
I90
sS'-.-'
p4071
I89
sS'lyfeee'
p4072
I91
sS'covered'
p4073
I90
sS'46%'
p4074
I91
sS'smoking'
p4075
I91
sS'hotties'
p4076
I91
sS'"that'
p4077
I91
sS'moya'
p4078
I91
sS'earthquake.\xe2\x80\x9d'
p4079
I91
sS'xoxoxo'
p4080
I90
sS'7-0'
p4081
I91
sS'permit'
p4082
I91
sS'waba'
p4083
I90
sS'will'
p4084
I69
sS'thou'
p4085
I91
sS'damm'
p4086
I91
sS'02:00:46.0,34.03743287,-117.76422596,4033.18,im'
p4087
I91
sS'hahaha'
p4088
I80
sS'aometging?,91766\n480072350629523456,stagedrobbery,2014-06-20'
p4089
I91
sS'~'
p4090
I90
sS'koreans'
p4091
I91
sS'\xe2\x98\xba\xef\xb8\x8f,91766\n485949663070015488,arnufoofoo,2014-07-07'
p4092
I91
sS'almost'
p4093
I79
sS'demo'
p4094
I90
sS'mannnnnn'
p4095
I91
sS'vp'
p4096
I91
sS'lavagirl'
p4097
I91
sS'vs'
p4098
I88
sS'lifetime'
p4099
I91
sS'thug'
p4100
I88
sS'jenner'
p4101
I91
sS'alll'
p4102
I91
sS'moves'
p4103
I91
sS'tupac'
p4104
I91
sS')'
p4105
I89
sS'geta'
p4106
I91
sS'juan'
p4107
I91
sS'funniest'
p4108
I91
sS'07:00:02.0,34.03633651,-117.78052166,4033.18,babe'
p4109
I91
sS'ina'
p4110
I91
sS'allergies'
p4111
I91
sS'strange'
p4112
I89
sS'jaw'
p4113
I91
sS'party'
p4114
I84
sS'android'
p4115
I91
sS'gets'
p4116
I87
sS'dutch\xe2\x80\x9d'
p4117
I91
sS'dan'
p4118
I91
sS'killed'
p4119
I91
sS'shothang'
p4120
I91
sS'ball'
p4121
I87
sS'moyes'
p4122
I91
sS'innings'
p4123
I91
sS'flesh'
p4124
I91
sS'drink'
p4125
I91
sS'upon'
p4126
I89
sS'collab'
p4127
I91
sS'-_______-'
p4128
I91
sS'tambien'
p4129
I91
sS'beast'
p4130
I91
sS'fucken'
p4131
I88
sS'rottie'
p4132
I91
sS'vault'
p4133
I91
sS'sisters'
p4134
I89
sS'spree'
p4135
I91
sS'l.a'
p4136
I91
sS'francisco'
p4137
I91
sS'//'
p4138
I91
sS'\xe2\x9c\xa8,91766\n500328750614343680,chantalodalys,2014-08-15'
p4139
I91
sS'antsy'
p4140
I91
sS'off'
p4141
I66
sS'rt\xe2\x9d\xa4\xef\xb8\x8f'
p4142
I91
sS'(68'
p4143
I91
sS'i'
p4144
I2
sS'approve'
p4145
I91
sS'seth'
p4146
I90
sS'fighting'
p4147
I91
sS'welp'
p4148
I88
sS'22:44:11.0,34.03632152,-117.78058715,4033.18,damn'
p4149
I91
sS'wya'
p4150
I91
sS'english'
p4151
I91
sS'comparisons'
p4152
I91
sS'whhhhhhhaaacccccckk'
p4153
I91
sS'knight'
p4154
I91
sS'meet'
p4155
I90
sS'upgraded'
p4156
I91
sS'excessive'
p4157
I91
sS'kiss'
p4158
I91
sS'cried'
p4159
I91
sS'(pomona'
p4160
I65
sS'moments'
p4161
I91
sS'incapable'
p4162
I91
sS"should've"
p4163
I89
sS'gr8'
p4164
I90
sS'fried...engineering'
p4165
I91
sS'bestfoodla\xe2\x80\xa6'
p4166
I91
sS'elotero'
p4167
I91
sS'08:22:50.0,34.02333117,-117.74987,4033.18,mariah'
p4168
I91
sS'beginnings'
p4169
I91
sS'truck,91766\n332190869631426560,pablothebatman,2013-05-08'
p4170
I91
sS'casper'
p4171
I91
sS'seats'
p4172
I91
sS'tough'
p4173
I91
sS'ohhhh('
p4174
I91
sS'schleep'
p4175
I91
sS'again,91766\n474710741744754689,arnufoofoo,2014-06-06'
p4176
I91
sS'quiero'
p4177
I91
sS'ads'
p4178
I91
sS'here\xe2\x80\x99s'
p4179
I91
sS'vida'
p4180
I91
sS'jeff'
p4181
I22
sS'smith'
p4182
I91
sS'wen'
p4183
I91
sS'realize'
p4184
I88
sS'add'
p4185
I90
sS'book'
p4186
I91
sS'crack'
p4187
I90
sS'///best'
p4188
I91
sS'twerk'
p4189
I91
sS'smart'
p4190
I91
sS'earthquakes'
p4191
I91
sS'homework'
p4192
I87
sS'soccer...so'
p4193
I91
sS'fate'
p4194
I91
sS'cholula'
p4195
I91
sS"who's"
p4196
I86
sS'know'
p4197
I42
sS'press'
p4198
I91
sS'chrysler)'
p4199
I91
sS'height'
p4200
I89
sS"who'd"
p4201
I91
sS'yyyeeeah'
p4202
I91
sS'dubai'
p4203
I91
sS'trash'
p4204
I89
sS'like'
p4205
I26
sS'lost'
p4206
I85
sS'16:48:35.0,34.0274643,-117.7659115,4033.18,guys'
p4207
I91
sS',91766\n452506040378982400,stagedrobbery,2014-04-05'
p4208
I91
sS'darlaracosta'
p4209
I91
sS'clown'
p4210
I91
sS'taping'
p4211
I91
sS'memories,91766\n518467530533666816,alexisdiamondd,2014-10-04'
p4212
I91
sS'clutch'
p4213
I91
sS'leaves'
p4214
I90
sS'works'
p4215
I91
sS'emmy'
p4216
I91
sS'page'
p4217
I88
sS"stranger's"
p4218
I91
sS'sign'
p4219
I91
sS'bowl'
p4220
I91
sS'because'
p4221
I74
sS'smoothly'
p4222
I91
sS'\xe2\x98\xba\xef\xb8\x8f\xe2\x98\xba\xef\xb8\x8f\xe2\x98\xba\xef\xb8\x8f\xe2\x98\xba\xef\xb8\x8f\xe2\x98\xba\xef\xb8\x8f'
p4223
I91
sS'twitter'
p4224
I88
sS'church'
p4225
I90
sS'07:02:53.0,34.03643884,-117.78035819,4033.18,i'
p4226
I91
sS'alive'
p4227
I91
sS'haim'
p4228
I91
sS'hair'
p4229
I85
sS'$150'
p4230
I91
sS'repeat'
p4231
I91
sS'truuuuuu'
p4232
I91
sS'stuffs'
p4233
I91
sS'home'
p4234
I15
sS'scares'
p4235
I91
sS'shakira'
p4236
I91
sS'happens'
p4237
I88
sS'"what'
p4238
I91
sS'focused'
p4239
I91
sS'literally'
p4240
I86
sS'\xe2\x98\xba\xef\xb8\x8f\xe2\x9d\xa4\xef\xb8\x8f'
p4241
I91
sS'lean'
p4242
I91
sS'17:10:44.0,34.0244373,-117.76665481,4033.18,my'
p4243
I91
sS'8th'
p4244
I91
sS'appreciative'
p4245
I91
sS'leap'
p4246
I91
sS'does'
p4247
I78
sS'passion'
p4248
I91
sS'oatmeal'
p4249
I91
sS'bosses'
p4250
I91
sS'on,91766\n477544844789686272,arnufoofoo,2014-06-13'
p4251
I91
sS'speak'
p4252
I91
sS'teachers'
p4253
I91
sS'trout'
p4254
I89
sS'06:58:36.0,34.0363842,-117.78051306,4033.18,i'
p4255
I91
sS'ripped'
p4256
I91
sS'schedule'
p4257
I91
sS"23:52:55.0,34.03644266,-117.78046346,4033.18,i'm"
p4258
I91
sS'fuck.this'
p4259
I91
sS'pp'
p4260
I91
sS'amy'
p4261
I91
sS'\xe2\x98\x95,91766\n483518908515643392,xquietstorm08x,2014-06-30'
p4262
I91
sS',91766\n486676532664885248,arnufoofoo,2014-07-09'
p4263
I91
sS'fightin'
p4264
I91
sS'sister'
p4265
I77
sS':-)'
p4266
I89
sS'rare'
p4267
I91
sS'puts'
p4268
I90
sS'getting'
p4269
I66
sS'fuck,91766\n486027920901554176,arnufoofoo,2014-07-07'
p4270
I91
sS'universe'
p4271
I91
sS'mommy'
p4272
I91
sS'iknow'
p4273
I91
sS'shipping'
p4274
I91
sS'23:54:36.0,34.0363436,-117.78061043,4033.18,are'
p4275
I91
sS'angeles'
p4276
I90
sS'ahhhhh'
p4277
I91
sS'perks'
p4278
I90
sS'swear'
p4279
I86
sS'17:09:14.0,34.0268476,-117.76104536,4033.18,this'
p4280
I91
sS'glasses'
p4281
I91
sS'tammy""gurl'
p4282
I91
sS'shoppin'
p4283
I91
sS'equally'
p4284
I91
sS'own'
p4285
I88
sS'angles'
p4286
I91
sS'owe'
p4287
I91
sS'pussy'
p4288
I91
sS'nerves'
p4289
I91
sS'errands'
p4290
I91
sS'baring'
p4291
I91
sS'gtfoh'
p4292
I91
sS'of\xe2\x80\xa6'
p4293
I91
sS'damnnn'
p4294
I91
sS'weather'
p4295
I87
sS'promise'
p4296
I91
sS'brush'
p4297
I91
sS'female'
p4298
I91
sS'honked,91766\n501917525265772544,arnufoofoo,2014-08-20'
p4299
I91
sS'fired'
p4300
I91
sS'06:10:20.0,34.0236536,-117.7530113,4033.18,i'
p4301
I91
sS'uncontrollably'
p4302
I91
sS'van'
p4303
I89
sS"18:12:48.0,34.03639412,-117.78050931,4033.18,i'm"
p4304
I91
sS'wacc'
p4305
I91
sS'appt'
p4306
I91
sS',91766\n503718732561387520,arnufoofoo,2014-08-25'
p4307
I91
sS'kidding'
p4308
I90
sS'it,91766\n478769941525442562,arnufoofoo,2014-06-17'
p4309
I91
sS'21:15:21.0,34.03229058,-117.75988928,4033.18,fuck'
p4310
I91
sS'biggest'
p4311
I90
sS'maze'
p4312
I91
sS'function'
p4313
I89
sS'building'
p4314
I91
sS'buy'
p4315
I79
sS"i've"
p4316
I77
sS'fasho'
p4317
I86
sS'hs'
p4318
I90
sS'brand'
p4319
I91
sS'bitches'
p4320
I90
sS'hw'
p4321
I90
sS'but'
p4322
I33
sS',91766\n495785618937368576,arnufoofoo,2014-08-03'
p4323
I91
sS'delivery'
p4324
I91
sS'\xc2\xbf1/'
p4325
I91
sS',91766\n278659758796455937,pablothebatman,2012-12-12'
p4326
I91
sS'hi'
p4327
I88
sS'goals'
p4328
I89
sS'\xe2\x98\x80'
p4329
I91
sS'hc'
p4330
I91
sS'>>>>>'
p4331
I91
sS'apollo'
p4332
I89
sS'advertising'
p4333
I91
sS'winco'
p4334
I71
sS'hd'
p4335
I91
sS'he'
p4336
I55
sS'y/o'
p4337
I91
sS'selfish'
p4338
I91
sS'03:17:23.0,34.03631974,-117.78042801,4033.18,i'
p4339
I91
sS'made'
p4340
I82
sS'freash'
p4341
I91
sS'whether'
p4342
I90
sS'wish'
p4343
I79
sS'ahahahha'
p4344
I91
sS'j'
p4345
I90
sS'flip'
p4346
I90
sS'signed'
p4347
I91
sS'books'
p4348
I91
sS',91766\n489531210243137536,arnufoofoo,2014-07-16'
p4349
I91
sS'woke'
p4350
I90
sS'20:39:22.0,34.03254897,-117.75935949,4033.18,work'
p4351
I91
sS'cake'
p4352
I91
sS'adderall'
p4353
I91
sS'problem'
p4354
I87
sS'pm'
p4355
I91
sS'minutes'
p4356
I88
sS'laaaaaawd'
p4357
I91
sS'speechless'
p4358
I91
sS'skating'
p4359
I89
sS'supreme'
p4360
I91
sS'cmon'
p4361
I91
sS'jenny'
p4362
I91
sS'pin'
p4363
I90
sS'deaths'
p4364
I91
sS'burger'
p4365
I91
sS'dad\xe2\x9d\xa4\xef\xb8\x8f'
p4366
I91
sS'(los'
p4367
I91
sS'pic'
p4368
I90
sS'pie'
p4369
I91
sS'slowing'
p4370
I91
sS'pig'
p4371
I90
sS'man,91766\n480977306379239424,arnufoofoo,2014-06-23'
p4372
I91
sS'mistaken'
p4373
I91
sS'airsoft'
p4374
I91
sS'naming'
p4375
I90
sS'international'
p4376
I91
sS'19:52:31.0,34.03050957,-117.75936903,4033.18,jeahhhssss'
p4377
I91
sS'diego'
p4378
I90
sS'"evvvvverrrything."'
p4379
I91
sS'rumors'
p4380
I91
sS'-day'
p4381
I91
sS'fresh)'
p4382
I91
sS'chicago'
p4383
I91
sS'45'
p4384
I91
sS'scrubs'
p4385
I91
sS'43'
p4386
I89
sS'strands'
p4387
I91
sS'roars'
p4388
I90
sS'other'
p4389
I81
sS'happiest'
p4390
I91
sS'yesssssss'
p4391
I91
sS'sick'
p4392
I81
sS'ocbb'
p4393
I91
sS'er'
p4394
I91
sS'chatted'
p4395
I91
sS'dresses'
p4396
I91
sS'chich,91766\n477501276150714368,arnufoofoo,2014-06-13'
p4397
I91
sS'febreeze'
p4398
I91
sS',91766\n488249856704532480,arnufoofoo,2014-07-13'
p4399
I91
sS'star'
p4400
I91
sS'monday'
p4401
I86
sS'800+'
p4402
I91
sS'again"'
p4403
I91
sS'yeppeee'
p4404
I91
sS'june'
p4405
I90
sS'stay'
p4406
I87
sS'chance'
p4407
I89
sS'smiley'
p4408
I91
sS'tamos'
p4409
I91
sS'kinda'
p4410
I87
sS'hahahhaah'
p4411
I91
sS'friends'
p4412
I85
sS'tan'
p4413
I91
sS'goin'
p4414
I90
sS'ghost'
p4415
I91
sS'lupita'
p4416
I91
sS'\xe2\x80\x94'
p4417
I91
sS'accelerate'
p4418
I91
sS'fuuck'
p4419
I91
sS'bishop'
p4420
I91
sS'factors'
p4421
I91
sS'rule'
p4422
I90
sS'gardena'
p4423
I91
sS'taddle'
p4424
I91
sS'amanda'
p4425
I91
sS'hoe,91766\n489525050869944320,arnufoofoo,2014-07-16'
p4426
I91
sS'lives'
p4427
I91
sS'laundromat'
p4428
I91
sS'anyways,91766\n485947891270164480,arnufoofoo,2014-07-07'
p4429
I91
s.