(dp0
S''
p1
I1
sS'mardi'
p2
I32
sS'all'
p3
I27
sS'coach'
p4
I32
sS':('
p5
I32
sS':)'
p6
I30
sS'dance'
p7
I32
sS'lack'
p8
I32
sS'wrestle'
p9
I32
sS'sleep'
p10
I32
sS'aly'
p11
I32
sS'go'
p12
I31
sS'follow'
p13
I32
sS'meditation'
p14
I32
sS'loll'
p15
I32
sS'hate'
p16
I31
sS'looking'
p17
I32
sS'buddy'
p18
I32
sS'head'
p19
I32
sS'father'
p20
I32
sS'send'
p21
I32
sS'countdown'
p22
I32
sS'to'
p23
I6
sS'program'
p24
I32
sS'weather'
p25
I32
sS'teaching'
p26
I31
sS'ilysm'
p27
I32
sS'made'
p28
I32
sS'very'
p29
I30
sS'blanket'
p30
I32
sS'lowercase'
p31
I32
sS'balls'
p32
I32
sS'every'
p33
I32
sS'pee'
p34
I32
sS'word'
p35
I32
sS'drinking'
p36
I31
sS'bringing'
p37
I32
sS'minute'
p38
I32
sS'cool'
p39
I32
sS'timely'
p40
I32
sS"we'll"
p41
I32
sS'heaven'
p42
I31
sS'magic'
p43
I32
sS'bring'
p44
I32
sS'experiencing'
p45
I32
sS'peeps'
p46
I32
sS'cloudy'
p47
I32
sS'leave'
p48
I32
sS':]'
p49
I32
sS'sane'
p50
I32
sS'nuggets'
p51
I32
sS'team'
p52
I28
sS'quick'
p53
I32
sS'ass'
p54
I32
sS'work'
p55
I30
sS'be'
p56
I32
sS'healed'
p57
I32
sS'jump'
p58
I32
sS'messy'
p59
I32
sS'video'
p60
I32
sS'anaconda'
p61
I31
sS'eating'
p62
I32
sS'n'
p63
I30
sS'jarritos'
p64
I32
sS'even'
p65
I29
sS'what'
p66
I20
sS'hesitation'
p67
I32
sS'christ'
p68
I32
sS'lolll'
p69
I32
sS'saved'
p70
I32
sS'section'
p71
I32
sS'waiting'
p72
I31
sS'sup'
p73
I32
sS'new'
p74
I32
sS'ever'
p75
I32
sS'dental'
p76
I32
sS'told'
p77
I32
sS'nacho'
p78
I32
sS'gawd'
p79
I32
sS'kicked'
p80
I32
sS'ferocious'
p81
I32
sS'cozy'
p82
I32
sS'oldies'
p83
I32
sS'never'
p84
I28
sS'here'
p85
I31
sS'\xe2\x9d\xa4\xef\xb8\x8f'
p86
I31
sS'let'
p87
I29
sS'healing'
p88
I31
sS'meet'
p89
I32
sS'directions'
p90
I32
sS'aftermath'
p91
I32
sS'cardboard'
p92
I32
sS'flags'
p93
I32
sS'earthquake'
p94
I32
sS'wait'
p95
I32
sS'kids'
p96
I31
sS'daughter'
p97
I32
sS'\xe2\x9a\xbd\xef\xb8\x8f'
p98
I32
sS'tapes'
p99
I32
sS'spontaneous'
p100
I32
sS'k'
p101
I31
sS'wherever'
p102
I32
sS'completely'
p103
I32
sS'leaving'
p104
I32
sS'stater'
p105
I32
sS'weird'
p106
I31
sS'luck'
p107
I32
sS'makes'
p108
I29
sS'thats'
p109
I32
sS"lorenzo's"
p110
I32
sS'wid'
p111
I32
sS'love'
p112
I18
sS'apple'
p113
I32
sS'hiking'
p114
I32
sS'app'
p115
I32
sS'graders'
p116
I32
sS"bathroom*bria's"
p117
I32
sS'bro'
p118
I32
sS'hollaitsrach'
p119
I32
sS'vip'
p120
I32
sS'busses'
p121
I32
sS'trained'
p122
I32
sS'1st'
p123
I28
sS"sister's"
p124
I31
sS'gosh'
p125
I31
sS'singing'
p126
I32
sS'yourself'
p127
I32
sS"should've"
p128
I32
sS'wanted'
p129
I32
sS'from'
p130
I27
sS'would'
p131
I31
sS'revelation'
p132
I32
sS'sweater'
p133
I32
sS'easter!\xe2\x80\xa6'
p134
I32
sS'two'
p135
I29
sS'sunday'
p136
I32
sS'distributing'
p137
I32
sS'live'
p138
I32
sS'foursquare'
p139
I32
sS'music'
p140
I32
sS'memory'
p141
I32
sS'black'
p142
I32
sS'injury'
p143
I31
sS'today'
p144
I28
sS'loving'
p145
I30
sS'main'
p146
I32
sS'repentance\xe2\x80\xa6'
p147
I32
sS'biblical'
p148
I32
sS'sessions'
p149
I32
sS'club'
p150
I32
sS'halloween'
p151
I32
sS'bs'
p152
I32
sS'occurred'
p153
I32
sS'reign'
p154
I32
sS'trail'
p155
I32
sS'bros'
p156
I32
sS'broke'
p157
I32
sS'suite'
p158
I32
sS'hurry'
p159
I32
sS'me'
p160
I9
sS'honey'
p161
I32
sS'keeping'
p162
I32
sS'jaykay'
p163
I32
sS'join'
p164
I31
sS'f'
p165
I32
sS'this'
p166
I13
sS'banner-\xe2\x9c\x94'
p167
I32
sS'breezes'
p168
I32
sS'mi'
p169
I32
sS'soul'
p170
I32
sS'westhoff'
p171
I27
sS'pepino'
p172
I32
sS'huge'
p173
I32
sS'vs'
p174
I32
sS'can'
p175
I28
sS'den'
p176
I28
sS'making'
p177
I31
sS'my'
p178
I5
sS'dropped'
p179
I32
sS'beautiful'
p180
I32
sS'ratchie'
p181
I32
sS'crazy'
p182
I32
sS'kym'
p183
I32
sS'give'
p184
I32
sS'december'
p185
I32
sS'awesome'
p186
I32
sS"didn't"
p187
I30
sS'fuck'
p188
I30
sS'high'
p189
I30
sS'heard'
p190
I32
sS'family-tug-of-love'
p191
I32
sS'michelada'
p192
I32
sS'want'
p193
I31
sS'wonderful'
p194
I32
sS'counting'
p195
I32
sS'rid'
p196
I32
sS'christmas-y'
p197
I32
sS'end'
p198
I32
sS'inheritance'
p199
I32
sS'watching'
p200
I29
sS'stayed'
p201
I32
sS'1'
p202
I31
sS'how'
p203
I29
sS'amazing'
p204
I31
sS'beau'
p205
I32
sS'instead'
p206
I32
sS'beach'
p207
I32
sS'spirit-filled'
p208
I32
sS'idk'
p209
I32
sS'map'
p210
I32
sS'tried'
p211
I31
sS'rude'
p212
I32
sS'keilty\xe2\x80\xa6'
p213
I32
sS'may'
p214
I32
sS'watch'
p215
I32
sS'after'
p216
I30
sS'spot'
p217
I32
sS'fart'
p218
I32
sS'lot'
p219
I32
sS'lighting'
p220
I32
sS'bluff'
p221
I32
sS'mah'
p222
I32
sS'value.\xe2\x80\xa6'
p223
I32
sS'guys'
p224
I29
sS'idgaf'
p225
I32
sS'man'
p226
I32
sS'a'
p227
I6
sS'refuse'
p228
I32
sS'remember'
p229
I32
sS'\xe2\x98\x9d\xe2\x9a\xbd'
p230
I32
sS'greatest'
p231
I32
sS'lost'
p232
I32
sS'tulio'
p233
I32
sS'st'
p234
I26
sS'beehive'
p235
I32
sS'cannot'
p236
I32
sS'so'
p237
I16
sS'binx'
p238
I32
sS'sc'
p239
I32
sS'egg'
p240
I32
sS'4sq'
p241
I32
sS'school)'
p242
I30
sS'shoes'
p243
I32
sS"don't"
p244
I28
sS'over'
p245
I32
sS'mission'
p246
I31
sS'years'
p247
I31
sS'course'
p248
I32
sS'through'
p249
I30
sS'looks'
p250
I32
sS'pitch'
p251
I32
sS'mentioned'
p252
I32
sS'residents'
p253
I32
sS'peterson'
p254
I32
sS'still'
p255
I29
sS'worship'
p256
I26
sS'before'
p257
I31
sS'group'
p258
I31
sS'cbc'
p259
I32
sS"he's"
p260
I32
sS'lj'
p261
I32
sS'hot'
p262
I31
sS'walnut'
p263
I9
sS'better'
p264
I31
sS'feel'
p265
I31
sS'prac'
p266
I32
sS'gatorade'
p267
I32
sS'listing'
p268
I32
sS'imy'
p269
I32
sS'corinthians'
p270
I32
sS'weeks'
p271
I32
sS'soccer'
p272
I23
sS'worshiping'
p273
I31
sS'image'
p274
I32
sS"haven't"
p275
I31
sS'happened'
p276
I32
sS'dad'
p277
I29
sS'them'
p278
I30
sS'good'
p279
I27
sS'"bounce'
p280
I32
sS'practice'
p281
I29
sS'school'
p282
I27
sS'break'
p283
I32
sS'chuckie'
p284
I32
sS'they'
p285
I28
sS'half'
p286
I32
sS'not'
p287
I29
sS'now'
p288
I25
sS'91789\xe2\x80\xa6'
p289
I32
sS'day'
p290
I25
sS'(20677'
p291
I32
sS'always'
p292
I30
sS'technology"'
p293
I32
sS'advent'
p294
I32
sS'merge'
p295
I31
sS'magnitude'
p296
I31
sS'rockets'
p297
I32
sS'victory'
p298
I32
sS'truth'
p299
I31
sS'each'
p300
I31
sS'found'
p301
I32
sS'went'
p302
I31
sS'mean'
p303
I32
sS'everyone'
p304
I31
sS'resurrection'
p305
I32
sS'female'
p306
I32
sS'giving\xe2\x80\xa6'
p307
I32
sS'house'
p308
I31
sS'hard'
p309
I32
sS'ea'
p310
I32
sS'yeah'
p311
I32
sS'society'
p312
I32
sS'gruden'
p313
I32
sS'walnut)'
p314
I27
sS'begun'
p315
I32
sS'forgot'
p316
I32
sS'our'
p317
I28
sS'event'
p318
I32
sS'special'
p319
I32
sS'out'
p320
I26
sS'rt'
p321
I32
sS'lola'
p322
I32
sS'praise'
p323
I32
sS'inspiration'
p324
I32
sS'god'
p325
I27
sS'ufc\xe2\x80\xa6'
p326
I32
sS'since'
p327
I32
sS'jolly'
p328
I32
sS'rd'
p329
I29
sS'transforming'
p330
I32
sS'seriously'
p331
I31
sS'hill'
p332
I32
sS'2010...ok'
p333
I32
sS'got'
p334
I28
sS'rn'
p335
I30
sS'cause'
p336
I30
sS'dunk'
p337
I32
sS'arizona'
p338
I32
sS'bass'
p339
I32
sS'cutest'
p340
I32
sS'city'
p341
I17
sS'southern'
p342
I32
sS'friday'
p343
I32
sS'material'
p344
I32
sS'free'
p345
I31
sS'reason'
p346
I32
sS'california'
p347
I31
sS'x'
p348
I32
sS'put'
p349
I32
sS"nolan's"
p350
I30
sS'keith'
p351
I32
sS'princess'
p352
I32
sS'care'
p353
I32
sS'ticket'
p354
I32
sS'cycles'
p355
I32
sS'yard'
p356
I32
sS'prepare'
p357
I32
sS'created'
p358
I32
sS'yup'
p359
I32
sS'could'
p360
I32
sS'days'
p361
I32
sS'david'
p362
I31
sS'blorange'
p363
I32
sS'thing'
p364
I31
sS'place'
p365
I32
sS'loud'
p366
I32
sS'think'
p367
I32
sS'teammates'
p368
I32
sS'first'
p369
I31
sS'respond'
p370
I32
sS'there'
p371
I32
sS'undid'
p372
I32
sS'>>'
p373
I32
sS'grade'
p374
I31
sS'jesus'
p375
I31
sS'bitch'
p376
I31
sS'another'
p377
I32
sS'fight'
p378
I32
sS'miss'
p379
I30
sS"doesn't"
p380
I31
sS'long'
p381
I32
sS'service'
p382
I31
sS'needed'
p383
I32
sS'filthy'
p384
I32
sS'caught'
p385
I32
sS'girls'
p386
I30
sS'activities/edit'
p387
I32
sS'anyone'
p388
I32
sS'their'
p389
I30
sS'returns'
p390
I32
sS'2'
p391
I30
sS"minaj's"
p392
I32
sS'too'
p393
I30
sS'white'
p394
I32
sS'john'
p395
I31
sS"god's"
p396
I31
sS'upcoming'
p397
I32
sS'toe'
p398
I32
sS'flume'
p399
I32
sS'stars'
p400
I32
sS'relationship'
p401
I32
sS'that'
p402
I18
sS'shawn'
p403
I32
sS'jamie'
p404
I32
sS'park'
p405
I29
sS'alan'
p406
I32
sS'wisdom'
p407
I32
sS'cops'
p408
I32
sS'hahahaaha'
p409
I32
sS'reflecting'
p410
I32
sS'nigga'
p411
I32
sS'baptized'
p412
I27
sS'believe'
p413
I32
sS'than'
p414
I31
sS'elixxir'
p415
I32
sS'boyfriend'
p416
I32
sS'10'
p417
I32
sS'kind'
p418
I32
sS'third'
p419
I32
sS'grammer'
p420
I32
sS'gospel\xe2\x80\xa6'
p421
I27
sS'bed'
p422
I32
sS'dogs'
p423
I32
sS'recording'
p424
I31
sS'matter'
p425
I32
sS'r'
p426
I32
sS'pharrell'
p427
I32
sS'loves'
p428
I32
sS'were'
p429
I29
sS'nuthin'
p430
I32
sS'werk'
p431
I32
sS'feeling'
p432
I32
sS'priority'
p433
I32
sS'and'
p434
I7
sS'1.7'
p435
I31
sS'ran'
p436
I32
sS'hashtags'
p437
I32
sS'mind'
p438
I32
sS'mine'
p439
I32
sS'sad'
p440
I31
sS'tonight'
p441
I28
sS'talking'
p442
I32
sS'say'
p443
I30
sS'buy'
p444
I32
sS"beckhim's"
p445
I32
sS'have'
p446
I22
sS'need'
p447
I30
sS'seen'
p448
I32
sS'cousin'
p449
I32
sS'saw'
p450
I32
sS'any'
p451
I32
sS'marathon'
p452
I32
sS'cassandra'
p453
I32
sS'catholic'
p454
I29
sS'speakers'
p455
I32
sS'congrats'
p456
I32
sS'ae'
p457
I32
sS'scott'
p458
I32
sS'-'
p459
I30
sS'snow'
p460
I32
sS'zoo'
p461
I32
sS'also'
p462
I32
sS'subjects'
p463
I32
sS'take'
p464
I32
sS'1:27\xe2\x80\xa6'
p465
I32
sS'funniest'
p466
I32
sS'asshole'
p467
I31
sS'youre'
p468
I32
sS'sure'
p469
I32
sS'serve'
p470
I32
sS'eggs'
p471
I32
sS'who'
p472
I29
sS'you"'
p473
I32
sS'anatomy'
p474
I32
sS'nolan'
p475
I30
sS'plan'
p476
I32
sS'amar'
p477
I27
sS'phase'
p478
I32
sS'imported'
p479
I32
sS'why'
p480
I31
sS'fack'
p481
I32
sS'bumping'
p482
I32
sS'professor'
p483
I32
sS'proud'
p484
I31
sS'hungry'
p485
I32
sS'defeating'
p486
I32
sS'face'
p487
I32
sS'giving'
p488
I32
sS'definitely'
p489
I31
sS'sunset'
p490
I31
sS'grandpa'
p491
I32
sS'1.24mi'
p492
I32
sS'painting'
p493
I32
sS'coolest'
p494
I32
sS'came'
p495
I31
sS'(20687'
p496
I32
sS'bomb'
p497
I32
sS'gold'
p498
I32
sS'show'
p499
I31
sS'albert'
p500
I32
sS'text'
p501
I32
sS'random'
p502
I32
sS'life\xe2\x80\xa6'
p503
I31
sS'fxck'
p504
I32
sS'18019'
p505
I32
sS'2013'
p506
I32
sS'one'
p507
I30
sS'touches'
p508
I32
sS'kaleb'
p509
I32
sS'kygo'
p510
I32
sS'blanket-\xe2\x9c\x94'
p511
I32
sS'scion'
p512
I32
sS'hope'
p513
I31
sS'\xee\x90\x87\xee\x90\x87'
p514
I32
sS'should'
p515
I32
sS'only'
p516
I32
sS'going'
p517
I30
sS'lorenzo'
p518
I27
sS'dancing'
p519
I32
sS'pretty'
p520
I32
sS'libre'
p521
I32
sS'8'
p522
I32
sS'\xe2\x99\xa1'
p523
I32
sS'jac'
p524
I32
sS'ruiz'
p525
I29
sS'loved'
p526
I32
sS'hip'
p527
I32
sS'do'
p528
I25
sS'his'
p529
I29
sS'hit'
p530
I32
sS'agape'
p531
I32
sS'get'
p532
I28
sS'quizzes'
p533
I32
sS'assistant'
p534
I32
sS'express'
p535
I31
sS'stop'
p536
I31
sS'amazon'
p537
I32
sS'cat'
p538
I32
sS'words'
p539
I30
sS'international'
p540
I32
sS'him'
p541
I30
sS'14'
p542
I32
sS'enemy'
p543
I32
sS'morgan'
p544
I32
sS'fields'
p545
I26
sS'cry'
p546
I32
sS'morning'
p547
I30
sS'bad'
p548
I29
sS'stupid'
p549
I32
sS'roger'
p550
I32
sS'she'
p551
I30
sS'shots'
p552
I32
sS'gotten'
p553
I32
sS"won't"
p554
I31
sS'gospel'
p555
I15
sS'steak'
p556
I32
sS'where'
p557
I31
sS'ears'
p558
I32
sS"y'all"
p559
I30
sS'set'
p560
I32
sS'reread'
p561
I32
sS'tia'
p562
I32
sS'w/'
p563
I30
sS'testing'
p564
I32
sS'ends'
p565
I32
sS'culture'
p566
I32
sS'see'
p567
I28
sS'are'
p568
I24
sS'parking'
p569
I32
sS'fail'
p570
I32
sS'hash'
p571
I32
sS'news'
p572
I32
sS'nations'
p573
I32
sS'cold'
p574
I32
sS'best'
p575
I32
sS'youth'
p576
I30
sS'said'
p577
I32
sS'luv'
p578
I32
sS'visiting'
p579
I32
sS'wow'
p580
I31
sS'currently'
p581
I32
sS'grindin'
p582
I32
sS"there's"
p583
I31
sS'supernatural'
p584
I32
sS'call'
p585
I32
sS'burned'
p586
I32
sS'fuxkz'
p587
I32
sS'across'
p588
I32
sS'tent'
p589
I32
sS'we'
p590
I22
sS'omg'
p591
I32
sS'creating'
p592
I32
sS'jt'
p593
I32
sS'the\xe2\x80\xa6'
p594
I32
sS'incident'
p595
I32
sS'joe'
p596
I32
sS'key'
p597
I32
sS'hurts'
p598
I32
sS'wth'
p599
I32
sS'20'
p600
I32
sS'come'
p601
I31
sS'blasted'
p602
I32
sS'pull'
p603
I32
sS'titties'
p604
I32
sS'daddy'
p605
I32
sS'last'
p606
I31
sS'license'
p607
I32
sS'2:30'
p608
I32
sS'career'
p609
I32
sS'many'
p610
I30
sS'taking'
p611
I32
sS'job'
p612
I32
sS'flipped'
p613
I32
sS'tour'
p614
I32
sS'games'
p615
I32
sS'lookin'
p616
I32
sS'mang'
p617
I32
sS'18901'
p618
I32
sS'asked'
p619
I32
sS"can't"
p620
I27
sS'ily'
p621
I31
sS'brining'
p622
I32
sS'[supernatural'
p623
I32
sS'point'
p624
I32
sS'simple'
p625
I32
sS'sky'
p626
I32
sS'ca'
p627
I29
sS'churchy'
p628
I32
sS'community'
p629
I19
sS'walk'
p630
I32
sS'running'
p631
I32
sS'alone'
p632
I32
sS'towels'
p633
I32
sS'church'
p634
I8
sS'rave'
p635
I32
sS"wouldn't"
p636
I32
sS'actually'
p637
I31
sS'late'
p638
I32
sS'unusual'
p639
I32
sS'blessing\xe2\x80\xa6'
p640
I32
sS'basis'
p641
I32
sS'addition'
p642
I32
sS"it's"
p643
I26
sS'autocorrect'
p644
I32
sS'ca)'
p645
I32
sS'maaaaake'
p646
I32
sS'vacation'
p647
I32
sS'responds'
p648
I32
sS'teacher'
p649
I32
sS'ticket-takers'
p650
I32
sS'\xe2\x9d\x84\xef\xb8\x8f'
p651
I32
sS'gopro'
p652
I32
sS'much'
p653
I29
sS'slowly'
p654
I32
sS'ireland'
p655
I32
sS'robertbmc'
p656
I32
sS'parents'
p657
I32
sS'celebration'
p658
I32
sS'define'
p659
I32
sS'life'
p660
I14
sS'wish'
p661
I32
sS'gay'
p662
I32
sS'waterboys'
p663
I32
sS"what's"
p664
I32
sS'blessing'
p665
I20
sS'else'
p666
I32
sS'child'
p667
I32
sS'spirit'
p668
I31
sS'redemption'
p669
I32
sS'sound'
p670
I32
sS'remy'
p671
I32
sS'myself'
p672
I32
sS'has'
p673
I30
sS'tank'
p674
I32
sS'look'
p675
I30
sS'woah'
p676
I32
sS'these'
p677
I31
sS'crowds'
p678
I32
sS'beats'
p679
I32
sS'smile'
p680
I32
sS'air'
p681
I32
sS'will'
p682
I32
sS'texas'
p683
I32
sS'b-day'
p684
I32
sS'hahaha'
p685
I32
sS'fun'
p686
I30
sS'voice'
p687
I32
sS'miracle]'
p688
I32
sS'launched'
p689
I32
sS'almost'
p690
I32
sS'celebrant'
p691
I32
sS'is'
p692
I16
sS'it'
p693
I14
sS'rip'
p694
I32
sS'piercing'
p695
I32
sS'middle'
p696
I32
sS'someone'
p697
I30
sS'in'
p698
I10
sS'ready'
p699
I32
sS'arabic'
p700
I32
sS'activity'
p701
I32
sS'kings'
p702
I32
sS'worry'
p703
I32
sS'if'
p704
I31
sS'different'
p705
I32
sS'develop'
p706
I32
sS'anymore'
p707
I30
sS'make'
p708
I32
sS'same'
p709
I32
sS'trip'
p710
I31
sS'matthew'
p711
I32
sS'negotiations'
p712
I32
sS'(walnut'
p713
I32
sS'grand'
p714
I31
sS'underground'
p715
I32
sS'party'
p716
I32
sS'used'
p717
I32
sS'pho'
p718
I31
sS"anastasia's"
p719
I32
sS'1-3'
p720
I32
sS'reunions'
p721
I32
sS'hang'
p722
I32
sS'eggstravaganza'
p723
I32
sS'(amar'
p724
I32
sS'moment'
p725
I32
sS'uses'
p726
I32
sS'purpose'
p727
I32
sS'jealous'
p728
I32
sS'plugs'
p729
I32
sS'totally'
p730
I31
sS"i'm"
p731
I13
sS'thoughts'
p732
I32
sS'booster'
p733
I32
sS'pacini'
p734
I32
sS'early'
p735
I32
sS'off'
p736
I30
sS'older'
p737
I32
sS'i'
p738
I4
sS'ranch'
p739
I21
sS'well'
p740
I31
sS'kyle'
p741
I32
sS'fighting'
p742
I32
sS'iv'
p743
I32
sS'more'
p744
I32
sS'cheer'
p745
I32
sS'(20101'
p746
I32
sS'comes'
p747
I32
sS'creek'
p748
I32
sS'(20747'
p749
I32
sS'five'
p750
I32
sS'the'
p751
I2
sS'patty'
p752
I32
sS'left'
p753
I32
sS'just'
p754
I19
sS'being'
p755
I31
sS'\xe2\x9a\xbd\xef\xb8\x8f\xe2\x9d\xa4\xef\xb8\x8f'
p756
I32
sS'proximity'
p757
I32
sS'ball\xe2\x80\xa6'
p758
I32
sS'front'
p759
I32
sS'thanks'
p760
I31
sS'immediately'
p761
I32
sS'paul'
p762
I32
sS'h2o-\xe2\x9c\x94'
p763
I32
sS'blow'
p764
I32
sS'wayyyyyy'
p765
I32
sS'cut'
p766
I32
sS'cus'
p767
I32
sS'family'
p768
I32
sS'sunflower'
p769
I32
sS'mix'
p770
I32
sS'cherry'
p771
I32
sS'drive'
p772
I32
sS'had'
p773
I30
sS'sometimes'
p774
I32
sS'nicki'
p775
I32
sS'adoption'
p776
I32
sS'testimonies'
p777
I30
sS'homies'
p778
I32
sS'ohhh'
p779
I32
sS'tax'
p780
I32
sS'save'
p781
I31
sS'easter'
p782
I32
sS'excited'
p783
I31
sS'match'
p784
I32
sS'kingdom'
p785
I30
sS'around'
p786
I31
sS'kills'
p787
I32
sS'big'
p788
I32
sS'gonna'
p789
I31
sS'dark'
p790
I32
sS'game'
p791
I29
sS'lesliee'
p792
I32
sS'know'
p793
I31
sS'listening'
p794
I32
sS'world'
p795
I32
sS'd'
p796
I32
sS'brought'
p797
I32
sS'insurgent'
p798
I32
sS'in-n-out'
p799
I32
sS'fireworks'
p800
I32
sS'like'
p801
I24
sS'-_-'
p802
I31
sS'postcard'
p803
I32
sS'miracle'
p804
I31
sS'taping'
p805
I32
sS'life.\xe2\x80\xa6'
p806
I32
sS'gras'
p807
I32
sS'laughing'
p808
I32
sS'night'
p809
I29
sS'leaves'
p810
I32
sS'nice'
p811
I32
sS'right'
p812
I27
sS'partying'
p813
I32
sS'laugh'
p814
I32
sS'people'
p815
I31
sS'fucking'
p816
I32
sS'spring'
p817
I32
sS'some'
p818
I31
sS'somehow'
p819
I32
sS'alive'
p820
I32
sS'oh'
p821
I29
sS'martial'
p822
I32
sS'usher'
p823
I32
sS'teammates:*scream'
p824
I32
sS'band'
p825
I32
sS'table'
p826
I32
sS'home'
p827
I32
sS'liking'
p828
I32
sS"lion's"
p829
I28
sS'sister'
p830
I32
sS'happens'
p831
I31
sS'"fuck'
p832
I32
sS'for'
p833
I11
sS'realistic'
p834
I32
sS'literally'
p835
I32
sS'snapchatted'
p836
I32
sS'/'
p837
I32
sS'petting'
p838
I32
sS'does'
p839
I31
sS'church\xe2\x80\xa6'
p840
I32
sS'conquering'
p841
I32
sS'stopped'
p842
I32
sS'christmas'
p843
I32
sS'anna'
p844
I31
sS'destroys'
p845
I32
sS'run'
p846
I31
sS'power'
p847
I31
sS'bc'
p848
I31
sS'corn'
p849
I31
sS'rock'
p850
I32
sS'arts'
p851
I32
sS'lemonheads'
p852
I32
sS'become'
p853
I32
sS'crap'
p854
I32
sS'post'
p855
I32
sS'super'
p856
I32
sS'by'
p857
I28
sS'mahhh'
p858
I32
sS'on'
p859
I21
sS'about'
p860
I29
sS'weighing'
p861
I32
sS'filipino'
p862
I32
sS'getting'
p863
I26
sS'of'
p864
I3
sS'plaza'
p865
I32
sS'o'
p866
I31
sS'financial'
p867
I32
sS'dinner'
p868
I32
sS'seeds'
p869
I32
sS'afternoon'
p870
I32
sS'youve'
p871
I32
sS'blocked'
p872
I32
sS'cadbury'
p873
I32
sS'or'
p874
I31
sS'road'
p875
I31
sS'flying'
p876
I32
sS'miracles'
p877
I32
sS'supernatural\xe2\x80\xa6'
p878
I32
sS'presence'
p879
I32
sS'auntie'
p880
I32
sS'pays'
p881
I32
sS'into'
p882
I28
sS'bound'
p883
I32
sS'snuggling'
p884
I32
sS'down'
p885
I31
sS'guard'
p886
I32
sS'because'
p887
I31
sS'city\xe2\x80\xa6'
p888
I32
sS'chairs-\xe2\x9c\x94'
p889
I32
sS'treetop'
p890
I32
sS'artists'
p891
I32
sS'elementary'
p892
I28
sS'lovely'
p893
I32
sS'your'
p894
I30
sS'goliath'
p895
I32
sS'fields)'
p896
I32
sS'idiots'
p897
I32
sS'her'
p898
I29
sS'1:28'
p899
I32
sS'weekend'
p900
I32
sS'tennis'
p901
I32
sS'apps'
p902
I32
sS'hey'
p903
I30
sS'lol'
p904
I28
sS'kidding'
p905
I31
sS'been'
p906
I32
sS"we're"
p907
I29
sS'way'
p908
I30
sS'biggest'
p909
I32
sS'damn'
p910
I32
sS'bored'
p911
I32
sS'was'
p912
I27
sS'jason'
p913
I32
sS'happy'
p914
I30
sS'stopping'
p915
I32
sS"bria's"
p916
I32
sS'prophetic'
p917
I32
sS'community\xe2\x80\xa6'
p918
I32
sS'neighbors'
p919
I32
sS"i've"
p920
I32
sS'something'
p921
I32
sS'bitches'
p922
I32
sS'pastor'
p923
I29
sS'but'
p924
I21
sS'back'
p925
I32
sS'reminds'
p926
I32
sS'link'
p927
I32
sS'dead'
p928
I32
sS'marlee20'
p929
I30
sS'[pic]'
p930
I32
sS'migrating'
p931
I32
sS'with'
p932
I16
sS'swarm'
p933
I32
sS'he'
p934
I30
sS'blaine'
p935
I32
sS"they're"
p936
I32
sS'thru'
p937
I32
sS'wise'
p938
I32
sS'grace'
p939
I32
sS'glory'
p940
I31
sS'slo-mo'
p941
I32
sS"wasn't"
p942
I32
sS"david's"
p943
I32
sS'official'
p944
I32
sS'up'
p945
I30
sS'us'
p946
I29
sS'screening/showing'
p947
I32
sS'coyotes!my'
p948
I32
sS'piece'
p949
I30
sS'crucible'
p950
I32
sS'skating'
p951
I32
sS'gone'
p952
I32
sS'later'
p953
I32
sS'money'
p954
I32
sS'91789'
p955
I32
sS'johnny'
p956
I32
sS'asking'
p957
I32
sS'bayless'
p958
I32
sS'am'
p959
I32
sS'popped'
p960
I32
sS'an'
p961
I30
sS'as'
p962
I27
sS'at'
p963
I12
sS'fashioned'
p964
I32
sS'et'
p965
I32
sS'nnw'
p966
I32
sS'rally'
p967
I32
sS'annoying'
p968
I32
sS'check'
p969
I31
sS'shit'
p970
I31
sS'echo'
p971
I32
sS'holy'
p972
I29
sS'dying'
p973
I31
sS'no'
p974
I32
sS'open'
p975
I32
sS'deserve'
p976
I32
sS'tito'
p977
I32
sS'when'
p978
I29
sS'saturday'
p979
I32
sS'field'
p980
I32
sS'old'
p981
I32
sS'pasadena'
p982
I32
sS'details'
p983
I32
sS'sick'
p984
I31
sS'mass'
p985
I32
sS'you'
p986
I7
sS'really'
p987
I31
sS"you're"
p988
I31
sS'gattison'
p989
I32
sS'poor'
p990
I32
sS'compassion'
p991
I32
sS'championship'
p992
I32
sS"'s"
p993
I32
sS'monday'
p994
I32
sS'separate'
p995
I32
sS'kairos'
p996
I31
sS'felt'
p997
I32
sS'\xe2\x98\xba\xef\xb8\x8f\xe2\x98\xba\xef\xb8\x8f'
p998
I32
sS'matt'
p999
I32
sS"let's"
p1000
I32
sS'cb3'
p1001
I32
sS'knee'
p1002
I32
sS'important'
p1003
I32
sS'smelling'
p1004
I31
sS'influence'
p1005
I32
sS'shift'
p1006
I32
sS'hunts'
p1007
I32
sS'friends'
p1008
I31
sS'missed'
p1009
I32
sS'building'
p1010
I32
sS'fuckin'
p1011
I32
sS'e'
p1012
I30
sS'psycobilly'
p1013
I32
sS'excuse'
p1014
I32
sS'rotting'
p1015
I32
sS'tricks'
p1016
I32
sS'walked'
p1017
I32
sS'withhold'
p1018
I32
sS'u'
p1019
I31
sS'time'
p1020
I24
sS'jennifer'
p1021
I32
s.