(dp0
S''
p1
I1
sS'raining'
p2
I128
sS'yellow'
p3
I128
sS'four'
p4
I126
sS'hanging'
p5
I126
sS'lenco'
p6
I128
sS'yetits'
p7
I128
sS'christian:/'
p8
I128
sS'lord'
p9
I118
sS'flicking'
p10
I128
sS"shouldn't"
p11
I127
sS'protestants'
p12
I128
sS'10:26:38.0,34.10683079,-117.93337402,4046,who'
p13
I128
sS'ampm)'
p14
I126
sS'"idk"'
p15
I128
sS"hangin'"
p16
I128
sS'prize'
p17
I128
sS'semakin'
p18
I128
sS'wednesday'
p19
I127
sS'oooo'
p20
I128
sS'challenge.i'
p21
I128
sS'let\xe2\x80\xa6'
p22
I128
sS'charter'
p23
I127
sS'here!!!,91706\n451918541064007680,cesar_magallon8,2014-04-04'
p24
I128
sS'tired'
p25
I117
sS'miller'
p26
I125
sS'second'
p27
I124
sS'torta,91010\n416987207853821953,laurui11,2013-12-28'
p28
I128
sS'relieving'
p29
I128
sS'thunder'
p30
I128
sS'fingers'
p31
I126
sS'saludos'
p32
I128
sS'duran'
p33
I128
sS'9999x'
p34
I128
sS'gayer'
p35
I128
sS'splinter'
p36
I128
sS'jasmine'
p37
I128
sS'here'
p38
I67
sS'\xe2\x9d\xa4\xef\xb8\x8f'
p39
I118
sS'&&'
p40
I128
sS'dorm'
p41
I128
sS'saxonia'
p42
I128
sS'mcdonalds)'
p43
I127
sS'dork'
p44
I128
sS"norah's"
p45
I128
sS'kids'
p46
I112
sS'uplifting'
p47
I128
sS'k'
p48
I121
sS'"why'
p49
I128
sS"i'd"
p50
I124
sS"i'm"
p51
I15
sS'choice.,91706\n415179534011334656,vicgetsilly,2013-12-23'
p52
I128
sS'dad.\xe2\x80\x9d,91706\n395409250878377984,vicgetsilly,2013-10-30'
p53
I128
sS'rings\xe2\x80\xa6'
p54
I128
sS'hahahahah'
p55
I127
sS'ducky'
p56
I128
sS'cheating'
p57
I127
sS'dna'
p58
I127
sS'music'
p59
I118
sS'strike'
p60
I123
sS'until'
p61
I119
sS'paperwork'
p62
I128
sS'holy'
p63
I122
sS'relax'
p64
I128
sS'successful'
p65
I128
sS'subtweet'
p66
I128
sS'hurt'
p67
I126
sS'99'
p68
I128
sS'glass'
p69
I128
sS'90'
p70
I126
sS'hold'
p71
I124
sS'unpack'
p72
I127
sS'hola'
p73
I128
sS'circumstances'
p74
I128
sS'intake'
p75
I128
sS'hablemos'
p76
I128
sS'locked'
p77
I128
sS'sinking'
p78
I128
sS'sing,91706\n449019167056728064,robrodriguezz,2014-03-27'
p79
I128
sS'dragons'
p80
I127
sS'want'
p81
I64
sS'absolute'
p82
I128
sS'hoe'
p83
I126
sS'complaining'
p84
I127
sS'hoo'
p85
I128
sS'feature'
p86
I128
sS'machine'
p87
I126
sS'how'
p88
I67
sS'hot'
p89
I102
sS'(16025'
p90
I125
sS'hoy'
p91
I121
sS'(13300'
p92
I128
sS'beauty'
p93
I128
sS'funny'
p94
I120
sS'wrong'
p95
I114
sS'...oh'
p96
I128
sS'(:\xe2\x80\x9d'
p97
I128
sS'wins'
p98
I128
sS'wink'
p99
I128
sS'buggin'
p100
I128
sS'keeps'
p101
I127
sS'wing'
p102
I128
sS'keepz'
p103
I128
sS'ma\xc3\xb1ana'
p104
I128
sS'fir'
p105
I128
sS'fit'
p106
I126
sS'fiu'
p107
I128
sS'fix'
p108
I128
sS'*screenshot*'
p109
I128
sS'easier'
p110
I127
sS'\xe2\x80\x9cyou'
p111
I128
sS'schools'
p112
I128
sS'blink'
p113
I128
sS'debut'
p114
I128
sS'arrow'
p115
I122
sS'addicted'
p116
I125
sS'jay-z'
p117
I128
sS"m'lady"
p118
I128
sS'ya,91010\n500116333124927488,babyyrossee,2014-08-15'
p119
I128
sS'19:00:42.0,34.1067331,-117.9255377,4046,got'
p120
I128
sS'financial'
p121
I127
sS'knockout'
p122
I128
sS'series'
p123
I127
sS'spider'
p124
I128
sS"bob'n'weave"
p125
I128
sS'ring'
p126
I127
sS'whip'
p127
I128
sS'rt'
p128
I111
sS'xq'
p129
I128
sS'(((('
p130
I128
sS'rd'
p131
I117
sS'smh'
p132
I118
sS'rn'
p133
I100
sS'ri'
p134
I128
sS'sma'
p135
I125
sS'anggota'
p136
I128
sS'oooh'
p137
I128
sS'threatened'
p138
I128
sS'"hey'
p139
I128
sS'kayla'
p140
I128
sS'pumpkins'
p141
I128
sS'4624'
p142
I128
sS'crowned'
p143
I128
sS'ate'
p144
I126
sS'heading'
p145
I128
sS'speedy'
p146
I127
sS"today's"
p147
I128
sS'whirlwind'
p148
I128
sS'shacking'
p149
I128
sS'stripe'
p150
I128
sS'channels'
p151
I127
sS'wash'
p152
I124
sS'spinning'
p153
I127
sS'roundabout'
p154
I128
sS'basketball'
p155
I126
sS'service'
p156
I128
sS'needed'
p157
I127
sS',91706\n391244158368624640,vicgetsilly,2013-10-18'
p158
I128
sS'master'
p159
I128
sS'legs'
p160
I123
sS'bitter'
p161
I128
sS'listen'
p162
I122
sS'rewards'
p163
I128
sS'nirvana'
p164
I127
sS'palsy'
p165
I128
sS'crawl'
p166
I128
sS'said\xe2\x80\x9dnick'
p167
I128
sS'trek'
p168
I128
sS'diaria'
p169
I128
sS'showed'
p170
I128
sS'tree'
p171
I126
sS'likely'
p172
I128
sS'trey'
p173
I127
sS'18:38:45.0,34.10808269,-117.97133729,4046,but'
p174
I128
sS'oddwood'
p175
I127
sS'tres'
p176
I128
sS'feeling'
p177
I121
sS'este'
p178
I128
sS'esta'
p179
I128
sS'runner'
p180
I128
sS'hug'
p181
I127
sS'pocaparker'
p182
I127
sS'cesar'
p183
I128
sS'person'
p184
I115
sS"guys'"
p185
I128
sS'responsible'
p186
I128
sS'racers'
p187
I128
sS'matthew'
p188
I128
sS'causing'
p189
I128
sS'doors'
p190
I127
sS'menudo'
p191
I128
sS"mitzi's"
p192
I128
sS'shall'
p193
I127
sS'doin'
p194
I126
sS'mouth'
p195
I124
sS'subtweetin'
p196
I128
sS'conceded'
p197
I127
sS'laughing'
p198
I125
sS'episode'
p199
I127
sS'camp'
p200
I126
sS'tech'
p201
I128
sS'incompleta'
p202
I128
sS'mensaje'
p203
I128
sS'came'
p204
I118
sS'saying'
p205
I121
sS'bomb'
p206
I116
sS'bonnie'
p207
I123
sS'nominated'
p208
I128
sS'forsure'
p209
I128
sS'thai'
p210
I126
sS'lessons'
p211
I128
sS'busy'
p212
I121
sS'lights'
p213
I127
sS'mi\xc3\xa9rcoles'
p214
I128
sS'cousins'
p215
I125
sS'bellflower'
p216
I128
sS'"angelica!!?"'
p217
I128
sS'bliss'
p218
I128
sS'rick'
p219
I128
sS'rich'
p220
I127
sS'rice'
p221
I126
sS'plate'
p222
I127
sS'godzilla'
p223
I128
sS"year's\xe2\x80\xa6"
p224
I128
sS'window"?just'
p225
I128
sS'jesus...if'
p226
I128
sS'14:08:32.0,34.10736144,-117.934675,4046,grabbing'
p227
I128
sS'racsox'
p228
I128
sS'uraken'
p229
I128
sS'spilling'
p230
I128
sS'nicely'
p231
I128
sS'patch'
p232
I128
sS'tbhme'
p233
I128
sS'respond'
p234
I128
sS'blew'
p235
I128
sS'fair'
p236
I124
sS'goodnight'
p237
I127
sS'for\xe2\x80\xa6'
p238
I124
sS'fail'
p239
I127
sS'nocturnal'
p240
I128
sS'jabari'
p241
I128
sS'best'
p242
I92
sS'lots'
p243
I124
sS'pancakes'
p244
I128
sS'score'
p245
I127
sS'pirate'
p246
I126
sS'alguien'
p247
I128
sS'rehab.\xe2\x80\x9d'
p248
I128
sS'oomf'
p249
I128
sS'nature'
p250
I128
sS'pad)'
p251
I128
sS'wtf'
p252
I115
sS',91010\n501614541336113152,ohselenee,2014-08-19'
p253
I128
sS'accident'
p254
I126
sS'country'
p255
I127
sS'pits'
p256
I125
sS'$gettin$big$cash'
p257
I128
sS'adventures'
p258
I127
sS'lot)'
p259
I128
sS'planned'
p260
I128
sS'lookin'
p261
I125
sS'forever.,91706\n502190121941094400,laurui11,2014-08-20'
p262
I128
sS'argue'
p263
I127
sS'asked'
p264
I121
sS'30th'
p265
I128
sS'5\xe2\x80\xa6'
p266
I128
sS'matty'
p267
I128
sS'2nd'
p268
I124
sS'canyon'
p269
I128
sS'blonde'
p270
I128
sS'summat'
p271
I128
sS'brackfas'
p272
I128
sS'skatepark'
p273
I127
sS'union'
p274
I128
sS'fro'
p275
I128
sS'much'
p276
I80
sS'pro'
p277
I123
sS'life'
p278
I65
sS'caf\xc3\xa9'
p279
I128
sS'courtney'
p280
I127
sS'worker'
p281
I127
sS'(yey)'
p282
I128
sS'dave'
p283
I125
sS'child'
p284
I126
sS'aventador'
p285
I128
sS'chili'
p286
I128
sS'haters'
p287
I128
sS'cunt'
p288
I128
sS'wildcat'
p289
I128
sS'respectnt'
p290
I128
sS'castre'
p291
I128
sS'querian'
p292
I128
sS'irwindale\xe2\x80\xa6'
p293
I126
sS'shaw\xe2\x80\xa6'
p294
I128
sS'taper'
p295
I128
sS'unloading'
p296
I128
sS'tanning'
p297
I128
sS'remembering'
p298
I128
sS'played'
p299
I122
sS'player'
p300
I127
sS'madonna'
p301
I128
sS'whoopin'
p302
I128
sS'trustee'
p303
I128
sS'memorial'
p304
I128
sS'fotos'
p305
I128
sS'things'
p306
I108
sS'parrandiando'
p307
I128
sS'f***?!"'
p308
I128
sS'babies'
p309
I126
sS'tuna'
p310
I128
sS'amya'
p311
I128
sS'"who'
p312
I128
sS'tune'
p313
I128
sS'lucas'
p314
I128
sS'llenaron'
p315
I128
sS'burgers'
p316
I127
sS'goofing'
p317
I128
sS'plaque'
p318
I128
sS'opinions'
p319
I128
sS'hapawoo'
p320
I128
sS'sleepy'
p321
I128
sS'noyvjrd'
p322
I128
sS'kroq'
p323
I128
sS'syariat'
p324
I128
sS'hah'
p325
I128
sS'handshake'
p326
I128
sS"20:21:58.0,34.10673916,-117.934202,4046,i'm"
p327
I128
sS'ham'
p328
I127
sS'zoebowe\xe2\x80\xa6'
p329
I128
sS'peackza'
p330
I128
sS'had'
p331
I80
sS'innocent'
p332
I128
sS'east'
p333
I122
sS'hat'
p334
I127
sS'torrance'
p335
I127
sS'possible'
p336
I128
sS'possibly'
p337
I128
sS'12:30'
p338
I128
sS'life.\xe2\x80\xa6'
p339
I128
sS'dothis'
p340
I128
sS'alice'
p341
I128
sS'doing?me&christine:drunk'
p342
I128
sS'remind'
p343
I128
sS'festivities'
p344
I126
sS'fooshoooo'
p345
I128
sS'right'
p346
I77
sS'old'
p347
I111
sS'crowd'
p348
I126
sS'people'
p349
I59
sS'easy'
p350
I127
sS'crown'
p351
I128
sS'tajin'
p352
I128
sS'billboard'
p353
I128
sS'52nd'
p354
I127
sS'for'
p355
I11
sS'aiiiint'
p356
I128
sS'foe'
p357
I128
sS'continue'
p358
I127
sS'umm'
p359
I128
sS'foo'
p360
I126
sS'23:23:06.0,34.1338782,-117.9540781,4046,be'
p361
I128
sS"ol'"
p362
I127
sS'losing'
p363
I127
sS'memorable'
p364
I127
sS'stokes'
p365
I128
sS'mexico!!:d'
p366
I128
sS'dollars'
p367
I128
sS'o'
p368
I117
sS'despair'
p369
I128
sS'stoked'
p370
I125
sS'slightly'
p371
I128
sS'raised'
p372
I128
sS'statements'
p373
I128
sS'trouble"wtf'
p374
I128
sS'marshall'
p375
I128
sS'soo'
p376
I123
sS'son'
p377
I123
sS'thankful'
p378
I128
sS'wrap'
p379
I126
sS'shoots'
p380
I128
sS'support'
p381
I128
sS'nova'
p382
I128
sS'joseph'
p383
I127
sS'spring'
p384
I126
sS'joshlbarnett'
p385
I128
sS'avocados'
p386
I128
sS'happy'
p387
I66
sS'offer'
p388
I128
sS'paypal'
p389
I128
sS'forever'
p390
I122
sS'melanie'
p391
I126
sS'verde'
p392
I128
sS'congratulations'
p393
I127
sS'paliacate'
p394
I128
sS'martial'
p395
I126
sS'inside'
p396
I123
sS'peso'
p397
I128
sS'smashed'
p398
I128
sS'later'
p399
I124
sS'tournament'
p400
I128
sS'hungry'
p401
I121
sS'exist'
p402
I128
sS'mariscos'
p403
I119
sS'floor'
p404
I128
sS'them...wow...what'
p405
I128
sS'pasadena'
p406
I124
sS'becuase'
p407
I127
sS'smell'
p408
I121
sS'roll'
p409
I122
sS"'s"
p410
I125
sS'models'
p411
I127
sS'outage'
p412
I128
sS'larp'
p413
I128
sS'palma'
p414
I128
sS'miranda'
p415
I128
sS'rolling'
p416
I128
sS'02:52:36.0,34.1320637,-117.94966559,4046,210'
p417
I128
sS'packets'
p418
I128
sS'bball'
p419
I128
sS'time'
p420
I56
sS'peacock'
p421
I128
sS':/'
p422
I123
sS':('
p423
I109
sS':)'
p424
I104
sS':*'
p425
I125
sS'oss'
p426
I127
sS'burritos'
p427
I128
sS'skate'
p428
I128
sS'they\xe2\x80\xa6'
p429
I128
sS'skiing'
p430
I128
sS':3'
p431
I127
sS'bitchin'
p432
I128
sS'ver'
p433
I128
sS'95'
p434
I128
sS'decir'
p435
I128
sS'veo'
p436
I128
sS'lt-cutie'
p437
I127
sS'jooleeunn'
p438
I128
sS':o'
p439
I127
sS':d'
p440
I118
sS'choice'
p441
I126
sS':|'
p442
I128
sS'stays'
p443
I128
sS'fullest'
p444
I128
sS':p'
p445
I127
sS'minute'
p446
I127
sS'gold....leaf'
p447
I128
sS'leave'
p448
I119
sS'settle'
p449
I128
sS'subway'
p450
I127
sS'teal'
p451
I128
sS'team'
p452
I114
sS'loads'
p453
I128
sS'siga'
p454
I128
sS'monrovia)'
p455
I128
sS'sign'
p456
I123
sS'up,91706\n495747043499864064,rawoolz,2014-08-03'
p457
I128
sS'roof'
p458
I128
sS'104:33'
p459
I128
sS'jeopardy'
p460
I128
sS'axes'
p461
I128
sS'melt'
p462
I128
sS'current'
p463
I127
sS's13'
p464
I126
sS'uruapan'
p465
I122
sS'melo'
p466
I128
sS'falling'
p467
I126
sS'azusa'
p468
I125
sS'oldies'
p469
I128
sS'address'
p470
I127
sS'alone'
p471
I124
sS'along'
p472
I127
sS'autographs.\xe2\x80\xa6'
p473
I128
sS'03:05:51.0,34.10746306,-117.98331652,4046,ram'
p474
I128
sS'love'
p475
I47
sS'91:1-2'
p476
I128
sS'bloody'
p477
I128
sS'fake'
p478
I125
sS'carol'
p479
I128
sS'red'
p480
I116
sS'to\xe2\x80\xa6'
p481
I128
sS'working'
p482
I111
sS'positive'
p483
I125
sS'angry'
p484
I128
sS'cherished'
p485
I128
sS'loving'
p486
I124
sS'lmpe'
p487
I128
sS'introducing'
p488
I128
sS'taaan'
p489
I128
sS'everywhere'
p490
I125
sS'skut'
p491
I128
sS'behalf'
p492
I128
sS'pretend'
p493
I127
sS'ladito'
p494
I128
sS'following'
p495
I125
sS'coraz\xc3\xb3n'
p496
I128
sS'groupme'
p497
I128
sS'awesome'
p498
I104
sS'voces'
p499
I128
sS'nascar'
p500
I122
sS'locks'
p501
I128
sS'allowed'
p502
I128
sS'offense'
p503
I128
sS'apunte'
p504
I128
sS'piled'
p505
I128
sS"s'"
p506
I128
sS'1000hp'
p507
I128
sS'senpai'
p508
I128
sS'snaps'
p509
I128
sS'ba$ed'
p510
I128
sS'laundry'
p511
I127
sS'19:48:24.0,34.1259978,-117.9648353,4046,leave'
p512
I128
sS'3hunna'
p513
I128
sS'blasting'
p514
I127
sS'spot'
p515
I126
sS'date'
p516
I116
sS'such'
p517
I101
sS'suck'
p518
I122
sS'ss'
p519
I124
sS'wheelchair'
p520
I128
sS'sv'
p521
I127
sS'su'
p522
I128
sS'fordracing'
p523
I128
sS'si'
p524
I124
sS'mango'
p525
I127
sS'so'
p526
I21
sS'us\xe2\x80\xa6'
p527
I125
sS'sc'
p528
I127
sS'pulled'
p529
I126
sS'se'
p530
I120
sS'years'
p531
I112
sS'kony'
p532
I128
sS'episodes'
p533
I126
sS'kanye'
p534
I128
sS'thaaat'
p535
I128
sS'lovelies'
p536
I128
sS'a+++well'
p537
I128
sS'hov'
p538
I128
sS'djs'
p539
I128
sS'thumb'
p540
I128
sS'toro'
p541
I127
sS'jim'
p542
I127
sS'tori'
p543
I128
sS'stupidity'
p544
I127
sS'faves'
p545
I127
sS'jiu'
p546
I128
sS'decades'
p547
I128
sS'instantly'
p548
I128
sS'shhs'
p549
I128
sS'wooo!!!!woo'
p550
I128
sS'bashful'
p551
I128
sS'todaay'
p552
I128
sS'ahaha'
p553
I125
sS'photoshoot'
p554
I128
sS'turtle'
p555
I127
sS'charro'
p556
I128
sS'honduras'
p557
I127
sS'lowkey'
p558
I125
sS'sponsor'
p559
I128
sS'19:34:27.0,34.13396966,-117.93795708,4046,siiiike'
p560
I128
sS'squared'
p561
I128
sS'seriously'
p562
I108
sS'exploding'
p563
I128
sS'cobb'
p564
I128
sS'internet'
p565
I126
sS'formula'
p566
I114
sS'tauriel'
p567
I125
sS'tienen'
p568
I128
sS'million'
p569
I127
sS'6:23'
p570
I128
sS'you?"'
p571
I128
sS'remainder'
p572
I128
sS'training'
p573
I121
sS'spam'
p574
I128
sS'rose\xe2\x80\xa6'
p575
I128
sS'swabyou'
p576
I128
sS'socking'
p577
I128
sS'punx'
p578
I128
sS'emotion'
p579
I128
sS'mucho'
p580
I128
sS'vote'
p581
I128
sS'hubster'
p582
I128
sS'open'
p583
I120
sS'onw'
p584
I128
sS'city'
p585
I119
sS',91010\n418499253342724096,jamie3ooo,2014-01-01'
p586
I128
sS'bite'
p587
I126
sS'guadalupe'
p588
I120
sS'fml'
p589
I122
sS'2'
p590
I66
sS'draft'
p591
I127
sS'stuffed'
p592
I128
sS'someome'
p593
I128
sS'williams'
p594
I128
sS'shawn'
p595
I128
sS'ridiculous'
p596
I128
sS'event\xe2\x80\xa6'
p597
I125
sS'representing'
p598
I125
sS'royal'
p599
I128
sS'i\xe2\x80\x99ll'
p600
I128
sS'rival'
p601
I126
sS'non-stop'
p602
I128
sS'rehab'
p603
I128
sS'future'
p604
I126
sS'frehley'
p605
I128
sS'san'
p606
I117
sS'sam'
p607
I126
sS'ahhhhhhhh'
p608
I128
sS'(we'
p609
I128
sS'turned'
p610
I126
sS'locations'
p611
I128
sS'sad'
p612
I116
sS'say'
p613
I85
sS'lurking'
p614
I128
sS'saw'
p615
I120
sS'sat'
p616
I128
sS'estamos'
p617
I128
sS'warriors'
p618
I127
sS'rennaisance'
p619
I93
sS'chonyboy'
p620
I128
sS'note'
p621
I128
sS'omfg'
p622
I121
sS'take'
p623
I86
sS'destroy'
p624
I128
sS'atoshi'
p625
I128
sS'printer'
p626
I128
sS'opposite'
p627
I128
sS'wifey?"'
p628
I128
sS'time.)'
p629
I128
sS'knew'
p630
I124
sS'buffet'
p631
I128
sS'raver*eat'
p632
I128
sS'chanclas'
p633
I128
sS'lawn'
p634
I128
sS'b-ballin'
p635
I128
sS'crooked'
p636
I128
sS'cobra'
p637
I128
sS'q45'
p638
I128
sS'\xe2\x9c\xa8'
p639
I124
sS'lotus'
p640
I128
sS'bright'
p641
I127
sS"daniel's"
p642
I128
sS'\xe2\x9c\x8c'
p643
I127
sS'slow'
p644
I125
sS'\xe2\x9c\x8b'
p645
I128
sS'\xe2\x9c\x8a'
p646
I127
sS'tears'
p647
I128
sS'going'
p648
I59
sS'truuuu'
p649
I128
sS'hockey'
p650
I127
sS'apodera'
p651
I128
sS'goodluck'
p652
I127
sS'*sleazy'
p653
I128
sS'freezing'
p654
I127
sS'19:54:14.0,34.1354033,-117.9488473,4046,hhaha'
p655
I128
sS'southside'
p656
I128
sS'thankss???,91010\n411221012940726272,dee_christinee,2013-12-12'
p657
I128
sS'pimp'
p658
I128
sS'artist'
p659
I128
sS'worried'
p660
I127
sS"could've"
p661
I127
sS'bombs'
p662
I128
sS'where'
p663
I102
sS'xmas'
p664
I128
sS'espn'
p665
I128
sS'gangster'
p666
I128
sS'anyways'
p667
I128
sS'surgery'
p668
I128
sS'goals.\xe2\x80\x9d'
p669
I128
sS'sites'
p670
I128
sS'comp'
p671
I128
sS'affecting'
p672
I128
sS',91010\n500782871704256512,mjaychalkey,2014-08-16'
p673
I128
sS'grandpas'
p674
I128
sS'jobs'
p675
I128
sS'cuus'
p676
I128
sS'strip\xe2\x80\xa6'
p677
I128
sS'manu'
p678
I128
sS'many'
p679
I114
sS's'
p680
I126
sS'backpack'
p681
I128
sS"can't"
p682
I73
sS'nooooo'
p683
I127
sS'twin'
p684
I128
sS'3000'
p685
I128
sS'constant'
p686
I128
sS'boat'
p687
I128
sS'caring'
p688
I128
sS'stretch'
p689
I127
sS'west'
p690
I125
sS'vacation'
p691
I125
sS'breath'
p692
I128
sS'showtime'
p693
I128
sS'collided'
p694
I128
sS'doezen'
p695
I128
sS'on\xe2\x80\xa6'
p696
I123
sS'lanes'
p697
I126
sS'great\xe2\x80\xa6'
p698
I128
sS'bernardino'
p699
I128
sS'formed'
p700
I128
sS'funnnnnnnnn'
p701
I128
sS'photos'
p702
I127
sS'06:18:41.0,34.10664983,-117.93270633,4046,,91706\n502316854640394240,athenabd,2014-08-21'
p703
I128
sS'former'
p704
I127
sS'felling'
p705
I128
sS'\xe2\x80\x9cdo'
p706
I128
sS'single'
p707
I123
sS'pollo'
p708
I128
sS'newspaper'
p709
I128
sS'mcneilracing78'
p710
I127
sS'passes'
p711
I128
sS'ive'
p712
I128
sS'23:18:09.0,34.0993811,-117.9874151,4046,i'
p713
I128
sS'you...i'
p714
I128
sS'canon'
p715
I127
sS'speedway'
p716
I80
sS'wessss'
p717
I127
sS'cardio'
p718
I128
sS'baaabe'
p719
I128
sS'fame'
p720
I128
sS'kedua'
p721
I128
sS'theeren'
p722
I128
sS'18:32:38.0,34.10736144,-117.934675,4046,grabbing'
p723
I128
sS'manitowoc'
p724
I128
sS'\xd5\xac\xd5\xbc\xd5\xab\xd5\xbe'
p725
I128
sS'cheers'
p726
I127
sS'advertisement'
p727
I128
sS'tracking'
p728
I128
sS'^.^'
p729
I127
sS'nothin'
p730
I128
sS'alfredo'
p731
I128
sS'genie'
p732
I128
sS'grumpy'
p733
I127
sS'hubby'
p734
I128
sS'shitttt'
p735
I128
sS'summer'
p736
I112
sS'haylee'
p737
I125
sS'21:30:08.0,34.12453162,-117.96602079,4046,i'
p738
I128
sS'210'
p739
I111
sS'being'
p740
I98
sS'rest'
p741
I124
sS'gdi'
p742
I128
sS'21+'
p743
I127
sS'rolexes'
p744
I128
sS'shiiiiiiieeeeeet'
p745
I128
sS'(lunging)'
p746
I128
sS'starving'
p747
I127
sS'around'
p748
I115
sS'darr'
p749
I128
sS'neuer'
p750
I128
sS'dari'
p751
I128
sS'traffic'
p752
I104
sS'(-'
p753
I117
sS'boats)'
p754
I128
sS'world'
p755
I108
sS"('"
p756
I128
sS'dare'
p757
I128
sS'clan'
p758
I122
sS'in-n-out'
p759
I128
sS'stranger'
p760
I127
sS'ahahahahahahahahaha'
p761
I128
sS'64'
p762
I128
sS'clap'
p763
I128
sS'seating'
p764
I128
sS';p'
p765
I128
sS'learning'
p766
I128
sS'grub'
p767
I127
sS'pickled'
p768
I128
sS'arriv\xc3\xa9s'
p769
I128
sS';d'
p770
I128
sS'playin'
p771
I128
sS';o'
p772
I128
sS'thinks'
p773
I125
sS'yesss'
p774
I128
sS'03:20:08.0,34.1300646,-117.9416175,4046,these'
p775
I128
sS'memories'
p776
I125
sS'perdis'
p777
I128
sS'reason\xe2\x9d\xa4'
p778
I128
sS'911'
p779
I127
sS'refer'
p780
I128
sS'power'
p781
I125
sS'booooo'
p782
I128
sS'booooi'
p783
I128
sS'throwback'
p784
I127
sS';)'
p785
I113
sS';('
p786
I126
sS'be\xe2\x80\xa6'
p787
I128
sS'ace'
p788
I128
sS'package'
p789
I128
sS'"uhhh'
p790
I128
sS'favorite'
p791
I112
sS'meal'
p792
I128
sS'act'
p793
I127
sS'luck'
p794
I123
sS'shirt,91706\n492968889764937728,mervinkid,2014-07-26'
p795
I128
sS'burning'
p796
I127
sS'charly'
p797
I128
sS'fishes'
p798
I128
sS'parties'
p799
I127
sS"how's"
p800
I127
sS'her'
p801
I79
sS'hes'
p802
I128
sS'hey'
p803
I117
sS'meals'
p804
I127
sS'hee'
p805
I128
sS"how'd"
p806
I127
sS'tacobell'
p807
I128
sS'obvious)'
p808
I128
sS'back."'
p809
I128
sS'"awful"'
p810
I128
sS'iamrfranks'
p811
I128
sS'6:40'
p812
I127
sS'elektabilitas'
p813
I128
sS'complete'
p814
I125
sS'bowls'
p815
I128
sS'survived'
p816
I128
sS'shodan'
p817
I127
sS'with'
p818
I18
sS'buying'
p819
I127
sS'handsome'
p820
I128
sS'lol,91706\n478749690289090560,frankmccombfans,2014-06-17'
p821
I128
sS'pull'
p822
I126
sS'rush'
p823
I126
sS'october'
p824
I128
sS'dawg'
p825
I126
sS'dirty'
p826
I125
sS'baaaaaaack'
p827
I128
sS'agree'
p828
I127
sS'propias'
p829
I128
sS'gone'
p830
I121
sS'ac'
p831
I126
sS'ohh'
p832
I123
sS'butthole'
p833
I127
sS'johnny'
p834
I126
sS'af'
p835
I107
sS'exhausted'
p836
I126
sS'ah'
p837
I126
sS'doug'
p838
I128
sS'am'
p839
I97
sS'al'
p840
I123
sS'watches'
p841
I128
sS'an'
p842
I70
sS'ap'
p843
I127
sS'as'
p844
I76
sS'\xe2\x9d\xa4\xef\xb8\x8f\xe2\x98\xba\xef\xb8\x8f'
p845
I128
sS'at'
p846
I8
sS'walks'
p847
I128
sS'ay'
p848
I128
sS'watched'
p849
I128
sS'yoga'
p850
I128
sS'tight'
p851
I127
sS'hella'
p852
I126
sS'puppy'
p853
I128
sS'shaun'
p854
I128
sS'a"'
p855
I128
sS'drive-thru'
p856
I128
sS'congress'
p857
I128
sS'dented'
p858
I128
sS'gifts'
p859
I128
sS'midget'
p860
I128
sS'gayest'
p861
I128
sS'slang'
p862
I128
sS'thore'
p863
I128
sS'tricks'
p864
I128
sS'15:59:29.0,34.13470475,-117.95880823,4046,zona'
p865
I128
sS'having'
p866
I110
sS'mass'
p867
I128
sS'adam'
p868
I126
sS'original'
p869
I126
sS'resos'
p870
I128
sS'sce'
p871
I126
sS'dodnt'
p872
I128
sS'debris'
p873
I128
sS'reasoning'
p874
I128
sS'causes'
p875
I128
sS'careful'
p876
I128
sS'ty'
p877
I124
sS'tv'
p878
I120
sS'tu'
p879
I120
sS'ts'
p880
I127
sS'including'
p881
I128
sS"half's"
p882
I128
sS'to'
p883
I4
sS'nora'
p884
I128
sS'23:29:11.0,34.13439605,-117.95795613,4046,is'
p885
I128
sS'ti'
p886
I127
sS'tf'
p887
I124
sS'manda'
p888
I128
sS'te'
p889
I124
sS'ghana'
p890
I128
sS'case'
p891
I128
sS'innout'
p892
I128
sS'right.,91706\n388021672223055873,vicgetsilly,2013-10-09'
p893
I128
sS'condition'
p894
I128
sS'17th'
p895
I128
sS'cable'
p896
I127
sS'shenanigans'
p897
I128
sS'laying'
p898
I126
sS'large'
p899
I127
sS'kaskade,91010\n496434519529238528,djharass,2014-08-04'
p900
I128
sS'small'
p901
I127
sS'braid'
p902
I128
sS'cahsee'
p903
I128
sS'tardis'
p904
I128
sS'wooooooow'
p905
I128
sS'past'
p906
I128
sS'pass'
p907
I121
sS'"act"'
p908
I128
sS'clock'
p909
I128
sS'youuu'
p910
I127
sS'fucks'
p911
I126
sS'fuckk'
p912
I128
sS'full'
p913
I122
sS'andddd'
p914
I128
sS'hours'
p915
I107
sS'november'
p916
I128
sS'legend'
p917
I125
sS'mandados'
p918
I128
sS'experience'
p919
I114
sS'pics'
p920
I128
sS'buen'
p921
I127
sS'social'
p922
I124
sS'action'
p923
I108
sS"would've"
p924
I127
sS'via'
p925
I124
sS'followed'
p926
I128
sS'escuchar'
p927
I128
sS'vip'
p928
I128
sS'send'
p929
I118
sS'gosh'
p930
I128
sS'(duarte)'
p931
I128
sS'kaitlyn'
p932
I128
sS'ballas'
p933
I128
sS'poodle'
p934
I128
sS'morn'
p935
I128
sS'people-faces-names'
p936
I128
sS'6'
p937
I117
sS'standed'
p938
I127
sS'more'
p939
I79
sS'door'
p940
I127
sS'disgusting,91010\n510882688602226689,djharass,2014-09-13'
p941
I128
sS'corrected'
p942
I128
sS'desgastados'
p943
I128
sS'caca'
p944
I128
sS'dislike'
p945
I127
sS'keeping'
p946
I128
sS'house/the'
p947
I128
sS'malu'
p948
I128
sS'mall'
p949
I127
sS'morgan'
p950
I99
sS'learn'
p951
I126
sS'beautiful'
p952
I107
sS'(with'
p953
I128
sS'\xe2\x9a\xbe'
p954
I128
sS'"can"'
p955
I128
sS'accept'
p956
I127
sS'states'
p957
I127
sS'salty'
p958
I123
sS'sense'
p959
I124
sS'gallon'
p960
I128
sS'dress'
p961
I125
sS'huge'
p962
I124
sS'clint'
p963
I128
sS'fauxy'
p964
I128
sS'plans'
p965
I127
sS'soundtrack'
p966
I127
sS'plane'
p967
I128
sS'been\xe2\x80\xa6'
p968
I128
sS'refuse'
p969
I128
sS'organization'
p970
I128
sS'volleyball'
p971
I128
sS'outside\xe2\x98\xba\xef\xb8\x8f'
p972
I128
sS'perception'
p973
I128
sS'jordans'
p974
I128
sS'mexican'
p975
I126
sS'bowl'
p976
I127
sS'papel'
p977
I128
sS'trade'
p978
I128
sS'attitude'
p979
I123
sS'paper'
p980
I127
sS'scott'
p981
I128
sS'replies'
p982
I128
sS'07:53:17.0,34.10664983,-117.93270633,4046,just'
p983
I128
sS'broadway'
p984
I125
sS'cochito'
p985
I128
sS'its'
p986
I101
sS'turtles\xe2\x80\x9d'
p987
I128
sS'bummed'
p988
I128
sS'sinaloense'
p989
I128
sS'cartman'
p990
I128
sS'shiiiiiit'
p991
I128
sS'it)'
p992
I128
sS'sucker'
p993
I128
sS'it"'
p994
I128
sS'idols'
p995
I128
sS'sucked'
p996
I128
sS'nivhow'
p997
I128
sS'everytime'
p998
I126
sS'always'
p999
I73
sS'gorditas'
p1000
I128
sS"w's"
p1001
I128
sS'found'
p1002
I124
sS'1\xe2\x83\xa37\xe2\x83\xa3'
p1003
I128
sS'disappearing'
p1004
I128
sS'status'
p1005
I128
sS'england'
p1006
I128
sS'throwin'
p1007
I128
sS'tonite'
p1008
I125
sS'blues'
p1009
I128
sS'really'
p1010
I81
sS'24hours'
p1011
I128
sS'missed'
p1012
I124
sS'research'
p1013
I127
sS'highway'
p1014
I124
sS'downs'
p1015
I128
sS'drifting'
p1016
I127
sS'imagine'
p1017
I125
sS'mcchicken'
p1018
I128
sS'driven'
p1019
I128
sS'02:03:05.0,34.12929067,-117.93581684,4046,a'
p1020
I128
sS'cities-la'
p1021
I128
sS'elective'
p1022
I128
sS'w'
p1023
I125
sS'black"'
p1024
I128
sS'joey'
p1025
I128
sS'major'
p1026
I126
sS'contender'
p1027
I128
sS'number'
p1028
I125
sS'feeder'
p1029
I128
sS'kobe'
p1030
I126
sS',91010\n497921772646588416,rawoolz,2014-08-09'
p1031
I128
sS'stage'
p1032
I125
sS'guess'
p1033
I112
sS'heads'
p1034
I127
sS'guest'
p1035
I127
sS'jet'
p1036
I128
sS'checkpoint'
p1037
I128
sS'relationship'
p1038
I125
sS'majestics'
p1039
I127
sS'belle-1'
p1040
I126
sS'grace'
p1041
I128
sS'kreme'
p1042
I128
sS'marriage'
p1043
I128
sS'caitlyn'
p1044
I128
sS'shica'
p1045
I128
sS'livers'
p1046
I128
sS'basically'
p1047
I125
sS'hallett'
p1048
I128
sS'honeys'
p1049
I128
sS'fights'
p1050
I128
sS'graffiti'
p1051
I127
sS'sell'
p1052
I126
sS'self'
p1053
I127
sS'also'
p1054
I117
sS'pasar'
p1055
I128
sS'analogy'
p1056
I128
sS'substancias'
p1057
I128
sS'play'
p1058
I119
sS'yawn'
p1059
I128
sS'plan'
p1060
I121
sS'darts'
p1061
I128
sS'accepting'
p1062
I128
sS'sometimes'
p1063
I115
sS'cover'
p1064
I128
sS'coven'
p1065
I128
sS'gabe'
p1066
I128
sS'dragged'
p1067
I128
sS'ugh'
p1068
I119
sS'gold'
p1069
I120
sS'\xd5\xaf\xd5\xb5\xd5\xa1\xd5\xb6\xd5\xaf\xd5\xbd'
p1070
I128
sS'session'
p1071
I127
sS'omegle'
p1072
I128
sS'impact'
p1073
I127
sS'sayin'
p1074
I128
sS'failed'
p1075
I128
sS'l0l'
p1076
I119
sS'twins'
p1077
I128
sS'00:41:02.0,34.12363482,-117.96716239,4046,happy'
p1078
I128
sS'boarding'
p1079
I128
sS'banned'
p1080
I128
sS'sunny'
p1081
I127
sS'02:01:09.0,34.1290801,-117.93163138,4046,the'
p1082
I128
sS'in!,91702\n495092043887411201,juanm_2,2014-08-01'
p1083
I128
sS"your'e"
p1084
I128
sS'cry'
p1085
I121
sS',91706\n464169016097923072,shizzzleo_o,2014-05-07'
p1086
I128
sS'caramel'
p1087
I128
sS'tanker'
p1088
I128
sS'insane'
p1089
I127
sS'set'
p1090
I117
sS'creator'
p1091
I128
sS'jade'
p1092
I128
sS'nibble'
p1093
I128
sS':-))'
p1094
I128
sS'sex'
p1095
I125
sS'see'
p1096
I61
sS'allin'
p1097
I128
sS'sea'
p1098
I125
sS'etiwanda'
p1099
I128
sS'tybg'
p1100
I128
sS'pooota'
p1101
I128
sS'project'
p1102
I128
sS'hawkens'
p1103
I128
sS'tobi'
p1104
I128
sS'currently'
p1105
I122
sS'demons'
p1106
I128
sS'encerio'
p1107
I128
sS'nope'
p1108
I126
sS'monsters'
p1109
I128
sS'compliment'
p1110
I128
sS'knowing'
p1111
I126
sS'tristan'
p1112
I128
sS'brewing'
p1113
I127
sS'renewed'
p1114
I128
sS'aggie'
p1115
I128
sS'last'
p1116
I71
sS'thou'
p1117
I128
sS'thot'
p1118
I128
sS'barely'
p1119
I127
sS'thoo'
p1120
I128
sS"we've"
p1121
I128
sS'let'
p1122
I98
sS'whole'
p1123
I113
sS'load'
p1124
I128
sS'\xe2\x98\xba'
p1125
I127
sS'majesty'
p1126
I128
sS'drunk'
p1127
I120
sS'acted'
p1128
I128
sS'smashing'
p1129
I128
sS'hollow'
p1130
I128
sS')-'
p1131
I126
sS'"bread"'
p1132
I128
sS'church'
p1133
I112
sS'haha,91706\n388742670136266752,vicgetsilly,2013-10-11'
p1134
I128
sS'belt'
p1135
I128
sS'devil'
p1136
I127
sS'acceptance'
p1137
I128
sS'hitting'
p1138
I125
sS'133:1'
p1139
I128
sS'\xe2\x98\x80'
p1140
I128
sS'lip,91706\n415172409981812736,vicgetsilly,2013-12-23'
p1141
I128
sS'18:12:26.0,34.10970212,-117.98102581,4046,ma'
p1142
I128
sS'stoopid'
p1143
I128
sS'adamtaylorsk8'
p1144
I128
sS'fire'
p1145
I114
sS"what's"
p1146
I115
sS'great'
p1147
I73
sS'bitchy'
p1148
I128
sS'fund'
p1149
I128
sS'races'
p1150
I121
sS'awake'
p1151
I127
sS'2j'
p1152
I128
sS'mlb'
p1153
I128
sS'x0x0'
p1154
I128
sS'straight'
p1155
I122
sS'slurpees'
p1156
I128
sS'truuuue'
p1157
I128
sS'pressed'
p1158
I128
sS'cumbria!,91706\n483490868658061312,laurui11,2014-06-30'
p1159
I128
sS'kissing'
p1160
I127
sS'robin'
p1161
I127
sS'cages'
p1162
I128
sS'guestlist'
p1163
I128
sS'pound'
p1164
I128
sS'hoping'
p1165
I126
sS'owen'
p1166
I128
sS'ducks'
p1167
I127
sS'contradiction'
p1168
I128
sS"exit...'"
p1169
I128
sS'"look'
p1170
I128
sS'chase'
p1171
I128
sS'cuisine'
p1172
I128
sS'sounding'
p1173
I128
sS'acabo'
p1174
I128
sS'ama'
p1175
I128
sS'premonition'
p1176
I128
sS'forgiveness'
p1177
I128
sS'fridge'
p1178
I128
sS'viewing'
p1179
I122
sS'levels'
p1180
I127
sS'amg'
p1181
I128
sS'recent'
p1182
I128
sS'redlands'
p1183
I128
sS'picky'
p1184
I128
sS'regretting'
p1185
I128
sS'kelly'
p1186
I126
sS'theee'
p1187
I128
sS'his\xe2\x80\xa6'
p1188
I128
sS'stunt'
p1189
I128
sS'allher'
p1190
I128
sS'forrest'
p1191
I128
sS'unto'
p1192
I128
sS'parents'
p1193
I122
sS'location'
p1194
I128
sS'crying'
p1195
I123
sS'hat\xe2\x80\xa6'
p1196
I128
sS'submissions'
p1197
I128
sS'surprised'
p1198
I128
sS'tomar'
p1199
I128
sS'couple'
p1200
I121
sS'shitty'
p1201
I128
sS'formal'
p1202
I127
sS'd'
p1203
I122
sS'communications'
p1204
I124
sS'wildcats'
p1205
I128
sS'19:04:46.0,34.10880228,-117.97081174,4046,bless'
p1206
I128
sS'mahjong'
p1207
I127
sS'partying'
p1208
I128
sS'goddamn'
p1209
I124
sS'gokingsgo'
p1210
I128
sS'palm'
p1211
I128
sS'sight'
p1212
I128
sS'already...or'
p1213
I128
sS'oddly'
p1214
I128
sS'furries'
p1215
I128
sS'dating'
p1216
I128
sS'temple'
p1217
I128
sS'be'
p1218
I23
sS'bf'
p1219
I126
sS'teamsaiko'
p1220
I128
sS'ba'
p1221
I128
sS'bb'
p1222
I128
sS'bc'
p1223
I122
sS'bm'
p1224
I128
sS'smiths'
p1225
I128
sS'bp'
p1226
I126
sS'nowhere'
p1227
I128
sS'santa'
p1228
I92
sS'relating'
p1229
I128
sS'lugnut'
p1230
I128
sS'by'
p1231
I63
sS'a\xc3\xb1os'
p1232
I127
sS'anything'
p1233
I109
sS'netflix'
p1234
I127
sS'hatcher'
p1235
I128
sS'deserves'
p1236
I128
sS'fries.when'
p1237
I128
sS'garbage'
p1238
I128
sS'terrorists'
p1239
I128
sS'into'
p1240
I110
sS'appropriate'
p1241
I127
sS'city\xe2\x80\xa6'
p1242
I128
sS'hukuman'
p1243
I128
sS'all!cut'
p1244
I128
sS'logged'
p1245
I128
sS'bombest'
p1246
I128
sS'spending'
p1247
I125
sS'sock'
p1248
I128
sS'custom'
p1249
I128
sS'atheists'
p1250
I128
sS'awks'
p1251
I128
sS'opens'
p1252
I128
sS'chu'
p1253
I128
sS'zealand'
p1254
I128
sS'hawaiian'
p1255
I128
sS'relaxed'
p1256
I128
sS't-shirt'
p1257
I128
sS',91010\n397782237837393920,vicgetsilly,2013-11-05'
p1258
I128
sS'lampard'
p1259
I128
sS"bey's"
p1260
I128
sS'pacific'
p1261
I128
sS'line'
p1262
I124
sS'posted'
p1263
I116
sS'rennaisance\xe2\x80\xa6'
p1264
I128
sS'cif'
p1265
I127
sS'up'
p1266
I31
sS'us'
p1267
I86
sS'ur'
p1268
I101
sS'um'
p1269
I127
sS'un'
p1270
I120
sS'uh'
p1271
I127
sS'mature'
p1272
I127
sS'faded'
p1273
I128
sS'uc'
p1274
I128
sS'vpfr'
p1275
I128
sS'raging'
p1276
I128
sS'20dollas'
p1277
I128
sS'chan'
p1278
I127
sS'chat'
p1279
I128
sS'breather'
p1280
I128
sS'jct'
p1281
I127
sS'tara'
p1282
I128
sS'carrera'
p1283
I128
sS'95%'
p1284
I128
sS'scurred'
p1285
I128
sS'beginnings'
p1286
I128
sS'19:05:30.0,34.10808563,-117.97131357,4046,what'
p1287
I128
sS'sides'
p1288
I127
sS'ago'
p1289
I126
sS'lane'
p1290
I127
sS'fighter'
p1291
I126
sS'napping'
p1292
I128
sS'walked'
p1293
I126
sS'fresa'
p1294
I128
sS'summit'
p1295
I128
sS'say,91706\n500005303635959808,rggzzz,2014-08-14'
p1296
I128
sS'fresh'
p1297
I126
sS'usto'
p1298
I128
sS'hello'
p1299
I127
sS'\xe2\x98\xba\xef\xb8\x8f\xe2\x98\xba\xef\xb8\x8f\xe2\x98\xba\xef\xb8\x8f'
p1300
I128
sS'code'
p1301
I128
sS'dawning'
p1302
I128
sS'squats'
p1303
I127
sS'zzzzzzz'
p1304
I128
sS'exorcisms'
p1305
I128
sS'_poison_envy_'
p1306
I128
sS'freakin'
p1307
I127
sS'gossip'
p1308
I127
sS'chillin'
p1309
I125
sS'seemed'
p1310
I128
sS'concerned'
p1311
I128
sS'young'
p1312
I124
sS'nyabu'
p1313
I128
sS'(not'
p1314
I128
sS'bilang'
p1315
I128
sS'casual!"'
p1316
I128
sS'bellydancing'
p1317
I128
sS'sent'
p1318
I125
sS'customer'
p1319
I126
sS'typa-tweet'
p1320
I128
sS'garden'
p1321
I113
sS'center)'
p1322
I127
sS'consuelo'
p1323
I128
sS'almost~'
p1324
I128
sS'pugs'
p1325
I128
sS'decorating'
p1326
I128
sS'isaiah'
p1327
I126
sS'magic'
p1328
I123
sS'evn'
p1329
I128
sS'transmission'
p1330
I128
sS'gettin'
p1331
I128
sS"they've"
p1332
I128
sS'try'
p1333
I115
sS'race'
p1334
I106
sS':)\xe2\x80\x9d'
p1335
I128
sS'dessert...i'
p1336
I128
sS'rack'
p1337
I127
sS'aeab'
p1338
I128
sS'car,91706\n403237686346924032,vicgetsilly,2013-11-20'
p1339
I128
sS'i.dont'
p1340
I128
sS'video'
p1341
I118
sS'14:12:40.0,34.13461892,-117.95805017,4046,happy'
p1342
I128
sS'spaghetti'
p1343
I128
sS'victor'
p1344
I128
sS'pro\xe2\x80\xa6'
p1345
I127
sS'(picture'
p1346
I128
sS'that"'
p1347
I128
sS'espa\xc3\xb1a'
p1348
I128
sS'bestfriends'
p1349
I128
sS'decade.might'
p1350
I128
sS'sooooooooo'
p1351
I128
sS'expresses'
p1352
I128
sS'bird'
p1353
I128
sS'scenery'
p1354
I128
sS'lea'
p1355
I128
sS'led'
p1356
I128
sS'lee'
p1357
I127
sS'leg'
p1358
I126
sS'tslk'
p1359
I128
sS'punch'
p1360
I127
sS'gilles'
p1361
I128
sS'leo'
p1362
I128
sS',91010\n500340081912070144,illuminatianabi,2014-08-15'
p1363
I128
sS'licence'
p1364
I128
sS'consideration'
p1365
I128
sS'ctv'
p1366
I128
sS'lentejas'
p1367
I127
sS'survey'
p1368
I128
sS'opinion'
p1369
I125
sS'makes'
p1370
I108
sS'thats'
p1371
I123
sS'siri'
p1372
I128
sS'nibbling'
p1373
I128
sS'standing'
p1374
I128
sS'confidence'
p1375
I128
sS"nascar's"
p1376
I128
sS'next'
p1377
I100
sS'doubt'
p1378
I126
sS'judged'
p1379
I128
sS'sink\xe2\x80\x9d'
p1380
I128
sS'babe'
p1381
I126
sS'purposes'
p1382
I128
sS'baby'
p1383
I108
sS'gladly'
p1384
I128
sS'charity'
p1385
I128
sS'today.it'
p1386
I128
sS'practicing'
p1387
I128
sS'this'
p1388
I19
sS'challenge'
p1389
I124
sS'lotito'
p1390
I128
sS'nltlet'
p1391
I128
sS'mommas'
p1392
I127
sS'drill'
p1393
I127
sS'insiste'
p1394
I128
sS'balln'
p1395
I128
sS'sabe'
p1396
I128
sS'weaker'
p1397
I127
sS'parade!\xe2\x80\xa6'
p1398
I127
sS'process'
p1399
I128
sS'lock'
p1400
I127
sS'billboards'
p1401
I128
sS'loco'
p1402
I127
sS'pieces'
p1403
I128
sS'high'
p1404
I111
sS'chevelle'
p1405
I128
sS'blvd'
p1406
I128
sS'educational'
p1407
I127
sS'm\xc3\xa9ndez"'
p1408
I128
sS'animal'
p1409
I128
sS'pomona'
p1410
I128
sS'tied'
p1411
I128
sS'pigs'
p1412
I128
sS'terrors'
p1413
I128
sS'coast'
p1414
I128
sS'autograph'
p1415
I128
sS'mjd'
p1416
I128
sS'realized'
p1417
I128
sS'muppets'
p1418
I128
sS'22nd'
p1419
I128
sS'counter'
p1420
I128
sS'paid.$'
p1421
I128
sS'allot'
p1422
I128
sS'volunteers'
p1423
I128
sS'coqueteando'
p1424
I128
sS"i'll\xe2\x80\xa6"
p1425
I128
sS'hunnid'
p1426
I127
sS'thigh'
p1427
I128
sS'rendah'
p1428
I128
sS'directo'
p1429
I128
sS'move'
p1430
I125
sS'whoooooo'
p1431
I128
sS'motorcycle'
p1432
I126
sS'vmr'
p1433
I128
sS'perfect'
p1434
I115
sS'tonight?,91010\n495746456264130561,rawoolz,2014-08-03'
p1435
I128
sS'mawashi'
p1436
I128
sS'chosen'
p1437
I128
sS',91010\n511952264643092481,sdweeks14,2014-09-16'
p1438
I128
sS'degrees'
p1439
I127
sS'2014'
p1440
I121
sS'2013'
p1441
I125
sS'nada'
p1442
I123
sS'newmar'
p1443
I128
sS"cobain's"
p1444
I128
sS'kiss'
p1445
I127
sS'realize'
p1446
I125
sS'irks'
p1447
I128
sS'sneezed'
p1448
I128
sS'follow'
p1449
I120
sS'truth'
p1450
I125
sS'orritis'
p1451
I128
sS'glasses'
p1452
I126
sS'tentu'
p1453
I128
sS'doing'
p1454
I101
sS',91010\n496056308320071680,mchidayat95,2014-08-03'
p1455
I128
sS'society'
p1456
I127
sS'books'
p1457
I126
sS'erstad'
p1458
I128
sS'meth'
p1459
I128
sS'wander'
p1460
I128
sS"'"
p1461
I128
sS'reload'
p1462
I128
sS'beautiful\xe2\x80\xa6'
p1463
I128
sS'tuyo'
p1464
I128
sS'preocupes'
p1465
I128
sS'cest'
p1466
I128
sS'hilarious'
p1467
I127
sS'arcadians'
p1468
I128
sS'shut'
p1469
I124
sS'uppp'
p1470
I128
sS',91706\n393800697520857088,vicgetsilly,2013-10-25'
p1471
I128
sS'craving'
p1472
I124
sS'scary'
p1473
I126
sS'could'
p1474
I104
sS'area'
p1475
I110
sS'david'
p1476
I124
sS'congeniality'
p1477
I128
sS'smartass'
p1478
I128
sS'qualifying'
p1479
I127
sS'davis'
p1480
I128
sS'scare'
p1481
I127
sS'anita'
p1482
I127
sS'fait'
p1483
I128
sS'ihy'
p1484
I128
sS'touring'
p1485
I128
sS'19:31:04.0,34.1300379,-117.9414963,4046,blow'
p1486
I128
sS'jesus'
p1487
I122
sS'blows'
p1488
I127
sS'14:47:11.0,34.1080804,-117.97134981,4046,the'
p1489
I128
sS'start'
p1490
I112
sS'festival'
p1491
I128
sS'system'
p1492
I128
sS'me?,91010\n485755242235977728,laurui11,2014-07-06'
p1493
I128
sS'painful'
p1494
I128
sS'gummy'
p1495
I128
sS'stomach'
p1496
I128
sS'ohhhhhhh'
p1497
I128
sS'shorts'
p1498
I127
sS'bellboys'
p1499
I128
sS'1er'
p1500
I128
sS'grandpa'
p1501
I128
sS'gotchu'
p1502
I128
sS'a-hole'
p1503
I128
sS'bother'
p1504
I127
sS'pads'
p1505
I128
sS'hahahahahahahaha'
p1506
I128
sS'aztecs'
p1507
I128
sS'\\m/'
p1508
I127
sS',91706\n505779713910927360,icameallover,2014-08-30'
p1509
I128
sS'tonight'
p1510
I89
sS'probly'
p1511
I128
sS'waffles'
p1512
I128
sS'cuatro'
p1513
I128
sS'latina'
p1514
I128
sS'vuvuzela'
p1515
I128
sS'device'
p1516
I127
sS'segment'
p1517
I127
sS'_pwnisher_'
p1518
I128
sS'peace\xe2\x9c\x8cand'
p1519
I128
sS"thursday!who's"
p1520
I128
sS'stronger'
p1521
I127
sS'thanksgiving'
p1522
I127
sS'brea'
p1523
I128
sS'face'
p1524
I118
sS"you'll"
p1525
I121
sS'chilliest'
p1526
I128
sS'mustache'
p1527
I127
sS'brew'
p1528
I128
sS'wounded'
p1529
I128
sS'screechs'
p1530
I128
sS'primero'
p1531
I128
sS'fact'
p1532
I125
sS'mmmmmmmm'
p1533
I128
sS'oreos'
p1534
I128
sS'lost...again'
p1535
I128
sS'scotts'
p1536
I128
sS'lmaoo'
p1537
I128
sS'assholes'
p1538
I127
sS'pausch'
p1539
I128
sS'bring'
p1540
I123
sS'bikes'
p1541
I128
sS'lloyd'
p1542
I128
sS'rough'
p1543
I128
sS'asylum'
p1544
I128
sS'podcast'
p1545
I127
sS'consentida'
p1546
I128
sS'jay'
p1547
I126
sS'shoulf'
p1548
I128
sS'should'
p1549
I107
sS'buttons'
p1550
I128
sS'tape'
p1551
I128
sS'riding'
p1552
I127
sS'hope'
p1553
I99
sS'rehilar'
p1554
I128
sS'handle'
p1555
I127
sS'means'
p1556
I121
sS'familiar'
p1557
I128
sS"skyboxin'"
p1558
I128
sS'lucky'
p1559
I123
sS'fwy)'
p1560
I128
sS'dyscalculia'
p1561
I128
sS'=)'
p1562
I128
sS'abby'
p1563
I128
sS'smash'
p1564
I128
sS'circulation'
p1565
I128
sS'h'
p1566
I127
sS'taxes'
p1567
I128
sS'stuff'
p1568
I122
sS'guessing'
p1569
I128
sS'frame'
p1570
I128
sS'packet'
p1571
I128
sS'05:45:52.0,34.10664983,-117.93270633,4046,,91706\n368590865716871170,zu_cia,2013-08-17'
p1572
I128
sS'travis'
p1573
I128
sS"reggie's"
p1574
I128
sS'btc'
p1575
I128
sS'packed'
p1576
I127
sS'thyself'
p1577
I128
sS'rolled'
p1578
I128
sS'injustice'
p1579
I128
sS'email'
p1580
I125
sS'mejores'
p1581
I128
sS'ends'
p1582
I127
sS'gradnight'
p1583
I128
sS'butts'
p1584
I128
sS'butta'
p1585
I128
sS'marty'
p1586
I128
sS'figured'
p1587
I126
sS'drum'
p1588
I128
sS'invited'
p1589
I128
sS'ramp'
p1590
I127
sS'galore'
p1591
I128
sS'tlc'
p1592
I128
sS'etc'
p1593
I127
sS'figures'
p1594
I128
sS'19:26:41.0,34.11261006,-117.95470704,4046,we'
p1595
I128
sS'invites'
p1596
I128
sS'co'
p1597
I126
sS'maccolin'
p1598
I124
sS'ca'
p1599
I114
sS'home...just'
p1600
I128
sS'30-1273'
p1601
I128
sS'winning'
p1602
I126
sS'hawkins'
p1603
I128
sS'chiefed'
p1604
I128
sS'itani'
p1605
I128
sS'poured'
p1606
I128
sS'jusss'
p1607
I128
sS'hottest'
p1608
I126
sS'waste'
p1609
I126
sS'equipo'
p1610
I127
sS'>'
p1611
I127
sS'awhhh'
p1612
I128
sS'c9'
p1613
I128
sS'(duarte'
p1614
I127
sS'ravens'
p1615
I127
sS'spain'
p1616
I127
sS'tsuki'
p1617
I126
sS'problems<<'
p1618
I128
sS'podcasts'
p1619
I128
sS'hahaha'
p1620
I109
sS'yuuuuh'
p1621
I128
sS'mayate'
p1622
I128
sS'ripe'
p1623
I128
sS'site'
p1624
I126
sS'pitt'
p1625
I128
sS'vs'
p1626
I123
sS'vw'
p1627
I126
sS'kolodge'
p1628
I126
sS'of"'
p1629
I128
sS'</3'
p1630
I128
sS'denial'
p1631
I128
sS'300ish'
p1632
I128
sS'verne'
p1633
I128
sS'digging'
p1634
I128
sS'carsick'
p1635
I128
sS'android'
p1636
I127
sS'phi'
p1637
I128
sS'ball'
p1638
I122
sS'infinity'
p1639
I128
sS'emotionally'
p1640
I128
sS'bale'
p1641
I128
sS'drink'
p1642
I114
sS'upon'
p1643
I125
sS'6:45am'
p1644
I128
sS'fries?,91706\n492740681203335168,_rmercadoo,2014-07-25'
p1645
I128
sS'v6'
p1646
I128
sS'infinite'
p1647
I128
sS'cheering'
p1648
I127
sS'dammmmmmmm'
p1649
I128
sS'off'
p1650
I69
sS'shotgun'
p1651
I128
sS'phat'
p1652
I128
sS'dinas'
p1653
I128
sS'350'
p1654
I128
sS'audio'
p1655
I127
sS'newest'
p1656
I127
sS'less'
p1657
I127
sS'moments'
p1658
I128
sS'paul'
p1659
I128
sS'unplugged'
p1660
I128
sS'web'
p1661
I128
sS'otay'
p1662
I128
sS'wee'
p1663
I128
sS'wed'
p1664
I128
sS'wen'
p1665
I128
sS'nacional'
p1666
I128
sS'arrest'
p1667
I128
sS'fiesta\xe2\x80\xa6'
p1668
I128
sS'race&sunsets'
p1669
I128
sS'wey'
p1670
I128
sS'scoundrel'
p1671
I128
sS'gaem'
p1672
I128
sS'checking'
p1673
I127
sS'cruz'
p1674
I128
sS'five'
p1675
I126
sS'desk'
p1676
I128
sS'belgium'
p1677
I128
sS'nvm'
p1678
I128
sS'fools'
p1679
I127
sS'onion'
p1680
I128
sS'ransomed'
p1681
I128
sS'become'
p1682
I128
sS'mhs'
p1683
I128
sS'pico"'
p1684
I128
sS'underwent'
p1685
I128
sS'speshul'
p1686
I128
sS'choosing'
p1687
I128
sS'jando'
p1688
I128
sS'recognition'
p1689
I128
sS'"what'
p1690
I127
sS'forgives'
p1691
I128
sS'hoarder'
p1692
I128
sS'literally'
p1693
I115
sS'10600'
p1694
I128
sS'does'
p1695
I110
sS'escalated'
p1696
I128
sS'capability'
p1697
I128
sS'uhhhh'
p1698
I128
sS'schedule'
p1699
I126
sS'again,91706\n439137723933134849,qrobertson31,2014-02-27'
p1700
I128
sS'gandalf'
p1701
I128
sS'lastnight'
p1702
I126
sS'hiding'
p1703
I128
sS'escuchando'
p1704
I128
sS'sister'
p1705
I124
sS'iced'
p1706
I127
sS';0i'
p1707
I128
sS'dicen'
p1708
I128
sS'angeles'
p1709
I128
sS'seeds'
p1710
I128
sS'tri-tip'
p1711
I128
sS'huh?!,91010\n481970656754409472,vicgetsilly,2014-06-26'
p1712
I128
sS'documentary'
p1713
I128
sS'swimming'
p1714
I127
sS'"eat'
p1715
I128
sS'pussy'
p1716
I126
sS'modifieds'
p1717
I128
sS'bueno'
p1718
I128
sS'nawwwww'
p1719
I128
sS'beverage'
p1720
I128
sS'function'
p1721
I127
sS',91706\n512602299840348160,djharass,2014-09-18'
p1722
I128
sS'funnel'
p1723
I128
sS'cheebes'
p1724
I128
sS'fasho'
p1725
I128
sS',91706\n388764099108020224,vicgetsilly,2013-10-11'
p1726
I128
sS'construction'
p1727
I128
sS'brewery)'
p1728
I128
sS'funner'
p1729
I128
sS'"9th!!"'
p1730
I128
sS'count'
p1731
I128
sS'places'
p1732
I128
sS'too:*'
p1733
I128
sS'official'
p1734
I125
sS'smooth'
p1735
I128
sS'convince'
p1736
I128
sS'subtweets'
p1737
I128
sS'nominations'
p1738
I128
sS'bbbs'
p1739
I128
sS'buuut'
p1740
I128
sS'recognize'
p1741
I128
sS'jaiden'
p1742
I128
sS'ini'
p1743
I127
sS'ink'
p1744
I126
sS'moonie'
p1745
I128
sS'ina'
p1746
I127
sS'inc'
p1747
I127
sS'compared'
p1748
I128
sS'variety'
p1749
I128
sS'karate\xe2\x80\xa6'
p1750
I128
sS'09:45:16.0,34.11631216,-117.97513465,4046,nocopnostop.,91706\n497499576853487616,vicgetsilly,2014-08-07'
p1751
I128
sS'lately'
p1752
I126
sS'lookup'
p1753
I128
sS'details'
p1754
I128
sS'illusion'
p1755
I128
sS'ponytail'
p1756
I128
sS'iove'
p1757
I128
sS'francisco'
p1758
I128
sS'monday'
p1759
I122
sS'is..i'
p1760
I128
sS'chance'
p1761
I123
sS'right...think'
p1762
I128
sS'soon.\xe2\x80\xa6'
p1763
I128
sS'badass'
p1764
I127
sS'nikes'
p1765
I128
sS'\xe2\x81\xb0but'
p1766
I128
sS'borderline'
p1767
I128
sS'd\xc3\xada'
p1768
I127
sS'ciao'
p1769
I128
sS'khalif'
p1770
I128
sS'yikes'
p1771
I128
sS'tfios'
p1772
I128
sS'oldest'
p1773
I128
sS'saved'
p1774
I128
sS'worked'
p1775
I128
sS'relationships'
p1776
I128
sS'barmen'
p1777
I128
sS'bike'
p1778
I124
sS'chill'
p1779
I118
sS'worth'
p1780
I121
sS'commerce'
p1781
I127
sS'manic'
p1782
I127
sS'jacob'
p1783
I128
sS'solidaridad'
p1784
I128
sS"isn't"
p1785
I112
sS'tickets'
p1786
I123
sS'traje'
p1787
I128
sS"we'll"
p1788
I121
sS'finals!\xe2\x80\xa6'
p1789
I128
sS'announced'
p1790
I128
sS'saying,91010\n460470539434196993,robrodriguezz,2014-04-27'
p1791
I128
sS'hora'
p1792
I127
sS'now...retard'
p1793
I128
sS'cher'
p1794
I128
sS'29th'
p1795
I128
sS'phones'
p1796
I127
sS'cuentas'
p1797
I128
sS'horn'
p1798
I128
sS'wernt'
p1799
I128
sS'7th'
p1800
I128
sS'solo,91702\n511949854797754368,sdweeks14,2014-09-16'
p1801
I128
sS'others)'
p1802
I109
sS'huele'
p1803
I128
sS'ugly'
p1804
I121
sS'+'
p1805
I125
sS'walkout'
p1806
I128
sS'$360'
p1807
I128
sS'officially'
p1808
I125
sS'told'
p1809
I121
sS'botudo'
p1810
I128
sS'conglomerate'
p1811
I128
sS'daughter'
p1812
I128
sS'study'
p1813
I128
sS'itunes'
p1814
I128
sS'3bills'
p1815
I128
sS'smoke'
p1816
I125
sS'stressed'
p1817
I128
sS'aka'
p1818
I124
sS'graders'
p1819
I128
sS'vapors'
p1820
I128
sS'bro'
p1821
I120
sS'cheats'
p1822
I128
sS'bri'
p1823
I127
sS'total'
p1824
I127
sS'sarah'
p1825
I127
sS'rancho'
p1826
I128
sS'alligator'
p1827
I128
sS'sweater'
p1828
I127
sS'negative'
p1829
I126
sS'earlier.\xe2\x9a\xbd\xef\xb8\x8f,91010\n31198157039730689,kb18fanz,2011-01-29'
p1830
I128
sS'tryin'
p1831
I128
sS'blueberry'
p1832
I128
sS'sushi'
p1833
I123
sS'haha'
p1834
I84
sS'championships'
p1835
I128
sS'seg\xc3\xban'
p1836
I128
sS'drinking)'
p1837
I128
sS'himwho'
p1838
I128
sS'blocking'
p1839
I128
sS'word'
p1840
I125
sS'1994'
p1841
I128
sS'err'
p1842
I126
sS'work'
p1843
I61
sS'erf'
p1844
I128
sS'era'
p1845
I127
sS'merida'
p1846
I127
sS'conclusiones"'
p1847
I128
sS'piers'
p1848
I128
sS'le\xc3\xad'
p1849
I128
sS'micky'
p1850
I128
sS'goooo'
p1851
I128
sS"disney's"
p1852
I128
sS'back\xe2\x80\x9d'
p1853
I128
sS'jay*shots'
p1854
I128
sS'recovery'
p1855
I128
sS'provide'
p1856
I128
sS'gsxr'
p1857
I128
sS'interview'
p1858
I124
sS'disappoint'
p1859
I128
sS'ordinary'
p1860
I128
sS'mine\xe2\x98\xba\xef\xb8\x8f'
p1861
I128
sS'beach'
p1862
I110
sS'pizza'
p1863
I118
sS'lao'
p1864
I128
sS'bday'
p1865
I123
sS'after'
p1866
I96
sS'laa'
p1867
I128
sS'lay'
p1868
I126
sS'arco'
p1869
I122
sS'lap'
p1870
I128
sS'las'
p1871
I125
sS'chilled'
p1872
I128
sS'playin\xe2\x80\x99'
p1873
I128
sS'chillen'
p1874
I127
sS'hasta'
p1875
I128
sS'green'
p1876
I125
sS'worst'
p1877
I124
sS'realizing'
p1878
I128
sS'mand\xc3\xa9'
p1879
I128
sS'office'
p1880
I120
sS'defenders'
p1881
I128
sS'neta'
p1882
I128
sS'nets'
p1883
I128
sS'mayor'
p1884
I122
sS'somewhere'
p1885
I126
sS'production'
p1886
I125
sS'd\xc3\xadas'
p1887
I128
sS'17:46:14.0,34.1068052,-117.9341882,4046,i'
p1888
I128
sS'hahah'
p1889
I126
sS'then'
p1890
I91
sS'them'
p1891
I95
sS'thee'
p1892
I128
sS'safe'
p1893
I126
sS'break'
p1894
I115
sS'band'
p1895
I121
sS'bang'
p1896
I122
sS'giraffe'
p1897
I128
sS'owned'
p1898
I127
sS'they'
p1899
I60
sS'bank'
p1900
I125
sS'bread'
p1901
I128
sS'germania'
p1902
I128
sS'l'
p1903
I127
sS'alexis'
p1904
I128
sS',91010\n501091178603753476,cathiayanez_,2014-08-17'
p1905
I128
sS'375'
p1906
I128
sS'carlos'
p1907
I128
sS'"aint'
p1908
I128
sS'beeee\xe2\x80\x9d'
p1909
I128
sS'daniel'
p1910
I126
sS'hogan'
p1911
I128
sS'vete'
p1912
I128
sS'^_^~'
p1913
I128
sS"people's"
p1914
I128
sS'mvp'
p1915
I128
sS'regreso'
p1916
I128
sS'recovering'
p1917
I128
sS'created'
p1918
I128
sS'kenapa'
p1919
I128
sS'regresa'
p1920
I128
sS'+1'
p1921
I128
sS'trumoo'
p1922
I128
sS'can\xe2\x80\x99t'
p1923
I128
sS'baltic'
p1924
I128
sS'chopped'
p1925
I128
sS'>>'
p1926
I127
sS'another'
p1927
I106
sS'thick'
p1928
I128
sS'ballin'
p1929
I128
sS'tongan'
p1930
I128
sS'timothy'
p1931
I128
sS'castaneda'
p1932
I128
sS'elevator'
p1933
I128
sS'rates'
p1934
I128
sS'john'
p1935
I127
sS'dogs'
p1936
I127
sS'hacer'
p1937
I128
sS'albert'
p1938
I128
sS'nahh'
p1939
I128
sS'wasted'
p1940
I126
sS'hike'
p1941
I127
sS'admissions\xe2\x80\xa6'
p1942
I128
sS'merch'
p1943
I128
sS'demarcus'
p1944
I128
sS',91706\n393047638603350016,vicgetsilly,2013-10-23'
p1945
I128
sS"mind's"
p1946
I128
sS'portraits'
p1947
I127
sS'ih8'
p1948
I128
sS'ponder'
p1949
I128
sS'strength'
p1950
I127
sS'gonnnn'
p1951
I128
sS'anoche'
p1952
I128
sS'practices'
p1953
I128
sS'forces'
p1954
I128
sS'curfew'
p1955
I128
sS'maiden'
p1956
I127
sS'ebook'
p1957
I128
sS'megan'
p1958
I127
sS'pleasure\xe2\x80\xa6'
p1959
I119
sS'phase'
p1960
I128
sS',91706\n511946746503921664,sdweeks14,2014-09-16'
p1961
I128
sS'21:35:57.0,34.11019949,-117.94871786,4046,extremely'
p1962
I128
sS"01:45:21.0,34.13063651,-117.95976545,4046,i'm"
p1963
I128
sS'bracket'
p1964
I128
sS'aunt'
p1965
I125
sS'sun'
p1966
I120
sS'real1'
p1967
I128
sS'boyfriends'
p1968
I127
sS'greddyracing'
p1969
I128
sS'chandelier'
p1970
I128
sS'nephew'
p1971
I128
sS'enjoyed'
p1972
I128
sS'd1'
p1973
I128
sS'toast'
p1974
I128
sS'painfully'
p1975
I128
sS'screening'
p1976
I128
sS'news***'
p1977
I128
sS'goalie'
p1978
I128
sS'do'
p1979
I41
sS'\xc3\x81ngeles'
p1980
I128
sS'dm'
p1981
I126
sS'dj'
p1982
I127
sS'di'
p1983
I128
sS'df'
p1984
I128
sS'dd'
p1985
I128
sS'de'
p1986
I87
sS'db'
p1987
I128
sS'dc'
p1988
I128
sS'da'
p1989
I125
sS'shadowplay'
p1990
I128
sS'watson'
p1991
I128
sS'haunted'
p1992
I128
sS'side..and'
p1993
I128
sS'dx'
p1994
I128
sS'nasty'
p1995
I127
sS'du'
p1996
I128
sS'dr'
p1997
I126
sS'ds'
p1998
I127
sS"11:03:38.0,34.1305807,-117.93371382,4046,i'm"
p1999
I128
sS'emm'
p2000
I128
sS'alg\xc3\xban'
p2001
I128
sS'emt'
p2002
I128
sS'w/o'
p2003
I128
sS'last\xe2\x80\xa6'
p2004
I128
sS'thanks!,91706\n386251507667988481,vicgetsilly,2013-10-04'
p2005
I128
sS'wannabe'
p2006
I128
sS'steak'
p2007
I128
sS'steal'
p2008
I128
sS'steam'
p2009
I127
sS'besties'
p2010
I128
sS'miserably'
p2011
I128
sS'w/'
p2012
I72
sS'lemonade'
p2013
I127
sS'toppest'
p2014
I128
sS'miserable'
p2015
I126
sS'eres'
p2016
I127
sS'away'
p2017
I115
sS'est\xc3\xbapido'
p2018
I128
sS'fetishes'
p2019
I128
sS'weekend\xe2\x98\xba\xef\xb8\x8f'
p2020
I128
sS'22:02:19.0,34.1338782,-117.9540781,4046,painting'
p2021
I128
sS'03:27:09.0,34.13278061,-117.95267008,4046,james'
p2022
I128
sS'psalm'
p2023
I127
sS"celeste's"
p2024
I128
sS'we'
p2025
I42
sS'loves'
p2026
I122
sS'mannggg'
p2027
I128
sS'succumbs'
p2028
I128
sS'wp'
p2029
I127
sS'convertible'
p2030
I128
sS'cop'
p2031
I127
sS'cos'
p2032
I128
sS'tfti'
p2033
I125
sS'00:54:10.0,34.12488497,-117.96539864,4046,people'
p2034
I128
sS'ill'
p2035
I122
sS'ncaa'
p2036
I128
sS'mariachi'
p2037
I128
sS'kpscal'
p2038
I128
sS'basicskata'
p2039
I128
sS'cob'
p2040
I128
sS'brad'
p2041
I127
sS'disappears'
p2042
I128
sS'ily'
p2043
I127
sS'oiysa'
p2044
I128
sS'01:46:16.0,34.11097763,-117.99212989,4046,word'
p2045
I128
sS'tough'
p2046
I126
sS'renfair'
p2047
I128
sS'toni'
p2048
I128
sS'-__-'
p2049
I127
sS"kourtney's"
p2050
I128
sS'i.e'
p2051
I128
sS'speak'
p2052
I128
sS'engines'
p2053
I128
sS'wideand'
p2054
I128
sS'deodorant'
p2055
I128
sS'ooooo'
p2056
I127
sS'relaxing'
p2057
I128
sS'catering'
p2058
I127
sS'fest'
p2059
I128
sS'applied'
p2060
I127
sS'quietest'
p2061
I128
sS'has'
p2062
I94
sS'air'
p2063
I120
sS'whatshisname'
p2064
I128
sS'hav'
p2065
I128
sS'aid'
p2066
I128
sS'voice'
p2067
I121
sS'mistake'
p2068
I128
sS'arrechos'
p2069
I128
sS'cylinder'
p2070
I128
sS'*the'
p2071
I108
sS'thursdays'
p2072
I128
sS'sticker'
p2073
I128
sS'millercoors'
p2074
I122
sS'brake'
p2075
I127
sS'cone'
p2076
I127
sS'come\xe2\x80\xa6'
p2077
I128
sS'f\xc3\xb6ljs'
p2078
I128
sS'vanessa'
p2079
I128
sS'noombre'
p2080
I128
sS"headersdon't"
p2081
I128
sS'ocasiones'
p2082
I128
sS'wheel'
p2083
I128
sS'nih'
p2084
I128
sS'dennys'
p2085
I128
sS'hang'
p2086
I126
sS'rain'
p2087
I123
sS'hand'
p2088
I119
sS'maaamaaadilllaasss'
p2089
I128
sS'shizzle'
p2090
I128
sS'live\xe2\x80\xa6'
p2091
I128
sS'(azusa'
p2092
I127
sS'thx'
p2093
I128
sS'tht'
p2094
I128
sS'kyle'
p2095
I128
sS'1970'
p2096
I128
sS'tho'
p2097
I113
sS'thn'
p2098
I128
sS'contact'
p2099
I127
sS':(i'
p2100
I128
sS'the'
p2101
I3
sS'musical'
p2102
I128
sS'l8r'
p2103
I128
sS"'twas"
p2104
I128
sS'sangat'
p2105
I128
sS'gods'
p2106
I127
sS'dignify'
p2107
I128
sS'gravity'
p2108
I127
sS'quotes'
p2109
I128
sS'thanks'
p2110
I88
sS'repost'
p2111
I128
sS'adding'
p2112
I126
sS'transformer'
p2113
I128
sS'hills'
p2114
I127
sS'27th'
p2115
I128
sS'chingo'
p2116
I128
sS'02:34:28.0,34.1258604,-117.9852071,4046,mantini'
p2117
I128
sS'shout'
p2118
I125
sS'spread'
p2119
I128
sS'board'
p2120
I127
sS'23:15:34.0,34.1338782,-117.9540781,4046,progressive'
p2121
I128
sS'mexicore'
p2122
I128
sS'viking'
p2123
I128
sS'insensitive'
p2124
I128
sS'lcs'
p2125
I128
sS'rnd'
p2126
I128
sS'picasso'
p2127
I126
sS'lol,91010\n390553923355824128,vicgetsilly,2013-10-16'
p2128
I128
sS'story"'
p2129
I128
sS'48:11'
p2130
I128
sS'theyre'
p2131
I128
sS'night'
p2132
I65
sS'towards'
p2133
I128
sS'o\xc3\xaddos'
p2134
I128
sS'sends'
p2135
I127
sS'idgaf'
p2136
I128
sS'born'
p2137
I125
sS'salir'
p2138
I128
sS'confusing'
p2139
I128
sS'ain\xe2\x80\x99t'
p2140
I128
sS'purple'
p2141
I128
sS'/'
p2142
I110
sS'tonight"'
p2143
I128
sS'filming'
p2144
I125
sS'asking'
p2145
I127
sS'gotda'
p2146
I128
sS'blink-182'
p2147
I128
sS'peek'
p2148
I127
sS'pls'
p2149
I121
sS'queda'
p2150
I128
sS'pose'
p2151
I128
sS"22:02:10.0,34.1338782,-117.9540781,4046,can't"
p2152
I128
sS'plz'
p2153
I126
sS'graduated'
p2154
I128
sS'magcon'
p2155
I128
sS'post'
p2156
I117
sS'pll'
p2157
I128
sS'trophy'
p2158
I128
sS'months'
p2159
I125
sS'anime'
p2160
I127
sS'float'
p2161
I80
sS'bound'
p2162
I121
sS'renfaire'
p2163
I128
sS'analysis"'
p2164
I128
sS'stumble'
p2165
I128
sS'fight'
p2166
I124
sS"juan's"
p2167
I128
sS'way'
p2168
I75
sS'wat'
p2169
I125
sS'was'
p2170
I30
sS"rsvp'd"
p2171
I128
sS'becoming'
p2172
I127
sS'truu'
p2173
I128
sS'needles'
p2174
I128
sS'johana'
p2175
I127
sS'true'
p2176
I121
sS'responding'
p2177
I128
sS'cudderisback'
p2178
I128
sS'kimmy..god'
p2179
I128
sS'emotional'
p2180
I127
sS'weeks...um'
p2181
I128
sS'"la'
p2182
I128
sS'rialto'
p2183
I128
sS'mails'
p2184
I128
sS'promises'
p2185
I128
sS'tryna'
p2186
I126
sS'pre-tournament'
p2187
I128
sS'ezekiel'
p2188
I128
sS"dixon's"
p2189
I128
sS'promised'
p2190
I128
sS'prayer'
p2191
I128
sS'finalllyyyyyy'
p2192
I128
sS'physical'
p2193
I126
sS'realllllly'
p2194
I128
sS'14:01:26.0,34.1351144,-117.9495343,4046,if'
p2195
I128
sS'dying'
p2196
I127
sS'reality'
p2197
I127
sS'interested'
p2198
I128
sS'holding'
p2199
I128
sS'test'
p2200
I123
sS'dimla'
p2201
I128
sS'brothers'
p2202
I127
sS'welcome'
p2203
I121
sS"let's"
p2204
I112
sS'scores'
p2205
I128
sS'caraway'
p2206
I128
sS'together'
p2207
I117
sS'loyal'
p2208
I128
sS'songz'
p2209
I127
sS'knockouts'
p2210
I128
sS'lineup'
p2211
I128
sS'songs'
p2212
I128
sS'concept'
p2213
I128
sS'impulse'
p2214
I128
sS'switched'
p2215
I127
sS'dance'
p2216
I124
sS'winterboard'
p2217
I128
sS'donsizzle'
p2218
I128
sS'devoted'
p2219
I128
sS'gimnasio'
p2220
I128
sS'supposedly'
p2221
I128
sS'grape'
p2222
I128
sS'zone'
p2223
I127
sS',91706\n490007254263808000,pyt_eveeee,2014-07-18'
p2224
I128
sS'terror'
p2225
I128
sS"22:30:20.0,34.07999699,-117.9978825,4046,i'm"
p2226
I128
sS'race.\xe2\x80\xa6'
p2227
I128
sS'brown'
p2228
I128
sS'hannah'
p2229
I128
sS'brownie'
p2230
I128
sS'vegas'
p2231
I116
sS'trouble'
p2232
I126
sS'blast'
p2233
I128
sS'brows'
p2234
I127
sS'margarita'
p2235
I127
sS'gnarly'
p2236
I126
sS"through....i've"
p2237
I128
sS'12:30:52.0,34.08249769,-117.99754939,4046,morning'
p2238
I128
sS'turnt'
p2239
I127
sS'soooo'
p2240
I128
sS'guy'
p2241
I107
sS'avoiding.\xe2\x80\x9d'
p2242
I128
sS"90's"
p2243
I128
sS'regret'
p2244
I127
sS'her.\xe2\x80\xa6'
p2245
I128
sS'everywun'
p2246
I128
sS'01:56:24.0,34.13083922,-117.94663534,4046,scumbag,91010\n482705229071126528,rawoolz,2014-06-28'
p2247
I128
sS'gluteal'
p2248
I128
sS'cost'
p2249
I128
sS'its_jeff_yo'
p2250
I128
sS'pozole'
p2251
I128
sS'bang)'
p2252
I128
sS'uniform'
p2253
I127
sS'tips:1'
p2254
I128
sS'appeal'
p2255
I128
sS'hopscura'
p2256
I128
sS'supporting'
p2257
I126
sS'suckers'
p2258
I128
sS'change'
p2259
I120
sS'sleepyy'
p2260
I128
sS'sending'
p2261
I127
sS'impatiently'
p2262
I128
sS'..same'
p2263
I128
sS'lakers'
p2264
I126
sS'flamed'
p2265
I128
sS'franklin'
p2266
I128
sS'usually'
p2267
I126
sS'homecoming'
p2268
I125
sS'hiking'
p2269
I128
sS'extra'
p2270
I123
sS'hoooooo'
p2271
I128
sS'fbi'
p2272
I128
sS'rarely'
p2273
I127
sS'jan'
p2274
I126
sS'prove'
p2275
I127
sS'you."'
p2276
I127
sS'angela'
p2277
I128
sS'live'
p2278
I81
sS'cuter'
p2279
I128
sS'matador'
p2280
I125
sS'situps'
p2281
I128
sS'club'
p2282
I117
sS'clue'
p2283
I127
sS'nguyen'
p2284
I126
sS'pettis'
p2285
I128
sS'is.\xe2\x80\x9d'
p2286
I128
sS'violencia'
p2287
I128
sS'decked'
p2288
I128
sS'niggas'
p2289
I125
sS'car'
p2290
I77
sS'cat'
p2291
I124
sS'purge'
p2292
I128
sS'hardest'
p2293
I128
sS'can'
p2294
I51
sS'cabeza'
p2295
I128
sS'cal'
p2296
I127
sS'*fact'
p2297
I128
sS'blows,91010\n496778212786339841,djharass,2014-08-05'
p2298
I128
sS'niggah'
p2299
I128
sS'doooooo'
p2300
I128
sS'natasha'
p2301
I128
sS'chiz'
p2302
I128
sS'heart'
p2303
I120
sS"ciara's"
p2304
I128
sS'sleep,91010\n491103171238842369,cathiayanez_,2014-07-21'
p2305
I128
sS"christina's"
p2306
I128
sS"didn't"
p2307
I89
sS'07:43:04.0,34.11332183,-117.94321554,4046,brb'
p2308
I128
sS'topic'
p2309
I128
sS'heard'
p2310
I128
sS'15:36:30.0,34.11620892,-117.97929474,4046,why'
p2311
I128
sS'chin'
p2312
I127
sS'reminded'
p2313
I128
sS'clothing'
p2314
I127
sS'jeanie'
p2315
I128
sS'ahahahahahahahajanajajajajha'
p2316
I128
sS'wenches'
p2317
I127
sS'unwavering'
p2318
I128
sS'productive'
p2319
I128
sS'write'
p2320
I126
sS'jiu-jitsu'
p2321
I128
sS'\xe2\x9d\xa4\xef\xb8\x8f\xe2\x9d\xa4\xef\xb8\x8f\xe2\x9d\xa4\xef\xb8\x8f'
p2322
I128
sS're-pick'
p2323
I128
sS"capability'"
p2324
I128
sS'divl'
p2325
I128
sS'southern'
p2326
I125
sS'push-up'
p2327
I128
sS'bawl'
p2328
I128
sS'bawm'
p2329
I128
sS'jousting'
p2330
I127
sS'produce'
p2331
I127
sS'lifting'
p2332
I128
sS'remember'
p2333
I113
sS'whenever'
p2334
I127
sS'benny'
p2335
I127
sS'love:pizzadisneylandbeerbutt'
p2336
I128
sS'kurt'
p2337
I128
sS'typical'
p2338
I127
sS'serving'
p2339
I128
sS'pipe'
p2340
I128
sS'indeed'
p2341
I128
sS'haircut'
p2342
I128
sS',91706\n505779805011185664,icameallover,2014-08-30'
p2343
I128
sS'mmmmkela'
p2344
I128
sS'ended'
p2345
I126
sS'yeayuh'
p2346
I128
sS'cold'
p2347
I125
sS'still'
p2348
I88
sS'birds'
p2349
I128
sS'birthdays'
p2350
I128
sS'xmas\xe2\x80\xa6'
p2351
I128
sS'window'
p2352
I125
sS'f\xc3\xa9lix'
p2353
I128
sS'showered'
p2354
I128
sS'barron'
p2355
I128
sS'half'
p2356
I118
sS'not'
p2357
I38
sS'now'
p2358
I55
sS'hall'
p2359
I125
sS'nor'
p2360
I127
sS'nos'
p2361
I128
sS'wont'
p2362
I127
sS'drop'
p2363
I122
sS'wong'
p2364
I128
sS'em'
p2365
I123
sS'el'
p2366
I101
sS'en'
p2367
I111
sS'fired'
p2368
I127
sS'ea'
p2369
I128
sS'yeah'
p2370
I100
sS"crapin'n"
p2371
I128
sS'soy'
p2372
I126
sS'annnd...break'
p2373
I128
sS'"wtf?"'
p2374
I128
sS'year'
p2375
I101
sS'happen'
p2376
I123
sS'ev'
p2377
I127
sS'es'
p2378
I124
sS'night\xe2\x9c\xa8'
p2379
I128
sS'rude'
p2380
I125
sS'space'
p2381
I128
sS'weeknds'
p2382
I128
sS'category..especially'
p2383
I128
sS'looking'
p2384
I106
sS'"que'
p2385
I128
sS'receiving'
p2386
I128
sS'tmntvan'
p2387
I128
sS'shows'
p2388
I127
sS'beachhhhh'
p2389
I128
sS'cars'
p2390
I120
sS'sunday,91010\n511280769546084352,cathiayanez_,2014-09-14'
p2391
I128
sS'advantages'
p2392
I128
sS'card'
p2393
I127
sS'care'
p2394
I119
sS'british'
p2395
I128
sS'qui\xc3\xa9n'
p2396
I128
sS'invitation'
p2397
I127
sS'blind'
p2398
I127
sS'626'
p2399
I128
sS'trying.\xe2\x80\x9d'
p2400
I128
sS'chocolatier'
p2401
I128
sS'toeing'
p2402
I128
sS'flipping'
p2403
I128
sS'xd'
p2404
I118
sS'yourself'
p2405
I121
sS'directly'
p2406
I128
sS'message'
p2407
I126
sS'drove'
p2408
I128
sS'tomorrow'
p2409
I101
sS"'em"
p2410
I122
sS'size'
p2411
I125
sS'checked'
p2412
I127
sS'silent'
p2413
I128
sS'caught'
p2414
I123
sS'dawnt'
p2415
I128
sS'weekdays'
p2416
I128
sS'carson'
p2417
I128
sS'brees'
p2418
I128
sS'friend'
p2419
I113
sS'x)'
p2420
I128
sS'niggaaaaaa'
p2421
I128
sS'mostly'
p2422
I128
sS'that'
p2423
I20
sS'baby<3'
p2424
I128
sS'pnw'
p2425
I128
sS'baja'
p2426
I128
sS'eliminated'
p2427
I128
sS'peck'
p2428
I128
sS'than'
p2429
I99
sS'existe'
p2430
I128
sS'edition'
p2431
I126
sS'karate'
p2432
I116
sS',91010\n501562346662141952,lokaletty,2014-08-19'
p2433
I128
sS'sublime'
p2434
I128
sS'angel'
p2435
I125
sS'premier'
p2436
I128
sS'editors'
p2437
I128
sS'(and'
p2438
I128
sS'slam'
p2439
I128
sS'dmoney'
p2440
I128
sS'breakfast'
p2441
I118
sS'18:29:58.0,34.09367769,-117.98925835,4046,the'
p2442
I128
sS'80/20'
p2443
I128
sS"uly's"
p2444
I127
sS'chulada'
p2445
I128
sS'hookah'
p2446
I127
sS'online'
p2447
I124
sS'begin'
p2448
I126
sS'poorin'
p2449
I128
sS'price'
p2450
I128
sS'fatyour'
p2451
I128
sS'america'
p2452
I127
sS'20:39:26.0,34.12890982,-117.94084354,4046,show'
p2453
I128
sS'sunset'
p2454
I128
sS'professional'
p2455
I127
sS'mrf'
p2456
I128
sS'typically'
p2457
I128
sS'german'
p2458
I128
sS'windshields'
p2459
I128
sS'scoreboard'
p2460
I128
sS'maine'
p2461
I126
sS'cheeseburgers'
p2462
I128
sS'crashing'
p2463
I128
sS'aint'
p2464
I127
sS'snack'
p2465
I128
sS'title'
p2466
I128
sS'friend.2'
p2467
I128
sS'saints'
p2468
I128
sS'sonicyhe'
p2469
I128
sS'only'
p2470
I81
sS'a\xc3\xb1ales'
p2471
I128
sS'pumpkin'
p2472
I127
sS'recuperation'
p2473
I128
sS'truly'
p2474
I125
sS'cannot'
p2475
I122
sS',91706\n511710534370996224,alexissaldanaaa,2014-09-16'
p2476
I128
sS'bracelets'
p2477
I128
sS'..,91706\n416708012045135872,richardsolis_,2013-12-27'
p2478
I128
sS'celebrate'
p2479
I123
sS'intercambiar'
p2480
I128
sS'leather'
p2481
I128
sS'somedaywhen'
p2482
I128
sS'amanda'
p2483
I128
sS'husband'
p2484
I128
sS'days,91010\n505513611821727744,djharass,2014-08-30'
p2485
I128
sS'concert'
p2486
I126
sS'"come'
p2487
I127
sS'physically'
p2488
I128
sS'asleep'
p2489
I124
sS'hoes'
p2490
I128
sS'sport'
p2491
I127
sS'mcdonalds'
p2492
I122
sS'duspeed'
p2493
I125
sS'3'
p2494
I106
sS'hadapi'
p2495
I128
sS'between'
p2496
I122
sS'wehhhhhh'
p2497
I128
sS'dreams\xe2\x81\xb0smiling'
p2498
I128
sS'yumm'
p2499
I128
sS"petrillo's"
p2500
I128
sS'blame'
p2501
I127
sS'hurts'
p2502
I127
sS'talented'
p2503
I128
sS'office...k'
p2504
I128
sS'hhaha'
p2505
I125
sS'comes'
p2506
I122
sS'here,91010\n491561009765564416,rawoolz,2014-07-22'
p2507
I128
sS'madness'
p2508
I128
sS'cuando'
p2509
I124
sS'gadis'
p2510
I128
sS"couldn't"
p2511
I126
sS'm\xc3\xbasica'
p2512
I128
sS'cycling'
p2513
I128
sS'cares'
p2514
I128
sS'reenacting'
p2515
I128
sS'rebuild'
p2516
I128
sS'cared'
p2517
I128
sS'sesh'
p2518
I128
sS'informes'
p2519
I128
sS'exhaustion'
p2520
I128
sS'01:47:06.0,34.12891022,-117.93574543,4046,for'
p2521
I128
sS'rubs'
p2522
I128
sS'06:11:34.0,34.1298479,-117.94371813,4046,and'
p2523
I128
sS'chorizo!!!repost'
p2524
I128
sS'argentina'
p2525
I128
sS'4-1'
p2526
I128
sS'these'
p2527
I101
sS'trick'
p2528
I128
sS"haven't"
p2529
I120
sS'coolest'
p2530
I128
sS'orientation'
p2531
I128
sS'canceled'
p2532
I128
sS'embrace'
p2533
I127
sS'eras'
p2534
I128
sS'heels'
p2535
I127
sS'seriously....3'
p2536
I128
sS'worry'
p2537
I123
sS'aqu\xc3\xa9llos'
p2538
I128
sS'medio'
p2539
I128
sS'media'
p2540
I113
sS'ya'
p2541
I110
sS'followers'
p2542
I128
sS'lite'
p2543
I127
sS'"ricardo"'
p2544
I128
sS'finish'
p2545
I126
sS'fruit'
p2546
I128
sS'favorites'
p2547
I128
sS'mentally'
p2548
I127
sS'\xe2\x9c\x8c\xef\xb8\x8f'
p2549
I127
sS'theater'
p2550
I128
sS'traps'
p2551
I128
sS'charger'
p2552
I127
sS'c63'
p2553
I128
sS'starbucks'
p2554
I121
sS'frankie'
p2555
I128
sS'dancers'
p2556
I128
sS'me...okay'
p2557
I128
sS'valuable'
p2558
I128
sS'amazebees'
p2559
I128
sS'actor'
p2560
I128
sS'touch'
p2561
I127
sS'entrenar'
p2562
I128
sS'speed'
p2563
I121
sS'death'
p2564
I127
sS'staging'
p2565
I127
sS'sheldon'
p2566
I128
sS'thinking'
p2567
I116
sS'paintingcelena'
p2568
I128
sS"gopro's"
p2569
I128
sS'bigger'
p2570
I127
sS'xena'
p2571
I128
sS'real'
p2572
I100
sS'duhh'
p2573
I126
sS'amo'
p2574
I126
sS'read'
p2575
I116
sS'stung'
p2576
I128
sS'gonna'
p2577
I76
sS'early'
p2578
I114
sS'listening'
p2579
I121
sS'using'
p2580
I125
sS'lady'
p2581
I114
sS'pounds'
p2582
I128
sS'guillehoward25'
p2583
I128
sS'miracle'
p2584
I128
sS't'
p2585
I127
sS'arguement'
p2586
I128
sS'm\xc3\xa1s'
p2587
I124
sS'pistolas'
p2588
I128
sS'business'
p2589
I127
sS'asap'
p2590
I128
sS'19:10:06.0,34.10807988,-117.97132891,4046,all'
p2591
I128
sS'assemble'
p2592
I128
sS':)))'
p2593
I128
sS'exciting'
p2594
I127
sS'throw'
p2595
I124
sS'working\xe2\x80\x9d'
p2596
I128
sS'choc'
p2597
I128
sS'panni'
p2598
I128
sS'srl'
p2599
I128
sS'diei'
p2600
I128
sS'greatly'
p2601
I128
sS'chow'
p2602
I128
sS'invitandome'
p2603
I128
sS'sry'
p2604
I128
sS'heavy'
p2605
I126
sS'2nite'
p2606
I128
sS'snapchat'
p2607
I122
sS'bitti'
p2608
I128
sS'"quests"'
p2609
I128
sS'elementary'
p2610
I128
sS'youu'
p2611
I128
sS'nowadays'
p2612
I128
sS'your'
p2613
I39
sS'loc'
p2614
I128
sS'neymar'
p2615
I128
sS'loe'
p2616
I128
sS'weekend'
p2617
I106
sS'lol'
p2618
I27
sS'los'
p2619
I113
sS'01:28:03.0,34.13453774,-117.9589511,4046,traffic'
p2620
I128
sS'unfking'
p2621
I128
sS'i-605'
p2622
I122
sS'low'
p2623
I126
sS'lot'
p2624
I113
sS'lmfaoooooo!!yeah'
p2625
I128
sS'uruapan)'
p2626
I126
sS'coolin'
p2627
I128
sS'shower'
p2628
I127
sS'00:34:16.0,34.10672636,-117.93262881,4046,mariscos'
p2629
I128
sS'you"'
p2630
I127
sS'"levanta'
p2631
I128
sS'evaaa'
p2632
I128
sS'trying'
p2633
I112
sS'strollers'
p2634
I128
sS'pharrell'
p2635
I127
sS',91706\n393047778097496064,vicgetsilly,2013-10-23'
p2636
I128
sS'bucket'
p2637
I124
sS'freddy'
p2638
I128
sS',91010\n512430398920351747,alexissaldanaaa,2014-09-18'
p2639
I128
sS'beliefs'
p2640
I127
sS'thicke'
p2641
I128
sS'605'
p2642
I109
sS'sales'
p2643
I126
sS'due\xc3\xb1o'
p2644
I128
sS'moves'
p2645
I128
sS'yoo'
p2646
I128
sS'todo'
p2647
I127
sS'bahahhaha'
p2648
I128
sS'event'
p2649
I75
sS'valid'
p2650
I128
sS'valio'
p2651
I127
sS'you'
p2652
I7
sS'vickis'
p2653
I128
sS'poop'
p2654
I126
sS'diaries'
p2655
I128
sS'chicharito'
p2656
I128
sS'drift'
p2657
I114
sS'coverage'
p2658
I128
sS'performances\xe2\x80\xa6'
p2659
I128
sS'pool'
p2660
I126
sS'3-3'
p2661
I128
sS'3-2'
p2662
I128
sS'strings'
p2663
I128
sS'monte'
p2664
I128
sS'since'
p2665
I116
sS'd35w'
p2666
I128
sS'af\xe2\x80\x9d'
p2667
I126
sS'month'
p2668
I126
sS'deadline'
p2669
I127
sS'messy'
p2670
I127
sS'd35e'
p2671
I128
sS'carpet'
p2672
I128
sS'20:32:38.0,34.10800911,-117.97135846,4046,i'
p2673
I128
sS'asada'
p2674
I128
sS'icons'
p2675
I128
sS'claire'
p2676
I128
sS'foster'
p2677
I128
sS'danielle'
p2678
I128
sS'elias'
p2679
I128
sS'krispy'
p2680
I128
sS'hill'
p2681
I128
sS'comercial'
p2682
I128
sS'very'
p2683
I118
sS'mph'
p2684
I127
sS'hahahahahahaha'
p2685
I127
sS'selfies'
p2686
I126
sS'decide'
p2687
I128
sS'parra'
p2688
I128
sS'baristas'
p2689
I128
sS'heaven'
p2690
I123
sS'11:1-44'
p2691
I128
sS'--'
p2692
I127
sS'louis'
p2693
I127
sS'orangethorpe\xe2\x80\x9d'
p2694
I128
sS'eat-her'
p2695
I128
sS'-1'
p2696
I128
sS'-<'
p2697
I128
sS'throbbing'
p2698
I128
sS'smith'
p2699
I128
sS'anak'
p2700
I128
sS"i'll"
p2701
I85
sS'dunk'
p2702
I124
sS'cookies'
p2703
I128
sS'corriendo'
p2704
I128
sS'instagram'
p2705
I127
sS'streets'
p2706
I128
sS'witnessed'
p2707
I128
sS'nana'
p2708
I127
sS'miss_stevee'
p2709
I128
sS'emotions'
p2710
I127
sS'skid'
p2711
I128
sS'learned'
p2712
I126
sS'repugnant'
p2713
I128
sS'first\xe2\x80\xa6'
p2714
I128
sS'iran'
p2715
I128
sS'venice'
p2716
I127
sS'answers'
p2717
I128
sS'tracks'
p2718
I128
sS'eventful'
p2719
I128
sS'strong'
p2720
I122
sS'respect'
p2721
I126
sS'addictions'
p2722
I128
sS'colored'
p2723
I128
sS'ahead'
p2724
I124
sS'20:14:24.0,34.1105374,-117.96811207,4046,damn'
p2725
I128
sS'amount'
p2726
I126
sS'arent'
p2727
I128
sS'heartbroken'
p2728
I128
sS'trainer'
p2729
I128
sS'loop.,91706\n116245737343422464,drinkswithsam,2011-09-20'
p2730
I128
sS'shuffle'
p2731
I128
sS'toughness'
p2732
I128
sS'family'
p2733
I95
sS'disgusting'
p2734
I126
sS'ask'
p2735
I116
sS'chunky'
p2736
I128
sS'sonnnnn'
p2737
I128
sS'flaws'
p2738
I128
sS'takes'
p2739
I125
sS'pasado'
p2740
I128
sS'taken'
p2741
I127
sS'turbo'
p2742
I127
sS'yuck'
p2743
I128
sS'excuse'
p2744
I127
sS'heehee...losers'
p2745
I128
sS'broke'
p2746
I126
sS'mounted'
p2747
I128
sS'grill'
p2748
I128
sS'ironpants'
p2749
I128
sS'offended'
p2750
I128
sS'spontaneous'
p2751
I127
sS'alyssa'
p2752
I127
sS'gas)'
p2753
I128
sS'adviser'
p2754
I128
sS'me,91702\n399845615904886784,vicgetsilly,2013-11-11'
p2755
I128
sS'irwinale'
p2756
I128
sS'pushed'
p2757
I128
sS'(605n'
p2758
I128
sS'lacks'
p2759
I128
sS"quickly's"
p2760
I128
sS'jeffcasi'
p2761
I128
sS'stayed'
p2762
I127
sS'ft'
p2763
I128
sS'tried'
p2764
I124
sS'amanecer'
p2765
I128
sS'tattoo'
p2766
I128
sS'fx'
p2767
I128
sS'sneak'
p2768
I127
sS'fe'
p2769
I95
sS',91010\n391257825608880128,vicgetsilly,2013-10-18'
p2770
I128
sS'horizontal'
p2771
I128
sS'fm'
p2772
I128
sS'a'
p2773
I5
sS'humbug'
p2774
I128
sS'apocalypse'
p2775
I128
sS'overnight'
p2776
I128
sS'anytime'
p2777
I128
sS'renewing'
p2778
I128
sS'tigres'
p2779
I127
sS'banks'
p2780
I128
sS'dream'
p2781
I124
sS'thansk'
p2782
I128
sS'/\xe2\x80\xa6'
p2783
I128
sS'like...wtf'
p2784
I128
sS'sooo'
p2785
I128
sS'soon'
p2786
I121
sS'bullpen'
p2787
I128
sS'hell'
p2788
I119
sS'helo'
p2789
I128
sS'like""'
p2790
I128
sS'exact'
p2791
I128
sS'actually'
p2792
I106
sS'destructionnnnnnnnn'
p2793
I128
sS'19:36:23.0,34.099566,-117.9529791,4046,sighhhh'
p2794
I128
sS'goodmorning'
p2795
I128
sS'fool'
p2796
I128
sS'rwb'
p2797
I128
sS'evening'
p2798
I128
sS'cec'
p2799
I128
sS'groping'
p2800
I128
sS'yo'
p2801
I118
sS'food'
p2802
I115
sS'ye'
p2803
I125
sS'yg'
p2804
I127
sS'hahahahahaha'
p2805
I128
sS"you've"
p2806
I121
sS'foot'
p2807
I126
sS'ninja'
p2808
I126
sS'fabo'
p2809
I128
sS'foos'
p2810
I128
sS'bryan'
p2811
I124
sS'faire'
p2812
I24
sS'sundays'
p2813
I128
sS'fully'
p2814
I127
sS'bless'
p2815
I127
sS'stopped'
p2816
I126
sS'hazzah'
p2817
I128
sS'fairy'
p2818
I127
sS'trailer'
p2819
I126
sS'a----'
p2820
I128
sS'perdier\xc3\xb3n'
p2821
I128
sS'dia'
p2822
I128
sS's------'
p2823
I128
sS'prabowo'
p2824
I122
sS'squishy'
p2825
I128
sS'butthurt'
p2826
I128
sS'anarchy'
p2827
I126
sS':\\'
p2828
I128
sS'juniors'
p2829
I128
sS'<<<'
p2830
I128
sS'robert'
p2831
I128
sS'surrounded'
p2832
I127
sS'glendora'
p2833
I127
sS'wolverine'
p2834
I128
sS'hayden'
p2835
I128
sS'safety'
p2836
I128
sS'7'
p2837
I113
sS'ass'
p2838
I103
sS'mathh'
p2839
I128
sS'bass'
p2840
I128
sS'dirt'
p2841
I128
sS'today...if'
p2842
I128
sS'"bye"'
p2843
I128
sS'pug'
p2844
I128
sS'asb'
p2845
I128
sS'reason'
p2846
I120
sS'base'
p2847
I128
sS'brightest'
p2848
I128
sS'put'
p2849
I109
sS'diri'
p2850
I128
sS'pup'
p2851
I128
sS'launch'
p2852
I121
sS'*pauses'
p2853
I128
sS'terrible'
p2854
I128
sS'round'
p2855
I116
sS'caption'
p2856
I128
sS'american'
p2857
I127
sS'expecting'
p2858
I126
sS"it'll"
p2859
I127
sS'interact'
p2860
I128
sS'fucked'
p2861
I125
sS'minutes*'
p2862
I128
sS'miss'
p2863
I82
sS'4loko'
p2864
I128
sS'wonderful'
p2865
I128
sS'bed.,91706\n387257226865295360,vicgetsilly,2013-10-07'
p2866
I128
sS'hundred'
p2867
I128
sS'banana'
p2868
I128
sS'selling'
p2869
I126
sS'storm'
p2870
I128
sS'jordan'
p2871
I128
sS'1913'
p2872
I128
sS'racetrack'
p2873
I128
sS'17:29:19.0,34.10807952,-117.97133432,4046,so'
p2874
I128
sS'steadyclothing'
p2875
I127
sS'assaulted'
p2876
I128
sS'utopia'
p2877
I128
sS'nuthin'
p2878
I128
sS'depre'
p2879
I128
sS'headache'
p2880
I126
sS'ousted'
p2881
I124
sS'texans'
p2882
I128
sS'wasnt'
p2883
I128
sS'chipmunk'
p2884
I128
sS'juice'
p2885
I127
sS'lie'
p2886
I126
sS'u.s'
p2887
I128
sS'god..feel'
p2888
I128
sS'lil'
p2889
I123
sS'henna'
p2890
I103
sS'lit'
p2891
I128
sS'experienced'
p2892
I127
sS'quote'
p2893
I128
sS'experiences'
p2894
I126
sS'channeling'
p2895
I128
sS'eaten'
p2896
I128
sS'rhiannon'
p2897
I128
sS'alpha'
p2898
I127
sS'03:10:36.0,34.13213377,-117.95047704,4046,an'
p2899
I128
sS'mack'
p2900
I128
sS'5-2'
p2901
I128
sS'performances'
p2902
I127
sS'clear'
p2903
I126
sS'clean'
p2904
I125
sS'shoutout'
p2905
I128
sS'perseverance'
p2906
I128
sS'socks....so'
p2907
I128
sS'humid'
p2908
I128
sS'n00dz'
p2909
I128
sS'tener'
p2910
I128
sS'hyped'
p2911
I128
sS'stalker'
p2912
I128
sS'clothes&was'
p2913
I128
sS'confundido'
p2914
I128
sS'completion'
p2915
I128
sS'flashmob'
p2916
I128
sS'krystofer'
p2917
I127
sS'paranoid'
p2918
I127
sS'pomerance'
p2919
I128
sS'randy'
p2920
I128
sS'pretty'
p2921
I106
sS'questions.\xe2\x80\xa6'
p2922
I128
sS'circle'
p2923
I127
sS'juke'
p2924
I128
sS'meanwhile'
p2925
I128
sS'trees'
p2926
I128
sS'famous'
p2927
I126
sS'feels'
p2928
I117
sS'3/4'
p2929
I128
sS'competing'
p2930
I128
sS'during'
p2931
I124
sS'x'
p2932
I116
sS'seventeen'
p2933
I128
sS'throwing'
p2934
I127
sS'pu\xc3\xb1al'
p2935
I128
sS'manning'
p2936
I126
sS'close'
p2937
I117
sS'guys\xe2\x80\x9d'
p2938
I128
sS'pictures'
p2939
I123
sS'wow'
p2940
I114
sS'juego'
p2941
I127
sS'woo'
p2942
I128
sS'won'
p2943
I121
sS'probably'
p2944
I119
sS'rlly'
p2945
I128
sS'piss'
p2946
I128
sS'st./notre'
p2947
I128
sS'missing'
p2948
I120
sS'both'
p2949
I121
sS'toward'
p2950
I127
sS'azuza'
p2951
I117
sS"wouldn't"
p2952
I123
sS'sensitive'
p2953
I128
sS'forgotten'
p2954
I128
sS'liked'
p2955
I128
sS'jeff'
p2956
I128
sS'whatever'
p2957
I123
sS'ahorita'
p2958
I128
sS'mysteryeach'
p2959
I128
sS'likes'
p2960
I125
sS'605n'
p2961
I127
sS'help'
p2962
I111
sS'moments\xe2\x9c\xa8'
p2963
I128
sS'af:('
p2964
I128
sS'damn'
p2965
I105
sS',91702\n503361200156323840,rawoolz,2014-08-24'
p2966
I128
sS'faceshot'
p2967
I128
sS'territory'
p2968
I128
sS'\xe2\x80\x9chere\xe2\x80\x99s'
p2969
I128
sS'c/o'
p2970
I126
sS'dame'
p2971
I128
sS'lived'
p2972
I128
sS'else'
p2973
I123
sS'lives'
p2974
I128
sS'ayeeeee'
p2975
I128
sS'lool'
p2976
I128
sS'look'
p2977
I90
sS'mccolin'
p2978
I128
sS'bikini'
p2979
I128
sS'nap"'
p2980
I128
sS'biking'
p2981
I128
sS'guide'
p2982
I128
sS'pack'
p2983
I127
sS'smacked'
p2984
I128
sS'estampas'
p2985
I128
sS'caravaning'
p2986
I128
sS'fyf'
p2987
I128
sS'hellos'
p2988
I128
sS'shaw'
p2989
I119
sS'8:00'
p2990
I128
sS'grant'
p2991
I126
sS'belong'
p2992
I128
sS'g.g'
p2993
I128
sS'grand'
p2994
I128
sS'conflict'
p2995
I128
sS'used'
p2996
I123
sS'temporary'
p2997
I128
sS'fatty'
p2998
I128
sS'faire)'
p2999
I127
sS'dime'
p3000
I128
sS'05:10:46.0,34.0957213,-117.9870347,4046,headed'
p3001
I128
sS'poner'
p3002
I128
sS'cleaning'
p3003
I126
sS'older'
p3004
I127
sS'obviously'
p3005
I126
sS'flaming'
p3006
I128
sS'praying'
p3007
I127
sS'cemetery'
p3008
I128
sS'soooooo'
p3009
I126
sS'havid'
p3010
I128
sS'march'
p3011
I128
sS'radiator'
p3012
I128
sS'"oooooh"'
p3013
I128
sS'showing'
p3014
I127
sS'marca'
p3015
I128
sS'game'
p3016
I93
sS'culturally'
p3017
I128
sS'wiser'
p3018
I128
sS'wings'
p3019
I126
sS'bolsa'
p3020
I128
sS'toyota'
p3021
I106
sS'verga'
p3022
I128
sS'20:14:50.0,34.1300995,-117.9418131,4046,holla'
p3023
I128
sS'tonight..tbh'
p3024
I128
sS'mac,91706\n390520585714806784,vicgetsilly,2013-10-16'
p3025
I128
sS'sketch'
p3026
I128
sS'parade'
p3027
I73
sS'brakes'
p3028
I128
sS'tambi\xc3\xa9n'
p3029
I128
sS'royboysays'
p3030
I128
sS'umpa'
p3031
I128
sS'some'
p3032
I54
sS'urgent'
p3033
I128
sS'expected!\xe2\x80\xa6'
p3034
I128
sS'usgvmwd'
p3035
I128
sS'sinqua'
p3036
I128
sS'gt-r'
p3037
I128
sS'forgets'
p3038
I127
sS'foley'
p3039
I128
sS'everybody'
p3040
I127
sS'run'
p3041
I107
sS'rum'
p3042
I128
sS'lakes'
p3043
I128
sS'usmnt'
p3044
I126
sS'step'
p3045
I125
sS'works)'
p3046
I126
sS'04:50:45.0,34.11558098,-117.97754103,4046,so'
p3047
I128
sS'nerves'
p3048
I128
sS'at&t'
p3049
I128
sS'raspberry'
p3050
I128
sS'shine'
p3051
I128
sS'faith'
p3052
I127
sS'tacos&wingz'
p3053
I128
sS'awwww'
p3054
I128
sS'idk'
p3055
I119
sS'shiny'
p3056
I127
sS'block'
p3057
I128
sS'seeing'
p3058
I119
sS'se\xc3\xb1ora'
p3059
I128
sS'dude'
p3060
I93
sS'within'
p3061
I126
sS'kay'
p3062
I128
sS'smells'
p3063
I127
sS'.-'
p3064
I126
sS"alonzo's"
p3065
I128
sS'.4'
p3066
I128
sS'0-5'
p3067
I128
sS'specialty'
p3068
I128
sS'pwd'
p3069
I128
sS'toucan'
p3070
I128
sS'._'
p3071
I128
sS'info'
p3072
I122
sS'pooner'
p3073
I128
sS',91706\n393047565559541760,vicgetsilly,2013-10-23'
p3074
I128
sS'wicked'
p3075
I128
sS'similar'
p3076
I128
sS'(adventista'
p3077
I128
sS'monumental'
p3078
I128
sS'psychopath'
p3079
I128
sS'nah'
p3080
I122
sS'-the'
p3081
I128
sS'kickboxing'
p3082
I128
sS'nat'
p3083
I128
sS'destruction\xe2\x80\xa2creds'
p3084
I128
sS'mamen'
p3085
I128
sS'05:08:39.0,34.09313592,-117.99033442,4046,i'
p3086
I128
sS'pads<333333333'
p3087
I128
sS'william'
p3088
I128
sS'drag'
p3089
I109
sS'evaa'
p3090
I128
sS'earphones'
p3091
I128
sS'e'
p3092
I121
sS'youtube'
p3093
I125
sS'fosse'
p3094
I128
sS"she's"
p3095
I107
sS'sounded'
p3096
I128
sS'dvr'
p3097
I128
sS'soillll'
p3098
I128
sS'gg'
p3099
I127
sS'ga'
p3100
I128
sS'go'
p3101
I48
sS'kata'
p3102
I127
sS'psycho'
p3103
I128
sS'tweeted'
p3104
I127
sS'(cross)'
p3105
I128
sS'excludes'
p3106
I128
sS'wizard'
p3107
I128
sS'nose'
p3108
I124
sS'suite'
p3109
I128
sS'friendly'
p3110
I127
sS'esa'
p3111
I128
sS'suspension..such'
p3112
I128
sS'catapillar'
p3113
I128
sS'kitty'
p3114
I128
sS'wave'
p3115
I128
sS'wavy'
p3116
I128
sS'facebook'
p3117
I127
sS'waveland'
p3118
I128
sS'stilletos'
p3119
I128
sS'meant'
p3120
I127
sS'button'
p3121
I128
sS'michael'
p3122
I126
sS'stfu'
p3123
I124
sS'deleting'
p3124
I127
sS'booty'
p3125
I124
sS'01:12:09.0,34.12999509,-117.94462312,4046,&'
p3126
I128
sS'waking'
p3127
I127
sS'jump'
p3128
I125
sS'booth'
p3129
I114
sS'picked'
p3130
I128
sS'download'
p3131
I127
sS'cartel'
p3132
I128
sS'me?\xc2\xbf\xc2\xbf\xc2\xbf\xc2\xbf\xc2\xbf???\xc2\xbf\xc2\xbf\xc2\xbf'
p3133
I128
sS'poke'
p3134
I128
sS'plays'
p3135
I127
sS'espresso'
p3136
I128
sS'vampire'
p3137
I128
sS'cell'
p3138
I128
sS'rotten'
p3139
I128
sS'crispiest'
p3140
I128
sS"reale's"
p3141
I128
sS'cool,91010\n403979799418261504,vicgetsilly,2013-11-22'
p3142
I128
sS'commercial'
p3143
I128
sS'growing'
p3144
I127
sS'hasbeen'
p3145
I128
sS'vacay'
p3146
I128
sS'64%'
p3147
I124
sS'gastelum'
p3148
I128
sS'products'
p3149
I128
sS"weren't"
p3150
I127
sS'aoas'
p3151
I126
sS'chang'
p3152
I127
sS'danger'
p3153
I127
sS'win'
p3154
I107
sS'wii'
p3155
I128
sS'wit'
p3156
I128
sS'gimmick'
p3157
I128
sS'wiz'
p3158
I127
sS'crap'
p3159
I122
sS'schedule\xe2\x9a\xbd\xef\xb8\x8f'
p3160
I128
sS'iration'
p3161
I128
sS'remains'
p3162
I128
sS'camera'
p3163
I127
sS'crab'
p3164
I128
sS'jonathan'
p3165
I128
sS'\xe2\x80\xa2night'
p3166
I128
sS'belgian'
p3167
I128
sS'1/2'
p3168
I124
sS'21:48:36.0,34.13624946,-117.94552837,4046,i'
p3169
I128
sS'started'
p3170
I119
sS'isac'
p3171
I127
sS':-('
p3172
I123
sS'confused'
p3173
I126
sS'abroad\xe2\x80\xa6'
p3174
I128
sS'mitsubishi'
p3175
I128
sS'rivalry'
p3176
I128
sS'boards'
p3177
I128
sS'meeh'
p3178
I128
sS'salad'
p3179
I128
sS'ride'
p3180
I120
sS'donut'
p3181
I128
sS'crossed'
p3182
I128
sS'jokowi'
p3183
I127
sS'meet'
p3184
I124
sS'control'
p3185
I123
sS'toms'
p3186
I128
sS'halloween'
p3187
I125
sS'escaped'
p3188
I128
sS'booooo1'
p3189
I128
sS'pulling'
p3190
I128
sS'kevinchi56'
p3191
I128
sS'publicity'
p3192
I128
sS'youuuuuuu.\xe2\x9c\xa8'
p3193
I128
sS'kian'
p3194
I128
sS'over."'
p3195
I128
sS'chevrolet'
p3196
I128
sS'reguetoneros'
p3197
I128
sS'placemnt'
p3198
I128
sS'19:56:26.0,34.1354033,-117.9488473,4046,dead'
p3199
I128
sS'non-asians'
p3200
I128
sS'cu\xc3\xb1ada'
p3201
I128
sS'ren-faire'
p3202
I66
sS'scoop'
p3203
I128
sS'bakery'
p3204
I127
sS"elisa's"
p3205
I128
sS'fastest'
p3206
I128
sS'bathing'
p3207
I128
sS'fresno'
p3208
I128
sS'ticket'
p3209
I123
sS'costume'
p3210
I128
sS'anyone,91010\n502637046796914688,rawoolz,2014-08-22'
p3211
I128
sS',91706\n489951789689483264,rawoolz,2014-07-18'
p3212
I128
sS'walnut'
p3213
I127
sS'madre'
p3214
I126
sS'irish'
p3215
I127
sS'camino'
p3216
I128
sS'stout'
p3217
I128
sS'hands'
p3218
I126
sS'front'
p3219
I121
sS'handy'
p3220
I128
sS'slide'
p3221
I126
sS'magnitude'
p3222
I128
sS't-shirts'
p3223
I128
sS'todavia'
p3224
I128
sS'2...so'
p3225
I128
sS'|'
p3226
I128
sS'seniors'
p3227
I128
sS'illuminati'
p3228
I128
sS'chunk'
p3229
I128
sS'ills'
p3230
I128
sS'that!?,91706\n410486600527671296,vicgetsilly,2013-12-10'
p3231
I128
sS'special'
p3232
I123
sS'entertainment'
p3233
I127
sS'ricky'
p3234
I128
sS'cause'
p3235
I105
sS'70s'
p3236
I128
sS'attending'
p3237
I126
sS'completely'
p3238
I125
sS'negros'
p3239
I128
sS'14:08:37.0,34.09079997,-117.99289391,4046,thank'
p3240
I128
sS'princess'
p3241
I127
sS'myslef'
p3242
I128
sS'route'
p3243
I126
sS'florida'
p3244
I128
sS'guillermina'
p3245
I128
sS'times'
p3246
I120
sS'counterpart'
p3247
I128
sS'vegass'
p3248
I128
sS'austin'
p3249
I127
sS'powerful'
p3250
I128
sS'wayyy'
p3251
I128
sS'bitch'
p3252
I106
sS'drinker'
p3253
I128
sS'food...i'
p3254
I128
sS'quality'
p3255
I128
sS"you're"
p3256
I65
sS'playlist'
p3257
I128
sS'bears'
p3258
I127
sS'mal'
p3259
I126
sS'noooooo'
p3260
I128
sS'cuzzo'
p3261
I128
sS'final'
p3262
I122
sS'selifies'
p3263
I128
sS'2-1'
p3264
I128
sS'exactly'
p3265
I127
sS',91706\n410826860520427520,vicgetsilly,2013-12-11'
p3266
I128
sS'listo'
p3267
I128
sS'lol,91010\n491349982880878592,djharass,2014-07-21'
p3268
I128
sS'bieber'
p3269
I128
sS'herself'
p3270
I126
sS'ben'
p3271
I127
sS'bed'
p3272
I125
sS'bee'
p3273
I127
sS'anaheim'
p3274
I127
sS'firework'
p3275
I128
sS'6th'
p3276
I127
sS'bet'
p3277
I127
sS'ni\xc3\xb1a'
p3278
I128
sS'portrait'
p3279
I128
sS'need'
p3280
I74
sS'sings'
p3281
I128
sS'able'
p3282
I127
sS'pushups'
p3283
I128
sS'truck'
p3284
I121
sS'blades'
p3285
I128
sS'aww'
p3286
I123
sS'pensando'
p3287
I128
sS'pasadena)'
p3288
I128
sS'poofs'
p3289
I128
sS'awk'
p3290
I128
sS'preparations'
p3291
I115
sS'cleats'
p3292
I128
sS"hand's"
p3293
I128
sS'upset'
p3294
I128
sS'est\xc3\xa1n'
p3295
I127
sS'urs'
p3296
I128
sS'$$$'
p3297
I128
sS'oncology'
p3298
I128
sS',91702\n484719081283538944,xonly_kingsx,2014-07-03'
p3299
I128
sS'santa\xe2\x80\xa6'
p3300
I128
sS'shield'
p3301
I127
sS'ayee'
p3302
I127
sS'tire'
p3303
I124
sS'('
p3304
I123
sS"o'fers"
p3305
I128
sS'winner'
p3306
I128
sS'brighten'
p3307
I128
sS'mistral'
p3308
I128
sS'hector'
p3309
I128
sS'illustrative'
p3310
I128
sS'libre'
p3311
I128
sS'fuel'
p3312
I128
sS'12+'
p3313
I127
sS'tbt'
p3314
I127
sS'sipping'
p3315
I128
sS'tbh'
p3316
I123
sS'sassy'
p3317
I128
sS'dpr'
p3318
I128
sS'trucks'
p3319
I126
sS'course'
p3320
I126
sS'shy'
p3321
I127
sS'house...why'
p3322
I128
sS'tuned'
p3323
I128
sS'she'
p3324
I79
sS'grab'
p3325
I128
sS'grad'
p3326
I127
sS'prayers'
p3327
I128
sS'shake'
p3328
I128
sS'computer'
p3329
I125
sS'situation'
p3330
I128
sS'stats'
p3331
I128
sS'luv'
p3332
I122
sS'picture\xe2\x80\x9d'
p3333
I128
sS'103:1'
p3334
I128
sS'nightmare'
p3335
I127
sS'state'
p3336
I126
sS'correctly'
p3337
I128
sS'horrible'
p3338
I127
sS'luh'
p3339
I128
sS'jay-z/beyonce'
p3340
I128
sS'v\xc3\xaddeo'
p3341
I128
sS'tent'
p3342
I127
sS'kicking'
p3343
I124
sS'key'
p3344
I124
sS'kev'
p3345
I128
sS'precious'
p3346
I127
sS'mythbusters'
p3347
I128
sS'problem'
p3348
I126
sS'hits'
p3349
I128
sS'limits'
p3350
I128
sS'career'
p3351
I127
sS'nltthe'
p3352
I128
sS'minds'
p3353
I128
sS'admit'
p3354
I125
sS"'carb"
p3355
I128
sS'jersey'
p3356
I127
sS'racecar'
p3357
I128
sS'*_*'
p3358
I128
sS'paranormal'
p3359
I128
sS'cynicism'
p3360
I128
sS"burger's"
p3361
I128
sS'tiene'
p3362
I127
sS'quit'
p3363
I127
sS'kalah'
p3364
I128
sS'yay'
p3365
I123
sS'yas'
p3366
I128
sS'quiz'
p3367
I128
sS'slowly'
p3368
I128
sS'1/10th'
p3369
I128
sS'eraser'
p3370
I128
sS'troopers'
p3371
I128
sS'league'
p3372
I127
sS'vince'
p3373
I126
sS'necaxa'
p3374
I128
sS'controller'
p3375
I128
sS'-.-'
p3376
I124
sS'sensei'
p3377
I128
sS'digger'
p3378
I128
sS'chivas'
p3379
I127
sS'harder'
p3380
I128
sS"'66"
p3381
I128
sS'haye'
p3382
I128
sS'surface'
p3383
I128
sS',91706\n404452514428231680,vicgetsilly,2013-11-24'
p3384
I128
sS'bucks'
p3385
I128
sS'"r"'
p3386
I128
sS'adored'
p3387
I128
sS'began'
p3388
I128
sS'asana'
p3389
I128
sS'party'
p3390
I103
sS'solange'
p3391
I128
sS'huntsman'
p3392
I128
sS'byeeeee'
p3393
I128
sS',91706\n493210943317221378,rawoolz,2014-07-27'
p3394
I128
sS'destruction'
p3395
I127
sS'//'
p3396
I127
sS'ashley'
p3397
I126
sS'i'
p3398
I2
sS'well'
p3399
I99
sS'boring\xe2\x80\x9d'
p3400
I128
sS'taller'
p3401
I128
sS'oak'
p3402
I128
sS'accurate'
p3403
I125
sS'bosses)'
p3404
I128
sS'skill'
p3405
I128
sS'02:05:34.0,34.112839,-117.9898795,4046,bout'
p3406
I128
sS'19:40:21.0,34.12439606,-117.96658999,4046,i'
p3407
I128
sS'vida'
p3408
I128
sS'fumar'
p3409
I128
sS'bullshit'
p3410
I124
sS'kick'
p3411
I120
sS'pero'
p3412
I124
sS'desean'
p3413
I128
sS'utah'
p3414
I128
sS'livid'
p3415
I127
sS'immediately'
p3416
I128
sS'intersection'
p3417
I128
sS'loss'
p3418
I128
sS'necessary'
p3419
I128
sS'lost'
p3420
I123
sS'sizes'
p3421
I128
sS'candy'
p3422
I127
sS'taping'
p3423
I128
sS'sissy'
p3424
I128
sS'lose'
p3425
I125
sS'page'
p3426
I127
sS'zote'
p3427
I128
sS'twitter'
p3428
I114
sS'motive'
p3429
I128
sS'preguntando'
p3430
I128
sS'shes'
p3431
I127
sS'home'
p3432
I92
sS'peter'
p3433
I128
sS'98%'
p3434
I128
sS"heaven's"
p3435
I128
sS'before)'
p3436
I128
sS',91706\n391627919044272128,vicgetsilly,2013-10-19'
p3437
I128
sS'solicita'
p3438
I128
sS'swartz'
p3439
I128
sS'hahahahahahhahahahhah'
p3440
I128
sS'usan'
p3441
I128
sS'p\xc3\xa9rez"'
p3442
I128
sS'phantogram'
p3443
I128
sS'dum'
p3444
I128
sS"marvin's"
p3445
I128
sS'\xc3\xa1lbum'
p3446
I127
sS'17:22:04.0,34.1349274,-117.9494652,4046,already'
p3447
I128
sS"18:58:26.0,34.1311975,-117.9294854,4046,i'm"
p3448
I128
sS'rendqh'
p3449
I128
sS'tongue'
p3450
I128
sS'dub'
p3451
I128
sS'pastries'
p3452
I127
sS'h8'
p3453
I125
sS'it!!,91706\n387952386033319936,vicgetsilly,2013-10-09'
p3454
I128
sS'!hahaha'
p3455
I128
sS'cocoa'
p3456
I128
sS'receptor'
p3457
I128
sS'artists'
p3458
I128
sS'pointless'
p3459
I128
sS'hmmmmm'
p3460
I128
sS'say"i\'ll'
p3461
I128
sS'networking'
p3462
I128
sS'daniels'
p3463
I128
sS'noticed'
p3464
I128
sS'5.3sec'
p3465
I128
sS'inner'
p3466
I128
sS'say\xe2\x80\xa6'
p3467
I128
sS'tetsu'
p3468
I128
sS'inspiration'
p3469
I128
sS'north'
p3470
I127
sS'kandi'
p3471
I128
sS'hr'
p3472
I127
sS'hahahahhahahahahaahahhahaahahahah'
p3473
I128
sS'blaming'
p3474
I128
sS'strawberries'
p3475
I128
sS'goals'
p3476
I128
sS'yeaaa'
p3477
I128
sS'ha'
p3478
I123
sS'eat'
p3479
I120
sS'he'
p3480
I65
sS'signed'
p3481
I127
sS'whoa'
p3482
I128
sS'(16034'
p3483
I128
sS'cruel'
p3484
I128
sS'converted'
p3485
I128
sS'pumped'
p3486
I128
sS'\xc3\x89se'
p3487
I128
sS'(pasadena'
p3488
I128
sS'piece'
p3489
I127
sS'renaisance'
p3490
I125
sS'kisses'
p3491
I127
sS'twist'
p3492
I128
sS'beats'
p3493
I126
sS'eric'
p3494
I126
sS'pas\xc3\xb3'
p3495
I128
sS'diego'
p3496
I125
sS'arre'
p3497
I128
sS'contest'
p3498
I127
sS'babyyyyy'
p3499
I128
sS'talkin'
p3500
I128
sS'star'
p3501
I127
sS'stay'
p3502
I115
sS'stab'
p3503
I128
sS'pathways'
p3504
I128
sS'spenca'
p3505
I128
sS'friends'
p3506
I105
sS'crybabies'
p3507
I128
sS'annoying,91010\n510880087869501440,djharass,2014-09-13'
p3508
I128
sS'atheist'
p3509
I127
sS'gymkhana\xe2\x80\xa6'
p3510
I128
sS'bcz'
p3511
I128
sS'katherine'
p3512
I128
sS'anymore,91010\n483566526394400768,babyyrossee,2014-06-30'
p3513
I128
sS'whoops'
p3514
I128
sS'gelsons'
p3515
I128
sS'asian'
p3516
I126
sS'perverted'
p3517
I128
sS'whose'
p3518
I128
sS'buddy'
p3519
I121
sS'aug'
p3520
I128
sS'aum'
p3521
I128
sS'kaloo-kalay'
p3522
I128
sS'teaching'
p3523
I128
sS'sorry'
p3524
I112
sS'updated'
p3525
I128
sS'rescue'
p3526
I128
sS'stolen'
p3527
I128
sS'updates'
p3528
I128
sS"jason's"
p3529
I128
sS'today('
p3530
I128
sS'skills'
p3531
I128
sS'solution'
p3532
I128
sS'no.1'
p3533
I128
sS"northview's"
p3534
I128
sS'ups'
p3535
I126
sS'clothes'
p3536
I126
sS"knight's\xe2\x80\xa6"
p3537
I128
sS'quils'
p3538
I128
sS'me"'
p3539
I127
sS'me-'
p3540
I127
sS'crave'
p3541
I127
sS'42:10-17'
p3542
I128
sS'olvido'
p3543
I128
sS'even'
p3544
I78
sS'neh'
p3545
I128
sS'wreck'
p3546
I128
sS'integrity'
p3547
I128
sS'while'
p3548
I117
sS'fuhhhh'
p3549
I127
sS'h&m'
p3550
I128
sS'sobre'
p3551
I128
sS'new'
p3552
I64
sS'net'
p3553
I128
sS'ever'
p3554
I87
sS'med'
p3555
I128
sS'10"'
p3556
I128
sS'seribu'
p3557
I128
sS'never'
p3558
I82
sS'drew'
p3559
I127
sS'met'
p3560
I123
sS'108'
p3561
I128
sS'millers\xe2\x80\xa6'
p3562
I128
sS'nanny'
p3563
I128
sS'active'
p3564
I126
sS'100'
p3565
I124
sS"aren't"
p3566
I123
sS'dry'
p3567
I127
sS'jams'
p3568
I127
sS'kizame'
p3569
I128
sS'betta...play'
p3570
I128
sS'piercing'
p3571
I128
sS'credit'
p3572
I127
sS'cindy'
p3573
I127
sS'permit'
p3574
I128
sS',91010\n481980994996563968,vicgetsilly,2014-06-26'
p3575
I128
sS'guud'
p3576
I128
sS'joshua'
p3577
I127
sS'fantastic'
p3578
I128
sS'county'
p3579
I127
sS'corssed'
p3580
I128
sS'moral'
p3581
I128
sS'newly-elected'
p3582
I128
sS'cali'
p3583
I126
sS'call'
p3584
I116
sS'calm'
p3585
I127
sS'survive'
p3586
I127
sS'type'
p3587
I127
sS'tell'
p3588
I111
sS'posting'
p3589
I128
sS'killas'
p3590
I128
sS'expose'
p3591
I128
sS'linkin77'
p3592
I128
sS'warm'
p3593
I125
sS'yussef'
p3594
I128
sS'ward'
p3595
I128
sS'ware'
p3596
I128
sS'"porque'
p3597
I128
sS'$$$,91010\n496778250006585344,djharass,2014-08-05'
p3598
I128
sS'mae"'
p3599
I128
sS'room'
p3600
I119
sS'setup'
p3601
I127
sS'sacude'
p3602
I128
sS"winchell's"
p3603
I128
sS'21:13:39.0,34.12123196,-117.98963263,4046,camacho'
p3604
I128
sS'movies'
p3605
I126
sS'"orange'
p3606
I128
sS'23:09:52.0,34.13441105,-117.95802629,4046,so'
p3607
I128
sS'give'
p3608
I105
sS'punk'
p3609
I128
sS'laughs'
p3610
I126
sS'honey'
p3611
I128
sS'ready'
p3612
I91
sS'foods'
p3613
I128
sS'homie'
p3614
I123
sS'maleficent'
p3615
I128
sS"jotech's"
p3616
I128
sS'the\xe2\x80\xa6'
p3617
I127
sS'amazing'
p3618
I108
sS'becerra'
p3619
I128
sS'answer'
p3620
I128
sS'futboleros'
p3621
I80
sS'loyalty'
p3622
I128
sS'president'
p3623
I125
sS'purchase'
p3624
I127
sS'horchata'
p3625
I128
sS'anymore'
p3626
I113
sS'looove'
p3627
I128
sS'goodbye'
p3628
I126
sS'banger'
p3629
I128
sS'happy\xe2\x80\xa6'
p3630
I122
sS'deck'
p3631
I128
sS'down*'
p3632
I128
sS'before'
p3633
I106
sS'tripona'
p3634
I128
sS'frisky'
p3635
I128
sS'tdwp'
p3636
I128
sS'canci\xc3\xb3n'
p3637
I128
sS'crew'
p3638
I125
sS'better'
p3639
I87
sS'personas'
p3640
I128
sS'weeks'
p3641
I122
sS'chickened'
p3642
I128
sS'cred'
p3643
I128
sS'overcome'
p3644
I128
sS'combination'
p3645
I128
sS'weakness'
p3646
I128
sS'workout'
p3647
I126
sS'five!\xe2\x9c\x8b'
p3648
I128
sS'\xe2\x98\xba\xef\xb8\x8f'
p3649
I126
sS'one'
p3650
I46
sS'weenie'
p3651
I128
sS'1.\xe2\x80\xa6'
p3652
I127
sS'"faire-bassist"'
p3653
I128
sS'grammar'
p3654
I127
sS'meat'
p3655
I127
sS'arrested'
p3656
I127
sS'lucy'
p3657
I128
sS'ass.:-)'
p3658
I128
sS'mead'
p3659
I127
sS'namedrop'
p3660
I128
sS"doctor's"
p3661
I128
sS'acoustic'
p3662
I128
sS'went'
p3663
I111
sS'lol,91010\n490575284488261632,djharass,2014-07-19'
p3664
I128
sS'side'
p3665
I124
sS'mean'
p3666
I108
sS'awwwwwesome'
p3667
I128
sS'gabbys'
p3668
I128
sS'dadesigns'
p3669
I128
sS'milan'
p3670
I128
sS'taught'
p3671
I126
sS'trading'
p3672
I128
sS'forgot'
p3673
I126
sS'classmates'
p3674
I128
sS'ratchetness'
p3675
I128
sS'velvet'
p3676
I127
sS'pussies'
p3677
I128
sS'content'
p3678
I127
sS'!,91010\n487329119084888065,djharass,2014-07-10'
p3679
I128
sS'ihop'
p3680
I128
sS'surprise'
p3681
I125
sS'turning'
p3682
I128
sS'cutest'
p3683
I127
sS'gahhh'
p3684
I128
sS'bestow'
p3685
I128
sS'favz'
p3686
I128
sS'struggle'
p3687
I126
sS'02:00:36.0,34.13297498,-117.95303813,4046,anything'
p3688
I128
sS'starts'
p3689
I125
sS'messages'
p3690
I127
sS'hahahahahahbahahahahahahahahahhhhhahahhahaah'
p3691
I128
sS'moving'
p3692
I127
sS'loud'
p3693
I128
sS'fuckin'
p3694
I121
sS'user'
p3695
I128
sS'naughty'
p3696
I128
sS'grade'
p3697
I125
sS'hook'
p3698
I125
sS'featured'
p3699
I127
sS'warped'
p3700
I128
sS'hooo'
p3701
I128
sS'hood'
p3702
I125
sS'bonita'
p3703
I127
sS'concussion'
p3704
I128
sS'girls'
p3705
I112
sS'legitttttt'
p3706
I128
sS'howzit'
p3707
I128
sS'dwell'
p3708
I128
sS',91706\n403219300149780480,vicgetsilly,2013-11-20'
p3709
I128
sS'gym'
p3710
I124
sS'delusional,91010\n506281293957857280,gina_boo79,2014-09-01'
p3711
I128
sS'begins'
p3712
I126
sS'illestbrand'
p3713
I128
sS'tities'
p3714
I128
sS'irwindale)'
p3715
I118
sS'preparation'
p3716
I128
sS'matter'
p3717
I125
sS'years\xe2\x80\xa6'
p3718
I128
sS'fabulous'
p3719
I128
sS'silly'
p3720
I128
sS'spoiled'
p3721
I128
sS'knights'
p3722
I128
sS'mini'
p3723
I128
sS'cheek'
p3724
I128
sS'sees'
p3725
I128
sS'mind'
p3726
I115
sS'mine'
p3727
I123
sS'seen'
p3728
I122
sS'seem'
p3729
I123
sS'mins'
p3730
I127
sS'00:23:18.0,34.1297941,-117.9416285,4046,too'
p3731
I128
sS'ahahahahahahahahha'
p3732
I128
sS'chest'
p3733
I128
sS'niece'
p3734
I128
sS'rappers'
p3735
I128
sS'mashed'
p3736
I128
sS'mario'
p3737
I128
sS'heyman'
p3738
I128
sS'marie'
p3739
I128
sS'pronite'
p3740
I128
sS'7am'
p3741
I128
sS'don'
p3742
I128
sS'doo'
p3743
I128
sS'doc'
p3744
I127
sS'medical'
p3745
I128
sS'm'
p3746
I126
sS'dog'
p3747
I118
sS'doe'
p3748
I128
sS'definitely'
p3749
I116
sS'dos'
p3750
I128
sS'annoyed'
p3751
I128
sS'kristen'
p3752
I128
sS',91010\n500116956763422720,babyyrossee,2014-08-15'
p3753
I128
sS'lyrics'
p3754
I128
sS'hunger'
p3755
I128
sS'1149'
p3756
I128
sS'ending'
p3757
I127
sS'kruger'
p3758
I128
sS'nevada'
p3759
I128
sS'weekends'
p3760
I127
sS'sugar'
p3761
I128
sS"crow's"
p3762
I125
sS'boyfriend'
p3763
I125
sS'wearing'
p3764
I123
sS'monica'
p3765
I127
sS'stop'
p3766
I105
sS'appetizer'
p3767
I128
sS'waot'
p3768
I128
sS'bar'
p3769
I125
sS'haaaaaayll'
p3770
I128
sS'blunt,91706\n398690986852753408,vicgetsilly,2013-11-08'
p3771
I128
sS'bay'
p3772
I128
sS'me.,91706\n461352675792392192,wzrd_astrodanny,2014-04-30'
p3773
I128
sS'bag'
p3774
I125
sS'bad'
p3775
I99
sS'bae'
p3776
I114
sS'troop'
p3777
I128
sS'mawnin'
p3778
I128
sS'scraping'
p3779
I128
sS'grilled'
p3780
I128
sS'bam'
p3781
I128
sS'but"'
p3782
I128
sS'ears'
p3783
I125
sS'reference'
p3784
I128
sS'pocas'
p3785
I128
sS'zones'
p3786
I128
sS'decided'
p3787
I125
sS'subject'
p3788
I128
sS'brazil'
p3789
I128
sS'said'
p3790
I94
sS'duff'
p3791
I128
sS'sorta'
p3792
I128
sS'imessage'
p3793
I128
sS'shaved'
p3794
I128
sS"there's"
p3795
I113
sS'simplest'
p3796
I128
sS'sorts'
p3797
I128
sS'warrior'
p3798
I128
sS'lazy'
p3799
I127
sS'omg'
p3800
I109
sS'omh'
p3801
I127
sS'ignorance'
p3802
I128
sS'omw'
p3803
I125
sS'omt'
p3804
I128
sS'cousin'
p3805
I123
sS'picking'
p3806
I127
sS'(about'
p3807
I128
sS'against'
p3808
I124
sS"harley's"
p3809
I128
sS'una'
p3810
I121
sS'believveeeeee'
p3811
I128
sS'guaranteed'
p3812
I128
sS'boys)'
p3813
I126
sS'springs'
p3814
I127
sS'today?,91706\n386255959837790208,vicgetsilly,2013-10-04'
p3815
I128
sS'veneno'
p3816
I128
sS'heeyyy'
p3817
I128
sS'nicer'
p3818
I128
sS'asks'
p3819
I125
sS'three'
p3820
I126
sS'tiny'
p3821
I128
sS'commission'
p3822
I128
sS'tina'
p3823
I128
sS'basic'
p3824
I126
sS'basil'
p3825
I128
sS'puto'
p3826
I128
sS'lovely'
p3827
I124
sS'website'
p3828
I128
sS'wannnna'
p3829
I128
sS'deeper'
p3830
I128
sS'sooooo'
p3831
I128
sS'chuy'
p3832
I128
sS'ayyee'
p3833
I128
sS'gracias'
p3834
I123
sS'tank'
p3835
I122
sS'spontaneously'
p3836
I128
sS'encontrar'
p3837
I128
sS'near'
p3838
I127
sS'suppose'
p3839
I127
sS'widdit'
p3840
I128
sS'chilling'
p3841
I128
sS'seven'
p3842
I128
sS'mexico'
p3843
I126
sS'ip'
p3844
I128
sS'is'
p3845
I10
sS'ir'
p3846
I128
sS'it'
p3847
I17
sS'fakes'
p3848
I128
sS'jess'
p3849
I128
sS'cant'
p3850
I121
sS'im'
p3851
I93
sS'in'
p3852
I12
sS'mujer'
p3853
I128
sS'mouse'
p3854
I128
sS'id'
p3855
I127
sS'ig'
p3856
I127
sS'if'
p3857
I44
sS'grown'
p3858
I128
sS'fatherless'
p3859
I128
sS'make'
p3860
I97
sS'22:36:42.0,34.11033,-117.987335,4046,fo'
p3861
I128
sS'belly'
p3862
I126
sS'80s'
p3863
I128
sS'lol,91706\n496732544222502914,jay403_,2014-08-05'
p3864
I128
sS'kik'
p3865
I128
sS'renaissance'
p3866
I43
sS'kim'
p3867
I127
sS'unicorn'
p3868
I126
sS'jealous'
p3869
I125
sS'opportunity'
p3870
I128
sS"he'll"
p3871
I127
sS'thoughts'
p3872
I126
sS'kid'
p3873
I125
sS'butter'
p3874
I128
sS'practiced'
p3875
I128
sS'smokey'
p3876
I128
sS'youre'
p3877
I119
sS'materials'
p3878
I128
sS'yours'
p3879
I125
sS'left'
p3880
I115
sS'just'
p3881
I22
sS'yea'
p3882
I114
sS'||'
p3883
I128
sS'ceja'
p3884
I128
sS'fighters'
p3885
I127
sS'facts'
p3886
I127
sS'yep'
p3887
I128
sS'yes'
p3888
I107
sS'yer'
p3889
I128
sS'tattooed'
p3890
I128
sS'yet'
p3891
I115
sS'17:17:13.0,34.099566,-117.9529791,4046,dude'
p3892
I128
sS'juggulae'
p3893
I128
sS'character'
p3894
I128
sS'tbh\xe2\x80\x9d'
p3895
I128
sS'potential'
p3896
I126
sS'carshow'
p3897
I127
sS'save'
p3898
I125
sS':o,91706\n463022739834425344,kiowalani,2014-05-04'
p3899
I128
sS'amarillo'
p3900
I128
sS'discreet'
p3901
I127
sS'background'
p3902
I128
sS'wanting'
p3903
I124
sS'opm'
p3904
I128
sS'gustan'
p3905
I128
sS'highly'
p3906
I128
sS'awakeeeee'
p3907
I128
sS'dreams'
p3908
I126
sS'said*lol'
p3909
I128
sS'-_-'
p3910
I126
sS'performing'
p3911
I118
sS'16:47:30.0,34.10887733,-117.97188172,4046,come'
p3912
I128
sS'deal'
p3913
I124
sS'bruh,91706\n368609601408610304,zu_cia,2013-08-17'
p3914
I128
sS'dead'
p3915
I122
sS'punching'
p3916
I128
sS'kbbq'
p3917
I128
sS'dear'
p3918
I126
sS'canon_photos'
p3919
I128
sS'theatre'
p3920
I128
sS'shakespeare'
p3921
I128
sS'carta'
p3922
I128
sS'"ready"'
p3923
I128
sS'ww2'
p3924
I128
sS'burn'
p3925
I123
sS'burt'
p3926
I128
sS'woodrow'
p3927
I126
sS'super'
p3928
I106
sS'oreo'
p3929
I127
sS'yelling'
p3930
I127
sS'oraci\xc3\xb3n'
p3931
I128
sS'afternoon'
p3932
I125
sS'whats'
p3933
I128
sS'selfie'
p3934
I126
sS',91010\n432808024437030912,qrobertson31,2014-02-10'
p3935
I128
sS'down'
p3936
I87
sS'lies'
p3937
I127
sS'whata'
p3938
I128
sS'knee'
p3939
I126
sS',91706\n501760371640659968,nicciryleigh,2014-08-19'
p3940
I128
sS'annabele'
p3941
I128
sS'flying'
p3942
I125
sS'cantik'
p3943
I128
sS'editor'
p3944
I125
sS'kevroan'
p3945
I128
sS'fathers'
p3946
I128
sS'form'
p3947
I127
sS'batman'
p3948
I128
sS'fireworks'
p3949
I126
sS'badu'
p3950
I128
sS'landing'
p3951
I128
sS'ford'
p3952
I128
sS'failure'
p3953
I128
sS'225'
p3954
I128
sS'fort'
p3955
I128
sS'tempel'
p3956
I128
sS'whiskey'
p3957
I128
sS'daddy'
p3958
I125
sS'legit?\xe2\x80\x9d'
p3959
I128
sS'delete'
p3960
I126
sS'classic'
p3961
I128
sS'drive'
p3962
I114
sS'die"'
p3963
I128
sS'awhile'
p3964
I128
sS'shit'
p3965
I65
sS'agreeing'
p3966
I128
sS'handed'
p3967
I128
sS'warehouse'
p3968
I126
sS'holly'
p3969
I128
sS'hangin'
p3970
I127
sS'handicap'
p3971
I128
sS'dies'
p3972
I126
sS'felt'
p3973
I126
sS'joeyscottthedrummer'
p3974
I127
sS'hahahahahaa'
p3975
I128
sS'fell'
p3976
I125
sS'performanceat'
p3977
I128
sS'died'
p3978
I126
sS'happening'
p3979
I127
sS'potato'
p3980
I128
sS'assume'
p3981
I127
sS'restores'
p3982
I128
sS'jacket'
p3983
I128
sS'ahahahahah'
p3984
I128
sS'cannon\xe2\x80\x9d'
p3985
I128
sS'teeth'
p3986
I128
sS'forsberg64'
p3987
I128
sS'n00dstep'
p3988
I128
sS'skip'
p3989
I128
sS'walking'
p3990
I124
sS'manager'
p3991
I128
sS'mile'
p3992
I127
sS'skin'
p3993
I127
sS'shot'
p3994
I123
sS'milk'
p3995
I127
sS'21st'
p3996
I127
sS'tonight.,91706\n391226290679730176,vicgetsilly,2013-10-18'
p3997
I128
sS'father'
p3998
I127
sS'likeeeee'
p3999
I128
sS'innie'
p4000
I128
sS'countdown'
p4001
I127
sS'0'
p4002
I128
sS'finally'
p4003
I109
sS'swoop'
p4004
I128
sS'destroy...remember'
p4005
I128
sS'suffered'
p4006
I127
sS'shoot'
p4007
I126
sS'string'
p4008
I127
sS'billionaire'
p4009
I128
sS'tacos'
p4010
I125
sS"mil'"
p4011
I128
sS'wore'
p4012
I128
sS'did'
p4013
I92
sS'die'
p4014
I125
sS'9&screamed'
p4015
I128
sS'accidentally'
p4016
I128
sS'keepers'
p4017
I128
sS'somos'
p4018
I128
sS'div'
p4019
I128
sS'teeflii'
p4020
I128
sS'dis'
p4021
I125
sS'ville'
p4022
I128
sS'talked'
p4023
I126
sS'seasoning'
p4024
I128
sS's0on'
p4025
I128
sS'eating'
p4026
I117
sS'semifinals'
p4027
I128
sS'sriracchhaa'
p4028
I128
sS'reunite'
p4029
I128
sS'skyzone'
p4030
I128
sS'international'
p4031
I128
sS'hummer'
p4032
I128
sS'i-210e/irwindale'
p4033
I128
sS'elbow'
p4034
I128
sS'earthquake'
p4035
I128
sS'wait'
p4036
I90
sS'box'
p4037
I126
sS'boy'
p4038
I113
sS'yessss'
p4039
I128
sS'shift'
p4040
I126
sS'boi'
p4041
I128
sS'boo'
p4042
I124
sS'massage'
p4043
I128
sS'dick'
p4044
I127
sS',91706\n505779213681455105,icameallover,2014-08-30'
p4045
I128
sS'flexibility'
p4046
I128
sS'contradictions'
p4047
I128
sS'monterrey'
p4048
I128
sS'perf'
p4049
I127
sS'baes'
p4050
I127
sS'aye'
p4051
I126
sS'visit'
p4052
I123
sS'ayy'
p4053
I128
sS'peru'
p4054
I128
sS'ahhh'
p4055
I127
sS'ahahahahhaahahhahahahaha'
p4056
I128
sS'krystal'
p4057
I128
sS'thru'
p4058
I127
sS'sharing'
p4059
I128
sS'india'
p4060
I128
sS'downtown'
p4061
I127
sS'espero'
p4062
I128
sS'mayetlis'
p4063
I128
sS'effort'
p4064
I128
sS'capturing'
p4065
I128
sS'couson'
p4066
I128
sS'fly'
p4067
I128
sS'uly'
p4068
I128
sS'recuerden'
p4069
I128
sS'ulv'
p4070
I128
sS'soul'
p4071
I125
sS'ulu'
p4072
I128
sS'soup'
p4073
I127
sS'sour'
p4074
I128
sS'fla'
p4075
I128
sS'making'
p4076
I118
sS'arrive'
p4077
I127
sS'lords'
p4078
I127
sS'crazy'
p4079
I117
sS'kenneth'
p4080
I128
sS'swaque'
p4081
I128
sS'fuck'
p4082
I70
sS'pink'
p4083
I128
sS'21:39:37.0,34.12898438,-117.94061862,4046,catching'
p4084
I128
sS'03:09:08.0,34.1330856,-117.95580556,4046,wait'
p4085
I128
sS'till'
p4086
I116
sS'sunday'
p4087
I115
sS'pure'
p4088
I127
sS'pins'
p4089
I128
sS'nya'
p4090
I128
sS'puro'
p4091
I128
sS'staying'
p4092
I124
sS'may'
p4093
I121
sS'pappiest'
p4094
I128
sS'scratch'
p4095
I128
sS'mad'
p4096
I111
sS'mah'
p4097
I128
sS'guys'
p4098
I94
sS'grow'
p4099
I125
sS'man'
p4100
I88
sS'00:23:10.0,34.1297941,-117.9416285,4046,i'
p4101
I128
sS'lifeeeestyleeee'
p4102
I128
sS'maybe'
p4103
I118
sS'q'
p4104
I128
sS'switch'
p4105
I128
sS'jail'
p4106
I127
sS'african'
p4107
I128
sS'tall'
p4108
I125
sS'talk'
p4109
I110
sS'cute'
p4110
I111
sS'dojo'
p4111
I125
sS'shoes'
p4112
I125
sS'cuto'
p4113
I128
sS'wishing'
p4114
I128
sS'makiwaza'
p4115
I128
sS"17:55:46.0,34.13414766,-117.95610782,4046,there's"
p4116
I128
sS'kimmel'
p4117
I128
sS'pitch'
p4118
I127
sS'marshmallows'
p4119
I128
sS'police'
p4120
I126
sS'thank'
p4121
I107
sS'smoothie'
p4122
I128
sS'interesting'
p4123
I123
sS'ap\xc3\xb3stata)'
p4124
I128
sS'espn/'
p4125
I128
sS'thanx'
p4126
I128
sS'tweets'
p4127
I124
sS'that.."'
p4128
I128
sS'main'
p4129
I122
sS'bullshii'
p4130
I128
sS'views'
p4131
I128
sS'killer'
p4132
I128
sS'sarcastic'
p4133
I128
sS'tucker'
p4134
I128
sS'lunch'
p4135
I117
sS'srsly'
p4136
I127
sS'killed'
p4137
I128
sS'teller'
p4138
I128
sS'ggoooooo'
p4139
I128
sS'rock'
p4140
I123
sS'x10'
p4141
I128
sS'unlock'
p4142
I128
sS'girl'
p4143
I102
sS'relive'
p4144
I128
sS'living'
p4145
I125
sS'idfwu'
p4146
I128
sS'and\xe2\x80\xa6'
p4147
I127
sS'jackson'
p4148
I128
sS"wur'"
p4149
I128
sS'3rd'
p4150
I127
sS'2\xe2\x9d\xa4\xef\xb8\x8f'
p4151
I128
sS'amonoss'
p4152
I128
sS'stupid'
p4153
I114
sS'montoya'
p4154
I126
sS'poca'
p4155
I128
sS'earlier'
p4156
I126
sS'monster'
p4157
I126
sS'romans'
p4158
I128
sS'oro'
p4159
I128
sS';p,91010\n505515883922325504,djharass,2014-08-30'
p4160
I128
sS'california'
p4161
I118
sS'tuf20'
p4162
I128
sS'advance'
p4163
I128
sS'sacando'
p4164
I128
sS'wurk'
p4165
I128
sS'headphones'
p4166
I128
sS'worrying'
p4167
I127
sS'thing'
p4168
I105
sS'nuff'
p4169
I128
sS'every\xe2\x80\xa6'
p4170
I128
sS'porkchop...on...a'
p4171
I128
sS'think'
p4172
I83
sS'first'
p4173
I80
sS'cheese'
p4174
I127
sS'h\xc3\xa4r'
p4175
I128
sS'crib'
p4176
I128
sS'lexx'
p4177
I128
sS'duit"'
p4178
I128
sS'fast'
p4179
I123
sS'carry'
p4180
I128
sS'sounds'
p4181
I115
sS'cheesy'
p4182
I127
sS'interchange'
p4183
I123
sS'little'
p4184
I102
sS'adik'
p4185
I128
sS'1x'
p4186
I128
sS'slept'
p4187
I128
sS'anyone'
p4188
I113
sS'gorra'
p4189
I128
sS'was.,91706\n386194127919915008,vicgetsilly,2013-10-04'
p4190
I128
sS'eyes'
p4191
I118
sS'boba'
p4192
I126
sS'broadcast'
p4193
I128
sS'eyed'
p4194
I128
sS"here's"
p4195
I126
sS'11'
p4196
I124
sS'10'
p4197
I119
sS'13'
p4198
I126
sS'12'
p4199
I123
sS'15'
p4200
I123
sS'14'
p4201
I125
sS'17'
p4202
I127
sS'cool/fine'
p4203
I128
sS'19'
p4204
I128
sS'18'
p4205
I127
sS'gotta'
p4206
I122
sS'protected'
p4207
I128
sS'knives'
p4208
I128
sS'swearing-in'
p4209
I128
sS'were'
p4210
I105
sS'all................carry'
p4211
I128
sS"cnh's"
p4212
I128
sS',91706\n505784484797480960,icameallover,2014-08-30'
p4213
I128
sS'marijuana'
p4214
I128
sS'qued\xc3\xa9'
p4215
I128
sS'dash'
p4216
I128
sS'voiced'
p4217
I128
sS'northview'
p4218
I128
sS'foreigner'
p4219
I128
sS'squad'
p4220
I127
sS'"yeah'
p4221
I128
sS'bailey'
p4222
I128
sS'performance'
p4223
I128
sS'pranks'
p4224
I128
sS'channel'
p4225
I126
sS'ultimate'
p4226
I127
sS'200'
p4227
I128
sS'pain'
p4228
I126
sS'wooow'
p4229
I128
sS'normal'
p4230
I126
sS'track'
p4231
I122
sS'paid'
p4232
I126
sS'formulad'
p4233
I123
sS'tracy'
p4234
I128
sS'woooo'
p4235
I128
sS'sutton'
p4236
I128
sS'especially'
p4237
I127
sS'shop'
p4238
I126
sS'takis'
p4239
I128
sS'playoffs'
p4240
I128
sS'show'
p4241
I94
sS'cuajitos"'
p4242
I128
sS'movie,91010\n491350332442562560,djharass,2014-07-21'
p4243
I128
sS'estoy'
p4244
I126
sS'therapist'
p4245
I128
sS'corner'
p4246
I128
sS'takin'
p4247
I128
sS'laughlin'
p4248
I128
sS'17:36:33.0,34.1070142,-117.9412247,4046,so'
p4249
I128
sS'treasure'
p4250
I128
sS'behind'
p4251
I127
sS'spirituality'
p4252
I128
sS'black'
p4253
I120
sS'muffin'
p4254
I128
sS'get'
p4255
I31
sS'23:22:14.0,34.1338782,-117.9540781,4046,turn'
p4256
I128
sS"01:55:45.0,34.12441501,-117.97707493,4046,you're"
p4257
I128
sS'nearly'
p4258
I128
sS'gen'
p4259
I128
sS'secondary'
p4260
I128
sS'buuuut'
p4261
I128
sS'waaait'
p4262
I128
sS'morning'
p4263
I110
sS'chupar'
p4264
I128
sS'miles'
p4265
I125
sS'finishing'
p4266
I128
sS'bachata'
p4267
I128
sS'dempsey'
p4268
I128
sS'seat'
p4269
I126
sS',91702\n511948375277965312,sdweeks14,2014-09-16'
p4270
I128
sS',91010\n497886392920588289,babyyrossee,2014-08-08'
p4271
I128
sS'sean'
p4272
I128
sS'eliminating'
p4273
I128
sS'seal'
p4274
I128
sS'calendar'
p4275
I128
sS'wonder'
p4276
I123
sS'podr\xc3\xadas'
p4277
I128
sS'satisfying'
p4278
I128
sS'camping'
p4279
I127
sS'24/7'
p4280
I128
sS"father's"
p4281
I128
sS'enough'
p4282
I117
sS'gaga'
p4283
I128
sS'erikarobie'
p4284
I128
sS'ramones'
p4285
I128
sS'g\xc3\xbcd'
p4286
I128
sS'reading'
p4287
I127
sS'checks'
p4288
I128
sS'\xe2\x99\xbf\xef\xb8\x8f'
p4289
I128
sS'august'
p4290
I125
sS'kool'
p4291
I128
sS'people!\xe2\x80\xa6'
p4292
I128
sS'killing'
p4293
I125
sS'tuh'
p4294
I128
sS'jk'
p4295
I124
sS'js'
p4296
I128
sS'tuf'
p4297
I128
sS'jc'
p4298
I128
sS'dates'
p4299
I128
sS'faggotry'
p4300
I127
sS'126mpr'
p4301
I128
sS'preparations\xe2\x80\xa6'
p4302
I128
sS'tour'
p4303
I126
sS'dated'
p4304
I128
sS'6:30'
p4305
I128
sS'cancer'
p4306
I128
sS'wth?,91706\n508417912567504896,goldhydrangeas,2014-09-07'
p4307
I128
sS'possessive'
p4308
I128
sS'17:52:27.0,34.10808563,-117.97131551,4046,maki'
p4309
I128
sS'yooooo'
p4310
I128
sS'arts'
p4311
I126
sS'ucla'
p4312
I127
sS'mark'
p4313
I126
sS'jab\xc3\xb3n'
p4314
I128
sS'judging'
p4315
I128
sS'shopping'
p4316
I128
sS'graveyard'
p4317
I128
sS'gander'
p4318
I128
sS'dramatic'
p4319
I128
sS'wake'
p4320
I121
sS'bmx'
p4321
I126
sS'those'
p4322
I116
sS'sound'
p4323
I126
sS'turtles'
p4324
I126
sS'coco'
p4325
I126
sS'hmmmm'
p4326
I128
sS'cock'
p4327
I128
sS'bathrooms'
p4328
I128
sS'world\xe2\x80\xa6'
p4329
I128
sS'sincere'
p4330
I128
sS'coffee'
p4331
I121
sS'sleeping'
p4332
I127
sS'jitsu'
p4333
I128
sS'middle'
p4334
I123
sS'sudden'
p4335
I128
sS'macadamia'
p4336
I128
sS'everyday'
p4337
I118
sS'there?,91706\n415166820761350145,vicgetsilly,2013-12-23'
p4338
I128
sS'bags'
p4339
I128
sS'different'
p4340
I121
sS'samm'
p4341
I128
sS'doctor'
p4342
I126
sS'pay'
p4343
I125
sS'paz'
p4344
I128
sS'pepe'
p4345
I128
sS'bleezy'
p4346
I128
sS'same'
p4347
I114
sS'reniassance'
p4348
I128
sS'pad'
p4349
I124
sS'arguments'
p4350
I128
sS'pah'
p4351
I126
sS'raddest'
p4352
I128
sS'pak'
p4353
I128
sS'pal'
p4354
I128
sS'disappointment'
p4355
I128
sS'exhaust'
p4356
I127
sS'jeffrey'
p4357
I128
sS'oil'
p4358
I127
sS'hullo'
p4359
I122
sS'running'
p4360
I127
sS'totally'
p4361
I126
sS'igualmente'
p4362
I128
sS'amazes'
p4363
I128
sS'roommate'
p4364
I126
sS'solve'
p4365
I127
sS'bottle'
p4366
I128
sS"pa'"
p4367
I128
sS'bumping'
p4368
I126
sS'amazed'
p4369
I128
sS'gates'
p4370
I128
sS'clogging'
p4371
I128
sS'money'
p4372
I120
sS'sights'
p4373
I128
sS'pissing'
p4374
I127
sS'wifey'
p4375
I128
sS'flavor'
p4376
I128
sS'hawmie'
p4377
I128
sS'girl,91010\n484869044432957440,jessileighmym,2014-07-04'
p4378
I128
sS'yaaay'
p4379
I128
sS'nap'
p4380
I120
sS'parar'
p4381
I128
sS'pile'
p4382
I128
sS'4'
p4383
I110
sS'down....omg'
p4384
I128
sS'extensive'
p4385
I128
sS'22:30:09.0,34.13375113,-117.95614106,4046,sam'
p4386
I128
sS'(les'
p4387
I128
sS'naw'
p4388
I127
sS'himno'
p4389
I128
sS'1:7'
p4390
I128
sS'mom'
p4391
I93
sS'disappointed'
p4392
I127
sS'moe'
p4393
I128
sS'christina'
p4394
I128
sS'adams'
p4395
I128
sS'homegirl'
p4396
I128
sS'chamber'
p4397
I128
sS'thighs'
p4398
I126
sS"formulad's"
p4399
I128
sS'pobre'
p4400
I128
sS'snoring'
p4401
I128
sS'joan'
p4402
I126
sS'matching'
p4403
I128
sS'octane'
p4404
I128
sS'gross'
p4405
I126
sS'lotto'
p4406
I128
sS'outa'
p4407
I128
sS'kms'
p4408
I128
sS'aussie'
p4409
I128
sS'seconds'
p4410
I125
sS'fitness'
p4411
I127
sS'broken'
p4412
I127
sS'shooottt'
p4413
I128
sS'stations'
p4414
I128
sS'swagoo'
p4415
I128
sS'pockets'
p4416
I126
sS'provisional'
p4417
I128
sS'road'
p4418
I117
sS'dagger'
p4419
I128
sS'whites'
p4420
I126
sS'blessed'
p4421
I126
sS'strip'
p4422
I122
sS',91706\n393047883752042497,vicgetsilly,2013-10-23'
p4423
I128
sS'bluffside'
p4424
I128
sS'pharmaceutical'
p4425
I128
sS'shelly'
p4426
I126
sS'downey'
p4427
I128
sS'structure'
p4428
I128
sS'alameda'
p4429
I128
sS'redbull'
p4430
I128
sS'downer'
p4431
I128
sS'pasando'
p4432
I127
sS'mornings'
p4433
I128
sS'fricken'
p4434
I128
sS'striker'
p4435
I128
sS'wiping'
p4436
I128
sS'romantic'
p4437
I128
sS"wasn't"
p4438
I124
sS'ronaldo'
p4439
I127
sS"brother's"
p4440
I128
sS'manuel'
p4441
I128
sS'affection'
p4442
I128
sS'wants'
p4443
I117
sS'videos'
p4444
I127
sS'deep'
p4445
I125
sS'girlfriend'
p4446
I128
sS'reeeaaalllyyy'
p4447
I128
sS'23:11:46.0,34.13110691,-117.9470646,4046,this'
p4448
I128
sS'fill'
p4449
I127
sS'again'
p4450
I99
sS'drivers'
p4451
I124
sS'hybrid'
p4452
I128
sS'field'
p4453
I124
sS'twerk'
p4454
I128
sS'obsessed'
p4455
I120
sS'important'
p4456
I128
sS'of\xe2\x80\xa6'
p4457
I128
sS'lugnuttz'
p4458
I128
sS'20mins'
p4459
I128
sS'ombr\xc3\xa9'
p4460
I128
sS'u'
p4461
I57
sS'"cali"'
p4462
I128
sS'alright'
p4463
I126
sS'starting'
p4464
I123
sS'now...when'
p4465
I128
sS'forget'
p4466
I118
sS'dollar'
p4467
I124
sS'dollas'
p4468
I128
sS'besitos'
p4469
I128
sS'talks'
p4470
I127
sS'children'
p4471
I127
sS'"9th"'
p4472
I127
sS'emily'
p4473
I127
sS'woooow'
p4474
I128
sS'imma'
p4475
I122
sS'z'
p4476
I128
sS'laid'
p4477
I128
sS'wooooo'
p4478
I128
sS'enjoying'
p4479
I126
sS'mandela'
p4480
I128
sS'sitting'
p4481
I119
sS'instavideo'
p4482
I128
sS'*favs'
p4483
I128
sS"*you're"
p4484
I128
sS'bestie'
p4485
I128
sS'bleach'
p4486
I127
sS'difference'
p4487
I128
sS'heyimluis12'
p4488
I128
sS'alma'
p4489
I128
sS'donovan'
p4490
I127
sS'karatedo'
p4491
I128
sS'04:15:47.0,34.0793707,-117.990822,4046,me'
p4492
I128
sS'far?"'
p4493
I128
sS'zero'
p4494
I128
sS'slip-on'
p4495
I128
sS'further'
p4496
I128
sS'21:38:52.0,34.1101541,-117.9414244,4046,everything'
p4497
I128
sS'gm'
p4498
I125
sS'ribbon'
p4499
I128
sS'90s'
p4500
I128
sS'abb'
p4501
I128
sS'abc'
p4502
I128
sS'abd'
p4503
I128
sS'dcon'
p4504
I128
sS'caffeine'
p4505
I128
sS'sooooooo'
p4506
I128
sS'tribute'
p4507
I128
sS',91706\n145633061596430336,ernee858,2011-12-10'
p4508
I128
sS'public'
p4509
I125
sS"lol'd"
p4510
I128
sS"c'mon"
p4511
I128
sS'c.a.d.a'
p4512
I128
sS'surfer'
p4513
I127
sS'christy'
p4514
I128
sS'bible'
p4515
I126
sS'psalms'
p4516
I127
sS'fwd'
p4517
I128
sS'jackie'
p4518
I128
sS'fwy'
p4519
I118
sS'pathological'
p4520
I128
sS'you\xe2\x80\x99re'
p4521
I128
sS"alexis'"
p4522
I128
sS'huzzah'
p4523
I121
sS'puki'
p4524
I128
sS'eye'
p4525
I126
sS'nothings'
p4526
I128
sS'asta'
p4527
I128
sS'texting'
p4528
I126
sS'two'
p4529
I109
sS'comparing'
p4530
I128
sS'omgggg'
p4531
I128
sS'tacky'
p4532
I128
sS'achieving'
p4533
I128
sS'diamond'
p4534
I126
sS'purse'
p4535
I128
sS"family's"
p4536
I128
sS'admissions'
p4537
I125
sS'landed'
p4538
I126
sS"ain't"
p4539
I116
sS'ssssdhhhhhhhhhhhiiiiiiiiitttttttttttttt'
p4540
I128
sS'gyaku'
p4541
I128
sS'town'
p4542
I124
sS'that\xe2\x80\xa6'
p4543
I128
sS'hour'
p4544
I115
sS"pitcher's"
p4545
I128
sS'sucks'
p4546
I120
sS'slm'
p4547
I128
sS'remain'
p4548
I128
sS'del'
p4549
I118
sS'dem'
p4550
I128
sS'den'
p4551
I127
sS'def'
p4552
I128
sS'purchases'
p4553
I128
sS'compare'
p4554
I128
sS'hamburger'
p4555
I128
sS'share'
p4556
I124
sS'socal'
p4557
I127
sS'lolol'
p4558
I128
sS'numbers'
p4559
I128
sS'potatos'
p4560
I128
sS'sharp'
p4561
I128
sS'ughhhh'
p4562
I128
sS'coleccionan'
p4563
I128
sS'quaye'
p4564
I128
sS'needs'
p4565
I121
sS'unexpected'
p4566
I128
sS'awkward'
p4567
I122
sS'comfort'
p4568
I128
sS'pompi'
p4569
I128
sS'needa'
p4570
I128
sS'maps'
p4571
I128
sS'venting'
p4572
I128
sS'pleno'
p4573
I128
sS'kneesbecause'
p4574
I128
sS'blood'
p4575
I125
sS'coming'
p4576
I113
sS'response'
p4577
I128
sS'brady'
p4578
I128
sS'crowded'
p4579
I128
sS"that'd"
p4580
I128
sS'tweeting'
p4581
I127
sS'"party"'
p4582
I126
sS'dragon'
p4583
I126
sS'turnpike'
p4584
I128
sS'pleasure'
p4585
I40
sS'playing'
p4586
I116
sS"that's"
p4587
I92
sS'sxxeee'
p4588
I128
sS'woodland'
p4589
I128
sS'telling'
p4590
I126
sS'industrial'
p4591
I128
sS'through'
p4592
I120
sS'naaah'
p4593
I128
sS'daamn'
p4594
I128
sS'24'
p4595
I127
sS'25'
p4596
I127
sS'26'
p4597
I128
sS'27'
p4598
I128
sS'20'
p4599
I125
sS'21'
p4600
I123
sS'22'
p4601
I128
sS'23'
p4602
I128
sS'thnx'
p4603
I128
sS'28'
p4604
I127
sS'dolla'
p4605
I128
sS'late'
p4606
I115
sS'poxy'
p4607
I128
sS'mooneyes'
p4608
I107
sS'speech'
p4609
I127
sS'at\xe2\x80\xa6'
p4610
I125
sS'someone'
p4611
I106
sS'seeking'
p4612
I128
sS'<3'
p4613
I122
sS'uhh'
p4614
I126
sS'simpatik'
p4615
I128
sS'uhs'
p4616
I128
sS'complain'
p4617
I128
sS'viewers'
p4618
I128
sS'easily'
p4619
I127
sS'emojis'
p4620
I128
sS'pregnant'
p4621
I128
sS'drake'
p4622
I127
sS'habits'
p4623
I127
sS'\xe2\x98\xba\xef\xb8\x8f,91010\n453173325699620866,lokaletty,2014-04-07'
p4624
I128
sS"6'2"
p4625
I128
sS'harm'
p4626
I128
sS'everyone'
p4627
I106
sS'mental'
p4628
I128
sS'house'
p4629
I101
sS'fish'
p4630
I126
sS'hard'
p4631
I113
sS'idea'
p4632
I126
sS'banquet'
p4633
I128
sS'watered'
p4634
I128
sS'extended'
p4635
I128
sS'fist'
p4636
I128
sS'that...i'
p4637
I128
sS'lovers'
p4638
I128
sS'childish'
p4639
I128
sS'd\xc3\xb3nde'
p4640
I128
sS'"go'
p4641
I128
sS'acting'
p4642
I128
sS"they'll"
p4643
I128
sS'brewery'
p4644
I122
sS'bully'
p4645
I128
sS'pathetic'
p4646
I128
sS'casillas'
p4647
I128
sS'today?,91010\n490223588872450049,djharass,2014-07-18'
p4648
I128
sS'pleasant'
p4649
I128
sS'extraordinary'
p4650
I128
sS'disneyland'
p4651
I124
sS'members'
p4652
I127
sS'backed'
p4653
I128
sS'mma'
p4654
I128
sS'inspection'
p4655
I127
sS'hazaa'
p4656
I127
sS'ass.\xe2\x80\x9d,91706\n393070794617520128,vicgetsilly,2013-10-23'
p4657
I128
sS'informaci\xc3\x93n'
p4658
I128
sS'trickle'
p4659
I128
sS'dont'
p4660
I109
sS'valentine'
p4661
I127
sS'done'
p4662
I112
sS'03:06:40.0,34.13216231,-117.95020966,4046,somo'
p4663
I128
sS',91706\n512429765244887040,alexissaldanaaa,2014-09-18'
p4664
I128
sS"you'd"
p4665
I128
sS'koi'
p4666
I128
sS'twenty'
p4667
I128
sS'5th'
p4668
I127
sS'least'
p4669
I116
sS'koy'
p4670
I128
sS'paint'
p4671
I128
sS'mama'
p4672
I126
sS'para'
p4673
I116
sS'park'
p4674
I101
sS'dentist'
p4675
I127
sS'part'
p4676
I122
sS'lmao,91010\n503364873800396800,rawoolz,2014-08-24'
p4677
I128
sS'doctors'
p4678
I128
sS'believe'
p4679
I116
sS'race\xe2\x80\xa6'
p4680
I128
sS'b'
p4681
I122
sS'compliments'
p4682
I127
sS'gotten'
p4683
I128
sS'youth'
p4684
I128
sS'supposed'
p4685
I122
sS'treated'
p4686
I128
sS':((('
p4687
I128
sS'outta'
p4688
I127
sS'giancarlo'
p4689
I128
sS'"reality"'
p4690
I128
sS'houseofdrift'
p4691
I128
sS'hangout'
p4692
I128
sS'1:00'
p4693
I127
sS'pantalones'
p4694
I128
sS'backseat'
p4695
I128
sS'mountain'
p4696
I128
sS'built'
p4697
I127
sS'dancing'
p4698
I127
sS',91010\n435245883668439040,laurui11,2014-02-17'
p4699
I128
sS'compa'
p4700
I128
sS'charp'
p4701
I128
sS'eggs'
p4702
I128
sS'tr\xc3\xa1fico'
p4703
I128
sS'essa'
p4704
I127
sS'most'
p4705
I109
sS'significant'
p4706
I128
sS'services'
p4707
I127
sS'vegeta'
p4708
I127
sS'primerica'
p4709
I128
sS'180lbs'
p4710
I128
sS'kris'
p4711
I128
sS'\xe2\x9b\x85'
p4712
I128
sS'06:20:00.0,34.13107049,-117.94662187,4046,you'
p4713
I128
sS'kt'
p4714
I128
sS'joining'
p4715
I128
sS'thomas'
p4716
I128
sS'particularly'
p4717
I128
sS'powers_sucks'
p4718
I128
sS'carne'
p4719
I128
sS'carefully'
p4720
I128
sS'fine'
p4721
I127
sS'find'
p4722
I118
sS'giant'
p4723
I121
sS'birthgivers'
p4724
I128
sS'pinche'
p4725
I127
sS'nervous'
p4726
I127
sS'fullerton'
p4727
I127
sS'unhappy'
p4728
I128
sS'idiots'
p4729
I128
sS'california)'
p4730
I128
sS'8'
p4731
I123
sS'merged'
p4732
I128
sS'beyonc\xc3\xa9'
p4733
I128
sS'mein'
p4734
I128
sS'salud'
p4735
I128
sS'courage'
p4736
I128
sS'bad!\xe2\x80\x9d'
p4737
I128
sS"m'lord"
p4738
I128
sS'merchandise'
p4739
I128
sS'haha,91706\n99569145624010752,zu_cia,2011-08-05'
p4740
I128
sS'danta'
p4741
I128
sS'suarez'
p4742
I128
sS'tale'
p4743
I128
sS'sonasty'
p4744
I128
sS'"no"'
p4745
I128
sS'vinc'
p4746
I128
sS'vine'
p4747
I128
sS'11th'
p4748
I128
sS'irwindale'
p4749
I29
sS'tamales'
p4750
I128
sS'visiting'
p4751
I128
sS'please'
p4752
I116
sS'errores'
p4753
I128
sS'pool,91010\n496436839709155330,djharass,2014-08-04'
p4754
I128
sS'debat'
p4755
I128
sS'fans'
p4756
I124
sS'burned'
p4757
I128
sS'donate'
p4758
I128
sS"tv's"
p4759
I128
sS'ever,91010\n505511039967170560,djharass,2014-08-30'
p4760
I128
sS'responses'
p4761
I127
sS'wackkk!!i'
p4762
I128
sS"khalifa's"
p4763
I128
sS'trunk!"-'
p4764
I128
sS'pepsi'
p4765
I128
sS'pissed'
p4766
I126
sS'floats'
p4767
I124
sS'folding'
p4768
I128
sS'restaurant'
p4769
I128
sS'annual'
p4770
I127
sS'suede'
p4771
I128
sS'baltimore'
p4772
I128
sS'point'
p4773
I121
sS'simple'
p4774
I126
sS"summer's"
p4775
I128
sS'(15501'
p4776
I126
sS'dances'
p4777
I128
sS'fashion'
p4778
I128
sS'simply'
p4779
I127
sS'upgrades'
p4780
I128
sS'gnats'
p4781
I128
sS'flowers'
p4782
I128
sS'lifeme'
p4783
I128
sS'raise'
p4784
I128
sS'tgif'
p4785
I128
sS'panera'
p4786
I128
sS'reto'
p4787
I128
sS'mikey'
p4788
I128
sS"michael's"
p4789
I128
sS'dropping'
p4790
I127
sS'lol,91706\n386209043657682944,vicgetsilly,2013-10-04'
p4791
I128
sS'meeting'
p4792
I125
sS'joline'
p4793
I128
sS'vans'
p4794
I127
sS'gay'
p4795
I123
sS'chatted'
p4796
I128
sS'dance*'
p4797
I128
sS'gas'
p4798
I124
sS'cuzgrowingupsucks'
p4799
I127
sS'lovin\xe2\x80\x99'
p4800
I128
sS'understand'
p4801
I121
sS'pierce'
p4802
I128
sS'solid'
p4803
I126
sS'bill'
p4804
I127
sS'convo'
p4805
I128
sS'fux'
p4806
I128
sS'fue'
p4807
I128
sS'fun'
p4808
I98
sS'woogie'
p4809
I128
sS'sriracha'
p4810
I127
sS'tmntvan\xe2\x80\xa6'
p4811
I128
sS'lunchtime'
p4812
I128
sS'portugal'
p4813
I128
sS'visit\xe2\x80\xa6'
p4814
I128
sS'1down'
p4815
I128
sS'debout'
p4816
I128
sS'lol,91706\n511947883919466496,sdweeks14,2014-09-16'
p4817
I128
sS'italy'
p4818
I128
sS'eww'
p4819
I128
sS'aburrimiento"'
p4820
I128
sS'(bang'
p4821
I128
sS'dgn'
p4822
I128
sS'yesterday'
p4823
I117
sS'moment'
p4824
I123
sS'purpose'
p4825
I128
sS'*drops'
p4826
I128
sS'sandals'
p4827
I128
sS'tracfic'
p4828
I128
sS'dark'
p4829
I126
sS'task'
p4830
I128
sS'ampm'
p4831
I128
sS'rules'
p4832
I128
sS'codeine'
p4833
I128
sS'spent'
p4834
I125
sS'flags'
p4835
I126
sS'y'
p4836
I104
sS'entry'
p4837
I128
sS'spend'
p4838
I124
sS'i\xe2\x80\x99m'
p4839
I125
sS'>.<'
p4840
I121
sS'\xe2\x9d\xa4'
p4841
I125
sS'all\xe2\x80\xa6'
p4842
I126
sS'vacuum'
p4843
I128
sS'porqu\xc3\xa9'
p4844
I128
sS'ldr'
p4845
I128
sS'shape'
p4846
I125
sS'cut'
p4847
I124
sS'cup'
p4848
I127
sS'hated'
p4849
I128
sS'cuz'
p4850
I123
sS'regia'
p4851
I128
sS'dixon'
p4852
I128
sS'save\xe2\x80\xa6'
p4853
I128
sS'homies'
p4854
I128
sS'snap'
p4855
I124
sS'cum'
p4856
I128
sS'easter'
p4857
I126
sS'excited'
p4858
I112
sS'hates'
p4859
I127
sS'>.~'
p4860
I128
sS'me...like'
p4861
I128
sS'big'
p4862
I104
sS'bit'
p4863
I128
sS'semi'
p4864
I128
sS'\xd5\xaf\xd5\xa1\xd5\xb6\xd5\xa4\xd6\x80\xd5\xbe\xd5\xa1\xd6\x81'
p4865
I128
sS'google'
p4866
I127
sS'often'
p4867
I128
sS'absolutely'
p4868
I128
sS'magnificent'
p4869
I128
sS'back'
p4870
I68
sS'ready............gossip'
p4871
I128
sS'mirror'
p4872
I127
sS'ourselves'
p4873
I128
sS'scale'
p4874
I128
sS'jewelry'
p4875
I128
sS'pet'
p4876
I128
sS'decision'
p4877
I125
sS'yoohoo'
p4878
I128
sS'5:10'
p4879
I128
sS'algunas'
p4880
I128
sS'inicio'
p4881
I128
sS'pee'
p4882
I126
sS'zachy'
p4883
I128
sS'epic'
p4884
I127
sS'either'
p4885
I126
sS'nitto'
p4886
I128
sS'rapping'
p4887
I128
sS'300'
p4888
I128
sS'ufc'
p4889
I128
sS'valley)'
p4890
I127
sS'goods'
p4891
I127
sS'morre'
p4892
I128
sS'&'
p4893
I41
sS'b\xc3\xa9isbol'
p4894
I128
sS'graduation'
p4895
I127
sS'drama'
p4896
I128
sS'corridordigital'
p4897
I128
sS'beans'
p4898
I128
sS'bish'
p4899
I127
sS'hahahah'
p4900
I127
sS'bisa'
p4901
I128
sS'ayye'
p4902
I128
sS'thaaaanks,91706\n388717964649713664,vicgetsilly,2013-10-11'
p4903
I128
sS'framed'
p4904
I128
sS'aviiii'
p4905
I128
sS'ayyy'
p4906
I127
sS'lesson'
p4907
I127
sS'downhill'
p4908
I128
sS'"el'
p4909
I128
sS'tigger'
p4910
I128
sS'errand'
p4911
I128
sS'19:57:15.0,34.1314883,-117.951322,4046,probably'
p4912
I128
sS'forward'
p4913
I126
sS'bored'
p4914
I123
sS'boyf'
p4915
I128
sS'invite'
p4916
I126
sS'douchebag'
p4917
I128
sS'run,91702\n482703869512675328,rawoolz,2014-06-28'
p4918
I128
sS'toooo'
p4919
I128
sS'boys'
p4920
I114
sS'\xe2\x99\xab'
p4921
I128
sS'boyz'
p4922
I128
sS'\xe2\x99\xa5'
p4923
I127
sS'touhey'
p4924
I128
sS'\xe2\x99\xa1'
p4925
I128
sS'right\xe2\x80\x9d'
p4926
I128
sS'seahawk'
p4927
I128
sS'planet'
p4928
I128
sS"tomorrow's"
p4929
I114
sS"'re"
p4930
I128
sS'groove'
p4931
I128
sS'freeway)'
p4932
I128
sS'far...heehee'
p4933
I128
sS'dreadcrew'
p4934
I127
sS'wrx?,91706\n410862809849683968,vicgetsilly,2013-12-11'
p4935
I128
sS'diving'
p4936
I128
sS',91706\n390534203202613248,vicgetsilly,2013-10-16'
p4937
I128
sS'cafe'
p4938
I126
sS'prevail'
p4939
I128
sS'stripper'
p4940
I128
sS'set-up'
p4941
I128
sS'cristina'
p4942
I128
sS'reputation'
p4943
I128
sS'5\'6"'
p4944
I128
sS'finley'
p4945
I128
sS'23:13:11.0,34.1338782,-117.9540781,4046,djing'
p4946
I128
sS'lens'
p4947
I128
sS'cater'
p4948
I128
sS'timetime'
p4949
I128
sS'desert'
p4950
I127
sS'freeways'
p4951
I128
sS'uhhhhh'
p4952
I128
sS'w/julie'
p4953
I128
sS'03:53:14.0,34.11030014,-117.99003247,4046,here'
p4954
I128
sS'cooked'
p4955
I128
sS'rallies'
p4956
I128
sS'jason'
p4957
I126
sS'vietnamese'
p4958
I128
sS'peanut'
p4959
I128
sS'also\xe2\x80\xa6\xe2\x80\xa6'
p4960
I128
sS'blaze'
p4961
I128
sS'03:04:46.0,34.1288,-117.93889292,4046,still'
p4962
I128
sS'random'
p4963
I126
sS'sequins'
p4964
I128
sS'putting'
p4965
I126
sS'portos'
p4966
I128
sS'entire'
p4967
I126
sS'recreation'
p4968
I106
sS'respectful'
p4969
I128
sS'knight'
p4970
I127
sS'cu\xc3\xb1is'
p4971
I128
sS'min'
p4972
I125
sS'havent'
p4973
I128
sS'40oz'
p4974
I128
sS'est\xc3\xa1'
p4975
I128
sS'09:30:21.0,34.13365089,-117.93018612,4046,will'
p4976
I128
sS'edison'
p4977
I124
sS'giving'
p4978
I123
sS'anthem'
p4979
I127
sS'paddle'
p4980
I127
sS'access'
p4981
I128
sS'payday'
p4982
I128
sS'bestfriends,91010\n391204170633474048,ericmichigan,2013-10-18'
p4983
I128
sS'body'
p4984
I123
sS'50th'
p4985
I108
sS'sprung'
p4986
I128
sS"carl'"
p4987
I128
sS'sink'
p4988
I128
sS'others'
p4989
I117
sS'sing'
p4990
I123
sS'touchin\xe2\x80\x99'
p4991
I128
sS'talent'
p4992
I128
sS'32'
p4993
I127
sS'30'
p4994
I124
sS'37'
p4995
I128
sS'35'
p4996
I128
sS'slaving'
p4997
I128
sS'honor'
p4998
I125
sS'audrey_arndt'
p4999
I128
sS'presidents'
p5000
I128
sS'manny'
p5001
I128
sS'zero,91010\n470939494250987520,shotmasterpat,2014-05-26'
p5002
I128
sS'lofticries'
p5003
I128
sS'chi'
p5004
I128
sS'hammered'
p5005
I128
sS'chs'
p5006
I128
sS'debbie'
p5007
I128
sS'themselves'
p5008
I128
sS'deepest'
p5009
I128
sS"apple's"
p5010
I128
sS'upcoming'
p5011
I128
sS'"nah'
p5012
I128
sS'trail'
p5013
I127
sS'train'
p5014
I126
sS',91706\n415169013308612608,vicgetsilly,2013-12-23'
p5015
I128
sS',91706\n463011734970572800,wzrd_astrodanny,2014-05-04'
p5016
I128
sS'account'
p5017
I127
sS'fooling'
p5018
I128
sS'<3,91010\n475570518134108160,machuboragine,2014-06-08'
p5019
I128
sS'gabriel'
p5020
I125
sS'unreal'
p5021
I127
sS'praise'
p5022
I124
sS'didnt'
p5023
I124
sS'fishtail'
p5024
I128
sS'off,91010\n508120098393956354,partyandrew,2014-09-06'
p5025
I128
sS'ooooooophhhhhhhhhh'
p5026
I128
sS'lame'
p5027
I128
sS'boxing'
p5028
I127
sS'winners'
p5029
I127
sS'forest'
p5030
I128
sS'stock'
p5031
I127
sS'profile'
p5032
I127
sS'endorsements'
p5033
I128
sS'falta'
p5034
I128
sS'hesitate'
p5035
I128
sS'fran'
p5036
I127
sS'waters'
p5037
I128
sS'falto'
p5038
I128
sS'bothered'
p5039
I127
sS'outty\xe2\x9c\x8c\xef\xb8\x8f'
p5040
I128
sS'leches'
p5041
I128
sS'chasing'
p5042
I128
sS'lines'
p5043
I127
sS'shutting'
p5044
I128
sS'gilliland'
p5045
I128
sS'vibe'
p5046
I128
sS'chief'
p5047
I127
sS'addiction'
p5048
I128
sS"rice's"
p5049
I128
sS'"girl"'
p5050
I128
sS"flakaputa's"
p5051
I128
sS'joven'
p5052
I128
sS'knocks'
p5053
I128
sS'weord'
p5054
I128
sS'horny'
p5055
I128
sS'galaxy'
p5056
I128
sS'bunch'
p5057
I125
sS'le'
p5058
I126
sS'lb'
p5059
I128
sS'la'
p5060
I66
sS'lo'
p5061
I127
sS'tsa'
p5062
I128
sS'age'
p5063
I128
sS"slippin'"
p5064
I128
sS'<'
p5065
I128
sS'dad'
p5066
I113
sS'hahahahahahahahhahahah'
p5067
I128
sS'dam'
p5068
I94
sS'dan'
p5069
I126
sS'spell'
p5070
I126
sS'fiesta'
p5071
I125
sS'deaaal'
p5072
I128
sS'dat'
p5073
I124
sS'mention'
p5074
I125
sS'cutting'
p5075
I128
sS'dar'
p5076
I128
sS'das'
p5077
I128
sS'day'
p5078
I28
sS'february'
p5079
I128
sS'airports'
p5080
I128
sS'thrill'
p5081
I128
sS'cider'
p5082
I128
sS'cl\xc3\xa1sico'
p5083
I128
sS'fare'
p5084
I128
sS'covina'
p5085
I127
sS'putos,91010\n472877652580114432,babyyrossee,2014-05-31'
p5086
I128
sS'buena'
p5087
I128
sS'dreaming'
p5088
I128
sS'sexual'
p5089
I128
sS'popping'
p5090
I128
sS'matt'
p5091
I128
sS"children's"
p5092
I128
sS'rep'
p5093
I128
sS'share\xe2\x80\xa6'
p5094
I128
sS'as\xc3\xad'
p5095
I128
sS'16:44:52.0,34.1080826,-117.9713391,4046,who'
p5096
I128
sS'mate'
p5097
I128
sS'ren'
p5098
I102
sS'barley'
p5099
I128
sS'smog'
p5100
I128
sS'math'
p5101
I128
sS'bww'
p5102
I127
sS'(baldwin'
p5103
I112
sS'que'
p5104
I99
sS'vieja'
p5105
I128
sS'bleed'
p5106
I127
sS'yard'
p5107
I127
sS'ditangkap'
p5108
I128
sS'peeve'
p5109
I128
sS'deprived'
p5110
I128
sS'norte\xc3\xb1o'
p5111
I128
sS'skateboard'
p5112
I127
sS'barriers'
p5113
I128
sS'right.\xe2\x80\x9d\xe2\x80\x9d,91706\n386198722213707778,vicgetsilly,2013-10-04'
p5114
I128
sS'south'
p5115
I126
sS"not....don't"
p5116
I128
sS'finest'
p5117
I128
sS'sack'
p5118
I128
sS'lollll'
p5119
I128
sS'whoop'
p5120
I128
sS'lagging'
p5121
I126
sS'braces'
p5122
I127
sS'sadly'
p5123
I127
sS'monkey'
p5124
I128
sS'laps'
p5125
I128
sS'hilary'
p5126
I128
sS'maidens'
p5127
I125
sS'mondays'
p5128
I126
sS'messing'
p5129
I128
sS'2hrsleft'
p5130
I128
sS'liquor'
p5131
I128
sS'gear'
p5132
I127
sS'nobody'
p5133
I127
sS'goku'
p5134
I128
sS'loved'
p5135
I126
sS'ballard'
p5136
I128
sS'llevan'
p5137
I128
sS'arco)'
p5138
I128
sS'gamboa'
p5139
I128
sS'kage'
p5140
I128
sS'it,91706\n493210502487482369,rawoolz,2014-07-27'
p5141
I128
sS'chanching'
p5142
I128
sS'lover'
p5143
I128
sS'wakes'
p5144
I127
sS'have'
p5145
I25
sS'apparently'
p5146
I127
sS'mii'
p5147
I128
sS'congrats'
p5148
I124
sS'mic'
p5149
I128
sS'-.-t'
p5150
I125
sS'mix'
p5151
I128
sS'327'
p5152
I128
sS'mis'
p5153
I127
sS'firefly'
p5154
I127
sS'unless'
p5155
I125
sS'90mph'
p5156
I128
sS"where's"
p5157
I127
sS'eight'
p5158
I128
sS'clive'
p5159
I127
sS'saying"'
p5160
I128
sS'park)'
p5161
I128
sS'artificially'
p5162
I128
sS'aqu\xc3\xad'
p5163
I127
sS'skinny'
p5164
I128
sS'normally'
p5165
I128
sS'area)'
p5166
I124
sS'text'
p5167
I119
sS'charles'
p5168
I128
sS'rn,91706\n478002573304004608,quadia_yaya,2014-06-15'
p5169
I128
sS'staff'
p5170
I127
sS'inspiring'
p5171
I127
sS'5pm'
p5172
I128
sS'grabbed'
p5173
I128
sS'sneeeeeeaaaaaaky'
p5174
I128
sS'beach..go'
p5175
I128
sS'satan'
p5176
I127
sS"they're"
p5177
I117
sS'beat'
p5178
I124
sS'photography'
p5179
I128
sS'stripes'
p5180
I127
sS'[fhfnfj]'
p5181
I128
sS'bean'
p5182
I128
sS'jabroni'
p5183
I128
sS'n\xc3\xbamero'
p5184
I128
sS'kardashians'
p5185
I128
sS',91706\n386250054081605632,vicgetsilly,2013-10-04'
p5186
I128
sS'eyebrow'
p5187
I128
sS'calling'
p5188
I126
sS'ganar'
p5189
I127
sS'ganas'
p5190
I128
sS"won't"
p5191
I119
sS'100mil'
p5192
I128
sS'exists'
p5193
I128
sS'national'
p5194
I128
sS'falafel...that'
p5195
I128
sS'06:31:35.0,34.09633945,-117.98621848,4046,i'
p5196
I128
sS'thaaaaaank'
p5197
I128
sS"takin'"
p5198
I128
sS'hammock'
p5199
I128
sS'thissss'
p5200
I128
sS'progress'
p5201
I128
sS'rft'
p5202
I128
sS'phoenicians'
p5203
I128
sS'19:19:28.0,34.0950007,-117.9418634,4046,i'
p5204
I128
sS'ltgs'
p5205
I128
sS'chamoy'
p5206
I128
sS'slumpbuster'
p5207
I128
sS'buster'
p5208
I128
sS'***breaking'
p5209
I128
sS'joke'
p5210
I126
sS'taking'
p5211
I114
sS'trips'
p5212
I127
sS'insidious'
p5213
I128
sS'swim'
p5214
I126
sS'despu\xc3\xa9s'
p5215
I128
sS'passing'
p5216
I128
sS'glorious'
p5217
I128
sS'otherwise'
p5218
I127
sS'comment'
p5219
I127
sS'brennan'
p5220
I127
sS'laugh'
p5221
I125
sS'today.....\xe2\x80\x9d'
p5222
I128
sS'[pic]'
p5223
I104
sS'walka'
p5224
I128
sS'hub)'
p5225
I128
sS"it's"
p5226
I32
sS',91010\n460531364840751104,ashleylorrraine,2014-04-27'
p5227
I128
sS'ai'
p5228
I128
sS'certain'
p5229
I127
sS'yooooou'
p5230
I128
sS'aubrey'
p5231
I128
sS'received'
p5232
I127
sS'20:54:55.0,34.10811218,-117.97132357,4046,damn'
p5233
I128
sS'finished'
p5234
I124
sS'tenderly'
p5235
I128
sS'mundo'
p5236
I127
sS'bull'
p5237
I128
sS'volunteer'
p5238
I128
sS'bye'
p5239
I122
sS'welcoming'
p5240
I128
sS'splits'
p5241
I128
sS'7-2'
p5242
I128
sS'appearance'
p5243
I128
sS'value'
p5244
I128
sS".i'm"
p5245
I128
sS'almost'
p5246
I118
sS'ahora'
p5247
I128
sS'helped'
p5248
I128
sS"it?that's"
p5249
I128
sS'arrangements'
p5250
I128
sS'partner'
p5251
I126
sS'\xd5\xa7'
p5252
I128
sS')'
p5253
I127
sS'stupified'
p5254
I128
sS'foxy'
p5255
I128
sS'slammed'
p5256
I127
sS'dieta'
p5257
I128
sS'ochoa'
p5258
I128
sS'practice'
p5259
I120
sS'faces'
p5260
I127
sS'ion'
p5261
I128
sS'fucken'
p5262
I122
sS'takers'
p5263
I128
sS'sisters'
p5264
I127
sS'retard'
p5265
I128
sS'center'
p5266
I71
sS'tuesdays'
p5267
I128
sS'thought'
p5268
I114
sS'oops'
p5269
I126
sS'position'
p5270
I128
sS'con'
p5271
I117
sS'comenz\xc3\xb3'
p5272
I128
sS'latest'
p5273
I126
sS'deltas'
p5274
I128
sS'executive'
p5275
I128
sS'clinic'
p5276
I128
sS'interim'
p5277
I128
sS'quiero'
p5278
I126
sS'effin'
p5279
I128
sS'quiere'
p5280
I127
sS'lake'
p5281
I127
sS'bench'
p5282
I127
sS'add'
p5283
I123
sS'wednesdays,91706\n403219715234881536,vicgetsilly,2013-11-20'
p5284
I128
sS'20:19:30.0,34.1300995,-117.9418131,4046,i'
p5285
I128
sS'match'
p5286
I124
sS'tests'
p5287
I128
sS'kali'
p5288
I128
sS'fye'
p5289
I128
sS'llena'
p5290
I128
sS'wtf?0.o'
p5291
I128
sS'dryer'
p5292
I128
sS'like'
p5293
I26
sS'success'
p5294
I123
sS'controlling'
p5295
I128
sS'sofa'
p5296
I128
sS"fbi's"
p5297
I128
sS'bye.back'
p5298
I128
sS'chick'
p5299
I128
sS'works'
p5300
I127
sS'heel'
p5301
I128
sS'alive'
p5302
I124
sS'hair'
p5303
I114
sS'paddock'
p5304
I127
sS'scholastic\xe2\x80\xa6'
p5305
I128
sS'happens'
p5306
I126
sS'est'
p5307
I128
sS'pues'
p5308
I128
sS'chainz'
p5309
I126
sS'tmf'
p5310
I128
sS'assuming'
p5311
I128
sS'eso'
p5312
I126
sS',91706\n390531230162096129,vicgetsilly,2013-10-16'
p5313
I128
sS'chains'
p5314
I128
sS'mode'
p5315
I127
sS'pepper'
p5316
I128
sS'dcm'
p5317
I127
sS'covinaaaaaa'
p5318
I128
sS'\xe2\x97\x8f\xe3\x80\x80\xe2\x9c\xab\xe3\x80\x80\xe3\x80\x80\xe3\x80\x80\xe3\x80\x80\xe3\x80\x80\xe3\x80\x80\xe3\x80\x80\xe3\x80\x80\xe3\x80\x80\xe2\x9c\xba\xe3\x80\x80\xe3\x80\x80\xe3\x80\x80\xe3\x80\x80\xe3\x80\x80\xe3\x80\x80\xe2\x80\xa2\xe3\x80\x80\xe3\x80\x80\xe3\x80\x80\xe3\x80\x80\xe3\x80\x80\xc2\xb0\xe3\x80\x80\xe3\x80\x80\xe3\x80\x80\xe2\x9a\xab\xe3\x80\x80\xe3\x80\x80\xe3\x80\x80\xe3\x80\x80\xe3\x80\x80\xe2\x9c\xa7\xe3\x80\x80\xe3\x80\x80\xe3\x80\x80\xe3\x80\x80\xe3\x80\x80\xe3\x80\x80\xe2\x9a\xab\xe3\x80\x80\xe3\x80\x80\xe2\x9c\xab\xc2\xb0\xe3\x80\x80\xe3\x80\x80\xe3\x80\x80\xe3\x80\x80\xe3\x80\x80\xe3\x80\x80\xe2\x9c\xad\xe3\x80\x80\xe3\x80\x80\xe3\x80\x80\xe3\x80\x80\xe3\x80\x80'
p5319
I128
sS'time.,91010\n390561394350751745,vicgetsilly,2013-10-16'
p5320
I128
sS'host'
p5321
I124
sS'although'
p5322
I125
sS'cocoon'
p5323
I128
sS'snapped'
p5324
I128
sS'dstroyr'
p5325
I128
sS'panel'
p5326
I127
sS'vuitton'
p5327
I127
sS'about'
p5328
I64
sS':-)'
p5329
I126
sS'actual'
p5330
I128
sS'justin'
p5331
I128
sS'stock-car'
p5332
I124
sS'02:15:12.0,34.13246899,-117.93321197,4046,your'
p5333
I128
sS'stephenson'
p5334
I128
sS'toosdayand'
p5335
I128
sS'introduced'
p5336
I128
sS'funny,91010\n505513145130315777,djharass,2014-08-30'
p5337
I128
sS'socks'
p5338
I124
sS'tackle'
p5339
I128
sS'damnnn'
p5340
I128
sS'doesnt'
p5341
I127
sS'esteem'
p5342
I128
sS'female'
p5343
I128
sS'1987'
p5344
I128
sS'wack'
p5345
I127
sS'insoles'
p5346
I128
sS'biggest'
p5347
I124
sS'cabe'
p5348
I128
sS'buy'
p5349
I114
sS'bus'
p5350
I120
sS'brand'
p5351
I128
sS'but'
p5352
I36
sS'reminds'
p5353
I127
sS'bui'
p5354
I128
sS'bun'
p5355
I128
sS'oscar\xc2\xae'
p5356
I128
sS'bug'
p5357
I126
sS'bud'
p5358
I125
sS'wise'
p5359
I128
sS'glory'
p5360
I126
sS'wish'
p5361
I109
sS'beb\xc3\xa9'
p5362
I128
sS'j'
p5363
I127
sS'flip'
p5364
I126
sS'backfired'
p5365
I128
sS'minutes'
p5366
I124
sS'09:27:28.0,34.12962968,-117.93417223,4046,show'
p5367
I128
sS'skating'
p5368
I128
sS'supreme'
p5369
I127
sS'hahahahahahahahahahah'
p5370
I128
sS'whisper'
p5371
I128
sS'pic'
p5372
I122
sS'16:58:05.0,34.099566,-117.9529791,4046,not'
p5373
I128
sS'pie'
p5374
I127
sS'jordansimonchan'
p5375
I128
sS'vamossss'
p5376
I128
sS'shooting'
p5377
I126
sS'48'
p5378
I128
sS'dressed'
p5379
I125
sS'44'
p5380
I128
sS'45'
p5381
I127
sS'42'
p5382
I128
sS'40'
p5383
I125
sS'surreal'
p5384
I128
sS'sandy'
p5385
I128
sS'cashed'
p5386
I128
sS'granite'
p5387
I128
sS'much?,91010\n505511005083164672,djharass,2014-08-30'
p5388
I128
sS'nelson'
p5389
I128
sS'draught'
p5390
I128
sS'bundle'
p5391
I128
sS'\xe2\x80\xa2'
p5392
I127
sS'gatsby'
p5393
I128
sS'goin'
p5394
I125
sS'\xe2\x80\x93'
p5395
I127
sS'\xe2\x80\x94'
p5396
I125
sS'pilas'
p5397
I128
sS'lightskin'
p5398
I128
sS'shotokan\xe2\x80\xa6'
p5399
I128
sS'baked'
p5400
I127
sS'8th'
p5401
I127
sS',91706\n501563601371402240,lokaletty,2014-08-19'
p5402
I128
sS'hats'
p5403
I128
sS'psychooooo!,91706\n101013975302541312,zu_cia,2011-08-09'
p5404
I128
sS'sleep'
p5405
I102
sS'hating'
p5406
I127
sS'lolzzz'
p5407
I128
sS'hate'
p5408
I91
sS"(it's"
p5409
I128
sS'tweet'
p5410
I117
sS'340'
p5411
I127
sS'under'
p5412
I126
sS'"am'
p5413
I128
sS'regrets'
p5414
I128
sS'stanton'
p5415
I128
sS'risa'
p5416
I128
sS'every'
p5417
I107
sS'jack'
p5418
I125
sS"hatin'"
p5419
I128
sS'fireplace'
p5420
I128
sS'school'
p5421
I108
sS'bestfriend'
p5422
I128
sS'motorcyclist'
p5423
I128
sS'todayone'
p5424
I128
sS'"don\'t'
p5425
I128
sS'enjoy'
p5426
I124
sS'leaders'
p5427
I128
sS'street'
p5428
I118
sS'friendships'
p5429
I128
sS'4x4'
p5430
I128
sS'blue'
p5431
I123
sS'hide'
p5432
I128
sS'christ'
p5433
I128
sS'hahahahahahahahaha'
p5434
I128
sS'tourz'
p5435
I128
sS'disney'
p5436
I127
sS'patr'
p5437
I128
sS'zach'
p5438
I128
sS'pata'
p5439
I128
sS'studio'
p5440
I128
sS'finders'
p5441
I128
sS'arroyo'
p5442
I127
sS'leaves'
p5443
I127
sS'changed'
p5444
I125
sS'analysts'
p5445
I128
sS'julio'
p5446
I128
sS'offs'
p5447
I128
sS'rizz'
p5448
I128
sS'feelings'
p5449
I125
sS'reply"'
p5450
I128
sS'visible'
p5451
I128
sS'cons'
p5452
I128
sS'hablar'
p5453
I128
sS'would'
p5454
I88
sS'tl'
p5455
I128
sS'asses'
p5456
I128
sS'm3'
p5457
I127
sS'spike'
p5458
I128
sS'fainting'
p5459
I128
sS'preview'
p5460
I128
sS'breathe'
p5461
I127
sS'academy)'
p5462
I128
sS'phone'
p5463
I116
sS'sting'
p5464
I128
sS'smile'
p5465
I122
sS'saben'
p5466
I127
sS'dindin'
p5467
I128
sS'must'
p5468
I121
sS'me'
p5469
I13
sS'join'
p5470
I123
sS'mm'
p5471
I127
sS'mi'
p5472
I118
sS'happiest'
p5473
I128
sS'mj'
p5474
I127
sS'mw'
p5475
I128
sS'daft'
p5476
I128
sS'ms'
p5477
I128
sS'mr'
p5478
I125
sS'excelente'
p5479
I128
sS'my'
p5480
I6
sS'shook'
p5481
I128
sS'17:59:04.0,34.1067331,-117.9255377,4046,im'
p5482
I128
sS'c------'
p5483
I128
sS'dolphin'
p5484
I128
sS'mayhem'
p5485
I128
sS'gorda'
p5486
I128
sS'keep'
p5487
I115
sS'entrevistando'
p5488
I128
sS'31hrs'
p5489
I128
sS'end'
p5490
I114
sS'traigo'
p5491
I127
sS'buzzin'
p5492
I128
sS'badly'
p5493
I127
sS'poker'
p5494
I127
sS'mess'
p5495
I122
sS':-/'
p5496
I128
sS'sparkler'
p5497
I128
sS'danny'
p5498
I128
sS'funniest'
p5499
I128
sS'jungle'
p5500
I127
sS'suerte'
p5501
I127
sS'oysters'
p5502
I128
sS"04:31:25.0,34.10664983,-117.93270633,4046,i'm"
p5503
I128
sS'chokehold'
p5504
I128
sS'over'
p5505
I77
sS'fall'
p5506
I119
sS'w/guest'
p5507
I128
sS'ima'
p5508
I117
sS'40%'
p5509
I128
sS'imh'
p5510
I128
sS'expectations'
p5511
I128
sS'writing'
p5512
I127
sS'400'
p5513
I128
sS'imy'
p5514
I128
sS'eugene'
p5515
I128
sS'time?,91706\n439923296839028736,melissaaaharris,2014-03-02'
p5516
I128
sS'jeremih-'
p5517
I128
sS'potatoes'
p5518
I127
sS'(foothill'
p5519
I128
sS'chuck'
p5520
I128
sS'explode'
p5521
I128
sS'victory'
p5522
I128
sS'each'
p5523
I125
sS'diana'
p5524
I128
sS'garden\xe2\x80\xa6'
p5525
I128
sS'valenzuela'
p5526
I128
sS'menurut'
p5527
I128
sS'group'
p5528
I127
sS'ghosts'
p5529
I127
sS'saturday'
p5530
I120
sS'so\xe2\x80\xa6'
p5531
I128
sS'driving'
p5532
I109
sS'god'
p5533
I101
sS'nltfor'
p5534
I128
sS'bennet'
p5535
I128
sS'matan'
p5536
I128
sS'goy'
p5537
I128
sS'got'
p5538
I52
sS'newly'
p5539
I128
sS'gov'
p5540
I128
sS'splashed'
p5541
I128
sS'arizona'
p5542
I127
sS'eternal'
p5543
I128
sS'free'
p5544
I114
sS"loren's"
p5545
I128
sS'evil'
p5546
I127
sS'wanted'
p5547
I120
sS'days'
p5548
I105
sS'outfits'
p5549
I128
sS'heck'
p5550
I125
sS'hopeless'
p5551
I128
sS'it...cheers'
p5552
I128
sS'soda'
p5553
I127
sS'onto'
p5554
I127
sS'foshoo'
p5555
I128
sS'already'
p5556
I89
sS'attractions'
p5557
I128
sS'samuel_hubinette'
p5558
I128
sS'hearing'
p5559
I128
sS'fantasy'
p5560
I127
sS'nhs'
p5561
I128
sS'sober'
p5562
I128
sS'blunts'
p5563
I128
sS'guinness'
p5564
I128
sS'top'
p5565
I123
sS'jamba'
p5566
I127
sS'too'
p5567
I58
sS'tom'
p5568
I128
sS'rockin'
p5569
I128
sS'suuuuuuper'
p5570
I128
sS'murder'
p5571
I128
sS'tooo'
p5572
I128
sS'took'
p5573
I118
sS'western'
p5574
I128
sS'show.,91706\n322968798233780224,ozziemork,2013-04-13'
p5575
I128
sS'kept'
p5576
I128
sS'rampage'
p5577
I128
sS"mother's"
p5578
I128
sS'fe\xe2\x80\xa6'
p5579
I128
sS'stacey'
p5580
I128
sS'18.7'
p5581
I128
sS'rag'
p5582
I126
sS'humble'
p5583
I127
sS'ran'
p5584
I120
sS'talking'
p5585
I116
sS'rap'
p5586
I127
sS'ray'
p5587
I127
sS'harper'
p5588
I128
sS'-'
p5589
I95
sS'isolated'
p5590
I128
sS'balling'
p5591
I128
sS'oriented'
p5592
I128
sS'laughed'
p5593
I128
sS'tibia'
p5594
I128
sS'though'
p5595
I119
sS'go!:)'
p5596
I128
sS'pinkystarrocks'
p5597
I127
sS"talkin'"
p5598
I127
sS'plenty'
p5599
I128
sS'tibetan'
p5600
I128
sS'sillyhead'
p5601
I128
sS'glow'
p5602
I128
sS'treats'
p5603
I128
sS'freeway'
p5604
I114
sS'pwyll'
p5605
I128
sS'yang'
p5606
I128
sS'dads'
p5607
I128
sS'pineapple'
p5608
I128
sS'queen'
p5609
I116
sS'devant)'
p5610
I128
sS'prescription'
p5611
I128
sS'colors'
p5612
I128
sS'radio'
p5613
I124
sS'chewed'
p5614
I128
sS'spits'
p5615
I128
sS'photo'
p5616
I112
sS'2013/14!...he'
p5617
I128
sS'oct'
p5618
I127
sS'sunglasses'
p5619
I128
sS'uhhh'
p5620
I128
sS'watch'
p5621
I106
sS'amazon'
p5622
I127
sS'wedding'
p5623
I124
sS'report'
p5624
I128
sS'02:35:51.0,34.1203702,-117.9695642,4046,mom'
p5625
I128
sS'shaking'
p5626
I128
sS'twice'
p5627
I128
sS'shots'
p5628
I128
sS'gre\xc3\xb1uda'
p5629
I128
sS'tattoos'
p5630
I127
sS'nut'
p5631
I127
sS'robby'
p5632
I128
sS'ayso'
p5633
I72
sS'hambre'
p5634
I128
sS'temptation'
p5635
I128
sS'muy'
p5636
I128
sS'go\xe2\x80\xa6'
p5637
I128
sS'mud'
p5638
I128
sS'mug'
p5639
I128
sS'ba\xc3\xb1o'
p5640
I128
sS'hopefully'
p5641
I124
sS'weak'
p5642
I125
sS'boss'
p5643
I127
sS'nightmares'
p5644
I127
sS'wear'
p5645
I122
sS'news'
p5646
I121
sS'protect'
p5647
I125
sS'jelly'
p5648
I128
sS'players'
p5649
I127
sS'games'
p5650
I98
sS'photographer'
p5651
I128
sS'documentaries....omg'
p5652
I128
sS'trust'
p5653
I124
sS'anywherecali'
p5654
I128
sS'"you'
p5655
I128
sS'binge'
p5656
I127
sS'been'
p5657
I74
sS'quickly'
p5658
I128
sS'beer'
p5659
I126
sS'tenemos'
p5660
I128
sS'drugs'
p5661
I128
sS'stayyyyy'
p5662
I128
sS'blancos'
p5663
I128
sS'catch'
p5664
I119
sS'$120'
p5665
I128
sS'combos'
p5666
I128
sS'|\xe2\x80\xa6'
p5667
I128
sS'n'
p5668
I119
sS'drippin'
p5669
I128
sS'\xe2\x98\xba\xef\xb8\x8f,91010\n448977008542752768,lokaletty,2014-03-27'
p5670
I128
sS'05:36:47.0,34.09338759,-117.98974904,4046,damn'
p5671
I128
sS'provocative'
p5672
I128
sS'"i'
p5673
I128
sS'opponent."\xe2\x80\x9d'
p5674
I128
sS'*females'
p5675
I128
sS'forehead'
p5676
I127
sS'inventory'
p5677
I128
sS'shawty'
p5678
I128
sS'uly...thank'
p5679
I128
sS'yung'
p5680
I128
sS'moose'
p5681
I128
sS'papaya'
p5682
I128
sS'screw'
p5683
I128
sS'pick'
p5684
I122
sS'coachella'
p5685
I125
sS'cycle'
p5686
I127
sS'"quiero'
p5687
I128
sS'kicked'
p5688
I128
sS'turbo.,91706\n407262737979277312,vicgetsilly,2013-12-01'
p5689
I128
sS'dada'
p5690
I128
sS'mathews'
p5691
I128
sS'mother'
p5692
I127
sS'hearts'
p5693
I128
sS'karina'
p5694
I128
sS'laptop'
p5695
I128
sS'(nekkid'
p5696
I128
sS'grades'
p5697
I128
sS'transporting'
p5698
I128
sS'lames\xe2\x80\x9d'
p5699
I128
sS'kalifornien'
p5700
I128
sS'cherry'
p5701
I128
sS'5s'
p5702
I128
sS'5k'
p5703
I126
sS'5d'
p5704
I128
sS'gave'
p5705
I124
sS'ninjas'
p5706
I128
sS'breaks'
p5707
I128
sS'glinda'
p5708
I128
sS'judge'
p5709
I128
sS'banda'
p5710
I127
sS'burnt'
p5711
I126
sS'apart'
p5712
I128
sS'melting'
p5713
I128
sS'gift'
p5714
I123
sS'55'
p5715
I128
sS'hunt'
p5716
I128
sS'50'
p5717
I124
sS'any1'
p5718
I128
sS'hung'
p5719
I127
sS'petting'
p5720
I128
sS'proudly'
p5721
I128
sS'emails'
p5722
I127
sS'curr\xc3\xadculum'
p5723
I128
sS'43:1'
p5724
I128
sS'clubs'
p5725
I128
sS'mxtube'
p5726
I128
sS'finna'
p5727
I124
sS'montabello'
p5728
I128
sS'armed'
p5729
I128
sS'ice'
p5730
I126
sS'everything'
p5731
I104
sS'christmas'
p5732
I113
sS'cnh'
p5733
I128
sS'earslol'
p5734
I128
sS'deleted'
p5735
I127
sS'b\xc3\xa6'
p5736
I127
sS'rosas'
p5737
I128
sS'cork'
p5738
I128
sS'plug'
p5739
I128
sS'cowboy'
p5740
I128
sS'tekki'
p5741
I128
sS'dinner'
p5742
I120
sS'plus'
p5743
I127
sS'algo'
p5744
I127
sS'lie....yikes'
p5745
I128
sS'facetime'
p5746
I127
sS'aha'
p5747
I127
sS'twitcon'
p5748
I127
sS'ahh'
p5749
I128
sS'ahi'
p5750
I128
sS'ppl'
p5751
I126
sS'ahs'
p5752
I128
sS'bats'
p5753
I128
sS'bad,91010\n368853027295203330,skycrystals_,2013-08-17'
p5754
I128
sS'abel'
p5755
I127
sS'weekend...i'
p5756
I128
sS'fuuuuuaaaaaaaaa"'
p5757
I128
sS'class'
p5758
I118
sS'stuck'
p5759
I120
sS'crews'
p5760
I128
sS'gil'
p5761
I127
sS'questionable'
p5762
I128
sS'head'
p5763
I112
sS'medium'
p5764
I128
sS'gorgeous'
p5765
I128
sS'rematar'
p5766
I128
sS'heat'
p5767
I128
sS'hear'
p5768
I122
sS'viva'
p5769
I128
sS'rn,91010\n496433695679844352,djharass,2014-08-04'
p5770
I128
sS'camaro'
p5771
I128
sS'atta'
p5772
I128
sS'trio'
p5773
I128
sS'fury'
p5774
I128
sS'trig'
p5775
I128
sS'checo'
p5776
I128
sS'annoying'
p5777
I119
sS'check'
p5778
I115
sS'silliest'
p5779
I128
sS'amazing,91702\n482704882827161600,rawoolz,2014-06-28'
p5780
I128
sS'ni'
p5781
I128
sS'faithful'
p5782
I127
sS'no'
p5783
I46
sS'na'
p5784
I128
sS'when'
p5785
I42
sS'"hi"'
p5786
I128
sS'til'
p5787
I128
sS'ny'
p5788
I127
sS'dont.3'
p5789
I128
sS'setting'
p5790
I127
sS'tie'
p5791
I127
sS'company'
p5792
I121
sS'unbalanced'
p5793
I128
sS'eternity'
p5794
I128
sS'picture'
p5795
I114
sS'conect'
p5796
I128
sS'phoenix'
p5797
I128
sS'football'
p5798
I124
sS'siento'
p5799
I128
sS'younger'
p5800
I128
sS'faster'
p5801
I125
sS'n0'
p5802
I128
sS'serious'
p5803
I124
sS'coach'
p5804
I127
sS'remarkable'
p5805
I128
sS'rob'
p5806
I128
sS'focus'
p5807
I125
sS'acrylick'
p5808
I128
sS'.04'
p5809
I128
sS'harga'
p5810
I128
sS'row'
p5811
I126
sS'none'
p5812
I128
sS'anyway'
p5813
I127
sS'elenam08'
p5814
I128
sS'cook'
p5815
I128
sS'cool'
p5816
I105
sS'"fair"'
p5817
I128
sS'beginning'
p5818
I128
sS'impressive'
p5819
I128
sS'level'
p5820
I128
sS'questions|'
p5821
I128
sS'brother'
p5822
I124
sS'booking'
p5823
I128
sS'quick'
p5824
I123
sS'yall'
p5825
I127
sS'klo'
p5826
I128
sS'says'
p5827
I116
sS'20:05:25.0,34.11297971,-117.98243353,4046,fuck'
p5828
I128
sS'spearchucker'
p5829
I128
sS'pedo'
p5830
I128
sS'bake'
p5831
I128
sS'port'
p5832
I128
sS'drinks'
p5833
I125
sS'stressful'
p5834
I128
sS'seule'
p5835
I128
sS'goes'
p5836
I118
sS'reply'
p5837
I128
sS'1234'
p5838
I128
sS'hairz'
p5839
I128
sS'water'
p5840
I121
sS'drug'
p5841
I127
sS'baseball'
p5842
I127
sS'6-4'
p5843
I128
sS'6-5'
p5844
I128
sS'23:37:50.0,34.0773046,-117.9996871,4046,i'
p5845
I128
sS'6-1'
p5846
I128
sS'arcadia'
p5847
I126
sS'fsha'
p5848
I128
sS'healthy'
p5849
I126
sS'rethink'
p5850
I127
sS'guilty'
p5851
I128
sS'stomachs'
p5852
I128
sS'cinnamon'
p5853
I128
sS'weird'
p5854
I120
sS'estadio'
p5855
I128
sS'rafael'
p5856
I128
sS'motherfucking'
p5857
I128
sS'dippin'
p5858
I128
sS'homies.even'
p5859
I128
sS'televisi\xc3\xb3n'
p5860
I128
sS'1st'
p5861
I127
sS'"my'
p5862
I128
sS'ando'
p5863
I128
sS'13:56:28.0,34.10696447,-117.934493,4046,here'
p5864
I128
sS'wrecking'
p5865
I128
sS'anda'
p5866
I128
sS'sports'
p5867
I127
sS'wrongs'
p5868
I128
sS'andy'
p5869
I128
sS'iphone'
p5870
I127
sS"care.i'm"
p5871
I128
sS'prep'
p5872
I128
sS'today'
p5873
I45
sS'rios'
p5874
I128
sS'chocolate'
p5875
I128
sS'beers'
p5876
I126
sS"lucy's"
p5877
I128
sS'ba$ically'
p5878
I128
sS'ian'
p5879
I128
sS',91706\n393070690808500225,vicgetsilly,2013-10-23'
p5880
I128
sS'streak'
p5881
I125
sS'figure'
p5882
I127
sS'choke'
p5883
I128
sS'dropped'
p5884
I125
sS'mensote'
p5885
I128
sS'counting'
p5886
I125
sS'painkillers'
p5887
I128
sS'(1002'
p5888
I127
sS'yitties'
p5889
I128
sS'1'
p5890
I103
sS'7:00'
p5891
I128
sS'fourth'
p5892
I128
sS'goosebumps'
p5893
I128
sS'springfield'
p5894
I128
sS'plur'
p5895
I128
sS'$100'
p5896
I127
sS',91706\n400008444906078208,vicgetsilly,2013-11-11'
p5897
I128
sS'beradu'
p5898
I128
sS'birthday'
p5899
I94
sS'obvi'
p5900
I128
sS'frick'
p5901
I128
sS'mayweather'
p5902
I128
sS's-bomb'
p5903
I128
sS'2hrs'
p5904
I128
sS'02:57:35.0,34.13149738,-117.9484368,4046,trailers'
p5905
I128
sS'perfies'
p5906
I128
sS'exclusive'
p5907
I128
sS'acts'
p5908
I128
sS'manera'
p5909
I128
sS'ingiero'
p5910
I128
sS'midnight'
p5911
I127
sS"mcdonald's)"
p5912
I126
sS'migosera'
p5913
I128
sS'motions'
p5914
I128
sS'plasure'
p5915
I127
sS"he's"
p5916
I120
sS'!!!!!!!!!!!,91010\n445043265696321536,annie_deguzman,2014-03-16'
p5917
I128
sS'munchie'
p5918
I128
sS'farmer'
p5919
I128
sS'kacey'
p5920
I128
sS'happened'
p5921
I124
sS'moms'
p5922
I127
sS'conversations'
p5923
I128
sS'baby,91706\n436977616521015296,wzrd_astrodanny,2014-02-21'
p5924
I128
sS'i-g-g-why'
p5925
I128
sS'days!,91706\n333803425051582465,ozziemork,2013-05-13'
p5926
I128
sS'qualified'
p5927
I128
sS'radio>>>>>'
p5928
I128
sS'wagon'
p5929
I128
sS'term'
p5930
I128
sS'name'
p5931
I120
sS'realist'
p5932
I128
sS'clutch'
p5933
I128
sS'debating'
p5934
I128
sS'muchas'
p5935
I127
sS'stahp'
p5936
I128
sS'picnic~'
p5937
I128
sS'catching'
p5938
I125
sS'meyour'
p5939
I128
sS'me""'
p5940
I128
sS'factory'
p5941
I126
sS'jaime'
p5942
I128
sS'"comprendes'
p5943
I128
sS'100x'
p5944
I128
sS'bugging'
p5945
I128
sS'eagle'
p5946
I127
sS'always\xe2\x80\xa6'
p5947
I128
sS'boobs'
p5948
I127
sS'liddo'
p5949
I128
sS'hulk'
p5950
I128
sS'you.\xe2\x80\x9d'
p5951
I128
sS'telepathy'
p5952
I128
sS'candace'
p5953
I128
sS'tamarindo'
p5954
I127
sS'iloveracing'
p5955
I128
sS'yup'
p5956
I126
sS'calories'
p5957
I127
sS'motion'
p5958
I128
sS'turn'
p5959
I117
sS'butterflies'
p5960
I128
sS'place'
p5961
I116
sS'uuuuuuu'
p5962
I128
sS'childhood'
p5963
I128
sS'jajaja'
p5964
I128
sS'kerakyatan'
p5965
I128
sS'ninie'
p5966
I128
sS'day\xe2\x80\xa6'
p5967
I123
sS'given'
p5968
I128
sS'necessarily'
p5969
I128
sS'district'
p5970
I126
sS'trillion'
p5971
I128
sS'europe'
p5972
I128
sS'reppin'
p5973
I128
sS'returns'
p5974
I128
sS'formula\xe2\x80\xa6'
p5975
I128
sS'terrifying'
p5976
I128
sS'legally'
p5977
I128
sS'white'
p5978
I113
sS'gives'
p5979
I125
sS'exploring'
p5980
I128
sS'copa'
p5981
I128
sS'hub'
p5982
I127
sS'ayeeeeeeee'
p5983
I128
sS'season'
p5984
I120
sS'hun'
p5985
I128
sS'antemano'
p5986
I128
sS'huh'
p5987
I127
sS'cops'
p5988
I128
sS'bati-boys'
p5989
I128
sS'copy'
p5990
I128
sS'huy'
p5991
I128
sS'wide'
p5992
I127
sS'lmao'
p5993
I110
sS'oats'
p5994
I128
sS'require'
p5995
I127
sS'enggak'
p5996
I128
sS'r'
p5997
I111
sS'sera'
p5998
I128
sS'cards'
p5999
I128
sS'pre'
p6000
I126
sS'michele'
p6001
I128
sS'mates'
p6002
I128
sS'pastime'
p6003
I128
sS'rent'
p6004
I128
sS'exchanging'
p6005
I128
sS'any'
p6006
I117
sS'superman'
p6007
I127
sS'kush'
p6008
I128
sS'shiiiiiiiiiiet'
p6009
I128
sS'chuckling'
p6010
I128
sS'ideas'
p6011
I128
sS'omggg'
p6012
I128
sS'urge'
p6013
I128
sS'sure'
p6014
I113
sS'jajajaja'
p6015
I128
sS'boiling'
p6016
I128
sS'champs'
p6017
I128
sS'connor'
p6018
I128
sS'freshman'
p6019
I128
sS'icon'
p6020
I128
sS'proud'
p6021
I122
sS'batear'
p6022
I128
sS'lux'
p6023
I128
sS'<3\xe2\x80\x9d'
p6024
I128
sS'uncle'
p6025
I126
sS'senior'
p6026
I117
sS'nlti'
p6027
I128
sS'luz'
p6028
I128
sS'03:32:48.0,34.13540733,-117.94166119,4046,ps4'
p6029
I128
sS"kit's"
p6030
I128
sS'hwyy'
p6031
I128
sS'cheat'
p6032
I128
sS'workshops'
p6033
I128
sS'cheap'
p6034
I127
sS'(jab)'
p6035
I128
sS'hustler'
p6036
I128
sS'woow'
p6037
I127
sS'02:54:39.0,34.1211982,-117.98969597,4046,damn'
p6038
I128
sS'gulp'
p6039
I128
sS'nadie'
p6040
I128
sS'desea'
p6041
I128
sS'believing'
p6042
I128
sS'jazz'
p6043
I128
sS'expectation'
p6044
I128
sS'tailor'
p6045
I128
sS'lighter'
p6046
I127
sS'dye'
p6047
I122
sS'televisa'
p6048
I128
sS'neither'
p6049
I126
sS'freaking'
p6050
I127
sS'radar'
p6051
I128
sS'orphans'
p6052
I128
sS'naked'
p6053
I125
sS":')"
p6054
I117
sS'penguins'
p6055
I127
sS"martinez's"
p6056
I128
sS'pants'
p6057
I124
sS"y'all"
p6058
I119
sS'picnic'
p6059
I123
sS'friends..\xe2\x98\x80\xef\xb8\x8f'
p6060
I128
sS'signs'
p6061
I127
sS'penguinos'
p6062
I128
sS'college'
p6063
I122
sS'parking'
p6064
I125
sS'today.\xe2\x80\xa6'
p6065
I128
sS'stanley'
p6066
I127
sS'fails'
p6067
I128
sS'farmers'
p6068
I123
sS'ways'
p6069
I126
sS'amen'
p6070
I128
sS'insted'
p6071
I128
sS'outside'
p6072
I127
sS'5:30'
p6073
I127
sS'dinero'
p6074
I128
sS'guitar'
p6075
I128
sS'como'
p6076
I126
sS'cities'
p6077
I128
sS'come'
p6078
I88
sS'reaction'
p6079
I128
sS'darin'
p6080
I128
sS'region'
p6081
I124
sS'quiet'
p6082
I128
sS'contract'
p6083
I128
sS'berry'
p6084
I128
sS'lonstermash'
p6085
I127
sS'merry'
p6086
I128
sS'color'
p6087
I125
sS'alebrijes'
p6088
I128
sS'pot'
p6089
I128
sS'por'
p6090
I122
sS'60'
p6091
I128
sS'pole'
p6092
I127
sS'me!??omg'
p6093
I128
sS'bizarra'
p6094
I128
sS'turkey'
p6095
I128
sS'howard'
p6096
I128
sS'01:59:46.0,34.13105584,-117.93357862,4046,if'
p6097
I128
sS'helicopter'
p6098
I128
sS'500'
p6099
I128
sS'andrew'
p6100
I128
sS'lolzzzzz,91706\n376475760472514561,jtongz18,2013-09-07'
p6101
I128
sS'63%'
p6102
I128
sS'penn'
p6103
I128
sS'"volunteered"'
p6104
I128
sS'andrea'
p6105
I126
sS'champions'
p6106
I128
sS'pilot'
p6107
I128
sS'paying'
p6108
I128
sS'myself'
p6109
I111
sS'casa'
p6110
I128
sS'spiderman'
p6111
I128
sS"nitto's"
p6112
I128
sS'cash'
p6113
I127
sS'arnold'
p6114
I128
sS'cast'
p6115
I128
sS'ktla'
p6116
I125
sS'limo...ok'
p6117
I128
sS'party???"'
p6118
I128
sS'conocido'
p6119
I128
sS',91706\n388742157210624000,vicgetsilly,2013-10-11'
p6120
I128
sS'couples'
p6121
I128
sS'good'
p6122
I53
sS"(i'm"
p6123
I128
sS'pull-out'
p6124
I128
sS'granted'
p6125
I128
sS'10:30'
p6126
I128
sS'nighter'
p6127
I128
sS'trip'
p6128
I114
sS'shifts'
p6129
I127
sS'catfish'
p6130
I128
sS'buys'
p6131
I127
sS'events'
p6132
I128
sS'week'
p6133
I103
sS'screenshot'
p6134
I127
sS'esperense'
p6135
I128
sS'nest'
p6136
I125
sS'driver'
p6137
I125
sS'drives'
p6138
I128
sS'weee'
p6139
I128
sS'weed'
p6140
I127
sS'director'
p6141
I128
sS'puke'
p6142
I128
sS'statue'
p6143
I128
sS'changing'
p6144
I125
sS',91010\n431962597147963392,lokaletty,2014-02-08'
p6145
I128
sS'cartoon'
p6146
I127
sS'fuuuuuuck'
p6147
I128
sS'swatches'
p6148
I128
sS'cumpli\xc3\xb3'
p6149
I128
sS'without'
p6150
I115
sS'iiiiiiiiiinnnnnntense'
p6151
I128
sS'corridor-east'
p6152
I128
sS'model'
p6153
I123
sS"'nuff"
p6154
I128
sS'bodies'
p6155
I128
sS'alrightyyyy'
p6156
I128
sS"money.:')"
p6157
I128
sS'llegaron'
p6158
I128
sS'capturer'
p6159
I128
sS'tip'
p6160
I128
sS'fingerprint'
p6161
I128
sS'actions'
p6162
I128
sS'kill'
p6163
I120
sS"00:58:34.0,34.12928114,-117.95296413,4046,who's"
p6164
I128
sS'tis'
p6165
I128
sS'baldwin'
p6166
I125
sS'captured'
p6167
I128
sS'blow'
p6168
I128
sS'tim'
p6169
I127
sS'rose'
p6170
I71
sS"everyone's"
p6171
I125
sS'seems'
p6172
I123
sS'except'
p6173
I128
sS'it\xe2\x80\x99s'
p6174
I128
sS'pallet'
p6175
I128
sS'lets'
p6176
I117
sS'association'
p6177
I128
sS'samples'
p6178
I128
sS'tuesday'
p6179
I125
sS'alguien"'
p6180
I128
sS'dragstrip'
p6181
I121
sS"picasso's"
p6182
I126
sS'caught\xe2\x80\xa6'
p6183
I128
sS'shotokan'
p6184
I118
sS'buddies'
p6185
I128
sS'inspirstional'
p6186
I128
sS'nu'
p6187
I128
sS'-my'
p6188
I128
sS'joking'
p6189
I128
sS'h8u2bae'
p6190
I128
sS'madrid'
p6191
I126
sS'competition'
p6192
I127
sS'cowboys'
p6193
I127
sS'mood'
p6194
I122
sS'21:53:09.0,34.09261335,-117.93617567,4046,bitches'
p6195
I128
sS'moon'
p6196
I125
sS'goofy'
p6197
I128
sS'provides'
p6198
I128
sS'lmfao'
p6199
I125
sS'nails'
p6200
I128
sS'kleenex'
p6201
I128
sS'on'
p6202
I16
sS'ol'
p6203
I128
sS'ok'
p6204
I119
sS'oh'
p6205
I97
sS'jeep'
p6206
I128
sS'of'
p6207
I14
sS'paralysis'
p6208
I128
sS'oc'
p6209
I124
sS'stand'
p6210
I126
sS'ezio'
p6211
I128
sS'~$3500'
p6212
I128
sS'yeezy'
p6213
I128
sS'ou'
p6214
I128
sS'ot'
p6215
I128
sS'or'
p6216
I64
sS'ladies'
p6217
I123
sS'inventamos'
p6218
I128
sS'duarte'
p6219
I116
sS'accounts'
p6220
I128
sS'gary'
p6221
I127
sS'richnigha_personality'
p6222
I127
sS'per'
p6223
I128
sS'unas'
p6224
I127
sS'crunk'
p6225
I127
sS'there'
p6226
I74
sS'scra'
p6227
I124
sS'racist'
p6228
I128
sS'valley'
p6229
I128
sS'energy'
p6230
I128
sS'ehh'
p6231
I128
sS'mischief'
p6232
I128
sS'jun'
p6233
I128
sS'mandzukic'
p6234
I128
sS'jus'
p6235
I127
sS"jojo's"
p6236
I128
sS'costco'
p6237
I127
sS'longer'
p6238
I127
sS'ekonomi'
p6239
I128
sS'bbs'
p6240
I128
sS'jordan,91706\n506282084097622016,gina_boo79,2014-09-01'
p6241
I128
sS'grasp'
p6242
I128
sS'02:38:37.0,34.10803524,-117.92828599,4046,date'
p6243
I128
sS'01:19:23.0,34.11423472,-117.98314786,4046,does'
p6244
I128
sS'dakotakaisun'
p6245
I127
sS'toilet'
p6246
I128
sS'aceh'
p6247
I128
sS'hqhqhq'
p6248
I128
sS'taste'
p6249
I125
sS'frighten'
p6250
I128
sS'will\xe2\x80\xa6'
p6251
I128
sS'cbs'
p6252
I123
sS'tasty'
p6253
I128
sS',91010\n453173515340881920,lokaletty,2014-04-07'
p6254
I128
sS'1\xe2\x83\xa35\xe2\x83\xa3'
p6255
I126
sS'diegos'
p6256
I128
sS'4.4'
p6257
I128
sS'heather'
p6258
I128
sS'idiot'
p6259
I127
sS'deserve'
p6260
I126
sS'eryka'
p6261
I128
sS'swords'
p6262
I128
sS'5'
p6263
I116
sS'trash'
p6264
I127
sS'championship'
p6265
I123
sS'separate'
p6266
I128
sS'stocks'
p6267
I128
sS'finals'
p6268
I123
sS'lipstick'
p6269
I128
sS',91706\n437664655893217280,laurui11,2014-02-23'
p6270
I128
sS'21:40:31.0,34.10704819,-117.93978758,4046,today'
p6271
I128
sS'srry'
p6272
I126
sS'calls'
p6273
I125
sS'wife'
p6274
I126
sS'odds'
p6275
I128
sS'lovell'
p6276
I126
sS'peligroso'
p6277
I128
sS'all'
p6278
I26
sS'chinese'
p6279
I128
sS'lack'
p6280
I127
sS'swerving'
p6281
I128
sS'fuego'
p6282
I128
sS'smoking'
p6283
I128
sS'dish'
p6284
I128
sS'lacy'
p6285
I128
sS'decisions'
p6286
I128
sS'vampires'
p6287
I128
sS'jessie'
p6288
I128
sS'morgans'
p6289
I128
sS"miller's"
p6290
I128
sS'9th/10th'
p6291
I128
sS'1.76'
p6292
I128
sS'thursday'
p6293
I120
sS'19:13:56.0,34.133513,-117.9591299,4046,outta'
p6294
I128
sS'aaron'
p6295
I128
sS'program'
p6296
I127
sS'siblings'
p6297
I127
sS'woman'
p6298
I125
sS'worse'
p6299
I126
sS'song'
p6300
I113
sS'far'
p6301
I119
sS'fav'
p6302
I126
sS'fat'
p6303
I121
sS'ouch'
p6304
I128
sS'sons'
p6305
I124
sS'fan'
p6306
I127
sS'fam'
p6307
I127
sS'awful'
p6308
I128
sS'bubbles'
p6309
I128
sS'fad'
p6310
I128
sS'and'
p6311
I9
sS'list'
p6312
I125
sS'wwe/mattel'
p6313
I128
sS'hawk'
p6314
I128
sS'liarz'
p6315
I128
sS'entourage'
p6316
I128
sS'tea'
p6317
I128
sS'negotiator'
p6318
I128
sS'design'
p6319
I128
sS'nbc'
p6320
I128
sS'material.\xe2\x80\x9d'
p6321
I128
sS'ren\xe2\x80\xa6'
p6322
I128
sS'what'
p6323
I35
sS'conchas'
p6324
I128
sS'deeply'
p6325
I128
sS'anniversary'
p6326
I128
sS'450hp'
p6327
I128
sS'crush'
p6328
I126
sS'suv'
p6329
I127
sS'version'
p6330
I127
sS'sus'
p6331
I125
sS'sup'
p6332
I128
sS'racing'
p6333
I108
sS'vamos'
p6334
I126
sS'christian'
p6335
I128
sS'hungover'
p6336
I128
sS',91706\n499754938252025856,korinaroxohyea,2014-08-14'
p6337
I128
sS'squirrelly'
p6338
I128
sS'retraining'
p6339
I127
sS'd.j'
p6340
I128
sS':),91010\n528704258196398080,alliekittell,2014-11-02'
p6341
I128
sS'roomie'
p6342
I128
sS'sticking'
p6343
I128
sS'palabras'
p6344
I128
sS'coo-coo'
p6345
I128
sS'thays'
p6346
I128
sS'munchies'
p6347
I128
sS'jerkin'
p6348
I128
sS'donuts'
p6349
I127
sS'\xe2\x98\x9d\xef\xb8\x8f'
p6350
I128
sS'irritate'
p6351
I128
sS'rustic'
p6352
I128
sS'shits'
p6353
I126
sS'markets'
p6354
I128
sS'trabajo'
p6355
I128
sS'shitt'
p6356
I128
sS'flat'
p6357
I127
sS'knows'
p6358
I122
sS'short-track'
p6359
I128
sS'grabbing'
p6360
I128
sS'hoffman'
p6361
I128
sS'flag'
p6362
I126
sS'stick'
p6363
I127
sS'known'
p6364
I128
sS'picnicwhutever'
p6365
I128
sS'glad'
p6366
I122
sS'ouija'
p6367
I128
sS'debates'
p6368
I128
sS'salvador'
p6369
I128
sS'yeaaaah'
p6370
I128
sS'v'
p6371
I126
sS'again,91010\n405789478364532736,vicgetsilly,2013-11-27'
p6372
I128
sS'embarrassing'
p6373
I126
sS'viciada'
p6374
I128
sS'division'
p6375
I128
sS'azul'
p6376
I128
sS'arise'
p6377
I128
sS'pone'
p6378
I127
sS'court'
p6379
I128
sS'goal'
p6380
I126
sS'rather'
p6381
I126
sS'breaking'
p6382
I127
sS'\xe2\x9a\xbe\xef\xb8\x8f'
p6383
I128
sS'hooping...i'
p6384
I128
sS'explains'
p6385
I128
sS'goat'
p6386
I128
sS'*some*'
p6387
I128
sS'sandwich'
p6388
I127
sS'okay'
p6389
I109
sS'algebra'
p6390
I128
sS'reflect'
p6391
I128
sS'aaaah'
p6392
I128
sS'sven'
p6393
I128
sS'numb'
p6394
I127
sS'softball'
p6395
I128
sS'cantaron'
p6396
I128
sS'short'
p6397
I127
sS'dvdasa'
p6398
I128
sS'grande'
p6399
I127
sS'leg....lol'
p6400
I128
sS"don't"
p6401
I33
sS'september'
p6402
I127
sS'brotha'
p6403
I127
sS'&knotts'
p6404
I128
sS'a.s.b'
p6405
I128
sS'isnt'
p6406
I127
sS'avenue'
p6407
I128
sS'islam'
p6408
I128
sS'style'
p6409
I119
sS'pray'
p6410
I124
sS'sale'
p6411
I127
sS'mattress'
p6412
I128
sS'blanket,91010\n487766211048919040,illuminatianabi,2014-07-12'
p6413
I128
sS'parts'
p6414
I128
sS'bout'
p6415
I122
sS'soccer'
p6416
I121
sS'might'
p6417
I118
sS'michelob'
p6418
I128
sS'somebody'
p6419
I127
sS'clippers'
p6420
I128
sS'orrr'
p6421
I128
sS"beyonc\xc3\xa9's"
p6422
I128
sS'instructions'
p6423
I128
sS'friendship'
p6424
I126
sS'nephewd'
p6425
I128
sS'camaraderie'
p6426
I128
sS',91010\n416986804672163840,laurui11,2013-12-28'
p6427
I128
sS'pirates'
p6428
I128
sS'generation'
p6429
I126
sS'hawaii'
p6430
I127
sS'expect'
p6431
I127
sS'vald\xc3\xa9s'
p6432
I128
sS'wages'
p6433
I128
sS'prolly'
p6434
I128
sS'alcohol'
p6435
I128
sS'4pm'
p6436
I127
sS'03:14:38.0,34.12908649,-117.93661916,4046,really'
p6437
I128
sS'health'
p6438
I128
sS'life!,91706\n101341342726225920,zu_cia,2011-08-10'
p6439
I128
sS'lolz'
p6440
I126
sS'appearances'
p6441
I127
sS"18:20:29.0,34.10808268,-117.97133749,4046,i'm"
p6442
I128
sS'03:52:00.0,34.11411314,-117.94413605,4046,trixie'
p6443
I128
sS"job's"
p6444
I128
sS'friday'
p6445
I116
sS'cookie'
p6446
I128
sS'teach'
p6447
I126
sS'lol"'
p6448
I127
sS"r13's"
p6449
I128
sS"year's"
p6450
I124
sS'frige'
p6451
I128
sS'threat'
p6452
I128
sS'feed'
p6453
I127
sS'unhealthy'
p6454
I127
sS'feel'
p6455
I88
sS'feet'
p6456
I124
sS'wench'
p6457
I126
sS'soapy'
p6458
I128
sS'182'
p6459
I128
sS'story'
p6460
I122
sS'"'
p6461
I125
sS'19:55:08.0,34.0995385,-117.9530222,4046,lmfao'
p6462
I128
sS'esas'
p6463
I127
sS'interviews'
p6464
I109
sS'pagar'
p6465
I128
sS'comfy'
p6466
I128
sS'stort'
p6467
I128
sS'swarm'
p6468
I128
sS'today,91010\n491666758877470720,djharass,2014-07-22'
p6469
I128
sS'passed'
p6470
I122
sS'store'
p6471
I124
sS'gps'
p6472
I128
sS'attendants'
p6473
I128
sS'wahhhh'
p6474
I128
sS'option'
p6475
I128
sS'pump'
p6476
I128
sS'helloooo'
p6477
I128
sS'hotel'
p6478
I125
sS"i'ma"
p6479
I128
sS'$5'
p6480
I128
sS'$1'
p6481
I128
sS'king'
p6482
I127
sS'kind'
p6483
I124
sS'nagging'
p6484
I128
sS'double'
p6485
I125
sS'14:48:19.0,34.10873102,-117.98608303,4046,run'
p6486
I128
sS'scabbard'
p6487
I128
sS'pinups'
p6488
I128
sS'stalk'
p6489
I128
sS'skellington'
p6490
I128
sS'dang'
p6491
I128
sS'stale'
p6492
I128
sS'motivation'
p6493
I128
sS'18:38:27.0,34.1135558,-117.9487778,4046,i'
p6494
I128
sS'outstanding'
p6495
I126
sS'suspicious'
p6496
I128
sS'mean?"'
p6497
I128
sS'alike'
p6498
I128
sS'hopelessly'
p6499
I128
sS'nights'
p6500
I126
sS'lol,91706\n484173274624958465,bekkrocks,2014-07-02'
p6501
I128
sS'donor'
p6502
I127
sS'tequilasos'
p6503
I128
sS'added'
p6504
I128
sS'electric'
p6505
I127
sS'reach'
p6506
I128
sS'reunited'
p6507
I128
sS'jst'
p6508
I128
sS'cigarette'
p6509
I128
sS'nothing'
p6510
I114
sS'machete'
p6511
I128
sS'windows'
p6512
I127
sS'(myrtle'
p6513
I128
sS'traditional'
p6514
I128
sS'came\xe2\x80\x9d'
p6515
I128
sS'lying'
p6516
I127
sS'00:31:40.0,34.1297941,-117.9416285,4046,getting'
p6517
I128
sS'beefin'
p6518
I128
sS'fong'
p6519
I128
sS'stoney'
p6520
I128
sS'grandmas'
p6521
I126
sS'weeknd'
p6522
I127
sS'melody'
p6523
I128
sS'with\xe2\x80\xa6'
p6524
I128
sS'cried'
p6525
I128
sS'skywhat'
p6526
I128
sS'tit\xc3\xa1n'
p6527
I128
sS'moses'
p6528
I128
sS'wowwweeeeee'
p6529
I128
sS'hatta'
p6530
I127
sS'porque'
p6531
I126
sS'his'
p6532
I97
sS'hit'
p6533
I116
sS'tommorow'
p6534
I128
sS'longest'
p6535
I127
sS'11-2'
p6536
I128
sS'beards'
p6537
I128
sS'him'
p6538
I107
sS'renaissance\xe2\x80\xa6'
p6539
I117
sS'noises'
p6540
I128
sS'activity'
p6541
I127
sS'ahahahahahahahahah'
p6542
I128
sS'wrote'
p6543
I127
sS'hairy'
p6544
I128
sS'bars'
p6545
I128
sS'art'
p6546
I127
sS'intelligence'
p6547
I128
sS'carpool'
p6548
I128
sS'defense'
p6549
I128
sS'dumb'
p6550
I123
sS'are'
p6551
I37
sS'arm'
p6552
I128
sS"channel's"
p6553
I128
sS'barn'
p6554
I103
sS'cosplay'
p6555
I127
sS'fontana'
p6556
I127
sS'slapped'
p6557
I128
sS'degrading'
p6558
I128
sS"other's"
p6559
I128
sS'law'
p6560
I128
sS'watchin'
p6561
I128
sS'solo'
p6562
I127
sS'sold'
p6563
I127
sS'attention'
p6564
I124
sS'outfit'
p6565
I126
sS'uud'
p6566
I128
sS'22:43:10.0,34.1093168,-117.9809169,4046,4'
p6567
I128
sS'bronze'
p6568
I128
sS'c'
p6569
I125
sS'blazer'
p6570
I128
sS'license'
p6571
I128
sS'became'
p6572
I128
sS'ale..:)'
p6573
I128
sS'8am'
p6574
I128
sS'cierto'
p6575
I128
sS'guts'
p6576
I128
sS'reasons'
p6577
I128
sS'sweet'
p6578
I122
sS'ozil'
p6579
I128
sS'dudes'
p6580
I126
sS'rave'
p6581
I128
sS'tgi'
p6582
I128
sS"micaela's"
p6583
I128
sS'duh'
p6584
I128
sS'dui'
p6585
I128
sS'henna\xe2\x80\xa6'
p6586
I123
sS'pt'
p6587
I127
sS'"nawwww'
p6588
I128
sS'due'
p6589
I128
sS'210e'
p6590
I128
sS'whos'
p6591
I127
sS'pb'
p6592
I128
sS'pa'
p6593
I126
sS'health!!,91706\n493948681721085956,haydenrae_,2014-07-29'
p6594
I128
sS'junro'
p6595
I128
sS'pk'
p6596
I127
sS'lol,91706\n462074236408827904,robrodriguezz,2014-05-02'
p6597
I128
sS'po'
p6598
I128
sS'woke'
p6599
I125
sS'pm'
p6600
I128
sS'flight'
p6601
I127
sS'algeria'
p6602
I128
sS'cincy'
p6603
I128
sS'rav4'
p6604
I128
sS'wiiiillll'
p6605
I128
sS'snacks).\xe2\x80\xa6'
p6606
I128
sS'cinco'
p6607
I128
sS'rocking'
p6608
I128
sS'toga'
p6609
I128
sS'georgia'
p6610
I128
sS'ahah'
p6611
I128
sS'lapang'
p6612
I128
sS'tough.,91010\n326925633890443264,erod1993,2013-04-24'
p6613
I128
sS'homework'
p6614
I125
sS'kihon'
p6615
I128
sS'acuerdo'
p6616
I128
sS'dassit'
p6617
I128
sS'theres'
p6618
I127
sS'\xc3\xa9ste'
p6619
I127
sS'demon'
p6620
I128
sS'ever!!,91706\n390533060023705600,vicgetsilly,2013-10-16'
p6621
I128
sS'rig'
p6622
I126
sS'rid'
p6623
I128
sS'ric'
p6624
I128
sS'shirt'
p6625
I123
sS'away)'
p6626
I128
sS'noooo'
p6627
I128
sS'peoples'
p6628
I128
sS'9'
p6629
I125
sS'moviessssss'
p6630
I128
sS'flowy'
p6631
I128
sS'wheree'
p6632
I128
sS'negotiate'
p6633
I128
sS'holidays'
p6634
I128
sS'best..........that'
p6635
I128
sS'arrived'
p6636
I128
sS'birch'
p6637
I128
sS"wang's"
p6638
I128
sS'sweating'
p6639
I128
sS'haga'
p6640
I128
sS'lower'
p6641
I116
sS'noodle'
p6642
I128
sS'blanco'
p6643
I128
sS'chickens'
p6644
I128
sS'analysis'
p6645
I128
sS'cheer'
p6646
I119
sS"trav's"
p6647
I128
sS'starved'
p6648
I128
sS'-tio'
p6649
I128
sS'tippers,91010\n281581076588150784,jediwookiee,2012-12-20'
p6650
I128
sS'atchu'
p6651
I128
sS'facial'
p6652
I128
sS'wcw&'
p6653
I128
sS',91010\n500058826976948224,quadia_yaya,2014-08-14'
p6654
I128
sS'questions'
p6655
I128
sS"can't...,91010\n503429395449511936,joshdiamondis,2014-08-24"
p6656
I128
sS'trakyoto'
p6657
I128
sS'tomorrow...stop'
p6658
I128
sS'passholder'
p6659
I128
sS'yesturday'
p6660
I128
sS'customers'
p6661
I128
sS"emperor's"
p6662
I128
sS'me\xe2\x80\xa6'
p6663
I128
sS'dvds'
p6664
I128
sS'go-karts'
p6665
I127
sS'af,91706\n510847826159759360,djharass,2014-09-13'
p6666
I128
sS',91010\n470009320902782976,laurui11,2014-05-24'
p6667
I128
sS'19:00:17.0,34.0996318,-117.9529614,4046,well'
p6668
I128
sS'hallmark'
p6669
I128
sS'fucking'
p6670
I104
sS'semana'
p6671
I127
sS'fuckkkkkk'
p6672
I128
sS'understood'
p6673
I128
sS'shotokan!\xe2\x80\xa6'
p6674
I128
sS'"we'
p6675
I127
sS'yknow'
p6676
I128
sS'annv'
p6677
I108
sS'seller'
p6678
I121
sS'prom'
p6679
I127
sS'anna'
p6680
I128
sS"fuckin'"
p6681
I128
sS'lmaoooo'
p6682
I127
sS'palmer'
p6683
I128
sS's/o'
p6684
I127
sS'nuevo'
p6685
I127
sS'3:30-5:30pm'
p6686
I128
sS'raider'
p6687
I128
sS'nueva'
p6688
I128
sS'rangs'
p6689
I128
sS"mcdonald's"
p6690
I123
sS"'full"
p6691
I128
sS'militia'
p6692
I128
sS'5yrs'
p6693
I128
sS'hatred'
p6694
I128
sS'soundtracking'
p6695
I128
sS'wanna'
p6696
I89
sS'ckub'
p6697
I128
sS'drama....please'
p6698
I128
sS'auntie'
p6699
I128
sS'mommy'
p6700
I127
sS'(irwindale'
p6701
I84
sS'momma'
p6702
I127
sS'nigga'
p6703
I118
sS'gavel'
p6704
I128
sS'chivasusa'
p6705
I128
sS'question'
p6706
I124
sS'ca)'
p6707
I62
sS'long'
p6708
I108
sS"we're"
p6709
I116
sS'papis'
p6710
I128
sS'bruh'
p6711
I125
sS'familia'
p6712
I128
sS'filed'
p6713
I128
sS'junior'
p6714
I128
sS'penguin'
p6715
I128
sS'fries'
p6716
I126
sS"hasn't"
p6717
I127
sS'fried'
p6718
I128
sS'called'
p6719
I117
sS'freak'
p6720
I127
sS'rally'
p6721
I127
sS'ca\xc3\xadn'
p6722
I128
sS'disappoints'
p6723
I128
sS'rainy'
p6724
I128
sS'peace'
p6725
I127
sS'backs'
p6726
I128
sS'nick'
p6727
I127
sS'nice'
p6728
I111
sS'mustard'
p6729
I128
sS'problems'
p6730
I125
sS'janelle'
p6731
I128
sS'meaning'
p6732
I128
sS'w/some'
p6733
I128
sS'anuncio'
p6734
I128
sS'remix'
p6735
I128
sS'gr8'
p6736
I128
sS'impatient'
p6737
I128
sS'weights'
p6738
I128
sS'karma'
p6739
I128
sS'buffalo'
p6740
I128
sS'once'
p6741
I119
sS'edc'
p6742
I126
sS'cargar'
p6743
I128
sS'edm'
p6744
I128
sS'gang'
p6745
I128
sS'gane'
p6746
I127
sS'promocionando'
p6747
I128
sS'imahara'
p6748
I128
sS'magnifying'
p6749
I128
sS'it!\xe2\x80\x9d'
p6750
I128
sS'pongo'
p6751
I128
sS'edog_kustoms_lbcc'
p6752
I128
sS'wished'
p6753
I126
sS'\xe2\x9d\xa4\xef\xb8\x8f\xe2\x80\x9d'
p6754
I128
sS'spoon'
p6755
I126
sS'wishes'
p6756
I127
sS'walking\xe2\x80\xa6'
p6757
I128
sS'drinking'
p6758
I126
sS'bryant'
p6759
I128
sS'appstoreu'
p6760
I128
sS'notes'
p6761
I127
sS'miras'
p6762
I128
sS'leader'
p6763
I128
sS"week's"
p6764
I127
sS'rae'
p6765
I128
sS'smaller'
p6766
I128
sS'lmaooooooo'
p6767
I128
sS"you's"
p6768
I128
sS'reunion'
p6769
I128
sS'compas'
p6770
I128
sS'60fwy'
p6771
I128
sS'(18+)'
p6772
I128
sS'jaaawdens'
p6773
I128
sS"man's"
p6774
I128
sS'waiting'
p6775
I117
sS'03:53:44.0,34.11583333,-117.9725,4046,dam'
p6776
I128
sS'capital'
p6777
I128
sS'$1000'
p6778
I128
sS'chose'
p6779
I127
sS'(too'
p6780
I128
sS'pushing'
p6781
I128
sS'sext'
p6782
I128
sS'siguen'
p6783
I128
sS'sexy'
p6784
I122
sS'return....lol'
p6785
I128
sS'larger'
p6786
I128
sS'shades'
p6787
I128
sS'grandes'
p6788
I128
sS'leaving'
p6789
I125
sS'armpit'
p6790
I128
sS'cafre'
p6791
I128
sS"dad's"
p6792
I128
sS'pajama'
p6793
I128
sS'yoshinoya'
p6794
I128
sS'tv.\xe2\x80\xa6'
p6795
I127
sS'pesan'
p6796
I128
sS'apple'
p6797
I128
sS'tweet...read'
p6798
I128
sS'poppin'
p6799
I128
sS'app'
p6800
I123
sS'offends'
p6801
I128
sS'apu'
p6802
I128
sS'kristine'
p6803
I128
sS'tuned\xe2\x80\xa6'
p6804
I128
sS'apply'
p6805
I128
sS'apa'
p6806
I128
sS'usf'
p6807
I128
sS'use'
p6808
I125
sS'from'
p6809
I49
sS'fea'
p6810
I127
sS'ustedes'
p6811
I128
sS'frog'
p6812
I128
sS'few'
p6813
I121
sS'scariest'
p6814
I128
sS'chip'
p6815
I128
sS'txts'
p6816
I128
sS'sore'
p6817
I124
sS'penis'
p6818
I128
sS'awkward\xe2\x80\x9d'
p6819
I128
sS'women'
p6820
I126
sS'annoy'
p6821
I128
sS'perder'
p6822
I128
sS'tarjetas'
p6823
I128
sS'goshh'
p6824
I128
sS'anywhere'
p6825
I125
sS'ayso.\xe2\x80\xa6'
p6826
I128
sS'tat'
p6827
I128
sS'tau'
p6828
I128
sS'tap'
p6829
I127
sS'thirsty'
p6830
I125
sS'tax'
p6831
I128
sS'tad'
p6832
I128
sS'crewnecks'
p6833
I128
sS'something'
p6834
I110
sS'tab'
p6835
I128
sS'tan'
p6836
I124
sS'tai'
p6837
I128
sS'rape'
p6838
I128
sS'paramedics='
p6839
I128
sS'sis'
p6840
I127
sS'sir'
p6841
I127
sS'united'
p6842
I128
sS'whatuppp'
p6843
I128
sS'sit'
p6844
I120
sS'andaba'
p6845
I128
sS'six'
p6846
I126
sS'brian'
p6847
I125
sS'sia'
p6848
I128
sS'leggins'
p6849
I128
sS'mangia'
p6850
I128
sS'meo'
p6851
I128
sS'instead'
p6852
I121
sS'nastayy'
p6853
I128
sS'sin'
p6854
I124
sS'gurl'
p6855
I128
sS'tension'
p6856
I128
sS'stars'
p6857
I127
sS'wrist'
p6858
I128
sS'taco'
p6859
I128
sS'hahahaha'
p6860
I119
sS'daycare'
p6861
I127
sS'light'
p6862
I124
sS'straps'
p6863
I128
sS'honestly'
p6864
I118
sS'scrubs'
p6865
I128
sS'crawling'
p6866
I128
sS'martini'
p6867
I128
sS'baddie'
p6868
I128
sS'looks'
p6869
I115
sS'wr'
p6870
I128
sS'silk'
p6871
I128
sS'cancuuuuun'
p6872
I128
sS'glee'
p6873
I127
sS'imorn'
p6874
I128
sS'choose'
p6875
I125
sS'byi'
p6876
I128
sS'orange'
p6877
I127
sS'covered'
p6878
I127
sS'pfffft'
p6879
I128
sS'holiday'
p6880
I127
sS'micahels'
p6881
I128
sS'crash'
p6882
I126
sS'citrus'
p6883
I128
sS'material'
p6884
I126
sS'flew'
p6885
I128
sS'was...shoot'
p6886
I128
sS'emerald'
p6887
I128
sS'thanks\xe2\x80\xa6'
p6888
I128
sS'trae'
p6889
I127
sS'worlds'
p6890
I127
sS'nfl'
p6891
I127
sS'rockets'
p6892
I128
sS'champ'
p6893
I126
sS'bills'
p6894
I127
sS'unbelievable'
p6895
I128
sS'related'
p6896
I128
sS'skank'
p6897
I127
sS'our'
p6898
I73
sS'80'
p6899
I127
sS'apoyo'
p6900
I128
sS'84'
p6901
I128
sS'out'
p6902
I34
sS'cerebral'
p6903
I128
sS'fr\xc3\xa5n'
p6904
I128
sS'yankee'
p6905
I128
sS'home.\xe2\x80\x9d'
p6906
I128
sS'o.o'
p6907
I128
sS'molly'
p6908
I124
sS'york'
p6909
I126
sS'okkk'
p6910
I128
sS'disgusted'
p6911
I128
sS'm\xc3\xa9xico'
p6912
I128
sS'cri'
p6913
I128
sS'g'
p6914
I128
sS'conversation'
p6915
I128
sS'4th'
p6916
I123
sS'ltg'
p6917
I128
sS'adrian'
p6918
I128
sS'rockycartels'
p6919
I128
sS'i-210'
p6920
I122
sS'konsep'
p6921
I128
sS"doesn't"
p6922
I111
sS'65%'
p6923
I128
sS'boggards'
p6924
I128
sS'siap'
p6925
I126
sS'their'
p6926
I111
sS"'77"
p6927
I128
sS'cola"'
p6928
I128
sS'academy'
p6929
I121
sS'juli'
p6930
I128
sS'slides'
p6931
I128
sS'dude,91010\n496434295872180224,djharass,2014-08-04'
p6932
I128
sS'july'
p6933
I123
sS'commence'
p6934
I128
sS'commodity'
p6935
I128
sS'boring'
p6936
I123
sS'tommy'
p6937
I128
sS'explica'
p6938
I128
sS'1.2'
p6939
I128
sS'teenagers'
p6940
I128
sS'catholic'
p6941
I128
sS'afraid'
p6942
I126
sS'angle'
p6943
I128
sS'woofs'
p6944
I128
sS'tonight,91010\n503743602343047168,djharass,2014-08-25'
p6945
I128
sS'chelas'
p6946
I128
sS'which'
p6947
I121
sS'mundial'
p6948
I127
sS'orientation.....\xe2\x80\x9d'
p6949
I128
sS'trivia'
p6950
I128
sS'='
p6951
I125
sS'youuuu'
p6952
I127
sS'anoten'
p6953
I128
sS'knees'
p6954
I128
sS'petrol'
p6955
I128
sS'who'
p6956
I85
sS'petros'
p6957
I126
sS'why'
p6958
I65
sS'contestasteees'
p6959
I128
sS'morado'
p6960
I128
sS'looked'
p6961
I127
sS'hi'
p6962
I119
sS'movie'
p6963
I120
sS'inspirations'
p6964
I128
sS'heeeeey'
p6965
I128
sS'chapters'
p6966
I128
sS'ech\xc3\xb3'
p6967
I128
sS'chicken'
p6968
I123
sS'ujung2nya'
p6969
I128
sS'bottling'
p6970
I128
sS'highest'
p6971
I128
sS'mugs'
p6972
I128
sS'jonze'
p6973
I128
sS'pickup'
p6974
I128
sS'operational'
p6975
I128
sS'utang'
p6976
I128
sS'sunflowers'
p6977
I128
sS'combo'
p6978
I128
sS'thousands'
p6979
I128
sS'lohanys'
p6980
I128
sS'spun'
p6981
I128
sS'watching'
p6982
I119
sS'cubo'
p6983
I128
sS'dope'
p6984
I127
sS'flirting'
p6985
I128
sS'please('
p6986
I128
sS'awww'
p6987
I128
sS'ones'
p6988
I120
sS'cubs'
p6989
I127
sS'words'
p6990
I120
sS'chips'
p6991
I128
sS'sebar'
p6992
I128
sS'ghetto'
p6993
I128
sS'champagne'
p6994
I128
sS'brain'
p6995
I127
sS'me.\xe2\x80\xa6'
p6996
I128
sS'married'
p6997
I125
sS'(bad/good)'
p6998
I128
sS'qb'
p6999
I127
sS'sparrows'
p7000
I128
sS'view'
p7001
I124
sS'available'
p7002
I128
sS'w0t'
p7003
I128
sS'\xc3\xbaltimo'
p7004
I128
sS'cole'
p7005
I127
sS'rumah'
p7006
I128
sS'mexicans'
p7007
I128
sS'closed'
p7008
I127
sS'dlt'
p7009
I126
sS'rendition'
p7010
I128
sS'bought'
p7011
I121
sS'framily'
p7012
I128
sS'trynna'
p7013
I127
sS'opening'
p7014
I126
sS'joy'
p7015
I126
sS'duane'
p7016
I128
sS'job'
p7017
I111
sS'takeover'
p7018
I128
sS'home?,91706\n510879904146415616,djharass,2014-09-13'
p7019
I128
sS'wnba'
p7020
I128
sS'april'
p7021
I128
sS'mocoso'
p7022
I128
sS'atleast'
p7023
I128
sS'tactical'
p7024
I128
sS'benzema'
p7025
I128
sS'drought"'
p7026
I128
sS'shit.,91010\n472882512419508224,babyyrossee,2014-05-31'
p7027
I128
sS'wall'
p7028
I125
sS'walk'
p7029
I119
sS'table'
p7030
I127
sS'god\xe2\x80\x99s'
p7031
I128
sS'rallycross'
p7032
I126
sS'decent'
p7033
I126
sS'gopro'
p7034
I128
sS'bby'
p7035
I127
sS'god(s)'
p7036
I128
sS'bbq'
p7037
I128
sS'alyx'
p7038
I128
sS'mike'
p7039
I127
sS'cypress'
p7040
I125
sS'urrrgeme'
p7041
I128
sS'spider.\xe2\x80\x9d'
p7042
I128
sS'bud!,91706\n415178510425026560,vicgetsilly,2013-12-23'
p7043
I128
sS'present'
p7044
I127
sS'corset'
p7045
I128
sS'16:42:57.0,34.134596,-117.9500947,4046'
p7046
I128
sS'choices'
p7047
I127
sS'will'
p7048
I63
sS'monrovia'
p7049
I125
sS'wild'
p7050
I127
sS'medicinal'
p7051
I127
sS'18:19:41.0,34.1065593,-117.93431,4046,just'
p7052
I128
sS'~'
p7053
I127
sS'ringing'
p7054
I128
sS'vape'
p7055
I128
sS'thus'
p7056
I128
sS'encouragement'
p7057
I128
sS'avi'
p7058
I128
sS'cadena'
p7059
I128
sS'ave'
p7060
I125
sS'fkj'
p7061
I128
sS'vintage'
p7062
I128
sS'cross'
p7063
I127
sS'unite'
p7064
I127
sS'member'
p7065
I127
sS'unity'
p7066
I128
sS'inch'
p7067
I128
sS'gets'
p7068
I116
sS'difficult'
p7069
I128
sS'promo'
p7070
I128
sS'retarded'
p7071
I128
sS'beast'
p7072
I128
sS'coaches'
p7073
I127
sS'pedal'
p7074
I128
sS'l.a'
p7075
I124
sS'collar'
p7076
I128
sS'warming'
p7077
I128
sS'get*'
p7078
I128
sS'fighting'
p7079
I125
sS'english'
p7080
I127
sS'drogba'
p7081
I128
sS'breaker'
p7082
I128
sS'carrie'
p7083
I128
sS'rocket'
p7084
I126
sS'02:38:22.0,34.1203702,-117.9695642,4046,i'
p7085
I128
sS"should've"
p7086
I128
sS'only*'
p7087
I128
sS'only)'
p7088
I128
sS'recap'
p7089
I128
sS'fishing'
p7090
I127
sS'happiness'
p7091
I124
sS'toilets'
p7092
I128
sS'gravities'
p7093
I128
sS'bell'
p7094
I128
sS'sky'
p7095
I126
sS'l.a.here'
p7096
I128
sS'book'
p7097
I124
sS'attractive'
p7098
I127
sS'smart'
p7099
I127
sS'duucchhhee'
p7100
I128
sS"who's"
p7101
I120
sS'execute'
p7102
I128
sS'7/11'
p7103
I128
sS'masih'
p7104
I128
sS'know'
p7105
I50
sS'knot'
p7106
I128
sS'catchers'
p7107
I128
sS'press'
p7108
I128
sS"'14"
p7109
I128
sS'tryouts'
p7110
I128
sS'miami'
p7111
I128
sS'loser'
p7112
I126
sS'loses'
p7113
I127
sS'hosts'
p7114
I128
sS'bitch"'
p7115
I128
sS'conclusion'
p7116
I128
sS'because'
p7117
I104
sS'arigato'
p7118
I128
sS'scared'
p7119
I122
sS'searching'
p7120
I127
sS'tumblr'
p7121
I128
sS"why'd"
p7122
I128
sS'jaimes'
p7123
I128
sS'employment'
p7124
I128
sS'jeremy'
p7125
I128
sS'lead'
p7126
I126
sS"gettin'"
p7127
I128
sS'mines'
p7128
I128
sS'expensive'
p7129
I128
sS'earrings'
p7130
I128
sS'01:22:13.0,34.1364306,-117.94648644,4046,might'
p7131
I128
sS'hooooooo'
p7132
I128
sS'ripped'
p7133
I128
sS'slut'
p7134
I126
sS'pasta'
p7135
I128
sS"generation's"
p7136
I128
sS'dcshoes'
p7137
I128
sS'rare'
p7138
I127
sS'getting'
p7139
I91
sS'universe'
p7140
I128
sS'spilled'
p7141
I128
sS'raro'
p7142
I128
sS'tianabrady'
p7143
I127
sS'perks'
p7144
I128
sS'swear'
p7145
I122
sS'sweat'
p7146
I127
sS'backstage'
p7147
I128
sS'autocorrect'
p7148
I128
sS'own'
p7149
I123
sS'owe'
p7150
I128
sS'rihanna-chivas'
p7151
I128
sS'weather'
p7152
I125
sS'promise'
p7153
I124
sS'brush'
p7154
I128
sS'registration'
p7155
I127
sS'consecutively'
p7156
I128
sS"little's"
p7157
I128
sS'yzzzy'
p7158
I128
sS'conjunto'
p7159
I128
sS'van'
p7160
I125
sS'*'
p7161
I126
sS'kidding'
p7162
I128
sS'scions'
p7163
I128
sS'awolnation'
p7164
I128
sS'limo'
p7165
I128
sS"i've"
p7166
I105
sS'bitches'
p7167
I125
sS'pecaminosas'
p7168
I128
sS'interestingg'
p7169
I128
sS'volume'
p7170
I128
sS'"obvi"'
p7171
I128
sS'made'
p7172
I103
sS'whether'
p7173
I128
sS'lunarose67'
p7174
I127
sS'record'
p7175
I128
sS'jacmar)'
p7176
I128
sS'cake'
p7177
I121
sS'faggot'
p7178
I127
sS'w\xc3\xb6w'
p7179
I128
sS"it's\xe2\x80\xa6"
p7180
I128
sS'goodness'
p7181
I127
sS'ew'
p7182
I128
sS'mutual'
p7183
I128
sS'incredible'
p7184
I128
sS'monday....its'
p7185
I128
sS'boot'
p7186
I128
sS'other'
p7187
I117
sS'boom'
p7188
I127
sS'sick'
p7189
I117
sS'boob'
p7190
I128
sS'incredibly'
p7191
I128
sS',91706\n528703496993116160,alliekittell,2014-11-02'
p7192
I128
sS'intresse'
p7193
I128
sS'illegally'
p7194
I128
sS'goodlooking'
p7195
I128
sS'june'
p7196
I127
sS'kinda'
p7197
I121
sS'"the'
p7198
I128
sS'jewel'
p7199
I127
sS"already...that's"
p7200
I128
s.