(dp0
S''
p1
I1
sS'fawk'
p2
I137
sS'nadien'
p3
I138
sS'foul'
p4
I137
sS'four'
p5
I138
sS'spiders'
p6
I136
sS"friend's"
p7
I138
sS'hanging'
p8
I136
sS'conjuring'
p9
I135
sS'otro'
p10
I138
sS'looking'
p11
I121
sS'now:1'
p12
I138
sS'lord'
p13
I135
sS'immature'
p14
I138
sS'shaving'
p15
I138
sS'callin'
p16
I138
sS'pierce'
p17
I135
sS'quiting'
p18
I138
sS'yellow'
p19
I137
sS'bringing'
p20
I137
sS'commented'
p21
I137
sS'tired'
p22
I117
sS'second'
p23
I130
sS'prudddeee'
p24
I138
sS'thunder'
p25
I133
sS'cooking'
p26
I138
sS'fingers'
p27
I137
sS'*sobs*'
p28
I138
sS'ayyyyyy'
p29
I138
sS'dahl'
p30
I138
sS'donalds'
p31
I138
sS'jasmine'
p32
I135
sS'here'
p33
I111
sS'herd'
p34
I137
sS'\xe2\x9d\xa4\xef\xb8\x8f'
p35
I121
sS'dora'
p36
I138
sS'auctioned'
p37
I138
sS'tatum'
p38
I138
sS'kids'
p39
I129
sS'17million'
p40
I138
sS'k'
p41
I133
sS'controversy'
p42
I138
sS"i'd"
p43
I132
sS'kidd'
p44
I138
sS'\xe2\x9c\x94\xef\xb8\x8f'
p45
I138
sS"i'm"
p46
I14
sS'golden'
p47
I138
sS'magically'
p48
I138
sS'brought'
p49
I137
sS'9s'
p50
I137
sS'unit'
p51
I136
sS'<3'
p52
I136
sS'cheating'
p53
I138
sS'spoke'
p54
I138
sS'homoness'
p55
I138
sS'15:14:43.0,34.0221629,-117.9129224,4081.38,i'
p56
I138
sS'insecurity'
p57
I138
sS'dnt'
p58
I138
sS'music'
p59
I127
sS'e3'
p60
I138
sS'until'
p61
I124
sS"capaldi's"
p62
I138
sS'holy'
p63
I117
sS'relax'
p64
I138
sS'successful'
p65
I131
sS'brings'
p66
I138
sS'hurt'
p67
I133
sS'99'
p68
I137
sS'90'
p69
I137
sS'hold'
p70
I138
sS'circumstances'
p71
I138
sS'intake'
p72
I138
sS'locked'
p73
I138
sS'08:53:45.0,34.0220553,-117.912818,4081.38,do'
p74
I138
sS'accomplishment'
p75
I137
sS'locker'
p76
I138
sS'2653793'
p77
I138
sS'example'
p78
I138
sS'beerpong'
p79
I138
sS'wana'
p80
I138
sS'titanium'
p81
I138
sS'want'
p82
I34
sS'down..but'
p83
I138
sS'dyke'
p84
I138
sS'hog'
p85
I138
sS'hoe'
p86
I135
sS'travel'
p87
I138
sS'lapuente'
p88
I138
sS'how'
p89
I44
sS'hot'
p90
I117
sS'hop'
p91
I137
sS'place'
p92
I130
sS'hoy'
p93
I137
sS'beauty'
p94
I133
sS'...or'
p95
I137
sS'wrong'
p96
I123
sS'glandular'
p97
I138
sS'loooooser'
p98
I138
sS'wins'
p99
I135
sS'cigarettes'
p100
I138
sS'decisionsdecisions'
p101
I138
sS'keeps'
p102
I136
sS'crackin'
p103
I138
sS'wing'
p104
I137
sS'wind'
p105
I137
sS'wine'
p106
I137
sS"alonei've"
p107
I138
sS'bubbles'
p108
I138
sS'*eyebrows'
p109
I138
sS'dreamer'
p110
I138
sS'fit'
p111
I136
sS'rankings'
p112
I137
sS'fix'
p113
I136
sS'yoginis'
p114
I138
sS'6..."'
p115
I138
sS'easier'
p116
I135
sS'\xe2\x80\x9cyou'
p117
I138
sS'much.,91744\n501288129006174208,jeriahmatthew,2014-08-18'
p118
I138
sS'effects'
p119
I138
sS'beaut'
p120
I138
sS'schools'
p121
I138
sS'silver'
p122
I135
sS'asteezy'
p123
I138
sS'man.....they'
p124
I138
sS'debut'
p125
I138
sS'addicted'
p126
I137
sS'lol,91744\n482311082069872640,jeriahmatthew,2014-06-26'
p127
I138
sS'series'
p128
I131
sS'spider'
p129
I137
sS'heart-to-hearts'
p130
I138
sS"we'd"
p131
I137
sS'message'
p132
I138
sS'rt'
p133
I132
sS'whaddya'
p134
I138
sS're'
p135
I138
sS'smh'
p136
I130
sS'rn'
p137
I67
sS'ofcourse'
p138
I138
sS'corrects'
p139
I138
sS'gameplay'
p140
I137
sS'ate'
p141
I133
sS'dayum'
p142
I134
sS'atm'
p143
I134
sS'ups'
p144
I137
sS'speedy'
p145
I138
sS"today's"
p146
I136
sS'potions'
p147
I138
sS'dude...hmmm'
p148
I138
sS'173'
p149
I138
sS'olds'
p150
I138
sS'basketball'
p151
I118
sS'service'
p152
I138
sS'engagement'
p153
I138
sS'needed'
p154
I136
sS'legs'
p155
I135
sS'genesis'
p156
I138
sS'listen'
p157
I135
sS'ahahahahahahhhhhhh'
p158
I138
sS'peril'
p159
I138
sS'coward'
p160
I138
sS'tree'
p161
I138
sS'10x'
p162
I137
sS'shower'
p163
I135
sS'feeling'
p164
I127
sS'runner'
p165
I138
sS'boston'
p166
I138
sS',91744\n501609931523760128,thehomieirving_,2014-08-19'
p167
I138
sS'\xe2\x9a\xa1\xef\xb8\x8fthighs'
p168
I138
sS'corny'
p169
I136
sS'longg'
p170
I138
sS'dozen'
p171
I138
sS'person'
p172
I116
sS'that'
p173
I11
sS'okie'
p174
I138
sS'causing'
p175
I138
sS'"pork"'
p176
I138
sS'susie'
p177
I138
sS'shall'
p178
I135
sS'y'
p179
I125
sS"u's"
p180
I138
sS'douchbags'
p181
I138
sS'singer'
p182
I138
sS'episode'
p183
I131
sS'tech'
p184
I136
sS'scream'
p185
I138
sS'came'
p186
I130
sS'saying'
p187
I130
sS'boogie'
p188
I138
sS'bomb'
p189
I133
sS'participate'
p190
I138
sS'eliminated'
p191
I138
sS'lessons'
p192
I138
sS'busy'
p193
I136
sS'clicked'
p194
I138
sS'bust'
p195
I138
sS'rihanna'
p196
I138
sS'rico'
p197
I137
sS'theme'
p198
I138
sS'touched'
p199
I137
sS'rich'
p200
I136
sS'rice'
p201
I136
sS'hondo'
p202
I138
sS'nominate"'
p203
I138
sS'honda'
p204
I138
sS'pocket'
p205
I138
sS'p\xe2\x80\x9d'
p206
I138
sS'relish'
p207
I138
sS'unfortunately'
p208
I138
sS'them"'
p209
I138
sS'cape*'
p210
I138
sS'require'
p211
I138
sS'respond'
p212
I138
sS'fair'
p213
I134
sS'goodnight'
p214
I129
sS'fail'
p215
I135
sS'jabari'
p216
I138
sS'best'
p217
I83
sS'lots'
p218
I137
sS'rings'
p219
I135
sS'score'
p220
I136
sS'yogurt'
p221
I138
sS'lamar'
p222
I138
sS'men'
p223
I135
sS'dory'
p224
I138
sS'wtf'
p225
I97
sS'wth'
p226
I136
sS'roller'
p227
I136
sS'pity'
p228
I138
sS'planner'
p229
I138
sS'country'
p230
I128
sS'planned'
p231
I135
sS'lookin'
p232
I138
sS'logic'
p233
I138
sS'argue'
p234
I136
sS'asked'
p235
I136
sS'money"'
p236
I138
sS'mortified'
p237
I138
sS'"sex"'
p238
I138
sS'ayeee'
p239
I138
sS'waaay'
p240
I137
sS'2nd'
p241
I134
sS'happenin'
p242
I138
sS'blonde'
p243
I133
sS'billing'
p244
I138
sS'union'
p245
I138
sS'khaled'
p246
I138
sS'\xe2\x9d\x84\xef\xb8\x8f'
p247
I138
sS'much'
p248
I79
sS'stadium'
p249
I138
sS'life'
p250
I63
sS"romo's"
p251
I138
sS'spit'
p252
I138
sS'eastern'
p253
I137
sS'out..it'
p254
I138
sS'worker'
p255
I138
sS'irving'
p256
I138
sS'wish'
p257
I127
sS'dave'
p258
I136
sS'child'
p259
I135
sS'worked'
p260
I137
sS'cunt'
p261
I136
sS'chill'
p262
I135
sS'nap..i'
p263
I138
sS'"unicorn"'
p264
I138
sS'technologically'
p265
I138
sS'appeals'
p266
I138
sS'querias'
p267
I138
sS'played'
p268
I131
sS'weirdness'
p269
I138
sS'player'
p270
I119
sS'anticipating'
p271
I138
sS'things'
p272
I108
sS'harmony'
p273
I138
sS'babies'
p274
I137
sS'tops'
p275
I137
sS'supper'
p276
I138
sS'burgers'
p277
I138
sS'nachos'
p278
I138
sS'joshua'
p279
I138
sS'sleeps'
p280
I138
sS'sleepy'
p281
I133
sS'bit'
p282
I136
sS'hai'
p283
I138
sS'broncos'
p284
I136
sS'had'
p285
I98
sS'innocent'
p286
I138
sS'prison'
p287
I137
sS'has'
p288
I78
sS'hat'
p289
I136
sS'ooooooohhmyggaaawwwddd'
p290
I138
sS'lovren'
p291
I138
sS'possible'
p292
I137
sS'stds'
p293
I138
sS'possibly'
p294
I137
sS'birth'
p295
I138
sS'poser'
p296
I138
sS'ywo'
p297
I138
sS'alice'
p298
I138
sS'soccersoulsbreaking'
p299
I138
sS'remind'
p300
I136
sS':-)))))'
p301
I138
sS'sebastian'
p302
I138
sS'right'
p303
I72
sS'old'
p304
I121
sS'ole'
p305
I136
sS'crowd'
p306
I138
sS'people'
p307
I34
sS'vato'
p308
I138
sS"daddy's"
p309
I138
sS'for'
p310
I15
sS'creative'
p311
I138
sS'foe'
p312
I138
sS'flopping'
p313
I135
sS'umm'
p314
I138
sS'foo'
p315
I138
sS'jugador'
p316
I138
sS'shakes'
p317
I137
sS'losing'
p318
I138
sS'"yired"'
p319
I138
sS'dollars'
p320
I136
sS'citizens'
p321
I138
sS'o'
p322
I123
sS'disqualified'
p323
I138
sS'slightly'
p324
I134
sS'raised'
p325
I138
sS'statements'
p326
I138
sS'honeymoon'
p327
I138
sS'soo'
p328
I135
sS'son'
p329
I135
sS'thankful'
p330
I136
sS'america'
p331
I132
sS'constantly'
p332
I137
sS'raped'
p333
I138
sS'absolutely'
p334
I135
sS'go?"'
p335
I138
sS'greatness'
p336
I138
sS'rapes'
p337
I138
sS'happy'
p338
I96
sS'notifications'
p339
I138
sS'reinventing'
p340
I138
sS'congratulations'
p341
I133
sS"else's"
p342
I138
sS'inside'
p343
I135
sS'gizmodohelp'
p344
I138
sS'nicest'
p345
I137
sS'feet'
p346
I135
sS'later'
p347
I133
sS'puerto'
p348
I137
sS'minaj'
p349
I137
sS'tournament'
p350
I138
sS'itsnthe'
p351
I138
sS'proves'
p352
I138
sS'exist'
p353
I137
sS'01:01:35.0,34.0220039,-117.9129645,4081.38,i'
p354
I138
sS'tooth'
p355
I138
sS'minds"'
p356
I138
sS'role'
p357
I133
sS'smell'
p358
I138
sS'roll'
p359
I138
sS'models'
p360
I138
sS'outttt'
p361
I138
sS'packets'
p362
I135
sS'it.,91744\n500009333384433664,jeriahmatthew,2014-08-14'
p363
I138
sS'time'
p364
I57
sS'push'
p365
I138
sS'banners'
p366
I138
sS'decision'
p367
I138
sS'adult'
p368
I137
sS'gown'
p369
I138
sS':/'
p370
I121
sS':('
p371
I106
sS':)'
p372
I100
sS'whoever'
p373
I136
sS'gambino)'
p374
I138
sS'skate'
p375
I138
sS':0'
p376
I138
sS'kinkiest'
p377
I138
sS'ver'
p378
I138
sS'jerk'
p379
I136
sS':d'
p380
I134
sS'true-blood-is-over'
p381
I138
sS'choice'
p382
I138
sS'stays'
p383
I137
sS':p'
p384
I136
sS'minute'
p385
I136
sS'cooks'
p386
I138
sS'tear'
p387
I138
sS'dealer?\xc2\xbf'
p388
I138
sS'leave'
p389
I129
sS'settle'
p390
I138
sS'queres'
p391
I138
sS':['
p392
I138
sS'prevent'
p393
I138
sS'gi.i'
p394
I138
sS'attic'
p395
I138
sS'sigh'
p396
I138
sS"martha's"
p397
I138
sS'prediction'
p398
I138
sS'sign'
p399
I137
sS'shirts'
p400
I138
sS'bruhhhh'
p401
I138
sS'rocher'
p402
I138
sS'current'
p403
I134
sS'melo'
p404
I137
sS'falling'
p405
I138
sS'crashing'
p406
I138
sS'freaky'
p407
I138
sS'drafted'
p408
I137
sS'oldies'
p409
I136
sS'grandparents'
p410
I137
sS'contemplate'
p411
I138
sS'alone'
p412
I135
sS'along'
p413
I135
sS'eisley'
p414
I138
sS'brilliant'
p415
I138
sS'accomplished'
p416
I138
sS'gun*its'
p417
I138
sS'love'
p418
I45
sS'stockton'
p419
I138
sS'prefer'
p420
I136
sS'logically'
p421
I137
sS'fake'
p422
I134
sS'choloas'
p423
I138
sS'sky'
p424
I138
sS'working'
p425
I136
sS'positive'
p426
I134
sS'angry'
p427
I138
sS'imaginations'
p428
I138
sS'wondering'
p429
I138
sS'films'
p430
I138
sS'loving'
p431
I137
sS'scratched'
p432
I138
sS'apparent'
p433
I138
sS'ooooooh'
p434
I138
sS'ignorant'
p435
I135
sS'sexxxxyy'
p436
I138
sS'goodell'
p437
I138
sS'rebounding'
p438
I138
sS'originally'
p439
I138
sS'believer'
p440
I138
sS'kendrick'
p441
I136
sS'believed'
p442
I138
sS'admired'
p443
I138
sS'awesome'
p444
I135
sS'allowed'
p445
I138
sS'offense'
p446
I138
sS'stole'
p447
I137
sS'winter'
p448
I138
sS'size..\xe2\x80\x9d'
p449
I138
sS's4'
p450
I138
sS'instant.,91744\n480368039649476608,jeriahmatthew,2014-06-21'
p451
I138
sS'jazz'
p452
I138
sS'blasting'
p453
I138
sS'spot'
p454
I135
sS'yeeeeesss'
p455
I138
sS'applications'
p456
I138
sS'00:10:15.0,34.0220917,-117.9128224,4081.38,popular'
p457
I138
sS'goodi'
p458
I138
sS'date'
p459
I116
sS'such'
p460
I100
sS'suck'
p461
I128
sS'dove'
p462
I138
sS'time...?"'
p463
I138
sS'stress'
p464
I138
sS'natural'
p465
I134
sS'ss'
p466
I138
sS'twittwer'
p467
I138
sS'st'
p468
I138
sS'si'
p469
I138
sS'so'
p470
I13
sS'swollen'
p471
I138
sS'sc'
p472
I138
sS'wolves'
p473
I136
sS'pulled'
p474
I138
sS'se'
p475
I138
sS'sd'
p476
I138
sS'"god"'
p477
I138
sS'years'
p478
I114
sS'hiring'
p479
I138
sS'episodes'
p480
I138
sS'yeari'
p481
I138
sS'kanye'
p482
I138
sS'lovelies'
p483
I138
sS'thumb'
p484
I136
sS'did-'
p485
I138
sS'stupidity'
p486
I137
sS'93%'
p487
I138
sS'gatorade'
p488
I138
sS'suspension'
p489
I138
sS'smarter'
p490
I138
sS'nation'
p491
I137
sS'ahaha'
p492
I130
sS'ketchup'
p493
I138
sS'frank'
p494
I134
sS'bowling'
p495
I138
sS'honduras'
p496
I138
sS'midlife'
p497
I138
sS'beloved'
p498
I138
sS'boosie'
p499
I138
sS'beetle'
p500
I138
sS'disasters'
p501
I138
sS":'("
p502
I137
sS'stuff/edited'
p503
I138
sS'ughhhhh'
p504
I138
sS'seriously'
p505
I111
sS'internet'
p506
I133
sS'dodgers'
p507
I132
sS'million'
p508
I138
sS'dokie'
p509
I138
sS'besides'
p510
I133
sS'gta5'
p511
I138
sS'12:15'
p512
I138
sS'training'
p513
I138
sS'diiick'
p514
I138
sS'sneaky'
p515
I137
sS'flanders'
p516
I138
sS'gordon'
p517
I137
sS'triracial'
p518
I138
sS'horas'
p519
I138
sS'emotion'
p520
I138
sS'saving'
p521
I138
sS'potter'
p522
I131
sS'one'
p523
I47
sS'spanish'
p524
I138
sS'chubby'
p525
I138
sS'open'
p526
I135
sS'osbourne'
p527
I138
sS'city'
p528
I129
sS'smirk*'
p529
I138
sS'seventy7'
p530
I138
sS'fml'
p531
I136
sS'2'
p532
I106
sS'draft'
p533
I117
sS'meteor*'
p534
I138
sS'williams'
p535
I134
sS'shawn'
p536
I136
sS'ridiculous'
p537
I136
sS'boyfriend'
p538
I126
sS'depressed'
p539
I138
sS'offense.,91744\n464572861202841601,jeriahmatthew,2014-05-09'
p540
I138
sS'future'
p541
I120
sS'san'
p542
I135
sS'sam'
p543
I138
sS'supremacist'
p544
I138
sS'turned'
p545
I138
sS'sad'
p546
I105
sS'tastes'
p547
I135
sS'lurking'
p548
I138
sS'saw'
p549
I129
sS'sat'
p550
I138
sS'sport'
p551
I134
sS'warriors'
p552
I138
sS'zoo'
p553
I138
sS'note'
p554
I137
sS'omfg'
p555
I126
sS'take'
p556
I98
sS'wanting'
p557
I128
sS'grammys'
p558
I138
sS'opposite'
p559
I137
sS"beyonce's"
p560
I137
sS'knew'
p561
I130
sS'emiid'
p562
I135
sS'knee'
p563
I138
sS'uuuuuuuuuuuhhhh'
p564
I138
sS'pages'
p565
I137
sS'average'
p566
I138
sS'phil'
p567
I137
sS'drive'
p568
I132
sS'axe'
p569
I138
sS'salt'
p570
I138
sS'laws'
p571
I138
sS'knowjoan'
p572
I138
sS'walking'
p573
I136
sS'\xe2\x9c\xa8'
p574
I134
sS'lotus'
p575
I138
sS"gilbert's"
p576
I138
sS'bright'
p577
I137
sS'line'
p578
I134
sS'\xe2\x9c\x8c'
p579
I138
sS'slow'
p580
I136
sS'\xe2\x9c\x8b'
p581
I134
sS'tears'
p582
I135
sS'going'
p583
I55
sS'hockey'
p584
I135
sS"croatia's"
p585
I138
sS'freezing'
p586
I138
sS'southside'
p587
I138
sS'right\xe2\x80\x9d'
p588
I138
sS'prime'
p589
I138
sS'18:54:47.0,34.0220869,-117.9128718,4081.38,cause'
p590
I138
sS'borrow'
p591
I137
sS'worried'
p592
I137
sS'whitegirl'
p593
I138
sS'neighbors"'
p594
I138
sS'roger'
p595
I138
sS"could've"
p596
I138
sS'where'
p597
I117
sS'buuuuut'
p598
I138
sS'anyways'
p599
I136
sS'dexter'
p600
I137
sS'enjoys'
p601
I138
sS'jobs'
p602
I136
sS'persians'
p603
I138
sS'screen'
p604
I137
sS'concentrate'
p605
I138
sS'awards'
p606
I136
sS'spark'
p607
I138
sS'busting'
p608
I138
sS'many'
p609
I121
sS'yeees'
p610
I138
sS'mana'
p611
I138
sS's'
p612
I136
sS'mani'
p613
I138
sS"can't"
p614
I52
sS'jo$e'
p615
I138
sS'ants'
p616
I138
sS'twin'
p617
I135
sS'3000'
p618
I138
sS'now\xe2\x80\x9d'
p619
I138
sS'teddy'
p620
I138
sS'west'
p621
I129
sS'roald'
p622
I138
sS'crawford'
p623
I136
sS'wants'
p624
I127
sS'melones'
p625
I138
sS'\xe3\x80\x82\xe2\x98\x86'
p626
I137
sS'thousand'
p627
I137
sS'photos'
p628
I137
sS'hashtag'
p629
I138
sS'former'
p630
I137
sS'nogales'
p631
I138
sS'reebok'
p632
I138
sS'ive'
p633
I138
sS'brow'
p634
I138
sS'mixtape'
p635
I137
sS'bron'
p636
I138
sS'ivy'
p637
I138
sS'verified'
p638
I138
sS'rooting'
p639
I137
sS'downs'
p640
I138
sS'02:05:56.0,34.0220039,-117.9129645,4081.38,i'
p641
I138
sS'sterling'
p642
I136
sS'bassham'
p643
I138
sS'deidra'
p644
I138
sS'harris'
p645
I138
sS'barber'
p646
I138
sS'awesomeness'
p647
I138
sS'+50'
p648
I138
sS'forever!,91744\n464567518829764609,jeriahmatthew,2014-05-09'
p649
I138
sS'grumpy'
p650
I138
sS',91744\n482316336660365313,jeriahmatthew,2014-06-27'
p651
I138
sS'summer'
p652
I109
sS'being'
p653
I98
sS'rest'
p654
I136
sS'(i'
p655
I137
sS'summed'
p656
I138
sS'(a'
p657
I138
sS'weekly'
p658
I138
sS'starving'
p659
I134
sS'aspects'
p660
I138
sS'around'
p661
I114
sS'sportsmanship'
p662
I138
sS'pos'
p663
I138
sS'dark'
p664
I136
sS'fuckinggooooddd'
p665
I138
sS'traffic'
p666
I137
sS'insist'
p667
I138
sS'(-'
p668
I134
sS'world'
p669
I113
sS'dare'
p670
I138
sS'in-n-out'
p671
I136
sS'stranger'
p672
I138
sS'souvenirs'
p673
I138
sS'gimme'
p674
I138
sS'bayonetta'
p675
I137
sS'diving'
p676
I138
sS'racial'
p677
I138
sS'thinks'
p678
I136
sS'wiggins'
p679
I130
sS'jgl'
p680
I138
sS'memories'
p681
I136
sS'noon'
p682
I138
sS'scottie'
p683
I135
sS'tuba'
p684
I138
sS'^-^'
p685
I132
sS'transformers'
p686
I137
sS'lame...*cough'
p687
I138
sS'internship'
p688
I138
sS'leadership'
p689
I138
sS'waddup'
p690
I138
sS'throwback'
p691
I137
sS';)'
p692
I138
sS'stone'
p693
I138
sS'favorite'
p694
I110
sS'meal'
p695
I137
sS'neighbor'
p696
I138
sS'act'
p697
I131
sS'luck'
p698
I135
sS'laugh.."'
p699
I138
sS'curling'
p700
I138
sS'burning'
p701
I138
sS'tibbs'
p702
I138
sS'image'
p703
I138
sS'lively'
p704
I137
sS'parties'
p705
I136
sS'wade'
p706
I137
sS'uhhhhhh'
p707
I138
sS'freaken'
p708
I138
sS'bubbly'
p709
I138
sS'yumber'
p710
I138
sS"phone's"
p711
I138
sS'her'
p712
I85
sS'hes'
p713
I137
sS'hey'
p714
I135
sS"how'd"
p715
I138
sS'brazilian'
p716
I138
sS'heh'
p717
I138
sS'complete'
p718
I134
sS'clones'
p719
I138
sS'unreliable'
p720
I138
sS'with'
p721
I24
sS'handsome'
p722
I137
sS"they're"
p723
I119
sS'rush'
p724
I137
sS'october'
p725
I133
sS'626-472-4270'
p726
I138
sS'flirt'
p727
I138
sS'dirty'
p728
I137
sS'russ'
p729
I138
sS'agree'
p730
I135
sS'darker'
p731
I137
sS'gym..anyone'
p732
I138
sS'gone'
p733
I130
sS'ohh'
p734
I138
sS'johnny'
p735
I123
sS'af'
p736
I131
sS'certain'
p737
I136
sS'doug'
p738
I138
sS'am'
p739
I81
sS'al'
p740
I136
sS'an'
p741
I82
sS'ap'
p742
I133
sS'as'
p743
I65
sS'at'
p744
I31
sS'aw'
p745
I132
sS'walks'
p746
I138
sS'ay'
p747
I136
sS'watched'
p748
I138
sS'cream'
p749
I134
sS'yoga'
p750
I137
sS'graduate'
p751
I137
sS'summit'
p752
I136
sS'someones'
p753
I138
sS'laptopget'
p754
I138
sS'cp3'
p755
I138
sS'you.\xe2\x80\x9dpretty'
p756
I138
sS'vocabulary'
p757
I138
sS'team.kd'
p758
I138
sS'midget'
p759
I138
sS'fresh'
p760
I137
sS'natalie'
p761
I138
sS'having'
p762
I114
sS'adam'
p763
I136
sS'cpr'
p764
I138
sS'cpt'
p765
I138
sS'original'
p766
I136
sS'essay'
p767
I138
sS'you.,91744\n499622291186393088,jeriahmatthew,2014-08-13'
p768
I138
sS'consider'
p769
I138
sS'hot..you'
p770
I138
sS'vikings'
p771
I138
sS'tv'
p772
I134
sS'tu'
p773
I137
sS'dribble'
p774
I138
sS'to'
p775
I3
sS'tl'
p776
I137
sS'chewing'
p777
I138
sS'dressing'
p778
I138
sS'tf'
p779
I128
sS'smile'
p780
I130
sS'td'
p781
I138
sS'te'
p782
I137
sS'tb'
p783
I138
sS'ghana'
p784
I137
sS'24th'
p785
I138
sS'fuckkkk'
p786
I138
sS'condition'
p787
I138
sS'sand'
p788
I135
sS'hell.,91744\n482310160786800643,jeriahmatthew,2014-06-26'
p789
I138
sS'harry'
p790
I131
sS'braid'
p791
I138
sS'humongous'
p792
I138
sS'quicker'
p793
I138
sS'50birthday'
p794
I138
sS'penalties'
p795
I138
sS'past'
p796
I124
sS'pass'
p797
I128
sS'2,91744\n477929582314541057,jeriahmatthew,2014-06-14'
p798
I138
sS'feeling...word'
p799
I138
sS'time.\xe2\x80\x9d'
p800
I138
sS'fucku'
p801
I138
sS'fucks'
p802
I138
sS'fuckk'
p803
I138
sS'full'
p804
I127
sS'hours'
p805
I131
sS'november'
p806
I136
sS'experience'
p807
I133
sS'pics'
p808
I136
sS'social'
p809
I137
sS"would've"
p810
I138
sS'fuck"'
p811
I138
sS'naaaaaahhh'
p812
I138
sS'19:26:38.0,34.0220817,-117.9128958,4081.38'
p813
I138
sS'via'
p814
I138
sS'followed'
p815
I133
sS'reclaimed'
p816
I138
sS'second.,91744\n499636342557790208,jeriahmatthew,2014-08-13'
p817
I138
sS'gosh'
p818
I137
sS'sexiness'
p819
I138
sS'me.mom'
p820
I138
sS'trips'
p821
I137
sS'lesbo'
p822
I138
sS'85%'
p823
I138
sS'6'
p824
I132
sS'more'
p825
I84
sS'teen'
p826
I125
sS'thot,91744\n497797526884720640,thehomieirving_,2014-08-08'
p827
I138
sS'door'
p828
I138
sS'negativity'
p829
I138
sS'blemishes'
p830
I138
sS'keeping'
p831
I137
sS'damien'
p832
I138
sS'science'
p833
I138
sS'mall'
p834
I136
sS'\xe2\x99\x9a\xe2\x99\xa1'
p835
I138
sS'morgan'
p836
I138
sS'learn'
p837
I129
sS'male'
p838
I138
sS'pick'
p839
I105
sS'beautiful'
p840
I122
sS'rodriguez'
p841
I138
sS'\xe2\x9a\xbe'
p842
I138
sS'\xe2\x9a\xbd'
p843
I138
sS'mehe'
p844
I138
sS'states'
p845
I137
sS'glennon'
p846
I138
sS'salty'
p847
I136
sS'sense'
p848
I128
sS'dress'
p849
I128
sS'huge'
p850
I135
sS'clint'
p851
I137
sS'hugs'
p852
I138
sS'browns'
p853
I136
sS'tempting'
p854
I136
sS'8====d'
p855
I138
sS'notre'
p856
I138
sS'plane'
p857
I138
sS'duwani'
p858
I138
sS'refuse'
p859
I138
sS'funday'
p860
I138
sS'volleyball'
p861
I138
sS'cigarets'
p862
I138
sS'replied'
p863
I138
sS'10:30'
p864
I138
sS'mexican'
p865
I134
sS'locking'
p866
I138
sS'trade'
p867
I135
sS'attitude'
p868
I135
sS'paper'
p869
I137
sS'scott'
p870
I138
sS'signs'
p871
I138
sS'smiling'
p872
I135
sS'its'
p873
I118
sS'roots'
p874
I138
sS'isaiah'
p875
I137
sS"dosen't"
p876
I135
sS'ally'
p877
I138
sS'it-'
p878
I138
sS'entire'
p879
I129
sS':__('
p880
I138
sS'rnall'
p881
I138
sS'sucked'
p882
I138
sS'everytime'
p883
I138
sS'always'
p884
I81
sS'nauseous'
p885
I138
sS'found'
p886
I134
sS'lantern'
p887
I138
sS'eyelash'
p888
I138
sS'operation'
p889
I138
sS'really'
p890
I49
sS'missed'
p891
I132
sS'ernie'
p892
I138
sS'mattered'
p893
I138
sS'research'
p894
I137
sS'darling'
p895
I137
sS'plotting'
p896
I138
sS'fatass'
p897
I138
sS'imagine'
p898
I134
sS'definition'
p899
I137
sS'pairs'
p900
I138
sS'signing"'
p901
I138
sS'elective'
p902
I138
sS'w'
p903
I134
sS'black"'
p904
I138
sS'major'
p905
I138
sS',91744\n477931818310574080,jeriahmatthew,2014-06-14'
p906
I138
sS'number'
p907
I127
sS'kobe'
p908
I131
sS'guess'
p909
I128
sS'heads'
p910
I138
sS'ilysfm'
p911
I137
sS'saint'
p912
I138
sS'reaction.lebron'
p913
I138
sS'relationship'
p914
I131
sS'appreciation'
p915
I138
sS'unrealistic'
p916
I138
sS'grace'
p917
I138
sS'*heavy'
p918
I138
sS'jerryd'
p919
I138
sS'determined'
p920
I138
sS'marriage'
p921
I135
sS'fights'
p922
I138
sS'guarding'
p923
I138
sS'uuuuuh'
p924
I138
sS'sell'
p925
I136
sS'odd'
p926
I136
sS'self'
p927
I133
sS'jets/raiders,91744\n464587040383066114,jeriahmatthew,2014-05-09'
p928
I138
sS'also'
p929
I132
sS'(community)'
p930
I138
sS'play'
p931
I110
sS'yhat'
p932
I138
sS'plan'
p933
I138
sS'model'
p934
I137
sS'funnier'
p935
I138
sS'understands'
p936
I138
sS'sometimes'
p937
I133
sS'cover'
p938
I137
sS'giving'
p939
I131
sS'.;('
p940
I138
sS'gabe'
p941
I138
sS'microsoft'
p942
I138
sS'ugh'
p943
I109
sS'golf'
p944
I138
sS'gold'
p945
I138
sS',91744\n475754628445773824,jeriahmatthew,2014-06-08'
p946
I138
sS'blender'
p947
I138
sS'father.,91744\n482309964862468096,jeriahmatthew,2014-06-26'
p948
I138
sS'18:33:04.0,34.0220813,-117.9128382,4081.38,jesus'
p949
I138
sS'hotttttt'
p950
I138
sS"they'd"
p951
I138
sS'actions'
p952
I137
sS'wendays'
p953
I138
sS'cry'
p954
I130
sS'bird'
p955
I136
sS'thots'
p956
I136
sS'croatia'
p957
I138
sS'is\xe2\x80\xa6'
p958
I138
sS'cri'
p959
I138
sS'uhmmmm'
p960
I138
sS'insane'
p961
I138
sS'set'
p962
I130
sS'312'
p963
I138
sS':-))'
p964
I138
sS'jada'
p965
I137
sS'sex'
p966
I130
sS'lol,91744\n477930607196897280,jeriahmatthew,2014-06-14'
p967
I138
sS'see'
p968
I64
sS':/,91744\n499630451515203585,jeriahmatthew,2014-08-13'
p969
I138
sS'sea'
p970
I138
sS'negredo'
p971
I137
sS'lee'
p972
I136
sS'trey'
p973
I137
sS'vitamins'
p974
I138
sS'movie'
p975
I94
sS'currently'
p976
I130
sS'rejecting'
p977
I138
sS'soulmate'
p978
I135
sS'nope'
p979
I136
sS'compliment'
p980
I138
sS'available'
p981
I136
sS'"think'
p982
I138
sS'white/brown'
p983
I138
sS'pick(18)'
p984
I138
sS'last'
p985
I104
sS'colton'
p986
I138
sS'thot'
p987
I136
sS'barely'
p988
I138
sS'thor'
p989
I138
sS'quitter.\xe2\x80\x9d'
p990
I138
sS'amoeba'
p991
I138
sS'rose'
p992
I138
sS'whole'
p993
I114
sS'patty'
p994
I130
sS'load'
p995
I138
sS'\xe2\x98\xba'
p996
I138
sS'drunk'
p997
I134
sS'acted'
p998
I138
sS'community'
p999
I138
sS'hollow'
p1000
I138
sS'church'
p1001
I138
sS'sammy'
p1002
I137
sS'learrnn!"'
p1003
I138
sS'belt'
p1004
I138
sS'hitting'
p1005
I135
sS'\xe2\x98\x85'
p1006
I137
sS'\xe2\x98\x86'
p1007
I137
sS'sweetheart'
p1008
I138
sS'fire'
p1009
I137
sS"what's"
p1010
I126
sS'bitchy'
p1011
I138
sS'races'
p1012
I138
sS'awake'
p1013
I132
sS'traumatizing'
p1014
I138
sS'straight'
p1015
I133
sS'admire'
p1016
I138
sS'yoooooooo'
p1017
I138
sS'truuuue'
p1018
I138
sS'kissing'
p1019
I136
sS'fucckckkkkkkkkkkk'
p1020
I138
sS"20:01:29.0,34.0221835,-117.9129101,4081.38,what's"
p1021
I138
sS'swim'
p1022
I138
sS'hoping'
p1023
I135
sS'triple'
p1024
I137
sS'chase'
p1025
I138
sS'funny'
p1026
I112
sS'raiders'
p1027
I137
sS'barnes'
p1028
I137
sS'shorter'
p1029
I135
sS'rules'
p1030
I138
sS'though,91744\n499474238823485441,jeriahmatthew,2014-08-13'
p1031
I138
sS'illest'
p1032
I138
sS'alert'
p1033
I138
sS'dejuan'
p1034
I138
sS'walmart'
p1035
I137
sS'disability-'
p1036
I138
sS'euro'
p1037
I138
sS'makes'
p1038
I102
sS'kne'
p1039
I138
sS'picks'
p1040
I136
sS'concrete'
p1041
I138
sS'kelly'
p1042
I138
sS'pink/white'
p1043
I138
sS'lujo'
p1044
I138
sS'uuuuuuupppppp'
p1045
I138
sS'4th'
p1046
I136
sS'forrest'
p1047
I132
sS'contradicting'
p1048
I137
sS'signals'
p1049
I138
sS'parents'
p1050
I132
sS'01:09:36.0,34.0220039,-117.9129645,4081.38,the'
p1051
I138
sS'crying'
p1052
I134
sS'input'
p1053
I138
sS'lurkin'
p1054
I138
sS'surprised'
p1055
I136
sS'emergency'
p1056
I138
sS'couple'
p1057
I136
sS'shitty'
p1058
I135
sS"macy's"
p1059
I137
sS'd'
p1060
I136
sS'continue'
p1061
I137
sS'spring'
p1062
I138
sS'b+'
p1063
I138
sS'sight'
p1064
I138
sS'curious'
p1065
I137
sS'asshole!"'
p1066
I138
sS'dating'
p1067
I138
sS'be'
p1068
I22
sS'bf'
p1069
I136
sS'bb'
p1070
I137
sS'bc'
p1071
I132
sS'bo'
p1072
I138
sS'bi'
p1073
I138
sS'smiths'
p1074
I137
sS'santa'
p1075
I136
sS'by'
p1076
I90
sS'mangria'
p1077
I138
sS'anything'
p1078
I121
sS'netflix'
p1079
I132
sS'fouls'
p1080
I138
sS'snowballed'
p1081
I138
sS'deserves'
p1082
I138
sS'ambush'
p1083
I138
sS'forgave'
p1084
I138
sS'stuart'
p1085
I138
sS'malarkey'
p1086
I137
sS'hometown'
p1087
I137
sS'into'
p1088
I118
sS'appropriate'
p1089
I138
sS'lebron'
p1090
I122
sS'backbend'
p1091
I138
sS'much\xe2\x80\x9d'
p1092
I138
sS'arcade'
p1093
I137
sS'spam'
p1094
I138
sS'sock'
p1095
I138
sS'awko'
p1096
I138
sS'school....sweet'
p1097
I138
sS'*that'
p1098
I138
sS'opens'
p1099
I138
sS'elsewhere'
p1100
I138
sS'inches'
p1101
I138
sS'pastor'
p1102
I138
sS'vlogs'
p1103
I138
sS't-shirt'
p1104
I138
sS'lescott'
p1105
I137
sS'link'
p1106
I137
sS'pacific'
p1107
I137
sS'kitchen...the'
p1108
I138
sS'intestines'
p1109
I138
sS'posted'
p1110
I138
sS'fades'
p1111
I137
sS'up'
p1112
I30
sS'us'
p1113
I111
sS'ur'
p1114
I133
sS'um'
p1115
I134
sS'maturity'
p1116
I138
sS'slander'
p1117
I137
sS'uh'
p1118
I130
sS'uc'
p1119
I138
sS'yelled'
p1120
I138
sS'ethic.,91744\n464650226293547008,jeriahmatthew,2014-05-09'
p1121
I138
sS'phantom'
p1122
I138
sS'fixing'
p1123
I138
sS'tara'
p1124
I136
sS'fareal'
p1125
I138
sS'yacob'
p1126
I138
sS'stepchild'
p1127
I138
sS'points'
p1128
I137
sS'exum'
p1129
I135
sS'95%'
p1130
I138
sS'meals'
p1131
I138
sS'ago'
p1132
I128
sS'texted'
p1133
I137
sS'napping'
p1134
I138
sS'barkley'
p1135
I136
sS'walked'
p1136
I137
sS'feud'
p1137
I138
sS'hella'
p1138
I138
sS"$1000i'm"
p1139
I138
sS'halloween!?\xe2\x80\x9d'
p1140
I138
sS'senioritis'
p1141
I138
sS'hello'
p1142
I137
sS'cheetos'
p1143
I138
sS'monterey'
p1144
I138
sS'code'
p1145
I135
sS'squats'
p1146
I137
sS'scratch'
p1147
I137
sS'existing'
p1148
I138
sS'freakin'
p1149
I136
sS'gossip'
p1150
I136
sS'seemed'
p1151
I138
sS'turkish'
p1152
I137
sS'young'
p1153
I134
sS'send'
p1154
I137
sS'dislike'
p1155
I137
sS'sent'
p1156
I138
sS'garden'
p1157
I137
sS'continues'
p1158
I138
sS'mixing'
p1159
I137
sS'animals'
p1160
I137
sS'libby'
p1161
I138
sS'magic'
p1162
I138
sS'marry'
p1163
I135
sS'gettin'
p1164
I138
sS"they've"
p1165
I138
sS'try'
p1166
I126
sS'race'
p1167
I130
sS'tru'
p1168
I138
sS'time.really'
p1169
I138
sS'video'
p1170
I132
sS'pajamas'
p1171
I138
sS'that('
p1172
I138
sS'"if"'
p1173
I138
sS'sweaty'
p1174
I137
sS'bestfriends'
p1175
I138
sS'obvious'
p1176
I137
sS'twinz'
p1177
I138
sS'douched'
p1178
I138
sS'leg'
p1179
I135
sS'*gets'
p1180
I138
sS'punch'
p1181
I138
sS'let'
p1182
I118
sS'bakersfield'
p1183
I135
sS'great'
p1184
I87
sS'\xe2\x9a\xbd\xef\xb8\x8f'
p1185
I133
sS'involved'
p1186
I138
sS'titanic'
p1187
I138
sS'fond'
p1188
I138
sS'popcorn'
p1189
I138
sS'opinion'
p1190
I128
sS'whatching'
p1191
I138
sS'thats'
p1192
I132
sS'viviendo..prefiero'
p1193
I138
sS'dumbest'
p1194
I137
sS'standing'
p1195
I138
sS'confidence'
p1196
I138
sS'illegal'
p1197
I138
sS'chocolates'
p1198
I137
sS'next'
p1199
I103
sS'eleven'
p1200
I138
sS'doubt'
p1201
I137
sS'doubling'
p1202
I138
sS'rick'
p1203
I138
sS'babe'
p1204
I132
sS'folks'
p1205
I138
sS'opposing'
p1206
I138
sS'sotired'
p1207
I138
sS'baby'
p1208
I116
sS'gladly'
p1209
I138
sS'zamora'
p1210
I138
sS'charity'
p1211
I138
sS'account...,91744\n480468201667428352,jeriahmatthew,2014-06-21'
p1212
I138
sS'balls'
p1213
I136
sS'practicing'
p1214
I138
sS'this'
p1215
I20
sS'challenge'
p1216
I137
sS'thin'
p1217
I137
sS'sabe'
p1218
I138
sS'lock'
p1219
I136
sS'slim'
p1220
I138
sS'high'
p1221
I118
sS'bend'
p1222
I138
sS'twitpic'
p1223
I137
sS'comedy'
p1224
I138
sS'stand'
p1225
I136
sS'tied'
p1226
I138
sS'notebook'
p1227
I138
sS'ties'
p1228
I138
sS'ahahaha'
p1229
I132
sS'racks'
p1230
I136
sS'realized'
p1231
I134
sS'21:57:36.0,34.022079,-117.9128334,4081.38,i'
p1232
I138
sS'noises'
p1233
I138
sS'classy'
p1234
I138
sS'hunnid'
p1235
I138
sS'houston'
p1236
I138
sS'move'
p1237
I128
sS'hooot'
p1238
I138
sS'grizz'
p1239
I137
sS'perfect'
p1240
I122
sS'crabby'
p1241
I138
sS'fouls)'
p1242
I138
sS'realllly'
p1243
I138
sS'spoiling'
p1244
I138
sS'2015'
p1245
I138
sS'2014'
p1246
I130
sS'tyronn'
p1247
I135
sS'therefor'
p1248
I138
sS'2010'
p1249
I137
sS'disrupted'
p1250
I138
sS'dougie'
p1251
I136
sS'bothering'
p1252
I138
sS'kiss'
p1253
I134
sS'waterboy'
p1254
I138
sS'garner'
p1255
I138
sS'realize'
p1256
I134
sS'undertaking'
p1257
I138
sS'hummmmannnnn'
p1258
I138
sS'sneezed'
p1259
I138
sS'truth'
p1260
I138
sS'beneath'
p1261
I138
sS'glasses'
p1262
I138
sS'hathaway'
p1263
I138
sS'doing'
p1264
I120
sS'society'
p1265
I132
sS'over\xe2\x80\x9d'
p1266
I138
sS'books'
p1267
I135
sS'lifefeature'
p1268
I138
sS'goalkeeper'
p1269
I138
sS'shannon'
p1270
I138
sS'tou'
p1271
I138
sS'hilarious'
p1272
I132
sS'burke'
p1273
I138
sS'stare'
p1274
I138
sS'shut'
p1275
I133
sS'tempo'
p1276
I138
sS'bothered'
p1277
I138
sS'craving'
p1278
I134
sS'scary'
p1279
I131
sS'replaying'
p1280
I138
sS'us.,91744\n499628237526663168,jeriahmatthew,2014-08-13'
p1281
I138
sS'david'
p1282
I138
sS'chipotle...like'
p1283
I138
sS'cunts'
p1284
I137
sS'...but'
p1285
I138
sS'scare'
p1286
I137
sS'ihy'
p1287
I138
sS'promlem'
p1288
I138
sS'scene'
p1289
I136
sS'jesus'
p1290
I128
sS'reggie'
p1291
I138
sS'ying'
p1292
I137
sS'start'
p1293
I116
sS'ordering'
p1294
I138
sS'gay"'
p1295
I138
sS'system'
p1296
I133
sS'interests'
p1297
I137
sS'stomach'
p1298
I137
sS'lot'
p1299
I103
sS'shorts'
p1300
I136
sS'megan'
p1301
I138
sS'depressing'
p1302
I138
sS'dislocated'
p1303
I138
sS"lamar's"
p1304
I138
sS'*dies*'
p1305
I138
sS'bother'
p1306
I138
sS'roberto'
p1307
I138
sS'appealing'
p1308
I137
sS'gays'
p1309
I135
sS'accusing'
p1310
I138
sS'count!"true'
p1311
I138
sS'trusting'
p1312
I137
sS'spelled'
p1313
I136
sS'tonight'
p1314
I112
sS'gentle'
p1315
I137
sS'soak'
p1316
I137
sS'lilo'
p1317
I138
sS'mills'
p1318
I137
sS'babes'
p1319
I138
sS';-)'
p1320
I137
sS'segment'
p1321
I138
sS'hypocrite'
p1322
I138
sS'stronger'
p1323
I137
sS'thanksgiving'
p1324
I138
sS'brea'
p1325
I138
sS'face'
p1326
I122
sS"you'll"
p1327
I134
sS'brew'
p1328
I138
sS'fact'
p1329
I132
sS'atmosphere'
p1330
I137
sS'oreos'
p1331
I138
sS'bring'
p1332
I128
sS"90's"
p1333
I136
sS'rough'
p1334
I137
sS'podcast'
p1335
I138
sS'should'
p1336
I83
sS'jam'
p1337
I138
sS'tape'
p1338
I138
sS'printers'
p1339
I138
sS'riding'
p1340
I138
sS'flinch'
p1341
I138
sS'hope'
p1342
I118
sS'meant'
p1343
I136
sS'handle'
p1344
I138
sS'listened'
p1345
I138
sS'means'
p1346
I131
sS'abby'
p1347
I138
sS'h'
p1348
I134
sS'rapper'
p1349
I133
sS'taxes'
p1350
I138
sS'comics'
p1351
I138
sS'stuff'
p1352
I131
sS'dallas'
p1353
I136
sS'dayzzzzz'
p1354
I138
sS'btw'
p1355
I136
sS'perdido'
p1356
I138
sS'zone"'
p1357
I138
sS'holdsyet'
p1358
I138
sS'packet'
p1359
I138
sS'edition'
p1360
I138
sS'snapchatting'
p1361
I138
sS'packed'
p1362
I136
sS'destiny'
p1363
I138
sS'yase'
p1364
I138
sS'smelled'
p1365
I138
sS'yasy'
p1366
I138
sS'youll'
p1367
I138
sS'ends'
p1368
I138
sS"y'all's"
p1369
I138
sS'it(if'
p1370
I138
sS'wonnnn'
p1371
I138
sS'staring'
p1372
I137
sS'figured'
p1373
I138
sS'drum'
p1374
I138
sS'00:17:06.0,34.0220992,-117.9127958,4081.38,crazy.,91744\n499672294713995264,jeriahmatthew,2014-08-13'
p1375
I138
sS'ethnicities'
p1376
I138
sS'invited'
p1377
I137
sS'drug'
p1378
I138
sS'rams'
p1379
I138
sS'etc'
p1380
I138
sS'dafuuq'
p1381
I138
sS'tld'
p1382
I138
sS'20:02:28.0,34.0221835,-117.9129101,4081.38,everyone'
p1383
I138
sS'*my'
p1384
I138
sS'co'
p1385
I136
sS'sancha'
p1386
I137
sS'cd'
p1387
I138
sS'oakland'
p1388
I138
sS'motto'
p1389
I138
sS"whatever's"
p1390
I134
sS'hottest'
p1391
I138
sS'fraction-of-a-percent'
p1392
I138
sS'>'
p1393
I131
sS'lunquist'
p1394
I138
sS'accident'
p1395
I138
sS'graphics'
p1396
I138
sS'atlanta'
p1397
I137
sS'ravens'
p1398
I138
sS"morgan's"
p1399
I138
sS"'fan"
p1400
I138
sS'hahaha'
p1401
I134
sS'yuuuum'
p1402
I138
sS'hahahh'
p1403
I138
sS've'
p1404
I138
sS'lust'
p1405
I138
sS'vs'
p1406
I136
sS'tj/rosarito'
p1407
I138
sS'duhamel'
p1408
I138
sS'</3'
p1409
I138
sS'android'
p1410
I138
sS'ball'
p1411
I133
sS'columbia'
p1412
I138
sS'raymond'
p1413
I138
sS'bald'
p1414
I137
sS'nationally'
p1415
I138
sS'-_______-'
p1416
I138
sS"thick'n'fit"
p1417
I138
sS"franco's"
p1418
I138
sS'infinite'
p1419
I138
sS'mommom'
p1420
I138
sS'off'
p1421
I91
sS'ofl'
p1422
I138
sS'command'
p1423
I138
sS'"intergalactic"'
p1424
I138
sS'flesh'
p1425
I138
sS'moments'
p1426
I137
sS'23:50:31.0,34.0221502,-117.9129957,4081.38,jabari'
p1427
I138
sS'paul'
p1428
I135
sS'wen'
p1429
I138
sS"presley's"
p1430
I138
sS'five'
p1431
I138
sS'desk'
p1432
I138
sS'hehehehe'
p1433
I138
sS'nvm'
p1434
I138
sS'pier'
p1435
I138
sS'nerves'
p1436
I138
sS'\xe2\x98\x86\xe3\x80\x82'
p1437
I137
sS'week...i'
p1438
I138
sS'$156'
p1439
I138
sS'choosing'
p1440
I138
sS'$400'
p1441
I138
sS'literally'
p1442
I123
sS'avoid'
p1443
I138
sS'does'
p1444
I118
sS'blowing'
p1445
I138
sS'schedule'
p1446
I135
sS'homophobe'
p1447
I138
sS'stage'
p1448
I138
sS'sister'
p1449
I121
sS'michellesometimes'
p1450
I138
sS'asks'
p1451
I138
sS'angeles'
p1452
I135
sS'jhene'
p1453
I137
sS'swimming'
p1454
I134
sS'nordstrom...please'
p1455
I138
sS'pussy'
p1456
I135
sS'screamed'
p1457
I138
sS'lung'
p1458
I138
sS'2k14'
p1459
I138
sS'hehe'
p1460
I138
sS'yaaaaaas'
p1461
I138
sS'snyder'
p1462
I137
sS'yoga\xe2\x80\xa6'
p1463
I138
sS'puta'
p1464
I138
sS'kooks'
p1465
I138
sS'naturally'
p1466
I138
sS'function'
p1467
I137
sS'\xe3\x80\x82\xe2\x98\x86\xe3\x80\x82\xe3\x80\x82\xe2\x98\x86'
p1468
I137
sS'count'
p1469
I135
sS'places'
p1470
I137
sS'official'
p1471
I138
sS'smooth'
p1472
I138
sS'excitement'
p1473
I138
sS'wtfgetittogether'
p1474
I138
sS'iverson'
p1475
I137
sS'replica'
p1476
I138
sS'"safe"'
p1477
I138
sS'jesse'
p1478
I138
sS'compared'
p1479
I138
sS'two/three'
p1480
I138
sS'nonetheless'
p1481
I138
sS'lately'
p1482
I133
sS'details'
p1483
I138
sS'westbrook2'
p1484
I138
sS'repeat'
p1485
I137
sS'zhou'
p1486
I138
sS'marlboro'
p1487
I138
sS'chance'
p1488
I137
sS'badass'
p1489
I138
sS'ibaka'
p1490
I137
sS'veil'
p1491
I138
sS'searches'
p1492
I138
sS'fuuck'
p1493
I136
sS'rule'
p1494
I135
sS'knockers'
p1495
I138
sS'kickstart'
p1496
I138
sS'yiked'
p1497
I138
sS'yikes'
p1498
I138
sS'fawkkk'
p1499
I138
sS'tfios'
p1500
I135
sS'saved'
p1501
I137
sS'stinks'
p1502
I138
sS'bike'
p1503
I138
sS'worth'
p1504
I133
sS'00:58:04.0,34.022041,-117.9129075,4081.38,a'
p1505
I138
sS'ale'
p1506
I138
sS'htrllap'
p1507
I138
sS'tamborazo'
p1508
I138
sS'jacob'
p1509
I138
sS'tickets'
p1510
I137
sS"we'll"
p1511
I133
sS"maroun's"
p1512
I138
sS'squirtle'
p1513
I138
sS'worthless-'
p1514
I138
sS'math'
p1515
I138
sS'phones'
p1516
I137
sS'aeries'
p1517
I138
sS'7th'
p1518
I135
sS'chem'
p1519
I134
sS'bipolar'
p1520
I138
sS'above'
p1521
I138
sS'19:22:31.0,34.0220693,-117.9128569,4081.38,who'
p1522
I138
sS'kutcher'
p1523
I138
sS'officially'
p1524
I135
sS'told'
p1525
I124
sS'shutup'
p1526
I137
sS'muahahahaha'
p1527
I138
sS'pursuit'
p1528
I138
sS'celebration'
p1529
I138
sS'studs'
p1530
I138
sS'family"why'
p1531
I138
sS'daughter'
p1532
I135
sS'glo'
p1533
I138
sS'study'
p1534
I137
sS'smoke'
p1535
I133
sS'stressed'
p1536
I138
sS'aka'
p1537
I138
sS'graders'
p1538
I138
sS'bro'
p1539
I136
sS'opportunities'
p1540
I138
sS'total'
p1541
I137
sS'bra'
p1542
I136
sS'sarah'
p1543
I138
sS'plot'
p1544
I135
sS'rancho'
p1545
I138
sS'sweater'
p1546
I138
sS'motivate'
p1547
I138
sS'negative'
p1548
I135
sS'tryin'
p1549
I138
sS'groans*'
p1550
I138
sS'wiggins='
p1551
I138
sS'giovanni'
p1552
I138
sS'haha'
p1553
I130
sS'pierced'
p1554
I137
sS'trojans'
p1555
I138
sS'blocking'
p1556
I137
sS'word'
p1557
I126
sS'explode\xe2\x80\x9d'
p1558
I138
sS'work'
p1559
I106
sS'cant'
p1560
I132
sS'snapchats'
p1561
I137
sS'cuddle'
p1562
I137
sS'criticizing'
p1563
I138
sS'jamal'
p1564
I137
sS'could'
p1565
I91
sS'la)'
p1566
I138
sS'indicated'
p1567
I138
sS'indie'
p1568
I138
sS'55-'
p1569
I138
sS'fiiiiiinnnnnne'
p1570
I138
sS'yaaaas'
p1571
I136
sS'length'
p1572
I138
sS'ig'
p1573
I136
sS'rookie'
p1574
I138
sS'interview'
p1575
I138
sS'beach'
p1576
I123
sS'pizza'
p1577
I128
sS'bday'
p1578
I137
sS'stefani'
p1579
I138
sS'ladder'
p1580
I138
sS'after'
p1581
I108
sS'ignskullgirls'
p1582
I138
sS'barea'
p1583
I138
sS'lay'
p1584
I136
sS'law'
p1585
I138
sS'lap'
p1586
I138
sS'las'
p1587
I138
sS'alienate'
p1588
I138
sS'appreciate'
p1589
I135
sS'greet'
p1590
I138
sS'green'
p1591
I136
sS'fan'
p1592
I126
sS'fab'
p1593
I138
sS'6.2'
p1594
I137
sS'japan'
p1595
I138
sS'nets'
p1596
I137
sS'mayor'
p1597
I138
sS'soullllll'
p1598
I138
sS'somewhere'
p1599
I135
sS'workable'
p1600
I138
sS'then'
p1601
I103
sS'them'
p1602
I93
sS'fragment'
p1603
I138
sS'siiiiick'
p1604
I138
sS'break'
p1605
I135
sS'band'
p1606
I134
sS'roommate'
p1607
I138
sS'shameful'
p1608
I138
sS'they'
p1609
I51
sS'bank'
p1610
I137
sS'l'
p1611
I134
sS'alexis'
p1612
I137
sS'anastasia'
p1613
I138
sS'dammmmn'
p1614
I138
sS'carlos'
p1615
I138
sS'eva.,91744\n499637140209561600,jeriahmatthew,2014-08-13'
p1616
I138
sS'guerita'
p1617
I138
sS'strangers'
p1618
I137
sS'daniel'
p1619
I137
sS'medicine'
p1620
I138
sS'lesbians'
p1621
I138
sS'leftovers'
p1622
I133
sS'standard'
p1623
I138
sS"people's"
p1624
I135
sS'mvp'
p1625
I134
sS'dammit'
p1626
I135
sS'lousy'
p1627
I138
sS'generalizations'
p1628
I138
sS'organize'
p1629
I138
sS'><'
p1630
I138
sS'champs'
p1631
I138
sS'perkins'
p1632
I138
sS'acabando'
p1633
I138
sS'another'
p1634
I120
sS'thick'
p1635
I136
sS'ballin'
p1636
I138
sS'love5'
p1637
I138
sS'rated'
p1638
I137
sS'ten'
p1639
I137
sS"colton's"
p1640
I137
sS'john'
p1641
I137
sS'dogs'
p1642
I134
sS'totter'
p1643
I138
sS'gingerwtf'
p1644
I138
sS'rejected'
p1645
I138
sS'cereal'
p1646
I138
sS'wasted'
p1647
I137
sS'tithe'
p1648
I138
sS'target'
p1649
I138
sS'scenes'
p1650
I137
sS'ebay'
p1651
I138
sS'powers'
p1652
I138
sS'bronchitis'
p1653
I138
sS'*pukes*'
p1654
I138
sS'strength'
p1655
I138
sS'dfenders'
p1656
I138
sS'circles'
p1657
I137
sS'pandora'
p1658
I136
sS'germany'
p1659
I138
sS'teamcleanthony'
p1660
I138
sS"real'"
p1661
I138
sS'aunt'
p1662
I136
sS'sun'
p1663
I135
sS'renting'
p1664
I138
sS'opinions'
p1665
I138
sS'chandelier'
p1666
I138
sS'nephew'
p1667
I138
sS'd3'
p1668
I138
sS'd1'
p1669
I138
sS'ahahahahahaha'
p1670
I137
sS'just'
p1671
I21
sS'kinky'
p1672
I137
sS'goalie'
p1673
I137
sS'personality'
p1674
I135
sS'do'
p1675
I42
sS'dm'
p1676
I137
sS'dj'
p1677
I138
sS'de'
p1678
I135
sS'db'
p1679
I134
sS'jeriah'
p1680
I138
sS'da'
p1681
I137
sS'haunted'
p1682
I138
sS'barbies'
p1683
I138
sS'nasty'
p1684
I136
sS'dr'
p1685
I136
sS'peyton'
p1686
I137
sS'z/28'
p1687
I138
sS'w/o'
p1688
I138
sS'steal'
p1689
I136
sS'3:02'
p1690
I138
sS'w/'
p1691
I136
sS'lemonade'
p1692
I137
sS'depends'
p1693
I137
sS"2's"
p1694
I138
sS'away'
p1695
I126
sS'we'
p1696
I46
sS'terms'
p1697
I138
sS'wi'
p1698
I137
sS'????\xc2\xbf\xc2\xbf\xc2\xbf\xc2\xbf'
p1699
I138
sS'sickens'
p1700
I138
sS'bras'
p1701
I138
sS'cop'
p1702
I137
sS'tfti'
p1703
I134
sS'cow'
p1704
I138
sS'cox'
p1705
I138
sS'ill'
p1706
I135
sS'brag'
p1707
I138
sS'ily'
p1708
I135
sS'tough'
p1709
I135
sS'tons'
p1710
I138
sS'tony'
p1711
I133
sS'beheaded'
p1712
I138
sS'heals'
p1713
I138
sS'speak'
p1714
I133
sS'buffett'
p1715
I138
sS'sleepover'
p1716
I138
sS'bishh'
p1717
I138
sS'easy'
p1718
I129
sS'dickerson'
p1719
I138
sS'east'
p1720
I136
sS'air'
p1721
I138
sS'aid'
p1722
I138
sS'property'
p1723
I138
sS'mistake'
p1724
I138
sS'cons'
p1725
I138
sS'vogel'
p1726
I138
sS'you?me'
p1727
I138
sS'brake'
p1728
I138
sS'cone'
p1729
I137
sS'perform'
p1730
I136
sS':(('
p1731
I138
sS'bunny'
p1732
I138
sS'perimeter'
p1733
I138
sS'deceased-'
p1734
I138
sS'hang'
p1735
I133
sS'evil'
p1736
I137
sS'hand'
p1737
I138
sS'lol\xe2\x80\x9d'
p1738
I138
sS'thy'
p1739
I138
sS'humble'
p1740
I134
sS'kyle'
p1741
I138
sS'tho'
p1742
I133
sS'hispanic'
p1743
I138
sS'the'
p1744
I4
sS'rn*'
p1745
I138
sS'"jokes'
p1746
I138
sS'bitchezno'
p1747
I138
sS'athletic'
p1748
I138
sS'gods'
p1749
I138
sS'gravity'
p1750
I136
sS'quotes'
p1751
I138
sS'thanks'
p1752
I114
sS'swears'
p1753
I138
sS'jose'
p1754
I138
sS'transformer'
p1755
I138
sS'hills'
p1756
I138
sS'(usa)diy'
p1757
I138
sS'josh'
p1758
I134
sS"ma'am"
p1759
I138
sS'transformed'
p1760
I138
sS'board'
p1761
I138
sS'righteous'
p1762
I138
sS'caps'
p1763
I138
sS'tarzan'
p1764
I138
sS'theyre'
p1765
I137
sS',91744\n501300642221391874,jeriahmatthew,2014-08-18'
p1766
I138
sS'night'
p1767
I104
sS'sends'
p1768
I138
sS'idgaf'
p1769
I138
sS'born'
p1770
I137
sS'0-100'
p1771
I137
sS'humor'
p1772
I137
sS'/'
p1773
I136
sS'asking'
p1774
I138
sS'beating'
p1775
I136
sS'pls'
p1776
I132
sS'sadie'
p1777
I138
sS'peer'
p1778
I138
sS'post'
p1779
I136
sS'pll'
p1780
I137
sS'astons'
p1781
I138
sS'months'
p1782
I131
sS'feefa'
p1783
I138
sS'book'
p1784
I130
sS'wasting'
p1785
I137
sS'pays'
p1786
I138
sS'float'
p1787
I138
sS'bound'
p1788
I137
sS'lois'
p1789
I138
sS'"mexican"'
p1790
I138
sS'ahahah'
p1791
I138
sS'wah'
p1792
I138
sS'berly'
p1793
I134
sS'fight'
p1794
I134
sS'way'
p1795
I97
sS'wat'
p1796
I134
sS'was'
p1797
I25
sS'war'
p1798
I138
sS'becoming'
p1799
I135
sS'ohyesterday'
p1800
I138
sS'elderly'
p1801
I138
sS'true'
p1802
I112
sS'technobuffalokingdom'
p1803
I138
sS'7:15'
p1804
I138
sS'emotional'
p1805
I136
sS'scandalous'
p1806
I138
sS'evidence'
p1807
I138
sS'prayer'
p1808
I138
sS'floridians'
p1809
I138
sS'american.becomes'
p1810
I138
sS'dying'
p1811
I135
sS'stake'
p1812
I138
sS'reality'
p1813
I137
sS'interested'
p1814
I137
sS'"when'
p1815
I138
sS'test'
p1816
I138
sS'scored'
p1817
I138
sS'brothers'
p1818
I137
sS'phoras'
p1819
I138
sS'welcome'
p1820
I136
sS'update'
p1821
I138
sS"let's"
p1822
I124
sS'lol,91744\n482305814359584768,jeriahmatthew,2014-06-26'
p1823
I138
sS'scores'
p1824
I136
sS'milestone!,91744\n464650800724451328,jeriahmatthew,2014-05-09'
p1825
I138
sS'portman'
p1826
I138
sS'cheated'
p1827
I138
sS'together'
p1828
I128
sS'loyal'
p1829
I135
sS'cheater'
p1830
I136
sS'lineup'
p1831
I138
sS'songs'
p1832
I136
sS'switched'
p1833
I138
sS'dance'
p1834
I132
sS'grateful'
p1835
I134
sS'battle'
p1836
I136
sS'devoted'
p1837
I138
sS'supposedly'
p1838
I137
sS'grape'
p1839
I138
sS'zone'
p1840
I137
sS'drake-'
p1841
I138
sS'have.,91744\n480366215366340608,jeriahmatthew,2014-06-21'
p1842
I138
sS'division'
p1843
I136
sS"08:39:11.0,34.0220758,-117.9128778,4081.38,let's"
p1844
I138
sS'\xe2\x9a\xbe\xef\xb8\x8f'
p1845
I135
sS'seemingly'
p1846
I138
sS'vegas'
p1847
I134
sS'funnah'
p1848
I138
sS'blast'
p1849
I138
sS'brows'
p1850
I138
sS'feeble'
p1851
I138
sS'gud'
p1852
I138
sS'turns'
p1853
I137
sS'fragile'
p1854
I138
sS'p'
p1855
I138
sS'soooo'
p1856
I136
sS'gut'
p1857
I138
sS'guy'
p1858
I97
sS'"metaphor"'
p1859
I138
sS'brave'
p1860
I138
sS'regret'
p1861
I138
sS'discover'
p1862
I138
sS'bold'
p1863
I138
sS'technobuffalogodzilla'
p1864
I137
sS'&&&&'
p1865
I138
sS'shares'
p1866
I138
sS'appeal'
p1867
I137
sS'supporting'
p1868
I138
sS'roundhead'
p1869
I138
sS'other.,91744\n499630161541996545,jeriahmatthew,2014-08-13'
p1870
I138
sS'genes'
p1871
I138
sS'chango'
p1872
I138
sS'have/understand'
p1873
I138
sS'teacher'
p1874
I137
sS'change'
p1875
I127
sS'sending'
p1876
I138
sS'condoms'
p1877
I138
sS'lakers'
p1878
I127
sS'bangs'
p1879
I138
sS'kemp'
p1880
I137
sS'usually'
p1881
I136
sS'bucs'
p1882
I138
sS'history'
p1883
I136
sS'pillow'
p1884
I138
sS'regardless'
p1885
I136
sS'hiking'
p1886
I137
sS'extra'
p1887
I136
sS'fambam'
p1888
I137
sS'rarely'
p1889
I138
sS'market'
p1890
I137
sS'klutch'
p1891
I138
sS'>:('
p1892
I138
sS'live'
p1893
I124
sS'angels'
p1894
I131
sS'am?!tomorrow'
p1895
I138
sS'club'
p1896
I134
sS'organizations'
p1897
I138
sS'planked'
p1898
I138
sS'niggas'
p1899
I138
sS'car'
p1900
I128
sS'cap'
p1901
I137
sS'cat'
p1902
I133
sS'purge'
p1903
I134
sS'labeled'
p1904
I138
sS'can'
p1905
I37
sS'cal'
p1906
I138
sS'niggah'
p1907
I137
sS"'deep"
p1908
I138
sS'heart'
p1909
I122
sS'dedicated'
p1910
I138
sS'lol,91744\n477928776722968576,jeriahmatthew,2014-06-14'
p1911
I138
sS'december'
p1912
I135
sS"didn't"
p1913
I102
sS'topic'
p1914
I137
sS'heard'
p1915
I134
sS'*incrediblesss'
p1916
I138
sS'clothing'
p1917
I138
sS'restitution'
p1918
I138
sS'productive'
p1919
I136
sS'write'
p1920
I131
sS'faaaalllll'
p1921
I138
sS'uuuuuuuuuhhhhhh'
p1922
I138
sS'sacrifice'
p1923
I138
sS'diva'
p1924
I138
sS'newlin'
p1925
I138
sS'remember'
p1926
I123
sS'whenever'
p1927
I138
sS'candles'
p1928
I138
sS'crepy'
p1929
I138
sS'laff'
p1930
I137
sS'typical'
p1931
I138
sS'paramore'
p1932
I138
sS'02:04:25.0,34.0220039,-117.9129645,4081.38,johnny'
p1933
I138
sS'haircut'
p1934
I138
sS'ended'
p1935
I138
sS'highhh'
p1936
I138
sS'birdy'
p1937
I137
sS'cold'
p1938
I133
sS'still'
p1939
I66
sS'birds'
p1940
I138
sS'cola'
p1941
I138
sS'curly'
p1942
I138
sS'reason.,91744\n480469609649152000,jeriahmatthew,2014-06-21'
p1943
I138
sS'window'
p1944
I138
sS'non'
p1945
I137
sS'fling'
p1946
I137
sS'nod'
p1947
I138
sS'adrenaline'
p1948
I137
sS'half'
p1949
I130
sS'not'
p1950
I27
sS'now'
p1951
I56
sS'nor'
p1952
I137
sS'james'
p1953
I128
sS'drop'
p1954
I134
sS'kerr'
p1955
I137
sS'"killjoys"'
p1956
I138
sS'orher'
p1957
I138
sS'em'
p1958
I138
sS'el'
p1959
I135
sS'en'
p1960
I138
sS'fired'
p1961
I135
sS'yeah'
p1962
I114
sS'sandwich'
p1963
I137
sS'ex'
p1964
I135
sS'year'
p1965
I83
sS'ew'
p1966
I128
sS'avoided'
p1967
I138
sS'pills'
p1968
I134
sS"00:14:43.0,34.0221502,-117.9129957,4081.38,i'm"
p1969
I138
sS'"relationship'
p1970
I138
sS'"rap'
p1971
I138
sS'opened'
p1972
I138
sS'space'
p1973
I136
sS'increase'
p1974
I138
sS'receiving'
p1975
I138
sS'shows'
p1976
I132
sS'carr'
p1977
I137
sS'alllll'
p1978
I138
sS'card'
p1979
I137
sS'care'
p1980
I118
sS"daisy's"
p1981
I138
sS'british'
p1982
I138
sS'honest'
p1983
I137
sS'biotch'
p1984
I138
sS'invitation'
p1985
I138
sS'626'
p1986
I138
sS'xc'
p1987
I138
sS'lives..i'
p1988
I138
sS'xd'
p1989
I116
sS'yourself'
p1990
I131
sS'your\xe2\x80\xa6'
p1991
I138
sS'directly'
p1992
I138
sS'impossible'
p1993
I137
sS'xp'
p1994
I137
sS'tomorrow'
p1995
I92
sS'size'
p1996
I137
sS'checked'
p1997
I138
sS"15:15:40.0,34.0221629,-117.9129224,4081.38,i'm"
p1998
I138
sS'caught'
p1999
I137
sS'breed'
p2000
I138
sS'carson'
p2001
I138
sS'friend'
p2002
I116
sS'x)'
p2003
I133
sS'mostly'
p2004
I136
sS'poms'
p2005
I138
sS'thaz'
p2006
I136
sS'randle'
p2007
I137
sS'duuh'
p2008
I138
sS'becus'
p2009
I138
sS'thai'
p2010
I138
sS'flowers'
p2011
I138
sS'than'
p2012
I96
sS'titans'
p2013
I138
sS'get."i'
p2014
I138
sS'premier'
p2015
I138
sS'anger'
p2016
I137
sS'breakfast'
p2017
I136
sS'geezus'
p2018
I137
sS'publicity'
p2019
I137
sS'wcw'
p2020
I136
sS'hookah'
p2021
I137
sS'online'
p2022
I135
sS'bitching'
p2023
I138
sS'begin'
p2024
I137
sS'intergalactic'
p2025
I138
sS'importantly'
p2026
I138
sS':/,91744\n499636150878089217,jeriahmatthew,2014-08-13'
p2027
I138
sS'yelephone'
p2028
I138
sS'michelle'
p2029
I135
sS'forever'
p2030
I119
sS"as'f"
p2031
I123
sS'dream'
p2032
I133
sS'mrs'
p2033
I136
sS'professional'
p2034
I138
sS'turnover'
p2035
I138
sS'typically'
p2036
I138
sS'redick'
p2037
I138
sS'fifty'
p2038
I135
sS'ground'
p2039
I137
sS'aint'
p2040
I138
sS'title'
p2041
I138
sS'only'
p2042
I76
sS"09:32:17.0,34.0221571,-117.9129344,4081.38,don't"
p2043
I138
sS'baeless'
p2044
I138
sS'thompson'
p2045
I138
sS'samuel'
p2046
I138
sS'facetimes'
p2047
I138
sS'truly'
p2048
I136
sS'cannot'
p2049
I136
sS'cryin'
p2050
I137
sS'celebrate'
p2051
I138
sS'captaining'
p2052
I138
sS'leather'
p2053
I138
sS'friends"'
p2054
I138
sS'husband'
p2055
I135
sS'concert'
p2056
I135
sS'physically'
p2057
I138
sS'asleep'
p2058
I132
sS'hell'
p2059
I127
sS'estamos'
p2060
I138
sS'zebo'
p2061
I136
sS'unbaes'
p2062
I138
sS'3'
p2063
I110
sS'estar'
p2064
I138
sS'between'
p2065
I132
sS'notice'
p2066
I138
sS'hurts'
p2067
I133
sS'comeback'
p2068
I138
sS'anal"'
p2069
I138
sS'talented'
p2070
I137
sS'wallaby'
p2071
I137
sS'18:13:30.0,34.0220726,-117.912816,4081.38,lmao'
p2072
I138
sS'comes'
p2073
I132
sS"couldn't"
p2074
I131
sS'piercings<<<<'
p2075
I138
sS'dooonnneeeeeeeeeeeeee'
p2076
I138
sS'cares'
p2077
I134
sS'tropical'
p2078
I138
sS'sesh'
p2079
I138
sS'exhaustion'
p2080
I137
sS'elvis'
p2081
I138
sS'wounds'
p2082
I138
sS'bout'
p2083
I134
sS'these'
p2084
I95
sS'goodmorning'
p2085
I134
sS'coolest'
p2086
I138
sS'semester/next'
p2087
I138
sS'gringo'
p2088
I138
sS'embrace'
p2089
I138
sS'heels'
p2090
I138
sS'return'
p2091
I138
sS'stickers'
p2092
I138
sS'worry'
p2093
I133
sS'\xe2\x9d\xa4\xef\xb8\x8fdear'
p2094
I138
sS'develop'
p2095
I138
sS'media'
p2096
I130
sS'ya'
p2097
I108
sS'followers'
p2098
I133
sS'coworkers'
p2099
I138
sS'frazier'
p2100
I138
sS'noble'
p2101
I138
sS'finish'
p2102
I133
sS'tarano'
p2103
I138
sS'arctic'
p2104
I137
sS"duncan's"
p2105
I138
sS'bumpin'
p2106
I138
sS'fruit'
p2107
I138
sS'alligators'
p2108
I138
sS'mentally'
p2109
I138
sS'\xe2\x9c\x8c\xef\xb8\x8f'
p2110
I136
sS'severs'
p2111
I138
sS'breeze'
p2112
I138
sS'vomit'
p2113
I138
sS"you've"
p2114
I135
sS'noah'
p2115
I136
sS'valuable'
p2116
I138
sS'anyday'
p2117
I138
sS'touch'
p2118
I138
sS'ps3'
p2119
I138
sS'speed'
p2120
I138
sS'sachar'
p2121
I138
sS'ps4'
p2122
I137
sS'death'
p2123
I137
sS'legitimately'
p2124
I138
sS'thinking'
p2125
I128
sS'verse'
p2126
I138
sS'9:30'
p2127
I138
sS'halftime'
p2128
I138
sS'real'
p2129
I98
sS'read'
p2130
I123
sS'amc'
p2131
I137
sS'gonna'
p2132
I99
sS'early'
p2133
I126
sS'listening'
p2134
I132
sS'lady'
p2135
I137
sS'mudslide'
p2136
I138
sS'pounds'
p2137
I138
sS'benefit'
p2138
I138
sS't'
p2139
I131
sS'occasions'
p2140
I138
sS'3.95/gallon'
p2141
I138
sS'orozco'
p2142
I138
sS"qt's"
p2143
I138
sS'pointlessly'
p2144
I138
sS'eddie'
p2145
I138
sS'payed'
p2146
I138
sS'regina'
p2147
I137
sS'23:51:17.0,34.0221502,-117.9129957,4081.38,sonny'
p2148
I138
sS'yake'
p2149
I138
sS'\xe2\x9c\x88\xef\xb8\x8f'
p2150
I135
sS'arrrow'
p2151
I138
sS'business'
p2152
I138
sS'asap'
p2153
I131
sS'credits'
p2154
I138
sS'honest.,91744\n464570844120088577,jeriahmatthew,2014-05-09'
p2155
I138
sS':)))'
p2156
I136
sS'exciting'
p2157
I132
sS'throw'
p2158
I137
sS'comparison'
p2159
I137
sS'independentluis'
p2160
I138
sS'gump'
p2161
I134
sS'wolf'
p2162
I124
sS'trailer'
p2163
I133
sS'supersonics'
p2164
I138
sS'heavy'
p2165
I138
sS'2nite'
p2166
I138
sS'snapchat'
p2167
I134
sS'skunks'
p2168
I138
sS'le\xc3\xb3n'
p2169
I138
sS'bedtime'
p2170
I138
sS'youu'
p2171
I138
sS'your'
p2172
I36
sS'\xe2\x98\x86\xe3\x80\x82\xe2\x98\x85\xe3\x80\x82\xe2\x98\x86\xe3\x80\x82\xe2\x98\x85'
p2173
I137
sS'lob'
p2174
I138
sS'area'
p2175
I137
sS'lol'
p2176
I18
sS'los'
p2177
I133
sS'cats'
p2178
I138
sS'low'
p2179
I126
sS'stars'
p2180
I131
sS'co-worker'
p2181
I138
sS'you"'
p2182
I137
sS'lol,91744\n477930751292227584,jeriahmatthew,2014-06-14'
p2183
I138
sS'trying'
p2184
I118
sS'copied'
p2185
I138
sS'.its'
p2186
I138
sS'19:13:38.0,34.0221412,-117.9128514,4081.38,i'
p2187
I138
sS'hire'
p2188
I135
sS'waste'
p2189
I138
sS'default'
p2190
I138
sS'bucket'
p2191
I132
sS'thicke'
p2192
I138
sS'moved'
p2193
I136
sS'germany-netherlands'
p2194
I138
sS'moves'
p2195
I137
sS'hospitals'
p2196
I138
sS'\xe2\x9c\x8f\xef\xb8\x8f'
p2197
I138
sS'cemented'
p2198
I138
sS'event'
p2199
I138
sS'valid'
p2200
I138
sS'you'
p2201
I7
sS'poor'
p2202
I138
sS'polar'
p2203
I138
sS'poop'
p2204
I137
sS'20:39:09.0,34.016122,-117.9205268,4081.38,good'
p2205
I138
sS'diaries'
p2206
I138
sS'drift'
p2207
I138
sS'upgo'
p2208
I138
sS'crazyyy'
p2209
I138
sS'pool'
p2210
I134
sS'building'
p2211
I138
sS'*friends'
p2212
I138
sS'3-0'
p2213
I138
sS'moonlight'
p2214
I138
sS'since'
p2215
I122
sS'messi'
p2216
I137
sS'af\xe2\x80\x9d'
p2217
I138
sS'month'
p2218
I131
sS'stop\xe2\x80\x9d'
p2219
I138
sS'pique'
p2220
I138
sS'01:19:12.0,34.0220039,-117.9129645,4081.38,johnny'
p2221
I138
sS'griffin'
p2222
I136
sS'everywhere'
p2223
I134
sS'spain'
p2224
I136
sS'safety'
p2225
I138
sS'very'
p2226
I130
sS'horror'
p2227
I133
sS'screwdriver'
p2228
I138
sS'mph'
p2229
I138
sS'hahahahahahaha'
p2230
I137
sS'selfies'
p2231
I136
sS'rogue'
p2232
I138
sS'minded'
p2233
I138
sS'decide'
p2234
I138
sS'jcpenny'
p2235
I138
sS'heaven'
p2236
I134
sS'louis'
p2237
I138
sS'mundial'
p2238
I138
sS'throbbing'
p2239
I138
sS'louie'
p2240
I138
sS"i'll"
p2241
I77
sS'ass'
p2242
I100
sS'cookies'
p2243
I137
sS'instagram'
p2244
I135
sS'streets'
p2245
I138
sS'casual'
p2246
I138
sS'darkness'
p2247
I138
sS'witnessed'
p2248
I138
sS'emotions'
p2249
I137
sS'unattached'
p2250
I138
sS'learned'
p2251
I137
sS'loose'
p2252
I136
sS'venice'
p2253
I138
sS'answers'
p2254
I138
sS'goliathand'
p2255
I138
sS'trunk'
p2256
I138
sS'marring'
p2257
I138
sS'strong'
p2258
I131
sS'ahead'
p2259
I135
sS'vegetarian'
p2260
I138
sS'creepy'
p2261
I136
sS'whiny'
p2262
I138
sS'amount'
p2263
I137
sS'arent'
p2264
I138
sS'musically'
p2265
I138
sS'heartbroken'
p2266
I136
sS'inspires'
p2267
I138
sS'iiiiimmm'
p2268
I138
sS'trainer'
p2269
I137
sS"'twas"
p2270
I138
sS'family'
p2271
I126
sS'put'
p2272
I123
sS'analyzing'
p2273
I138
sS'takes'
p2274
I132
sS'fffffaaaaaaaaalllll'
p2275
I138
sS'currently/right'
p2276
I138
sS'\xe2\x99\x8f\xef\xb8\x8f'
p2277
I138
sS'almost'
p2278
I130
sS'taken'
p2279
I137
sS'pixar'
p2280
I138
sS'ejected'
p2281
I137
sS'instrumental'
p2282
I138
sS'excuse'
p2283
I137
sS"y's"
p2284
I138
sS'broke'
p2285
I135
sS'7000'
p2286
I138
sS'hurry'
p2287
I137
sS'offended'
p2288
I138
sS'wassip'
p2289
I138
sS'...do'
p2290
I138
sS'terrible'
p2291
I138
sS'pushed'
p2292
I138
sS'stayed'
p2293
I137
sS"usc's"
p2294
I138
sS'fr'
p2295
I136
sS'sleeeeeeeeepppppp'
p2296
I138
sS'ft'
p2297
I138
sS'tried'
p2298
I126
sS'rude'
p2299
I138
sS'tattoo'
p2300
I137
sS'fb'
p2301
I138
sS'fe'
p2302
I138
sS'fi'
p2303
I138
sS'fo'
p2304
I138
sS'a'
p2305
I5
sS'lmao\xe2\x80\x9d\xe2\x9c\x82\xef\xb8\x8f'
p2306
I138
sS'anytime'
p2307
I138
sS'tigres'
p2308
I138
sS'hobbit'
p2309
I138
sS'21js'
p2310
I138
sS'egg'
p2311
I137
sS'crafty'
p2312
I138
sS'chicks'
p2313
I138
sS'help'
p2314
I124
sS'sp77'
p2315
I138
sS'sooo'
p2316
I135
sS'soon'
p2317
I127
sS'held'
p2318
I138
sS'fff'
p2319
I138
sS'mcdonalds'
p2320
I137
sS'exact'
p2321
I138
sS'actually'
p2322
I101
sS'brittney'
p2323
I138
sS'team'
p2324
I114
sS"haven't"
p2325
I119
sS'curtis'
p2326
I138
sS'yo'
p2327
I130
sS'yn'
p2328
I138
sS'food'
p2329
I125
sS'ahahhahhh'
p2330
I138
sS'hahahahahaha'
p2331
I138
sS'starbucks'
p2332
I137
sS'foot'
p2333
I136
sS'ys'
p2334
I138
sS'yr'
p2335
I138
sS'foos'
p2336
I138
sS'bryan'
p2337
I138
sS'fully'
p2338
I137
sS'bless'
p2339
I135
sS'stopped'
p2340
I137
sS'fairy'
p2341
I138
sS"isn't"
p2342
I118
sS'sketches'
p2343
I138
sS'neil'
p2344
I138
sS'effortless'
p2345
I138
sS'accidentally'
p2346
I136
sS'evens'
p2347
I138
sS'beyond'
p2348
I138
sS'anarchy'
p2349
I138
sS'visions'
p2350
I137
sS'surrounded'
p2351
I138
sS'ooblah'
p2352
I138
sS'dominated'
p2353
I138
sS'7'
p2354
I126
sS'ooblar'
p2355
I138
sS'issue'
p2356
I137
sS'dunk'
p2357
I137
sS'duo.,91744\n464573130242277378,jeriahmatthew,2014-05-09'
p2358
I138
sS'drink'
p2359
I134
sS'timeline'
p2360
I138
sS'pug'
p2361
I138
sS'asb'
p2362
I137
sS'reason'
p2363
I128
sS'dirk'
p2364
I138
sS'asi'
p2365
I137
sS'earliest'
p2366
I138
sS'*reduces'
p2367
I138
sS'launch'
p2368
I137
sS'44!"'
p2369
I138
sS'american'
p2370
I135
sS'griner'
p2371
I137
sS'daisy'
p2372
I133
sS"it'll"
p2373
I138
sS'superbowl'
p2374
I138
sS'fucked'
p2375
I132
sS'dominating'
p2376
I138
sS'seriouse'
p2377
I137
sS'miss'
p2378
I100
sS'horse'
p2379
I138
sS'pinned'
p2380
I138
sS'station'
p2381
I138
sS'banana'
p2382
I138
sS'selling'
p2383
I138
sS'jordan'
p2384
I132
sS'boredom'
p2385
I138
sS'raping'
p2386
I138
sS'grew'
p2387
I137
sS'grey'
p2388
I133
sS'toward'
p2389
I137
sS"'heaven"
p2390
I138
sS'texans'
p2391
I137
sS'wasnt'
p2392
I138
sS'juicy'
p2393
I138
sS'novak'
p2394
I138
sS'juice'
p2395
I137
sS"gov't"
p2396
I138
sS'karl'
p2397
I137
sS'lie'
p2398
I135
sS'u.s'
p2399
I138
sS'milner'
p2400
I138
sS'lil'
p2401
I136
sS'lin'
p2402
I137
sS'lit'
p2403
I137
sS'lip'
p2404
I138
sS'useless'
p2405
I138
sS'cavs'
p2406
I133
sS'towards'
p2407
I138
sS'quote'
p2408
I138
sS'hired'
p2409
I138
sS'experiences'
p2410
I138
sS'eaten'
p2411
I138
sS'position'
p2412
I138
sS'watt'
p2413
I138
sS'qbs'
p2414
I138
sS'clear'
p2415
I135
sS'welltime'
p2416
I138
sS'clean'
p2417
I138
sS'\xe2\x98\x80\xef\xb8\x8f'
p2418
I131
sS'shoutout'
p2419
I138
sS'hips'
p2420
I138
sS'humid'
p2421
I137
sS'celebrities'
p2422
I138
sS'workout"'
p2423
I138
sS'booze'
p2424
I138
sS'hyped'
p2425
I136
sS'stalker'
p2426
I137
sS'duncan'
p2427
I132
sS'justice'
p2428
I138
sS'less'
p2429
I131
sS'rudest'
p2430
I138
sS'randy'
p2431
I138
sS'pretty'
p2432
I103
sS'circle'
p2433
I137
sS'waterproof'
p2434
I138
sS'famous'
p2435
I138
sS'feels'
p2436
I131
sS'carded'
p2437
I138
sS'minutes...soon'
p2438
I138
sS'during'
p2439
I133
sS'feelz'
p2440
I137
sS'workouts'
p2441
I138
sS'recommendations'
p2442
I138
sS'x'
p2443
I136
sS'unpublished'
p2444
I138
sS'denayas'
p2445
I138
sS'culture'
p2446
I138
sS"'japanese"
p2447
I138
sS'close'
p2448
I123
sS'pictures'
p2449
I135
sS'wow'
p2450
I110
sS'dramatics'
p2451
I138
sS'watch.,91744\n477928059635367936,jeriahmatthew,2014-06-14'
p2452
I138
sS'won'
p2453
I130
sS'pist'
p2454
I138
sS'probably'
p2455
I114
sS'rlly'
p2456
I138
sS'piss'
p2457
I137
sS'burke3'
p2458
I138
sS'missing'
p2459
I132
sS'me..i'
p2460
I138
sS'both'
p2461
I124
sS'secrets'
p2462
I138
sS"wouldn't"
p2463
I129
sS'lol,91744\n499638173426008064,jeriahmatthew,2014-08-13'
p2464
I138
sS'forgotten'
p2465
I137
sS'jovetic'
p2466
I138
sS'liked'
p2467
I131
sS'headed'
p2468
I137
sS'battery'
p2469
I138
sS'whatever'
p2470
I131
sS'header'
p2471
I138
sS'likes'
p2472
I134
sS'car...go'
p2473
I138
sS'ferrero'
p2474
I138
sS'naps'
p2475
I135
sS'wrong.,91744\n477927781905342464,jeriahmatthew,2014-06-14'
p2476
I138
sS'cayate'
p2477
I138
sS'damm'
p2478
I138
sS'bawlers'
p2479
I138
sS'c/o'
p2480
I138
sS'dame'
p2481
I138
sS'lived'
p2482
I137
sS'entrenamiento'
p2483
I137
sS'packs'
p2484
I138
sS'lmaooooo'
p2485
I137
sS'anthony'
p2486
I137
sS'lives'
p2487
I137
sS'imax'
p2488
I138
sS'00:10:42.0,34.0221502,-117.9129957,4081.38,wiggins'
p2489
I138
sS'randomly'
p2490
I138
sS'look'
p2491
I96
sS'babe,91744\n501007507314470913,jeriahmatthew,2014-08-17'
p2492
I138
sS'smart'
p2493
I133
sS'mitchell'
p2494
I137
sS'spot.,91744\n464575277168087043,jeriahmatthew,2014-05-09'
p2495
I138
sS'06:17:01.0,34.0218691,-117.9128363,4081.38,half'
p2496
I138
sS'ready'
p2497
I116
sS'shaq'
p2498
I138
sS'anymore'
p2499
I117
sS'shad'
p2500
I138
sS'joystiqlimited'
p2501
I138
sS'conflict'
p2502
I138
sS'used'
p2503
I132
sS'temporary'
p2504
I136
sS'chalino'
p2505
I138
sS'pomegranate'
p2506
I138
sS'blair'
p2507
I138
sS'wilson'
p2508
I136
sS'user'
p2509
I138
sS'gsw'
p2510
I138
sS'older'
p2511
I133
sS'obviously'
p2512
I135
sS',91744\n480477141532807168,jeriahmatthew,2014-06-21'
p2513
I138
sS'weakest'
p2514
I138
sS'..i'
p2515
I137
sS'belgium'
p2516
I137
sS'cocky'
p2517
I138
sS'praying'
p2518
I138
sS'soooooo'
p2519
I137
sS'nothinggo'
p2520
I138
sS'showing'
p2521
I137
sS'game'
p2522
I89
sS'wiser'
p2523
I138
sS',91744\n463746570270150656,jeriahmatthew,2014-05-06'
p2524
I138
sS'eel'
p2525
I138
sS'06:19:18.0,34.0218691,-117.9128363,4081.38,some'
p2526
I138
sS'een'
p2527
I138
sS'pippen'
p2528
I135
sS'terminology'
p2529
I138
sS'fathers'
p2530
I138
sS'some'
p2531
I75
sS'pierre'
p2532
I138
sS'"friend'
p2533
I138
sS'trends'
p2534
I138
sS'lingers'
p2535
I138
sS'savage'
p2536
I138
sS'competitions'
p2537
I138
sS'applebees'
p2538
I138
sS'run'
p2539
I127
sS'laker'
p2540
I138
sS'jazzy'
p2541
I138
sS'step'
p2542
I136
sS'assists'
p2543
I138
sS'lasts'
p2544
I138
sS'become'
p2545
I132
sS'perf'
p2546
I137
sS'shine'
p2547
I133
sS'77%'
p2548
I138
sS'bennetlalkobe'
p2549
I138
sS'idr'
p2550
I138
sS'probaly'
p2551
I138
sS'idk'
p2552
I113
sS'idc'
p2553
I135
sS'block'
p2554
I137
sS'seeing'
p2555
I129
sS'real.,91744\n499621923845074944,jeriahmatthew,2014-08-13'
p2556
I138
sS'visit'
p2557
I137
sS'within'
p2558
I137
sS'nonsense'
p2559
I138
sS'kagura'
p2560
I138
sS'smells'
p2561
I137
sS'.-'
p2562
I138
sS'heritage'
p2563
I138
sS'himself'
p2564
I137
sS"uk's"
p2565
I138
sS'inept'
p2566
I138
sS'properly'
p2567
I137
sS'alive'
p2568
I135
sS'._'
p2569
I135
sS'info'
p2570
I138
sS'technobuffalolost'
p2571
I138
sS'chelsea'
p2572
I138
sS'cotton'
p2573
I136
sS'18:23:31.0,34.0220781,-117.9128556,4081.38,i'
p2574
I138
sS'nah'
p2575
I133
sS'nas'
p2576
I137
sS'nap'
p2577
I133
sS'naw'
p2578
I138
sS'charge.,91744\n499470112270065665,jeriahmatthew,2014-08-13'
p2579
I138
sS'grind'
p2580
I136
sS'smiles'
p2581
I138
sS'draw'
p2582
I138
sS'\xe2\x98\xba\xef\xb8\x8f\xe2\x98\xba\xef\xb8\x8f'
p2583
I137
sS'me..eww'
p2584
I138
sS'e'
p2585
I137
sS'me.,91744\n480362704624836608,jeriahmatthew,2014-06-21'
p2586
I138
sS'youtube'
p2587
I132
sS"she'd"
p2588
I138
sS'depth'
p2589
I138
sS'go....lol'
p2590
I138
sS"she's"
p2591
I120
sS'requires'
p2592
I138
sS'merced'
p2593
I138
sS'gf'
p2594
I138
sS'go'
p2595
I33
sS'gn'
p2596
I138
sS'gm'
p2597
I138
sS'tweeted'
p2598
I137
sS'wizard'
p2599
I138
sS'hhahahahahahahahag'
p2600
I138
sS'arrogance'
p2601
I138
sS'fleeance'
p2602
I138
sS'v-lines'
p2603
I138
sS'facebook'
p2604
I132
sS'80th'
p2605
I138
sS'syco'
p2606
I138
sS'gender'
p2607
I138
sS'michael'
p2608
I128
sS'ryan'
p2609
I135
sS'oopsy'
p2610
I138
sS'deleting'
p2611
I136
sS'picker'
p2612
I138
sS'booty'
p2613
I137
sS'carter'
p2614
I134
sS'bortles'
p2615
I137
sS'waking'
p2616
I133
sS'jump'
p2617
I130
sS'picked'
p2618
I133
sS'download'
p2619
I138
sS'elysium'
p2620
I137
sS'twitters'
p2621
I138
sS'honors'
p2622
I138
sS'poke'
p2623
I138
sS'plays'
p2624
I136
sS'wallet'
p2625
I138
sS'vampire'
p2626
I137
sS'nicholas'
p2627
I138
sS'khleo'
p2628
I138
sS'commercial'
p2629
I135
sS'following'
p2630
I136
sS'conceited'
p2631
I138
sS'bff'
p2632
I138
sS'nonpixar'
p2633
I138
sS"weren't"
p2634
I138
sS'nnooooo!-'
p2635
I138
sS'happy.,91744\n499475106759188480,jeriahmatthew,2014-08-13'
p2636
I138
sS'clark'
p2637
I138
sS'cardflagrant'
p2638
I138
sS'tennant'
p2639
I138
sS'singing'
p2640
I138
sS'cloud'
p2641
I138
sS'announced'
p2642
I135
sS'penalty'
p2643
I138
sS'crap'
p2644
I136
sS'cheeky'
p2645
I138
sS'crab'
p2646
I138
sS'vehicle'
p2647
I138
sS'jonathan'
p2648
I138
sS'historically'
p2649
I138
sS'popped'
p2650
I137
sS'1/2'
p2651
I136
sS'started'
p2652
I132
sS',91744\n479161717037858816,jeriahmatthew,2014-06-18'
p2653
I138
sS'econ'
p2654
I137
sS'benchmark'
p2655
I138
sS'about'
p2656
I50
sS'confused'
p2657
I136
sS'lifestyle'
p2658
I138
sS'pocahontas'
p2659
I138
sS'justin'
p2660
I137
sS'wearin'
p2661
I138
sS'ride'
p2662
I138
sS'donut'
p2663
I138
sS'meet'
p2664
I131
sS'drops'
p2665
I138
sS'control'
p2666
I135
sS'waaaay'
p2667
I137
sS'halloween'
p2668
I133
sS'pulling'
p2669
I137
sS'blaine'
p2670
I138
sS'wonderful'
p2671
I137
sS'bowl'
p2672
I138
sS'embodiment'
p2673
I138
sS'vibe'
p2674
I137
sS'located'
p2675
I138
sS'good...dexter'
p2676
I138
sS'$$$$$$'
p2677
I138
sS'corral'
p2678
I138
sS"won't"
p2679
I121
sS'costume'
p2680
I138
sS'mentioned'
p2681
I137
sS'blake'
p2682
I133
sS'pleasure.\xe2\x80\x9d'
p2683
I138
sS'master-'
p2684
I138
sS'sword'
p2685
I138
sS'auto'
p2686
I137
sS'(versace'
p2687
I138
sS'hands'
p2688
I138
sS'front'
p2689
I137
sS'like"hey'
p2690
I138
sS'masters'
p2691
I137
sS'university'
p2692
I138
sS'guard'
p2693
I137
sS'slide'
p2694
I137
sS'advisory'
p2695
I138
sS'duvalin'
p2696
I138
sS'drizzy'
p2697
I138
sS'700'
p2698
I138
sS'70+'
p2699
I138
sS'70%'
p2700
I138
sS'flys'
p2701
I138
sS'cause'
p2702
I116
sS"one's"
p2703
I138
sS'galaxies'
p2704
I138
sS'senior"'
p2705
I138
sS'completely'
p2706
I137
sS'princess'
p2707
I138
sS'ask'
p2708
I125
sS'keep'
p2709
I119
sS'saanngggggg'
p2710
I138
sS'austin'
p2711
I137
sS'guyz'
p2712
I136
sS':((((('
p2713
I137
sS'evans'
p2714
I138
sS'powerful'
p2715
I138
sS'(read'
p2716
I138
sS'bitch'
p2717
I82
sS'quality'
p2718
I137
sS"you're"
p2719
I85
sS'playlist'
p2720
I138
sS'squinting'
p2721
I138
sS'relations'
p2722
I138
sS'noooooo'
p2723
I137
sS'wrapped'
p2724
I138
sS'jellyfish'
p2725
I138
sS'final'
p2726
I136
sS'beard'
p2727
I137
sS'antique-collecting'
p2728
I138
sS'2-1'
p2729
I138
sS'craziest'
p2730
I138
sS'2-5'
p2731
I138
sS'lighters'
p2732
I138
sS'rowlands'
p2733
I138
sS'exactly'
p2734
I132
sS'lists'
p2735
I138
sS'bieber'
p2736
I137
sS'fuzzy'
p2737
I138
sS'herself'
p2738
I138
sS'*has'
p2739
I138
sS'sense\xe2\x80\x9d'
p2740
I138
sS'photograph'
p2741
I138
sS'ben'
p2742
I137
sS'manning'
p2743
I138
sS'bed'
p2744
I126
sS'bee'
p2745
I137
sS'cravings'
p2746
I138
sS'6th'
p2747
I138
sS'providing'
p2748
I138
sS'bet'
p2749
I132
sS'enforced'
p2750
I138
sS'p.s'
p2751
I138
sS'need'
p2752
I62
sS'p.e'
p2753
I137
sS'tale'
p2754
I138
sS'bastard'
p2755
I138
sS'able'
p2756
I131
sS'tinashe'
p2757
I138
sS'truck'
p2758
I134
sS'aww'
p2759
I131
sS'ignbayonetta'
p2760
I138
sS'jorge'
p2761
I138
sS'montana'
p2762
I138
sS'dubi'
p2763
I138
sS'awe'
p2764
I137
sS'grossss'
p2765
I138
sS'upset'
p2766
I136
sS'undeniably'
p2767
I138
sS'impression'
p2768
I138
sS'\xe2\x98\x85\xe3\x80\x82\xef\xbc\x8f\xef\xbd\x9c\xef\xbc\xbc\xe3\x80\x82\xe2\x98\x85'
p2769
I137
sS'parker'
p2770
I132
sS'anyway'
p2771
I136
sS'despasito'
p2772
I138
sS'unfinished'
p2773
I138
sS'('
p2774
I138
sS'creamer'
p2775
I138
sS'achieve'
p2776
I138
sS'overall'
p2777
I132
sS'tbh'
p2778
I120
sS"bob's"
p2779
I138
sS'legitimate'
p2780
I138
sS'sassy'
p2781
I138
sS'runner"'
p2782
I138
sS'twins?"'
p2783
I138
sS'course'
p2784
I133
sS'shy'
p2785
I138
sS'tuned'
p2786
I138
sS'felipe'
p2787
I138
sS'finals"'
p2788
I138
sS'she'
p2789
I92
sS'dangerous'
p2790
I138
sS'glendale'
p2791
I138
sS'steelers'
p2792
I137
sS'strip.(-'
p2793
I138
sS'prayers'
p2794
I138
sS'niners'
p2795
I138
sS'powder'
p2796
I138
sS'stats'
p2797
I137
sS'luv'
p2798
I134
sS'genius'
p2799
I138
sS'nightmare'
p2800
I138
sS'tend'
p2801
I138
sS'written'
p2802
I137
sS'supernatural'
p2803
I138
sS'lue'
p2804
I135
sS'horrible'
p2805
I132
sS'neither'
p2806
I137
sS'lul'
p2807
I138
sS'outsiders'
p2808
I138
sS'ken'
p2809
I138
sS'shittiest'
p2810
I138
sS'key'
p2811
I132
sS'kev'
p2812
I137
sS'friendsssss'
p2813
I138
sS'problem'
p2814
I132
sS'cuute'
p2815
I135
sS'potter.,91744\n501159099615440896,jeriahmatthew,2014-08-18'
p2816
I138
sS'career'
p2817
I137
sS'antisocial'
p2818
I138
sS'minds'
p2819
I136
sS'hustlers'
p2820
I138
sS'admit'
p2821
I134
sS'thang'
p2822
I138
sS'jersey'
p2823
I133
sS'tuesday'
p2824
I138
sS'graduatehave'
p2825
I138
sS'kings'
p2826
I135
sS'robin.,91744\n499621466066124800,jeriahmatthew,2014-08-13'
p2827
I138
sS'willy'
p2828
I136
sS'quit'
p2829
I137
sS'yay'
p2830
I130
sS'yas'
p2831
I138
sS'yah'
p2832
I138
sS'poet'
p2833
I138
sS'hernandez'
p2834
I136
sS'pic'
p2835
I132
sS'league'
p2836
I138
sS'5%'
p2837
I138
sS'-.-'
p2838
I137
sS'kicks'
p2839
I136
sS'novel'
p2840
I138
sS'harder'
p2841
I137
sS'hopsin'
p2842
I138
sS'harden'
p2843
I137
sS'gucci'
p2844
I137
sS'me.""'
p2845
I138
sS'bucks'
p2846
I137
sS'views'
p2847
I137
sS'parts'
p2848
I138
sS'party'
p2849
I126
sS'walters'
p2850
I138
sS'1-0'
p2851
I138
sS'1-3'
p2852
I138
sS'canadians'
p2853
I138
sS'effect'
p2854
I138
sS'yhatever'
p2855
I138
sS'fierce'
p2856
I138
sS'feelin'
p2857
I138
sS'pull'
p2858
I137
sS'//'
p2859
I123
sS'part"'
p2860
I138
sS'ashley'
p2861
I138
sS'i'
p2862
I2
sS'49'
p2863
I138
sS'well'
p2864
I93
sS'welp'
p2865
I138
sS'thabeet'
p2866
I138
sS':))))'
p2867
I138
sS"bug's"
p2868
I138
sS'taller'
p2869
I134
sS'naidely'
p2870
I132
sS'underdog'
p2871
I138
sS'42'
p2872
I135
sS'sihsjsjsb'
p2873
I138
sS'mistakes'
p2874
I136
sS'soulja'
p2875
I137
sS'twilight'
p2876
I138
sS'jeff'
p2877
I137
sS'riverside'
p2878
I138
sS'kick'
p2879
I132
sS'cheecks'
p2880
I138
sS'sonic'
p2881
I138
sS'livin'
p2882
I138
sS'pero'
p2883
I137
sS'utah'
p2884
I138
sS'immediately'
p2885
I137
sS'muscle'
p2886
I137
sS'lost'
p2887
I132
sS'"he\'s'
p2888
I138
sS'ring'
p2889
I137
sS'candy'
p2890
I136
sS'stuff/always'
p2891
I138
sS'fianc\xc3\xa9'
p2892
I138
sS'lose'
p2893
I132
sS'fuckkk'
p2894
I138
sS'twitter'
p2895
I116
sS'homo'
p2896
I138
sS'cleveland'
p2897
I138
sS'home'
p2898
I115
sS'liking'
p2899
I132
sS'monday'
p2900
I137
sS'danccceee'
p2901
I138
sS'(main'
p2902
I138
sS'"14"'
p2903
I138
sS'fanny'
p2904
I138
sS'qb.fav'
p2905
I138
sS'dui'
p2906
I137
sS'chokes'
p2907
I138
sS'puede'
p2908
I137
sS'uuuuuuuh'
p2909
I138
sS'there*'
p2910
I138
sS'staked'
p2911
I138
sS'it!\xe2\x80\x9dme'
p2912
I138
sS'cleans'
p2913
I138
sS'puppies'
p2914
I138
sS'pastries'
p2915
I137
sS'backfires*'
p2916
I138
sS'dumest'
p2917
I138
sS'artists'
p2918
I138
sS'pointless'
p2919
I138
sS'lagged'
p2920
I138
sS'inner'
p2921
I138
sS'damn'
p2922
I129
sS'ghost'
p2923
I137
sS'cricket'
p2924
I138
sS'netherland'
p2925
I138
sS'norte'
p2926
I138
sS'hw'
p2927
I125
sS'blaming'
p2928
I138
sS'hi'
p2929
I138
sS'gain'
p2930
I137
sS'hm'
p2931
I138
sS'technician'
p2932
I138
sS'ha'
p2933
I134
sS'eat'
p2934
I128
sS'hd'
p2935
I136
sS'he'
p2936
I53
sS'sttffuuuuuuuuu'
p2937
I138
sS'signed'
p2938
I138
sS'chandler'
p2939
I138
sS'cruel'
p2940
I138
sS'stories'
p2941
I133
sS'empty'
p2942
I136
sS'\xc2\xa380m'
p2943
I138
sS'piece'
p2944
I137
sS'eyes*'
p2945
I138
sS'b?,91744\n477931302432174081,jeriahmatthew,2014-06-14'
p2946
I138
sS'universal'
p2947
I137
sS'kisses'
p2948
I138
sS'twist'
p2949
I135
sS'beats'
p2950
I136
sS'education'
p2951
I138
sS'unsocial'
p2952
I138
sS'eric'
p2953
I135
sS'diego'
p2954
I138
sS'functions'
p2955
I138
sS'rumors'
p2956
I137
sS'"sophomore"'
p2957
I138
sS'talkin'
p2958
I137
sS'star'
p2959
I132
sS'stay'
p2960
I119
sS'backstage'
p2961
I138
sS'nintendo'
p2962
I136
sS'else'
p2963
I131
sS'friends'
p2964
I94
sS"'doctor"
p2965
I138
sS'atheist'
p2966
I138
sS'extras'
p2967
I138
sS'sir.,91744\n499619772561371136,jeriahmatthew,2014-08-13'
p2968
I138
sS'uneducated'
p2969
I138
sS'"the'
p2970
I137
sS'liver'
p2971
I138
sS'andre'
p2972
I138
sS'protest'
p2973
I138
sS'asian'
p2974
I123
sS'6pm'
p2975
I138
sS'captain'
p2976
I138
sS'whose'
p2977
I137
sS'buddy'
p2978
I137
sS'aug'
p2979
I138
sS'swat'
p2980
I138
sS'sorry'
p2981
I122
sS'denanal'
p2982
I138
sS'rescue'
p2983
I136
sS'traumatized'
p2984
I138
sS'smack'
p2985
I137
sS"jason's"
p2986
I138
sS'cnet'
p2987
I138
sS'post-season'
p2988
I138
sS'baking'
p2989
I138
sS'heading'
p2990
I138
sS'clothes'
p2991
I135
sS'babygirl'
p2992
I138
sS'vladimir'
p2993
I138
sS'me"'
p2994
I138
sS'japanese'
p2995
I138
sS'across'
p2996
I137
sS'likely'
p2997
I135
sS'cesar'
p2998
I138
sS'yaco'
p2999
I138
sS'even'
p3000
I77
sS"tonight's"
p3001
I138
sS'panama'
p3002
I138
sS'while'
p3003
I122
sS'lights'
p3004
I138
sS'new'
p3005
I98
sS'ever'
p3006
I105
sS'smallz'
p3007
I138
sS'screams'
p3008
I137
sS'pancakes'
p3009
I138
sS'never'
p3010
I69
sS'met'
p3011
I129
sS'100'
p3012
I136
sS"aren't"
p3013
I125
sS'anniebearlove'
p3014
I138
sS'piercing'
p3015
I138
sS'adopting'
p3016
I138
sS"someone's"
p3017
I138
sS'dre'
p3018
I138
sS'eyebrows'
p3019
I137
sS'fantastic'
p3020
I138
sS'x2and'
p3021
I138
sS'grandma'
p3022
I138
sS'county'
p3023
I136
sS'busses'
p3024
I138
sS'counts'
p3025
I137
sS'huuuuge'
p3026
I138
sS'army'
p3027
I137
sS'arms'
p3028
I133
sS'call'
p3029
I114
sS'calm'
p3030
I137
sS'type'
p3031
I133
sS'tell'
p3032
I119
sS'sookie'
p3033
I138
sS'posting'
p3034
I137
sS'fockers'
p3035
I138
sS'warn'
p3036
I138
sS'warm'
p3037
I137
sS'thabo'
p3038
I138
sS"5'1"
p3039
I138
sS"5'0"
p3040
I138
sS"5'6"
p3041
I138
sS'room'
p3042
I133
sS'rights'
p3043
I138
sS'dexter\xe2\x80\x9d'
p3044
I138
sS'movies'
p3045
I130
sS'westbrook'
p3046
I133
sS'root'
p3047
I137
sS'defer'
p3048
I138
sS'barbers'
p3049
I138
sS'give'
p3050
I115
sS'stressing'
p3051
I138
sS'honey'
p3052
I136
sS'homie'
p3053
I136
sS'point'
p3054
I121
sS'maleficent'
p3055
I138
sS'wilbon'
p3056
I138
sS'amazing'
p3057
I129
sS'answer'
p3058
I135
sS"vma's"
p3059
I138
sS'untill'
p3060
I138
sS'shroom'
p3061
I138
sS'loyalty'
p3062
I138
sS'thankyou'
p3063
I136
sS'lesbian'
p3064
I135
sS'purchase'
p3065
I137
sS'third'
p3066
I138
sS'maintain'
p3067
I137
sS'goodbye'
p3068
I137
sS'athletes'
p3069
I138
sS'fifa'
p3070
I136
sS'wut'
p3071
I133
sS'keyboard'
p3072
I138
sS'kong'
p3073
I138
sS'before'
p3074
I115
sS'chihuahua'
p3075
I138
sS'personal'
p3076
I135
sS'crew'
p3077
I137
sS'better'
p3078
I98
sS'differently'
p3079
I137
sS'weeks'
p3080
I137
sS'schmidt'
p3081
I138
sS'aston'
p3082
I138
sS'madly'
p3083
I138
sS'combination'
p3084
I138
sS'weakness'
p3085
I137
sS'workout'
p3086
I135
sS'\xe2\x98\xba\xef\xb8\x8f'
p3087
I88
sS'grammar'
p3088
I137
sS'meat'
p3089
I135
sS'brians'
p3090
I138
sS'sleepless'
p3091
I137
sS'\xe2\x98\x85\xe3\x80\x82\xef\xbc\xbc\xef\xbd\x9c\xef\xbc\x8f\xe3\x80\x82\xe2\x98\x85'
p3092
I137
sS'went'
p3093
I122
sS'side'
p3094
I129
sS'bone'
p3095
I137
sS'mean'
p3096
I109
sS'gunna'
p3097
I137
sS'skins'
p3098
I138
sS'taught'
p3099
I138
sS'forgot'
p3100
I134
sS'dawn'
p3101
I137
sS'sluts'
p3102
I138
sS'restricted'
p3103
I138
sS'debit'
p3104
I138
sS'surprise'
p3105
I138
sS'venezuela'
p3106
I138
sS'hermosa'
p3107
I138
sS'foto'
p3108
I138
sS'grease'
p3109
I137
sS'turning'
p3110
I136
sS'cutest'
p3111
I136
sS'fave'
p3112
I134
sS'revenge'
p3113
I135
sS'24+'
p3114
I138
sS'struggle'
p3115
I137
sS'hoodie'
p3116
I138
sS'greasy'
p3117
I137
sS'columbians'
p3118
I137
sS'starts'
p3119
I137
sS'messages'
p3120
I138
sS',91744\n497782453676019712,thehomieirving_,2014-08-08'
p3121
I138
sS'moving'
p3122
I136
sS'loud'
p3123
I137
sS'fuckin'
p3124
I134
sS'stewart'
p3125
I136
sS'guezz'
p3126
I138
sS'features'
p3127
I138
sS'lifeee'
p3128
I138
sS'unfollowed'
p3129
I138
sS'grade'
p3130
I138
sS'hoop'
p3131
I138
sS'illogical.,91744\n501156363587031041,jeriahmatthew,2014-08-17'
p3132
I138
sS'stick'
p3133
I136
sS"macdonald's"
p3134
I138
sS'hood'
p3135
I136
sS'girly'
p3136
I138
sS'hawks'
p3137
I137
sS'girls'
p3138
I114
sS'fuhhh'
p3139
I138
sS'dwell'
p3140
I138
sS'hollywood'
p3141
I131
sS'makeout'
p3142
I138
sS'gym'
p3143
I113
sS'teenwolf'
p3144
I138
sS'digs'
p3145
I138
sS'somewhat'
p3146
I138
sS'somone'
p3147
I138
sS'begins'
p3148
I138
sS'distance'
p3149
I137
sS'exorcist'
p3150
I138
sS'bitterness'
p3151
I138
sS'matter'
p3152
I132
sS'street'
p3153
I126
sS'mooooom'
p3154
I138
sS'sees'
p3155
I138
sS'mind'
p3156
I121
sS'mine'
p3157
I131
sS'ginger'
p3158
I138
sS'rigorous'
p3159
I138
sS'seed'
p3160
I138
sS'tellz'
p3161
I138
sS'seen'
p3162
I120
sS'seem'
p3163
I134
sS'mins'
p3164
I137
sS'tells'
p3165
I137
sS'closeted'
p3166
I137
sS',91744\n497432776233455616,thehomieirving_,2014-08-07'
p3167
I138
sS'chest'
p3168
I137
sS'niece'
p3169
I137
sS'panties'
p3170
I138
sS'quarterback'
p3171
I138
sS'-(bae=crap)'
p3172
I138
sS'rappers'
p3173
I135
sS'mcadams'
p3174
I138
sS'mario'
p3175
I135
sS'regular'
p3176
I138
sS'boba'
p3177
I137
sS'*bww'
p3178
I138
sS'don'
p3179
I137
sS'doc'
p3180
I137
sS'm'
p3181
I134
sS'dog'
p3182
I131
sS'definitely'
p3183
I134
sS'dos'
p3184
I138
sS'shittythank'
p3185
I138
sS'annoyed'
p3186
I138
sS'lyrics'
p3187
I138
sS'offense:rt'
p3188
I138
sS'ending'
p3189
I137
sS'sneaking'
p3190
I138
sS'explain'
p3191
I136
sS'sugar'
p3192
I135
sS',91744\n497238937552056320,thehomieirving_,2014-08-07'
p3193
I138
sS'hwgr8'
p3194
I138
sS'wearing'
p3195
I136
sS'monica'
p3196
I135
sS'stop'
p3197
I95
sS'coast'
p3198
I135
sS'12'
p3199
I135
sS'watermelon'
p3200
I138
sS'carmichael'
p3201
I138
sS'earl'
p3202
I138
sS'bat'
p3203
I138
sS'bar'
p3204
I137
sS'bag'
p3205
I135
sS'bad'
p3206
I100
sS'bae'
p3207
I112
sS'ears'
p3208
I136
sS'playstation'
p3209
I137
sS'shuted'
p3210
I138
sS'imitate'
p3211
I138
sS'decided'
p3212
I138
sS'brazil'
p3213
I135
sS'said'
p3214
I106
sS'duff'
p3215
I138
sS'inappropriate'
p3216
I138
sS'sorta'
p3217
I138
sS'romeo&juliet'
p3218
I138
sS'orgasmic'
p3219
I138
sS"there's"
p3220
I114
sS'warrior'
p3221
I138
sS'lazy'
p3222
I127
sS'omg'
p3223
I91
sS'wears'
p3224
I138
sS'dumber'
p3225
I138
sS'ignorance'
p3226
I138
sS'duckie'
p3227
I138
sS'cousin'
p3228
I138
sS'picking'
p3229
I137
sS'compton'
p3230
I137
sS'against'
p3231
I134
sS'yaay'
p3232
I138
sS'gwen'
p3233
I138
sS'yaas'
p3234
I138
sS'puts'
p3235
I137
sS'three'
p3236
I134
sS'oooooo'
p3237
I137
sS'detrimental'
p3238
I138
sS'basic'
p3239
I136
sS'popusas'
p3240
I138
sS'threw'
p3241
I135
sS'snappers'
p3242
I138
sS'mcm'
p3243
I137
sS'deeper'
p3244
I138
sS'mce'
p3245
I138
sS'sunshine'
p3246
I137
sS'sooooo'
p3247
I136
sS'personally'
p3248
I135
sS'mcw'
p3249
I138
sS'lionel'
p3250
I138
sS'tank'
p3251
I136
sS'tang'
p3252
I138
sS'relationships.\xe2\x80\x9d'
p3253
I138
sS'ugly'
p3254
I125
sS'near'
p3255
I137
sS'suppose'
p3256
I134
sS'but..."'
p3257
I138
sS'seven'
p3258
I136
sS'mexico'
p3259
I115
sS'iq'
p3260
I137
sS'potential-'
p3261
I138
sS'is'
p3262
I8
sS'sushi'
p3263
I134
sS'it'
p3264
I16
sS'defeated'
p3265
I138
sS'shame'
p3266
I137
sS'ik'
p3267
I137
sS'im'
p3268
I121
sS'in'
p3269
I10
sS'faked'
p3270
I138
sS'seattle'
p3271
I137
sS'id'
p3272
I137
sS'disappear'
p3273
I138
sS'if'
p3274
I38
sS'grown'
p3275
I136
sS'bottles'
p3276
I138
sS'make'
p3277
I73
sS"everybody's"
p3278
I138
sS'waterworks'
p3279
I138
sS'hahah'
p3280
I137
sS'unfortunate'
p3281
I138
sS"wifiyou're"
p3282
I138
sS'galatians'
p3283
I138
sS'kik'
p3284
I136
sS'renaissance'
p3285
I138
sS'i-'
p3286
I138
sS'kim'
p3287
I137
sS'opportunity'
p3288
I138
sS"he'll"
p3289
I137
sS'thoughts'
p3290
I137
sS'kid'
p3291
I132
sS'cool"'
p3292
I138
sS'romo'
p3293
I138
sS'buuuuuut'
p3294
I137
sS'yours'
p3295
I135
sS'left'
p3296
I129
sS'm.a.d'
p3297
I138
sS'consciousness'
p3298
I137
sS'sentence'
p3299
I138
sS'yea'
p3300
I124
sS'unfollow'
p3301
I137
sS'verses'
p3302
I138
sS'human'
p3303
I135
sS'ciara'
p3304
I138
sS'facts'
p3305
I137
sS'yes'
p3306
I91
sS'yet'
p3307
I131
sS'stray'
p3308
I138
sS'facebut'
p3309
I138
sS'heart.,91744\n501160205112324096,jeriahmatthew,2014-08-18'
p3310
I138
sS'tbh\xe2\x80\x9d'
p3311
I138
sS'save'
p3312
I134
sS'bad"'
p3313
I138
sS'opt'
p3314
I138
sS'vanessa'
p3315
I138
sS'ducts'
p3316
I138
sS'bruuuh'
p3317
I138
sS'snickerdoodle'
p3318
I138
sS'polygonsnes'
p3319
I138
sS'dreams'
p3320
I136
sS'shoulder'
p3321
I138
sS'-_-'
p3322
I138
sS'bitchhh'
p3323
I138
sS'unnecessary'
p3324
I138
sS'"bae"'
p3325
I138
sS'deal'
p3326
I136
sS'somehow'
p3327
I138
sS'dead'
p3328
I129
sS'manziel'
p3329
I136
sS'dear'
p3330
I135
sS'track'
p3331
I137
sS'aaaaah'
p3332
I138
sS'doing...so'
p3333
I138
sS'burn'
p3334
I137
sS'super'
p3335
I134
sS'ribs'
p3336
I138
sS'valentines'
p3337
I138
sS'afternoon'
p3338
I137
sS"'in"
p3339
I138
sS'automatically'
p3340
I137
sS'whats'
p3341
I136
sS'selfie'
p3342
I137
sS'sergio'
p3343
I138
sS'down'
p3344
I116
sS'hero.,91744\n499624120406249473,jeriahmatthew,2014-08-13'
p3345
I138
sS'amazingly'
p3346
I138
sS'flying'
p3347
I138
sS'jealousy'
p3348
I137
sS'form'
p3349
I138
sS'naidelymelany'
p3350
I138
sS'fireworks'
p3351
I137
sS'bengals'
p3352
I138
sS'failure'
p3353
I138
sS'$1000000000.watch'
p3354
I138
sS'229'
p3355
I138
sS'granger'
p3356
I137
sS'traits'
p3357
I138
sS'lips'
p3358
I134
sS'daddy'
p3359
I137
sS'delete'
p3360
I135
sS'sticks'
p3361
I138
sS'sticky'
p3362
I138
sS'fashioned'
p3363
I138
sS'awhile'
p3364
I136
sS'shit'
p3365
I85
sS'holla'
p3366
I137
sS'agreeing'
p3367
I138
sS'handed'
p3368
I138
sS'hangin'
p3369
I138
sS'2500'
p3370
I138
sS'felt'
p3371
I134
sS'diet'
p3372
I138
sS'fell'
p3373
I137
sS'hahahahahah'
p3374
I138
sS'weekend'
p3375
I125
sS'died'
p3376
I135
sS'billion'
p3377
I137
sS'happening'
p3378
I138
sS'potato'
p3379
I138
sS'assume'
p3380
I137
sS'daily'
p3381
I135
sS'elbows'
p3382
I138
sS'ahahahahah'
p3383
I138
sS'alert*'
p3384
I138
sS'topanga'
p3385
I138
sS'fsu'
p3386
I138
sS'teeth'
p3387
I135
sS'18yo'
p3388
I138
sS'themed'
p3389
I138
sS'skip'
p3390
I137
sS'manager'
p3391
I138
sS'mile'
p3392
I135
sS'skin'
p3393
I134
sS'playoffs'
p3394
I134
sS'milk'
p3395
I137
sS'21st'
p3396
I138
sS'suicide'
p3397
I137
sS'father'
p3398
I137
sS'disgusting'
p3399
I136
sS'0'
p3400
I138
sS'finally'
p3401
I114
sS'good.,91744\n500009582047944704,jeriahmatthew,2014-08-14'
p3402
I138
sS'me'
p3403
I12
sS'cold-_-'
p3404
I138
sS'sci-fi'
p3405
I138
sS'theme)'
p3406
I138
sS'10ths'
p3407
I138
sS'tacos'
p3408
I137
sS'ma'
p3409
I138
sS'staples'
p3410
I137
sS'did'
p3411
I85
sS'die'
p3412
I125
sS'dig'
p3413
I138
sS'dia'
p3414
I137
sS'allowed.\xe2\x80\x9d'
p3415
I138
sS't_t'
p3416
I137
sS'section'
p3417
I138
sS'round'
p3418
I134
sS'dis'
p3419
I137
sS'shave'
p3420
I138
sS'talked'
p3421
I136
sS'eating'
p3422
I132
sS'norris'
p3423
I137
sS'filler'
p3424
I138
sS'fuuuuuuuck'
p3425
I138
sS'*mom'
p3426
I138
sS'international'
p3427
I137
sS'sweaters'
p3428
I138
sS'filled'
p3429
I138
sS'bandwagon'
p3430
I134
sS'makeup'
p3431
I135
sS'french'
p3432
I138
sS'elbow'
p3433
I138
sS'prentiss'
p3434
I138
sS'wait'
p3435
I92
sS'box'
p3436
I137
sS'boy'
p3437
I124
sS'hbo'
p3438
I138
sS'yessss'
p3439
I138
sS'canadian'
p3440
I137
sS'bop'
p3441
I138
sS'shift'
p3442
I137
sS'bruises'
p3443
I137
sS'here)'
p3444
I138
sS'boo'
p3445
I138
sS'massage'
p3446
I138
sS"vp's"
p3447
I138
sS'tommow'
p3448
I138
sS'verge'
p3449
I138
sS'everybody'
p3450
I131
sS'63rd'
p3451
I138
sS'franco'
p3452
I137
sS'baes'
p3453
I138
sS'ariel'
p3454
I138
sS'dude'
p3455
I109
sS'ayy'
p3456
I134
sS'gamestop'
p3457
I138
sS'thru'
p3458
I136
sS'sharing'
p3459
I137
sS'ooo'
p3460
I138
sS'downtown'
p3461
I138
sS'olive'
p3462
I138
sS'effort'
p3463
I137
sS'fly'
p3464
I138
sS'soul'
p3465
I132
sS'soup'
p3466
I138
sS'romanticized'
p3467
I138
sS'makinf'
p3468
I138
sS'making'
p3469
I127
sS'bites'
p3470
I138
sS'claim'
p3471
I137
sS'crazy'
p3472
I110
sS'uruguay'
p3473
I137
sS'predict'
p3474
I138
sS'winston'
p3475
I138
sS'fuck'
p3476
I59
sS'biiiisschh'
p3477
I138
sS'pink'
p3478
I134
sS'slyke'
p3479
I137
sS'chemical'
p3480
I138
sS'till'
p3481
I130
sS'sunday'
p3482
I132
sS'emotionless'
p3483
I138
sS'lol,91744\n499625235571027968,jeriahmatthew,2014-08-13'
p3484
I138
sS'pure'
p3485
I138
sS"from'em"
p3486
I138
sS'persuasion'
p3487
I138
sS'staying'
p3488
I138
sS'may'
p3489
I137
sS'max'
p3490
I138
sS'mac'
p3491
I138
sS'mad'
p3492
I122
sS'"wack"'
p3493
I138
sS'iggy'
p3494
I137
sS'guys'
p3495
I82
sS'grow'
p3496
I135
sS'pressuring'
p3497
I138
sS'man'
p3498
I99
sS'neck'
p3499
I138
sS'johnson'
p3500
I137
sS'maybe'
p3501
I123
sS'q'
p3502
I138
sS'switch'
p3503
I137
sS'frontin'
p3504
I138
sS'jail'
p3505
I138
sS'african'
p3506
I137
sS'tall'
p3507
I136
sS'talk'
p3508
I112
sS'cute'
p3509
I118
sS'shoes'
p3510
I134
sS'wishing'
p3511
I137
sS'group'
p3512
I137
sS'thank'
p3513
I128
sS'interesting'
p3514
I137
sS'coaching'
p3515
I134
sS'thanx'
p3516
I135
sS'tweets'
p3517
I131
sS'mail'
p3518
I138
sS'main'
p3519
I137
sS'texas'
p3520
I137
sS'21:57:53.0,34.022095,-117.9133078,4081.38,diddy'
p3521
I138
sS'captivated'
p3522
I138
sS'bein'
p3523
I138
sS'killer'
p3524
I137
sS'sooner'
p3525
I138
sS'ls)'
p3526
I138
sS'lunch'
p3527
I137
sS'touching'
p3528
I138
sS'killed'
p3529
I132
sS'guadalajaramex'
p3530
I138
sS'tweet)'
p3531
I138
sS'pimp'
p3532
I138
sS'careless'
p3533
I137
sS'rock'
p3534
I136
sS'deandre'
p3535
I137
sS"23:59:22.0,34.0220429,-117.9128042,4081.38,it's"
p3536
I138
sS'agin'
p3537
I138
sS'latin'
p3538
I138
sS'abnormal'
p3539
I138
sS'unlock'
p3540
I138
sS'fingertips'
p3541
I138
sS'girl'
p3542
I101
sS'morning'
p3543
I116
sS'living'
p3544
I137
sS'and\xe2\x80\xa6'
p3545
I138
sS'jackson'
p3546
I130
sS'stitch'
p3547
I138
sS'3rd'
p3548
I134
sS'world?,91744\n499711273983279105,jeriahmatthew,2014-08-14'
p3549
I138
sS'miles'
p3550
I131
sS'correct'
p3551
I138
sS'earlier'
p3552
I138
sS'tonight...7:30'
p3553
I138
sS'romans'
p3554
I138
sS'california'
p3555
I133
sS'gots'
p3556
I138
sS'cough'
p3557
I135
sS'keith'
p3558
I138
sS'advance'
p3559
I137
sS'underwear'
p3560
I137
sS'thins'
p3561
I138
sS'language'
p3562
I138
sS'headphones'
p3563
I138
sS'wurr'
p3564
I138
sS'thing'
p3565
I109
sS'think'
p3566
I68
sS'waited'
p3567
I138
sS'first'
p3568
I102
sS'exotic'
p3569
I138
sS'cheese'
p3570
I137
sS'hoult'
p3571
I138
sS'kearse'
p3572
I138
sS'long'
p3573
I119
sS'suspended'
p3574
I138
sS'sounds'
p3575
I134
sS'cheesy'
p3576
I138
sS'little'
p3577
I107
sS'slept'
p3578
I138
sS'anyone'
p3579
I118
sS'prettier'
p3580
I138
sS'eyes'
p3581
I129
sS'"there'
p3582
I138
sS'"talk'
p3583
I138
sS'butt'
p3584
I136
sS'cleanse'
p3585
I138
sS'11'
p3586
I138
sS'10'
p3587
I132
sS'13'
p3588
I132
sS'cracks'
p3589
I136
sS'15'
p3590
I133
sS'17'
p3591
I136
sS'gotta'
p3592
I127
sS'were'
p3593
I106
sS'lick'
p3594
I138
sS'story....:}'
p3595
I138
sS'occupied'
p3596
I138
sS'kevin'
p3597
I130
sS'to...lmao'
p3598
I138
sS'freshcut'
p3599
I138
sS'shocked'
p3600
I138
sS'neeeeed'
p3601
I138
sS'channel'
p3602
I138
sS'skinned'
p3603
I138
sS'pain'
p3604
I127
sS'normal'
p3605
I136
sS'arguing'
p3606
I135
sS'traci'
p3607
I138
sS'paid'
p3608
I138
sS'tracy'
p3609
I138
sS'especially'
p3610
I135
sS'surprising'
p3611
I138
sS'fills'
p3612
I138
sS'larry'
p3613
I137
sS'shop'
p3614
I137
sS'beaner'
p3615
I137
sS'shot'
p3616
I136
sS'show'
p3617
I119
sS'estoy'
p3618
I138
sS'therapist'
p3619
I138
sS'shoe'
p3620
I138
sS'enthusiast'
p3621
I138
sS'dick'
p3622
I133
sS'behind'
p3623
I134
sS'either'
p3624
I121
sS'black'
p3625
I123
sS'get'
p3626
I41
sS'killers'
p3627
I138
sS'nearly'
p3628
I137
sS'yvonne'
p3629
I138
sS'gen'
p3630
I138
sS'colossus'
p3631
I138
sS'summary'
p3632
I138
sS'stupid'
p3633
I118
sS'miley'
p3634
I138
sS'bachata'
p3635
I138
sS'honesty'
p3636
I138
sS'seas'
p3637
I138
sS'fries'
p3638
I136
sS'seat'
p3639
I138
sS'approval*'
p3640
I138
sS'sean'
p3641
I138
sS'baaaaeee'
p3642
I138
sS'wonder'
p3643
I133
sS'24/7'
p3644
I138
sS"claudia's"
p3645
I138
sS"father's"
p3646
I136
sS'enough'
p3647
I130
sS'reading'
p3648
I134
sS'checks'
p3649
I138
sS'dempsey'
p3650
I137
sS'idoiticracy'
p3651
I138
sS'august'
p3652
I136
sS'kool'
p3653
I138
sS'timmy'
p3654
I138
sS'killing'
p3655
I136
sS'jj'
p3656
I137
sS'jk'
p3657
I134
sS'nationality'
p3658
I138
sS'trolling'
p3659
I138
sS'lopez'
p3660
I137
sS'dates'
p3661
I138
sS'z'
p3662
I137
sS'feeeling'
p3663
I138
sS'tuck'
p3664
I138
sS'similar'
p3665
I137
sS'according'
p3666
I135
sS'restroom'
p3667
I137
sS'f.e.a.r'
p3668
I138
sS'tour'
p3669
I138
sS'dated'
p3670
I136
sS'guardians'
p3671
I138
sS'hollaback'
p3672
I138
sS'traded'
p3673
I138
sS'altidore'
p3674
I138
sS'6:30'
p3675
I137
sS'cancer'
p3676
I138
sS'wiggins!!!,91744\n482308573641183232,jeriahmatthew,2014-06-26'
p3677
I138
sS'guerillmo'
p3678
I138
sS'cancel'
p3679
I138
sS'comprehend'
p3680
I138
sS'considering'
p3681
I136
sS'quadrupling'
p3682
I137
sS'intrude'
p3683
I138
sS'capable'
p3684
I138
sS'ucla'
p3685
I136
sS'mark'
p3686
I133
sS'judging'
p3687
I134
sS'tyga'
p3688
I132
sS'shopping'
p3689
I137
sS'partida'
p3690
I138
sS'waka'
p3691
I138
sS'dramatic'
p3692
I138
sS'wake'
p3693
I125
sS'bmw'
p3694
I138
sS'red-headed'
p3695
I138
sS'those'
p3696
I104
sS'sound'
p3697
I134
sS'stacked'
p3698
I138
sS'...he'
p3699
I138
sS'dayzzz'
p3700
I138
sS'coca'
p3701
I138
sS'cancelled'
p3702
I138
sS'eventually'
p3703
I136
sS'characteristics'
p3704
I138
sS'sincere'
p3705
I138
sS'coffee'
p3706
I129
sS'sleeping'
p3707
I134
sS'middle'
p3708
I137
sS'finnaly'
p3709
I135
sS'sudden'
p3710
I132
sS'loosing'
p3711
I137
sS'protein'
p3712
I132
sS'everyday'
p3713
I132
sS'bags'
p3714
I137
sS'different'
p3715
I123
sS'pau'
p3716
I137
sS'doctor'
p3717
I133
sS'pay'
p3718
I133
sS'same'
p3719
I108
sS'22:27:32.0,34.022079,-117.9128988,4081.38,everything'
p3720
I138
sS'wizards'
p3721
I138
sS'speech'
p3722
I138
sS"o'brien"
p3723
I136
sS',91744\n497482097125490688,thehomieirving_,2014-08-07'
p3724
I138
sS'pal'
p3725
I138
sS'pam'
p3726
I138
sS'running'
p3727
I129
sS'climbing'
p3728
I138
sS'totally'
p3729
I133
sS'solve'
p3730
I138
sS'bumping'
p3731
I138
sS'parody'
p3732
I138
sS'money'
p3733
I134
sS'"jester"'
p3734
I138
sS'pissing'
p3735
I137
sS'wifey'
p3736
I138
sS'aspect'
p3737
I137
sS'flavor'
p3738
I137
sS"dm's"
p3739
I137
sS'yaaas'
p3740
I135
sS'palms)'
p3741
I138
sS'yaaay'
p3742
I138
sS"summer's"
p3743
I138
sS"pres's"
p3744
I138
sS'workwork'
p3745
I138
sS'4'
p3746
I124
sS'heavier'
p3747
I138
sS'chainsaw'
p3748
I138
sS'mom'
p3749
I98
sS'\xe2\x9d\xa5'
p3750
I138
sS'disappointed'
p3751
I134
sS'adams'
p3752
I138
sS'christine'
p3753
I138
sS'\xe2\x9d\x81'
p3754
I137
sS'laughing'
p3755
I138
sS'robbery'
p3756
I138
sS'served'
p3757
I137
sS'naaa'
p3758
I138
sS'joan'
p3759
I136
sS'gross'
p3760
I136
sS'00:15:50.0,34.0221502,-117.9129957,4081.38,marcus'
p3761
I138
sS'doggy'
p3762
I135
sS'seconds'
p3763
I138
sS'arts'
p3764
I138
sS'baileys'
p3765
I138
sS'akon'
p3766
I138
sS'broken'
p3767
I137
sS'fouls(which'
p3768
I138
sS'coppering'
p3769
I138
sS'giggle'
p3770
I136
sS'tease'
p3771
I138
sS'pockets'
p3772
I137
sS'mixed'
p3773
I135
sS'road'
p3774
I135
sS'whites'
p3775
I138
sS'skilled'
p3776
I138
sS'yyy'
p3777
I138
sS'blessed'
p3778
I138
sS'strip'
p3779
I138
sS'distracted'
p3780
I138
sS'madden'
p3781
I137
sS'1:21'
p3782
I138
sS'lions'
p3783
I138
sS'spicy'
p3784
I137
sS'sophisticated'
p3785
I137
sS'supposably'
p3786
I138
sS'white"'
p3787
I138
sS'belated'
p3788
I138
sS"wasn't"
p3789
I133
sS'ronaldo'
p3790
I137
sS'fate-'
p3791
I138
sS'strawberry'
p3792
I137
sS'suck.\xe2\x80\x9d'
p3793
I138
sS'videos'
p3794
I138
sS'censor'
p3795
I138
sS'deep'
p3796
I137
sS'general'
p3797
I137
sS'imagination'
p3798
I137
sS'deel'
p3799
I138
sS'melatonin'
p3800
I138
sS'fill'
p3801
I138
sS'again'
p3802
I112
sS'.\xe2\x80\xa6\xe2\x80\xa6'
p3803
I138
sS'lafayette'
p3804
I138
sS'coughing'
p3805
I138
sS'obsessed'
p3806
I137
sS'students'
p3807
I136
sS'antnymakedatsketch'
p3808
I138
sS'chris'
p3809
I137
sS'dee"'
p3810
I138
sS'remote'
p3811
I138
sS"life's"
p3812
I138
sS'spills'
p3813
I138
sS'u'
p3814
I99
sS"7'3"
p3815
I138
sS'alright'
p3816
I136
sS'starting'
p3817
I127
sS'colleges'
p3818
I138
sS'liar'
p3819
I138
sS'forget'
p3820
I127
sS'suns'
p3821
I138
sS'overdose'
p3822
I138
sS'talks'
p3823
I138
sS'expressions'
p3824
I138
sS'children'
p3825
I138
sS'emily'
p3826
I138
sS'woooow'
p3827
I138
sS'baaaae'
p3828
I138
sS'imma'
p3829
I134
sS'felton'
p3830
I138
sS'enjoying'
p3831
I136
sS'sitting'
p3832
I137
sS'billie'
p3833
I138
sS'scout'
p3834
I138
sS'bleach'
p3835
I138
sS'difference'
p3836
I137
sS'trippin'
p3837
I138
sS'hollerin'
p3838
I138
sS'washing'
p3839
I137
sS'celebrity'
p3840
I136
sS'reminding'
p3841
I138
sS'donovan'
p3842
I138
sS'20th'
p3843
I138
sS'neighborhood'
p3844
I138
sS'puddle*'
p3845
I138
sS'run.\xe2\x80\xa6'
p3846
I138
sS'wayyyyyyy'
p3847
I138
sS'"race"'
p3848
I138
sS'burger'
p3849
I138
sS'zero'
p3850
I137
sS'perspective'
p3851
I137
sS'barbecue'
p3852
I138
sS'further'
p3853
I138
sS'queen\xe2\x80\x9d'
p3854
I138
sS'90s'
p3855
I138
sS'abc'
p3856
I138
sS'all...in'
p3857
I138
sS'caffeine'
p3858
I138
sS'"billie'
p3859
I138
sS'abs'
p3860
I138
sS'public'
p3861
I138
sS'tattoos'
p3862
I136
sS'outgoing'
p3863
I137
sS'yaaaaay'
p3864
I138
sS'shiiitttt'
p3865
I138
sS'yaaaaas'
p3866
I138
sS'jonah'
p3867
I138
sS'fantasies'
p3868
I137
sS'search'
p3869
I138
sS'bible'
p3870
I136
sS'jackin'
p3871
I138
sS'stretching'
p3872
I137
sS'1/2ft'
p3873
I138
sS'published'
p3874
I138
sS'buses'
p3875
I138
sS'africa'
p3876
I137
sS'"let\'s'
p3877
I138
sS'eye'
p3878
I138
sS'asta'
p3879
I138
sS'here!.;d'
p3880
I138
sS'lemoney'
p3881
I138
sS'two'
p3882
I114
sS'comparing'
p3883
I138
sS'ginobili'
p3884
I138
sS'diamond'
p3885
I137
sS'leonard'
p3886
I138
sS"ain't"
p3887
I127
sS'shadyyyy'
p3888
I138
sS'town'
p3889
I138
sS'none'
p3890
I137
sS'hour'
p3891
I135
sS'dep'
p3892
I138
sS'excus-e-muah'
p3893
I138
sS'guards'
p3894
I138
sS'remain'
p3895
I138
sS'del'
p3896
I136
sS'dem'
p3897
I137
sS'dec'
p3898
I138
sS'stubborn'
p3899
I138
sS'morty'
p3900
I138
sS'numbers'
p3901
I136
sS'fleeants'
p3902
I138
sS'go"'
p3903
I138
sS'needs'
p3904
I121
sS'drained'
p3905
I138
sS'needy'
p3906
I137
sS'acts'
p3907
I136
sS'needa'
p3908
I138
sS'maps'
p3909
I138
sS'girl.\xe2\x80\x9d'
p3910
I138
sS'advice'
p3911
I134
sS'blood'
p3912
I127
sS'blacker'
p3913
I138
sS'response'
p3914
I138
sS'gloti'
p3915
I138
sS'crowded'
p3916
I138
sS"that'd"
p3917
I138
sS'tweeting'
p3918
I136
sS'bathed'
p3919
I138
sS'dragon'
p3920
I138
sS"\xe2\x98\x9d\xef\xb8\x8flet's"
p3921
I138
sS'playing'
p3922
I115
sS"that's"
p3923
I80
sS'varejao'
p3924
I135
sS'jumpstarted'
p3925
I138
sS'industrial'
p3926
I138
sS'through'
p3927
I127
sS'guadalajara'
p3928
I138
sS'arrogant'
p3929
I137
sS'golfing'
p3930
I138
sS'24'
p3931
I134
sS'messed'
p3932
I137
sS'27'
p3933
I138
sS'20'
p3934
I134
sS'21'
p3935
I138
sS'22'
p3936
I131
sS'23'
p3937
I136
sS'thnx'
p3938
I138
sS'late'
p3939
I132
sS'at\xe2\x80\xa6'
p3940
I138
sS'hurting'
p3941
I137
sS'good'
p3942
I44
sS'disrespectful'
p3943
I138
sS'uhm'
p3944
I138
sS'socially'
p3945
I138
sS'hyphens'
p3946
I138
sS'okc'
p3947
I131
sS'wallu'
p3948
I136
sS'prejudiced'
p3949
I138
sS'complain'
p3950
I138
sS'pregnant'
p3951
I138
sS'drake'
p3952
I127
sS'malone'
p3953
I138
sS"6'8"
p3954
I137
sS'eyelashes\xe2\x99\xa1'
p3955
I138
sS'2k'
p3956
I136
sS'everyone'
p3957
I101
sS'mental'
p3958
I138
sS'idek'
p3959
I138
sS'house'
p3960
I121
sS'fish'
p3961
I137
sS'hard'
p3962
I115
sS'idea'
p3963
I133
sS'fist'
p3964
I138
sS'portland'
p3965
I138
sS'hart'
p3966
I137
sS'comic'
p3967
I138
sS'flower'
p3968
I138
sS'curacao'
p3969
I138
sS'childish'
p3970
I136
sS'acting'
p3971
I135
sS"they'll"
p3972
I135
sS'pathetic'
p3973
I137
sS'lawrence'
p3974
I138
sS'motherfucker'
p3975
I138
sS'bulls'
p3976
I136
sS'disneyland'
p3977
I137
sS'yime'
p3978
I138
sS'reparations'
p3979
I138
sS'sitcom'
p3980
I138
sS"actin'"
p3981
I138
sS'5sos'
p3982
I132
sS'ny(now'
p3983
I138
sS'dont'
p3984
I131
sS'bullies'
p3985
I137
sS'done'
p3986
I110
sS'hiting'
p3987
I138
sS'bullied'
p3988
I138
sS'?yeah'
p3989
I138
sS'5th'
p3990
I137
sS'kod'
p3991
I138
sS'least'
p3992
I124
sS'paint'
p3993
I138
sS'statement'
p3994
I137
sS'kow'
p3995
I138
sS"tribe's"
p3996
I138
sS'para'
p3997
I136
sS'you\xe2\x80\x9d'
p3998
I138
sS'park'
p3999
I135
sS'dentist'
p4000
I138
sS'part'
p4001
I131
sS'doctors'
p4002
I137
sS'believe'
p4003
I115
sS'stirs'
p4004
I138
sS'woops'
p4005
I137
sS'...preferably'
p4006
I138
sS'b'
p4007
I131
sS'gotten'
p4008
I136
sS'youth'
p4009
I138
sS'supposed'
p4010
I136
sS':((('
p4011
I137
sS'everythingcause'
p4012
I138
sS'philippino'
p4013
I137
sS"service'"
p4014
I138
sS'showers'
p4015
I138
sS'orders'
p4016
I138
sS'ditched'
p4017
I138
sS'mountain'
p4018
I138
sS'dancing'
p4019
I137
sS'denaya'
p4020
I134
sS'build'
p4021
I138
sS'dannnnkkkkkkk'
p4022
I138
sS'sonics'
p4023
I138
sS'chart'
p4024
I138
sS'shower*'
p4025
I138
sS'most'
p4026
I110
sS'significant'
p4027
I138
sS'southampton'
p4028
I138
sS'clemente'
p4029
I138
sS'kd'
p4030
I127
sS'lithgow'
p4031
I138
sS'storyline'
p4032
I136
sS'mubbah'
p4033
I138
sS'thomas'
p4034
I138
sS'particularly'
p4035
I138
sS'\xe2\x80\x9clove'
p4036
I138
sS'relation'
p4037
I138
sS'fine'
p4038
I133
sS'find'
p4039
I114
sS'pinche'
p4040
I138
sS'nervous'
p4041
I134
sS'poppin'
p4042
I137
sS'man.,91744\n482316055595859968,jeriahmatthew,2014-06-27'
p4043
I138
sS'idiots'
p4044
I138
sS'cough*'
p4045
I138
sS'marathons'
p4046
I137
sS'8'
p4047
I132
sS'tyron'
p4048
I138
sS'therefore'
p4049
I138
sS'luke'
p4050
I137
sS'express'
p4051
I138
sS'cheaper'
p4052
I138
sS'wonka'
p4053
I136
sS'restart'
p4054
I138
sS'punched-face'
p4055
I138
sS'warmup'
p4056
I138
sS'suarez'
p4057
I138
sS'dante'
p4058
I135
sS'remove'
p4059
I138
sS'garcia'
p4060
I138
sS"60's"
p4061
I138
sS'devils'
p4062
I138
sS'retweet'
p4063
I137
sS'tamales'
p4064
I137
sS'positivity'
p4065
I138
sS'bridgewater'
p4066
I138
sS'please'
p4067
I108
sS'fans'
p4068
I131
sS'distraught'
p4069
I138
sS'pisses'
p4070
I137
sS'"not'
p4071
I138
sS'spo(2xchampion)'
p4072
I138
sS'restaurant'
p4073
I138
sS'foreign'
p4074
I138
sS'00:13:21.0,34.0221502,-117.9129957,4081.38,yesssssss'
p4075
I138
sS'supply'
p4076
I138
sS'simple'
p4077
I138
sS'dances'
p4078
I138
sS'\xe2\x9c\xa8\xe2\x9c\xa8\xe2\x9c\xa8\xe2\x9c\xa8\xe2\x9c\xa8\xe2\x9c\xa8'
p4079
I138
sS'hovercraft'
p4080
I138
sS'headaches'
p4081
I136
sS'autocorrect'
p4082
I138
sS'trilogy'
p4083
I138
sS'secret'
p4084
I138
sS'amnesia'
p4085
I137
sS'yogurtland'
p4086
I138
sS'meeting'
p4087
I137
sS"kelly's"
p4088
I138
sS'gay'
p4089
I115
sS'gas'
p4090
I137
sS'understand'
p4091
I126
sS'trojan'
p4092
I137
sS'in.my'
p4093
I138
sS'solid'
p4094
I137
sS'bill'
p4095
I136
sS'convo'
p4096
I138
sS'phillipino'
p4097
I138
sS'replaced'
p4098
I138
sS'fun'
p4099
I112
sS'portugal'
p4100
I135
sS'century'
p4101
I138
sS'cents'
p4102
I138
sS'encountered'
p4103
I138
sS'crusty'
p4104
I138
sS'italy'
p4105
I138
sS'some1'
p4106
I138
sS'neutron'
p4107
I138
sS'assignment'
p4108
I137
sS'yesterday'
p4109
I133
sS'moment'
p4110
I130
sS'purpose'
p4111
I137
sS'timid'
p4112
I138
sS'task'
p4113
I138
sS'spent'
p4114
I137
sS'flags'
p4115
I137
sS'swiss'
p4116
I138
sS'spend'
p4117
I137
sS'from'
p4118
I61
sS'euroafro'
p4119
I137
sS"cortezthat's"
p4120
I138
sS'shape'
p4121
I138
sS'openly'
p4122
I138
sS'apple'
p4123
I136
sS'letting'
p4124
I135
sS'cut'
p4125
I134
sS'cus'
p4126
I137
sS'cup'
p4127
I128
sS'blankets'
p4128
I138
sS'06:01:41.0,34.0157316,-117.9180004,4081.38,fuck'
p4129
I138
sS'cuz'
p4130
I133
sS'homies'
p4131
I137
sS'snap'
p4132
I132
sS'cum'
p4133
I138
sS'mavs'
p4134
I138
sS'easter'
p4135
I138
sS'excited'
p4136
I118
sS'hates'
p4137
I136
sS'hater'
p4138
I137
sS'bio'
p4139
I138
sS'big'
p4140
I117
sS'low-grade'
p4141
I138
sS'matters'
p4142
I137
sS'mike.,91744\n464570221937057794,jeriahmatthew,2014-05-09'
p4143
I138
sS"tupac's"
p4144
I138
sS'00:14:38.0,34.0220926,-117.9128723,4081.38,harry'
p4145
I138
sS'follows'
p4146
I137
sS'google'
p4147
I137
sS'often'
p4148
I132
sS'humorous'
p4149
I138
sS'back'
p4150
I75
sS'ehhh'
p4151
I138
sS'pet'
p4152
I138
sS'5:14'
p4153
I138
sS'good"'
p4154
I137
sS'scalp'
p4155
I138
sS'inicio'
p4156
I138
sS'good('
p4157
I138
sS'pee'
p4158
I137
sS'thighs'
p4159
I137
sS'300'
p4160
I138
sS'continuing'
p4161
I138
sS'fed'
p4162
I138
sS'usc'
p4163
I135
sS'longer(60'
p4164
I138
sS'biss'
p4165
I138
sS'graduation'
p4166
I138
sS'hahahaa'
p4167
I137
sS'californa'
p4168
I138
sS'okkkkay'
p4169
I138
sS'jimmy'
p4170
I138
sS'grammy'
p4171
I136
sS'aliens'
p4172
I138
sS'invading'
p4173
I138
sS'ayyy'
p4174
I137
sS'lesson'
p4175
I138
sS'ontario'
p4176
I138
sS'"forever"'
p4177
I138
sS'forward'
p4178
I138
sS'bored'
p4179
I135
sS'invite'
p4180
I135
sS'sickkkkkkkkkkkk'
p4181
I138
sS'boys'
p4182
I133
sS'hopes'
p4183
I136
sS'\xe2\x99\xa1'
p4184
I104
sS'originals'
p4185
I138
sS'planet'
p4186
I138
sS"tomorrow's"
p4187
I136
sS'partition'
p4188
I138
sS'metal'
p4189
I138
sS'more..can'
p4190
I138
sS'deprive'
p4191
I138
sS'single'
p4192
I130
sS'vlogmas'
p4193
I138
sS'playin'
p4194
I138
sS'yearbook'
p4195
I136
sS'bubblegum'
p4196
I138
sS'excuses'
p4197
I138
sS'max)'
p4198
I138
sS'ugly"'
p4199
I138
sS'(hd)'
p4200
I138
sS'though.,91744\n464573425227669504,jeriahmatthew,2014-05-09'
p4201
I138
sS'papa'
p4202
I138
sS'prepared'
p4203
I138
sS"guy's"
p4204
I138
sS'fisher'
p4205
I133
sS'desert'
p4206
I138
sS'23:54:57.0,34.0221502,-117.9129957,4081.38,joel'
p4207
I138
sS'200+'
p4208
I138
sS'teams'
p4209
I133
sS'admiring'
p4210
I138
sS'racheal'
p4211
I138
sS'2003'
p4212
I138
sS'2007'
p4213
I138
sS'2008'
p4214
I138
sS'oooonnn'
p4215
I138
sS'jason'
p4216
I136
sS'bithday'
p4217
I138
sS'bruhh'
p4218
I138
sS'blaze'
p4219
I138
sS'queen'
p4220
I137
sS'11:35'
p4221
I138
sS'putting'
p4222
I133
sS'pops'
p4223
I138
sS'salad'
p4224
I138
sS'joel'
p4225
I138
sS'shock'
p4226
I137
sS'min'
p4227
I134
sS'ahahahaha'
p4228
I134
sS'havent'
p4229
I138
sS'joey'
p4230
I138
sS'rivers'
p4231
I134
sS'uncomfortable'
p4232
I137
sS'hemmings'
p4233
I138
sS'depression'
p4234
I138
sS'power'
p4235
I137
sS'chicago'
p4236
I136
sS'3s'
p4237
I138
sS'anthem'
p4238
I137
sS'piper'
p4239
I138
sS'access'
p4240
I138
sS'body'
p4241
I124
sS'othere'
p4242
I138
sS'luix'
p4243
I138
sS'others'
p4244
I135
sS'sing'
p4245
I136
sS'talent'
p4246
I136
sS'33'
p4247
I138
sS'32'
p4248
I138
sS'30'
p4249
I135
sS'ass..add'
p4250
I138
sS'honor'
p4251
I137
sS'bumming'
p4252
I138
sS'named'
p4253
I137
sS'presidents'
p4254
I138
sS'private'
p4255
I137
sS'names'
p4256
I138
sS'cha'
p4257
I138
sS'breakup'
p4258
I138
sS'*blocks'
p4259
I138
sS'patriotic)'
p4260
I138
sS'trait'
p4261
I138
sS'name)'
p4262
I138
sS'payne'
p4263
I138
sS'train'
p4264
I137
sS'ashamed'
p4265
I136
sS'mcbuckets'
p4266
I138
sS'account'
p4267
I133
sS'britney'
p4268
I136
sS'f'
p4269
I128
sS'gabriel'
p4270
I137
sS'crickets'
p4271
I138
sS'didnt'
p4272
I137
sS':((((((((((('
p4273
I138
sS'lasssst'
p4274
I138
sS'homoerotic'
p4275
I138
sS'perma'
p4276
I138
sS'solo*'
p4277
I138
sS'polygonsenran'
p4278
I138
sS'lame'
p4279
I135
sS'afc'
p4280
I138
sS'2:1'
p4281
I138
sS'profile'
p4282
I138
sS'as\xe2\x80\xa6'
p4283
I138
sS'waters'
p4284
I136
sS'leukemia'
p4285
I138
sS'klay'
p4286
I138
sS'frap'
p4287
I138
sS'fray'
p4288
I138
sS'existttt'
p4289
I138
sS'cuddling'
p4290
I138
sS'chasing'
p4291
I138
sS'furious'
p4292
I138
sS'ugly\xe2\x80\x9d'
p4293
I138
sS'*takes'
p4294
I138
sS'macklemore'
p4295
I137
sS'happiest'
p4296
I137
sS'galaxy'
p4297
I138
sS'bunch'
p4298
I138
sS'le'
p4299
I138
sS'la'
p4300
I108
sS'lo'
p4301
I137
sS'winning'
p4302
I135
sS'age'
p4303
I136
sS'willing'
p4304
I137
sS'lp'
p4305
I138
sS'criminal'
p4306
I138
sS'<'
p4307
I138
sS'dad'
p4308
I123
sS'"2014"'
p4309
I138
sS'dam'
p4310
I138
sS'dan'
p4311
I138
sS'spell'
p4312
I136
sS'dat'
p4313
I138
sS'mention'
p4314
I135
sS'dar'
p4315
I138
sS'day'
p4316
I60
sS'phineas'
p4317
I138
sS'ayudo'
p4318
I138
sS'covina'
p4319
I137
sS'sexual'
p4320
I137
sS'ugghhhhh'
p4321
I138
sS'matt'
p4322
I137
sS'lungs"'
p4323
I138
sS'lecture'
p4324
I138
sS'ref'
p4325
I138
sS'red'
p4326
I132
sS'"gooooooooaaallll"'
p4327
I138
sS'jessica'
p4328
I135
sS'scumbag'
p4329
I138
sS'duffle'
p4330
I138
sS'approaches'
p4331
I138
sS'que'
p4332
I134
sS"how's"
p4333
I138
sS'yard'
p4334
I138
sS'peeve'
p4335
I138
sS'south'
p4336
I137
sS'tho,91744\n497796791040245760,thehomieirving_,2014-08-08'
p4337
I138
sS'sack'
p4338
I138
sS'lagging'
p4339
I136
sS'reliable'
p4340
I138
sS'braces'
p4341
I138
sS'prudes'
p4342
I138
sS'sadly'
p4343
I138
sS'love)'
p4344
I138
sS'hilary'
p4345
I138
sS'"died"'
p4346
I138
sS'vagina'
p4347
I138
sS'mondays'
p4348
I138
sS'"love"'
p4349
I138
sS'messing'
p4350
I138
sS'gear'
p4351
I138
sS'house...but'
p4352
I138
sS'explanation'
p4353
I138
sS'nobody'
p4354
I131
sS'coughed'
p4355
I138
sS'loved'
p4356
I135
sS'slack'
p4357
I138
sS'loves'
p4358
I128
sS'lover'
p4359
I138
sS'antny'
p4360
I138
sS'inlove'
p4361
I138
sS'comfortable'
p4362
I135
sS'mornings'
p4363
I138
sS'have'
p4364
I26
sS'throat'
p4365
I134
sS'apparently'
p4366
I132
sS'aladdin'
p4367
I138
sS'congrats'
p4368
I137
sS'mid'
p4369
I138
sS'(no'
p4370
I138
sS'mix'
p4371
I137
sS'them,91744\n501171196420169728,jeriahmatthew,2014-08-18'
p4372
I138
sS'unless'
p4373
I130
sS"where'd"
p4374
I138
sS"where's"
p4375
I137
sS'striker'
p4376
I138
sS'suga'
p4377
I138
sS'absurd'
p4378
I138
sS'normally'
p4379
I138
sS'text'
p4380
I133
sS'charles'
p4381
I136
sS'screaming'
p4382
I138
sS"yi's"
p4383
I138
sS'grandmother'
p4384
I138
sS'stolen."'
p4385
I138
sS"anyone's"
p4386
I138
sS'"chandelier"'
p4387
I138
sS'delirious'
p4388
I138
sS'beat'
p4389
I127
sS'stripes'
p4390
I138
sS'perfection'
p4391
I137
sS'subways'
p4392
I138
sS'eyebrow'
p4393
I137
sS'calling'
p4394
I133
sS'fixed'
p4395
I136
sS"18:26:13.0,34.0221604,-117.9128015,4081.38,it's"
p4396
I138
sS'oscura'
p4397
I138
sS'national'
p4398
I137
sS'wc'
p4399
I138
sS'1:45'
p4400
I138
sS'thangzzzz'
p4401
I138
sS'footlong'
p4402
I138
sS'phases'
p4403
I138
sS'way))'
p4404
I138
sS'"official"'
p4405
I138
sS'icecream'
p4406
I137
sS'routine'
p4407
I138
sS'progress'
p4408
I138
sS'like,91744\n497797874781265920,thehomieirving_,2014-08-08'
p4409
I138
sS'legit'
p4410
I138
sS'commenting'
p4411
I138
sS'instant'
p4412
I138
sS'joke'
p4413
I131
sS'taking'
p4414
I131
sS'lmfaoo"'
p4415
I138
sS'tater'
p4416
I138
sS'week..i'
p4417
I138
sS'passing'
p4418
I136
sS'otherwise'
p4419
I137
sS'comment'
p4420
I136
sS'relevant'
p4421
I137
sS'laugh'
p4422
I130
sS'watkins'
p4423
I137
sS"it's"
p4424
I28
sS'proposal'
p4425
I138
sS'define'
p4426
I138
sS'hurt.,91744\n464586659439591424,jeriahmatthew,2014-05-09'
p4427
I138
sS'goddess'
p4428
I138
sS'finished'
p4429
I136
sS'09:32:41.0,34.0220845,-117.9128814,4081.38,i'
p4430
I138
sS'kyrie'
p4431
I138
sS'splits'
p4432
I138
sS'yhank'
p4433
I138
sS'value'
p4434
I138
sS'14:33:57.0,34.0221414,-117.9130477,4081.38,you'
p4435
I138
sS'kanye-'
p4436
I138
sS'jeanette'
p4437
I138
sS'orale'
p4438
I138
sS'23:43:13.0,34.0221502,-117.9129957,4081.38,the'
p4439
I138
sS'helped'
p4440
I138
sS'weekend...nonstop'
p4441
I138
sS'portray'
p4442
I138
sS')'
p4443
I137
sS'rafa'
p4444
I134
sS'infer'
p4445
I138
sS'ochoa'
p4446
I136
sS'injured'
p4447
I137
sS'polygraph'
p4448
I138
sS'moyes'
p4449
I138
sS'selfish'
p4450
I137
sS'reporting'
p4451
I138
sS'bullying'
p4452
I138
sS'ion'
p4453
I137
sS'fucken'
p4454
I126
sS'takers'
p4455
I138
sS'sisters'
p4456
I137
sS'shitting'
p4457
I138
sS'center'
p4458
I136
sS'antonio'
p4459
I136
sS'thought'
p4460
I115
sS'knotts'
p4461
I137
sS'comparisons'
p4462
I138
sS'con'
p4463
I137
sS'lmao,91744\n499472067511996416,jeriahmatthew,2014-08-13'
p4464
I138
sS'coaster'
p4465
I136
sS'seats'
p4466
I138
sS'tone'
p4467
I138
sS'expendables'
p4468
I138
sS'lake'
p4469
I138
sS'bench'
p4470
I136
sS'add'
p4471
I136
sS'somali'
p4472
I138
sS'ohhh'
p4473
I137
sS'match'
p4474
I138
sS'raven'
p4475
I138
sS'tests'
p4476
I138
sS'everthing'
p4477
I138
sS'puppy'
p4478
I135
sS'like'
p4479
I17
sS'success'
p4480
I137
sS'journalism'
p4481
I138
sS'admitted'
p4482
I137
sS'lesi\xc3\xb3n'
p4483
I138
sS'chick'
p4484
I138
sS'chich'
p4485
I138
sS'works'
p4486
I136
sS'italian'
p4487
I138
sS'hail'
p4488
I138
sS'haim'
p4489
I138
sS'hair'
p4490
I113
sS'proper'
p4491
I137
sS'happens'
p4492
I131
sS'corpse'
p4493
I138
sS'famicom-themed'
p4494
I138
sS'lol,91744\n477926489673842689,jeriahmatthew,2014-06-14'
p4495
I138
sS'chains'
p4496
I138
sS'pepper'
p4497
I138
sS'host'
p4498
I138
sS':-('
p4499
I136
sS':-)'
p4500
I132
sS'actual'
p4501
I134
sS':-/'
p4502
I137
sS'flaky'
p4503
I138
sS'important'
p4504
I136
sS'seniors'
p4505
I133
sS'gaydars'
p4506
I138
sS'snitch'
p4507
I138
sS'playoff'
p4508
I138
sS'doesnt'
p4509
I136
sS'female'
p4510
I136
sS'wack'
p4511
I138
sS'day!,91744\n499622706665775106,jeriahmatthew,2014-08-13'
p4512
I138
sS'meeeh'
p4513
I138
sS'buckle'
p4514
I138
sS'biggest'
p4515
I131
sS'maze'
p4516
I137
sS'buy'
p4517
I134
sS'chatting'
p4518
I137
sS'bus'
p4519
I134
sS'coke'
p4520
I137
sS'but'
p4521
I19
sS'reminds'
p4522
I131
sS'repeated'
p4523
I138
sS'joystiqnis'
p4524
I138
sS'19:23:56.0,34.0220948,-117.9128916,4081.38,my'
p4525
I138
sS'bug'
p4526
I138
sS'dozens'
p4527
I138
sS'wise'
p4528
I137
sS'glory'
p4529
I138
sS'rings/championship'
p4530
I138
sS'j'
p4531
I135
sS'flip'
p4532
I138
sS'minutes'
p4533
I132
sS"red's"
p4534
I138
sS'whisper'
p4535
I138
sS'measure'
p4536
I136
sS'pie'
p4537
I138
sS'shooting'
p4538
I137
sS'movie:"come'
p4539
I138
sS'48'
p4540
I138
sS'cunt-whore-bitch?\xc2\xbf!\xc2\xa1'
p4541
I138
sS'dressed'
p4542
I136
sS'45'
p4543
I137
sS'claiming'
p4544
I138
sS'43'
p4545
I138
sS'40'
p4546
I137
sS'dresses'
p4547
I138
sS'christiano'
p4548
I138
sS'bundle'
p4549
I138
sS'neoseekerdigimon'
p4550
I138
sS'goin'
p4551
I137
sS'*spoiler'
p4552
I138
sS'kardashian'
p4553
I138
sS'4k'
p4554
I138
sS'scroll?me'
p4555
I138
sS'yell'
p4556
I138
sS'8th'
p4557
I138
sS'sleep'
p4558
I99
sS'scouted'
p4559
I138
sS'hating'
p4560
I134
sS'sci'
p4561
I138
sS'appetite'
p4562
I138
sS'hate'
p4563
I89
sS'dalek'
p4564
I138
sS'lukaku'
p4565
I138
sS'paris'
p4566
I133
sS'tweet'
p4567
I124
sS'under'
p4568
I132
sS'23:45:46.0,34.0221502,-117.9129957,4081.38,congratulations'
p4569
I138
sS'risk'
p4570
I137
sS'rise'
p4571
I134
sS"whoever's"
p4572
I138
sS'every'
p4573
I102
sS'monkeys'
p4574
I137
sS'school'
p4575
I111
sS'bestfriend'
p4576
I130
sS'submarinos'
p4577
I138
sS'"a"'
p4578
I138
sS'enjoy'
p4579
I132
sS'almond'
p4580
I138
sS'direct'
p4581
I138
sS'louder'
p4582
I138
sS"porto's"
p4583
I137
sS'blue'
p4584
I137
sS'hide'
p4585
I138
sS'christ'
p4586
I133
sS'beaten'
p4587
I138
sS'kun'
p4588
I138
sS'ebbs'
p4589
I138
sS'disney'
p4590
I133
sS'pats'
p4591
I138
sS'kicked'
p4592
I138
sS'feisty'
p4593
I138
sS'hundreds'
p4594
I138
sS'represented'
p4595
I138
sS'growing'
p4596
I136
sS'voice'
p4597
I138
sS'stevie'
p4598
I138
sS'leaves'
p4599
I138
sS'changed'
p4600
I127
sS'changes'
p4601
I138
sS"breath'"
p4602
I138
sS'melany'
p4603
I133
sS'feelings'
p4604
I135
sS'01:10:40.0,34.0220039,-117.9129645,4081.38,if'
p4605
I138
sS'*shoots'
p4606
I138
sS'ebony'
p4607
I137
sS'provocative'
p4608
I138
sS'would'
p4609
I71
sS'hospital'
p4610
I138
sS'breathe'
p4611
I138
sS'naive'
p4612
I138
sS'lol,91744\n480368223313866752,jeriahmatthew,2014-06-21'
p4613
I138
sS'phone'
p4614
I126
sS'robin'
p4615
I132
sS'must'
p4616
I134
sS'shoot'
p4617
I135
sS'join'
p4618
I135
sS'entertained'
p4619
I137
sS'couldfind'
p4620
I138
sS'ms'
p4621
I136
sS'henry'
p4622
I138
sS'my'
p4623
I6
sS"gabriel's"
p4624
I138
sS'addictive'
p4625
I138
sS'florida'
p4626
I137
sS'kompany'
p4627
I138
sS'times'
p4628
I131
sS'attract'
p4629
I137
sS'end'
p4630
I118
sS'buns'
p4631
I135
sS'writers'
p4632
I138
sS'aching'
p4633
I137
sS'badly'
p4634
I136
sS'mess'
p4635
I135
sS'danny'
p4636
I134
sS'funniest'
p4637
I137
sS'jungle'
p4638
I138
sS'react'
p4639
I138
sS'over'
p4640
I89
sS'fall'
p4641
I124
sS'casted'
p4642
I138
sS';)))'
p4643
I138
sS'jacuzzi'
p4644
I138
sS'london'
p4645
I138
sS'omw!,91744\n480468074949140480,jeriahmatthew,2014-06-21'
p4646
I138
sS'vita'
p4647
I137
sS'ima'
p4648
I136
sS'expectations'
p4649
I138
sS'writing'
p4650
I136
sS'fade'
p4651
I136
sS'400'
p4652
I138
sS'imy'
p4653
I138
sS'409'
p4654
I138
sS'intentions.,91744\n501300540434034688,jeriahmatthew,2014-08-18'
p4655
I138
sS'*puts'
p4656
I138
sS'wednesdays'
p4657
I138
sS'bouta'
p4658
I138
sS'15:06:45.0,34.0221629,-117.9129224,4081.38,i'
p4659
I138
sS'netherlands'
p4660
I134
sS'potatoes'
p4661
I137
sS'40k'
p4662
I138
sS'choir'
p4663
I138
sS'each'
p4664
I132
sS'08:52:25.0,34.0221305,-117.9128133,4081.38,swagga'
p4665
I138
sS'gloop'
p4666
I136
sS'signing'
p4667
I138
sS'constipation'
p4668
I138
sS',91744\n500359681106542593,jeriahmatthew,2014-08-15'
p4669
I138
sS'technobuffalorise'
p4670
I138
sS'celebrating'
p4671
I138
sS'ghosts'
p4672
I138
sS'saturday'
p4673
I137
sS'gon'
p4674
I135
sS'driving'
p4675
I134
sS'god'
p4676
I108
sS'kawhi'
p4677
I137
sS'nltfor'
p4678
I138
sS'laid'
p4679
I138
sS'heavenly'
p4680
I138
sS'got'
p4681
I74
sS'gov'
p4682
I138
sS'day"'
p4683
I138
sS'arizona'
p4684
I134
sS'free'
p4685
I130
sS'rain'
p4686
I138
sS'wanted'
p4687
I122
sS'go-'
p4688
I138
sS'days'
p4689
I121
sS'outfits'
p4690
I138
sS'filter'
p4691
I138
sS'soda'
p4692
I137
sS'go1'
p4693
I138
sS'already'
p4694
I114
sS'puck'
p4695
I138
sS'rank'
p4696
I138
sS'adopted'
p4697
I136
sS'sober'
p4698
I138
sS'categorize'
p4699
I138
sS'mistir'
p4700
I138
sS'sarcasm'
p4701
I136
sS'top'
p4702
I122
sS'andyour'
p4703
I138
sS'fiction'
p4704
I138
sS'jamba'
p4705
I138
sS'ton'
p4706
I137
sS'too'
p4707
I70
sS'tom'
p4708
I137
sS'boys?\xc2\xbf!\xc2\xa1'
p4709
I138
sS'murder'
p4710
I135
sS'took'
p4711
I131
sS'toot'
p4712
I138
sS'postcards'
p4713
I138
sS'perfectly'
p4714
I137
sS'himbut'
p4715
I138
sS'roles'
p4716
I138
sS'classes'
p4717
I131
sS'me;d'
p4718
I138
sS'bridge'
p4719
I138
sS'fashion'
p4720
I138
sS'ran'
p4721
I136
sS'ram'
p4722
I138
sS'homework?\xe2\x80\x9d'
p4723
I138
sS'talking'
p4724
I131
sS'rap'
p4725
I135
sS'ohhhh'
p4726
I138
sS'morethan'
p4727
I138
sS'ray'
p4728
I138
sS'nipples'
p4729
I137
sS'-'
p4730
I129
sS'brandon'
p4731
I138
sS'derek'
p4732
I130
sS'rodents'
p4733
I138
sS'to.just'
p4734
I138
sS'though'
p4735
I111
sS'alamo-de'
p4736
I138
sS'justify'
p4737
I138
sS'parting'
p4738
I138
sS'treats'
p4739
I137
sS'ride)'
p4740
I138
sS'gloopity'
p4741
I138
sS'flop'
p4742
I138
sS'flow'
p4743
I138
sS"ballin'"
p4744
I138
sS'rancid'
p4745
I138
sS'yang'
p4746
I138
sS'entertaining'
p4747
I138
sS'youuu'
p4748
I138
sS'gladis'
p4749
I138
sS'guzan'
p4750
I138
sS'saga'
p4751
I138
sS'random'
p4752
I129
sS'list.,91744\n499637495269965825,jeriahmatthew,2014-08-13'
p4753
I138
sS'sign...fb'
p4754
I138
sS'earth'
p4755
I138
sS'minnesota'
p4756
I138
sS'kessler'
p4757
I138
sS'updating'
p4758
I138
sS'photo'
p4759
I138
sS'geez'
p4760
I138
sS'asians'
p4761
I135
sS'watch'
p4762
I91
sS'amazon'
p4763
I138
sS'pouting'
p4764
I138
sS'taaaaacos'
p4765
I138
sS'countries'
p4766
I131
sS'dias'
p4767
I138
sS'twice'
p4768
I138
sS'shots'
p4769
I133
sS'resist'
p4770
I138
sS'noodles'
p4771
I137
sS'jerseys'
p4772
I136
sS'00:54:52.0,34.0220865,-117.9128921,4081.38,matthews'
p4773
I138
sS"c'mon"
p4774
I135
sS'temptation'
p4775
I137
sS'"oh'
p4776
I138
sS'hopefully'
p4777
I123
sS'mum'
p4778
I136
sS'"of'
p4779
I138
sS'mobius'
p4780
I138
sS'weak'
p4781
I138
sS'denton'
p4782
I138
sS'fugly'
p4783
I138
sS'bosh'
p4784
I137
sS'wear'
p4785
I123
sS'dedication'
p4786
I137
sS'lineman'
p4787
I137
sS'faced'
p4788
I137
sS'protect'
p4789
I137
sS'fault'
p4790
I133
sS'jelly'
p4791
I138
sS'players'
p4792
I133
sS'games'
p4793
I134
sS'spurs'
p4794
I130
sS'"and'
p4795
I138
sS'haynes'
p4796
I138
sS'trust'
p4797
I132
sS"mvp's"
p4798
I138
sS'conference'
p4799
I136
sS'bathroom'
p4800
I137
sS'beef'
p4801
I138
sS'"you'
p4802
I137
sS'shout'
p4803
I134
sS'been'
p4804
I87
sS'quickly'
p4805
I136
sS'beer'
p4806
I136
sS'expected'
p4807
I136
sS'drugs'
p4808
I135
sS'gloooooo'
p4809
I138
sS'catch'
p4810
I137
sS'glides'
p4811
I138
sS'selfish...i'
p4812
I138
sS'n'
p4813
I135
sS'ugliest'
p4814
I138
sS'teachers'
p4815
I134
sS'cracked'
p4816
I135
sS'natives'
p4817
I138
sS'14:52:48.0,34.0220714,-117.9129693,4081.38,when'
p4818
I138
sS'"a'
p4819
I138
sS"50's"
p4820
I138
sS'though.,91744\n499479916216614912,jeriahmatthew,2014-08-13'
p4821
I138
sS'"i'
p4822
I138
sS'hahahahahahahahahahahahaha'
p4823
I137
sS'00:00:46.0,34.0221502,-117.9129957,4081.38,i'
p4824
I138
sS'alien'
p4825
I138
sS'complex'
p4826
I138
sS'somthihing'
p4827
I138
sS'screw'
p4828
I136
sS'misery'
p4829
I138
sS'microphone'
p4830
I138
sS'fridays'
p4831
I138
sS'characters'
p4832
I138
sS'tyson'
p4833
I138
sS'sg(2)'
p4834
I138
sS'dylan'
p4835
I128
sS'yea...thanks'
p4836
I138
sS'clowney'
p4837
I138
sS'ocean'
p4838
I138
sS'greatest'
p4839
I136
sS'mother'
p4840
I135
sS'hearts'
p4841
I138
sS'jean'
p4842
I138
sS'dads'
p4843
I138
sS'madeout'
p4844
I138
sS'laptop'
p4845
I137
sS'grades'
p4846
I138
sS'pharmacy'
p4847
I138
sS'gave'
p4848
I133
sS'breaks'
p4849
I137
sS'judge'
p4850
I134
sS'burns'
p4851
I137
sS'apart'
p4852
I137
sS'ditto'
p4853
I138
sS'gift'
p4854
I137
sS'55'
p4855
I138
sS'contradict'
p4856
I138
sS'hunt'
p4857
I138
sS'50'
p4858
I135
sS'overrated'
p4859
I137
sS'5*'
p4860
I138
sS'amos'
p4861
I138
sS'stereotype'
p4862
I138
sS'(insert'
p4863
I137
sS'successfully'
p4864
I137
sS'jennifer'
p4865
I136
sS'donald'
p4866
I135
sS'finna'
p4867
I138
sS'ice'
p4868
I130
sS'cooch'
p4869
I138
sS'everything'
p4870
I108
sS'convict'
p4871
I137
sS'christmas'
p4872
I137
sS'avatar'
p4873
I138
sS'core'
p4874
I138
sS'deleted'
p4875
I138
sS'hung'
p4876
I138
sS'huh?,91744\n500012260731793409,jeriahmatthew,2014-08-14'
p4877
I138
sS'chapter'
p4878
I136
sS'choke'
p4879
I137
sS'plus'
p4880
I133
sS'aha'
p4881
I124
sS'texting'
p4882
I136
sS'wattttt'
p4883
I138
sS"ex's"
p4884
I138
sS'spongebob'
p4885
I138
sS'class'
p4886
I125
sS'stuck'
p4887
I134
sS'anderson'
p4888
I133
sS'head'
p4889
I126
sS'heal'
p4890
I137
sS'gorgeous'
p4891
I138
sS'heat'
p4892
I125
sS'uncle'
p4893
I135
sS'?\xe2\x80\x9d'
p4894
I138
sS'contributttinngg'
p4895
I138
sS'ruined'
p4896
I135
sS'camaro'
p4897
I138
sS'submitting'
p4898
I138
sS'90%'
p4899
I137
sS'holden...i'
p4900
I138
sS'sometime'
p4901
I136
sS'trix'
p4902
I138
sS'annoying'
p4903
I124
sS'check'
p4904
I134
sS'ni'
p4905
I136
sS'landon'
p4906
I138
sS'no'
p4907
I40
sS'na'
p4908
I136
sS'commercials'
p4909
I136
sS'when'
p4910
I35
sS'tim'
p4911
I132
sS'setting'
p4912
I138
sS'tie'
p4913
I136
sS'tic'
p4914
I138
sS'panama!\xe2\x9a\xbd'
p4915
I138
sS'picture'
p4916
I125
sS'football'
p4917
I108
sS'20:13:07.0,34.022377,-117.9130264,4081.38,the'
p4918
I138
sS'trailers'
p4919
I138
sS'younger'
p4920
I138
sS'faster'
p4921
I134
sS'serious'
p4922
I128
sS'coach'
p4923
I126
sS'rob'
p4924
I138
sS'adjective'
p4925
I138
sS'roy'
p4926
I137
sS'comments'
p4927
I137
sS'row'
p4928
I138
sS'charge'
p4929
I138
sS':(((('
p4930
I137
sS'advantage'
p4931
I138
sS'playing-'
p4932
I138
sS'soooooooois'
p4933
I138
sS'420'
p4934
I138
sS'cook'
p4935
I138
sS'cool'
p4936
I111
sS'clouds'
p4937
I137
sS'impressive'
p4938
I138
sS'level'
p4939
I136
sS'philippines'
p4940
I138
sS'posts'
p4941
I135
sS'brother'
p4942
I122
sS'cloudy'
p4943
I138
sS'quick'
p4944
I134
sS'says'
p4945
I125
sS'porn'
p4946
I138
sS'trend'
p4947
I138
sS'sucks'
p4948
I128
sS'tirrrrred'
p4949
I138
sS'pedi'
p4950
I138
sS'chicken'
p4951
I134
sS'drinks'
p4952
I138
sS'stressful'
p4953
I135
sS'stands'
p4954
I138
sS'goes'
p4955
I119
sS'reply'
p4956
I134
sS'scripted'
p4957
I138
sS'hairy'
p4958
I138
sS'evolved'
p4959
I138
sS'hairs'
p4960
I138
sS'water'
p4961
I136
sS'baseball'
p4962
I136
sS'dormida'
p4963
I138
sS'healthy'
p4964
I137
sS'chalmers'
p4965
I136
sS'guilty'
p4966
I138
sS'beautiful"'
p4967
I138
sS'weird'
p4968
I124
sS'motherfucking'
p4969
I138
sS'joystiqlight'
p4970
I138
sS'morals'
p4971
I137
sS'compare'
p4972
I137
sS'1st'
p4973
I137
sS'touchdown'
p4974
I138
sS'"my'
p4975
I138
sS'me.\xe2\x80\x9dright'
p4976
I138
sS'crisis'
p4977
I138
sS'vamps'
p4978
I137
sS'russell'
p4979
I131
sS'sports'
p4980
I135
sS'handler'
p4981
I138
sS'andy'
p4982
I138
sS'iphone'
p4983
I136
sS'memory'
p4984
I138
sS'\xe2\x98\x85\xe3\x80\x82'
p4985
I137
sS'today'
p4986
I58
sS'plug'
p4987
I138
sS'riot'
p4988
I138
sS'cashier'
p4989
I138
sS'chocolate'
p4990
I135
sS'cases'
p4991
I138
sS'sike'
p4992
I138
sS'julius'
p4993
I138
sS'sandstorm'
p4994
I138
sS'carter-williams'
p4995
I138
sS'laughter'
p4996
I138
sS'ceez'
p4997
I138
sS'figure'
p4998
I138
sS'tinted'
p4999
I138
sS'dropped'
p5000
I136
sS'secured'
p5001
I138
sS'segir'
p5002
I138
sS'1'
p5003
I124
sS'gonaaaa'
p5004
I138
sS'flexin.,91744\n499624695067844608,jeriahmatthew,2014-08-13'
p5005
I138
sS'speaks'
p5006
I138
sS'goosebumps'
p5007
I138
sS'flavored'
p5008
I138
sS'flirting'
p5009
I138
sS'cocktail'
p5010
I138
sS'crashed'
p5011
I138
sS'outlandish'
p5012
I138
sS'avengers'
p5013
I138
sS'awkward'
p5014
I127
sS'mayweather'
p5015
I138
sS'gerard'
p5016
I138
sS'paid&'
p5017
I138
sS'exclusive'
p5018
I138
sS'needz'
p5019
I138
sS'mainly'
p5020
I137
sS'ferb'
p5021
I138
sS'blocked'
p5022
I138
sS'fasho,91744\n499651154058686464,jeriahmatthew,2014-08-13'
p5023
I138
sS"he's"
p5024
I93
sS'rondo'
p5025
I138
sS"he'd"
p5026
I136
sS'...............yea'
p5027
I138
sS'happened'
p5028
I130
sS'16:32:39.0,34.0157704,-117.9179402,4081.38,sick'
p5029
I138
sS'lonely'
p5030
I137
sS'moms'
p5031
I131
sS'strike\xe2\x80\xa6'
p5032
I138
sS'ppl'
p5033
I134
sS'term'
p5034
I137
sS'equality'
p5035
I138
sS'name'
p5036
I116
sS'sophomore'
p5037
I138
sS'debating'
p5038
I137
sS'possibilities'
p5039
I138
sS'stahp'
p5040
I137
sS'persian'
p5041
I138
sS'begun'
p5042
I138
sS'gordan'
p5043
I138
sS'obsession'
p5044
I137
sS'sunrise'
p5045
I138
sS'plans'
p5046
I136
sS'exclamation'
p5047
I138
sS'factory'
p5048
I138
sS'attracted'
p5049
I137
sS"shouldn't"
p5050
I135
sS'theory'
p5051
I138
sS'hull'
p5052
I138
sS'boobs'
p5053
I138
sS'you.\xe2\x80\x9d'
p5054
I137
sS'flyer'
p5055
I138
sS'yup'
p5056
I130
sS'100%'
p5057
I138
sS'yut'
p5058
I138
sS'motion'
p5059
I138
sS'turn'
p5060
I126
sS'gosling'
p5061
I138
sS'yum'
p5062
I137
sS'swing'
p5063
I138
sS'childhood'
p5064
I137
sS'1000'
p5065
I138
sS'sanchez'
p5066
I137
sS'coming'
p5067
I131
sS'awfully'
p5068
I138
sS'unattainable'
p5069
I138
sS'george'
p5070
I135
sS'rented'
p5071
I138
sS'given'
p5072
I138
sS'gif'
p5073
I138
sS'trillion'
p5074
I138
sS'plastic'
p5075
I138
sS'yorkensteinburger'
p5076
I138
sS'white'
p5077
I122
sS'giver'
p5078
I138
sS'gives'
p5079
I133
sS'hug'
p5080
I137
sS'releases'
p5081
I138
sS'season'
p5082
I121
sS'huh'
p5083
I137
sS'"wandering'
p5084
I138
sS"why..it's"
p5085
I138
sS"jackson's"
p5086
I138
sS'cops'
p5087
I137
sS'copy'
p5088
I137
sS'population'
p5089
I138
sS'wide'
p5090
I138
sS'nathan'
p5091
I138
sS'lmao'
p5092
I82
sS'yasss'
p5093
I138
sS'boobs..like'
p5094
I138
sS'r'
p5095
I133
sS'coat'
p5096
I138
sS'outcome'
p5097
I138
sS'and'
p5098
I9
sS'pro'
p5099
I137
sS'confessed'
p5100
I138
sS"15:14:00.0,34.0221629,-117.9129224,4081.38,it's"
p5101
I138
sS'anw'
p5102
I137
sS'rent'
p5103
I138
sS'any'
p5104
I110
sS'marathon'
p5105
I136
sS'superman'
p5106
I135
sS'ideas'
p5107
I138
sS'sir!"'
p5108
I138
sS'urge'
p5109
I137
sS'sure'
p5110
I112
sS'multiple'
p5111
I134
sS'picks.,91744\n464581013600219136,jeriahmatthew,2014-05-09'
p5112
I138
sS'boiling'
p5113
I138
sS'him..doing'
p5114
I138
sS'freshman'
p5115
I136
sS'icon'
p5116
I138
sS'considered'
p5117
I138
sS'proud'
p5118
I133
sS'hungry'
p5119
I129
sS'hear'
p5120
I123
sS'senior'
p5121
I128
sS'drastically'
p5122
I138
sS'nlt'
p5123
I137
sS'cheat'
p5124
I136
sS'percy'
p5125
I138
sS'hustler'
p5126
I138
sS'knicks'
p5127
I138
sS'state'
p5128
I136
sS'doesssnttt'
p5129
I138
sS'chillies'
p5130
I138
sS'maaaah'
p5131
I138
sS'dye'
p5132
I137
sS'freaking'
p5133
I129
sS'naked'
p5134
I135
sS'jokes'
p5135
I138
sS'"blackish"'
p5136
I138
sS'"floaty\xe2\x80\xa6'
p5137
I138
sS'bought'
p5138
I136
sS'"how'
p5139
I138
sS"y'all"
p5140
I120
sS'ignored'
p5141
I138
sS'college'
p5142
I132
sS'exicting'
p5143
I138
sS'soccer(though'
p5144
I138
sS'orrrr'
p5145
I138
sS'amen'
p5146
I138
sS'outside'
p5147
I133
sS'a.m'
p5148
I138
sS'cholas'
p5149
I138
sS'unappealing'
p5150
I138
sS'5:30'
p5151
I138
sS'25'
p5152
I137
sS'guitar'
p5153
I138
sS'cities'
p5154
I138
sS'come'
p5155
I105
sS'reaction'
p5156
I137
sS'superstar'
p5157
I137
sS'contract'
p5158
I138
sS'"get'
p5159
I138
sS'afterwards'
p5160
I138
sS'color'
p5161
I130
sS'por'
p5162
I138
sS'period'
p5163
I132
sS'pop'
p5164
I135
sS'pom'
p5165
I138
sS'approval'
p5166
I138
sS'69'
p5167
I138
sS'champions'
p5168
I138
sS'parisyoutube'
p5169
I138
sS'huuuurt'
p5170
I138
sS'howard'
p5171
I137
sS'virgin\xe2\x80\x9d'
p5172
I138
sS'hardly'
p5173
I132
sS'robbed'
p5174
I138
sS'andrew'
p5175
I135
sS'irrelevant'
p5176
I136
sS'spirit'
p5177
I134
sS'case'
p5178
I134
sS'shaft'
p5179
I137
sS'myself'
p5180
I106
sS'besame'
p5181
I138
sS'tinashe...,91744\n500203346624389120,jeriahmatthew,2014-08-15'
p5182
I138
sS'spiderman'
p5183
I138
sS'cash'
p5184
I137
sS'cast'
p5185
I138
sS'person"'
p5186
I138
sS'babyseems'
p5187
I138
sS'couples'
p5188
I138
sS'someone'
p5189
I92
sS'ironic'
p5190
I137
sS'nighter'
p5191
I138
sS'$22'
p5192
I138
sS'reminded'
p5193
I138
sS'confidant'
p5194
I138
sS'trip'
p5195
I138
sS'bows'
p5196
I138
sS'buys'
p5197
I137
sS'reminder'
p5198
I137
sS'hitfixpeter'
p5199
I138
sS'nicccce'
p5200
I138
sS'week'
p5201
I117
sS'persona'
p5202
I138
sS'screenshot'
p5203
I138
sS'nest'
p5204
I138
sS'driver'
p5205
I138
sS'persons'
p5206
I137
sS'excavated'
p5207
I138
sS'puke'
p5208
I138
sS'yhe'
p5209
I138
sS'without'
p5210
I120
sS'relief'
p5211
I138
sS'anyone.,91744\n501287177880608768,jeriahmatthew,2014-08-18'
p5212
I138
sS'reward'
p5213
I138
sS'revolution-'
p5214
I138
sS'bodies'
p5215
I136
sS'sinner'
p5216
I138
sS'actress'
p5217
I138
sS'kill'
p5218
I129
sS'yeally'
p5219
I138
sS'girl?-no'
p5220
I138
sS'ny'
p5221
I137
sS"we've"
p5222
I138
sS"everyone's"
p5223
I134
sS'seems'
p5224
I128
sS'except'
p5225
I134
sS'lets'
p5226
I136
sS'lol,91744\n499619511411421184,jeriahmatthew,2014-08-13'
p5227
I138
sS'ross'
p5228
I138
sS'kingdom'
p5229
I138
sS'kills'
p5230
I136
sS'blowout'
p5231
I138
sS'fridge'
p5232
I137
sS'flintstones'
p5233
I138
sS'killa'
p5234
I138
sS'seahawks'
p5235
I131
sS'accepted'
p5236
I137
sS'towel'
p5237
I138
sS'patrick'
p5238
I138
sS'tower'
p5239
I138
sS'staaaahp'
p5240
I138
sS'joking'
p5241
I137
sS'competition'
p5242
I136
sS'cowboys'
p5243
I137
sS'management/production'
p5244
I137
sS'*nods'
p5245
I138
sS'provided'
p5246
I138
sS'mood'
p5247
I129
sS"o'"
p5248
I133
sS'douchebag'
p5249
I138
sS'moon'
p5250
I137
sS'nutty'
p5251
I138
sS'ahahahah'
p5252
I135
sS'tiene'
p5253
I138
sS'lmfao'
p5254
I137
sS'beached'
p5255
I138
sS'nails'
p5256
I136
sS'desparta'
p5257
I138
sS'stereotypes'
p5258
I137
sS'on'
p5259
I23
sS'ol'
p5260
I138
sS'ok'
p5261
I114
sS'oj'
p5262
I138
sS'oh'
p5263
I114
sS'of'
p5264
I15
sS'shrimp'
p5265
I138
sS'oz'
p5266
I137
sS'stank'
p5267
I138
sS'ot'
p5268
I138
sS'or'
p5269
I43
sS'amber'
p5270
I137
sS'tribe'
p5271
I137
sS'ladies'
p5272
I135
sS'augustus'
p5273
I136
sS'accounts'
p5274
I137
sS'cent'
p5275
I138
sS'determine'
p5276
I138
sS'08:18:49.0,34.0250921,-117.9119558,4081.38,people'
p5277
I138
sS'there'
p5278
I83
sS'racism'
p5279
I138
sS'ynderstand'
p5280
I138
sS'a$$'
p5281
I138
sS'racist'
p5282
I135
sS'deteriorating'
p5283
I138
sS'cultures'
p5284
I138
sS'energy'
p5285
I134
sS'ehh'
p5286
I138
sS'treat'
p5287
I137
sS'75%'
p5288
I138
sS'remix)'
p5289
I138
sS'longer'
p5290
I135
sS'applying'
p5291
I138
sS'laverne'
p5292
I138
sS'*sick'
p5293
I138
sS'grasp'
p5294
I138
sS'creeping'
p5295
I138
sS'strongly'
p5296
I138
sS'taylor'
p5297
I138
sS'taste'
p5298
I136
sS'politics'
p5299
I138
sS'hasnt'
p5300
I138
sS'8a'
p5301
I138
sS'roses'
p5302
I138
sS'5'
p5303
I113
sS'f**k'
p5304
I138
sS'trash'
p5305
I135
sS'championship'
p5306
I136
sS'\xe3\x80\x82\xe2\x98\x86\xe3\x80\x82\xe2\x98\x86'
p5307
I137
sS'pillows'
p5308
I138
sS'separate'
p5309
I137
sS'finale'
p5310
I135
sS'included'
p5311
I138
sS'finals'
p5312
I131
sS'srry'
p5313
I138
sS'applause'
p5314
I138
sS'calls'
p5315
I137
sS'wife'
p5316
I137
sS'odds'
p5317
I138
sS'wifi'
p5318
I138
sS'barcelona'
p5319
I138
sS'disagreeing'
p5320
I138
sS'derrick'
p5321
I138
sS'apparel'
p5322
I138
sS'trooper'
p5323
I138
sS'all'
p5324
I32
sS'..what'
p5325
I138
sS'lack'
p5326
I138
sS'dish'
p5327
I137
sS'follow'
p5328
I133
sS'pts'
p5329
I138
sS'hmmm'
p5330
I138
sS'synthetic'
p5331
I138
sS'apartment'
p5332
I136
sS"xseed's"
p5333
I138
sS'wassup'
p5334
I138
sS'thursday'
p5335
I134
sS'aaron'
p5336
I138
sS'program'
p5337
I138
sS'siblings'
p5338
I138
sS'woman'
p5339
I134
sS'worse'
p5340
I132
sS'song'
p5341
I122
sS'far'
p5342
I128
sS'uuuuuuuhhhhhh'
p5343
I138
sS'fav'
p5344
I138
sS'fat'
p5345
I132
sS'sons'
p5346
I136
sS'worst'
p5347
I131
sS'fam'
p5348
I137
sS'awful'
p5349
I130
sS'dapper'
p5350
I138
sS'rebounds'
p5351
I137
sS'fag'
p5352
I138
sS'you.\xe2\x9d\xa4\xef\xb8\x8f'
p5353
I138
sS'list'
p5354
I136
sS'vibes'
p5355
I136
sS'morgan"'
p5356
I138
sS'slore'
p5357
I137
sS'rate'
p5358
I138
sS'nbc'
p5359
I138
sS'nba'
p5360
I119
sS'what'
p5361
I54
sS'brien'
p5362
I133
sS'deeply'
p5363
I138
sS'sum'
p5364
I138
sS'crush'
p5365
I132
sS'"white'
p5366
I138
sS'guns'
p5367
I138
sS'cheetahs'
p5368
I138
sS'christian'
p5369
I138
sS'naptime'
p5370
I137
sS'half-eaten'
p5371
I138
sS'relaxation'
p5372
I138
sS'directions'
p5373
I138
sS'allows'
p5374
I138
sS'cucumbers'
p5375
I138
sS'options'
p5376
I137
sS'sticking'
p5377
I138
sS'one\xe2\x80\xa6'
p5378
I138
sS'suddenly'
p5379
I137
sS'semester'
p5380
I134
sS'know"'
p5381
I138
sS'\xe2\x88\x9e'
p5382
I138
sS'emoji'
p5383
I137
sS'munchies'
p5384
I138
sS'\xe2\x98\x9d\xef\xb8\x8f'
p5385
I136
sS'shits'
p5386
I137
sS'tryna'
p5387
I133
sS'knows'
p5388
I132
sS'yahl'
p5389
I134
sS'flag'
p5390
I138
sS'basically'
p5391
I134
sS'known'
p5392
I138
sS'glad'
p5393
I121
sS'yeaaaaa'
p5394
I138
sS'shit-'
p5395
I138
sS'v'
p5396
I136
sS'teague'
p5397
I138
sS'embarrassing'
p5398
I135
sS'challenging'
p5399
I138
sS'brown'
p5400
I135
sS'reputation'
p5401
I138
sS'extinguisher'
p5402
I138
sS'shitastic'
p5403
I137
sS'court'
p5404
I138
sS'goal'
p5405
I130
sS'rather'
p5406
I134
sS'breaking'
p5407
I138
sS'khelo'
p5408
I138
sS'buenos'
p5409
I138
sS'funny)'
p5410
I138
sS'okay'
p5411
I115
sS'cancun'
p5412
I137
sS'never-ending'
p5413
I138
sS'reflect'
p5414
I138
sS'adventure'
p5415
I138
sS'numb'
p5416
I136
sS'talkss'
p5417
I138
sS'short'
p5418
I133
sS'bizness'
p5419
I138
sS'shady'
p5420
I137
sS'nonchalantly'
p5421
I138
sS'/-\\'
p5422
I137
sS'$2500'
p5423
I138
sS"don't"
p5424
I26
sS'september'
p5425
I134
sS'developed'
p5426
I137
sS'brotha'
p5427
I138
sS'mission'
p5428
I135
sS'isnt'
p5429
I137
sS'forgiving'
p5430
I138
sS'style'
p5431
I137
sS'pray'
p5432
I136
sS'beyonce'
p5433
I135
sS'\xe2\x9c\x8b\xe2\x80\x9d'
p5434
I138
sS'strange'
p5435
I137
sS'argentina'
p5436
I136
sS'soccer'
p5437
I118
sS'might'
p5438
I112
sS'somebody'
p5439
I135
sS'clippers'
p5440
I133
sS'searching.,91744\n500010299299094530,jeriahmatthew,2014-08-14'
p5441
I138
sS'thuglyfe'
p5442
I136
sS'bigger'
p5443
I136
sS'marcus'
p5444
I137
sS'presented'
p5445
I138
sS'stiles'
p5446
I138
sS'mastered'
p5447
I138
sS'friendship'
p5448
I135
sS'pirates'
p5449
I138
sS'weight'
p5450
I137
sS'generation'
p5451
I137
sS'white/black"how'
p5452
I138
sS'soledad'
p5453
I138
sS'expect'
p5454
I137
sS'prolly'
p5455
I138
sS'alcohol'
p5456
I136
sS'4pm'
p5457
I138
sS'health'
p5458
I137
sS'hill'
p5459
I138
sS'paradise'
p5460
I138
sS'hollins'
p5461
I138
sS'friday'
p5462
I134
sS'forgive'
p5463
I137
sS'teach'
p5464
I138
sS'thrown'
p5465
I138
sS'lol"'
p5466
I138
sS"year's"
p5467
I138
sS'*whispers*'
p5468
I138
sS'throws'
p5469
I138
sS'feel'
p5470
I75
sS'relate'
p5471
I137
sS'well-known'
p5472
I138
sS'story'
p5473
I129
sS'"'
p5474
I133
sS'thanxxx'
p5475
I137
sS'97%'
p5476
I138
sS'23:48:08.0,34.0221502,-117.9129957,4081.38,andrew'
p5477
I138
sS'passed'
p5478
I138
sS'store'
p5479
I133
sS'headache'
p5480
I136
sS'exploded'
p5481
I138
sS'$5'
p5482
I138
sS'explodes'
p5483
I138
sS'king'
p5484
I134
sS'kind'
p5485
I133
sS'throttle'
p5486
I137
sS'double'
p5487
I138
sS'outrageous'
p5488
I138
sS'dank'
p5489
I138
sS'dang'
p5490
I136
sS'larkin'
p5491
I138
sS'dana'
p5492
I138
sS'motivation'
p5493
I138
sS'uniforms'
p5494
I138
sS'alike'
p5495
I138
sS'hopelessly'
p5496
I137
sS'nights'
p5497
I134
sS'entirety'
p5498
I138
sS'finding'
p5499
I133
sS'buff'
p5500
I135
sS'added'
p5501
I138
sS'electric'
p5502
I138
sS'reach'
p5503
I138
sS'reunited'
p5504
I138
sS'jst'
p5505
I138
sS'cigarette'
p5506
I138
sS'72'
p5507
I138
sS'sandra'
p5508
I138
sS'nothing'
p5509
I112
sS'windows'
p5510
I138
sS'"you\'re'
p5511
I137
sS'reestablished'
p5512
I138
sS'lying'
p5513
I138
sS'simons,91744\n482308129707659264,jeriahmatthew,2014-06-26'
p5514
I138
sS'rte'
p5515
I138
sS'rtd'
p5516
I137
sS'grandmas'
p5517
I138
sS'stfu'
p5518
I128
sS'rts'
p5519
I137
sS'etsy'
p5520
I138
sS'testicles'
p5521
I138
sS'starters'
p5522
I138
sS'dominant/submissive'
p5523
I138
sS'his'
p5524
I90
sS'hit'
p5525
I127
sS'fastest'
p5526
I137
sS'him'
p5527
I83
sS'typos'
p5528
I138
sS'metta'
p5529
I137
sS'wrote'
p5530
I138
sS'bars'
p5531
I138
sS'barr'
p5532
I138
sS'art'
p5533
I137
sS'intelligence'
p5534
I138
sS'defense'
p5535
I135
sS'dumb'
p5536
I121
sS'are'
p5537
I28
sS'bark'
p5538
I138
sS'arm'
p5539
I138
sS'2.5'
p5540
I138
sS'spirited'
p5541
I138
sS'((not'
p5542
I138
sS'squaresword'
p5543
I138
sS'consecutive'
p5544
I138
sS'corruption'
p5545
I138
sS'obscenities'
p5546
I138
sS'korea'
p5547
I137
sS'recently'
p5548
I136
sS'creating'
p5549
I137
sS'sold'
p5550
I135
sS'attention'
p5551
I134
sS'betrayer'
p5552
I138
sS'succeed'
p5553
I136
sS'betrayed'
p5554
I138
sS'lyrical'
p5555
I136
sS'c'
p5556
I138
sS'became'
p5557
I136
sS'8am'
p5558
I138
sS'annie'
p5559
I138
sS'finds'
p5560
I137
sS'guts'
p5561
I138
sS'sweet'
p5562
I133
sS'sweep'
p5563
I137
sS'dudes'
p5564
I138
sS'duh'
p5565
I136
sS'ps'
p5566
I137
sS'"parenting"'
p5567
I138
sS'pt'
p5568
I136
sS'scented'
p5569
I138
sS'due'
p5570
I138
sS'strategy'
p5571
I138
sS'pa'
p5572
I138
sS'pf'
p5573
I138
sS'whoa'
p5574
I135
sS'woke'
p5575
I128
sS'tht'
p5576
I138
sS'frozen'
p5577
I137
sS'ahah'
p5578
I138
sS'homework'
p5579
I135
sS"18:35:13.0,34.0221313,-117.9128741,4081.38,i'm"
p5580
I138
sS"who'"
p5581
I138
sS'theres'
p5582
I138
sS'rip'
p5583
I137
sS'rio'
p5584
I138
sS'jadeveon'
p5585
I138
sS'rim'
p5586
I138
sS'"easy'
p5587
I138
sS'yosemite'
p5588
I138
sS'santos'
p5589
I137
sS'shirt'
p5590
I134
sS'fading'
p5591
I138
sS'listos'
p5592
I138
sS'peoples'
p5593
I135
sS'higher'
p5594
I137
sS'cement'
p5595
I138
sS'*rolls'
p5596
I138
sS'triad'
p5597
I138
sS"y'all,91744\n501607147260878848,thehomieirving_,2014-08-19"
p5598
I138
sS'people"'
p5599
I138
sS'cheek'
p5600
I138
sS'anybody'
p5601
I137
sS'edge'
p5602
I138
sS'starved'
p5603
I138
sS'doggies'
p5604
I138
sS'hotdog'
p5605
I138
sS'mood('
p5606
I138
sS'montse'
p5607
I138
sS'questions'
p5608
I136
sS'prince'
p5609
I137
sS'yesyes'
p5610
I138
sS'taggs'
p5611
I138
sS'customers'
p5612
I138
sS'sounding'
p5613
I138
sS'moods'
p5614
I138
sS'moody'
p5615
I138
sS'shuddup'
p5616
I137
sS'ponyboy'
p5617
I138
sS'ignore'
p5618
I138
sS'collect'
p5619
I138
sS'nipple'
p5620
I135
sS'fucking'
p5621
I93
sS'arrived'
p5622
I138
sS'understood'
p5623
I138
sS'"we'
p5624
I138
sS'wonderland'
p5625
I138
sS'pros'
p5626
I138
sS'js'
p5627
I138
sS'prom'
p5628
I137
sS'yoooo'
p5629
I138
sS'prof'
p5630
I138
sS'anne'
p5631
I138
sS'jawline'
p5632
I138
sS'anna'
p5633
I138
sS'kelsey'
p5634
I138
sS's/o'
p5635
I136
sS'nuevo'
p5636
I138
sS'intense'
p5637
I137
sS'vivid'
p5638
I138
sS'plaza'
p5639
I138
sS'page'
p5640
I136
sS'range'
p5641
I138
sS'hatred'
p5642
I138
sS'wanna'
p5643
I97
sS'dwight'
p5644
I138
sS'foooo'
p5645
I138
sS'moss'
p5646
I138
sS'mommy'
p5647
I138
sS'momma'
p5648
I137
sS'nigga'
p5649
I130
sS'kissers'
p5650
I138
sS"mcm's"
p5651
I138
sS'stench'
p5652
I138
sS'question'
p5653
I133
sS'fast'
p5654
I129
sS"we're"
p5655
I122
sS'summertime'
p5656
I138
sS'bruh'
p5657
I129
sS'girlfriends'
p5658
I138
sS'fulfilling'
p5659
I138
sS'jessica...jj'
p5660
I138
sS"hasn't"
p5661
I137
sS'prep'
p5662
I138
sS'boards'
p5663
I138
sS'highlight'
p5664
I138
sS'&yes'
p5665
I138
sS'called'
p5666
I131
sS'say'
p5667
I90
sS'individuality'
p5668
I138
sS'"cuban"'
p5669
I138
sS'gunpoint'
p5670
I138
sS'jiiiivveehavinggg'
p5671
I138
sS'rally'
p5672
I138
sS'jlo'
p5673
I138
sS'lemon'
p5674
I138
sS'bed/sleeping'
p5675
I138
sS'nico'
p5676
I138
sS'yeacher'
p5677
I138
sS'nice'
p5678
I114
sS'problems'
p5679
I135
sS'meaning'
p5680
I137
sS'everone'
p5681
I138
sS'gloopy'
p5682
I138
sS'remix'
p5683
I138
sS'8:15'
p5684
I138
sS'vick'
p5685
I131
sS'gr8'
p5686
I135
sS'geeez'
p5687
I138
sS'aiko'
p5688
I137
sS'back"'
p5689
I138
sS'once'
p5690
I122
sS'steve'
p5691
I137
sS'amandote'
p5692
I138
sS'issues'
p5693
I136
sS'simon'
p5694
I138
sS"gym..he's"
p5695
I138
sS'languages'
p5696
I138
sS'waiters'
p5697
I138
sS'confirmation'
p5698
I138
sS'drinking'
p5699
I137
sS'bryant'
p5700
I138
sS"patty's"
p5701
I137
sS'gullible'
p5702
I138
sS'businesses'
p5703
I138
sS'sandman'
p5704
I138
sS'smaller'
p5705
I138
sS"you'd"
p5706
I137
sS'sensation'
p5707
I138
sS'traveling'
p5708
I138
sS'folk'
p5709
I138
sS'"people'
p5710
I138
sS'outsmart'
p5711
I138
sS'hardest'
p5712
I138
sS"man's"
p5713
I137
sS'waiting'
p5714
I130
sS'agshahdnxldlk\xe2\x80\x9d'
p5715
I138
sS'bazinga'
p5716
I138
sS'degree'
p5717
I137
sS'pushing'
p5718
I138
sS'sexy'
p5719
I127
sS'win'
p5720
I120
sS'views.,91744\n499479317173530624,jeriahmatthew,2014-08-13'
p5721
I138
sS'gay...but'
p5722
I138
sS'shades'
p5723
I134
sS'leaving'
p5724
I138
sS'fuken'
p5725
I135
sS'shaded'
p5726
I138
sS"dad's"
p5727
I138
sS'goofball'
p5728
I138
sS'nosemy'
p5729
I138
sS'forbid'
p5730
I138
sS'fullerton'
p5731
I137
sS'app'
p5732
I137
sS'pasta'
p5733
I138
sS'"finna"'
p5734
I138
sS'apply'
p5735
I137
sS'redo'
p5736
I138
sS'use'
p5737
I122
sS'hahahahaha'
p5738
I130
sS'lottery'
p5739
I138
sS'hippie'
p5740
I138
sS'usa'
p5741
I124
sS'&'
p5742
I29
sS'feo'
p5743
I138
sS'few'
p5744
I129
sS'sort'
p5745
I137
sS'clever'
p5746
I138
sS'impress'
p5747
I138
sS'sore'
p5748
I132
sS'rabbit'
p5749
I138
sS'giano'
p5750
I137
sS'penis'
p5751
I136
sS'women'
p5752
I133
sS'perder'
p5753
I138
sS'us-'
p5754
I138
sS'anywhere'
p5755
I137
sS'siick'
p5756
I138
sS'freedom'
p5757
I138
sS'fighter'
p5758
I138
sS'performed'
p5759
I137
sS'thirsty'
p5760
I137
sS'tas'
p5761
I138
sS'tag'
p5762
I136
sS'something'
p5763
I110
sS'tan'
p5764
I136
sS'sis'
p5765
I138
sS'united'
p5766
I138
sS'sit'
p5767
I137
sS'cardio'
p5768
I138
sS'six'
p5769
I137
sS'perks'
p5770
I138
sS'slandering'
p5771
I138
sS'instead'
p5772
I133
sS'struggled'
p5773
I138
sS'sin'
p5774
I136
sS'gurl'
p5775
I138
sS'sunny'
p5776
I138
sS'taco'
p5777
I135
sS'hahahaha'
p5778
I133
sS'tace'
p5779
I138
sS'somethin'
p5780
I138
sS'light'
p5781
I134
sS'honestly'
p5782
I66
sS'pluming'
p5783
I138
sS'necklace'
p5784
I138
sS'disrespecting'
p5785
I138
sS'whilst'
p5786
I137
sS'dearest'
p5787
I138
sS'looks'
p5788
I127
sS'nostalgic'
p5789
I138
sS'7:00'
p5790
I138
sS'choose'
p5791
I137
sS'orange'
p5792
I138
sS'covered'
p5793
I138
sS'bye'
p5794
I138
sS'crash'
p5795
I138
sS'practice'
p5796
I133
sS'ambition'
p5797
I138
sS'flee'
p5798
I138
sS'articles'
p5799
I138
sS'edit'
p5800
I137
sS'nfl'
p5801
I137
sS'unpredictable'
p5802
I138
sS'bills'
p5803
I137
sS'tray'
p5804
I138
sS'23:44:59.0,34.0221502,-117.9129957,4081.38,the'
p5805
I138
sS'fried'
p5806
I138
sS'our'
p5807
I104
sS'proclaim'
p5808
I138
sS'out'
p5809
I48
sS'respects'
p5810
I138
sS'sufficed'
p5811
I138
sS'goodnight\xe2\x80\x9dgoodnight'
p5812
I138
sS'poets'
p5813
I138
sS'supports'
p5814
I138
sS'dictionary'
p5815
I137
sS'ipod'
p5816
I135
sS'marquise'
p5817
I138
sS'york'
p5818
I136
sS'g'
p5819
I137
sS'conversation'
p5820
I135
sS'birthday'
p5821
I123
sS'biting'
p5822
I138
sS'exam'
p5823
I138
sS"doesn't"
p5824
I114
sS'guanajuato'
p5825
I137
sS'unknown'
p5826
I138
sS'myspace'
p5827
I138
sS'accent'
p5828
I138
sS'priority'
p5829
I138
sS'their'
p5830
I107
sS"god's"
p5831
I138
sS'philips'
p5832
I137
sS'come."'
p5833
I138
sS'july'
p5834
I133
sS'boring'
p5835
I137
sS'"got'
p5836
I138
sS'encore'
p5837
I138
sS'fowl'
p5838
I138
sS'ringer'
p5839
I138
sS'biggy'
p5840
I138
sS'afraid'
p5841
I135
sS'pupils'
p5842
I138
sS'glover(childish'
p5843
I138
sS'neeeeed\xe2\x80\x9d'
p5844
I138
sS'agency'
p5845
I138
sS'bagel'
p5846
I138
sS'which'
p5847
I136
sS'asshole'
p5848
I138
sS'martha'
p5849
I138
sS'='
p5850
I132
sS'knees'
p5851
I138
sS'who'
p5852
I67
sS'cracking'
p5853
I138
sS'why'
p5854
I54
sS'deny'
p5855
I138
sS'looked'
p5856
I134
sS'xavier'
p5857
I138
sS'goals'
p5858
I134
sS'chances'
p5859
I138
sS'agreed'
p5860
I138
sS'ayeah'
p5861
I138
sS'planning'
p5862
I134
sS'myspace"'
p5863
I138
sS'fear'
p5864
I136
sS'darkest'
p5865
I138
sS'oookkk'
p5866
I138
sS'durant'
p5867
I138
sS'highest'
p5868
I138
sS'hudgens'
p5869
I138
sS'local'
p5870
I136
sS'cube'
p5871
I138
sS'watching'
p5872
I106
sS'dope'
p5873
I137
sS'massacre'
p5874
I138
sS'awww'
p5875
I137
sS'ones'
p5876
I131
sS'words'
p5877
I133
sS'99-'
p5878
I138
sS'tatsu'
p5879
I138
sS'ghetto'
p5880
I134
sS'qt'
p5881
I138
sS'brain'
p5882
I138
sS'married'
p5883
I131
sS'qb'
p5884
I135
sS'superstarparker='
p5885
I138
sS'generations'
p5886
I138
sS'knowing'
p5887
I136
sS'19:19:21.0,34.0220682,-117.9128728,4081.38,i'
p5888
I138
sS'heathens'
p5889
I138
sS'unfairly'
p5890
I138
sS'closer'
p5891
I135
sS'closes'
p5892
I138
sS'cole'
p5893
I137
sS'(them)'
p5894
I138
sS'meatballs'
p5895
I138
sS'favor'
p5896
I138
sS'mexicans'
p5897
I138
sS'viper'
p5898
I138
sS'cruda'
p5899
I138
sS'"nothing'
p5900
I138
sS'pants'
p5901
I137
sS'weighing'
p5902
I138
sS'ability'
p5903
I138
sS'trynna'
p5904
I138
sS'dateless'
p5905
I138
sS'joy'
p5906
I135
sS'mirco'
p5907
I138
sS'mt.sac'
p5908
I138
sS'job'
p5909
I129
sS'joe'
p5910
I138
sS'01:41:59.0,34.0220039,-117.9129645,4081.38,tony'
p5911
I138
sS'swift'
p5912
I138
sS'jon'
p5913
I137
sS'wnba'
p5914
I138
sS'atleast'
p5915
I138
sS'a-gone'
p5916
I138
sS'wall'
p5917
I138
sS'sexiest'
p5918
I138
sS'walk'
p5919
I130
sS'rpg'
p5920
I138
sS'respect'
p5921
I128
sS'oooorrr'
p5922
I138
sS'chiken'
p5923
I138
sS'faltan'
p5924
I138
sS'responds'
p5925
I138
sS'know)'
p5926
I138
sS'"i\'m'
p5927
I138
sS'oneself.\xe2\x80\x9d'
p5928
I138
sS'bbq'
p5929
I138
sS'remedies'
p5930
I138
sS'mike'
p5931
I134
sS'nickel'
p5932
I138
sS'hmu'
p5933
I136
sS'hmm'
p5934
I138
sS'unlike'
p5935
I138
sS'la/chinatown'
p5936
I138
sS'vanilla'
p5937
I138
sS'ejection'
p5938
I138
sS'will'
p5939
I83
sS'wild'
p5940
I137
sS'refs'
p5941
I138
sS'fernandinho'
p5942
I138
sS'avi'
p5943
I137
sS'whore'
p5944
I135
sS'kissed'
p5945
I137
sS'perhaps'
p5946
I138
sS'cross'
p5947
I134
sS'jenna'
p5948
I138
sS'gets'
p5949
I123
sS'privileged'
p5950
I138
sS'difficult'
p5951
I138
sS'yooo'
p5952
I137
sS'coached'
p5953
I137
sS'premiere'
p5954
I138
sS'huh?,91744\n499478903078268928,jeriahmatthew,2014-08-13'
p5955
I138
sS'beast'
p5956
I138
sS'coaches'
p5957
I138
sS'student'
p5958
I138
sS'whale'
p5959
I136
sS'l.a'
p5960
I135
sS'fighting'
p5961
I137
sS'"run'
p5962
I138
sS'english'
p5963
I138
sS'deion'
p5964
I138
sS"dayain't"
p5965
I138
sS'carrie'
p5966
I136
sS'cried'
p5967
I136
sS"should've"
p5968
I136
sS'obtain'
p5969
I138
sS'happiness'
p5970
I136
sS'aguero'
p5971
I135
sS'him.,91744\n482309783056162816,jeriahmatthew,2014-06-26'
p5972
I138
sS'bell'
p5973
I137
sS'smith'
p5974
I137
sS'airplanes-local'
p5975
I138
sS'nicki'
p5976
I137
sS'sonrise'
p5977
I138
sS'attractive'
p5978
I120
sS"who's"
p5979
I133
sS'todayfav'
p5980
I138
sS'know'
p5981
I39
sS'facial'
p5982
I135
sS'doughnut'
p5983
I138
sS'miami'
p5984
I130
sS'loser'
p5985
I137
sS'loses'
p5986
I138
sS'january'
p5987
I138
sS'because'
p5988
I86
sS'muertos'
p5989
I138
sS'scared'
p5990
I132
sS'flagrant'
p5991
I138
sS'"beautiful"'
p5992
I138
sS'bezzy'
p5993
I138
sS'jeremy'
p5994
I138
sS'lead'
p5995
I136
sS"gettin'"
p5996
I138
sS'philosopher'
p5997
I138
sS'expensive'
p5998
I138
sS':(((((('
p5999
I138
sS'trout'
p6000
I138
sS'ripped'
p6001
I138
sS'obey'
p6002
I138
sS'ministers/priests/religious'
p6003
I138
sS'handedly'
p6004
I138
sS'kd4'
p6005
I138
sS'rare'
p6006
I137
sS'00:12:06.0,34.0221502,-117.9129957,4081.38,now'
p6007
I138
sS'getting'
p6008
I92
sS'acts"'
p6009
I138
sS'carries'
p6010
I138
sS'swear'
p6011
I123
sS'sweat'
p6012
I133
sS'channing'
p6013
I138
sS'own'
p6014
I127
sS'loner'
p6015
I138
sS'fundraiser'
p6016
I138
sS'weather'
p6017
I137
sS'registration'
p6018
I138
sS'eh'
p6019
I138
sS'van'
p6020
I137
sS'crave'
p6021
I138
sS'transfer'
p6022
I138
sS'cinderella'
p6023
I138
sS'apps'
p6024
I138
sS'kidding'
p6025
I138
sS'intention'
p6026
I138
sS'bitchez'
p6027
I135
sS'baaaaam'
p6028
I138
sS"i've"
p6029
I87
sS'shane'
p6030
I138
sS'bitches'
p6031
I136
sS'made'
p6032
I118
sS'arnt'
p6033
I137
sS'whether'
p6034
I137
sS'record'
p6035
I137
sS'catching'
p6036
I138
sS'know.,91744\n501171133971193856,jeriahmatthew,2014-08-18'
p6037
I138
sS'cake'
p6038
I138
sS'intimidating'
p6039
I138
sS'kids?\xe2\x80\x9d'
p6040
I138
sS'meaningless'
p6041
I138
sS'adorbs'
p6042
I138
sS'mya'
p6043
I138
sS'couponing'
p6044
I138
sS'happen'
p6045
I131
sS'adorbz'
p6046
I137
sS'gizmo'
p6047
I138
sS'19:18:35.0,34.0220861,-117.9129177,4081.38,i'
p6048
I138
sS'incredible'
p6049
I138
sS'boos'
p6050
I138
sS'boot'
p6051
I138
sS'\xe2\x9b\x85\xef\xb8\x8f'
p6052
I138
sS'other'
p6053
I110
sS'boom'
p6054
I138
sS'sick'
p6055
I127
sS'boob'
p6056
I138
sS'yired'
p6057
I137
sS'idkis'
p6058
I138
sS'kinda'
p6059
I118
sS'cliff'
p6060
I138
sS'bcs'
p6061
I138
s.