(dp0
S''
p1
I1
sS'monterey'
p2
I32
sS'all'
p3
I31
sS':/'
p4
I31
sS':('
p5
I30
sS':)'
p6
I30
sS'known'
p7
I32
sS'sleep'
p8
I31
sS'asian'
p9
I32
sS'skin'
p10
I32
sS'go'
p11
I25
sS'golf'
p12
I32
sS'psycho'
p13
I32
sS'tweeted'
p14
I32
sS'hate'
p15
I31
sS'apartment'
p16
I32
sS'hahaha'
p17
I32
sS'tweet'
p18
I32
sS'to'
p19
I4
sS'finally'
p20
I30
sS'under'
p21
I32
sS'tf'
p22
I30
sS'lord'
p23
I32
sS'sorry'
p24
I32
sS'alternating'
p25
I32
sS'nba2k14'
p26
I32
sS'jerk'
p27
I32
sS'song'
p28
I32
sS'far'
p29
I30
sS'memories'
p30
I32
sS"talk'"
p31
I32
sS'fat'
p32
I32
sS'vegas'
p33
I31
sS'every'
p34
I31
sS'cellular'
p35
I32
sS'fall'
p36
I31
sS'fab'
p37
I32
sS'drinking'
p38
I32
sS'fag'
p39
I32
sS'\xe2\xac\x86\xef\xb8\x8f\xe2\x86\x97\xef\xb8\x8f\xe2\x9e\xa1\xef\xb8\x8f\xe2\xac\x87\xef\xb8\x8f'
p40
I32
sS'school'
p41
I32
sS'level'
p42
I32
sS'did'
p43
I31
sS'posts'
p44
I32
sS'christmas'
p45
I32
sS'try'
p46
I31
sS'item'
p47
I32
sS'cusp'
p48
I32
sS'quick'
p49
I32
sS'guy'
p50
I32
sS'happier'
p51
I32
sS"i'll"
p52
I30
sS"everyone's"
p53
I32
sS'castles'
p54
I32
sS'work'
p55
I30
sS'booty'
p56
I32
sS'sigh'
p57
I32
sS'n__n'
p58
I32
sS'weddings'
p59
I32
sS'come...there'
p60
I32
sS'hahahahahahah'
p61
I32
sS'jump'
p62
I32
sS'tfios'
p63
I32
sS'booth'
p64
I32
sS'pass'
p65
I32
sS'air'
p66
I32
sS'gm'
p67
I32
sS'even'
p68
I29
sS'what'
p69
I21
sS'norris'
p70
I32
sS':0'
p71
I32
sS'bc'
p72
I32
sS'caffeine'
p73
I32
sS'stokedd'
p74
I32
sS"gain...i've"
p75
I32
sS'freaks'
p76
I32
sS'neners'
p77
I32
sS'new'
p78
I31
sS'order'
p79
I32
sS'gawd'
p80
I32
sS'full'
p81
I32
sS'never'
p82
I30
sS'here'
p83
I30
sS'everyday....i'
p84
I32
sS'hours'
p85
I30
sS'\xe2\x9d\xa4\xef\xb8\x8f'
p86
I30
sS'les'
p87
I32
sS'let'
p88
I31
sS'mudbutt911'
p89
I32
sS'sexy'
p90
I32
sS'ps4...gonna'
p91
I32
sS'earthquake'
p92
I32
sS'5/14/14'
p93
I32
sS'wait'
p94
I32
sS'boy'
p95
I32
sS'great'
p96
I32
sS'kids'
p97
I32
sS'my'
p98
I5
sS'study'
p99
I32
sS'36'
p100
I32
sS'los'
p101
I32
sS"i'd"
p102
I32
sS'boo'
p103
I32
sS"i'm"
p104
I15
sS"dad's"
p105
I32
sS'thats'
p106
I31
sS'eyebrows'
p107
I32
sS'\xe2\x9d\xa4\xef\xb8\x8f\xe2\x9d\xa4\xef\xb8\x8f\xe2\x9d\xa4\xef\xb8\x8f\xe2\x9d\xa4\xef\xb8\x8f\xe2\x9d\xa4\xef\xb8\x8f'
p108
I32
sS'love'
p109
I24
sS'apple'
p110
I31
sS'extra'
p111
I32
sS'suddenly'
p112
I32
sS'sgv'
p113
I32
sS'till'
p114
I29
sS'fake'
p115
I31
sS'spanked\xe2\x80\x9d'
p116
I32
sS'market'
p117
I32
sS'yourself'
p118
I30
sS'from'
p119
I28
sS'working'
p120
I30
sS'&'
p121
I32
sS'donuts'
p122
I31
sS'hospital'
p123
I32
sS'dude'
p124
I31
sS'two'
p125
I28
sS'moth'
p126
I32
sS'live'
p127
I32
sS'\xe2\x98\x80\xef\xb8\x8f4\xe2\x83\xa3'
p128
I32
sS'call'
p129
I32
sS'bedrock'
p130
I32
sS'6'
p131
I32
sS'taken'
p132
I32
sS'survive'
p133
I31
sS'angels'
p134
I32
sS'tell'
p135
I30
sS'today'
p136
I25
sS'more'
p137
I27
sS'tryna'
p138
I30
sS'popped'
p139
I32
sS'clever'
p140
I32
sS'babe'
p141
I31
sS'knows'
p142
I32
sS'started'
p143
I32
sS'brings'
p144
I32
sS'haha'
p145
I26
sS'occurred'
p146
I32
sS'confused'
p147
I32
sS'phone'
p148
I32
sS'train'
p149
I32
sS"ain't"
p150
I30
sS'rip'
p151
I32
sS'broke'
p152
I32
sS'baby'
p153
I31
sS'foundations'
p154
I32
sS'hurry'
p155
I32
sS'must'
p156
I28
sS'me'
p157
I11
sS'topic'
p158
I32
sS'none'
p159
I32
sS'balls'
p160
I32
sS'room'
p161
I30
sS'britney'
p162
I32
sS'shame'
p163
I32
sS'this'
p164
I18
sS'car'
p165
I31
sS'blanford'
p166
I32
sS'getting'
p167
I26
sS'farted'
p168
I32
sS'soul'
p169
I32
sS'ip'
p170
I32
sS'vs'
p171
I32
sS'nine'
p172
I32
sS'can'
p173
I27
sS'meet'
p174
I32
sS'bites'
p175
I31
sS'100%'
p176
I32
sS'stubborn'
p177
I32
sS'loca'
p178
I32
sS'14r'
p179
I32
sS'give'
p180
I31
sS'awesome'
p181
I31
sS'beautifully'
p182
I32
sS"didn't"
p183
I31
sS'fuck'
p184
I30
sS'high'
p185
I32
sS"xbox...i've"
p186
I32
sS'something'
p187
I32
sS'want'
p188
I23
sS'made'
p189
I32
sS'caaaaause'
p190
I32
sS'angeles'
p191
I32
sS'united'
p192
I32
sS'end'
p193
I32
sS'heights\xe2\x80\xa6'
p194
I32
sS'awkward'
p195
I32
sS'watching'
p196
I29
sS'1'
p197
I30
sS'how'
p198
I25
sS'sunday'
p199
I32
sS'ish'
p200
I32
sS'actual'
p201
I32
sS'animal'
p202
I32
sS'jiu-jitsu'
p203
I31
sS'interview'
p204
I30
sS'mi'
p205
I32
sS'comedy'
p206
I32
sS'beach'
p207
I32
sS'pomona'
p208
I32
sS'map'
p209
I32
sS'poker'
p210
I32
sS'fu'
p211
I31
sS'bags'
p212
I32
sS'sabino'
p213
I32
sS'watch'
p214
I31
sS'stahhhhp'
p215
I32
sS'after'
p216
I29
sS'vicious'
p217
I32
sS'birthday'
p218
I30
sS'mad'
p219
I31
sS'guy?\xe2\x80\x9dohhhhhh'
p220
I32
sS'such'
p221
I29
sS'suck'
p222
I31
sS'guys'
p223
I32
sS'types'
p224
I32
sS'man'
p225
I31
sS'a'
p226
I8
sS'stress'
p227
I32
sS'remember'
p228
I31
sS'bloating'
p229
I32
sS'light'
p230
I32
sS'many'
p231
I32
sS'st'
p232
I32
sS'scoop'
p233
I31
sS'wishes'
p234
I32
sS'so'
p235
I12
sS'south'
p236
I32
sS'taking'
p237
I32
sS'dream'
p238
I32
sS'counted'
p239
I32
sS"that's"
p240
I31
sS'cute'
p241
I31
sS'salon'
p242
I32
sS'theme'
p243
I32
sS"don't"
p244
I27
sS'indeed'
p245
I32
sS'over'
p246
I27
sS'move'
p247
I32
sS'soon'
p248
I32
sS'years'
p249
I31
sS'course'
p250
I32
sS'paper'
p251
I32
sS"won't"
p252
I31
sS'hell'
p253
I32
sS'aint'
p254
I32
sS'partner...i'
p255
I32
sS'before'
p256
I30
sS'perfect'
p257
I32
sS'0.62mi'
p258
I32
sS'20'
p259
I31
sS'22'
p260
I32
sS"he's"
p261
I31
sS'wat'
p262
I32
sS'louisville'
p263
I32
sS'actually'
p264
I32
sS'willing'
p265
I32
sS'blueberry'
p266
I32
sS'orange'
p267
I31
sS'might'
p268
I32
sS'over...back'
p269
I32
sS'rat'
p270
I32
sS'happened'
p271
I32
sS'dad'
p272
I29
sS'then'
p273
I31
sS'them'
p274
I28
sS'good'
p275
I28
sS'bel-air'
p276
I32
sS'ya'
p277
I31
sS'material'
p278
I32
sS'number'
p279
I32
sS'lunch'
p280
I31
sS'they'
p281
I26
sS'half'
p282
I30
sS'not'
p283
I20
sS'now'
p284
I27
sS'day'
p285
I31
sS'term'
p286
I32
sS'name'
p287
I31
sS'always'
p288
I31
sS'l'
p289
I31
sS'rocks'
p290
I32
sS'bless'
p291
I32
sS'magnitude'
p292
I31
sS'roast'
p293
I32
sS'went'
p294
I32
sS'side'
p295
I32
sS"isn't"
p296
I32
sS'mean'
p297
I31
sS'delicious'
p298
I32
sS'drizzy'
p299
I32
sS'doing'
p300
I30
sS'series'
p301
I32
sS'studios.a'
p302
I32
sS'\xe2\x99\x93\xef\xb8\x8f'
p303
I32
sS'yeah'
p304
I31
sS'books'
p305
I32
sS'ex'
p306
I32
sS'year'
p307
I31
sS'our'
p308
I32
sS'girl'
p309
I30
sS'calling'
p310
I32
sS'saturday'
p311
I32
sS'84'
p312
I32
sS'out'
p313
I27
sS'rt'
p314
I32
sS'living'
p315
I30
sS'lola'
p316
I32
sS'missed'
p317
I32
sS'miss'
p318
I28
sS'malcolm'
p319
I32
sS'weeks..&'
p320
I32
sS'seriously'
p321
I31
sS'internet'
p322
I32
sS'got'
p323
I25
sS'rn'
p324
I31
sS'cause'
p325
I32
sS'ass'
p326
I32
sS'shut'
p327
I32
sS"doesn't"
p328
I32
sS'friday'
p329
I32
sS'story'
p330
I32
sS'free'
p331
I31
sS'sneak'
p332
I32
sS'california'
p333
I32
sS'struggle'
p334
I32
sS'corgi'
p335
I32
sS'put'
p336
I31
sS'fret'
p337
I32
sS'"team'
p338
I32
sS'cardio...today'
p339
I32
sS'training'
p340
I32
sS'ate'
p341
I31
sS'carnival'
p342
I32
sS'created'
p343
I32
sS'snapchats'
p344
I32
sS'starts'
p345
I32
sS'could'
p346
I31
sS'ask'
p347
I32
sS'days'
p348
I29
sS'times'
p349
I31
sS'flawless'
p350
I32
sS'heck'
p351
I32
sS'kung'
p352
I32
sS"today's"
p353
I32
sS'mixtape'
p354
I32
sS'mein'
p355
I32
sS'think'
p356
I32
sS'fuckin'
p357
I32
sS'first'
p358
I29
sS'enjoy'
p359
I32
sS'major'
p360
I32
sS'already'
p361
I30
sS'626'
p362
I32
sS'feel'
p363
I29
sS'third'
p364
I32
sS'scene'
p365
I32
sS'one'
p366
I27
sS'hook'
p367
I32
sS'done'
p368
I30
sS'bitch'
p369
I30
sS'another'
p370
I31
sS'snaps...username'
p371
I32
sS'uncle'
p372
I32
sS'xp'
p373
I31
sS'pokemon'
p374
I31
sS'tomorrow'
p375
I29
sS"you're"
p376
I29
sS'little'
p377
I31
sS'stuck'
p378
I32
sS'meaningful'
p379
I32
sS'slept'
p380
I32
sS'accent'
p381
I32
sS'least'
p382
I32
sS'heights'
p383
I31
sS'fuhhh'
p384
I32
sS'their'
p385
I32
sS'2'
p386
I28
sS'master'
p387
I32
sS'too'
p388
I26
sS'tea'
p389
I32
sS'family>'
p390
I32
sS'friend'
p391
I30
sS'listen'
p392
I32
sS'eyes'
p393
I31
sS'hangout'
p394
I32
sS'stars'
p395
I32
sS'that'
p396
I16
sS'explanation'
p397
I32
sS'exactly'
p398
I32
sS'park'
p399
I31
sS'took'
p400
I30
sS'boba'
p401
I32
sS'digs'
p402
I32
sS'mmmm'
p403
I32
sS'nigga'
p404
I31
sS'loving'
p405
I31
sS'believe'
p406
I32
sS'brushed'
p407
I32
sS'kind'
p408
I32
sS'bashed'
p409
I32
sS'lmao'
p410
I31
sS'warmup'
p411
I32
sS'heh'
p412
I32
sS'gotta'
p413
I30
sS'panda'
p414
I32
sS'ebay'
p415
I32
sS'shower'
p416
I32
sS'matter'
p417
I32
sS'states'
p418
I32
sS'r'
p419
I32
sS'silly'
p420
I32
sS'supposed'
p421
I32
sS'iron'
p422
I32
sS'maybe'
p423
I32
sS'cards'
p424
I32
sS'sister'
p425
I32
sS'happy'
p426
I32
sS'and'
p427
I7
sS'destruction...pre-gaming'
p428
I32
sS'fcking'
p429
I32
sS'mind'
p430
I32
sS'few'
p431
I32
sS'sad'
p432
I29
sS'tonight'
p433
I31
sS'say'
p434
I31
sS'seed'
p435
I32
sS'have'
p436
I16
sS'stanley'
p437
I32
sS'need'
p438
I26
sS'seen'
p439
I32
sS'saw'
p440
I32
sS'any'
p441
I32
sS'tho'
p442
I32
sS'bastard'
p443
I32
sS'nights'
p444
I32
sS'genuine'
p445
I32
sS'built'
p446
I32
sS'shorts'
p447
I32
sS'again...xboxone'
p448
I32
sS'bacteria'
p449
I32
sS'omfg'
p450
I32
sS'hookah'
p451
I28
sS'take'
p452
I31
sS'which'
p453
I31
sS'potatoesss'
p454
I32
sS'finding'
p455
I32
sS'wanting'
p456
I32
sS'anxiety'
p457
I32
sS'gym'
p458
I32
sS'pringles'
p459
I32
sS'menudo'
p460
I32
sS'urge'
p461
I32
sS'play'
p462
I32
sS'sure'
p463
I31
sS'pain'
p464
I32
sS'though'
p465
I32
sS'aww'
p466
I32
sS'huh'
p467
I32
sS'who'
p468
I28
sS'mashed'
p469
I32
sS'most'
p470
I32
sS'mouth'
p471
I32
sS'strikes'
p472
I32
sS'why'
p473
I30
sS'okeeeee'
p474
I32
sS'witnessed'
p475
I32
sS'm'
p476
I32
sS'hungry'
p477
I32
sS'face'
p478
I31
sS'looked'
p479
I32
sS"you'll"
p480
I32
sS'hi'
p481
I32
sS'clean'
p482
I31
sS'jordan'
p483
I32
sS'chargers'
p484
I32
sS'location...location'
p485
I32
sS'cuz'
p486
I32
sS'came'
p487
I32
sS'saying'
p488
I31
sS'ugh'
p489
I32
sS'bomb'
p490
I32
sS'tron'
p491
I32
sS'foreals'
p492
I32
sS'german'
p493
I32
sS'text'
p494
I32
sS'4\xe2\x83\xa3'
p495
I32
sS'ending'
p496
I32
sS'bring'
p497
I32
sS'stfu'
p498
I32
sS'planning'
p499
I31
sS'chicken'
p500
I31
sS'heavens'
p501
I32
sS'answer'
p502
I32
sS'ha'
p503
I31
sS'clicked'
p504
I32
sS'beers...no'
p505
I32
sS'\xe2\x9c\x8b'
p506
I32
sS'('
p507
I32
sS'outside'
p508
I32
sS'should'
p509
I31
sS'only'
p510
I28
sS'going'
p511
I30
sS'black'
p512
I31
sS'pretty'
p513
I32
sS'combo'
p514
I32
sS'rice'
p515
I32
sS'hope'
p516
I32
sS'carolina'
p517
I32
sS'meant'
p518
I32
sS'do'
p519
I17
sS'his'
p520
I30
sS'hit'
p521
I32
sS'get'
p522
I21
sS'beat'
p523
I32
sS'stop'
p524
I30
sS'facetimes'
p525
I32
sS'terrors'
p526
I32
sS'b'
p527
I32
sS'biggulp'
p528
I32
sS'sse'
p529
I32
sS'-jay'
p530
I32
sS'him'
p531
I32
sS"tita's"
p532
I32
sS'smash'
p533
I31
sS'bar'
p534
I32
sS'metabolism'
p535
I32
sS'posle'
p536
I32
sS'philsad'
p537
I32
sS'stupid'
p538
I31
sS'she'
p539
I30
sS'shots'
p540
I32
sS'tunes'
p541
I32
sS'x'
p542
I32
sS'where'
p543
I27
sS'\xe2\x9d\x93\xe2\x9d\x97\xef\xb8\x8f'
p544
I32
sS"y'all"
p545
I31
sS'set'
p546
I32
sS'disaster'
p547
I32
sS'spamming'
p548
I32
sS'sex'
p549
I32
sS'see'
p550
I31
sS'btch'
p551
I32
sS'dumb'
p552
I32
sS'are'
p553
I23
sS'horrendous'
p554
I32
sS'sneeze...so'
p555
I32
sS'2.0'
p556
I32
sS'yes'
p557
I32
sS'best'
p558
I32
sS'brazil'
p559
I32
sS'said'
p560
I30
sS'manis'
p561
I32
sS'movie'
p562
I32
sS'wow'
p563
I24
sS'coffee'
p564
I32
sS'3'
p565
I28
sS'won'
p566
I32
sS'closed'
p567
I32
sS':d'
p568
I32
sS'probably'
p569
I32
sS'bought'
p570
I32
sS'we'
p571
I26
sS'omg'
p572
I30
sS'god'
p573
I32
sS'missing'
p574
I32
sS'were'
p575
I32
sS'timmy'
p576
I32
sS'job'
p577
I32
sS'omw'
p578
I32
sS'wtf'
p579
I28
sS'freakking'
p580
I32
sS'coma'
p581
I32
sS'cousin'
p582
I32
sS'come'
p583
I30
sS'pyscho'
p584
I32
sS'fried'
p585
I32
sS'last'
p586
I31
sS'bachelorette'
p587
I32
sS'fault'
p588
I32
sS'adapter'
p589
I32
sS'la'
p590
I32
sS'jelly'
p591
I32
sS"night...i'm"
p592
I32
sS'operating'
p593
I31
sS'asked'
p594
I32
sS"can't"
p595
I28
sS'are\xe2\x80\xa6'
p596
I32
sS'relevant'
p597
I32
sS'afterwards'
p598
I32
sS'point'
p599
I31
sS'shirt'
p600
I32
sS'ca'
p601
I31
sS'jk'
p602
I32
sS'tweemous'
p603
I32
sS'ants'
p604
I32
sS'2nd'
p605
I32
sS'cried'
p606
I32
sS'asleep'
p607
I32
sS'tony'
p608
I32
sS"today...i'm"
p609
I32
sS'yeeeeeeeaaaaaaah'
p610
I32
sS'expensive'
p611
I32
sS'caring'
p612
I32
sS'strong'
p613
I32
sS'naps'
p614
I32
sS'5437'
p615
I32
sS'beef'
p616
I31
sS'cares'
p617
I32
sS"it's"
p618
I30
sS'lophs'
p619
I32
sS'due'
p620
I32
sS'been'
p621
I30
sS'whos'
p622
I32
sS'breath'
p623
I32
sS'beer'
p624
I28
sS'much'
p625
I29
sS'dont'
p626
I32
sS'change'
p627
I32
sS'expected'
p628
I32
sS'celebration'
p629
I32
sS'whoa'
p630
I32
sS"it'd"
p631
I32
sS'board'
p632
I32
sS'wants'
p633
I30
sS'life'
p634
I32
sS'gist'
p635
I32
sS'hmu'
p636
I32
sS'neverrrrrr'
p637
I32
sS"cool...i'm"
p638
I32
sS'else'
p639
I32
sS'bulk'
p640
I32
sS'whatever'
p641
I32
sS'"pay'
p642
I32
sS'liver'
p643
I32
sS'hashtag'
p644
I32
sS'gag'
p645
I32
sS'regretted'
p646
I32
sS'jell-o'
p647
I32
sS'those'
p648
I32
sS'sound'
p649
I32
sS'myself'
p650
I32
sS'look'
p651
I32
sS'these'
p652
I31
sS'playstation...now'
p653
I32
sS'pill'
p654
I32
sS'will'
p655
I29
sS'while'
p656
I32
sS"haven't"
p657
I32
sS"parents'"
p658
I32
sS'shift'
p659
I32
sS'wake'
p660
I32
sS'rethink'
p661
I32
sS'pack'
p662
I32
sS'fool'
p663
I32
sS'pound'
p664
I32
sS'<3'
p665
I31
sS'shepard'
p666
I32
sS'played'
p667
I32
sS'almost'
p668
I31
sS'soil'
p669
I32
sS'is'
p670
I9
sS'it'
p671
I14
sS'bros'
p672
I32
sS'1000%'
p673
I32
sS'cant'
p674
I32
sS'sudden'
p675
I32
sS'im'
p676
I30
sS'in'
p677
I16
sS'ready'
p678
I32
sS'bucks'
p679
I32
sS'rid'
p680
I32
sS'everyday'
p681
I32
sS'ig'
p682
I32
sS'if'
p683
I28
sS'funny'
p684
I30
sS'raiders'
p685
I32
sS'since'
p686
I32
sS'anymore'
p687
I32
sS')'
p688
I32
sS'things'
p689
I30
sS'tmrw'
p690
I32
sS'ashamed'
p691
I32
sS'same'
p692
I31
sS'check'
p693
I32
sS'food'
p694
I29
sS'pad'
p695
I32
sS'babies'
p696
I30
sS'peoples'
p697
I32
sS'9'
p698
I31
sS'party'
p699
I28
sS'gets'
p700
I32
sS'eww'
p701
I32
sS'ily2'
p702
I32
sS'finish'
p703
I32
sS'screenshot'
p704
I32
sS'hahahhahahah'
p705
I32
sS'22nd'
p706
I32
sS'drink'
p707
I30
sS'running'
p708
I31
sS'fridays'
p709
I32
sS'fagg'
p710
I32
sS'soph'
p711
I32
sS'cuties'
p712
I32
sS'totally'
p713
I32
sS'broccoli'
p714
I32
sS'kid'
p715
I32
sS'packed...what'
p716
I32
sS'off'
p717
I31
sS'older'
p718
I32
sS'i'
p719
I2
sS'charger'
p720
I32
sS'youre'
p721
I32
sS'well'
p722
I29
sS'fighting'
p723
I32
sS'thought'
p724
I31
sS'glorious'
p725
I32
sS'pandora'
p726
I32
sS'y'
p727
I32
sS'the'
p728
I6
sS'\xe3\x85\x9c_\xe3\x85\x9c'
p729
I32
sS'left'
p730
I32
sS'just'
p731
I19
sS'flesh'
p732
I32
sS'being'
p733
I31
sS'yee'
p734
I32
sS'6am'
p735
I32
sS'front'
p736
I32
sS'kill'
p737
I32
sS'thanks'
p738
I28
sS'paul'
p739
I32
sS'prince'
p740
I32
sS'way(mexican'
p741
I32
sS'alyssas'
p742
I32
sS'cus'
p743
I32
sS'8am-2:30pm'
p744
I32
sS'-hdt'
p745
I32
sS'cup'
p746
I31
sS'thinking'
p747
I32
sS'hated'
p748
I31
sS'vida'
p749
I32
sS'drunk'
p750
I32
sS'had'
p751
I27
sS'lake'
p752
I32
sS'killed'
p753
I32
sS'parents'
p754
I32
sS'4'
p755
I31
sS'crying'
p756
I32
sS'crack'
p757
I32
sS'snap'
p758
I32
sS'derek'
p759
I32
sS'bridal'
p760
I32
sS'save'
p761
I32
sS'hat'
p762
I32
sS'excited'
p763
I30
sS'kick'
p764
I31
sS'real'
p765
I29
sS'ight'
p766
I32
sS'around'
p767
I32
sS'emergency'
p768
I31
sS'couple'
p769
I30
sS"who's"
p770
I32
sS'gonna'
p771
I29
sS'dark'
p772
I32
sS'shitty'
p773
I32
sS'game'
p774
I31
sS'five'
p775
I32
sS'know'
p776
I24
sS'mom'
p777
I31
sS'world'
p778
I31
sS'replace'
p779
I32
sS'burnt'
p780
I32
sS'wings'
p781
I32
sS'like'
p782
I13
sS'lost'
p783
I32
sS'gifted'
p784
I32
sS'candy'
p785
I32
sS'server'
p786
I32
sS'steps'
p787
I32
sS'laughing'
p788
I32
sS'night'
p789
I28
sS'hung'
p790
I32
sS'it\xe2\x80\x99s'
p791
I32
sS'works'
p792
I32
sS'myjustinnameishi'
p793
I32
sS'inspiron'
p794
I32
sS'because'
p795
I30
sS'old'
p796
I30
sS"couldn't"
p797
I32
sS'joking'
p798
I32
sS'people'
p799
I30
sS'scared'
p800
I32
sS'easy'
p801
I32
sS'some'
p802
I29
sS'back'
p803
I29
sS':((((((('
p804
I32
sS'chuck'
p805
I32
sS'hair'
p806
I30
sS'brian'
p807
I32
sS'clubs'
p808
I32
sS'kbbq'
p809
I32
sS'home'
p810
I32
sS'guess'
p811
I32
sS'gracie'
p812
I32
sS'happens'
p813
I31
sS'graduation'
p814
I32
sS'trust'
p815
I32
sS'jeremy'
p816
I32
sS'for'
p817
I13
sS'literally'
p818
I32
sS'avoid'
p819
I32
sS"where'd"
p820
I32
sS'dland'
p821
I32
sS'mines'
p822
I32
sS'/'
p823
I32
sS'does'
p824
I32
sS'tournament......with'
p825
I32
sS'swooping'
p826
I32
sS'420'
p827
I32
sS'bruhhh'
p828
I32
sS'minimal'
p829
I32
sS'mosquito'
p830
I32
sS'...also'
p831
I32
sS'be'
p832
I24
sS'package'
p833
I32
sS'eating'
p834
I32
sS'weird'
p835
I32
sS'ufo'
p836
I32
sS'k'
p837
I32
sS'feelings'
p838
I32
sS'step'
p839
I32
sS't-30'
p840
I32
sS'lips'
p841
I32
sS'snapped'
p842
I32
sS'super'
p843
I31
sS'aite'
p844
I32
sS"'the"
p845
I32
sS'on'
p846
I20
sS'about'
p847
I26
sS':-)'
p848
I31
sS'ok'
p849
I30
sS'would'
p850
I32
sS'oh'
p851
I30
sS'of'
p852
I10
sS'spilled'
p853
I32
sS'o'
p854
I32
sS'hot'
p855
I32
sS'drama'
p856
I32
sS'dinner'
p857
I30
sS'plus'
p858
I32
sS'idk'
p859
I32
sS'chow'
p860
I32
sS'wanna'
p861
I32
sS'or'
p862
I32
sS'flying'
p863
I32
sS'quietly'
p864
I32
sS'women....black'
p865
I32
sS'into'
p866
I30
sS'soo'
p867
I32
sS'son'
p868
I32
sS'down'
p869
I26
sS'lies'
p870
I32
sS'right'
p871
I31
sS'now"'
p872
I32
sS'elementary'
p873
I32
sS'-my'
p874
I32
sS'tit-tea'
p875
I32
sS'your'
p876
I22
sS"lol...i'm"
p877
I32
sS'wao'
p878
I32
sS'spears'
p879
I32
sS'her'
p880
I32
sS'spam'
p881
I32
sS'friends'
p882
I32
sS'...i'
p883
I32
sS'question'
p884
I32
sS'hey'
p885
I31
sS'lol'
p886
I18
sS'fight'
p887
I31
sS'start'
p888
I31
sS"we're"
p889
I32
sS'lot'
p890
I31
sS'bruh'
p891
I32
sS'biggest'
p892
I32
sS'damn'
p893
I32
sS'bored'
p894
I31
sS'was'
p895
I28
sS'twitter'
p896
I32
sS'iphone'
p897
I32
sS'disneyland'
p898
I32
sS'buy'
p899
I32
sS'north'
p900
I32
sS'cruising...time'
p901
I32
sS"i've"
p902
I31
sS'hr'
p903
I31
sS'pronounce'
p904
I32
sS'brand'
p905
I32
sS'bitches'
p906
I32
sS'pathfinder'
p907
I32
sS'but'
p908
I22
sS'spider'
p909
I32
sS'shits'
p910
I32
sS'state'
p911
I32
sS'hear'
p912
I31
sS'ughhh'
p913
I32
sS"committee's"
p914
I32
sS'unreliable'
p915
I32
sS'trying'
p916
I31
sS'with'
p917
I22
sS'eat'
p918
I31
sS'bud'
p919
I32
sS'he'
p920
I28
sS'count'
p921
I32
sS"they're"
p922
I32
sS'lady'
p923
I32
sS'week...just'
p924
I32
sS'yoshi"'
p925
I32
sS'born'
p926
I32
sS'wish'
p927
I32
sS'sounds'
p928
I32
sS'j'
p929
I32
sS'fries'
p930
I31
sS'up'
p931
I21
sS'ur'
p932
I31
sS'limit'
p933
I32
sS'dirty'
p934
I32
sS'continuously'
p935
I32
sS'faggot'
p936
I31
sS'z'
p937
I32
sS'rowland'
p938
I30
sS'expect'
p939
I32
sS'catch'
p940
I32
sS'gone'
p941
I32
sS'sometimes'
p942
I32
sS'videos'
p943
I32
sS'af'
p944
I31
sS'flow'
p945
I32
sS'forgot'
p946
I32
sS'am'
p947
I30
sS'deep'
p948
I32
sS'an'
p949
I30
sS'as'
p950
I29
sS'bawled'
p951
I32
sS'at'
p952
I22
sS'annoying'
p953
I32
sS'ew'
p954
I32
sS'shit'
p955
I29
sS'1/2'
p956
I32
sS'selfish'
p957
I32
sS'no'
p958
I24
sS'noooooope'
p959
I32
sS'nah'
p960
I32
sS'when'
p961
I23
sS'sleeeeeeep'
p962
I32
sS'other'
p963
I31
sS'5'
p964
I32
sS'details'
p965
I31
sS'test'
p966
I30
sS'you'
p967
I3
sS'really'
p968
I28
sS'nice'
p969
I32
sS'album'
p970
I32
sS'draw'
p971
I32
sS'brothers'
p972
I32
sS'1....2'
p973
I32
sS'boiling'
p974
I32
sS"let's"
p975
I31
sS'kinda'
p976
I32
sS'included'
p977
I32
sS'weekend'
p978
I32
sS'bo$$'
p979
I32
sS'pool'
p980
I32
sS'alcohol'
p981
I32
sS'ago'
p982
I32
sS'\xe2\x9c\x82\xef\xb8\x8f'
p983
I32
sS'e'
p984
I32
sS'calls'
p985
I32
sS'napping'
p986
I32
sS'dog'
p987
I32
sS'finished'
p988
I32
sS'together'
p989
I32
sS'lowkey'
p990
I32
sS'asap'
p991
I32
sS'cheater'
p992
I32
sS'u'
p993
I28
sS'2.02'
p994
I32
sS'time'
p995
I23
sS'alright'
p996
I32
sS'fresh'
p997
I32
sS'once'
p998
I32
sS'having'
p999
I32
sS'songs'
p1000
I32
s.