(dp0
S''
p1
I6
sS'all'
p2
I17
sS'coach'
p3
I19
sS':)'
p4
I18
sS'ali'
p5
I19
sS'dance'
p6
I19
sS'suckss'
p7
I19
sS'awhh'
p8
I19
sS'freakin'
p9
I19
sS'go'
p10
I17
sS'chillin'
p11
I19
sS'forget'
p12
I19
sS'dayto'
p13
I19
sS'to'
p14
I3
sS'ilysm'
p15
I19
sS'ta'
p16
I19
sS'woman'
p17
I19
sS'stays'
p18
I19
sS'cool'
p19
I18
sS'entire'
p20
I19
sS'magic'
p21
I19
sS'divorced'
p22
I19
sS'upi'
p23
I19
sS'did'
p24
I19
sS'leave'
p25
I18
sS',91748\n443405200338857984,sexiefairie,2014-03-11'
p26
I19
sS'round'
p27
I18
sS'neighborhood'
p28
I19
sS'dealing'
p29
I19
sS'talks'
p30
I19
sS'pass'
p31
I19
sS'even'
p32
I19
sS'what'
p33
I19
sS'hate'
p34
I19
sS'waiting'
p35
I19
sS'new'
p36
I17
sS'learned'
p37
I19
sS'ever'
p38
I18
sS'grandparents'
p39
I19
sS'never'
p40
I18
sS'here'
p41
I19
sS'\xe2\x9d\xa4\xef\xb8\x8f\xe2\x9d\xa4\xef\xb8\x8f\xe2\x9d\xa4\xef\xb8\x8f\xe2\x9d\xa4\xef\xb8\x8f'
p42
I19
sS'change'
p43
I19
sS'lol'
p44
I13
sS'usps'
p45
I19
sS'leaving'
p46
I19
sS'usually'
p47
I19
sS'priceless'
p48
I19
sS"i'm"
p49
I11
sS'makes'
p50
I18
sS'named'
p51
I19
sS'love'
p52
I17
sS'apple'
p53
I19
sS'family'
p54
I19
sS'dude!,91789\n447146209535209472,jorditell108,2014-03-21'
p55
I19
sS'bro'
p56
I19
sS'wit'
p57
I19
sS'02:55:27.0,33.9765047,-117.8790153,4087.06,hello'
p58
I19
sS'crap'
p59
I19
sS'would'
p60
I18
sS'lecture'
p61
I19
sS'angry'
p62
I19
sS'pero'
p63
I19
sS'two'
p64
I18
sS'chargers'
p65
I19
sS'doubt'
p66
I19
sS'eagles'
p67
I19
sS'today'
p68
I19
sS'babe'
p69
I19
sS'holy'
p70
I19
sS'haha'
p71
I19
sS'training'
p72
I18
sS'basically'
p73
I19
sS'me'
p74
I4
sS'23:59:58.0,33.97738069,-117.87091086,4087.06,girls'
p75
I19
sS'this'
p76
I14
sS'car'
p77
I18
sS'package'
p78
I19
sS'sucks'
p79
I19
sS'"hunter"\xe2\x80\x9d'
p80
I19
sS'damn!,91748\n475789362710708224,joshsablay,2014-06-08'
p81
I19
sS'can'
p82
I19
sS'my'
p83
I2
sS'goood'
p84
I19
sS'snacks'
p85
I19
sS"didn't"
p86
I19
sS'fuck'
p87
I19
sS'high'
p88
I19
sS'homie'
p89
I19
sS'want'
p90
I19
sS'sharp'
p91
I19
sS'cardio'
p92
I19
sS'watching'
p93
I19
sS'sundae'
p94
I19
sS'1'
p95
I18
sS'till'
p96
I19
sS'\xe2\x9d\xa4\xef\xb8\x8f\xe2\x9d\xa4\xef\xb8\x8f\xe2\x9d\xa4\xef\xb8\x8f'
p97
I19
sS'pizza'
p98
I19
sS'me:chrissoc0ol'
p99
I19
sS'okay'
p100
I19
sS'after'
p101
I19
sS'lab'
p102
I19
sS'wrong'
p103
I19
sS'scammer'
p104
I19
sS'coming'
p105
I19
sS'hahahaha'
p106
I18
sS'such'
p107
I19
sS'a'
p108
I8
sS'so'
p109
I11
sS'make'
p110
I19
sS'talk'
p111
I19
sS"that's"
p112
I19
sS'cute'
p113
I19
sS"don't"
p114
I17
sS'over'
p115
I18
sS'years'
p116
I19
sS"won't"
p117
I18
sS'still'
p118
I16
sS'its'
p119
I18
sS'thank'
p120
I19
sS"he's"
p121
I18
sS'actually'
p122
I19
sS'late'
p123
I19
sS'tweets'
p124
I19
sS'mail'
p125
I19
sS'weeks'
p126
I19
sS'main'
p127
I19
sS'them'
p128
I19
sS'good'
p129
I12
sS'3'
p130
I19
sS'food'
p131
I19
sS'thee'
p132
I19
sS'feelin'
p133
I19
sS'break'
p134
I19
sS'therapy'
p135
I19
sS'03:21:57.0,33.9724993,-117.8654861,4087.06,be'
p136
I19
sS'they'
p137
I19
sS'not'
p138
I17
sS'now'
p139
I16
sS'realize'
p140
I19
sS'taichung'
p141
I19
sS'pregnant'
p142
I18
sS'always'
p143
I18
sS'l'
p144
I18
sS'went'
p145
I19
sS'everyone'
p146
I17
sS'house'
p147
I19
sS'yeah'
p148
I19
sS'bickering'
p149
I19
sS'girl'
p150
I19
sS'insurance'
p151
I18
sS'out'
p152
I17
sS'album'
p153
I19
sS'try'
p154
I19
sS'ughhhhh'
p155
I19
sS'miss'
p156
I18
sS'since'
p157
I17
sS'looking'
p158
I19
sS'seriously'
p159
I19
sS'got'
p160
I19
sS'rn'
p161
I19
sS'cause'
p162
I18
sS'shut'
p163
I18
sS'doing?,91748\n466732731875852288,soojsk,2014-05-15'
p164
I19
sS'bolts'
p165
I19
sS'city'
p166
I19
sS'guess'
p167
I18
sS'shud'
p168
I19
sS'grandma'
p169
I19
sS'care'
p170
I18
sS'tonite,91748\n487773651840688128,biglipluda,2014-07-12'
p171
I19
sS'could'
p172
I19
sS'days'
p173
I18
sS'thing'
p174
I18
sS'birthday'
p175
I18
sS'tempting'
p176
I19
sS'retail'
p177
I19
sS'think'
p178
I17
sS'first'
p179
I18
sS'feed'
p180
I19
sS'hearing'
p181
I19
sS'feet'
p182
I19
sS'done'
p183
I19
sS'bitch'
p184
I19
sS'bros'
p185
I19
sS'chubby'
p186
I19
sS'open'
p187
I19
sS'tomorrow'
p188
I18
sS"you're"
p189
I19
sS'little'
p190
I19
sS'checked'
p191
I19
sS'bears'
p192
I19
sS'caught'
p193
I19
sS'literallly'
p194
I19
sS'2'
p195
I18
sS'too'
p196
I19
sS'sigh'
p197
I19
sS'that'
p198
I15
sS',91748\n427226427306426369,marindaahh_,2014-01-25'
p199
I19
sS'gym'
p200
I18
sS'took'
p201
I19
sS'wasted'
p202
I19
sS'herself'
p203
I19
sS'bebe'
p204
I19
sS'10'
p205
I19
sS'lmao'
p206
I19
sS'bother'
p207
I19
sS'bethany'
p208
I19
sS'future'
p209
I19
sS'loves'
p210
I19
sS'were'
p211
I19
sS'sister'
p212
I19
sS'and'
p213
I6
sS'mind'
p214
I19
sS'say'
p215
I18
sS'buy'
p216
I19
sS'have'
p217
I16
sS'breakfast'
p218
I19
sS'sat'
p219
I18
sS'lil'
p220
I18
sS'able'
p221
I19
sS'lik'
p222
I19
sS'omfg'
p223
I19
sS'derek'
p224
I19
sS'take'
p225
I19
sS'wanting'
p226
I19
sS'lectures'
p227
I19
sS'begin'
p228
I19
sS'pain'
p229
I19
sS'07:56:20.0,33.97618539,-117.87293678,4087.06,bae'
p230
I19
sS'jst'
p231
I19
sS'abut'
p232
I19
sS'awk'
p233
I19
sS'why'
p234
I18
sS'achievement'
p235
I19
sS'camp'
p236
I19
sS'dog'
p237
I19
sS"miguel's"
p238
I19
sS'01:52:46.0,33.9767752,-117.8738515,4087.06,guess'
p239
I19
sS'senior'
p240
I18
sS'saying'
p241
I19
sS'golf'
p242
I19
sS'discovered'
p243
I19
sS':),91748\n242455738243506176,sexiefairie,2012-09-03'
p244
I19
sS'session'
p245
I19
sS'soldiers'
p246
I19
sS'one'
p247
I18
sS'23:48:12.0,33.9777727,-117.8668187,4087.06,well'
p248
I19
sS'af,91748\n460636091490394113,jakiee34,2014-04-28'
p249
I19
sS'woo'
p250
I19
sS'going'
p251
I19
sS'black'
p252
I19
sS'his'
p253
I19
sS'hit'
p254
I18
sS'get'
p255
I17
sS'stop'
p256
I19
sS'october'
p257
I19
sS'during'
p258
I19
sS'pad!,91748\n487728015657271296,biglipluda,2014-07-11'
p259
I19
sS'freaking'
p260
I19
sS'nicely'
p261
I19
sS'h'
p262
I19
sS'cry'
p263
I19
sS'morning'
p264
I18
sS'bad'
p265
I19
sS'stuff'
p266
I19
sS'she'
p267
I19
sS'today\xe2\x98\xba\xef\xb8\x8f'
p268
I19
sS'effing'
p269
I19
sS'ovaries...if'
p270
I19
sS'art'
p271
I19
sS'lazy'
p272
I18
sS'see'
p273
I17
sS'decided'
p274
I19
sS'dumb'
p275
I19
sS'are'
p276
I15
sS'parking'
p277
I19
sS'close'
p278
I19
sS'taiwan'
p279
I19
sS'best'
p280
I19
sS'wonder'
p281
I19
sS'said'
p282
I18
sS'visiting'
p283
I19
sS'movie'
p284
I19
sS'wow'
p285
I19
sS'currently'
p286
I19
sS'enough'
p287
I19
sS'closed'
p288
I19
sS'yogurt'
p289
I19
sS'probably'
p290
I19
sS'abdominals'
p291
I19
sS'steelers'
p292
I19
sS'we'
p293
I17
sS'opening'
p294
I19
sS'job'
p295
I19
sS'wear'
p296
I19
sS'wtf'
p297
I18
sS'jk'
p298
I19
sS'03:28:23.0,33.9721821,-117.8666362,4087.06,well'
p299
I19
sS'bras'
p300
I19
sS'\xe2\x9d\xa4\xef\xb8\x8f\xe2\x80\x9d,91748\n487776547386830849,biglipluda,2014-07-12'
p301
I19
sS'meredith'
p302
I19
sS'la'
p303
I19
sS'restroom'
p304
I19
sS'rn.,91748\n333728001214803968,cin_reyes714,2013-05-12'
p305
I19
sS'alot'
p306
I19
sS"can't"
p307
I19
sS'ily'
p308
I19
sS'vent'
p309
I19
sS'tough'
p310
I19
sS'point'
p311
I19
sS'haha,91748\n424414936555466754,jorditell108,2014-01-18'
p312
I19
sS'community'
p313
I19
sS'twin'
p314
I19
sS"couldn't"
p315
I18
sS'252'
p316
I19
sS'throughout'
p317
I19
sS"it's"
p318
I18
sS'been'
p319
I18
sS'mart'
p320
I19
sS'tutor'
p321
I19
sS'sleepover'
p322
I19
sS'drank'
p323
I19
sS'panthers'
p324
I19
sS'life'
p325
I17
sS'relaxing'
p326
I19
sS"what's"
p327
I19
sS'fung'
p328
I19
sS'awake'
p329
I17
sS'brunch'
p330
I19
sS'an'
p331
I19
sS'those'
p332
I19
sS'countless'
p333
I19
sS'myself'
p334
I19
sS'look'
p335
I17
sS'will'
p336
I18
sS'visit'
p337
I19
sS'robin'
p338
I19
sS'coolest'
p339
I19
sS'01:41:15.0,33.9767573,-117.8738135,4087.06,ahah'
p340
I19
sS'iy'
p341
I19
sS'<3'
p342
I19
sS'is'
p343
I7
sS'it'
p344
I9
sS'defeated'
p345
I19
sS'sleeping'
p346
I19
sS'vs'
p347
I19
sS'im'
p348
I15
sS'in'
p349
I10
sS'thug'
p350
I19
sS'partner'
p351
I19
sS'04:29:32.0,33.97476903,-117.87186417,4087.06,scary'
p352
I19
sS'barney'
p353
I19
sS'anymore'
p354
I19
sS'things'
p355
I19
sS'tan\xe2\x80\x9d'
p356
I19
sS'bowl'
p357
I19
sS'same'
p358
I17
sS'yeahhh'
p359
I19
sS'party'
p360
I19
sS'yesterday'
p361
I19
sS'22:39:55.0,33.9767942,-117.8741197,4087.06,mannn'
p362
I19
sS'running'
p363
I19
sS'couldve'
p364
I19
sS'jealous'
p365
I19
sS'center'
p366
I19
sS'i'
p367
I1
sS'tho'
p368
I19
sS'the'
p369
I5
sS'just'
p370
I18
sS'being'
p371
I19
sS'thanks'
p372
I17
sS'yes'
p373
I18
sS'sku'
p374
I19
sS'hills'
p375
I19
sS'differently....,91748\n487762088199077888,biglipluda,2014-07-12'
p376
I19
sS'00:55:18.0,33.976788,-117.8738483,4087.06,juju'
p377
I19
sS'had'
p378
I19
sS'wen'
p379
I18
sS'reuniting'
p380
I19
sS'bullshit'
p381
I19
sS'omg"'
p382
I19
sS'parents'
p383
I19
sS'4'
p384
I18
sS'snowboard.,91748\n500914005238874112,misslexxs_,2014-08-17'
p385
I19
sS'has'
p386
I18
sS'real'
p387
I19
sS'around'
p388
I19
sS'kills'
p389
I19
sS'couple'
p390
I19
sS"who's"
p391
I19
sS'gonna'
p392
I16
sS'possibly'
p393
I19
sS'game'
p394
I18
sS'know'
p395
I19
sS'mom'
p396
I15
sS'bit'
p397
I19
sS'lady'
p398
I19
sS'd'
p399
I19
sS'partaking'
p400
I19
sS'like'
p401
I15
sS'lost'
p402
I19
sS'buddies'
p403
I19
sS'honestly'
p404
I19
sS'night'
p405
I19
sS'works'
p406
I19
sS'because'
p407
I19
sS'people'
p408
I19
sS'fucking'
p409
I13
sS'spring'
p410
I19
sS'twitter'
p411
I19
sS'some'
p412
I18
sS'back'
p413
I19
sS'dead'
p414
I18
sS'already,91748\n487728454343745536,biglipluda,2014-07-11'
p415
I19
sS'hair'
p416
I19
sS'"keep'
p417
I19
sS'thinks'
p418
I19
sS'happens'
p419
I19
sS'tmr'
p420
I19
sS'for'
p421
I8
sS'literally'
p422
I19
sS'ice'
p423
I19
sS'e-mail'
p424
I19
sS'conquering'
p425
I19
sS'minimal'
p426
I19
sS'be'
p427
I14
sS'run'
p428
I19
sS'how'
p429
I18
sS'bs'
p430
I19
sS'from'
p431
I18
sS'super'
p432
I19
sS'by'
p433
I19
sS'on'
p434
I18
sS'about'
p435
I17
sS'ok'
p436
I19
sS'getting'
p437
I18
sS'of'
p438
I12
sS'industry'
p439
I19
sS'oc'
p440
I19
sS'o'
p441
I19
sS'neighbor'
p442
I19
sS'decent'
p443
I19
sS'seeing'
p444
I19
sS'dude'
p445
I17
sS'snapchat'
p446
I18
sS'down'
p447
I19
sS'your'
p448
I16
sS'her'
p449
I19
sS'spam'
p450
I19
sS'there'
p451
I16
sS'hey'
p452
I19
sS'long'
p453
I18
sS'fight'
p454
I19
sS'start'
p455
I19
sS'biggest'
p456
I19
sS'bored'
p457
I19
sS'was'
p458
I15
sS'happy'
p459
I17
sS'rees'
p460
I19
sS'complete'
p461
I19
sS"i've"
p462
I19
sS'but'
p463
I19
sS'hi'
p464
I18
sS'with'
p465
I13
sS'he'
p466
I19
sS'made'
p467
I19
sS'wish'
p468
I19
sS'up'
p469
I16
sS'us'
p470
I19
sS'sccooorreee'
p471
I19
sS'yelled'
p472
I19
sS'600'
p473
I19
sS'af'
p474
I19
sS'am'
p475
I18
sS'mike'
p476
I19
sS'drive'
p477
I18
sS'at'
p478
I17
sS'aw'
p479
I19
sS'annoying'
p480
I19
sS'shit'
p481
I16
sS'cream'
p482
I19
sS'lungs'
p483
I19
sS'no'
p484
I16
sS'when'
p485
I16
sS'plugged'
p486
I19
sS'02:39:58.0,33.97775069,-117.87105913,4087.06,well'
p487
I19
sS'kickboxing'
p488
I18
sS'sick'
p489
I19
sS'you'
p490
I9
sS'really'
p491
I19
sS'talkin'
p492
I19
sS'picture'
p493
I19
sS'time'
p494
I16
sS'fell'
p495
I19
sS'kinda'
p496
I19
sS'weekend'
p497
I18
sS'died'
p498
I19
sS'inspiration'
p499
I19
sS'ago'
p500
I19
sS'happier'
p501
I18
sS'noob'
p502
I19
sS'age'
p503
I19
sS'05:36:20.0,33.97562325,-117.8586557,4087.06,i'
p504
I19
sS'u'
p505
I17
sS'adam'
p506
I19
sS'2300'
p507
I19
sS"she's"
p508
I19
sS'yell'
p509
I19
sS'starting'
p510
I19
sS'once'
p511
I19
s.