(dp0
S''
p1
I3
sS'all'
p2
I26
sS':/'
p3
I30
sS'forget'
p4
I30
sS'personally'
p5
I30
sS'osu'
p6
I30
sS'stature'
p7
I30
sS'sleep'
p8
I30
sS'go'
p9
I28
sS'hate'
p10
I27
sS'als'
p11
I30
sS'jolimping'
p12
I30
sS'beckham'
p13
I30
sS'filming'
p14
I30
sS'rivalry'
p15
I30
sS'vs'
p16
I30
sS'young'
p17
I29
sS'thursday'
p18
I30
sS'0'
p19
I30
sS'finally'
p20
I28
sS'does'
p21
I30
sS'lord'
p22
I30
sS'te'
p23
I30
sS'fences'
p24
I30
sS'worth'
p25
I30
sS'hahahah'
p26
I30
sS'woman'
p27
I30
sS'cruising'
p28
I30
sS'worse'
p29
I30
sS'playassss'
p30
I30
sS'song'
p31
I30
sS'internet'
p32
I30
sS'fav'
p33
I30
sS'that\xe2\x80\xa6'
p34
I30
sS'fat'
p35
I30
sS'vegas'
p36
I26
sS'every'
p37
I29
sS'honorable'
p38
I30
sS'winning'
p39
I30
sS'cool'
p40
I29
sS'tickets'
p41
I30
sS'did'
p42
I27
sS'notes'
p43
I30
sS'gettin'
p44
I30
sS'posts'
p45
I30
sS"no's"
p46
I30
sS'leave'
p47
I30
sS'shipped'
p48
I30
sS'dodger'
p49
I30
sS'leonardo'
p50
I30
sS'ride'
p51
I30
sS'yall'
p52
I30
sS'enjoy'
p53
I29
sS'clients'
p54
I30
sS'says'
p55
I30
sS'ten'
p56
I30
sS'tired'
p57
I29
sS'tea'
p58
I30
sS'streets'
p59
I30
sS'direct'
p60
I30
sS'waking'
p61
I30
sS'mansion'
p62
I30
sS'second'
p63
I28
sS'claverie'
p64
I27
sS'4x8'
p65
I30
sS'cesar'
p66
I30
sS'craftlandia'
p67
I27
sS'even'
p68
I28
sS'what'
p69
I26
sS'plays'
p70
I30
sS'stands'
p71
I30
sS'investing'
p72
I30
sS'callin'
p73
I30
sS'locker'
p74
I30
sS'abs'
p75
I30
sS'en'
p76
I30
sS'goes'
p77
I29
sS'kershaw'
p78
I29
sS'new'
p79
I27
sS'tips'
p80
I30
sS'ever'
p81
I28
sS'bird'
p82
I30
sS'snoop'
p83
I30
sS'body'
p84
I30
sS'christian'
p85
I30
sS'never'
p86
I27
sS'almaz\xc3\xa1n'
p87
I30
sS'liking'
p88
I30
sS'hours'
p89
I30
sS'knocked'
p90
I30
sS'test'
p91
I30
sS'let'
p92
I29
sS'melendrez'
p93
I30
sS'represented'
p94
I30
sS'ver'
p95
I30
sS'100'
p96
I30
sS'strong'
p97
I30
sS'tragedy'
p98
I30
sS'wait'
p99
I27
sS'boy'
p100
I30
sS'great'
p101
I27
sS'kids'
p102
I30
sS'ahead'
p103
I30
sS'brilliant'
p104
I30
sS'until'
p105
I30
sS'leaving'
p106
I30
sS'3)'
p107
I30
sS'social'
p108
I30
sS"would've"
p109
I30
sS'bob'
p110
I30
sS'makes'
p111
I30
sS'honor'
p112
I29
sS'genuinely'
p113
I30
sS'trainer'
p114
I30
sS'love'
p115
I27
sS'win'
p116
I29
sS'crazy'
p117
I30
sS'enorme'
p118
I30
sS'bro'
p119
I24
sS';)'
p120
I30
sS'everybody'
p121
I30
sS'from'
p122
I28
sS'yogi;)'
p123
I29
sS'to'
p124
I8
sS'aye'
p125
I30
sS'angry'
p126
I29
sS'dude'
p127
I28
sS'two'
p128
I29
sS'throw'
p129
I29
sS'cali'
p130
I30
sS'live'
p131
I26
sS'wood'
p132
I30
sS'therefore'
p133
I30
sS'wondering'
p134
I30
sS'6'
p135
I30
sS"mix'n"
p136
I30
sS'military'
p137
I30
sS'type'
p138
I30
sS'tell'
p139
I29
sS'today'
p140
I29
sS'more'
p141
I30
sS'possession'
p142
I30
sS'pencil'
p143
I30
sS'relax'
p144
I30
sS'greenthumb'
p145
I30
sS'petsmart;o'
p146
I30
sS'oregon'
p147
I30
sS'xterra'
p148
I30
sS'arms'
p149
I30
sS'baby'
p150
I30
sS'4am'
p151
I30
sS'effort'
p152
I30
sS'must'
p153
I29
sS'me'
p154
I17
sS'none'
p155
I30
sS'word'
p156
I30
sS'room'
p157
I30
sS'hour'
p158
I30
sS'this'
p159
I18
sS'challenge'
p160
I29
sS'work'
p161
I27
sS'seahawks'
p162
I30
sS'cat'
p163
I30
sS'erd'
p164
I30
sS'hardest'
p165
I30
sS'nebraska'
p166
I30
sS'can'
p167
I28
sS'mr'
p168
I29
sS'following'
p169
I30
sS'meet'
p170
I30
sS'my'
p171
I12
sS'mr.*'
p172
I30
sS'dropped'
p173
I30
sS'beautiful'
p174
I30
sS'heart'
p175
I30
sS'slid'
p176
I30
sS'18ft'
p177
I30
sS'estate'
p178
I28
sS'give'
p179
I30
sS'awesome'
p180
I29
sS'showtimed1'
p181
I30
sS"didn't"
p182
I27
sS'fuck'
p183
I27
sS'charlton'
p184
I29
sS'heard'
p185
I29
sS"le'veon"
p186
I30
sS'something'
p187
I28
sS'want'
p188
I27
sS'david'
p189
I30
sS'"sliding'
p190
I30
sS'goal'
p191
I30
sS'rather'
p192
I30
sS'watching'
p193
I28
sS'poetry'
p194
I30
sS'instag_ryan'
p195
I30
sS'1'
p196
I30
sS'how'
p197
I26
sS'amazing'
p198
I30
sS'ceo'
p199
I30
sS'answer'
p200
I29
sS"...can't"
p201
I30
sS'it!"'
p202
I30
sS'bday'
p203
I30
sS'waters'
p204
I30
sS'vicious'
p205
I30
sS'dogs>'
p206
I30
sS'wrong'
p207
I28
sS'raiders'
p208
I30
sS'such'
p209
I27
sS'heroes'
p210
I30
sS'brain\xe2\x80\x9d'
p211
I30
sS'guys'
p212
I29
sS'response'
p213
I30
sS'las'
p214
I29
sS'a'
p215
I10
sS'purchase'
p216
I30
sS'tupac'
p217
I30
sS'whenever'
p218
I30
sS'maybe'
p219
I30
sS'trevor'
p220
I30
sS'q'
p221
I30
sS'complaining'
p222
I30
sS'ones'
p223
I30
sS'so'
p224
I16
sS'bumgarners'
p225
I30
sS'pay'
p226
I30
sS'playing'
p227
I29
sS'talk'
p228
I29
sS"that's"
p229
I24
sS'blasting'
p230
I30
sS'houston'
p231
I30
sS"don't"
p232
I24
sS'fall'
p233
I30
sS'auburn'
p234
I30
sS'course'
p235
I30
sS'looks'
p236
I30
sS'pitch'
p237
I30
sS'kanye'
p238
I30
sS'still'
p239
I29
sS'before'
p240
I30
sS'style'
p241
I30
sS'thank'
p242
I28
sS'fit'
p243
I30
sS'matthew'
p244
I30
sS'personal'
p245
I30
sS'thang'
p246
I30
sS'caesars'
p247
I30
sS'comprehend'
p248
I30
sS'better'
p249
I26
sS'strange'
p250
I30
sS'degrees'
p251
I30
sS'listing'
p252
I30
sS'tweets'
p253
I30
sS'weeks'
p254
I30
sS'home\xe2\x80\xa6'
p255
I30
sS'2)'
p256
I30
sS"haven't"
p257
I30
sS'happened'
p258
I30
sS'dad'
p259
I30
sS'them'
p260
I29
sS'good'
p261
I23
sS'calm'
p262
I30
sS'yo'
p263
I30
sS'ya'
p264
I29
sS'powerful'
p265
I30
sS'uhh'
p266
I30
sS'lunch'
p267
I30
sS'therapy'
p268
I30
sS"you've"
p269
I30
sS'they'
p270
I26
sS'half'
p271
I30
sS'not'
p272
I20
sS'aka'
p273
I30
sS'now'
p274
I27
sS'(believe'
p275
I30
sS'day'
p276
I26
sS'bryan'
p277
I30
sS'everytime'
p278
I30
sS'always'
p279
I27
sS'arrested'
p280
I30
sS'playoff'
p281
I30
sS'truth'
p282
I27
sS'jersey'
p283
I30
sS'found'
p284
I29
sS'"graduated"'
p285
I30
sS'|'
p286
I28
sS'mean'
p287
I30
sS'el'
p288
I29
sS'everyone'
p289
I29
sS'another'
p290
I30
sS'challenged'
p291
I29
sS'series'
p292
I30
sS'energy'
p293
I30
sS'hard'
p294
I30
sS'ea'
p295
I30
sS'yeah'
p296
I29
sS'books'
p297
I30
sS'year'
p298
I30
sS'our'
p299
I27
sS'girl'
p300
I20
sS'morning'
p301
I29
sS'marley'
p302
I30
sS'event'
p303
I30
sS'out'
p304
I25
sS'rt'
p305
I29
sS'overcame'
p306
I30
sS'missed'
p307
I30
sS'driving'
p308
I30
sS'god'
p309
I29
sS'oklahoma'
p310
I30
sS'since'
p311
I29
sS'briankat'
p312
I30
sS'mate'
p313
I30
sS'hill'
p314
I30
sS"they'll"
p315
I30
sS'smh'
p316
I30
sS'medicine'
p317
I30
sS'got'
p318
I25
sS'mando'
p319
I30
sS'field.\xe2\x80\xa6'
p320
I30
sS'cause'
p321
I30
sS'correct'
p322
I29
sS'ass'
p323
I30
sS'eagle'
p324
I30
sS'dodgers'
p325
I23
sS'bully'
p326
I30
sS"you're"
p327
I28
sS'free'
p328
I29
sS'standard'
p329
I30
sS'yassss'
p330
I30
sS'put'
p331
I29
sS'wanted'
p332
I28
sS'care'
p333
I29
sS'training'
p334
I30
sS'rnow'
p335
I30
sS'grad'
p336
I30
sS'could'
p337
I30
sS'ritual'
p338
I30
sS'keep'
p339
I28
sS"lookin'"
p340
I30
sS'thing'
p341
I29
sS'american'
p342
I30
sS'retail'
p343
I30
sS'think'
p344
I21
sS'first'
p345
I25
sS"i'll"
p346
I30
sS'already'
p347
I30
sS'student'
p348
I30
sS'feel'
p349
I30
sS'*'
p350
I30
sS'confuse'
p351
I30
sS'one'
p352
I25
sS'feet'
p353
I30
sS'hinderance'
p354
I30
sS'done'
p355
I29
sS'directly'
p356
I30
sS'impossible'
p357
I30
sS'blows'
p358
I30
sS'miss'
p359
I28
sS'tomorrow'
p360
I25
sS"doesn't"
p361
I29
sS'little'
p362
I30
sS'"'
p363
I29
sS"there's"
p364
I30
sS'bios'
p365
I30
sS'twenty'
p366
I30
sS'top'
p367
I28
sS'girls'
p368
I29
sS'love*'
p369
I30
sS'anyone'
p370
I29
sS'their'
p371
I27
sS'2'
p372
I30
sS'too'
p373
I28
sS'statement'
p374
I30
sS'mama'
p375
I30
sS'man'
p376
I23
sS'store'
p377
I29
sS'hug'
p378
I30
sS'way'
p379
I30
sS'para'
p380
I30
sS'that'
p381
I15
sS'season'
p382
I30
sS'gym'
p383
I30
sS'bruh'
p384
I29
sS'took'
p385
I30
sS'kitchen'
p386
I30
sS'mandaste'
p387
I30
sS'part'
p388
I29
sS'butt'
p389
I30
sS'wasted'
p390
I29
sS'burrito'
p391
I30
sS'believe'
p392
I30
sS'than'
p393
I28
sS'11'
p394
I30
sS'10'
p395
I30
sS'john'
p396
I30
sS'gotten'
p397
I30
sS'shower'
p398
I30
sS'street'
p399
I30
sS'vocals'
p400
I30
sS'friend'
p401
I28
sS'were'
p402
I30
sS'1)'
p403
I30
sS'asleep'
p404
I30
sS"company's"
p405
I30
sS'and'
p406
I9
sS'gathering'
p407
I30
sS'dugan'
p408
I30
sS'palace'
p409
I30
sS'texans'
p410
I30
sS'tabs'
p411
I30
sS'learned'
p412
I30
sS'mind'
p413
I30
sS'marijuana'
p414
I30
sS'sad'
p415
I29
sS'tonight'
p416
I27
sS'awoken'
p417
I30
sS'say'
p418
I28
sS'have'
p419
I23
sS'need'
p420
I30
sS'seen'
p421
I30
sS'any'
p422
I30
sS'sat'
p423
I30
sS'devs'
p424
I30
sS'clutch'
p425
I30
sS'shorts'
p426
I30
sS'-'
p427
I27
sS'giants'
p428
I30
sS'lit'
p429
I30
sS'also'
p430
I28
sS'take'
p431
I28
sS'honestly'
p432
I30
sS'sure'
p433
I29
sS'unless'
p434
I30
sS'reality'
p435
I30
sS'manor'
p436
I27
sS'though'
p437
I30
sS'who'
p438
I25
sS'jorge'
p439
I30
sS'most'
p440
I30
sS'off\xe2\x80\x9d'
p441
I30
sS'why'
p442
I26
sS'swerve'
p443
I30
sS'maria'
p444
I30
sS'episode'
p445
I30
sS'bullied'
p446
I30
sS'fills'
p447
I30
sS'outflow'
p448
I30
sS'camp'
p449
I6
sS'hungry'
p450
I29
sS"you'll"
p451
I30
sS'absurd'
p452
I30
sS'link'
p453
I30
sS'sd'
p454
I30
sS'not)'
p455
I30
sS'wow'
p456
I30
sS'lying'
p457
I30
sS'saying'
p458
I29
sS'bomb'
p459
I30
sS"rb's"
p460
I30
sS'show'
p461
I30
sS'text'
p462
I29
sS'random'
p463
I6
sS'anyway'
p464
I30
sS'nominated'
p465
I30
sS'"pample-mousse"'
p466
I30
sS'bring'
p467
I30
sS'stoned'
p468
I30
sS'slippin'
p469
I30
sS'chicken'
p470
I30
sS'nevada'
p471
I29
sS'find'
p472
I29
sS'pe'
p473
I30
sS'ha'
p474
I28
sS'sayin'
p475
I30
sS'\xe2\x9c\x8b'
p476
I30
sS'title'
p477
I30
sS'zero..\xe2\x80\x9d'
p478
I30
sS'with'
p479
I18
sS'fans'
p480
I30
sS'should'
p481
I29
sS'athletic'
p482
I30
sS'only'
p483
I27
sS'going'
p484
I28
sS'pretty'
p485
I29
sS'photo'
p486
I30
sS'8'
p487
I30
sS'posted'
p488
I30
sS'inferior'
p489
I30
sS'"top'
p490
I30
sS'wearing'
p491
I30
sS'do'
p492
I24
sS'his'
p493
I29
sS'hit'
p494
I29
sS'gains'
p495
I30
sS'get'
p496
I20
sS'dope'
p497
I30
sS'alicia'
p498
I30
sS'watch'
p499
I29
sS'beam'
p500
I28
sS'b'
p501
I30
sS'almazan'
p502
I27
sS'during'
p503
I30
sS'workouts'
p504
I30
sS'him'
p505
I26
sS'regarding'
p506
I30
sS'married'
p507
I30
sS'borrow'
p508
I30
sS'teams'
p509
I29
sS'medias'
p510
I30
sS'bad'
p511
I29
sS'miles'
p512
I30
sS'she'
p513
I28
sS'glendale'
p514
I29
sS'where'
p515
I28
sS'worleyparsons'
p516
I30
sS'insane'
p517
I28
sS'bars'
p518
I30
sS'set'
p519
I30
sS'fair'
p520
I30
sS'vine'
p521
I30
sS"hasn't"
p522
I30
sS'unexpectedly'
p523
I30
sS'see'
p524
I26
sS'college'
p525
I28
sS'are'
p526
I17
sS'omg'
p527
I30
sS'flavor'
p528
I30
sS'best'
p529
I28
sS'interview'
p530
I30
sS'makers\xe2\x80\xa6'
p531
I30
sS'didgets'
p532
I30
sS'movie'
p533
I30
sS'away'
p534
I29
sS'currently'
p535
I30
sS'please'
p536
I29
sS'estate)'
p537
I30
sS'genius'
p538
I30
sS'3'
p539
I29
sS'won'
p540
I29
sS"man'"
p541
I30
sS'dms"?\xe2\x80\x9d'
p542
I30
sS'email'
p543
I30
sS'wide'
p544
I30
sS'knowing'
p545
I29
sS'we'
p546
I27
sS'nite'
p547
I30
sS'hardship'
p548
I30
sS'"girlfriend""'
p549
I30
sS'greinke'
p550
I30
sS'schoolboy'
p551
I30
sS'running\xe2\x80\x9d'
p552
I30
sS'key'
p553
I30
sS'comeback'
p554
I30
sS'flexin'
p555
I30
sS'come'
p556
I30
sS'clemson'
p557
I30
sS'pissed'
p558
I30
sS'21'
p559
I30
sS'league'
p560
I29
sS'protect'
p561
I30
sS'mans'
p562
I30
sS'last'
p563
I26
sS'legitimately'
p564
I30
sS'btdawson'
p565
I30
sS'qvme'
p566
I30
sS'tattoos/leatherbound'
p567
I30
sS'2am'
p568
I30
sS'against'
p569
I30
sS'estates'
p570
I29
sS'whole'
p571
I30
sS"can't"
p572
I28
sS'ily'
p573
I30
sS'cheerleaders'
p574
I30
sS'tough'
p575
I29
sS'bell'
p576
I30
sS'sweet'
p577
I30
sS'jeans'
p578
I30
sS'period'
p579
I29
sS'whatever'
p580
I30
sS'ca.)'
p581
I6
sS'pm'
p582
I30
sS'tons'
p583
I29
sS"caesar's"
p584
I30
sS'laugh'
p585
I30
sS'respect'
p586
I29
sS'labor'
p587
I30
sS'rings/foot'
p588
I30
sS'raise'
p589
I30
sS'puts'
p590
I30
sS"it's"
p591
I23
sS'acceptance'
p592
I30
sS'creativity'
p593
I30
sS'ucla'
p594
I30
sS'been'
p595
I29
sS'much'
p596
I28
sS'judging'
p597
I30
sS'women'
p598
I30
sS'featuring'
p599
I30
sS"berkley's"
p600
I30
sS'crawford'
p601
I30
sS'attractive'
p602
I29
sS'life'
p603
I29
sS'pic'
p604
I30
sS'families'
p605
I30
sS'finishes'
p606
I29
sS'cop'
p607
I30
sS'fire'
p608
I30
sS'cypress'
p609
I30
sS'homie'
p610
I30
sS'ones"'
p611
I30
sS'mine'
p612
I30
sS'memes?\xe2\x80\x9d'
p613
I30
sS'hatin'
p614
I30
sS'catch'
p615
I29
sS'(duarte'
p616
I6
sS'those'
p617
I30
sS'preferences'
p618
I30
sS'georgia'
p619
I30
sS'|\xe2\x80\xa6'
p620
I30
sS'look'
p621
I30
sS'these'
p622
I30
sS'might'
p623
I30
sS'tip'
p624
I30
sS'will'
p625
I26
sS'while'
p626
I28
sS'hahaha'
p627
I29
sS'fun'
p628
I27
sS'situation'
p629
I30
sS'robin'
p630
I29
sS'put*'
p631
I30
sS'fool'
p632
I30
sS'would'
p633
I28
sS'almost'
p634
I29
sS'is'
p635
I13
sS'it'
p636
I17
sS'bros'
p637
I29
sS'player'
p638
I30
sS'cant'
p639
I29
sS'someone'
p640
I30
sS'embrace'
p641
I30
sS'in'
p642
I14
sS'ready'
p643
I30
sS'fame'
p644
I30
sS'if'
p645
I19
sS'different'
p646
I30
sS'williams'
p647
I29
sS'shirt'
p648
I30
sS'open'
p649
I30
sS'perform'
p650
I30
sS'media'
p651
I30
sS'bowl'
p652
I30
sS'same'
p653
I30
sS'tells'
p654
I30
sS'food'
p655
I30
sS'heartbreak'
p656
I30
sS'yessir'
p657
I30
sS'party'
p658
I29
sS'struggling'
p659
I30
sS'definately'
p660
I30
sS'ball'
p661
I30
sS'keys'
p662
I30
sS'pick'
p663
I30
sS'moment'
p664
I30
sS'kim'
p665
I30
sS'redneck'
p666
I30
sS"i'm"
p667
I2
sS'tracking'
p668
I30
sS'off'
p669
I29
sS'i'
p670
I4
sS'casa'
p671
I30
sS'youre'
p672
I30
sS'well'
p673
I30
sS'dicaprio'
p674
I30
sS'person'
p675
I29
sS'without'
p676
I30
sS'glorious'
p677
I30
sS'the'
p678
I5
sS'muscle'
p679
I30
sS'left'
p680
I30
sS'just'
p681
I23
sS'being'
p682
I28
sS'money'
p683
I30
sS'(i'
p684
I30
sS'thanks'
p685
I29
sS'world'
p686
I30
sS'yes'
p687
I29
sS"dm's"
p688
I29
sS'yet'
p689
I29
sS'happiness'
p690
I30
sS'wee'
p691
I29
sS'thinking'
p692
I30
sS'royal'
p693
I30
sS'cats'
p694
I30
sS'bench'
p695
I30
sS'9:30'
p696
I30
sS'4'
p697
I28
sS'supervisor'
p698
I30
sS'has'
p699
I29
sS'excited'
p700
I30
sS'gave'
p701
I30
sS'real'
p702
I28
sS'sub'
p703
I30
sS'aspects'
p704
I30
sS'taunt'
p705
I30
sS"who's"
p706
I30
sS'boo'
p707
I30
sS'>'
p708
I30
sS'game'
p709
I24
sS'know'
p710
I25
sS'rip'
p711
I30
sS'taking'
p712
I30
sS'2nd'
p713
I30
sS'0%'
p714
I30
sS'like'
p715
I27
sS'success'
p716
I30
sS'cy'
p717
I30
sS'collect'
p718
I30
sS'peeves'
p719
I30
sS'continue'
p720
I30
sS'nose'
p721
I30
sS'inspiration'
p722
I30
sS'night'
p723
I24
sS'passionate'
p724
I30
sS'making'
p725
I30
sS'alabama'
p726
I30
sS'right'
p727
I30
sS'old'
p728
I30
sS'people'
p729
I25
sS'absolutely'
p730
I30
sS'twitter'
p731
I28
sS'successfully'
p732
I30
sS'some'
p733
I25
sS'back'
p734
I25
sS'dead'
p735
I30
sS'b4'
p736
I30
sS'mirror'
p737
I30
sS'home'
p738
I29
sS'harassment'
p739
I30
sS'delivered'
p740
I30
sS'humor'
p741
I30
sS'for'
p742
I12
sS'pet'
p743
I30
sS'literally'
p744
I30
sS'decision'
p745
I30
sS'thanksgiving'
p746
I30
sS'ice'
p747
I27
sS'everything'
p748
I30
sS'asking'
p749
I30
sS'be'
p750
I21
sS'grannies'
p751
I30
sS'lose'
p752
I30
sS'graduated'
p753
I30
sS'pitchers'
p754
I29
sS'raspberry'
p755
I30
sS'super'
p756
I30
sS'by'
p757
I28
sS'on'
p758
I24
sS'about'
p759
I27
sS'working'
p760
I27
sS'getting'
p761
I27
sS'of'
p762
I11
sS'&'
p763
I25
sS'favorite'
p764
I29
sS'swear'
p765
I29
sS'stand'
p766
I30
sS'stoked'
p767
I30
sS'wanna'
p768
I30
sS'or'
p769
I24
sS'swimming'
p770
I28
sS'ppl'
p771
I30
sS'garbage'
p772
I30
sS'wasting'
p773
I30
sS'into'
p774
I29
sS'doallity'
p775
I30
sS'soo'
p776
I30
sS'negative'
p777
I30
sS'down'
p778
I29
sS'momma'
p779
I30
sS'weather'
p780
I29
sS'leggings.she'
p781
I30
sS'darren'
p782
I30
sS'pairs'
p783
I30
sS'next'
p784
I30
sS'pointless'
p785
I30
sS'your'
p786
I27
sS'mental'
p787
I30
sS'metido'
p788
I30
sS'her'
p789
I24
sS'weekend'
p790
I28
sS'there'
p791
I26
sS'question'
p792
I29
sS'abrazo'
p793
I30
sS'lol'
p794
I23
sS'fight'
p795
I30
sS'start'
p796
I30
sS'joseph'
p797
I30
sS'downey'
p798
I30
sS'woooo'
p799
I30
sS'lot'
p800
I29
sS'house'
p801
I29
sS'biggest'
p802
I30
sS'bored'
p803
I28
sS'was'
p804
I22
sS'assumes'
p805
I30
sS'happy'
p806
I29
sS'himself'
p807
I30
sS'pitching'
p808
I30
sS"i've"
p809
I29
sS'bradbury'
p810
I29
sS'pitches'
p811
I30
sS'but'
p812
I22
sS'office;)'
p813
I30
sS'hear'
p814
I30
sS'tho'
p815
I30
sS'oaks\xe2\x80\xa6'
p816
I30
sS'hb'
p817
I30
sS'[pic]'
p818
I30
sS'line'
p819
I30
sS'trying'
p820
I29
sS'true'
p821
I29
sS'eat'
p822
I30
sS'he'
p823
I27
sS'count'
p824
I30
sS'wish'
p825
I30
sS'bucket'
p826
I29
sS'up'
p827
I26
sS'us'
p828
I26
sS'ur'
p829
I29
sS'un'
p830
I30
sS'stories'
p831
I30
sS'define'
p832
I30
sS'minutes'
p833
I29
sS'called'
p834
I29
sS'later'
p835
I30
sS'hotter'
p836
I30
sS'ah'
p837
I29
sS'mackin'
p838
I30
sS'deep'
p839
I29
sS'an'
p840
I28
sS'as'
p841
I29
sS'at'
p842
I1
sS'girlfriend'
p843
I30
sS'watched'
p844
I29
sS'check'
p845
I29
sS'no'
p846
I21
sS'45'
p847
I30
sS'when'
p848
I24
sS'lately'
p849
I30
sS'dang'
p850
I30
sS'finish'
p851
I30
sS'other'
p852
I30
sS'5'
p853
I30
sS'boom'
p854
I29
sS'4)'
p855
I30
sS'picking'
p856
I30
sS'tie'
p857
I30
sS'you'
p858
I7
sS'really'
p859
I28
sS"what's"
p860
I30
sS'nice'
p861
I30
sS'scored'
p862
I29
sS'album'
p863
I30
sS'chavez'
p864
I29
sS"'s"
p865
I30
sS'games'
p866
I30
sS'sooooo'
p867
I30
sS'youngyins'
p868
I30
sS'football'
p869
I30
sS'papa'
p870
I30
sS'andrew'
p871
I30
sS"let's"
p872
I30
sS'alright'
p873
I30
sS'kinda'
p874
I30
sS'irvine'
p875
I30
sS'friends'
p876
I29
sS'died'
p877
I30
sS'goin'
p878
I30
sS'\xe2\x99\xa1'
p879
I30
sS'im'
p880
I30
sS'cheated'
p881
I30
sS'mud'
p882
I30
sS'suit'
p883
I30
sS'dog'
p884
I30
sS'10:30am'
p885
I30
sS'hello'
p886
I30
sS'dr'
p887
I30
sS'passed'
p888
I30
sS'u'
p889
I30
sS'fsu'
p890
I30
sS'time'
p891
I19
sS'15-20'
p892
I30
sS'cabinet)'
p893
I30
sS'kickin'
p894
I30
sS'adult'
p895
I30
s.