(dp0
S''
p1
I1
sS'saves'
p2
I40
sS'sleep'
p3
I39
sS'hanging'
p4
I39
sS'hate'
p5
I37
sS'up*'
p6
I41
sS'tweet'
p7
I39
sS'ttyl'
p8
I41
sS'fartfaces'
p9
I41
sS'pazookie'
p10
I41
sS'teaching'
p11
I41
sS'sorry'
p12
I36
sS'pride'
p13
I41
sS'hormone'
p14
I41
sS'every'
p15
I41
sS'bringing'
p16
I41
sS'school'
p17
I40
sS'nudes'
p18
I41
sS'glued'
p19
I41
sS'ups'
p20
I41
sS'clothes'
p21
I41
sS'second'
p22
I41
sS'persuade'
p23
I41
sS'even'
p24
I37
sS'worsed'
p25
I41
sS'wreck'
p26
I41
sS'minuscule'
p27
I41
sS'mennonites'
p28
I41
sS'above'
p29
I40
sS'toll'
p30
I41
sS'new'
p31
I37
sS'she-ra'
p32
I40
sS'ever'
p33
I39
sS'told'
p34
I38
sS'kicked'
p35
I39
sS'man/woman*'
p36
I41
sS'never'
p37
I38
sS'here'
p38
I36
sS'dora'
p39
I41
sS"aren't"
p40
I41
sS'kids'
p41
I41
sS'study'
p42
I40
sS'gymnast'
p43
I41
sS'smoke'
p44
I41
sS'military'
p45
I41
sS"i'm"
p46
I17
sS'campaign'
p47
I41
sS'bro'
p48
I36
sS'bulgogieekgal'
p49
I39
sS'<3'
p50
I39
sS'cheating'
p51
I41
sS'would'
p52
I34
sS'cali'
p53
I41
sS'call'
p54
I39
sS'type'
p55
I41
sS'holy'
p56
I41
sS'haha'
p57
I33
sS'hurt'
p58
I41
sS'phone'
p59
I40
sS'lord'
p60
I41
sS'yard'
p61
I41
sS'hold'
p62
I41
sS'me'
p63
I13
sS'word'
p64
I40
sS'accomplishment'
p65
I41
sS'mt'
p66
I33
sS'my'
p67
I7
sS'pooped'
p68
I41
sS'homie'
p69
I39
sS'want'
p70
I34
sS'keep'
p71
I39
sS'hoe'
p72
I41
sS'tchaikovsky'
p73
I41
sS'sitting'
p74
I41
sS'how'
p75
I28
sS'amazing'
p76
I40
sS'gimp'
p77
I41
sS'pizza'
p78
I41
sS'becky'
p79
I40
sS'beauty'
p80
I41
sS'after'
p81
I36
sS'mouthy'
p82
I41
sS'wrong'
p83
I40
sS'meaningful'
p84
I41
sS'lesbian'
p85
I40
sS'types'
p86
I40
sS"they're"
p87
I40
sS'purchase'
p88
I41
sS'choking'
p89
I41
sS'anita'
p90
I41
sS'parish'
p91
I40
sS'make'
p92
I36
sS'backdrop'
p93
I41
sS'[vid]'
p94
I41
sS'over'
p95
I40
sS'foreal'
p96
I40
sS'before'
p97
I41
sS'4evr'
p98
I41
sS'personal'
p99
I41
sS'better'
p100
I36
sS'fade'
p101
I41
sS'hidden'
p102
I41
sS'then'
p103
I39
sS'them'
p104
I37
sS'thrones'
p105
I39
sS'weakness'
p106
I40
sS'workout'
p107
I41
sS'teachand'
p108
I41
sS'break'
p109
I41
sS'band'
p110
I41
sS'\xe2\x98\xba\xef\xb8\x8f'
p111
I39
sS'one'
p112
I26
sS'netherlands'
p113
I41
sS'went'
p114
I39
sS'crocs'
p115
I41
sS'mean'
p116
I41
sS'dawg'
p117
I41
sS'forgot'
p118
I41
sS'trails!\xe2\x80\xa6'
p119
I41
sS'rt'
p120
I41
sS'driving'
p121
I41
sS'sluts'
p122
I41
sS'strangers'
p123
I41
sS'adapt'
p124
I41
sS'smh'
p125
I41
sS'got'
p126
I27
sS'perception'
p127
I41
sS"you're"
p128
I35
sS'theirselves'
p129
I41
sS'wanted'
p130
I41
sS'days'
p131
I39
sS'competed'
p132
I41
sS"today's"
p133
I40
sS'buycott'
p134
I41
sS'already'
p135
I38
sS'delicious'
p136
I41
sS'hood'
p137
I41
sS'girlz'
p138
I41
sS'girly'
p139
I41
sS'top'
p140
I40
sS'girls'
p141
I38
sS'needed'
p142
I40
sS'too'
p143
I31
sS'rockin'
p144
I41
sS'legs'
p145
I41
sS'toe'
p146
I41
sS'movies/tv'
p147
I41
sS'took'
p148
I40
sS'distance'
p149
I41
sS'showed'
p150
I41
sS'hike'
p151
I34
sS'shower'
p152
I41
sS'wear\xe2\x98\xba\xef\xb8\x8f\xe2\x80\x9d'
p153
I41
sS'silly'
p154
I40
sS'feeling'
p155
I40
sS'ran'
p156
I38
sS'mine'
p157
I40
sS'ginger'
p158
I41
sS'spent'
p159
I41
sS'talking'
p160
I39
sS'corny'
p161
I41
sS'seen'
p162
I40
sS'seem'
p163
I41
sS'it\xe2\x80\x9d'
p164
I41
sS'tho'
p165
I41
sS'-'
p166
I36
sS'laughed'
p167
I41
sS'doin'
p168
I41
sS'germany'
p169
I40
sS'episode'
p170
I41
sS'doo'
p171
I41
sS'alarm'
p172
I41
sS'camp'
p173
I40
sS'm'
p174
I41
sS'dog'
p175
I40
sS'points'
p176
I41
sS'boyfriends'
p177
I41
sS'saying'
p178
I41
sS'ending'
p179
I41
sS'colors'
p180
I41
sS'nephew'
p181
I41
sS'enjoyed'
p182
I41
sS'clicked'
p183
I41
sS'crossfit'
p184
I41
sS'bush'
p185
I41
sS'conversation.\xe2\x80\x9d'
p186
I41
sS'lady'
p187
I41
sS'do'
p188
I23
sS'stop'
p189
I40
sS'da'
p190
I40
sS'wedding'
p191
I41
sS'bat'
p192
I41
sS'idiotic'
p193
I41
sS'bad'
p194
I37
sS'softly'
p195
I41
sS'gears'
p196
I40
sS'thanks'
p197
I40
sS'fair'
p198
I41
sS'w/'
p199
I40
sS'o_o'
p200
I41
sS'best'
p201
I39
sS'brazil'
p202
I40
sS'said'
p203
I41
sS'lots'
p204
I41
sS'away'
p205
I40
sS'unable'
p206
I41
sS'olympics'
p207
I41
sS'lessons?no'
p208
I41
sS'irb'
p209
I41
sS'we'
p210
I27
sS'men'
p211
I40
sS'omg'
p212
I40
sS'nature'
p213
I41
sS'rolled'
p214
I41
sS'drew'
p215
I41
sS'picking'
p216
I41
sS'climate'
p217
I41
sS'outcome'
p218
I41
sS'adventures'
p219
I41
sS'against'
p220
I41
sS'games'
p221
I41
sS'lookin'
p222
I41
sS'ily'
p223
I38
sS'spear'
p224
I41
sS'had'
p225
I39
sS'canyon'
p226
I40
sS'foray'
p227
I41
sS'trust'
p228
I40
sS'partialism'
p229
I41
sS'ropes'
p230
I41
sS'sachs'
p231
I41
sS'been'
p232
I34
sS'beer'
p233
I41
sS'much'
p234
I31
sS'basic'
p235
I41
sS'life'
p236
I30
sS'hennessy'
p237
I41
sS'chile'
p238
I41
sS'xxi'
p239
I41
sS'chill'
p240
I41
sS'has'
p241
I33
sS'tastes'
p242
I41
sS'n'
p243
I39
sS'aim'
p244
I41
sS'ugly'
p245
I40
sS'voice'
p246
I41
sS'shiaaat'
p247
I41
sS'k'
p248
I41
sS'mistake'
p249
I41
sS'remembering'
p250
I41
sS'seven'
p251
I41
sS'played'
p252
I40
sS'is'
p253
I8
sS'it'
p254
I10
sS'cant'
p255
I41
sS'im'
p256
I36
sS'in'
p257
I11
sS'march'
p258
I41
sS'if'
p259
I24
sS'anybody'
p260
I41
sS'things'
p261
I37
sS'realizing'
p262
I41
sS'potentially'
p263
I41
sS'xxoo'
p264
I41
sS'grows'
p265
I41
sS'p2m3r'
p266
I39
sS'dolorosa'
p267
I41
sS'social'
p268
I41
sS'evil'
p269
I41
sS'kim'
p270
I41
sS'jealous'
p271
I40
sS'tune'
p272
I41
sS'kid'
p273
I41
sS'hearti'
p274
I41
sS'smokes'
p275
I41
sS'madre)'
p276
I41
sS'greatest'
p277
I40
sS'romo'
p278
I41
sS'the'
p279
I4
sS'yours'
p280
I41
sS'left'
p281
I39
sS'slutty'
p282
I41
sS'just'
p283
I18
sS'photo'
p284
I38
sS'thumbs'
p285
I41
sS'yes'
p286
I38
sS'yet'
p287
I40
sS'hah'
p288
I41
sS'adding'
p289
I41
sS'-__-'
p290
I41
sS'save'
p291
I39
sS'babes'
p292
I41
sS'ops'
p293
I41
sS'awhile'
p294
I41
sS'judge'
p295
I41
sS'brought'
p296
I41
sS'xbox'
p297
I41
sS'zombies'
p298
I41
sS'night'
p299
I31
sS'hung'
p300
I41
sS'right'
p301
I35
sS'old'
p302
I38
sS'deal'
p303
I41
sS'people'
p304
I33
sS'jaron'
p305
I41
sS'op-ed'
p306
I41
sS'humor'
p307
I41
sS'for'
p308
I16
sS"brother-in-law's"
p309
I41
sS'ice'
p310
I41
sS'everything'
p311
I40
sS'adorable'
p312
I41
sS'christmas'
p313
I41
sS'shaker'
p314
I41
sS'algorithmic'
p315
I41
sS'burn'
p316
I41
sS'super'
p317
I40
sS'trophy'
p318
I41
sS'commin'
p319
I41
sS'*in'
p320
I41
sS'o'
p321
I40
sS'dinner'
p322
I41
sS'genocide'
p323
I41
sS'afternoon'
p324
I41
sS'nooooooo'
p325
I41
sS'selfie'
p326
I40
sS'soo'
p327
I41
sS'son'
p328
I41
sS'down'
p329
I39
sS'thankful'
p330
I41
sS'erry'
p331
I41
sS'bats'
p332
I41
sS'honored'
p333
I41
sS'support'
p334
I41
sS'flying'
p335
I40
sS'class'
p336
I41
sS'stuck'
p337
I41
sS'way'
p338
I35
sS'music'
p339
I41
sS'was'
p340
I21
sS'war'
p341
I39
sS'happy'
p342
I32
sS'head'
p343
I41
sS'infomercial'
p344
I41
sS'8246642924569'
p345
I41
sS'back'
p346
I38
sS'heat'
p347
I40
sS'hear'
p348
I41
sS'true'
p349
I38
sS'inside'
p350
I41
sS'whisked'
p351
I41
sS'covers'
p352
I41
sS'floating'
p353
I41
sS'check'
p354
I41
sS'shit'
p355
I33
sS'floor'
p356
I40
sS'when'
p357
I32
sS'test'
p358
I41
sS'smell'
p359
I41
sS'football'
p360
I41
sS'update'
p361
I41
sS"let's"
p362
I39
sS'weekend'
p363
I40
sS'happening'
p364
I41
sS'pefect'
p365
I41
sS'together'
p366
I40
sS'teeth'
p367
I41
sS'overdue'
p368
I41
sS':/'
p369
I38
sS':)'
p370
I41
sS'dance'
p371
I41
sS'invent'
p372
I41
sS'leads'
p373
I41
sS'yummy'
p374
I41
sS'diggity"'
p375
I41
sS'father'
p376
I41
sS'disgusting'
p377
I41
sS'0'
p378
I41
sS'finally'
p379
I41
sS'macha'
p380
I41
sS'mobbed'
p381
I41
sS'string'
p382
I40
sS'\xe2\x9a\xbe\xef\xb8\x8f'
p383
I41
sS'locked'
p384
I40
sS'trouble'
p385
I41
sS':p'
p386
I40
sS'minute'
p387
I41
sS'cool'
p388
I38
sS'clouds'
p389
I39
sS'call...raid'
p390
I41
sS'did'
p391
I37
sS'turns'
p392
I41
sS'dig'
p393
I40
sS'posts'
p394
I41
sS'accidentally'
p395
I41
sS'leave'
p396
I40
sS'boba*'
p397
I41
sS'team'
p398
I41
sS'guy'
p399
I38
sS'prom."i'
p400
I41
sS'work'
p401
I38
sS'porn'
p402
I41
sS'trails'
p403
I41
sS'sign'
p404
I41
sS'sturtevant'
p405
I24
sS"clare's"
p406
I41
sS'reply'
p407
I41
sS'have.keep'
p408
I41
sS'grandparents'
p409
I41
sS'understanding'
p410
I41
sS'water'
p411
I34
sS'baseball'
p412
I40
sS'laughin'
p413
I41
sS'change'
p414
I39
sS'wait'
p415
I40
sS'checkpoint.\xe2\x80\x9d'
p416
I41
sS'arcadia'
p417
I41
sS'hbk'
p418
I41
sS'boo'
p419
I40
sS'weird'
p420
I40
sS'breathtaking'
p421
I41
sS'love'
p422
I24
sS'lasts'
p423
I41
sS'hiking'
p424
I38
sS'fammmmm'
p425
I41
sS'baby'
p426
I40
sS'working'
p427
I41
sS'angry'
p428
I41
sS'give'
p429
I40
sS'parties'
p430
I41
sS'live'
p431
I41
sS'today'
p432
I33
sS'sharing'
p433
I41
sS'everywhere'
p434
I41
sS'organizations'
p435
I41
sS'niggas'
p436
I41
sS'car'
p437
I41
sS'cat'
p438
I39
sS'can'
p439
I36
sS'following'
p440
I41
sS'making'
p441
I41
sS'figure'
p442
I41
sS'awesome'
p443
I38
sS"didn't"
p444
I38
sS'fuck'
p445
I37
sS'heard'
p446
I41
sS'aborz'
p447
I41
sS'listens'
p448
I41
sS'calendar....all'
p449
I41
sS'watching'
p450
I32
sS'cliche'
p451
I41
sS'1'
p452
I40
sS'till'
p453
I40
sS'sunday'
p454
I39
sS'nye'
p455
I41
sS'explorer'
p456
I41
sS'may'
p457
I38
sS'dive'
p458
I41
sS'lucky'
p459
I40
sS'birthday'
p460
I40
sS'mad'
p461
I41
sS'jacqs'
p462
I41
sS'such'
p463
I40
sS'heroes'
p464
I41
sS'guys'
p465
I38
sS'man'
p466
I36
sS'twitch'
p467
I41
sS'remember'
p468
I38
sS'maybe'
p469
I41
sS'st'
p470
I40
sS'falls)'
p471
I41
sS'so'
p472
I12
sS'us\xe2\x80\xa6'
p473
I41
sS'tall'
p474
I41
sS'sf'
p475
I41
sS'talk'
p476
I38
sS'cute'
p477
I40
sS'yuli'
p478
I41
sS'brain'
p479
I41
sS'bucking'
p480
I41
sS'cold'
p481
I41
sS'still'
p482
I32
sS'lie.but'
p483
I41
sS'thank'
p484
I39
sS"he's"
p485
I41
sS'tweets'
p486
I40
sS'happened'
p487
I41
sS'moms'
p488
I41
sS'devastated'
p489
I41
sS"obama's"
p490
I41
sS'lunch'
p491
I41
sS'safari'
p492
I41
sS'half'
p493
I40
sS'not'
p494
I31
sS'now'
p495
I31
sS'halo'
p496
I40
sS'name'
p497
I40
sS'drop'
p498
I40
sS'advent'
p499
I41
sS'realistic'
p500
I41
sS'turtle'
p501
I41
sS'yeah'
p502
I37
sS'contributor'
p503
I41
sS'catching'
p504
I41
sS'year'
p505
I39
sS'girl'
p506
I39
sS'funnest'
p507
I41
sS'looking'
p508
I41
sS'seriously'
p509
I41
sS'bugging'
p510
I41
sS'eagle'
p511
I41
sS'goth'
p512
I41
sS'james\xe2\x80\x9d'
p513
I41
sS'disrespect'
p514
I41
sS'argo'
p515
I41
sS'(se7en)'
p516
I41
sS'care'
p517
I40
sS'brasil'
p518
I41
sS'waiter'
p519
I41
sS'100%'
p520
I41
sS'thing'
p521
I34
sS'place'
p522
I41
sS'gordon'
p523
I41
sS'yess'
p524
I41
sS'think'
p525
I38
sS'he\xe2\x80\xa6'
p526
I41
sS'first'
p527
I33
sS'626'
p528
I41
sS'stevens'
p529
I41
sS'rachel'
p530
I41
sS'yourself'
p531
I41
sS'xx'
p532
I41
sS'fast'
p533
I40
sS'sounds'
p534
I41
sS'open'
p535
I41
sS'tomorrow'
p536
I39
sS'little'
p537
I39
sS'bite'
p538
I41
sS'anyone'
p539
I41
sS'2'
p540
I39
sS'structures'
p541
I41
sS'friend'
p542
I35
sS'exploring'
p543
I41
sS'that'
p544
I17
sS'season'
p545
I40
sS'than'
p546
I40
sS'milton'
p547
I41
sS'10'
p548
I41
sS'12'
p549
I41
sS'disses'
p550
I41
sS'gotta'
p551
I41
sS'were'
p552
I39
sS'"marilyn"'
p553
I41
sS'and'
p554
I9
sS'eye-opening'
p555
I41
sS'turned'
p556
I41
sS'sad'
p557
I41
sS'say'
p558
I40
sS'rent'
p559
I41
sS'anger'
p560
I41
sS'breakfast'
p561
I41
sS'saw'
p562
I41
sS'any'
p563
I41
sS'marathon'
p564
I41
sS'form'
p565
I41
sS'take'
p566
I39
sS'online'
p567
I41
sS'switching'
p568
I41
sS'normal'
p569
I41
sS'price'
p570
I41
sS'<3\xe2\x80\xa6'
p571
I41
sS'falls'
p572
I26
sS'voice*'
p573
I40
sS'forever'
p574
I41
sS"80's"
p575
I41
sS'music*'
p576
I41
sS'beckham'
p577
I41
sS'show'
p578
I38
sS'fifty'
p579
I41
sS'shoe'
p580
I41
sS'data'
p581
I41
sS'waves'
p582
I41
sS'dice'
p583
I41
sS'\xe2\x9c\x8b'
p584
I40
sS'title'
p585
I41
sS'outside'
p586
I41
sS'only'
p587
I36
sS'going'
p588
I31
sS'sierra'
p589
I35
sS'posted'
p590
I39
sS'get'
p591
I30
sS'truly'
p592
I41
sS'gee'
p593
I41
sS'gem'
p594
I40
sS'freaking'
p595
I40
sS'"american."'
p596
I41
sS'morning'
p597
I40
sS":'("
p598
I41
sS'losers'
p599
I41
sS'unibrow'
p600
I41
sS'where'
p601
I39
sS'\xe2\x80\x9cwhat'
p602
I41
sS'hoes'
p603
I41
sS'wonder'
p604
I40
sS'israeli'
p605
I41
sS'enlightening'
p606
I41
sS'amen'
p607
I41
sS'enough'
p608
I41
sS'screen'
p609
I41
sS'spartan'
p610
I41
sS'gabrieleno'
p611
I41
sS'killing'
p612
I39
sS'come'
p613
I40
sS'many'
p614
I41
sS'quiet'
p615
I41
sS's'
p616
I41
sS'yeeee'
p617
I41
sS'comes'
p618
I41
sS'handouts'
p619
I41
sS"(he'll"
p620
I41
sS'color'
p621
I41
sS'howreplaceable'
p622
I41
sS"couldn't"
p623
I41
sS'cancel'
p624
I41
sS'boat'
p625
I41
sS'mt.\xe2\x80\xa6'
p626
I40
sS'cares'
p627
I41
sS'stretch'
p628
I41
sS'barry'
p629
I41
sS'ucla'
p630
I41
sS'breath'
p631
I41
sS'peaceful'
p632
I41
sS'wants'
p633
I41
sS'suspicions'
p634
I41
sS'overdose'
p635
I41
sS'spirit'
p636
I41
sS'those'
p637
I40
sS'myself'
p638
I41
sS'casa'
p639
I41
sS'these'
p640
I37
sS'mount'
p641
I37
sS'w'
p642
I39
sS'sleeping'
p643
I41
sS'someone'
p644
I37
sS'punched'
p645
I41
sS'impaled'
p646
I41
sS'technology'
p647
I40
sS'everyday'
p648
I41
sS'worry'
p649
I41
sS'lol-ing'
p650
I41
sS'different'
p651
I41
sS'bowl'
p652
I41
sS'same'
p653
I41
sS'food'
p654
I41
sS'aerobics'
p655
I41
sS'pal'
p656
I41
sS'week'
p657
I37
sS'dyinggggggggggggggggg'
p658
I41
sS'(sierra'
p659
I37
sS'running'
p660
I41
sS'changing'
p661
I40
sS'totally'
p662
I41
sS'scenic-ass'
p663
I41
sS'no'
p664
I26
sS'magical'
p665
I41
sS'without'
p666
I41
sS"can't"
p667
I38
sS'very'
p668
I41
sS'summer'
p669
I41
sS'they'
p670
I28
sS'being'
p671
I36
sS'actress'
p672
I41
sS'kill'
p673
I40
sS'wifey'
p674
I41
sS'death'
p675
I41
sS'thinking'
p676
I41
sS'rose'
p677
I41
sS"everyone's"
p678
I41
sS'except'
p679
I41
sS'lets'
p680
I39
sS'ahhhh'
p681
I41
sS'4'
p682
I38
sS'thoughts'
p683
I41
sS'dicks'
p684
I41
sS'swim'
p685
I41
sS'around'
p686
I41
sS'read'
p687
I41
sS'gonna'
p688
I41
sS'early'
p689
I41
sS'\xe2\x9d\xa4'
p690
I40
sS'world'
p691
I39
sS'deets'
p692
I41
sS'it.\xe2\x80\xa6'
p693
I41
sS'buddies'
p694
I41
sS'benefit'
p695
I41
sS't'
p696
I41
sS'haram'
p697
I41
sS'escalators'
p698
I41
sS'learning'
p699
I41
sS'thinks'
p700
I41
sS'mt\xe2\x80\xa6'
p701
I41
sS'confirm'
p702
I41
sS'welcome'
p703
I41
sS'confided'
p704
I41
sS'asap'
p705
I41
sS';)'
p706
I41
sS'earlier'
p707
I41
sS'on'
p708
I19
sS'ol'
p709
I41
sS'ok'
p710
I38
sS'ace'
p711
I41
sS'oh'
p712
I38
sS'of'
p713
I9
sS'favorite'
p714
I39
sS'lifestyles'
p715
I41
sS'or'
p716
I33
sS'op'
p717
I41
sS'outlook'
p718
I41
sS'snapchat'
p719
I40
sS'nowadayz'
p720
I41
sS'gary'
p721
I41
sS'your'
p722
I26
sS'neymar'
p723
I41
sS'her'
p724
I40
sS'area'
p725
I41
sS'there'
p726
I37
sS'hey'
p727
I41
sS'lol'
p728
I21
sS'start'
p729
I36
sS'lot'
p730
I40
sS'chats'
p731
I41
sS'manipulative'
p732
I41
sS'cottage'
p733
I35
sS'trying'
p734
I39
sS'with'
p735
I15
sS'pull'
p736
I41
sS'default'
p737
I41
sS'agree'
p738
I41
sS'ad'
p739
I41
sS'taste'
p740
I41
sS'accents'
p741
I41
sS'describe'
p742
I41
sS'deer'
p743
I41
sS'an'
p744
I38
sS'as'
p745
I37
sS'dat\xe2\x80\xa6'
p746
I41
sS'at'
p747
I20
sS'cream'
p748
I41
sS'again'
p749
I38
sS'399060'
p750
I41
sS'deserve'
p751
I41
sS'you'
p752
I6
sS'time'
p753
I25
sS'of\xe2\x80\xa6'
p754
I41
sS'3-4'
p755
I41
sS'having'
p756
I41
sS'u'
p757
I31
sS'missouri'
p758
I41
sS'alright'
p759
I41
sS'starting'
p760
I41
sS'original'
p761
I41
sS'all'
p762
I23
sS'jolly'
p763
I41
sS'apartment'
p764
I41
sS'tv'
p765
I40
sS'to'
p766
I3
sS'aaron'
p767
I41
sS'smile'
p768
I39
sS'royally'
p769
I41
sS'baidu'
p770
I41
sS'song'
p771
I40
sS'far'
p772
I38
sS"we've"
p773
I41
sS'fam'
p774
I40
sS'list'
p775
I41
sS'grandfather'
p776
I41
sS'~1600'
p777
I41
sS"i'll"
p778
I35
sS'neighborhood'
p779
I41
sS'past'
p780
I41
sS'yassssssss'
p781
I41
sS'casual'
p782
I41
sS'ribbon'
p783
I41
sS'what'
p784
I22
sS'sub'
p785
I41
sS'emotions'
p786
I41
sS'him-'
p787
I41
sS'attitudes'
p788
I41
sS'.wilson'
p789
I41
sS'videogame'
p790
I41
sS'subtweet\xe2\x80\x9d'
p791
I41
sS'hours'
p792
I40
sS'yaaaaaa'
p793
I41
sS'shoulda'
p794
I41
sS'pick'
p795
I40
sS"would've"
p796
I40
sS'via'
p797
I40
sS'family'
p798
I36
sS'rattlesnakes'
p799
I41
sS'two'
p800
I40
sS'almost'
p801
I41
sS'6'
p802
I41
sS'tacky'
p803
I41
sS'more'
p804
I38
sS'door'
p805
I41
sS'knows'
p806
I41
sS'landed'
p807
I41
sS"ain't"
p808
I41
sS'known'
p809
I41
sS'glad'
p810
I41
sS'sucks'
p811
I40
sS'del'
p812
I41
sS'learn'
p813
I40
sS'embrace'
p814
I41
sS'abrahamic'
p815
I41
sS'beautiful'
p816
I36
sS'work(ed)'
p817
I41
sS'autumn'
p818
I41
sS'thug'
p819
I41
sS'elbowed'
p820
I41
sS'sense'
p821
I41
sS'huge'
p822
I40
sS'goal'
p823
I41
sS'awkward'
p824
I40
sS'acts'
p825
I41
sS'needa'
p826
I41
sS':d'
p827
I41
sS'okay'
p828
I41
sS'tried'
p829
I41
sS'adventure'
p830
I41
sS'coming'
p831
I39
sS'a'
p832
I5
sS'short'
p833
I41
sS'tweeting'
p834
I41
sS'shady'
p835
I40
sS'playing'
p836
I39
sS"that's"
p837
I40
sS'mexican'
p838
I41
sS'help'
p839
I39
sS"don't"
p840
I30
sS'soon'
p841
I41
sS'through'
p842
I39
sS'hell'
p843
I40
sS'25'
p844
I41
sS'pray'
p845
I41
sS'beyonce'
p846
I41
sS'actually'
p847
I40
sS'late'
p848
I40
sS'bout'
p849
I41
sS'cutie'
p850
I40
sS'might'
p851
I39
sS'alter'
p852
I41
sS"haven't"
p853
I40
sS'hurting'
p854
I41
sS'good'
p855
I33
sS'allllll'
p856
I41
sS'ya'
p857
I37
sS'outpredicts'
p858
I41
sS'redbox'
p859
I41
sS'hahahahahaha'
p860
I41
sS'vaughn'
p861
I41
sS'bigger'
p862
I41
sS'it1'
p863
I41
sS'always'
p864
I39
sS'drake'
p865
I41
sS'm\xc3\xa1s'
p866
I41
sS'found'
p867
I40
sS"isn't"
p868
I40
sS'heavy'
p869
I41
sS'everyone'
p870
I37
sS'house'
p871
I40
sS'energy'
p872
I41
sS'hard'
p873
I41
sS'idea'
p874
I41
sS'brother'
p875
I41
sS'beyond'
p876
I41
sS'really'
p877
I33
sS'funding'
p878
I41
sS'trusts'
p879
I41
sS'7'
p880
I41
sS'ass'
p881
I34
sS'asu'
p882
I41
sS'dirt'
p883
I41
sS'friday'
p884
I41
sS'bulls'
p885
I41
sS'reason'
p886
I41
sS'imagine'
p887
I41
sS'ask'
p888
I39
sS'chantry'
p889
I41
sS'definition'
p890
I40
sS'owners'
p891
I41
sS'deja'
p892
I41
sS'throws'
p893
I41
sS'feed'
p894
I41
sS'dont'
p895
I38
sS'feel'
p896
I35
sS'fancy'
p897
I41
sS'barbarian'
p898
I41
sS'done'
p899
I39
sS'colombia'
p900
I41
sS'miss'
p901
I36
sS'differ'
p902
I41
sS'them\xe2\x80\x9d'
p903
I41
sS'passed'
p904
I40
sS'jen'
p905
I41
sS'headache'
p906
I40
sS'park'
p907
I41
sS'outgrown'
p908
I41
sS'part'
p909
I41
sS'jordan'
p910
I41
sS'believe'
p911
I41
sS'kind'
p912
I40
sS'b'
p913
I41
sS'double'
p914
I40
sS'grey'
p915
I41
sS'youth'
p916
I41
sS'supposed'
p917
I41
sS'deciding'
p918
I41
sS'phobia'
p919
I41
sS'lie'
p920
I41
sS'wilson'
p921
I29
sS'built'
p922
I41
sS'dancing'
p923
I41
sS'lil'
p924
I37
sS'henny'
p925
I41
sS'eff'
p926
I41
sS'play'
p927
I38
sS'added'
p928
I41
sS'goldman'
p929
I41
sS'most'
p930
I39
sS'nothing'
p931
I39
sS'accepting'
p932
I41
sS'refrigerator'
p933
I40
sS'sometimes'
p934
I37
sS'clean'
p935
I41
sS'ugh'
p936
I41
sS'gold'
p937
I41
sS'stfu'
p938
I40
sS'$28...we'
p939
I41
sS'tuesdays'
p940
I41
sS'find'
p941
I40
sS'failed'
p942
I40
sS'pretty'
p943
I38
sS'8'
p944
I41
sS'his'
p945
I41
sS'prowess'
p946
I41
sS'sunny'
p947
I41
sS'feels'
p948
I41
sS'observatory'
p949
I41
sS'longest'
p950
I41
sS'imitating'
p951
I41
sS'him'
p952
I40
sS'cry'
p953
I40
sS'hype'
p954
I41
sS'insane'
p955
I41
sS'body'
p956
I40
sS'set'
p957
I41
sS'vine'
p958
I41
sS'see'
p959
I32
sS'9-mile'
p960
I41
sS'bare'
p961
I41
sS'are'
p962
I22
sS'close'
p963
I41
sS'retweet'
p964
I41
sS'fabulous\xe2\x80\xa6'
p965
I41
sS'matter'
p966
I41
sS'pictures'
p967
I41
sS'wow'
p968
I39
sS'gabelane65'
p969
I41
sS'fans'
p970
I40
sS'won'
p971
I41
sS'rite'
p972
I41
sS'rita'
p973
I40
sS'hecka'
p974
I41
sS'sturtevant\xe2\x80\xa6'
p975
I41
sS'pissed'
p976
I41
sS'c'
p977
I41
sS'last'
p978
I37
sS'foreign'
p979
I41
sS'alot'
p980
I41
sS'retarded'
p981
I41
sS'whole'
p982
I41
sS'\xe2\x98\xba'
p983
I41
sS'bell'
p984
I41
sS'sweet'
p985
I41
sS'whatever'
p986
I41
sS'dancer'
p987
I41
sS'church'
p988
I41
sS'ride..thank'
p989
I41
sS'low-flowing'
p990
I41
sS'lovedrunaway'
p991
I41
sS'damn'
p992
I39
sS'pn'
p993
I41
sS'woke'
p994
I41
sS'gay'
p995
I41
sS"what's"
p996
I41
sS'awake'
p997
I41
sS'look'
p998
I39
sS'frozen'
p999
I41
sS'fun'
p1000
I39
sS'real'
p1001
I37
sS'pound'
p1002
I41
sS'hoping'
p1003
I41
sS'madre\xe2\x80\xa6'
p1004
I41
sS'chase'
p1005
I41
sS'funny'
p1006
I40
sS'decor'
p1007
I41
sS'anymore'
p1008
I41
sS'\xe2\x98\x85'
p1009
I41
sS'itchy'
p1010
I41
sS'used'
p1011
I40
sS'mountain'
p1012
I40
sS'yesterday'
p1013
I39
sS'moment'
p1014
I40
sS'cleaning'
p1015
I41
sS'decency'
p1016
I41
sS'older'
p1017
I40
sS'~william'
p1018
I41
sS'person'
p1019
I38
sS'spend'
p1020
I40
sS'mom'
p1021
I41
sS'reviewed'
p1022
I41
sS'"cute"'
p1023
I40
sS'cup'
p1024
I41
sS'hated'
p1025
I41
sS'cuz'
p1026
I40
sS'remaining'
p1027
I40
sS'bio'
p1028
I41
sS'victims'
p1029
I41
sS'insert'
p1030
I41
sS'big'
p1031
I37
sS'showing'
p1032
I41
sS'wives'
p1033
I41
sS'shitty'
p1034
I41
sS'game'
p1035
I35
sS'bit'
p1036
I40
sS'projects'
p1037
I41
sS'd'
p1038
I41
sS'glove'
p1039
I41
sS'continue'
p1040
I41
sS'parade'
p1041
I41
sS'fucking'
p1042
I40
sS'duck'
p1043
I41
sS'some'
p1044
I27
sS'pierre'
p1045
I41
sS'selfishness'
p1046
I41
sS'quote'
p1047
I41
sS'epic'
p1048
I41
sS'bd'
p1049
I41
sS'be'
p1050
I26
sS'run'
p1051
I41
sS'ba'
p1052
I41
sS'bb'
p1053
I41
sS'burrrr'
p1054
I41
sS'santa'
p1055
I41
sS'by'
p1056
I36
sS'favoritin'
p1057
I41
sS'wildlife'
p1058
I41
sS'anything'
p1059
I41
sS'netflix'
p1060
I40
sS'10miler'
p1061
I41
sS'ppl'
p1062
I41
sS'jimmy'
p1063
I41
sS'into'
p1064
I35
sS'"research"'
p1065
I41
sS'ayyy'
p1066
I41
sS'lebron'
p1067
I41
sS'ca)'
p1068
I36
sS'long'
p1069
I38
sS'custom'
p1070
I41
sS'bruh'
p1071
I41
sS'bored'
p1072
I40
sS'scared'
p1073
I41
sS'mountains'
p1074
I40
sS'*only'
p1075
I41
sS'\xe2\x99\xa1'
p1076
I34
sS'inhumane'
p1077
I41
sS'fries'
p1078
I41
sS'up'
p1079
I27
sS'us'
p1080
I38
sS'ur'
p1081
I39
sS'faded'
p1082
I41
sS'warning'
p1083
I41
sS'peace'
p1084
I41
sS'nap'
p1085
I41
sS'nice'
p1086
I34
sS'*weird'
p1087
I41
sS'users'
p1088
I41
sS'problems'
p1089
I40
sS'helping'
p1090
I41
sS'ago'
p1091
I41
sS'e'
p1092
I41
sS'age'
p1093
I41
sS'mater'
p1094
I41
sS'burrito:"i'
p1095
I41
sS'karma'
p1096
I41
sS'kickin'
p1097
I41
sS'once'
p1098
I41
sS'borderlands'
p1099
I41
sS'dispel'
p1100
I41
sS'gang'
p1101
I41
sS'freakin'
p1102
I41
sS'go'
p1103
I37
sS'issues'
p1104
I41
sS'cody'
p1105
I41
sS'send'
p1106
I40
sS'fatal'
p1107
I41
sS'listed'
p1108
I41
sS'kitty'
p1109
I41
sS'outdoorsy'
p1110
I41
sS'niqqa'
p1111
I41
sS'facebook'
p1112
I40
sS'sleep.im'
p1113
I41
sS'michael'
p1114
I41
sS'try'
p1115
I41
sS'inspection'
p1116
I41
sS'booty'
p1117
I41
sS'waking'
p1118
I41
sS'jump'
p1119
I41
sS'video'
p1120
I41
sS'pornography'
p1121
I41
sS'manipulating'
p1122
I41
sS'sweats'
p1123
I41
sS'chicago'
p1124
I41
sS'giving'
p1125
I41
sS'waiting'
p1126
I40
sS'nacho'
p1127
I41
sS'lee'
p1128
I41
sS'stance'
p1129
I41
sS'sexi'
p1130
I41
sS'let'
p1131
I40
sS'sexy'
p1132
I40
sS'\xe2\x86\x91\xe2\x86\x91\xe2\x86\x93\xe2\x86\x93\xe2\x86\x90\xe2\x86\x92\xe2\x86\x90\xe2\x86\x92b'
p1133
I41
sS'great'
p1134
I35
sS'shades'
p1135
I41
sS'manichaen'
p1136
I41
sS'products'
p1137
I41
sS"weren't"
p1138
I41
sS'climb'
p1139
I41
sS'makes'
p1140
I38
sS'thats'
p1141
I41
sS'app'
p1142
I40
sS'*drinking'
p1143
I41
sS"crib.what's"
p1144
I41
sS'use'
p1145
I39
sS'hahahahaha'
p1146
I41
sS'from'
p1147
I31
sS'&'
p1148
I39
sS'next'
p1149
I39
sS'few'
p1150
I40
sS'doubt'
p1151
I41
sS'hiding'
p1152
I41
sS'popped'
p1153
I41
sS'babe'
p1154
I40
sS'impress'
p1155
I41
sS'about'
p1156
I25
sS'trail'
p1157
I24
sS'penis'
p1158
I41
sS'women'
p1159
I40
sS'this'
p1160
I14
sS'obvious'
p1161
I40
sS'drops'
p1162
I41
sS'halloween'
p1163
I41
sS'high'
p1164
I41
sS'something'
p1165
I40
sS'hit'
p1166
I41
sS'dipoto'
p1167
I41
sS'united'
p1168
I41
sS'awkwardness'
p1169
I41
sS'forest'
p1170
I41
sS'taylors'
p1171
I41
sS'gurl'
p1172
I41
sS'stand'
p1173
I39
sS'profile'
p1174
I41
sS'watch'
p1175
I38
sS'hahahaha'
p1176
I39
sS'realized'
p1177
I41
sS'chasing'
p1178
I41
sS'light'
p1179
I41
sS'lines'
p1180
I41
sS'move'
p1181
I41
sS'sperm'
p1182
I41
sS'dearest'
p1183
I41
sS"won't"
p1184
I38
sS'looks'
p1185
I38
sS'nowwwwww'
p1186
I41
sS'perfect'
p1187
I40
sS'la'
p1188
I39
sS'nostalgic'
p1189
I41
sS'madre'
p1190
I31
sS'yesterdays'
p1191
I41
sS'2014'
p1192
I41
sS'2012'
p1193
I41
sS'dad'
p1194
I41
sS'flex'
p1195
I41
sS'dat'
p1196
I41
sS'legendary'
p1197
I41
sS'hands'
p1198
I41
sS'front'
p1199
I41
sS'kindness'
p1200
I41
sS'day'
p1201
I29
sS'profound'
p1202
I41
sS'slacked'
p1203
I41
sS'billy'
p1204
I41
sS'trap'
p1205
I41
sS'truth'
p1206
I39
sS'doing'
p1207
I39
sS'einstein'
p1208
I41
sS'separating'
p1209
I41
sS'our'
p1210
I32
sS'out'
p1211
I26
sS'rey'
p1212
I41
sS'bae'
p1213
I40
sS'hilarious'
p1214
I41
sS'honorable'
p1215
I41
sS'cause'
p1216
I41
sS'red'
p1217
I41
sS'disclose'
p1218
I41
sS'shut'
p1219
I41
sS'trashy'
p1220
I41
sS'lizzie'
p1221
I41
sS'please'
p1222
I39
sS'receipts'
p1223
I41
sS'cured'
p1224
I41
sS'geometry'
p1225
I41
sS'could'
p1226
I37
sS'times'
p1227
I41
sS'osborne'
p1228
I41
sS'...but'
p1229
I41
sS'south'
p1230
I41
sS'pga'
p1231
I41
sS'confuse'
p1232
I41
sS'bitch'
p1233
I38
sS'twas'
p1234
I41
sS'suck'
p1235
I41
sS"doesn't"
p1236
I41
sS'unknown'
p1237
I41
sS'prouda'
p1238
I41
sS'their'
p1239
I41
sS'palestine'
p1240
I41
sS'final'
p1241
I41
sS'malibu'
p1242
I41
sS'nobody'
p1243
I40
sS'fuzzy'
p1244
I41
sS'loved'
p1245
I41
sS'bother'
p1246
I41
sS'bed'
p1247
I41
sS'bet'
p1248
I39
sS'fawkes'
p1249
I35
sS'generation*gets'
p1250
I41
sS'sufferfest'
p1251
I41
sS'curves'
p1252
I41
sS'tonight'
p1253
I32
sS'tabi'
p1254
I38
sS'halal'
p1255
I41
sS'have'
p1256
I21
sS'need'
p1257
I35
sS'turn'
p1258
I39
sS'sings'
p1259
I41
sS'bastard'
p1260
I41
sS'congrats'
p1261
I41
sS'able'
p1262
I41
sS'which'
p1263
I41
sS'are\xe2\x80\x9d'
p1264
I41
sS'='
p1265
I40
sS'soap'
p1266
I41
sS'firefly'
p1267
I41
sS'who'
p1268
I36
sS'intentions'
p1269
I41
sS'awk'
p1270
I40
sS'medal'
p1271
I41
sS'why'
p1272
I37
sS'lucly'
p1273
I41
sS'face'
p1274
I38
sS"you'll"
p1275
I41
sS'movie'
p1276
I38
sS'text'
p1277
I41
sS'bring'
p1278
I41
sS'manchester'
p1279
I41
sS'santa\xe2\x80\xa6'
p1280
I41
sS'woo'
p1281
I40
sS'controls'
p1282
I41
sS'should'
p1283
I40
sS"there's"
p1284
I40
sS'libre'
p1285
I41
sS'hope'
p1286
I39
sS'meant'
p1287
I40
sS'o-ver'
p1288
I41
sS'aphorism'
p1289
I41
sS'means'
p1290
I41
sS'tbt'
p1291
I41
sS'awww'
p1292
I41
sS'ones'
p1293
I41
sS'richards'
p1294
I41
sS'years'
p1295
I41
sS'areas'
p1296
I41
sS'course'
p1297
I41
sS'h'
p1298
I41
sS'stuff'
p1299
I40
sS'she'
p1300
I37
sS'waterfalls'
p1301
I41
sS'basking'
p1302
I41
sS'view'
p1303
I39
sS'luv'
p1304
I41
sS'ralph'
p1305
I41
sS'icecream'
p1306
I41
sS'boreddddd'
p1307
I41
sS'frustrated'
p1308
I41
sS'bought'
p1309
I41
sS'opening'
p1310
I41
sS'kicking'
p1311
I41
sS'job'
p1312
I40
sS'p2p'
p1313
I41
sS'legit'
p1314
I41
sS'joke'
p1315
I41
sS'taking'
p1316
I40
sS'wrecked!\xe2\x80\xa6'
p1317
I41
sS'y3llowr3y'
p1318
I38
sS'ca'
p1319
I40
sS'makin'
p1320
I41
sS'repostapp'
p1321
I41
sS'laugh'
p1322
I41
sS'respect'
p1323
I41
sS'quit'
p1324
I41
sS'yay'
p1325
I40
sS"it's"
p1326
I25
sS'yah'
p1327
I41
sS'gaza'
p1328
I41
sS'waste'
p1329
I41
sS'>'
p1330
I41
sS'am'
p1331
I38
sS"could've\xe2\x80\xa6"
p1332
I41
sS'policy'
p1333
I41
sS'bull'
p1334
I38
sS'will'
p1335
I35
sS'hahaha'
p1336
I34
sS'resident'
p1337
I41
sS'demo'
p1338
I41
sS'vs'
p1339
I41
sS'vu'
p1340
I41
sS'hearted'
p1341
I41
sS"dragon's"
p1342
I41
sS'starcraft'
p1343
I41
sS'highlighted'
p1344
I41
sS'party'
p1345
I40
sS'gets'
p1346
I40
sS'gnight'
p1347
I41
sS'drink'
p1348
I41
sS'sunburn'
p1349
I41
sS'l.a'
p1350
I41
sS'off'
p1351
I37
sS'i'
p1352
I2
sS'well'
p1353
I41
sS'oops'
p1354
I40
sS'english'
p1355
I41
sS'less'
p1356
I39
sS'moments'
p1357
I41
sS'wealthy'
p1358
I41
sS'\xc3\x9cber'
p1359
I41
sS'cigarette'
p1360
I41
sS'sky'
p1361
I41
sS'attractive'
p1362
I40
sS'match'
p1363
I41
sS"who's"
p1364
I41
sS'know'
p1365
I29
sS'catchers'
p1366
I41
sS'tick'
p1367
I40
sS'hahahahahahahahahahahahahahahahahahhahahahaha'
p1368
I41
sS'loss'
p1369
I41
sS'like'
p1370
I23
sS'lost'
p1371
I40
sS'roth'
p1372
I41
sS'fianc\xc3\xa9'
p1373
I41
sS'lose'
p1374
I41
sS'because'
p1375
I41
sS'twitter'
p1376
I38
sS'\xe2\x98\xae'
p1377
I41
sS'alive'
p1378
I41
sS'mosquitoes'
p1379
I41
sS'hair'
p1380
I41
sS'homo'
p1381
I41
sS'home'
p1382
I36
sS'supernaked'
p1383
I41
sS'shrug'
p1384
I41
sS'literally'
p1385
I41
sS'leah'
p1386
I41
sS'does'
p1387
I40
sS'stage'
p1388
I41
sS'sister'
p1389
I40
sS':-)'
p1390
I41
sS'testosterone'
p1391
I41
sS'getting'
p1392
I40
sS'kourtney'
p1393
I41
sS'blessings'
p1394
I41
sS'pussy'
p1395
I41
sS'germanyy\xe2\x9a\xbd\xef\xb8\x8f'
p1396
I41
sS'inner'
p1397
I41
sS'frustration'
p1398
I41
sS"i've"
p1399
I40
sS'but'
p1400
I23
sS'he'
p1401
I38
sS'made'
p1402
I39
sS'places'
p1403
I41
sS'whether'
p1404
I41
sS'wish'
p1405
I39
sS'j'
p1406
I39
sS'below'
p1407
I41
sS'awaynow'
p1408
I41
sS'problem'
p1409
I39
sS'piece'
p1410
I41
sS'favorites*'
p1411
I41
sS'whoah'
p1412
I41
sS'whisper'
p1413
I41
sS'universal'
p1414
I40
sS'pic'
p1415
I41
sS'inn'
p1416
I41
sS'conan'
p1417
I41
sS'inc'
p1418
I41
sS'functions'
p1419
I41
sS'other'
p1420
I41
sS'boom'
p1421
I40
sS'meteor'
p1422
I41
sS'boob'
p1423
I40
sS"'14"
p1424
I41
sS'stat'
p1425
I41
sS'repeat'
p1426
I41
sS'monday'
p1427
I41
sS'm.p'
p1428
I41
sS'stay'
p1429
I39
sS'chance'
p1430
I41
sS'booboo'
p1431
I41
sS'friends'
p1432
I39
sS'gonemaybe'
p1433
I41
sS'\xe2\x80\x94'
p1434
I40
sS'kardashian'
p1435
I40
sS'hikes'
p1436
I40
sS'compete'
p1437
I41
s.