(dp0
S''
p1
I1
sS'all'
p2
I22
sS':/'
p3
I29
sS':('
p4
I29
sS':)'
p5
I27
sS'ron'
p6
I29
sS'messi'
p7
I28
sS'focus'
p8
I29
sS'ugh'
p9
I29
sS'go'
p10
I23
sS'gossip'
p11
I29
sS'tweeted'
p12
I29
sS'hate'
p13
I28
sS':3'
p14
I29
sS'guys<3'
p15
I29
sS'tweet'
p16
I28
sS'young'
p17
I29
sS'send'
p18
I27
sS'suits'
p19
I29
sS'to'
p20
I3
sS'finally'
p21
I29
sS'pitwe'
p22
I29
sS'under'
p23
I29
sS'sent'
p24
I29
sS'ihop'
p25
I29
sS'very'
p26
I27
sS'fap'
p27
I29
sS'fav'
p28
I28
sS'lool'
p29
I29
sS'tacos'
p30
I29
sS'lololol'
p31
I29
sS'scout'
p32
I29
sS'putting'
p33
I29
sS'jack'
p34
I29
sS'fall'
p35
I27
sS'drinking'
p36
I28
sS'cool'
p37
I27
sS'entire'
p38
I29
sS'school'
p39
I28
sS'did'
p40
I27
sS'ovation'
p41
I29
sS"they've"
p42
I29
sS'try'
p43
I29
sS'boozer'
p44
I29
sS'pba'
p45
I29
sS'hours!('
p46
I29
sS'team'
p47
I29
sS'havent'
p48
I28
sS'thiago'
p49
I28
sS"it'll"
p50
I29
sS"i'll"
p51
I28
sS'brave'
p52
I29
sS'james'
p53
I29
sS'awake'
p54
I29
sS'yourself'
p55
I29
sS'rivers'
p56
I29
sS'n'
p57
I29
sS'blue'
p58
I28
sS'what'
p59
I23
sS'sweats'
p60
I29
sS'movies'
p61
I29
sS'giving'
p62
I29
sS'thunder'
p63
I29
sS'birr'
p64
I28
sS'anniversary'
p65
I29
sS'probs'
p66
I29
sS'abt'
p67
I29
sS'sexxxt'
p68
I29
sS'sup'
p69
I29
sS'new'
p70
I28
sS'learned'
p71
I29
sS'ever'
p72
I26
sS'disney'
p73
I29
sS'supporting'
p74
I29
sS'herc'
p75
I29
sS'never'
p76
I26
sS'spacing'
p77
I29
sS'here'
p78
I29
sS'hours'
p79
I28
sS'baseball'
p80
I29
sS'dorm'
p81
I29
sS'sing'
p82
I29
sS'100'
p83
I29
sS'wait'
p84
I28
sS'sending'
p85
I29
sS'great'
p86
I26
sS'cavill'
p87
I29
sS'ahead'
p88
I29
sS'study'
p89
I29
sS'changed'
p90
I29
sS'pics'
p91
I27
sS"i'd"
p92
I29
sS'arent'
p93
I29
sS'smoke'
p94
I29
sS'nervous'
p95
I29
sS'(monrovia'
p96
I29
sS"i'm"
p97
I18
sS'makes'
p98
I27
sS'massage'
p99
I29
sS'thats'
p100
I28
sS'tunnel'
p101
I29
sS'via'
p102
I29
sS'love'
p103
I24
sS'family'
p104
I28
sS'partnering'
p105
I29
sS'win'
p106
I27
sS'at&t'
p107
I29
sS"you're*"
p108
I29
sS'cocaine'
p109
I29
sS'singing'
p110
I29
sS'market'
p111
I29
sS'standing'
p112
I29
sS'use'
p113
I29
sS'from'
p114
I24
sS'takes'
p115
I29
sS'would'
p116
I27
sS'&'
p117
I23
sS'longer'
p118
I29
sS'sweater'
p119
I28
sS'visit'
p120
I29
sS'two'
p121
I28
sS'throw'
p122
I29
sS'few'
p123
I29
sS'ca)'
p124
I29
sS'care'
p125
I29
sS'type'
p126
I29
sS'until'
p127
I27
sS'today'
p128
I27
sS'more'
p129
I26
sS'graydon'
p130
I29
sS'babe'
p131
I29
sS'vining'
p132
I29
sS'becomes'
p133
I29
sS'haha'
p134
I27
sS'training'
p135
I29
sS'award'
p136
I29
sS'"i'
p137
I29
sS'excuse'
p138
I29
sS'consoles'
p139
I29
sS'everywhere'
p140
I29
sS'glad'
p141
I29
sS':-/'
p142
I29
sS'me'
p143
I13
sS'paused'
p144
I29
sS'ma'
p145
I29
sS'room'
p146
I29
sS'hour'
p147
I29
sS'midterm'
p148
I29
sS'this'
p149
I12
sS'car'
p150
I28
sS'work'
p151
I28
sS'sucks'
p152
I29
sS'purge'
p153
I29
sS'wallet'
p154
I29
sS'lmfaoooooooo'
p155
I29
sS'can'
p156
I27
sS'mr'
p157
I28
sS'making'
p158
I29
sS'my'
p159
I5
sS'crazy'
p160
I29
sS'pony'
p161
I29
sS'give'
p162
I29
sS'"uh...thanks"'
p163
I29
sS"didn't"
p164
I27
sS'fuck'
p165
I22
sS'cupsyeah'
p166
I29
sS'high'
p167
I28
sS'heard'
p168
I29
sS'something'
p169
I29
sS'want'
p170
I27
sS'offense'
p171
I29
sS'station'
p172
I28
sS'counting'
p173
I29
sS'montebello'
p174
I29
sS'respective'
p175
I29
sS'united'
p176
I28
sS'sit'
p177
I28
sS'means'
p178
I28
sS'stayed'
p179
I29
sS'how'
p180
I24
sS'catnip'
p181
I29
sS'answer'
p182
I29
sS'instead'
p183
I28
sS'comedy'
p184
I29
sS'stand'
p185
I29
sS'waved'
p186
I29
sS'shouldnt'
p187
I29
sS'okay'
p188
I27
sS'5sos'
p189
I29
sS'beauty'
p190
I29
sS'wonderful'
p191
I29
sS'after'
p192
I24
sS'spot'
p193
I29
sS'needs'
p194
I29
sS'soundtrack'
p195
I29
sS'crashed'
p196
I29
sS'wrong'
p197
I29
sS'birthday'
p198
I29
sS'mad'
p199
I29
sS'coming'
p200
I29
sS'preseason'
p201
I29
sS'such'
p202
I27
sS'lap'
p203
I29
sS'furniture'
p204
I29
sS'man'
p205
I29
sS'a'
p206
I6
sS'short'
p207
I28
sS'maybe'
p208
I29
sS'feels'
p209
I29
sS'their'
p210
I29
sS'18th'
p211
I29
sS'so'
p212
I12
sS'ultimate'
p213
I29
sS'every'
p214
I29
sS'fireball'
p215
I29
sS'dream'
p216
I28
sS'order'
p217
I29
sS'talk'
p218
I28
sS"that's"
p219
I26
sS'cute'
p220
I29
sS'help'
p221
I29
sS'ger'
p222
I29
sS"don't"
p223
I25
sS'over'
p224
I25
sS'move'
p225
I29
sS'sooo'
p226
I26
sS'soon'
p227
I28
sS'years'
p228
I28
sS'yeahhhhh'
p229
I29
sS'isnt'
p230
I29
sS'kimmel'
p231
I29
sS'ticket'
p232
I28
sS'looks'
p233
I28
sS'hell'
p234
I27
sS'cold'
p235
I29
sS'still'
p236
I25
sS'its'
p237
I25
sS'galaxy'
p238
I29
sS'before'
p239
I26
sS'24'
p240
I29
sS'messed'
p241
I29
sS'thank'
p242
I29
sS'la'
p243
I29
sS'juco'
p244
I29
sS'abbey'
p245
I29
sS'better'
p246
I28
sS'offers'
p247
I29
sS'degrees'
p248
I29
sS'tweets'
p249
I29
sS'penn'
p250
I29
sS'argentina'
p251
I29
sS'bye'
p252
I28
sS"haven't"
p253
I28
sS'lyke'
p254
I29
sS'dad'
p255
I27
sS'then'
p256
I26
sS'them'
p257
I28
sS'good'
p258
I25
sS'ya'
p259
I29
sS'potter'
p260
I29
sS'slate'
p261
I29
sS'practice'
p262
I29
sS'dah'
p263
I29
sS'cuties'
p264
I29
sS'break'
p265
I29
sS'they'
p266
I27
sS'front'
p267
I28
sS'now'
p268
I25
sS'day'
p269
I24
sS'shadows'
p270
I29
sS'screamed'
p271
I29
sS'alex'
p272
I29
sS'name'
p273
I27
sS'always'
p274
I25
sS'hmmmmmmmmmmm'
p275
I29
sS'possibilities'
p276
I29
sS'someone'
p277
I27
sS'roast'
p278
I29
sS'each'
p279
I27
sS'earned'
p280
I29
sS'went'
p281
I28
sS'side'
p282
I29
sS'2k'
p283
I29
sS'seniors'
p284
I29
sS'everyone'
p285
I29
sS'doing'
p286
I29
sS'house'
p287
I27
sS'toooooo'
p288
I29
sS'goose'
p289
I29
sS'used'
p290
I29
sS'gave'
p291
I29
sS'sponsor'
p292
I29
sS'year'
p293
I27
sS'our'
p294
I27
sS'girl'
p295
I27
sS'teams'
p296
I29
sS'special'
p297
I29
sS'really'
p298
I24
sS'rt'
p299
I8
sS'living'
p300
I28
sS'matt'
p301
I28
sS'bowlers'
p302
I29
sS'missed'
p303
I29
sS'driving'
p304
I29
sS'disgusts'
p305
I29
sS'god'
p306
I28
sS'since'
p307
I29
sS'downhill'
p308
I29
sS'stuff'
p309
I29
sS'trauma'
p310
I29
sS'birthing'
p311
I29
sS'7'
p312
I29
sS'smh'
p313
I28
sS'got'
p314
I27
sS'rn'
p315
I27
sS'nudes'
p316
I29
sS'red'
p317
I29
sS'ass'
p318
I28
sS'foundation'
p319
I29
sS'shut'
p320
I29
sS'wiley'
p321
I29
sS'amats'
p322
I29
sS'friday'
p323
I29
sS'given'
p324
I29
sS'anyone'
p325
I29
sS'pimp'
p326
I29
sS'imagine'
p327
I29
sS'put'
p328
I29
sS'ash'
p329
I29
sS'mma'
p330
I29
sS'guy'
p331
I29
sS'card'
p332
I29
sS'bigass'
p333
I29
sS'dammit'
p334
I29
sS'ate'
p335
I29
sS'jealouss'
p336
I29
sS'agree'
p337
I29
sS'snapchats'
p338
I29
sS'yup'
p339
I29
sS'hollywood'
p340
I29
sS'days'
p341
I28
sS'times'
p342
I28
sS'turn'
p343
I29
sS'kxkskd'
p344
I29
sS'20th'
p345
I29
sS'w'
p346
I28
sS'barber'
p347
I29
sS'loud'
p348
I29
sS'think'
p349
I28
sS'silver'
p350
I29
sS'first'
p351
I29
sS'already'
p352
I27
sS'dont'
p353
I27
sS'feel'
p354
I28
sS'powerful'
p355
I29
sS'crib'
p356
I29
sS'one'
p357
I26
sS'righhtttt'
p358
I29
sS'done'
p359
I29
sS'lol'
p360
I20
sS'another'
p361
I29
sS'president'
p362
I29
sS'miss'
p363
I28
sS'tomorrow'
p364
I23
sS'rachey'
p365
I29
sS"doesn't"
p366
I29
sS'little'
p367
I28
sS'you..butterball'
p368
I29
sS'dump'
p369
I29
sS'quality'
p370
I29
sS'2ft'
p371
I29
sS'finay'
p372
I29
sS'guys'
p373
I29
sS'concussion'
p374
I29
sS'girls'
p375
I26
sS'stack'
p376
I29
sS'dwele'
p377
I29
sS'needed'
p378
I29
sS'2'
p379
I28
sS'too'
p380
I25
sS'passed'
p381
I29
sS'white'
p382
I28
sS'turnovers'
p383
I29
sS'tomato'
p384
I29
sS'hangout'
p385
I29
sS'that'
p386
I18
sS'gym'
p387
I29
sS'bruh'
p388
I29
sS'kardinal'
p389
I29
sS'spar'
p390
I29
sS'part'
p391
I28
sS'because'
p392
I29
sS'hillbillies'
p393
I29
sS'kylie'
p394
I29
sS'than'
p395
I28
sS'obama'
p396
I29
sS'std'
p397
I29
sS'10'
p398
I29
sS'15'
p399
I29
sS'lmao'
p400
I29
sS'kickback'
p401
I29
sS'double'
p402
I29
sS'tree'
p403
I29
sS'bed'
p404
I29
sS'shower'
p405
I29
sS'r'
p406
I29
sS'silly'
p407
I29
sS'tweeting'
p408
I29
sS'college'
p409
I29
sS'dana'
p410
I29
sS'and'
p411
I7
sS'ranch'
p412
I29
sS'djksid'
p413
I29
sS'respecting'
p414
I29
sS'lmaooooo'
p415
I29
sS'tonight'
p416
I24
sS'have'
p417
I20
sS'need'
p418
I29
sS'saw'
p419
I29
sS'any'
p420
I28
sS'marathon'
p421
I29
sS'mountain'
p422
I28
sS'venturing'
p423
I29
sS'dude'
p424
I29
sS'congrats'
p425
I29
sS'describe'
p426
I29
sS'tiredddd'
p427
I29
sS"i've"
p428
I29
sS'able'
p429
I28
sS'brandon'
p430
I29
sS'omfg'
p431
I29
sS'take'
p432
I29
sS'online'
p433
I29
sS'asshole'
p434
I28
sS'even'
p435
I27
sS'princess'
p436
I29
sS'sure'
p437
I28
sS'jermaine'
p438
I29
sS'park'
p439
I29
sS'who'
p440
I29
sS'doug'
p441
I29
sS"sam's"
p442
I29
sS'amat'
p443
I28
sS'germany'
p444
I27
sS'class'
p445
I27
sS'woooo'
p446
I29
sS'lebron'
p447
I29
sS'forever'
p448
I28
sS'cause'
p449
I28
sS'episode'
p450
I29
sS'especially'
p451
I28
sS'won'
p452
I29
sS'later'
p453
I29
sS'face'
p454
I28
sS'looked'
p455
I29
sS'ridiculous'
p456
I29
sS'place'
p457
I29
sS'clean'
p458
I29
sS'bicardi'
p459
I29
sS'skinny'
p460
I29
sS'annoyed'
p461
I29
sS'came'
p462
I27
sS'shop'
p463
I29
sS'charley'
p464
I29
sS'chenz'
p465
I29
sS'shot'
p466
I29
sS'henry'
p467
I29
sS'lmaoo'
p468
I29
sS'hopes'
p469
I29
sS'fool'
p470
I29
sS'lloyd'
p471
I29
sS'moooon'
p472
I29
sS'find'
p473
I27
sS'aint'
p474
I29
sS'\xe2\x9c\x8c'
p475
I29
sS'woot'
p476
I28
sS'sativa'
p477
I29
sS'knicks'
p478
I29
sS'ayyyy'
p479
I29
sS'cousins'
p480
I29
sS'fresno'
p481
I29
sS'3'
p482
I29
sS'should'
p483
I28
sS'yea'
p484
I29
sS'only'
p485
I28
sS'going'
p486
I20
sS'pretty'
p487
I29
sS'watching'
p488
I27
sS'spice'
p489
I29
sS'colt'
p490
I29
sS'hope'
p491
I27
sS'pumpkin'
p492
I29
sS'do'
p493
I25
sS'his'
p494
I29
sS'hit'
p495
I28
sS'beyonc\xc3\xa9'
p496
I29
sS'get'
p497
I20
sS'midnight'
p498
I29
sS'stop'
p499
I28
sS'lucky'
p500
I28
sS'bear'
p501
I29
sS'wreaks'
p502
I29
sS'woooooo'
p503
I29
sS'camargo'
p504
I29
sS'words'
p505
I29
sS'during'
p506
I29
sS'nasty'
p507
I29
sS'offishall'
p508
I29
sS'him'
p509
I27
sS'buuuut'
p510
I29
sS'sleeve'
p511
I29
sS'officially'
p512
I27
sS'suarez'
p513
I29
sS'calling'
p514
I28
sS'bad'
p515
I29
sS'bae'
p516
I29
sS'heels'
p517
I29
sS'yassss'
p518
I29
sS'tweets)'
p519
I29
sS'vision'
p520
I29
sS"y'all"
p521
I27
sS'concert'
p522
I28
sS'fair'
p523
I28
sS'notice'
p524
I29
sS'waffles~'
p525
I29
sS"hasn't"
p526
I29
sS'see'
p527
I23
sS'computer'
p528
I29
sS'asleep'
p529
I28
sS'are'
p530
I28
sS'spontanity'
p531
I29
sS'arg'
p532
I29
sS'racket'
p533
I29
sS'wc'
p534
I29
sS'o_o'
p535
I29
sS'kimchi'
p536
I29
sS'best'
p537
I28
sS'definitely'
p538
I29
sS'brazil'
p539
I26
sS'ahhhhhhhhh'
p540
I29
sS'fails'
p541
I29
sS'said'
p542
I28
sS'managing'
p543
I29
sS'movie'
p544
I28
sS'wow'
p545
I29
sS'please'
p546
I27
sS'state'
p547
I28
sS"there's"
p548
I29
sS'identification'
p549
I29
sS'probably'
p550
I28
sS'neither'
p551
I29
sS'donate'
p552
I29
sS'snorted'
p553
I29
sS'bought'
p554
I29
sS'perfect'
p555
I29
sS'we'
p556
I22
sS'ekdkskdkkf'
p557
I29
sS'omg'
p558
I28
sS'were'
p559
I29
sS'poorer'
p560
I29
sS'job'
p561
I26
sS'nahhh'
p562
I29
sS'wear'
p563
I27
sS'key'
p564
I29
sS'killing'
p565
I29
sS'come'
p566
I23
sS'legit'
p567
I29
sS'david'
p568
I29
sS'luiz'
p569
I29
sS'tfti'
p570
I29
sS'last'
p571
I24
sS'signed'
p572
I29
sS'many'
p573
I29
sS'taking'
p574
I29
sS'cuddles'
p575
I29
sS"today's"
p576
I29
sS'honey'
p577
I29
sS"she's"
p578
I29
sS'games'
p579
I29
sS'awards'
p580
I29
sS'asked'
p581
I29
sS"can't"
p582
I26
sS'joe'
p583
I29
sS'liked'
p584
I29
sS'gooood'
p585
I29
sS'wtf'
p586
I29
sS'indica'
p587
I29
sS'drunk'
p588
I29
sS'color'
p589
I29
sS'josh'
p590
I29
sS'tuesday'
p591
I29
sS'whelp'
p592
I29
sS'jeans'
p593
I28
sS'forgot'
p594
I29
sS'dudes'
p595
I29
sS'mls'
p596
I29
sS'cmon'
p597
I29
sS"couldn't"
p598
I29
sS'away'
p599
I29
sS'jimmy'
p600
I29
sS'sammy'
p601
I29
sS'trust'
p602
I29
sS'custody'
p603
I29
sS'smith'
p604
I29
sS'late'
p605
I28
sS'most'
p606
I29
sS'ahead!good'
p607
I29
sS'beef'
p608
I29
sS'cares'
p609
I29
sS"it's"
p610
I22
sS'shout'
p611
I29
sS'been'
p612
I27
sS'divine"'
p613
I29
sS'much'
p614
I26
sS'damn'
p615
I29
sS'basic'
p616
I29
sS'kitchen'
p617
I29
sS'meeting'
p618
I29
sS'killed'
p619
I29
sS'life'
p620
I27
sS'pic'
p621
I29
sS'sydney'
p622
I29
sS'gay'
p623
I29
sS'attacked'
p624
I29
sS'painted'
p625
I29
sS'hmu'
p626
I29
sS'thousand'
p627
I29
sS'finale'
p628
I29
sS'else'
p629
I27
sS'jacuzzi'
p630
I29
sS'figured'
p631
I29
sS'wake'
p632
I28
sS'chile'
p633
I29
sS'catch'
p634
I29
sS'thing'
p635
I29
sS'general'
p636
I29
sS'former'
p637
I29
sS'those'
p638
I29
sS'myself'
p639
I29
sS'stacked'
p640
I29
sS'look'
p641
I29
sS'these'
p642
I25
sS'ruler'
p643
I29
sS'starts'
p644
I29
sS'ugly'
p645
I29
sS'will'
p646
I22
sS'monrovia'
p647
I28
sS'while'
p648
I29
sS'hahaha'
p649
I25
sS'fun'
p650
I28
sS'voice'
p651
I29
sS'inspired'
p652
I29
sS'launched'
p653
I29
sS'ive'
p654
I29
sS'strapless'
p655
I29
sS'renuzit'
p656
I29
sS'halp'
p657
I29
sS'almost'
p658
I29
sS'is'
p659
I9
sS'it'
p660
I11
sS'rip'
p661
I29
sS'player'
p662
I29
sS'cant'
p663
I27
sS'vs'
p664
I28
sS'im'
p665
I27
sS'barcelona'
p666
I29
sS'in'
p667
I14
sS'ready'
p668
I28
sS'ave'
p669
I29
sS'trade'
p670
I29
sS'if'
p671
I24
sS'jenner'
p672
I29
sS'funny'
p673
I27
sS'denial'
p674
I29
sS'let'
p675
I29
sS'shirt'
p676
I28
sS'likeee'
p677
I29
sS'google'
p678
I29
sS'things'
p679
I28
sS'make'
p680
I29
sS'chazz'
p681
I29
sS'some1'
p682
I29
sS'camp'
p683
I29
sS'favorites\xe2\x9d\xa4\xef\xb8\x8f'
p684
I29
sS'2032'
p685
I29
sS'buys'
p686
I29
sS'9'
p687
I29
sS'party'
p688
I28
sS'balcony'
p689
I29
sS'eww'
p690
I29
sS'week'
p691
I28
sS'ball'
p692
I29
sS'assignment'
p693
I29
sS'accident*'
p694
I29
sS'weed'
p695
I28
sS'moment'
p696
I29
sS'moving'
p697
I29
sS'jealous'
p698
I29
sS'weird'
p699
I29
sS'keep'
p700
I29
sS'\xe2\x9c\x8c\xef\xb8\x8f'
p701
I29
sS'dark'
p702
I29
sS'off'
p703
I28
sS'i'
p704
I2
sS"dad's"
p705
I29
sS'youre'
p706
I26
sS'well'
p707
I25
sS'bronzer'
p708
I29
sS'tho'
p709
I29
sS'person'
p710
I29
sS'comes'
p711
I29
sS'english'
p712
I29
sS'the'
p713
I4
sS'left'
p714
I29
sS'>.>'
p715
I29
sS'kiss'
p716
I29
sS'just'
p717
I15
sS'being'
p718
I25
sS'desk'
p719
I29
sS'sleepy'
p720
I29
sS':(\xe2\x80\x9d'
p721
I29
sS'not'
p722
I22
sS'thanks'
p723
I28
sS'yes'
p724
I28
sS'yet'
p725
I28
sS'cut'
p726
I29
sS'helping'
p727
I29
sS'cup'
p728
I27
sS'thinking'
p729
I29
sS'had'
p730
I23
sS'idunno'
p731
I29
sS'bullshit'
p732
I29
sS'tht'
p733
I29
sS'add'
p734
I29
sS'book'
p735
I29
sS'4'
p736
I29
sS'dance'
p737
I29
sS'prison'
p738
I29
sS'snap'
p739
I28
sS'has'
p740
I28
sS'hat'
p741
I29
sS'excited'
p742
I27
sS'kick'
p743
I29
sS'joke'
p744
I29
sS'real'
p745
I25
sS'wont'
p746
I29
sS'march'
p747
I29
sS'around'
p748
I29
sS'casually'
p749
I29
sS'escorting'
p750
I29
sS'read'
p751
I29
sS'big'
p752
I28
sS'couple'
p753
I29
sS'titties'
p754
I29
sS'gonna'
p755
I25
sS'probablito'
p756
I29
sS'early'
p757
I28
sS'game'
p758
I18
sS'bitch'
p759
I29
sS'know'
p760
I23
sS'mom'
p761
I24
sS'guide'
p762
I29
sS'world'
p763
I26
sS'nvm'
p764
I29
sS'lady'
p765
I28
sS'rocky'
p766
I29
sS'pronted'
p767
I29
sS'like'
p768
I14
sS'gift'
p769
I29
sS'jamming'
p770
I29
sS'theyre'
p771
I29
sS'true'
p772
I29
sS'nose'
p773
I28
sS'bat&he'
p774
I29
sS'night'
p775
I26
sS'harry'
p776
I29
sS'piiiiit'
p777
I29
sS'chico'
p778
I29
sS'right'
p779
I27
sS'old'
p780
I26
sS'deal'
p781
I29
sS'people'
p782
I28
sS'fucking'
p783
I24
sS'madrid'
p784
I29
sS'twitter'
p785
I27
sS'easy'
p786
I29
sS'some'
p787
I27
sS'back'
p788
I22
sS'dead'
p789
I29
sS'oh'
p790
I29
sS'hair'
p791
I27
sS'punching'
p792
I29
sS'aaaaand'
p793
I29
sS'home'
p794
I25
sS'classes'
p795
I29
sS'mother'
p796
I29
sS'for'
p797
I10
sS'literally'
p798
I27
sS'cuzzo'
p799
I29
sS'fox'
p800
I29
sS'ice'
p801
I28
sS'cast'
p802
I29
sS'everything'
p803
I29
sS'asking'
p804
I29
sS'beating'
p805
I29
sS'worst'
p806
I29
sS'laughing'
p807
I29
sS'yelllan'
p808
I29
sS'be'
p809
I16
sS'ripped'
p810
I29
sS'football'
p811
I29
sS'run'
p812
I29
sS'bc'
p813
I29
sS'plz'
p814
I29
sS'bj'
p815
I29
sS'speak'
p816
I29
sS'broken'
p817
I29
sS'step'
p818
I28
sS'revenge.\xe2\x80\x9d'
p819
I29
sS'throwback'
p820
I29
sS'hype.\xe2\x80\x9d'
p821
I29
sS'super'
p822
I29
sS'by'
p823
I28
sS'earlier'
p824
I29
sS'phillip'
p825
I29
sS'shine'
p826
I29
sS'on'
p827
I13
sS'about'
p828
I25
sS'actual'
p829
I29
sS'working'
p830
I29
sS'tease'
p831
I29
sS'of'
p832
I19
sS'bday&i'
p833
I29
sS'favorite'
p834
I29
sS'choke'
p835
I29
sS'graduation'
p836
I29
sS'deserves'
p837
I29
sS'dinner'
p838
I29
sS'swear'
p839
I28
sS'idk'
p840
I29
sS'vaginal'
p841
I29
sS'salles'
p842
I29
sS'or'
p843
I28
sS'ppl'
p844
I29
sS'seeing'
p845
I29
sS'own'
p846
I29
sS'howlaaaaaan'
p847
I29
sS'pero'
p848
I29
sS'into'
p849
I24
sS'crying'
p850
I29
sS'snapchat'
p851
I29
sS'son'
p852
I28
sS'down'
p853
I27
sS'weather'
p854
I29
sS'paper'
p855
I29
sS'apologize'
p856
I29
sS'aftuh'
p857
I29
sS'next'
p858
I29
sS'forget'
p859
I29
sS'your'
p860
I22
sS'neymar'
p861
I28
sS'fast'
p862
I29
sS'her'
p863
I26
sS'friends'
p864
I26
sS'there'
p865
I28
sS'long'
p866
I28
sS'why'
p867
I26
sS'start'
p868
I27
sS'lions'
p869
I29
sS'died'
p870
I29
sS'way'
p871
I28
sS'series'
p872
I28
sS'biggest'
p873
I29
sS'kooks'
p874
I29
sS'goin'
p875
I29
sS'was'
p876
I20
sS'happy'
p877
I28
sS'gaiz'
p878
I29
sS'head'
p879
I29
sS'out\xe2\x98\xba\xef\xb8\x8f'
p880
I29
sS'enough'
p881
I29
sS'but'
p882
I19
sS'idea'
p883
I29
sS'probzz'
p884
I29
sS'trying'
p885
I29
sS'with'
p886
I18
sS'eat'
p887
I29
sS'he'
p888
I27
sS'made'
p889
I28
sS'glory'
p890
I29
sS"wasn't"
p891
I28
sS'wish'
p892
I29
sS'official'
p893
I29
sS'up'
p894
I17
sS'us'
p895
I29
sS'empty'
p896
I29
sS'woke'
p897
I29
sS'hahahahahhahahahhaha'
p898
I29
sS'chelsea'
p899
I29
sS'called'
p900
I29
sS'yelled'
p901
I29
sS'gone'
p902
I27
sS'v'
p903
I27
sS'leaked'
p904
I29
sS'af'
p905
I29
sS'tournament'
p906
I28
sS'am'
p907
I22
sS'cocaiiiiiiiiinnnneeee'
p908
I29
sS'an'
p909
I27
sS'as'
p910
I27
sS'at'
p911
I16
sS'70%'
p912
I29
sS'watched'
p913
I29
sS'annoying'
p914
I29
sS'pit'
p915
I29
sS'happen'
p916
I29
sS'shit'
p917
I28
sS'(slander'
p918
I29
sS'again'
p919
I27
sS'grt'
p920
I29
sS'dying'
p921
I27
sS'no'
p922
I25
sS'nah'
p923
I29
sS'45'
p924
I29
sS'when'
p925
I17
sS'fire'
p926
I29
sS'yummerz'
p927
I29
sS'other'
p928
I27
sS'details'
p929
I29
sS'nope'
p930
I29
sS'tie'
p931
I29
sS'you'
p932
I8
sS'out'
p933
I19
sS'smell'
p934
I29
sS'realize'
p935
I29
sS'undeniably'
p936
I29
sS'poor'
p937
I28
sS'frisbee'
p938
I29
sS'pau'
p939
I29
sS'haircut'
p940
I29
sS'june'
p941
I29
sS'stay'
p942
I29
sS"let's"
p943
I28
sS'chance'
p944
I29
sS'fell'
p945
I26
sS'fresh'
p946
I29
sS'hahahahahah'
p947
I29
sS'skeeter'
p948
I29
sS'privileges'
p949
I29
sS'weekend'
p950
I28
sS'pool'
p951
I29
sS'babysitting'
p952
I29
sS'suffers'
p953
I29
sS'ftw'
p954
I29
sS'svg'
p955
I29
sS"life's"
p956
I29
sS'guuuurl'
p957
I29
sS'together'
p958
I29
sS'dragged'
p959
I29
sS'groot'
p960
I26
sS'u'
p961
I28
sS'fact'
p962
I29
sS'volumes'
p963
I29
sS'time'
p964
I21
sS"ain't"
p965
I29
sS'having'
p966
I28
sS'songs'
p967
I29
s.