(dp0
S''
p1
I2
sS'all'
p2
I28
sS':/'
p3
I36
sS':('
p4
I34
sS'selfie'
p5
I36
sS'starbucks)'
p6
I36
sS'dance'
p7
I26
sS'monte'
p8
I30
sS'four'
p9
I36
sS'baby'
p10
I36
sS'ptl'
p11
I36
sS'sleep'
p12
I35
sS'go'
p13
I30
sS'chair'
p14
I35
sS'hate'
p15
I30
sS'row'
p16
I36
sS'pedro'
p17
I36
sS'yummy'
p18
I36
sS'tweet'
p19
I34
sS'tu'
p20
I36
sS'young'
p21
I34
sS'send'
p22
I36
sS'presents'
p23
I35
sS'to'
p24
I7
sS'finally'
p25
I33
sS'seager'
p26
I36
sS'under'
p27
I36
sS'siblings'
p28
I36
sS'sorry'
p29
I35
sS'enjoying'
p30
I36
sS'esme'
p31
I36
sS'\xe2\x9b\xb3,91006\n488692497871163392,adame125,2014-07-14'
p32
I36
sS'ta'
p33
I35
sS'fly'
p34
I36
sS'\xe5\x89\x9b\xe7\x99\xbc\xe4\xbd\x88\xe4\xba\x86\xe5\xbd\xb1\xe7\x89\x87'
p35
I36
sS'protective'
p36
I36
sS'very'
p37
I31
sS':-*'
p38
I36
sS'blanket'
p39
I36
sS'fav'
p40
I36
sS'\xe7\xa6\x8f\xe8\xbb\x92\xe9\x9b\x85\xe6\x95\x98'
p41
I36
sS'selfies'
p42
I36
sS'putting'
p43
I35
sS'jack'
p44
I34
sS'masturbate'
p45
I36
sS'mom,91006\n520423512520278017,terynmichele,2014-10-10'
p46
I36
sS'reply'
p47
I36
sS'trouble'
p48
I36
sS'cool'
p49
I36
sS'school'
p50
I35
sS'bring'
p51
I36
sS'did'
p52
I35
sS'niggas'
p53
I36
sS'posts'
p54
I36
sS'brother'
p55
I34
sS'guurl'
p56
I36
sS'temple'
p57
I24
sS'leave'
p58
I34
sS'these'
p59
I36
sS'subway'
p60
I36
sS'collabor8'
p61
I36
sS'guy'
p62
I36
sS'musician\xe2\x9d\xa4'
p63
I36
sS'tru'
p64
I35
sS'round'
p65
I35
sS'haate'
p66
I36
sS"it'll"
p67
I36
sS"i'll"
p68
I34
sS'900'
p69
I36
sS'work'
p70
I34
sS'says'
p71
I36
sS'tired'
p72
I34
sS'collage'
p73
I36
sS'muhahaha'
p74
I36
sS'snowman?\xe2\x9b\x84\xef\xb8\x8f'
p75
I36
sS'past'
p76
I35
sS'second'
p77
I35
sS'design'
p78
I36
sS'picked'
p79
I36
sS'earth'
p80
I36
sS'transformers'
p81
I36
sS'goes'
p82
I36
sS'even'
p83
I32
sS'big!!"'
p84
I36
sS'what'
p85
I26
sS'errors'
p86
I36
sS'abd'
p87
I36
sS'christ'
p88
I36
sS'wallet'
p89
I36
sS'ned'
p90
I36
sS'schedule'
p91
I36
sS'waiting'
p92
I36
sS'\xe5\x89\x9b\xe5\x89\x9b\xe7\x99\xbc\xe4\xbd\x88\xe7\x9b\xb8\xe7\x89\x87'
p93
I33
sS'new'
p94
I34
sS'sorry,91006\n405859338855522304,richrd_griffin,2013-11-28'
p95
I36
sS'>900'
p96
I36
sS'ever'
p97
I35
sS'bird'
p98
I36
sS'teachers'
p99
I36
sS'5000'
p100
I35
sS'colletti'
p101
I36
sS'chose'
p102
I36
sS'hondo!"'
p103
I36
sS'never'
p104
I35
sS'here'
p105
I34
sS'hours'
p106
I36
sS'macias'
p107
I36
sS'studio'
p108
I28
sS'others'
p109
I36
sS'alone'
p110
I35
sS'grape'
p111
I36
sS'earthquake'
p112
I36
sS'change'
p113
I36
sS'thrift'
p114
I35
sS'box'
p115
I34
sS'arcadia'
p116
I18
sS'38'
p117
I36
sS"i's"
p118
I36
sS'kayla'
p119
I36
sS'didnt'
p120
I36
sS'leaves'
p121
I36
sS'storefront'
p122
I36
sS"i'd"
p123
I35
sS'smoke'
p124
I36
sS'opinion'
p125
I36
sS"i'm"
p126
I6
sS'makes'
p127
I36
sS'pillow'
p128
I36
sS'massage'
p129
I35
sS'love'
p130
I22
sS'hiking'
p131
I36
sS'straw'
p132
I36
sS'win'
p133
I36
sS'tee"'
p134
I36
sS'glowy'
p135
I36
sS'expect'
p136
I36
sS'studio)'
p137
I35
sS'n/w/c'
p138
I36
sS'meee'
p139
I36
sS'gosh'
p140
I36
sS'singing'
p141
I36
sS'market'
p142
I36
sS'emoji'
p143
I36
sS'everybody'
p144
I36
sS'use'
p145
I33
sS'from'
p146
I33
sS'would'
p147
I33
sS'&'
p148
I28
sS'snacks'
p149
I36
sS'visit'
p150
I36
sS'two'
p151
I35
sS'next'
p152
I36
sS'live'
p153
I31
sS'until'
p154
I36
sS'clara'
p155
I36
sS'6'
p156
I36
sS'albertsons'
p157
I29
sS'rosemead'
p158
I35
sS'prep'
p159
I34
sS'today'
p160
I31
sS'more'
p161
I32
sS'reevaluate'
p162
I36
sS'tryna'
p163
I36
sS'diamond'
p164
I36
sS'door'
p165
I35
sS'knows'
p166
I36
sS'started'
p167
I35
sS'tax'
p168
I36
sS'haha'
p169
I36
sS'about'
p170
I36
sS'"i'
p171
I35
sS'warm'
p172
I35
sS'discussed'
p173
I36
sS'olive'
p174
I34
sS'9026'
p175
I36
sS'work,91006\n520424535494258688,terynmichele,2014-10-10'
p176
I36
sS'glad'
p177
I36
sS'women'
p178
I36
sS'me'
p179
I14
sS'fooling'
p180
I36
sS'hour'
p181
I35
sS'rio'
p182
I33
sS'this'
p183
I19
sS'car'
p184
I33
sS'getting'
p185
I34
sS'cat'
p186
I35
sS'movies'
p187
I36
sS'mall'
p188
I36
sS'cuddle'
p189
I36
sS'can'
p190
I30
sS'island'
p191
I36
sS',91006\n520421834593165312,terynmichele,2014-10-10'
p192
I36
sS'making'
p193
I35
sS'closing'
p194
I36
sS'male'
p195
I36
sS'my'
p196
I4
sS'chipotle>>>'
p197
I36
sS'beautiful'
p198
I36
sS'heart'
p199
I36
sS'wana'
p200
I36
sS'give'
p201
I36
sS"mcdonald's"
p202
I36
sS'work.such'
p203
I36
sS"didn't"
p204
I33
sS'fuck'
p205
I33
sS'socal'
p206
I36
sS'high'
p207
I36
sS'fay'
p208
I36
sS'something'
p209
I36
sS'want'
p210
I28
sS'blvd'
p211
I36
sS'wonderful'
p212
I36
sS'tan'
p213
I36
sS'times'
p214
I36
sS'shampoo=hair'
p215
I36
sS'bonded'
p216
I36
sS'pink'
p217
I36
sS'huge'
p218
I36
sS'needs'
p219
I36
sS'lama'
p220
I36
sS'end'
p221
I36
sS'mauricio'
p222
I36
sS'sit'
p223
I36
sS'rather'
p224
I35
sS'loser\xe2\x9c\x8b'
p225
I36
sS'watching'
p226
I34
sS'nuts'
p227
I36
sS'brain'
p228
I36
sS'needa'
p229
I36
sS'how'
p230
I34
sS'hot'
p231
I34
sS'\xe5\xb8\xb6\xe5\xa6\xb3\xe7\x9a\x84\xe6\x89\x8b\xe9\x8d\x8a\xe5\x8e\xbb\xe6\x95\x99\xe5\xa0\x82'
p232
I36
sS'elephant'
p233
I36
sS'intimate/small'
p234
I36
sS'beach'
p235
I36
sS"doesn't"
p236
I35
sS'gurl'
p237
I36
sS'stand'
p238
I36
sS'fr'
p239
I36
sS'okay'
p240
I34
sS'plans'
p241
I36
sS'rude'
p242
I36
sS'mufasa'
p243
I36
sS'rhyme'
p244
I36
sS'after'
p245
I35
sS'spot'
p246
I35
sS'different'
p247
I36
sS'dats'
p248
I36
sS'alissyanna'
p249
I36
sS'wrong'
p250
I35
sS'birthday'
p251
I35
sS'mad'
p252
I36
sS'dye'
p253
I36
sS'coming'
p254
I36
sS'date'
p255
I36
sS':c'
p256
I36
sS'guys'
p257
I36
sS'grow'
p258
I36
sS'types'
p259
I36
sS'man'
p260
I34
sS'a'
p261
I9
sS'refuse'
p262
I36
sS'short'
p263
I36
sS'awkward'
p264
I36
sS'whenever'
p265
I36
sS'6th'
p266
I35
sS'rooting'
p267
I36
sS'watson'
p268
I36
sS'st'
p269
I33
sS'vibe'
p270
I36
sS'green'
p271
I34
sS'fuckin'
p272
I35
sS'goodbye'
p273
I36
sS"00:36:14.0,34.10106294,-118.02302979,4315.02,i'm"
p274
I36
sS'facebook'
p275
I36
sS'me-'
p276
I36
sS'fans...something'
p277
I36
sS'order'
p278
I36
sS"that's"
p279
I34
sS'replied'
p280
I36
sS'cute'
p281
I34
sS'9207'
p282
I36
sS'serving'
p283
I36
sS"don't"
p284
I30
sS'walgreens'
p285
I36
sS'over'
p286
I29
sS'move'
p287
I36
sS'years'
p288
I35
sS'course'
p289
I30
sS"won't"
p290
I36
sS'costume'
p291
I36
sS'makeup'
p292
I36
sS'dangan'
p293
I36
sS'hell'
p294
I36
sS'still'
p295
I36
sS'avenue'
p296
I36
sS'mayor'
p297
I34
sS'before'
p298
I35
sS'ima'
p299
I36
sS'messed'
p300
I36
sS'sushi,91006\n506239069173460992,taliamarins,2014-09-01'
p301
I36
sS'thank'
p302
I35
sS"he's"
p303
I33
sS'fix'
p304
I36
sS'course)'
p305
I34
sS'beyonce'
p306
I36
sS'amazing'
p307
I34
sS'actually'
p308
I36
sS'better'
p309
I32
sS'sabby'
p310
I36
sS'tyler'
p311
I35
sS'ruining'
p312
I36
sS'hotwings'
p313
I36
sS'at\xe2\x80\xa6'
p314
I36
sS'sassy......deal'
p315
I36
sS'goodmorning'
p316
I36
sS'happened'
p317
I35
sS'then'
p318
I28
sS'them'
p319
I36
sS'good'
p320
I31
sS'ltmw'
p321
I36
sS'food'
p322
I36
sS'workout'
p323
I35
sS'practice'
p324
I36
sS"we'll"
p325
I36
sS'ralphs'
p326
I36
sS'functional'
p327
I36
sS'lunch'
p328
I35
sS'therapy'
p329
I36
sS'starbucks'
p330
I31
sS'kiss'
p331
I36
sS'hands'
p332
I36
sS'not'
p333
I33
sS'yp'
p334
I35
sS'16:28'
p335
I36
sS'now'
p336
I31
sS'ahaha'
p337
I36
sS'day'
p338
I29
sS'qt'
p339
I36
sS'worlds'
p340
I36
sS'alex'
p341
I36
sS'honker'
p342
I36
sS'everytime'
p343
I36
sS'always'
p344
I34
sS'lol!thank'
p345
I36
sS'l'
p346
I36
sS'-\xe2\x80\xa6'
p347
I36
sS'bless'
p348
I36
sS'fitness'
p349
I36
sS'water'
p350
I36
sS'luck'
p351
I36
sS'el'
p352
I30
sS'everyone'
p353
I34
sS'listening'
p354
I36
sS'fired'
p355
I36
sS',91006\n520419070416789504,terynmichele,2014-10-10'
p356
I36
sS'elephants'
p357
I36
sS'doing'
p358
I35
sS'house'
p359
I35
sS'fish'
p360
I36
sS'comin'
p361
I36
sS'ft'
p362
I36
sS'yeah'
p363
I36
sS'upload'
p364
I36
sS'books'
p365
I36
sS'turnt'
p366
I36
sS'year'
p367
I34
sS'our'
p368
I33
sS'ew'
p369
I35
sS'calling'
p370
I36
sS'ring'
p371
I36
sS'out'
p372
I33
sS'try'
p373
I35
sS'15:37:55.0,34.1005797,-118.0199156,4315.02,a'
p374
I36
sS'kids'
p375
I36
sS'god'
p376
I34
sS'tried'
p377
I36
sS'since'
p378
I35
sS'"go'
p379
I35
sS'bonus'
p380
I36
sS'seriously'
p381
I35
sS'stuff'
p382
I36
sS'smh'
p383
I36
sS'got'
p384
I35
sS'rn'
p385
I32
sS'rea'
p386
I36
sS'sharon'
p387
I36
sS'model'
p388
I36
sS'shut'
p389
I36
sS'working'
p390
I36
sS'laaast'
p391
I36
sS'city'
p392
I24
sS'frank'
p393
I26
sS'nephew'
p394
I36
sS'cornstarch'
p395
I36
sS'reason'
p396
I36
sS'leilani'
p397
I36
sS'disneyland'
p398
I35
sS'imagine'
p399
I36
sS'ask'
p400
I35
sS'wanted'
p401
I36
sS'craving'
p402
I36
sS'gig'
p403
I36
sS'scary'
p404
I35
sS'yard'
p405
I36
sS'could'
p406
I36
sS'headphones'
p407
I36
sS'put'
p408
I35
sS'days'
p409
I36
sS'keep'
p410
I36
sS'thing'
p411
I35
sS'place'
p412
I35
sS'bothersome'
p413
I36
sS'(164'
p414
I36
sS'castle'
p415
I35
sS'(at'
p416
I34
sS'think'
p417
I35
sS'anita'
p418
I35
sS'first'
p419
I31
sS'claudia'
p420
I36
sS'9122'
p421
I36
sS'already'
p422
I34
sS'tanning\xe2\x98\x80\xef\xb8\x8f'
p423
I36
sS'ammon'
p424
I36
sS'reconnected'
p425
I36
sS'feel'
p426
I34
sS'girls'
p427
I36
sS'taco'
p428
I36
sS'9245'
p429
I36
sS'one'
p430
I33
sS'embarrassed'
p431
I36
sS'fantasy'
p432
I36
sS'"all'
p433
I36
sS'done'
p434
I36
sS'bitch'
p435
I36
sS'xtinaguzman'
p436
I35
sS'comic'
p437
I36
sS'miss'
p438
I36
sS'tomorrow'
p439
I35
sS'idea'
p440
I36
sS"you're"
p441
I33
sS'little'
p442
I32
sS'long'
p443
I36
sS"there's"
p444
I36
sS'needed'
p445
I36
sS'klamp'
p446
I36
sS',91006\n477668737483415552,jacobryanortiz,2014-06-14'
p447
I36
sS'twisted'
p448
I36
sS'celebratory'
p449
I36
sS'anyone'
p450
I36
sS'their'
p451
I34
sS'fml'
p452
I36
sS'2'
p453
I35
sS'shampoo='
p454
I36
sS'too'
p455
I27
sS'rockin'
p456
I36
sS'drool'
p457
I36
sS'white'
p458
I36
sS'las'
p459
I31
sS'store'
p460
I34
sS'eyes'
p461
I35
sS'hard'
p462
I36
sS'that'
p463
I26
sS'pederson'
p464
I36
sS'exactly'
p465
I36
sS'huh'
p466
I36
sS'trippy'
p467
I36
sS'massages'
p468
I36
sS'cops'
p469
I35
sS'dentist'
p470
I36
sS'nigga'
p471
I36
sS'butt'
p472
I36
sS'erz0701'
p473
I36
sS'july'
p474
I36
sS'peck'
p475
I36
sS'$2'
p476
I36
sS'than'
p477
I34
sS'9233'
p478
I36
sS'esung21'
p479
I36
sS'ste'
p480
I36
sS'12'
p481
I36
sS'lmao'
p482
I33
sS'oats'
p483
I36
sS'gotten'
p484
I36
sS'gotta'
p485
I36
sS'tree'
p486
I36
sS'bed'
p487
I35
sS'16:10:28.0,34.1020022,-118.0188434,4315.02,just'
p488
I36
sS'ventura'
p489
I36
sS'r'
p490
I36
sS'speaking'
p491
I36
sS'were'
p492
I34
sS'video'
p493
I36
sS'feeling'
p494
I35
sS'ousted'
p495
I34
sS'bet'
p496
I36
sS'anyways'
p497
I36
sS'and'
p498
I10
sS':((('
p499
I36
sS'san'
p500
I36
sS'wakes'
p501
I35
sS'weekend'
p502
I36
sS'pass'
p503
I36
sS'mind'
p504
I36
sS'sad'
p505
I36
sS'tonight'
p506
I30
sS'talking'
p507
I34
sS'say'
p508
I35
sS'rained'
p509
I36
sS'graffiti'
p510
I23
sS'have'
p511
I30
sS'need'
p512
I32
sS'breakfast'
p513
I36
sS'sky'
p514
I36
sS'saw'
p515
I34
sS'clearly'
p516
I36
sS'sat'
p517
I36
sS'lie'
p518
I36
sS'milly'
p519
I26
sS'albertsons)'
p520
I36
sS'lil'
p521
I36
sS'-'
p522
I36
sS'literally'
p523
I36
sS'purchasing'
p524
I36
sS'brandon'
p525
I35
sS'note'
p526
I36
sS'other'
p527
I36
sS'take'
p528
I35
sS'haaaate'
p529
I36
sS'(620'
p530
I36
sS'interior'
p531
I36
sS'so'
p532
I16
sS'begin'
p533
I35
sS'pain'
p534
I34
sS'(298'
p535
I36
sS'price'
p536
I36
sS'who'
p537
I33
sS'family\xe2\x9b\xb3'
p538
I36
sS'rehearsal'
p539
I32
sS'intentions'
p540
I36
sS'mouth'
p541
I36
sS'nothing'
p542
I36
sS'long"'
p543
I36
sS'colliding'
p544
I36
sS'too\xe2\x80\x9d'
p545
I36
sS'why'
p546
I32
sS"open..it's"
p547
I36
sS'forever'
p548
I35
sS'especially'
p549
I36
sS'into'
p550
I36
sS'cuddles'
p551
I36
sS'dog'
p552
I36
sS'face'
p553
I36
sS'definitely'
p554
I36
sS'link'
p555
I36
sS'thot'
p556
I36
sS'away'
p557
I36
sS'lying'
p558
I36
sS'$$$'
p559
I36
sS'shop'
p560
I36
sS'saying'
p561
I36
sS'catalina'
p562
I36
sS'golf'
p563
I27
sS'\xe2\x9c\xa8'
p564
I36
sS'show'
p565
I36
sS'hustled'
p566
I36
sS'text'
p567
I36
sS'agreed'
p568
I36
sS'league'
p569
I36
sS'convos'
p570
I36
sS'discovered'
p571
I36
sS'implying'
p572
I36
sS'large'
p573
I36
sS'parked'
p574
I36
sS'tonight>>>'
p575
I36
sS'tempted'
p576
I36
sS'playing'
p577
I36
sS'find'
p578
I36
sS'giant'
p579
I36
sS'2morrow'
p580
I36
sS'210'
p581
I36
sS'dawn'
p582
I36
sS'every'
p583
I36
sS'should'
p584
I36
sS'bfs'
p585
I36
sS'yea'
p586
I36
sS'only'
p587
I34
sS'going'
p588
I34
sS'dancing'
p589
I36
sS'pretty'
p590
I36
sS'photo'
p591
I36
sS'california)'
p592
I32
sS'stain'
p593
I36
sS'posted'
p594
I36
sS'local'
p595
I36
sS'matata,91006\n494507185305419778,adame125,2014-07-30'
p596
I36
sS'hope'
p597
I35
sS'meant'
p598
I34
sS'do'
p599
I29
sS'golf,91006\n488717172969967616,adame125,2014-07-14'
p600
I36
sS'his'
p601
I36
sS'cartwheels'
p602
I36
sS'hondo'
p603
I34
sS'get'
p604
I29
sS'luke'
p605
I36
sS'\xe5\xbe\x9e\xe5\x8f\xb0\xe7\x81\xa3\xe4\xbe\x86'
p606
I36
sS'honda'
p607
I36
sS'stop'
p608
I35
sS'eggs'
p609
I36
sS'joint'
p610
I36
sS'feels'
p611
I35
sS'chat'
p612
I36
sS'werent'
p613
I36
sS'nigguh'
p614
I36
sS'damnit'
p615
I36
sS'happiest'
p616
I36
sS'15:35:03.0,34.1005986,-118.0196829,4315.02,a'
p617
I36
sS'dr'
p618
I31
sS'him'
p619
I36
sS'gem'
p620
I36
sS'cozied'
p621
I36
sS'hall'
p622
I36
sS'thanksss'
p623
I36
sS'me,91006\n520424219356979200,terynmichele,2014-10-10'
p624
I36
sS'officially'
p625
I36
sS'cry'
p626
I35
sS'"to"'
p627
I36
sS'morning'
p628
I36
sS'twice'
p629
I36
sS'bad'
p630
I33
sS'bae'
p631
I36
sS'she'
p632
I34
sS'shots'
p633
I36
sS'undefeated'
p634
I36
sS'through'
p635
I36
sS'vincent'
p636
I36
sS'where'
p637
I35
sS'steam'
p638
I36
sS'preach'
p639
I36
sS"y'all"
p640
I35
sS'btw'
p641
I36
sS'art'
p642
I36
sS'w/'
p643
I35
sS'brothers"'
p644
I36
sS'notice'
p645
I36
sS'whateverrrr'
p646
I36
sS'breathe'
p647
I36
sS'manning'
p648
I35
sS'see'
p649
I34
sS'full'
p650
I36
sS'are'
p651
I26
sS'sea'
p652
I36
sS'erika'
p653
I36
sS'9304'
p654
I36
sS'9305'
p655
I36
sS',91006\n520425156301565952,terynmichele,2014-10-10'
p656
I36
sS'best'
p657
I33
sS'said'
p658
I36
sS'14:32:25.0,34.1023587,-118.0169399,4315.02,bonding'
p659
I36
sS'crooked'
p660
I36
sS'movie'
p661
I36
sS'wow'
p662
I35
sS'currently'
p663
I36
sS'awks'
p664
I36
sS'behind'
p665
I36
sS'won'
p666
I36
sS'jesus'
p667
I36
sS'correctly'
p668
I36
sS'too?,91006\n495660239992422400,nutellajohnson,2014-08-02'
p669
I36
sS'probably'
p670
I36
sS'sorts'
p671
I36
sS'piss'
p672
I36
sS'available'
p673
I36
sS'forward'
p674
I36
sS'we'
p675
I29
sS'men'
p676
I36
sS'omg'
p677
I36
sS'cabrera'
p678
I36
sS'nature'
p679
I36
sS"bff's"
p680
I36
sS'ked'
p681
I36
sS'00:57:26.0,34.0980512,-118.0278862,4315.02,mess'
p682
I36
sS'jane'
p683
I36
sS'job'
p684
I36
sS'joc'
p685
I36
sS'coffee'
p686
I36
sS'wear'
p687
I36
sS'merry'
p688
I35
sS'werk'
p689
I36
sS'wth'
p690
I36
sS'cousin'
p691
I36
sS'picking'
p692
I36
sS'come'
p693
I34
sS'pissed'
p694
I36
sS'both'
p695
I35
sS'tfti'
p696
I36
sS'last'
p697
I34
sS'many'
p698
I36
sS'taking'
p699
I35
sS'thanks!"coooool'
p700
I36
sS'creeeep'
p701
I36
sS'lifespan'
p702
I36
sS'woke'
p703
I36
sS'mane'
p704
I36
sS'03:42:29.0,34.10903208,-118.01884371,4315.02,i'
p705
I36
sS'let'
p706
I35
sS'wheels'
p707
I36
sS'yelled'
p708
I36
sS"can't"
p709
I36
sS'ily'
p710
I36
sS'pre'
p711
I36
sS'03:24:25.0,34.10902013,-118.01873349,4315.02,these'
p712
I36
sS'point'
p713
I36
sS'wall'
p714
I36
sS'legs'
p715
I36
sS'ca'
p716
I20
sS'each'
p717
I36
sS'period'
p718
I36
sS'community'
p719
I30
sS'cuz'
p720
I36
sS'chewbacca'
p721
I36
sS'dances'
p722
I36
sS'14:06:32.0,34.1043852,-118.0166069,4315.02,beautiful'
p723
I36
sS'greg'
p724
I36
sS"couldn't"
p725
I36
sS'church'
p726
I29
sS'majestic'
p727
I36
sS'table'
p728
I36
sS'expensive'
p729
I35
sS'lynrose'
p730
I36
sS'15:02:06.0,34.1017488,-118.0177711,4315.02,golfing'
p731
I36
sS'late'
p732
I36
sS'most'
p733
I36
sS'light'
p734
I36
sS'yay'
p735
I35
sS'everything.\xe2\x80\x9dlife'
p736
I36
sS"it's"
p737
I29
sS'://,91006\n495666097593798657,nutellajohnson,2014-08-02'
p738
I36
sS'classic'
p739
I36
sS'91006'
p740
I36
sS'been'
p741
I34
sS'hitting'
p742
I36
sS'sleepover'
p743
I36
sS'much'
p744
I32
sS'damn'
p745
I34
sS'treat'
p746
I35
sS'expected'
p747
I36
sS'1030'
p748
I36
sS'meeting'
p749
I35
sS'mary'
p750
I36
sS'(150'
p751
I36
sS'wants'
p752
I36
sS'it.,91006\n525450961553080320,ayyo_dave213,2014-10-24'
p753
I36
sS'life'
p754
I36
sS'haha,91006\n494510530111864834,adame125,2014-07-30'
p755
I36
sS'shopping'
p756
I36
sS'spit'
p757
I36
sS'received'
p758
I36
sS'moved'
p759
I36
sS"what's"
p760
I36
sS'"too"'
p761
I36
sS'andrew'
p762
I36
sS'whatever'
p763
I36
sS'c8'
p764
I35
sS'catch'
p765
I36
sS'wedding'
p766
I36
sS'those'
p767
I36
sS'chill'
p768
I36
sS'play'
p769
I36
sS'myself'
p770
I36
sS'look'
p771
I34
sS'guarding'
p772
I36
sS'frozen'
p773
I35
sS'might'
p774
I36
sS'straight'
p775
I36
sS'tunas'
p776
I31
sS'n'
p777
I35
sS'will'
p778
I34
sS'encountered'
p779
I36
sS'texas'
p780
I36
sS'hahaha'
p781
I34
sS'fun'
p782
I35
sS'robin'
p783
I36
sS'coolest'
p784
I36
sS'mistake'
p785
I36
sS'<3'
p786
I36
sS'sister-'
p787
I35
sS'park'
p788
I36
sS'is'
p789
I12
sS'sushi'
p790
I31
sS'it'
p791
I15
sS'sleeping'
p792
I36
sS'fucken'
p793
I36
sS'shame'
p794
I35
sS'cant'
p795
I36
sS'someone'
p796
I35
sS'im'
p797
I36
sS'in'
p798
I10
sS'ready'
p799
I36
sS'ave'
p800
I27
sS'sits'
p801
I36
sS'trade'
p802
I36
sS'9221'
p803
I36
sS'if'
p804
I30
sS'mako'
p805
I34
sS'tattoo'
p806
I35
sS'par'
p807
I36
sS'williams'
p808
I36
sS'away*'
p809
I36
sS'open'
p810
I36
sS'james'
p811
I36
sS'things'
p812
I36
sS'make'
p813
I36
sS'same'
p814
I36
sS'forehead'
p815
I36
sS'party'
p816
I35
sS'04:00:09.0,34.10903451,-118.01883269,4315.02,brads'
p817
I36
sS'physical'
p818
I36
sS'cedric'
p819
I36
sS'you!"my'
p820
I36
sS'week'
p821
I35
sS'used'
p822
I35
sS'diego'
p823
I36
sS'asian?"'
p824
I36
sS'15:51:12.0,34.1020757,-118.0188195,4315.02,hakuna'
p825
I36
sS'drink'
p826
I36
sS'yesterday'
p827
I36
sS'arcadia)'
p828
I31
sS'stacy'
p829
I36
sS'moment'
p830
I36
sS'night.\xe2\x80\x9d'
p831
I36
sS'lol\xe2\x80\x9d'
p832
I35
sS'unicorn'
p833
I36
sS'build'
p834
I36
sS"jose's"
p835
I36
sS'totally'
p836
I35
sS'weird'
p837
I36
sS'waiting,91006\n520425976506105857,terynmichele,2014-10-10'
p838
I36
sS'tracking'
p839
I23
sS'off'
p840
I31
sS'older'
p841
I36
sS'i'
p842
I1
sS'dyingggg'
p843
I36
sS'dallas'
p844
I36
sS'well'
p845
I35
sS'fusion'
p846
I36
sS'picks'
p847
I36
sS'thought'
p848
I33
sS'mother'
p849
I36
sS'five'
p850
I36
sS'the'
p851
I3
sS'spend'
p852
I36
sS'left'
p853
I35
sS'"crosshair'
p854
I36
sS'summer'
p855
I36
sS'returns'
p856
I36
sS'newest'
p857
I35
sS'\xe2\x9d\xa4'
p858
I36
sS'just'
p859
I16
sS'being'
p860
I35
sS'when'
p861
I28
sS'enjoy'
p862
I36
sS'half'
p863
I36
sS'yee'
p864
I36
sS'boutta'
p865
I36
sS'hades'
p866
I36
sS'gwen'
p867
I36
sS'kill'
p868
I36
sS'thanks'
p869
I35
sS'seats'
p870
I36
sS'yes'
p871
I36
sS'yet'
p872
I35
sS'death'
p873
I36
sS'cus'
p874
I36
sS'thinking'
p875
I36
sS'had'
p876
I36
sS"bren's"
p877
I36
sS'bullshit'
p878
I36
sS'lets'
p879
I35
sS'stalkerrrrr'
p880
I36
sS'sweet'
p881
I36
sS'snap'
p882
I36
sS'has'
p883
I33
sS'hat'
p884
I36
sS'excited'
p885
I35
sS'hates'
p886
I36
sS'gave'
p887
I35
sS'purple'
p888
I36
sS"lizzy's"
p889
I36
sS'around'
p890
I36
sS'gloom'
p891
I36
sS'big'
p892
I35
sS"who's"
p893
I36
sS'gonna'
p894
I34
sS'eaking'
p895
I36
sS'early'
p896
I35
sS'game'
p897
I34
sS'doyle'
p898
I36
sS'know'
p899
I29
sS'mom'
p900
I31
sS'aaaaww'
p901
I36
sS'world'
p902
I36
sS'2nd'
p903
I36
sS'disappointed'
p904
I36
sS'name'
p905
I36
sS'"two"'
p906
I36
sS'like'
p907
I22
sS'lost'
p908
I36
sS'y\'alls"'
p909
I36
sS'11103'
p910
I36
sS'future'
p911
I36
sS'facing'
p912
I36
sS'gabshri3407'
p913
I36
sS'wildcats'
p914
I34
sS'robbery'
p915
I36
sS'night'
p916
I31
sS'waiving'
p917
I36
sS'fault'
p918
I36
sS'soft'
p919
I36
sS'ho'
p920
I36
sS'invited'
p921
I36
sS'right'
p922
I32
sS'old'
p923
I34
sS'people'
p924
I33
sS'fucking'
p925
I36
sS'*flys'
p926
I36
sS'some'
p927
I32
sS'back'
p928
I32
sS'bounce'
p929
I36
sS'hair'
p930
I35
sS'championship'
p931
I36
sS'6:45'
p932
I36
sS'dear'
p933
I36
sS'home'
p934
I34
sS'sheesh'
p935
I36
sS'thinks'
p936
I36
sS'gracie'
p937
I36
sS'recently'
p938
I36
sS'wobbly'
p939
I36
sS'for'
p940
I11
sS'miloshalo'
p941
I35
sS'carts'
p942
I36
sS'memories'
p943
I36
sS'corpse'
p944
I36
sS'stops'
p945
I36
sS'brennan'
p946
I36
sS'everything'
p947
I36
sS'does'
p948
I36
sS'trunks'
p949
I36
sS'easter'
p950
I36
sS'screwed'
p951
I36
sS'christmas'
p952
I32
sS'be'
p953
I22
sS'knew'
p954
I36
sS'run'
p955
I36
sS'business'
p956
I35
sS'bc'
p957
I35
sS'lose'
p958
I36
sS'santa'
p959
I34
sS'5125'
p960
I36
sS'04:27:56.0,34.1048993,-118.022874,4315.02,goaaaalllllll,91006\n518222460697595904,mayy_madisonn,2014-10-04'
p961
I36
sS'by'
p962
I35
sS'hearing'
p963
I36
sS'on'
p964
I21
sS'sister'
p965
I35
sS'works'
p966
I36
sS'ok'
p967
I36
sS'(arcadia'
p968
I11
sS'ace'
p969
I36
sS'oh'
p970
I32
sS'roar'
p971
I36
sS'of'
p972
I14
sS'favorite'
p973
I35
sS'watch'
p974
I36
sS'dinner'
p975
I35
sS'fell'
p976
I36
sS'idk'
p977
I35
sS'mean'
p978
I36
sS'wanna'
p979
I35
sS'or'
p980
I31
sS'road'
p981
I36
sS'seeing'
p982
I36
sS'pigging'
p983
I36
sS'honeymoon'
p984
I36
sS'bound'
p985
I36
sS'snapchat'
p986
I36
sS'ppl'
p987
I36
sS'down'
p988
I36
sS'freshman'
p989
I36
sS'because'
p990
I34
sS'champ'
p991
I36
sS'ronpa'
p992
I36
sS'your'
p993
I31
sS'bothers'
p994
I36
sS'hahahaha'
p995
I36
sS'her'
p996
I28
sS'00:43:01.0,34.10568,-118.0298822,4315.02,about'
p997
I36
sS'transfer'
p998
I36
sS'apparently'
p999
I36
sS'there'
p1000
I35
sS'ca)'
p1001
I13
sS'lol'
p1002
I26
sS'class'
p1003
I36
sS'\xe2\x9b\xb3\xef\xb8\x8f'
p1004
I36
sS'start'
p1005
I36
sS'type'
p1006
I36
sS'drank'
p1007
I36
sS'way'
p1008
I34
sS'gio'
p1009
I36
sS'puta'
p1010
I36
sS'sale'
p1011
I36
sS'was'
p1012
I24
sS'happy'
p1013
I33
sS'buy'
p1014
I36
sS'invite'
p1015
I36
sS"i've"
p1016
I35
sS'great'
p1017
I36
sS'doh'
p1018
I36
sS'but'
p1019
I25
sS'02:28:32.0,34.10452563,-118.02997445,4315.02,i'
p1020
I36
sS'"you\'re'
p1021
I36
sS'hi'
p1022
I35
sS'uncle'
p1023
I35
sS'dead'
p1024
I36
sS'\xe2\x99\xa5'
p1025
I36
sS'with'
p1026
I17
sS'eat'
p1027
I36
sS'he'
p1028
I35
sS'youbrian.you'
p1029
I36
sS'made'
p1030
I34
sS'calls'
p1031
I36
sS'happen'
p1032
I36
sS"wasn't"
p1033
I36
sS'wish'
p1034
I35
sS'work,91006\n494498173230907393,adame125,2014-07-30'
p1035
I36
sS'up'
p1036
I26
sS'us'
p1037
I35
sS'tell'
p1038
I36
sS'planet'
p1039
I36
sS'uh'
p1040
I36
sS'cake'
p1041
I36
sS'(140'
p1042
I36
sS'z'
p1043
I36
sS'nooooooo'
p1044
I36
sS'pets'
p1045
I36
sS'gone'
p1046
I36
sS'buuut'
p1047
I36
sS'ordered'
p1048
I36
sS'narnia'
p1049
I36
sS'item'
p1050
I36
sS'forgot'
p1051
I36
sS'91780'
p1052
I24
sS'an'
p1053
I30
sS'as'
p1054
I34
sS"queen's"
p1055
I35
sS'at'
p1056
I5
sS"mc's"
p1057
I36
sS'aids'
p1058
I36
sS'watched'
p1059
I36
sS'awhile'
p1060
I36
sS'cafe'
p1061
I36
sS'girl'
p1062
I35
sS'shit'
p1063
I36
sS'jesse'
p1064
I36
sS'"are'
p1065
I36
sS'again'
p1066
I36
sS'maybe'
p1067
I35
sS'loud'
p1068
I36
sS'no'
p1069
I27
sS'45'
p1070
I36
sS'oak'
p1071
I33
sS'saturday'
p1072
I36
sS'\xe2\x9a\x93\xef\xb8\x8f\xe2\x9a\x93\xef\xb8\x8f'
p1073
I36
sS'nap'
p1074
I36
sS'book'
p1075
I36
sS'twerk'
p1076
I36
sS"mom's"
p1077
I36
sS'holding'
p1078
I36
sS'you'
p1079
I8
sS'really'
p1080
I35
sS'smell'
p1081
I34
sS'nice'
p1082
I33
sS'junk'
p1083
I36
sS'5022'
p1084
I36
sS'bother'
p1085
I36
sS'time'
p1086
I32
sS'june'
p1087
I36
sS'breasts'
p1088
I36
sS'stay'
p1089
I36
sS"let's"
p1090
I35
sS'\xe2\x80\xa2'
p1091
I35
sS'haiva'
p1092
I36
sS'now,91006\n494484190713241600,adame125,2014-07-30'
p1093
I36
sS',91006\n520414522159689728,terynmichele,2014-10-10'
p1094
I36
sS'friends'
p1095
I26
sS'lipstick'
p1096
I36
sS'coffee)'
p1097
I36
sS'shootout'
p1098
I36
sS'e'
p1099
I33
sS'sass'
p1100
I36
sS'nephews'
p1101
I36
sS'martin'
p1102
I36
sS'mask'
p1103
I36
sS'$30'
p1104
I36
sS'bombed'
p1105
I36
sS"o'"
p1106
I36
sS'asap'
p1107
I36
sS'corey'
p1108
I36
sS'u'
p1109
I34
sS'teeth'
p1110
I35
sS'laws'
p1111
I36
sS'having'
p1112
I36
s.