(dp0
S''
p1
I6
sS'all'
p2
I22
sS':/'
p3
I31
sS':)'
p4
I27
sS'recorded'
p5
I31
sS'bc'
p6
I31
sS'weights'
p7
I31
sS'trojans'
p8
I31
sS'sleep'
p9
I30
sS'asian'
p10
I31
sS'during'
p11
I31
sS'freakin'
p12
I31
sS'go'
p13
I30
sS'follow'
p14
I30
sS'hate'
p15
I29
sS'worked'
p16
I31
sS'forget'
p17
I31
sS'whose'
p18
I30
sS'griffin'
p19
I31
sS'04:24:54.0,34.1076204,-118.0446887,4316,,91007\n497782595791634432,alvarez12george,2014-08-08'
p20
I31
sS'vietnamese'
p21
I31
sS'tweet'
p22
I30
sS'viernes'
p23
I31
sS'greattt'
p24
I31
sS'to'
p25
I3
sS'tl'
p26
I31
sS'bike'
p27
I31
sS'glad'
p28
I31
sS'regatta'
p29
I31
sS'tf'
p30
I30
sS'siblings'
p31
I31
sS'sorry'
p32
I30
sS'enjoying'
p33
I31
sS'*break'
p34
I30
sS'random'
p35
I31
sS'calif)'
p36
I31
sS'11:35'
p37
I31
sS'very'
p38
I30
sS'dessert'
p39
I30
sS'fat'
p40
I31
sS'shoot'
p41
I31
sS'vegas'
p42
I31
sS'worst'
p43
I30
sS'fam'
p44
I31
sS'ma'
p45
I31
sS'drinking'
p46
I31
sS'special'
p47
I31
sS'cool'
p48
I29
sS"we'll"
p49
I30
sS'bestfriend'
p50
I31
sS'couches'
p51
I31
sS'mothers'
p52
I31
sS'--'
p53
I31
sS'die'
p54
I31
sS'marry'
p55
I31
sS'list'
p56
I30
sS'brother'
p57
I31
sS'!!!!\xe2\x80\xa6'
p58
I31
sS'try'
p59
I31
sS'shihan'
p60
I31
sS'crotch'
p61
I31
sS'car'
p62
I28
sS'quick'
p63
I30
sS'guy'
p64
I29
sS'dip'
p65
I31
sS'clothes'
p66
I31
sS"i'll"
p67
I29
sS'open'
p68
I31
sS'work'
p69
I29
sS'says'
p70
I31
sS'me"'
p71
I31
sS'miller'
p72
I26
sS"slayin'"
p73
I31
sS'streets'
p74
I31
sS'bacon'
p75
I31
sS'discover'
p76
I31
sS'whens'
p77
I31
sS'past'
p78
I31
sS'zero'
p79
I31
sS'shirts'
p80
I31
sS'picked'
p81
I31
sS'pass'
p82
I30
sS'rehearsed'
p83
I31
sS'nba'
p84
I31
sS'waba'
p85
I31
sS'elisa'
p86
I31
sS'machines'
p87
I31
sS'even'
p88
I29
sS'what'
p89
I24
sS'05:28:49.0,34.11102797,-118.03095345,4316,lately'
p90
I31
sS'sun'
p91
I30
sS'youuu'
p92
I31
sS'*mom'
p93
I31
sS'wouldnt'
p94
I31
sS'twins'
p95
I31
sS'above'
p96
I31
sS'new'
p97
I28
sS'tips'
p98
I31
sS'nicholas'
p99
I31
sS'ever'
p100
I28
sS'bird'
p101
I31
sS'arco'
p102
I31
sS'told'
p103
I31
sS'full'
p104
I29
sS'never'
p105
I31
sS'mei'
p106
I30
sS'22:59:16.0,34.10728611,-118.0311856,4316,i'
p107
I31
sS'here'
p108
I29
sS'costumes'
p109
I31
sS'water'
p110
I31
sS'\xe2\x9d\xa4\xef\xb8\x8f'
p111
I30
sS'studio'
p112
I31
sS'aid'
p113
I31
sS'alone'
p114
I31
sS'sing'
p115
I31
sS'withdrawals'
p116
I31
sS'family.....gonna'
p117
I31
sS'change'
p118
I31
sS'wait'
p119
I31
sS'boy'
p120
I31
sS'great'
p121
I30
sS'talent'
p122
I31
sS'21:10:11.0,34.1056971,-118.0484109,4316,kevin'
p123
I31
sS'didnt'
p124
I31
sS'inspired'
p125
I31
sS'e,91007\n413080985903697920,alvarez12george,2013-12-17'
p126
I31
sS'lakers'
p127
I30
sS'example'
p128
I31
sS"i'd"
p129
I31
sS'dudeee'
p130
I31
sS'cousins'
p131
I31
sS'bon'
p132
I31
sS'loco)'
p133
I31
sS"i'm"
p134
I17
sS'makes'
p135
I31
sS'pajama'
p136
I31
sS'thats'
p137
I29
sS'uniquely'
p138
I31
sS'spurts'
p139
I31
sS'love'
p140
I24
sS'slinging'
p141
I31
sS'family'
p142
I29
sS'spy'
p143
I31
sS'win'
p144
I31
sS'graders'
p145
I31
sS'bro'
p146
I31
sS'studio)'
p147
I31
sS'face\xe2\x9c\x8b'
p148
I31
sS'tffff'
p149
I31
sS'pulls'
p150
I31
sS'post'
p151
I31
sS'fr'
p152
I31
sS'yourself'
p153
I30
sS'once'
p154
I31
sS'ear'
p155
I31
sS'from'
p156
I26
sS'perf'
p157
I31
sS'would'
p158
I31
sS'&'
p159
I25
sS'lots)'
p160
I31
sS'hungry'
p161
I31
sS'dude'
p162
I30
sS'negative'
p163
I31
sS'next'
p164
I29
sS'screw'
p165
I31
sS'ca)'
p166
I29
sS'jam'
p167
I31
sS'call'
p168
I30
sS'card'
p169
I31
sS'pitching'
p170
I31
sS'6'
p171
I31
sS'homework'
p172
I31
sS'type'
p173
I31
sS'until'
p174
I31
sS'today'
p175
I25
sS'more'
p176
I28
sS'possession'
p177
I31
sS'pencil'
p178
I31
sS'entrance'
p179
I24
sS'biblical'
p180
I31
sS'21:16:26.0,34.1057013,-118.0483775,4316,deandre'
p181
I31
sS'started'
p182
I31
sS'lolz'
p183
I31
sS'haha'
p184
I25
sS'sister'
p185
I30
sS'it'
p186
I13
sS'gossshh'
p187
I31
sS'phone'
p188
I31
sS"ain't"
p189
I31
sS'varsity'
p190
I31
sS'broke'
p191
I30
sS'baby'
p192
I30
sS'tearing'
p193
I31
sS'immature'
p194
I31
sS"must've"
p195
I31
sS'me'
p196
I14
sS'word'
p197
I31
sS'filipino'
p198
I31
sS'this'
p199
I16
sS'gabriel'
p200
I30
sS'ride'
p201
I31
sS'oh'
p202
I28
sS'sucks'
p203
I30
sS'mall'
p204
I31
sS'can'
p205
I27
sS'westbrook'
p206
I29
sS'meet'
p207
I31
sS'my'
p208
I4
sS'alyssa'
p209
I31
sS'heart'
p210
I30
sS'crazy'
p211
I31
sS'embarrassing'
p212
I31
sS'give'
p213
I31
sS'floor'
p214
I31
sS"didn't"
p215
I30
sS'fuck'
p216
I25
sS'heard'
p217
I31
sS'salty'
p218
I31
sS'dropped'
p219
I31
sS'want'
p220
I28
sS'sunglasses'
p221
I31
sS'story'
p222
I31
sS'dyke'
p223
I31
sS'/'
p224
I31
sS'byung'
p225
I31
sS'quitting'
p226
I31
sS'needs'
p227
I31
sS'hoe'
p228
I31
sS'end'
p229
I27
sS'chilly'
p230
I31
sS'rather'
p231
I31
sS'watching'
p232
I28
sS'stayed'
p233
I31
sS'arrangement'
p234
I31
sS'lounge'
p235
I26
sS'how'
p236
I31
sS'amazing'
p237
I31
sS'ucla'
p238
I31
sS'buzzin'
p239
I31
sS'\xe2\x9d\xa4\xef\xb8\x8f\xe2\x9d\xa4\xef\xb8\x8f\xe2\x9d\xa4\xef\xb8\x8f'
p240
I31
sS'chase'
p241
I31
sS'lmao,91007\n470984996140756992,muybu3no,2014-05-26'
p242
I31
sS'idk'
p243
I31
sS'staying'
p244
I31
sS'samuel'
p245
I31
sS'okay'
p246
I31
sS'plans'
p247
I31
sS'funny'
p248
I31
sS'may'
p249
I29
sS'arcadia'
p250
I31
sS'after'
p251
I26
sS'spot'
p252
I31
sS'yasss'
p253
I31
sS'dc'
p254
I31
sS'20:31:58.0,34.10685736,-118.03253073,4316,the'
p255
I31
sS'birthday'
p256
I28
sS'mad'
p257
I31
sS'date'
p258
I30
sS'such'
p259
I30
sS'suck'
p260
I30
sS'fuhh'
p261
I31
sS'guys'
p262
I30
sS'las'
p263
I29
sS'a'
p264
I5
sS'remember'
p265
I31
sS'lha'
p266
I31
sS'hahahah'
p267
I31
sS'doctor'
p268
I31
sS'idc'
p269
I31
sS'wtfff'
p270
I31
sS'grande...hahah'
p271
I31
sS'so'
p272
I13
sS'toooooooo'
p273
I31
sS'every'
p274
I31
sS'dream'
p275
I31
sS'counted'
p276
I29
sS'talk'
p277
I30
sS"that's"
p278
I30
sS'upon'
p279
I31
sS'cute'
p280
I29
sS'breaking'
p281
I31
sS'office'
p282
I31
sS"don't"
p283
I30
sS'over'
p284
I31
sS'disgusting,91007\n465601347937501184,muybu3no,2014-05-11'
p285
I31
sS'jiro'
p286
I30
sS'years'
p287
I29
sS'course'
p288
I30
sS'sukiyabashi'
p289
I31
sS'paper'
p290
I31
sS'through'
p291
I30
sS'looks'
p292
I29
sS'pitch'
p293
I31
sS'adams'
p294
I31
sS'hell'
p295
I31
sS'still'
p296
I29
sS'life,91007\n402897055334416384,alvarez12george,2013-11-19'
p297
I31
sS'its'
p298
I30
sS'before'
p299
I31
sS'ima'
p300
I31
sS'stilll'
p301
I31
sS'blake'
p302
I31
sS'thank'
p303
I31
sS'22'
p304
I31
sS"he's"
p305
I31
sS'interesting'
p306
I29
sS'backpack'
p307
I31
sS'baila'
p308
I31
sS'hot'
p309
I31
sS'[pic]'
p310
I30
sS'better'
p311
I29
sS'grade'
p312
I31
sS'window'
p313
I31
sS'buddies'
p314
I31
sS'asking'
p315
I31
sS'pussy'
p316
I31
sS'jody'
p317
I31
sS'2014'
p318
I31
sS'bout'
p319
I30
sS'bye'
p320
I29
sS"haven't"
p321
I30
sS'hahah'
p322
I31
sS'dad'
p323
I30
sS'then'
p324
I24
sS'them'
p325
I30
sS'good'
p326
I28
sS'moms'
p327
I29
sS'safe'
p328
I31
sS'school'
p329
I28
sS'19:48:39.0,34.1056576,-118.0484034,4316,growth'
p330
I31
sS'norah'
p331
I31
sS'break'
p332
I31
sS'lunch'
p333
I30
sS'kunka'
p334
I31
sS'lol,91007\n473189402869383168,muybu3no,2014-06-01'
p335
I31
sS'socks'
p336
I31
sS'they'
p337
I25
sS'half'
p338
I29
sS'front'
p339
I30
sS'ahah'
p340
I31
sS'now'
p341
I24
sS'day'
p342
I25
sS'pjs'
p343
I31
sS'griffin,91007\n465563298327715840,muybu3no,2014-05-11'
p344
I31
sS'alex'
p345
I29
sS'name'
p346
I30
sS'everytime'
p347
I31
sS'always'
p348
I31
sS'drop'
p349
I30
sS'did'
p350
I31
sS'doesnt'
p351
I31
sS'rockets'
p352
I31
sS'rock'
p353
I31
sS'interview'
p354
I31
sS'found'
p355
I31
sS'medford'
p356
I31
sS'mean'
p357
I30
sS'el'
p358
I30
sS'everyone'
p359
I29
sS'jillian'
p360
I30
sS'hyun'
p361
I31
sS'house'
p362
I29
sS'freaking'
p363
I31
sS'hard'
p364
I31
sS'yeah'
p365
I30
sS'womanhood\xe2\x80\xa6'
p366
I31
sS'*click*'
p367
I31
sS'farewell'
p368
I31
sS'scissors'
p369
I31
sS'our'
p370
I27
sS'girl'
p371
I30
sS'retaliation"'
p372
I31
sS'blows'
p373
I31
sS'whip'
p374
I31
sS'really'
p375
I26
sS'rt'
p376
I30
sS'come.,91007\n434044493151477763,alvarez12george,2014-02-13'
p377
I31
sS'inkshop_mike_salazar'
p378
I31
sS'missed'
p379
I31
sS"'"
p380
I30
sS'god'
p381
I30
sS'tried'
p382
I31
sS'seriously'
p383
I31
sS'bfrang'
p384
I31
sS'hilarious'
p385
I31
sS'got'
p386
I25
sS'rn'
p387
I30
sS'cause'
p388
I29
sS'time"'
p389
I31
sS'ass'
p390
I27
sS'model'
p391
I31
sS"jl's"
p392
I31
sS'bolts'
p393
I31
sS'problems'
p394
I31
sS"doesn't"
p395
I31
sS'^_^~'
p396
I31
sS'bitches'
p397
I31
sS'friday'
p398
I31
sS'little'
p399
I28
sS'free'
p400
I31
sS'jones/zooey'
p401
I31
sS'reason'
p402
I30
sS'fucker'
p403
I31
sS'put'
p404
I28
sS'horse'
p405
I31
sS"'80s"
p406
I31
sS'beginning'
p407
I31
sS'bask'
p408
I31
sS'whittier'
p409
I31
sS'spazz'
p410
I31
sS'(9952'
p411
I31
sS'g'
p412
I31
sS'days'
p413
I31
sS'16:33:13.0,34.10675698,-118.0326445,4316,river'
p414
I31
sS'oppa'
p415
I31
sS'pollard'
p416
I30
sS'length'
p417
I31
sS'4th'
p418
I31
sS'place'
p419
I29
sS'threat'
p420
I31
sS'(at'
p421
I31
sS'think'
p422
I27
sS'first'
p423
I27
sS'say.no'
p424
I31
sS'already'
p425
I31
sS'dont'
p426
I30
sS'feel'
p427
I30
sS'one'
p428
I29
sS'wash'
p429
I31
sS'"all'
p430
I31
sS'done'
p431
I31
sS'lol'
p432
I20
sS'another'
p433
I30
sS'comin'
p434
I30
sS'millers'
p435
I31
sS'sounds'
p436
I30
sS'captains'
p437
I31
sS'miss'
p438
I29
sS'tomorrow'
p439
I30
sS'size'
p440
I31
sS"you're"
p441
I29
sS'guess'
p442
I30
sS'law'
p443
I31
sS'aigoo'
p444
I31
sS'girls'
p445
I31
sS'stealth'
p446
I31
sS'17:49:08.0,34.1077704,-118.0423501,4316,grattataa'
p447
I31
sS'fuhhh'
p448
I30
sS'their'
p449
I29
sS'station'
p450
I31
sS'draft'
p451
I31
sS'too'
p452
I26
sS'passed'
p453
I29
sS'ticklish'
p454
I31
sS'ankle'
p455
I31
sS'legally'
p456
I31
sS'626-377-0177'
p457
I31
sS'man'
p458
I31
sS'bitter'
p459
I31
sS'reminder'
p460
I31
sS'relationship'
p461
I30
sS'that'
p462
I14
sS'season'
p463
I30
sS'gym'
p464
I31
sS'highest'
p465
I31
sS'park'
p466
I31
sS'took'
p467
I31
sS'swish'
p468
I31
sS'rockin'
p469
I31
sS'part'
p470
I30
sS'because'
p471
I30
sS'frosted'
p472
I31
sS'gone'
p473
I31
sS'butt'
p474
I30
sS'07:27:35.0,34.10677287,-118.03421538,4316,fancy'
p475
I31
sS'kept'
p476
I31
sS'believe'
p477
I30
sS'$2'
p478
I31
sS'gotchu'
p479
I31
sS'10'
p480
I30
sS'13'
p481
I31
sS'b'
p482
I31
sS'14'
p483
I31
sS'dawkins'
p484
I31
sS'depressed'
p485
I31
sS'boring'
p486
I31
sS'require'
p487
I31
sS'ampm'
p488
I31
sS'bee'
p489
I31
sS'shower'
p490
I31
sS'matter'
p491
I31
sS'greg'
p492
I31
sS'vocals'
p493
I31
sS'were'
p494
I30
sS'for\xe2\x80\xa6'
p495
I31
sS'and'
p496
I8
sS'mini'
p497
I31
sS'outta'
p498
I31
sS'san'
p499
I30
sS'chloe'
p500
I31
sS'ran'
p501
I31
sS"wednesday's"
p502
I31
sS'mah'
p503
I31
sS'yeee'
p504
I31
sS'mine'
p505
I30
sS'sae'
p506
I31
sS'sad'
p507
I31
sS'tonight'
p508
I29
sS'woah'
p509
I31
sS'say'
p510
I28
sS'buy'
p511
I31
sS'have'
p512
I19
sS'need'
p513
I25
sS'dragon'
p514
I31
sS'anyone'
p515
I31
sS'beckett'
p516
I31
sS'marathon'
p517
I31
sS'sat'
p518
I30
sS'thought'
p519
I31
sS'letsss'
p520
I31
sS'wcw'
p521
I31
sS'min'
p522
I30
sS'self'
p523
I31
sS'shorts'
p524
I31
sS'-'
p525
I31
sS'kimonis'
p526
I31
sS'homeboy'
p527
I30
sS'jabari'
p528
I31
sS'note'
p529
I30
sS'without'
p530
I31
sS'(well'
p531
I31
sS'babes'
p532
I31
sS'online'
p533
I31
sS'jail'
p534
I31
sS',91007\n429327707780812800,alvarez12george,2014-01-31'
p535
I31
sS'play'
p536
I29
sS'hunt'
p537
I31
sS'voyage'
p538
I31
sS"amore'"
p539
I31
sS'quote'
p540
I31
sS'price'
p541
I30
sS'knew'
p542
I30
sS'you"'
p543
I31
sS"aunt's"
p544
I30
sS'75'
p545
I31
sS'addict'
p546
I31
sS'dawg'
p547
I31
sS'peek'
p548
I31
sS'class'
p549
I29
sS'cafe'
p550
I31
sS'million'
p551
I31
sS'forever'
p552
I31
sS'goodwill'
p553
I31
sS'krista:)'
p554
I31
sS'later'
p555
I29
sS'dirty'
p556
I31
sS'drive'
p557
I30
sS'playing'
p558
I29
sS'freeway'
p559
I31
sS'definitely'
p560
I29
sS'ferrari'
p561
I31
sS'exs'
p562
I31
sS'thunder'
p563
I31
sS'jordan'
p564
I31
sS'skinny'
p565
I31
sS'jocelyn'
p566
I31
sS'responded'
p567
I31
sS'came'
p568
I31
sS'shop'
p569
I31
sS'saying'
p570
I30
sS'parker'
p571
I31
sS'shot'
p572
I31
sS'\xe2\x9c\xa8'
p573
I31
sS'show'
p574
I30
sS'text'
p575
I30
sS'nahh'
p576
I31
sS'brilliance'
p577
I31
sS'eccleston'
p578
I31
sS'stfu'
p579
I31
sS'radio'
p580
I31
sS'welp'
p581
I31
sS'teared'
p582
I31
sS'd2'
p583
I31
sS'fifth'
p584
I31
sS'ground'
p585
I31
sS'aint'
p586
I31
sS'durant'
p587
I31
sS'snack'
p588
I31
sS'laughlin'
p589
I31
sS'wilt'
p590
I31
sS'('
p591
I31
sS'ruin'
p592
I31
sS'dick'
p593
I30
sS'jar'
p594
I31
sS'fans'
p595
I31
sS'should'
p596
I31
sS'yea'
p597
I31
sS'only'
p598
I30
sS'going'
p599
I30
sS'pretty'
p600
I31
sS'lesters'
p601
I31
sS'8'
p602
I31
sS'piano'
p603
I31
sS'chamberlain'
p604
I31
sS'baaaby'
p605
I31
sS'do'
p606
I30
sS'his'
p607
I30
sS'hit'
p608
I29
sS"griffin's"
p609
I31
sS'get'
p610
I18
sS'beat'
p611
I31
sS'dope'
p612
I31
sS'alicia'
p613
I31
sS'watch'
p614
I29
sS'lucky'
p615
I31
sS'cardinals'
p616
I31
sS'da'
p617
I31
sS'joint'
p618
I31
sS'feels'
p619
I30
sS'wedding'
p620
I30
sS'2'
p621
I31
sS'trade'
p622
I31
sS'munch'
p623
I31
sS'him'
p624
I29
sS'lmao'
p625
I31
sS'fluff'
p626
I31
sS'gawwd'
p627
I31
sS'bar'
p628
I25
sS'bestest'
p629
I31
sS'(via'
p630
I31
sS'episodes'
p631
I31
sS'calling'
p632
I31
sS'emt'
p633
I31
sS'bad'
p634
I29
sS'she'
p635
I30
sS'gotten'
p636
I31
sS'london'
p637
I31
sS'sneek'
p638
I31
sS'movement'
p639
I31
sS'where'
p640
I30
sS'gotta'
p641
I31
sS'ears'
p642
I31
sS'judithlee'
p643
I31
sS'swept'
p644
I31
sS'backtrack'
p645
I31
sS'w/'
p646
I30
sS'woulda'
p647
I31
sS'theirs'
p648
I31
sS'grandpas'
p649
I31
sS',91007\n414658460538908673,pkdestorya,2013-12-22'
p650
I31
sS'seat'
p651
I31
sS'see'
p652
I24
sS'dumb'
p653
I30
sS'are'
p654
I23
sS'robby'
p655
I31
sS'close'
p656
I31
sS'though>>>>'
p657
I31
sS'arm'
p658
I31
sS'best'
p659
I30
sS'wonder'
p660
I31
sS'closer'
p661
I31
sS'pictureslol'
p662
I31
sS'practice'
p663
I31
sS'said'
p664
I30
sS'lots'
p665
I31
sS'movie'
p666
I30
sS'wow'
p667
I31
sS'mommed'
p668
I31
sS'quality'
p669
I31
sS'finally'
p670
I31
sS'worship'
p671
I31
sS"lissette's"
p672
I31
sS'3'
p673
I31
sS'sweat'
p674
I31
sS'between'
p675
I31
sS'rite'
p676
I31
sS'steelers'
p677
I31
sS'fight'
p678
I31
sS'we'
p679
I21
sS'omg'
p680
I29
sS'exam'
p681
I31
sS'messed'
p682
I31
sS'spring'
p683
I31
sS'jacobs'
p684
I31
sS'(snake'
p685
I31
sS'halloween'
p686
I31
sS'job'
p687
I31
sS'joc'
p688
I31
sS'armenian'
p689
I31
sS'wtf'
p690
I30
sS'hurts'
p691
I31
sS'cousin'
p692
I29
sS'10%'
p693
I31
sS'come'
p694
I29
sS'legit'
p695
I31
sS'21'
p696
I31
sS'cop'
p697
I30
sS'c'
p698
I31
sS'accident'
p699
I30
sS'last'
p700
I29
sS'aloe'
p701
I31
sS'many'
p702
I30
sS'ill'
p703
I31
sS'la'
p704
I31
sS'millionaire'
p705
I31
sS'shindig'
p706
I31
sS"'would"
p707
I31
sS'april'
p708
I31
sS'faces'
p709
I31
sS'hillier'
p710
I31
sS'share'
p711
I31
sS'retweets'
p712
I31
sS"can't"
p713
I31
sS'joe'
p714
I31
sS'prospect'
p715
I31
sS'wear'
p716
I31
sS'spoil'
p717
I31
sS'drunk'
p718
I31
sS'listening'
p719
I31
sS'forgot'
p720
I31
sS'running'
p721
I31
sS'monte....hahaha'
p722
I31
sS'likes'
p723
I31
sS'away'
p724
I31
sS'tony'
p725
I31
sS"dipeppe's)"
p726
I29
sS'trust'
p727
I31
sS'dropped"'
p728
I31
sS'sunday'
p729
I31
sS'arts'
p730
I31
sS'>>>'
p731
I31
sS"it's"
p732
I22
sS'vacation'
p733
I31
sS'been'
p734
I29
sS'teacher'
p735
I31
sS'much'
p736
I28
sS'damn'
p737
I30
sS'fappy'
p738
I31
sS'lovely'
p739
I31
sS'okaaaaay'
p740
I31
sS'woke'
p741
I31
sS'wants'
p742
I31
sS'mike'
p743
I30
sS'gay'
p744
I30
sS'turned'
p745
I31
sS'face'
p746
I31
sS'sunshine'
p747
I31
sS'gas'
p748
I31
sS'andrew'
p749
I30
sS'ariana'
p750
I31
sS'else'
p751
I31
sS'mom,91007\n465545831047639040,muybu3no,2014-05-11'
p752
I31
sS'worsham'
p753
I31
sS'chili'
p754
I31
sS'despite'
p755
I31
sS'2006'
p756
I31
sS'those'
p757
I30
sS'dude"'
p758
I31
sS'rav'
p759
I31
sS'myself'
p760
I30
sS'wins'
p761
I31
sS'casa'
p762
I31
sS'look'
p763
I31
sS'being'
p764
I31
sS'these'
p765
I30
sS'tunas'
p766
I29
sS'cvs'
p767
I30
sS'n'
p768
I31
sS'will'
p769
I30
sS'ugly'
p770
I31
sS'while'
p771
I31
sS'kick'
p772
I31
sS'b-day'
p773
I31
sS'hahaha'
p774
I29
sS'fun'
p775
I31
sS'hehe'
p776
I31
sS'mound'
p777
I31
sS'voice'
p778
I31
sS'k'
p779
I31
sS'pack'
p780
I31
sS'person"'
p781
I31
sS'swim'
p782
I31
sS'cigs'
p783
I31
sS'age'
p784
I31
sS'<3'
p785
I29
sS'order'
p786
I31
sS'arcadian'
p787
I31
sS'is'
p788
I12
sS'sushi'
p789
I30
sS'coffee'
p790
I30
sS'sustenance'
p791
I31
sS'middle'
p792
I31
sS'cant'
p793
I28
sS'someone'
p794
I31
sS'im'
p795
I27
sS'in'
p796
I9
sS'ready'
p797
I30
sS'"look'
p798
I31
sS'stye'
p799
I31
sS'technology'
p800
I31
sS'lecture'
p801
I31
sS'if'
p802
I23
sS'grown'
p803
I31
sS'tattoo'
p804
I30
sS'different'
p805
I31
sS'(39'
p806
I31
sS'let'
p807
I31
sS'anymore'
p808
I30
sS'nike'
p809
I30
sS'saw'
p810
I31
sS'make'
p811
I30
sS'rt<3,91007\n477684058353192960,chelsterzzz,2014-06-14'
p812
I31
sS'reminded'
p813
I31
sS'cat,91006\n480567077359480832,areohseekayy,2014-06-22'
p814
I31
sS'same'
p815
I30
sS'check'
p816
I31
sS'food'
p817
I31
sS'potentially'
p818
I31
sS'kimoni'
p819
I30
sS'"i'
p820
I31
sS'party'
p821
I30
sS'america.\xe2\x80\x9d'
p822
I31
sS'cotton'
p823
I31
sS'week'
p824
I28
sS'used'
p825
I29
sS'pho'
p826
I31
sS'assigns'
p827
I31
sS'hopefully'
p828
I31
sS'lie'
p829
I31
sS'pick'
p830
I31
sS'hang'
p831
I30
sS'yesterday'
p832
I31
sS'arcadia)'
p833
I30
sS'little\xe2\x80\xa6'
p834
I31
sS'moment'
p835
I31
sS'misho'
p836
I31
sS'1960s)'
p837
I31
sS'characters'
p838
I31
sS'jealous'
p839
I31
sS'whale'
p840
I31
sS'weird'
p841
I31
sS'keep'
p842
I31
sS'jjp'
p843
I31
sS'braaaain,91007\n503625768216584192,destinyreneeee,2014-08-24'
p844
I31
sS'off'
p845
I29
sS'sweets'
p846
I31
sS'i'
p847
I1
sS'ziad'
p848
I31
sS'homerun'
p849
I31
sS'fighting'
p850
I31
sS'double'
p851
I31
sS'tho'
p852
I29
sS'person'
p853
I29
sS'cheer'
p854
I31
sS'1'
p855
I31
sS'mother'
p856
I30
sS'hearts'
p857
I31
sS'the'
p858
I2
sS'bog'
p859
I31
sS'drivers'
p860
I29
sS'dads'
p861
I31
sS'left'
p862
I31
sS'summer'
p863
I30
sS'alvin'
p864
I31
sS'kiss'
p865
I31
sS'just'
p866
I19
sS'ya'
p867
I31
sS'money'
p868
I29
sS'unfollow'
p869
I30
sS'not'
p870
I23
sS'thanks'
p871
I28
sS'^_^'
p872
I31
sS'electrician'
p873
I31
sS'speed'
p874
I31
sS'happiness'
p875
I31
sS'previous'
p876
I31
sS'move'
p877
I31
sS'hush'
p878
I31
sS'thinking'
p879
I31
sS'hated'
p880
I31
sS'point'
p881
I31
sS'had'
p882
I28
sS'cuz'
p883
I29
sS'declined'
p884
I31
sS'18:45:14.0,34.105746,-118.0484051,4316,my'
p885
I31
sS'lets'
p886
I30
sS'other'
p887
I31
sS'crying'
p888
I31
sS'crack'
p889
I31
sS'snap'
p890
I31
sS'role'
p891
I31
sS'deschanel'
p892
I31
sS'joke'
p893
I31
sS'city'
p894
I31
sS'nate'
p895
I31
sS'real'
p896
I30
sS'2014-2015'
p897
I31
sS'big'
p898
I29
sS"who's"
p899
I30
sS'gonna'
p900
I27
sS'early'
p901
I31
sS',91007\n421775311387111424,alvarez12george,2014-01-10'
p902
I31
sS'game'
p903
I31
sS'know'
p904
I26
sS'mom'
p905
I26
sS'performance'
p906
I31
sS'searched'
p907
I31
sS'fools'
p908
I31
sS'dreams'
p909
I31
sS'rocky'
p910
I31
sS'cp3'
p911
I31
sS'instead'
p912
I31
sS'like'
p913
I22
sS'hahha'
p914
I31
sS'wingstop'
p915
I31
sS'pollo'
p916
I31
sS'56'
p917
I31
sS'19:20:45.0,34.1070368,-118.03132083,4316,going'
p918
I31
sS'unnecessary'
p919
I31
sS'background'
p920
I31
sS'talkin'
p921
I31
sS'true'
p922
I31
sS'night'
p923
I27
sS'popular'
p924
I31
sS'works'
p925
I31
sS"so...you're"
p926
I31
sS'"g.i'
p927
I31
sS'clap'
p928
I31
sS'soccer'
p929
I31
sS'right'
p930
I23
sS'people'
p931
I26
sS'absolutely'
p932
I31
sS'charlie'
p933
I31
sS'fathers'
p934
I31
sS'confused'
p935
I31
sS'some'
p936
I28
sS'back'
p937
I27
sS'alive'
p938
I31
sS'hair'
p939
I29
sS'hereee'
p940
I31
sS'17:35:50.0,34.1057035,-118.048458,4316,mike'
p941
I31
sS'roamed'
p942
I31
sS';d'
p943
I31
sS'meess'
p944
I31
sS'home'
p945
I29
sS'blonde'
p946
I31
sS',91007\n473196409789759488,muybu3no,2014-06-01'
p947
I31
sS'mood'
p948
I31
sS'for'
p949
I14
sS"blessing'"
p950
I31
sS'literally'
p951
I31
sS'ducks'
p952
I31
sS'pros'
p953
I31
sS'ice'
p954
I31
sS'everything'
p955
I31
sS'does'
p956
I31
sS'iso'
p957
I31
sS'ahahahah'
p958
I31
sS'3:30'
p959
I30
sS'christmas'
p960
I30
sS'baldwin'
p961
I31
sS'be'
p962
I17
sS'bf'
p963
I31
sS'who'
p964
I27
sS'murderer'
p965
I31
sS'bold'
p966
I31
sS'ced'
p967
I31
sS'lmfao'
p968
I31
sS'papa'
p969
I31
sS'each'
p970
I31
sS'sprung'
p971
I31
sS'refused'
p972
I31
sS'hung'
p973
I31
sS'"w"'
p974
I31
sS'"once'
p975
I31
sS'ksskkskdkd'
p976
I31
sS'terrified'
p977
I31
sS'lottery'
p978
I31
sS'pitchers'
p979
I31
sS'raider'
p980
I31
sS'by'
p981
I30
sS'mrxsw'
p982
I31
sS'on'
p983
I10
sS'about'
p984
I29
sS'punny'
p985
I31
sS'ok'
p986
I31
sS'(arcadia'
p987
I29
sS'anything'
p988
I31
sS'getting'
p989
I27
sS'of'
p990
I11
sS'marc'
p991
I31
sS'favorite'
p992
I31
sS'page'
p993
I31
sS'day.me'
p994
I31
sS'gabage,91007\n465599775039975424,muybu3no,2014-05-11'
p995
I31
sS'dinner'
p996
I28
sS'swear'
p997
I31
sS'afternoon'
p998
I31
sS'blonde...smh'
p999
I31
sS'stepbrother'
p1000
I31
sS'wanna'
p1001
I29
sS'or'
p1002
I27
sS'peak'
p1003
I31
sS'facetime'
p1004
I31
sS'owl'
p1005
I31
sS'ladies'
p1006
I30
sS'own'
p1007
I30
sS'noticed'
p1008
I31
sS'owe'
p1009
I31
sS'visit'
p1010
I31
sS'into'
p1011
I31
sS'snapchat'
p1012
I31
sS'three'
p1013
I31
sS'down'
p1014
I29
sS'nigga'
p1015
I30
sS'promise'
p1016
I31
sS'gracegoo'
p1017
I31
sS'your'
p1018
I23
sS'technically'
p1019
I31
sS'meeee'
p1020
I31
sS'ahahah'
p1021
I29
sS'her'
p1022
I26
sS'\xe2\x80\x9ci'
p1023
I31
sS'weekend'
p1024
I31
sS'there'
p1025
I28
sS'live'
p1026
I31
sS'long'
p1027
I30
sS'why'
p1028
I22
sS'stuck'
p1029
I31
sS'quakes'
p1030
I31
sS'plz'
p1031
I31
sS"we're"
p1032
I31
sS'way'
p1033
I28
sS'kang'
p1034
I31
sS'rode'
p1035
I31
sS'was'
p1036
I23
sS'twitter'
p1037
I31
sS'happy'
p1038
I26
sS'head'
p1039
I31
sS"filharmonic's"
p1040
I31
sS'north'
p1041
I31
sS'lounge)'
p1042
I31
sS'gorgeous'
p1043
I31
sS'sickest'
p1044
I31
sS'but'
p1045
I22
sS'lino'
p1046
I31
sS'reminds'
p1047
I31
sS'awee'
p1048
I31
sS'dutched'
p1049
I31
sS'uncle'
p1050
I31
sS'stepmoms'
p1051
I31
sS'trying'
p1052
I29
sS'with'
p1053
I15
sS'he'
p1054
I29
sS'count'
p1055
I31
sS"they're"
p1056
I30
sS'throw'
p1057
I30
sS'made'
p1058
I30
sS'places'
p1059
I31
sS'dog'
p1060
I31
sS'inside'
p1061
I31
sS'bucket'
p1062
I31
sS'up'
p1063
I21
sS'us'
p1064
I27
sS'ur'
p1065
I28
sS'excitement'
p1066
I31
sS'record'
p1067
I31
sS'21:22:09.0,34.1057002,-118.0484272,4316,blake'
p1068
I31
sS'catching'
p1069
I31
sS'uh'
p1070
I31
sS'bes\xe2\x80\x9d'
p1071
I31
sS'warmer'
p1072
I31
sS'called'
p1073
I29
sS'eyes)'
p1074
I31
sS'delete'
p1075
I31
sS'horses'
p1076
I31
sS'proud'
p1077
I31
sS'af'
p1078
I29
sS'"being'
p1079
I31
sS'year'
p1080
I31
sS'am'
p1081
I27
sS'life'
p1082
I27
sS'cleats'
p1083
I31
sS'an'
p1084
I29
sS'hamg'
p1085
I31
sS'as'
p1086
I29
sS'haaha'
p1087
I31
sS'at'
p1088
I13
sS'ink'
p1089
I30
sS'batting'
p1090
I31
sS'doe'
p1091
I31
sS'\xee\x90\x84\xee\x90\x84'
p1092
I31
sS'happen'
p1093
I31
sS'shit'
p1094
I27
sS'jesse'
p1095
I31
sS'stylist'
p1096
I31
sS'again'
p1097
I31
sS'dooottt'
p1098
I31
sS'maybe'
p1099
I31
sS'no'
p1100
I26
sS'nah'
p1101
I30
sS"song'"
p1102
I31
sS'when'
p1103
I23
sS'misha'
p1104
I31
sS'40'
p1105
I31
sS'saturday'
p1106
I31
sS'nick'
p1107
I30
sS'wiener'
p1108
I31
sS'setting'
p1109
I31
sS'5'
p1110
I30
sS'delights'
p1111
I31
sS'holding'
p1112
I31
sS'test'
p1113
I31
sS'mass'
p1114
I31
sS'you'
p1115
I7
sS'out'
p1116
I18
sS"what's"
p1117
I31
sS'realize'
p1118
I31
sS'nice'
p1119
I31
sS'picture'
p1120
I30
sS'crushin'
p1121
I31
sS'cab'
p1122
I31
sS'welcome'
p1123
I30
sS'reached'
p1124
I31
sS'goo'
p1125
I31
sS'diet'
p1126
I31
sS"let's"
p1127
I31
sS'dvr'
p1128
I31
sS'meaning'
p1129
I31
sS'fries'
p1130
I31
sS'serious'
p1131
I31
sS'chris'
p1132
I31
sS'hurt'
p1133
I31
sS'friends'
p1134
I26
sS'pool'
p1135
I31
sS'goin'
p1136
I30
sS'ago'
p1137
I29
sS'younger'
p1138
I31
sS'land'
p1139
I31
sS'intercourse'
p1140
I31
sS'calls'
p1141
I30
sS'love\xe2\x80\x9d'
p1142
I31
sS'back"'
p1143
I31
sS'proposed'
p1144
I31
sS'bottom'
p1145
I31
sS'earthquake'
p1146
I31
sS'together'
p1147
I30
sS'dr'
p1148
I31
sS'u'
p1149
I30
sS'scare'
p1150
I31
sS'time'
p1151
I27
sS'world,91007\n473195561991303168,muybu3no,2014-06-01'
p1152
I31
sS'wooohoooo'
p1153
I31
sS'surprised'
p1154
I31
sS'resolution'
p1155
I31
sS"cousins'"
p1156
I31
sS'songs'
p1157
I31
s.