(dp0
S''
p1
I4
sS'all'
p2
I35
sS'lacc'
p3
I40
sS':)'
p4
I40
sS'chinese'
p5
I40
sS'melts'
p6
I40
sS'beware'
p7
I40
sS'month'
p8
I40
sS'four'
p9
I40
sS'fargo)'
p10
I29
sS'coach'
p11
I40
sS'sleep'
p12
I40
sS'bandits'
p13
I40
sS'go'
p14
I29
sS'mill'
p15
I40
sS'hate'
p16
I39
sS'milk'
p17
I40
sS'hmmm'
p18
I40
sS'guess\xe2\x80\xa6'
p19
I40
sS'21st'
p20
I40
sS'apartment'
p21
I40
sS'huynh'
p22
I40
sS'tweet'
p23
I40
sS'father'
p24
I40
sS'send'
p25
I40
sS'charles'
p26
I40
sS'to'
p27
I7
sS'finally'
p28
I40
sS'tj'
p29
I40
sS'under'
p30
I39
sS'tf'
p31
I40
sS'rob'
p32
I40
sS'ihy'
p33
I40
sS'fly'
p34
I40
sS'stocked'
p35
I40
sS':o'
p36
I40
sS'7'
p37
I40
sS'song'
p38
I40
sS'deli'
p39
I40
sS'away)full'
p40
I40
sS'fav'
p41
I40
sS'wushu'
p42
I39
sS'every'
p43
I40
sS'casa'
p44
I40
sS':p'
p45
I40
sS'minute'
p46
I40
sS'cool'
p47
I40
sS'school'
p48
I37
sS'washing'
p49
I39
sS'did'
p50
I40
sS'michael'
p51
I39
sS'brother'
p52
I37
sS'christmas'
p53
I40
sS'try'
p54
I40
sS'gana'
p55
I40
sS'subway'
p56
I33
sS'team'
p57
I40
sS'5914'
p58
I40
sS'guy'
p59
I40
sS'cieto'
p60
I40
sS'round'
p61
I40
sS'diploma'
p62
I40
sS"it'll"
p63
I38
sS"i'll"
p64
I34
sS'ass'
p65
I40
sS'charter'
p66
I40
sS'regret'
p67
I40
sS'attic'
p68
I40
sS'phones'
p69
I40
sS'streets'
p70
I40
sS'past'
p71
I40
sS'burger'
p72
I40
sS'street'
p73
I40
sS'n'
p74
I40
sS'others)'
p75
I40
sS'drinks'
p76
I40
sS'even'
p77
I38
sS'what'
p78
I38
sS'(temple'
p79
I6
sS'christ'
p80
I40
sS'movies'
p81
I40
sS'giving'
p82
I40
sS'+'
p83
I39
sS'schedule'
p84
I40
sS'fucks'
p85
I40
sS'business'
p86
I40
sS'lights'
p87
I40
sS'abt'
p88
I40
sS'goes'
p89
I39
sS"geazy's"
p90
I40
sS'new'
p91
I31
sS'ever'
p92
I38
sS'azusa'
p93
I40
sS'body'
p94
I39
sS'full'
p95
I39
sS'christian'
p96
I39
sS"carl's"
p97
I27
sS'avery'
p98
I40
sS'never'
p99
I38
sS'(los'
p100
I40
sS'water'
p101
I39
sS'busy'
p102
I40
sS'let'
p103
I40
sS'address'
p104
I40
sS'alone'
p105
I40
sS"aren't"
p106
I39
sS'wait'
p107
I35
sS'box'
p108
I36
sS'great'
p109
I39
sS'kids'
p110
I39
sS'ahead'
p111
I40
sS'pose'
p112
I40
sS'shift'
p113
I40
sS'k'
p114
I38
sS'usps'
p115
I32
sS'step'
p116
I40
sS'vbs'
p117
I40
sS'ummm"'
p118
I40
sS'boo'
p119
I38
sS'action'
p120
I40
sS"i'm"
p121
I2
sS'changes'
p122
I40
sS'punishment'
p123
I40
sS'thats'
p124
I40
sS'ugh'
p125
I40
sS'love'
p126
I35
sS'family'
p127
I40
sS'win'
p128
I35
sS'put'
p129
I40
sS'fake'
p130
I40
sS';)'
p131
I40
sS'bfs'
p132
I40
sS'workhard44ss'
p133
I40
sS'from'
p134
I33
sS'would'
p135
I40
sS'&'
p136
I37
sS'positive'
p137
I40
sS'dude'
p138
I38
sS'two'
p139
I39
sS'next'
p140
I36
sS'ca)'
p141
I5
sS'call'
p142
I40
sS'chu'
p143
I39
sS'6'
p144
I40
sS'survive'
p145
I40
sS'tell'
p146
I40
sS'today'
p147
I36
sS'more'
p148
I39
sS'tryna'
p149
I39
sS'diamond'
p150
I40
sS'box)'
p151
I30
sS'knows'
p152
I40
sS'holy'
p153
I40
sS'grabbing'
p154
I40
sS'share'
p155
I40
sS'company'
p156
I40
sS'haha'
p157
I38
sS'sister'
p158
I38
sS'it'
p159
I25
sS'99'
p160
I30
sS'phone'
p161
I40
sS'festival'
p162
I40
sS'youvw'
p163
I40
sS'broke'
p164
I39
sS'baby'
p165
I36
sS'quickly)'
p166
I39
sS'pieces'
p167
I40
sS'must'
p168
I40
sS'me'
p169
I31
sS'rice'
p170
I40
sS'preschool)'
p171
I39
sS'3yr'
p172
I40
sS'this'
p173
I24
sS'car'
p174
I38
sS'looool'
p175
I40
sS'work'
p176
I37
sS'soul'
p177
I40
sS'believes'
p178
I40
sS'soup'
p179
I40
sS'del'
p180
I40
sS'can'
p181
I34
sS'v'
p182
I40
sS'growing'
p183
I40
sS'making'
p184
I40
sS'my'
p185
I8
sS'could'
p186
I40
sS'beautiful'
p187
I39
sS'heart'
p188
I36
sS'crazy'
p189
I40
sS'foodie'
p190
I40
sS'lock'
p191
I40
sS"didn't"
p192
I40
sS'rageeeeeee'
p193
I40
sS'high'
p194
I40
sS'heard'
p195
I39
sS'tag'
p196
I40
sS'niagara'
p197
I40
sS'something'
p198
I40
sS'want'
p199
I39
sS'blvd'
p200
I39
sS'keep'
p201
I38
sS'stole'
p202
I40
sS'rescue'
p203
I40
sS'skated'
p204
I40
sS'freckle'
p205
I40
sS'united'
p206
I40
sS'end'
p207
I39
sS'sit'
p208
I40
sS'vibe'
p209
I40
sS'watching'
p210
I38
sS'write'
p211
I40
sS'how'
p212
I37
sS'hot'
p213
I38
sS'drummer'
p214
I40
sS'camilla'
p215
I40
sS'animal'
p216
I40
sS'playfactory'
p217
I39
sS'instead'
p218
I40
sS'beach'
p219
I40
sS"doesn't"
p220
I40
sS'greatly'
p221
I40
sS'pink'
p222
I40
sS'laundry'
p223
I40
sS'tried'
p224
I40
sS'coworker'
p225
I40
sS'after'
p226
I35
sS'vacation'
p227
I40
sS'applications'
p228
I40
sS'wrong'
p229
I40
sS'birthday'
p230
I39
sS'adventure'
p231
I40
sS'numb'
p232
I40
sS'coming'
p233
I40
sS'court'
p234
I40
sS'law'
p235
I40
sS'las'
p236
I39
sS'a'
p237
I9
sS'joint'
p238
I40
sS'maybe'
p239
I40
sS'remedy'
p240
I40
sS'volleyball'
p241
I40
sS'tale'
p242
I40
sS'bakery'
p243
I37
sS'so'
p244
I26
sS'waitress'
p245
I40
sS'dream'
p246
I40
sS'balloon'
p247
I40
sS'talk'
p248
I40
sS'cute'
p249
I39
sS'summer!\xe2\x80\xa6'
p250
I40
sS'help'
p251
I40
sS'burn'
p252
I40
sS"don't"
p253
I37
sS'over'
p254
I37
sS'yuli'
p255
I40
sS"mcdonald's)"
p256
I35
sS'course'
p257
I40
sS'paper'
p258
I32
sS'through'
p259
I40
sS'looks'
p260
I40
sS'shake'
p261
I39
sS'smile.\xe2\x80\x9d'
p262
I40
sS'hell'
p263
I39
sS'still'
p264
I38
sS'mayor'
p265
I34
sS'brie'
p266
I40
sS'before'
p267
I40
sS'ima'
p268
I39
sS'style'
p269
I40
sS'group'
p270
I40
sS'thank'
p271
I40
sS'fit'
p272
I40
sS'the\xe2\x80\xa6'
p273
I40
sS'sale'
p274
I40
sS'amazing'
p275
I37
sS'[pic]'
p276
I40
sS'better'
p277
I39
sS'>>>'
p278
I40
sS'hump'
p279
I40
sS'gatorade'
p280
I40
sS'cracker'
p281
I40
sS'imy'
p282
I40
sS'bout'
p283
I39
sS'bye'
p284
I40
sS'hahaha'
p285
I40
sS"haven't"
p286
I40
sS'happened'
p287
I40
sS'dad'
p288
I40
sS'then'
p289
I40
sS'them'
p290
I36
sS'good'
p291
I35
sS'ya'
p292
I40
sS'nokia'
p293
I40
sS'versace'
p294
I38
sS'eat'
p295
I40
sS'lunch'
p296
I23
sS'touching'
p297
I40
sS'ax'
p298
I40
sS"you've"
p299
I40
sS'they'
p300
I39
sS'not'
p301
I36
sS'now'
p302
I35
sS'day'
p303
I31
sS'bank'
p304
I38
sS'bread'
p305
I40
sS'screamed'
p306
I40
sS'week/'
p307
I40
sS'fantasy'
p308
I40
sS'always'
p309
I37
sS'10pc'
p310
I40
sS'alexis'
p311
I40
sS'filling'
p312
I40
sS'joeanne'
p313
I40
sS'gamblin'
p314
I40
sS'frickin'
p315
I40
sS'found'
p316
I40
sS'went'
p317
I39
sS'em'
p318
I40
sS'status'
p319
I40
sS'r'
p320
I40
sS'everyone'
p321
I40
sS'favorite'
p322
I40
sS'skynyrd'
p323
I40
sS'doing'
p324
I40
sS'house'
p325
I39
sS'combust'
p326
I40
sS'books'
p327
I38
sS'expect'
p328
I40
sS'year'
p329
I40
sS'our'
p330
I40
sS'blues'
p331
I40
sS'drug\xe2\x9d\xa4\xef\xb8\x8f'
p332
I40
sS'saturday'
p333
I39
sS'out'
p334
I34
sS'rt'
p335
I39
sS"america's"
p336
I40
sS'missed'
p337
I39
sS'driving'
p338
I39
sS'space'
p339
I39
sS'coincidentally'
p340
I40
sS'god'
p341
I40
sS'trainers'
p342
I40
sS'looking'
p343
I38
sS'toy\xe2\x80\xa6'
p344
I40
sS'stupid'
p345
I40
sS"'em"
p346
I40
sS'stud'
p347
I40
sS'internet'
p348
I40
sS'fargo'
p349
I18
sS'got'
p350
I29
sS'rn'
p351
I40
sS'cause'
p352
I38
sS'5918'
p353
I40
sS'navidad'
p354
I40
sS'earlier'
p355
I40
sS'pathetic'
p356
I40
sS'city'
p357
I1
sS'hang'
p358
I40
sS'bitches'
p359
I40
sS'friday'
p360
I40
sS'guess'
p361
I40
sS'm&m'
p362
I38
sS'completely'
p363
I40
sS'floorsets'
p364
I40
sS'brightest'
p365
I40
sS'ask'
p366
I40
sS'ash'
p367
I40
sS'craving'
p368
I40
sS'training'
p369
I40
sS'benefits'
p370
I40
sS'carnival'
p371
I39
sS'record'
p372
I40
sS'where'
p373
I40
sS'replaying'
p374
I40
sS'sicker'
p375
I39
sS'honest'
p376
I39
sS'thing'
p377
I40
sS'chicken'
p378
I40
sS'heck'
p379
I40
sS'place'
p380
I37
sS'eatting'
p381
I40
sS'clothes'
p382
I38
sS'(at'
p383
I35
sS'think'
p384
I35
sS'fuckin'
p385
I40
sS'first'
p386
I39
sS'already'
p387
I39
sS'saving'
p388
I40
sS'dont'
p389
I40
sS'feel'
p390
I36
sS'number'
p391
I39
sS'welcome'
p392
I40
sS'one'
p393
I35
sS'shopped'
p394
I40
sS'village)'
p395
I40
sS'city)'
p396
I31
sS'done'
p397
I39
sS'lol'
p398
I20
sS'another'
p399
I40
sS'such'
p400
I40
sS'mcflurry'
p401
I40
sS'open'
p402
I38
sS'tomorrow'
p403
I40
sS'hood'
p404
I40
sS"you're"
p405
I38
sS'little'
p406
I38
sS'quality'
p407
I40
sS'needed'
p408
I39
sS'bears'
p409
I39
sS'totally'
p410
I40
sS'top'
p411
I40
sS'kbbq'
p412
I40
sS'cartoon'
p413
I40
sS'anyone'
p414
I39
sS'their'
p415
I36
sS'wonderful'
p416
I40
sS'too'
p417
I37
sS'"jared'
p418
I40
sS'tom'
p419
I40
sS'white'
p420
I39
sS'man'
p421
I38
sS'store'
p422
I34
sS'listen'
p423
I40
sS'haves'
p424
I40
sS'eyes'
p425
I40
sS'muscles'
p426
I40
sS'stomach'
p427
I40
sS'lot'
p428
I39
sS'that'
p429
I19
sS'academy'
p430
I40
sS'gym'
p431
I40
sS'jamie'
p432
I39
sS'park'
p433
I36
sS'megan'
p434
I40
sS'mmmm'
p435
I40
sS'chair'
p436
I40
sS'tracking'
p437
I39
sS'grandpa'
p438
I40
sS'loving'
p439
I40
sS'copy'
p440
I40
sS'than'
p441
I39
sS'boyfriend'
p442
I40
sS'hundred'
p443
I40
sS'instagr.am/p/jtpj6'
p444
I40
sS'royal'
p445
I40
sS'ebay'
p446
I40
sS'recording'
p447
I40
sS'anaheim'
p448
I39
sS'future'
p449
I40
sS'silly'
p450
I40
sS'williams'
p451
I39
sS'were'
p452
I34
sS'thumb'
p453
I40
sS'toe'
p454
I40
sS'ousted'
p455
I34
sS'spurs'
p456
I40
sS'and'
p457
I11
sS'donegan'
p458
I40
sS'gif'
p459
I40
sS'54'
p460
I40
sS'mind'
p461
I40
sS'tonight'
p462
I33
sS'engrish'
p463
I40
sS'say'
p464
I37
sS'fitzjohn'
p465
I40
sS'graffiti'
p466
I39
sS"samantha's"
p467
I40
sS'have'
p468
I28
sS'need'
p469
I36
sS'seen'
p470
I40
sS'breakfast'
p471
I40
sS"bishara's"
p472
I40
sS'apparently'
p473
I40
sS'any'
p474
I40
sS'sell'
p475
I40
sS'maxx'
p476
I40
sS'once'
p477
I40
sS'lil'
p478
I39
sS"she'd"
p479
I40
sS'self'
p480
I40
sS'-'
p481
I20
sS'epl'
p482
I40
sS'parent\xe2\x80\xa6'
p483
I40
sS'omfg'
p484
I40
sS"nikki's"
p485
I40
sS'best'
p486
I36
sS'babes'
p487
I40
sS'lindo'
p488
I40
sS'destroy'
p489
I40
sS'='
p490
I39
sS'play'
p491
I39
sS'sure'
p492
I40
sS'pain'
p493
I40
sS'though'
p494
I39
sS'deli)'
p495
I40
sS'who'
p496
I37
sS'wells'
p497
I12
sS'netflix'
p498
I40
sS'most'
p499
I40
sS'lonnie'
p500
I40
sS'mouth'
p501
I40
sS'20$'
p502
I40
sS'plays'
p503
I40
sS'america'
p504
I38
sS'(9403'
p505
I39
sS'why'
p506
I39
sS'woooo'
p507
I40
sS'hypocrite'
p508
I40
sS'cleats'
p509
I40
sS'seafood'
p510
I39
sS'later'
p511
I39
sS'dog'
p512
I39
sS'emwy'
p513
I40
sS'playing'
p514
I40
sS'claudina'
p515
I40
sS"you'll"
p516
I40
sS'drunks'
p517
I40
sS'underarmour'
p518
I40
sS'dena'
p519
I40
sS'bff'
p520
I40
sS'came'
p521
I39
sS'shop'
p522
I40
sS'cooking'
p523
I40
sS'show'
p524
I39
sS'able'
p525
I40
sS'cheap'
p526
I40
sS'ciroc'
p527
I40
sS'discovered'
p528
I40
sS'radio'
p529
I40
sS'snack'
p530
I40
sS'earth'
p531
I40
sS'fear'
p532
I40
sS'longer'
p533
I40
sS'find'
p534
I37
sS'aint'
p535
I40
sS'list'
p536
I40
sS'ha'
p537
I38
sS'restaurant)'
p538
I40
sS'cafe)'
p539
I40
sS'5pc'
p540
I40
sS'should'
p541
I38
sS'to\xe2\x80\xa6'
p542
I39
sS'only'
p543
I40
sS'going'
p544
I38
sS'colby'
p545
I40
sS'pretty'
p546
I40
sS'subway)'
p547
I29
sS'california)'
p548
I40
sS'twins'
p549
I40
sS'moses'
p550
I40
sS'posted'
p551
I39
sS'armour'
p552
I40
sS'hope'
p553
I38
sS'wearing'
p554
I39
sS'do'
p555
I37
sS'his'
p556
I38
sS'asians'
p557
I40
sS'urspace'
p558
I40
sS'get'
p559
I22
sS'beat'
p560
I40
sS'yee'
p561
I40
sS'rock'
p562
I40
sS'watch'
p563
I39
sS'legs'
p564
I40
sS'truly'
p565
I40
sS'mandarin'
p566
I39
sS'feels'
p567
I39
sS'12'
p568
I40
sS'fastest'
p569
I40
sS'\xe7\xbe\x8e\xe5\x91\xb3\xe3\x81\x97\xe3\x81\x9d\xe3\x81\x86\xef\xbc\x81'
p570
I40
sS'supplies'
p571
I40
sS'dr'
p572
I39
sS'him'
p573
I39
sS'sweet'
p574
I40
sS'qq'
p575
I40
sS'bar'
p576
I40
sS'lighter'
p577
I40
sS"doesn't\xe2\x80\xa6"
p578
I40
sS'illini'
p579
I40
sS'ughh'
p580
I40
sS'eyebrow'
p581
I40
sS'morning'
p582
I40
sS'banking'
p583
I39
sS'16-0'
p584
I40
sS'bae'
p585
I40
sS'she'
p586
I37
sS'grilled'
p587
I40
sS'grab'
p588
I40
sS'discovery'
p589
I40
sS'11am'
p590
I40
sS'steam'
p591
I40
sS'village'
p592
I40
sS'ignored'
p593
I40
sS'set'
p594
I39
sS'concert'
p595
I40
sS'w/'
p596
I40
sS'92805'
p597
I40
sS'lynyrd'
p598
I40
sS'flip'
p599
I40
sS'see'
p600
I40
sS'num'
p601
I40
sS'dumb'
p602
I40
sS'are'
p603
I34
sS'weird'
p604
I40
sS'noodles'
p605
I40
sS'violates'
p606
I40
sS'packed'
p607
I38
sS'closer'
p608
I40
sS'mario'
p609
I40
sS'said'
p610
I39
sS"tomorrow's"
p611
I40
sS'stuck'
p612
I40
sS'jumped'
p613
I40
sS'away'
p614
I36
sS'missing'
p615
I40
sS'please'
p616
I38
sS'door...(run'
p617
I40
sS'its'
p618
I39
sS'favor'
p619
I40
sS'3'
p620
I40
sS'"ok'
p621
I40
sS'pets'
p622
I38
sS'hopefully'
p623
I40
sS'contraband'
p624
I38
sS'burned'
p625
I40
sS'nope'
p626
I40
sS'across'
p627
I40
sS'supposed'
p628
I40
sS'jewelers)'
p629
I40
sS'we'
p630
I34
sS'omg'
p631
I38
sS'amen'
p632
I39
sS'sold'
p633
I40
sS'actuarial'
p634
I40
sS'jr'
p635
I27
sS'killing'
p636
I39
sS'job'
p637
I39
sS'here'
p638
I40
sS'wtf'
p639
I39
sS'jk'
p640
I40
sS'news'
p641
I40
sS'picking'
p642
I40
sS'come'
p643
I39
sS'legit'
p644
I40
sS'david'
p645
I40
sS'league'
p646
I39
sS'goddess'
p647
I40
sS'thing.\xe2\x80\xa6'
p648
I40
sS'last'
p649
I39
sS'aloe'
p650
I40
sS'country'
p651
I40
sS"wouldn't"
p652
I40
sS'jasperchavez34\xe2\x80\xa6'
p653
I40
sS's'
p654
I40
sS'gamer'
p655
I40
sS'baseball'
p656
I40
sS'passing'
p657
I39
sS'whole'
p658
I40
sS'finds'
p659
I40
sS"can't"
p660
I36
sS'wear'
p661
I40
sS'pre'
p662
I40
sS'liked'
p663
I40
sS'tough'
p664
I40
sS'study'
p665
I40
sS'point'
p666
I40
sS'elf'
p667
I39
sS'ca'
p668
I37
sS'each'
p669
I40
sS'walk'
p670
I40
sS'lex'
p671
I40
sS'church'
p672
I39
sS'kings'
p673
I40
sS':p\xe2\x80\xa6'
p674
I40
sS'flowers'
p675
I40
sS'sunday'
p676
I40
sS'late'
p677
I39
sS'unusual'
p678
I40
sS'naps'
p679
I40
sS'howard'
p680
I40
sS"it's"
p681
I30
sS':/'
p682
I40
sS'three'
p683
I40
sS'been'
p684
I38
sS'quickly'
p685
I37
sS'much'
p686
I38
sS'damn'
p687
I39
sS'feliz'
p688
I40
sS'proposal'
p689
I40
sS'waste'
p690
I39
sS'riley'
p691
I40
sS'attractive'
p692
I40
sS'wants'
p693
I40
sS'life'
p694
I40
sS'both'
p695
I40
sS'fire'
p696
I40
sS'am'
p697
I37
sS'face'
p698
I40
sS'photos'
p699
I40
sS'phpne'
p700
I40
sS'bible'
p701
I40
sS'-.-'
p702
I40
sS'child'
p703
I40
sS'minutes......."'
p704
I40
sS'rocking'
p705
I39
sS'homes'
p706
I40
sS'myself'
p707
I40
sS'cutie'
p708
I40
sS'tank'
p709
I40
sS'look'
p710
I39
sS'these'
p711
I38
sS'tunas'
p712
I39
sS'cash'
p713
I40
sS'squeezes'
p714
I40
sS'will'
p715
I39
sS'ugly'
p716
I40
sS'while'
p717
I37
sS'joke'
p718
I40
sS'fun'
p719
I33
sS'bemis'
p720
I40
sS'gave'
p721
I40
sS'cock'
p722
I40
sS'robin'
p723
I39
sS'chilling'
p724
I40
sS"cousin's"
p725
I40
sS'ive'
p726
I40
sS'threaded'
p727
I40
sS'is'
p728
I16
sS'sushi'
p729
I25
sS'coffee'
p730
I36
sS'rip'
p731
I40
sS'lolol'
p732
I40
sS'demos'
p733
I40
sS'someone'
p734
I38
sS'im'
p735
I40
sS'in'
p736
I10
sS'ready'
p737
I36
sS'bucks'
p738
I40
sS'protein'
p739
I40
sS'id'
p740
I40
sS'if'
p741
I38
sS'funny'
p742
I38
sS'intense'
p743
I40
sS'bottles'
p744
I40
sS'shirt'
p745
I40
sS'anymore'
p746
I40
sS'pay'
p747
I40
sS'make'
p748
I38
sS'dimes'
p749
I40
sS"heart'"
p750
I40
sS'same'
p751
I37
sS'fading'
p752
I40
sS'food'
p753
I40
sS'speaker'
p754
I40
sS'bands'
p755
I40
sS'party'
p756
I39
sS'witnessed'
p757
I40
sS'week'
p758
I39
sS'finish'
p759
I40
sS'aineem'
p760
I40
sS'cheeseball'
p761
I40
sS'pick'
p762
I39
sS'munch'
p763
I40
sS'yesterday'
p764
I39
sS'barber'
p765
I40
sS'spitting'
p766
I40
sS'yours'
p767
I40
sS'june/july'
p768
I40
sS'chateau'
p769
I40
sS'kid'
p770
I40
sS'live\xe2\x80\xa6'
p771
I40
sS'noodle'
p772
I39
sS'off'
p773
I36
sS'records'
p774
I40
sS'i'
p775
I2
sS'popeyes'
p776
I40
sS'random'
p777
I40
sS'miss'
p778
I40
sS'well'
p779
I34
sS'asked'
p780
I40
sS'cheer'
p781
I40
sS'rey'
p782
I40
sS'wooo'
p783
I40
sS'diet"'
p784
I40
sS'the'
p785
I1
sS'spend'
p786
I39
sS'left'
p787
I39
sS'summer'
p788
I38
sS'underdog'
p789
I40
sS'listening'
p790
I40
sS'just'
p791
I25
sS'being'
p792
I40
sS'photo'
p793
I38
sS'sister-in-law'
p794
I40
sS'cheddar'
p795
I40
sS'cloverleaf'
p796
I37
sS'yes'
p797
I39
sS'reality'
p798
I40
sS'twig'
p799
I40
sS'bit'
p800
I40
sS'ham'
p801
I40
sS'roses'
p802
I40
sS'officially'
p803
I40
sS'practice'
p804
I40
sS'drive'
p805
I40
sS'had'
p806
I37
sS'realize'
p807
I40
sS'pasadena'
p808
I40
sS'parents'
p809
I40
sS'preschool'
p810
I39
sS'crying'
p811
I40
sS';\xe2\x80\xa6'
p812
I38
sS'snap'
p813
I39
sS'has'
p814
I38
sS'hat'
p815
I39
sS'excited'
p816
I39
sS'smart'
p817
I40
sS'take'
p818
I37
sS'real'
p819
I39
sS'drink'
p820
I40
sS'starving'
p821
I40
sS'victims'
p822
I40
sS'around'
p823
I39
sS'fye'
p824
I40
sS'ama'
p825
I40
sS'big'
p826
I39
sS'couple'
p827
I40
sS'gonna'
p828
I32
sS'game'
p829
I34
sS'know'
p830
I33
sS'mom'
p831
I38
sS'everton'
p832
I40
sS'taking'
p833
I40
sS'part'
p834
I40
sS'disappointed'
p835
I40
sS'store)'
p836
I35
sS'loss'
p837
I40
sS'puppy'
p838
I39
sS'necessary'
p839
I40
sS'like'
p840
I26
sS'lost'
p841
I40
sS'rides'
p842
I39
sS'bpm'
p843
I40
sS'honestly'
p844
I40
sS'champ'
p845
I40
sS'steph'
p846
I40
sS'kopitar'
p847
I40
sS'steps'
p848
I40
sS'nose'
p849
I40
sS'night'
p850
I36
sS'kitchen)'
p851
I40
sS'hangout'
p852
I40
sS'fuckkk'
p853
I40
sS'amendment'
p854
I40
sS'right'
p855
I34
sS'old'
p856
I37
sS'parade'
p857
I40
sS'grub'
p858
I37
sS'people'
p859
I36
sS'twitter'
p860
I40
sS'lodging'
p861
I40
sS'some'
p862
I20
sS'back'
p863
I36
sS'\xe2\x9d\x95\xe2\x9d\x95\xe2\x9d\x95'
p864
I40
sS'oh'
p865
I40
sS'learn'
p866
I40
sS'band'
p867
I40
sS'proper'
p868
I40
sS'home'
p869
I37
sS'leanin'
p870
I39
sS'friend'
p871
I39
sS'for'
p872
I22
sS'bootycall'
p873
I40
sS'literally'
p874
I40
sS'moon'
p875
I40
sS'everything'
p876
I40
sS'woohoo'
p877
I40
sS'pets)'
p878
I40
sS'beating'
p879
I40
sS'snapchatter'
p880
I40
sS'temple'
p881
I13
sS'nuggets'
p882
I39
sS'be'
p883
I29
sS'blowing'
p884
I40
sS'run'
p885
I39
sS'power'
p886
I40
sS'bc'
p887
I39
sS'whatcha'
p888
I38
sS'\xe2\x98\xba\xef\xb8\x8f'
p889
I40
sS'santa'
p890
I40
sS'served'
p891
I40
sS'graduated'
p892
I40
sS'yay'
p893
I40
sS'post'
p894
I39
sS'falls'
p895
I40
sS'super'
p896
I37
sS'by'
p897
I39
sS'on'
p898
I20
sS'about'
p899
I37
sS"j's"
p900
I40
sS'ok'
p901
I39
sS'working'
p902
I40
sS'anything'
p903
I40
sS'getting'
p904
I37
sS'0.o'
p905
I40
sS'of'
p906
I15
sS"mcdonald's"
p907
I36
sS'angeles'
p908
I40
sS'dinner'
p909
I23
sS'swear'
p910
I39
sS"avery's"
p911
I40
sS'idk'
p912
I40
sS'stoked'
p913
I40
sS'decent'
p914
I40
sS'wrenching'
p915
I40
sS'frustrating'
p916
I40
sS'buchanans'
p917
I40
sS'or'
p918
I36
sS'road'
p919
I40
sS'ppl'
p920
I40
sS'into'
p921
I40
sS'due'
p922
I40
sS'down'
p923
I37
sS'thankful'
p924
I38
sS'momma'
p925
I40
sS'nigga'
p926
I38
sS'promise'
p927
I40
sS'cent'
p928
I30
sS'knee'
p929
I40
sS'couldnt'
p930
I40
sS'your'
p931
I28
sS'fck'
p932
I40
sS'her'
p933
I38
sS'extremely'
p934
I40
sS'there'
p935
I38
sS'gift'
p936
I40
sS'long'
p937
I36
sS'approved'
p938
I40
sS'start'
p939
I40
sS"we're"
p940
I39
sS'way'
p941
I38
sS'bruh'
p942
I39
sS'biggest'
p943
I40
sS'was'
p944
I37
sS'athlete'
p945
I40
sS'happy'
p946
I37
sS'mountains'
p947
I40
sS'head'
p948
I40
sS'buy'
p949
I39
sS"i've"
p950
I40
sS'brand'
p951
I40
sS'bite'
p952
I40
sS'santas'
p953
I40
sS'but'
p954
I30
sS'slums'
p955
I40
sS'boys'
p956
I38
sS'aww'
p957
I40
sS'library'
p958
I40
sS'trying'
p959
I39
sS'with'
p960
I21
sS'shaolin'
p961
I40
sS'he'
p962
I37
sS"they're"
p963
I40
sS'lady'
p964
I40
sS'stanford'
p965
I40
sS"wasn't"
p966
I40
sS'wish'
p967
I40
sS'up'
p968
I35
sS'us'
p969
I35
sS'ur'
p970
I40
sS'strawberry'
p971
I39
sS'cruel'
p972
I40
sS'limit'
p973
I40
sS'calf'
p974
I40
sS'site'
p975
I40
sS'1745'
p976
I40
sS'daddy'
p977
I39
sS'ua'
p978
I40
sS"ryan's"
p979
I40
sS'skating'
p980
I40
sS'ac'
p981
I40
sS'camp'
p982
I40
sS'money'
p983
I39
sS'blockheads'
p984
I40
sS'videos'
p985
I40
sS'classic'
p986
I40
sS'taste'
p987
I40
sS'toss'
p988
I40
sS'forgot'
p989
I40
sS'91780'
p990
I39
sS'styrofoam'
p991
I40
sS'an'
p992
I38
sS'as'
p993
I28
sS'at'
p994
I3
sS'aw'
p995
I40
sS'tea'
p996
I40
sS'suckaaaaaaaas'
p997
I40
sS'annoying'
p998
I38
sS'trip'
p999
I40
sS'shit'
p1000
I38
sS'again'
p1001
I35
sS'rough'
p1002
I40
sS'beyond'
p1003
I40
sS'jesus'
p1004
I40
sS'aunts'
p1005
I40
sS'no'
p1006
I35
sS'peace'
p1007
I40
sS'when'
p1008
I31
sS'ep'
p1009
I40
sS'til'
p1010
I40
sS'tim'
p1011
I39
sS'season'
p1012
I40
sS'other'
p1013
I40
sS'dm'
p1014
I40
sS'lifestyle'
p1015
I40
sS'mass'
p1016
I40
sS'you'
p1017
I14
sS'really'
p1018
I39
sS'words'
p1019
I40
sS'shows'
p1020
I40
sS'nice'
p1021
I40
sS'explaining'
p1022
I40
sS'star'
p1023
I40
sS'xanax'
p1024
I40
sS'shredded'
p1025
I40
sS'class'
p1026
I40
sS'football'
p1027
I40
sS'danielles'
p1028
I40
sS"let's"
p1029
I39
sS'bonding'
p1030
I40
sS'accomplish'
p1031
I40
sS'track'
p1032
I40
sS'friends'
p1033
I40
sS'goin'
p1034
I40
sS'wonton'
p1035
I40
sS'booked'
p1036
I40
sS'laundromat'
p1037
I40
sS'lead'
p1038
I40
sS'yummmmm'
p1039
I40
sS'odds'
p1040
I40
sS'youtube'
p1041
I40
sS'fest'
p1042
I40
sS'together'
p1043
I40
sS'original'
p1044
I40
sS'jacket'
p1045
I40
sS'asap'
p1046
I40
sS'u'
p1047
I39
sS'time'
p1048
I17
sS'8th'
p1049
I40
sS'sometimes'
p1050
I40
sS'having'
p1051
I36
sS'songs'
p1052
I38
s.