(dp0
S''
p1
I1
sS'secondly'
p2
I105
sS'duro'
p3
I105
sS'msgs'
p4
I104
sS'child'
p5
I105
sS'monte'
p6
I59
sS'pepinos'
p7
I105
sS'four'
p8
I104
sS'gag'
p9
I105
sS'it,91731\n487675246749564928,muybu3no,2014-07-11'
p10
I105
sS'sleep'
p11
I78
sS'asian'
p12
I99
sS'hanging'
p13
I102
sS'tfios'
p14
I105
sS'francesca'
p15
I105
sS'captain'
p16
I105
sS'hate'
p17
I57
sS'forget'
p18
I105
sS'whose'
p19
I105
sS'swag'
p20
I104
sS'feeding'
p21
I105
sS'up)'
p22
I105
sS'paris'
p23
I104
sS'tweet'
p24
I100
sS'lies,91731\n447249999437365249,muybu3no,2014-03-22'
p25
I105
sS'floor.\xe2\x80\x9d'
p26
I105
sS'bike'
p27
I104
sS'under'
p28
I105
sS'lord'
p29
I103
sS'sorry'
p30
I96
sS'"am'
p31
I105
sS'ilysm'
p32
I99
sS'winfrey'
p33
I105
sS'(4901'
p34
I104
sS'rescue'
p35
I105
sS'"babygirl"'
p36
I105
sS'blanket'
p37
I104
sS'smack'
p38
I105
sS'every'
p39
I87
sS'updates'
p40
I105
sS'blasters'
p41
I105
sS'reforms'
p42
I105
sS'qt\xe2\x80\x9d'
p43
I105
sS'bringing'
p44
I104
sS'"fear'
p45
I105
sS'flys'
p46
I105
sS'tickets'
p47
I105
sS'school'
p48
I54
sS'bestfriend'
p49
I104
sS'skills'
p50
I105
sS'wednesday'
p51
I102
sS'carrie'
p52
I105
sS'josies'
p53
I105
sS'oooo'
p54
I104
sS'frozen'
p55
I105
sS'math'
p56
I94
sS'sounds*'
p57
I105
sS'obsess'
p58
I105
sS'ups'
p59
I104
sS'clothes'
p60
I102
sS'enjoy'
p61
I104
sS'lol,91732\n504422710387421185,silenteyes_,2014-08-27'
p62
I105
sS'sleeeeeep'
p63
I105
sS'tired'
p64
I86
sS'05:54:44.0,34.0924071,-118.0287547,4324.01,ucla'
p65
I105
sS'nigg'
p66
I105
sS'hating'
p67
I103
sS'bacon'
p68
I103
sS'horn'
p69
I105
sS'video/snaps'
p70
I105
sS'second'
p71
I100
sS'street'
p72
I104
sS'islands//'
p73
I105
sS'7th'
p74
I104
sS'dihh'
p75
I105
sS'chem'
p76
I103
sS'even'
p77
I59
sS'gratata'
p78
I105
sS'hide'
p79
I104
sS'freezin'
p80
I105
sS'ruben'
p81
I105
sS'saved'
p82
I103
sS'+'
p83
I105
sS'cooking'
p84
I104
sS'revolves'
p85
I105
sS'lights'
p86
I105
sS'bipolar'
p87
I105
sS'pin'
p88
I105
sS'new'
p89
I78
sS'tips'
p90
I105
sS'ever'
p91
I79
sS'disney'
p92
I99
sS'told'
p93
I88
sS'meg'
p94
I105
sS'culo'
p95
I105
sS'integrated'
p96
I105
sS'zach'
p97
I105
sS'donalds'
p98
I104
sS'seventh'
p99
I105
sS'never'
p100
I63
sS'mei'
p101
I105
sS'meh'
p102
I104
sS'here'
p103
I75
sS'hundreds'
p104
I105
sS'\xe2\x9d\xa4\xef\xb8\x8f\xe2\x9d\xa4\xef\xb8\x8f\xe2\x9d\xa4\xef\xb8\x8f\xe2\x9d\xa4\xef\xb8\x8f'
p105
I105
sS'\xe2\x9d\xa4\xef\xb8\x8f'
p106
I76
sS'underclassman'
p107
I105
sS'dora'
p108
I105
sS'stares'
p109
I105
sS"aren't"
p110
I103
sS'106'
p111
I105
sS'mozzarella'
p112
I105
sS'arroyo'
p113
I77
sS'celebration'
p114
I105
sS'gerry'
p115
I88
sS'kids'
p116
I97
sS'hunting'
p117
I105
sS'alchemist'
p118
I105
sS'k'
p119
I96
sS'changed'
p120
I105
sS'pi'
p121
I105
sS'bro'
p122
I105
sS'ignoring'
p123
I105
sS'itunes'
p124
I105
sS"i'd"
p125
I100
sS'cop,91731\n490195103508484096,muybu3no,2014-07-18'
p126
I105
sS'meaann'
p127
I105
sS'smoke'
p128
I104
sS'stressed'
p129
I103
sS'\xe2\x9c\x94\xef\xb8\x8f'
p130
I104
sS'california'
p131
I105
sS'aka'
p132
I99
sS"someone's"
p133
I104
sS'changes'
p134
I104
sS'kxjxjdjdjf'
p135
I105
sS'eyebrows'
p136
I104
sS'swearing'
p137
I105
sS'time...""be'
p138
I105
sS'besides'
p139
I105
sS'stray'
p140
I105
sS'split'
p141
I105
sS'julie'
p142
I104
sS'graders'
p143
I105
sS'feelings'
p144
I105
sS'brought'
p145
I103
sS'hahahahah'
p146
I105
sS'>:)'
p147
I105
sS'diiiiiiick'
p148
I105
sS'insta'
p149
I105
sS"hol'"
p150
I104
sS'hablas'
p151
I105
sS'counts'
p152
I104
sS'txt'
p153
I105
sS'brb'
p154
I105
sS'hoping'
p155
I104
sS'charge'
p156
I105
sS',91731\n378935368466182144,torrzz_,2013-09-14'
p157
I105
sS'would'
p158
I75
sS'met'
p159
I105
sS'hospital'
p160
I104
sS'motivate'
p161
I105
sS'shutup,91731\n489901208111292417,muybu3no,2014-07-17'
p162
I105
sS'arms'
p163
I105
sS'princess'
p164
I103
sS'chargers'
p165
I104
sS'call'
p166
I94
sS'therefore'
p167
I104
sS'uhmmm'
p168
I105
sS'roshes'
p169
I105
sS'calc'
p170
I103
sS'type'
p171
I101
sS'until'
p172
I101
sS'lightyear'
p173
I105
sS'nyquil'
p174
I105
sS'speaking'
p175
I105
sS'holy'
p176
I99
sS'relax'
p177
I105
sS'oscar'
p178
I104
sS'haha'
p179
I57
sS'underwear'
p180
I105
sS'award'
p181
I105
sS'hurt'
p182
I98
sS'phone'
p183
I96
sS'off"'
p184
I105
sS'taller'
p185
I105
sS'varsity'
p186
I104
sS'gorgeous"'
p187
I105
sS'hole'
p188
I103
sS'hold'
p189
I105
sS'immature'
p190
I104
sS'hola'
p191
I105
sS'must'
p192
I102
sS'shoot'
p193
I103
sS'enjoying'
p194
I105
sS'ma'
p195
I102
sS'room'
p196
I95
sS'mc'
p197
I101
sS'skipping'
p198
I105
sS'1998'
p199
I105
sS'mo'
p200
I105
sS'work'
p201
I90
sS'mi'
p202
I103
sS'worm'
p203
I105
sS'roof'
p204
I104
sS'worth'
p205
I100
sS'movies'
p206
I101
sS'cuddle'
p207
I102
sS'ms'
p208
I105
sS'mr'
p209
I100
sS'crackers'
p210
I105
sS'my'
p211
I4
sS'example'
p212
I105
sS'piercings'
p213
I105
sS'excuses'
p214
I105
sS'scars'
p215
I105
sS'give'
p216
I87
sS'"love'
p217
I105
sS'honey'
p218
I105
sS'\xe2\x99\xa5\xe2\x99\xa5\xe2\x99\xa5'
p219
I105
sS'homie'
p220
I103
sS'want'
p221
I31
sS'freshen'
p222
I105
sS'keep'
p223
I91
sS'attract'
p224
I105
sS'risk'
p225
I105
sS'fingered'
p226
I105
sS'ones'
p227
I105
sS'hoe'
p228
I103
sS'end'
p229
I96
sS'skyler'
p230
I104
sS'thing'
p231
I89
sS'complaining'
p232
I103
sS'travel'
p233
I105
sS'sitting'
p234
I98
sS'nuts'
p235
I105
sS'fullmetal'
p236
I105
sS'zo\xc3\xab'
p237
I105
sS'machine'
p238
I104
sS'how'
p239
I53
sS'hot'
p240
I89
sS'keel'
p241
I105
sS'answer'
p242
I103
sS'beach'
p243
I96
sS'daanyaal'
p244
I105
sS'pizza'
p245
I98
sS'bombbb'
p246
I104
sS'elizabeth'
p247
I105
sS'beauty'
p248
I104
sS'funny'
p249
I91
sS'mess'
p250
I103
sS"try's"
p251
I105
sS'after'
p252
I78
sS'lab'
p253
I105
sS'customs'
p254
I105
sS'wrong'
p255
I101
sS'jumping'
p256
I105
sS'lay'
p257
I104
sS'nate'
p258
I105
sS'chill\xe2\x80\x9d'
p259
I105
sS'dumbo'
p260
I105
sS'law'
p261
I104
sS'lesbian'
p262
I105
sS'"point'
p263
I105
sS'shaw'
p264
I105
sS'proactive...""no'
p265
I105
sS'danny'
p266
I104
sS'shat'
p267
I105
sS'third'
p268
I105
sS'chillen'
p269
I105
sS'noooo'
p270
I105
sS'l0l0l0l0l0l0'
p271
I105
sS'sliced'
p272
I105
sS'!!!!-.-'
p273
I105
sS'gn\xe2\x9d\xa4\xef\xb8\x8f'
p274
I105
sS'wink'
p275
I104
sS'18th'
p276
I105
sS'green'
p277
I105
sS'leggings'
p278
I105
sS'1000'
p279
I105
sS'wing'
p280
I103
sS'wind'
p281
I105
sS'today"'
p282
I105
sS'school)'
p283
I97
sS'sleep."'
p284
I105
sS'office'
p285
I104
sS'wut'
p286
I103
sS'welcomed'
p287
I105
sS'over'
p288
I66
sS'fam'
p289
I105
sS'facial'
p290
I105
sS'tayler'
p291
I105
sS'down*'
p292
I105
sS'1-10'
p293
I105
sS'ma\xc3\xb1ana'
p294
I104
sS'toady'
p295
I105
sS'before'
p296
I87
sS'ima'
p297
I91
sS'jersey'
p298
I105
sS'fit'
p299
I103
sS'personal'
p300
I104
sS'bd\xe2\x80\x9d'
p301
I105
sS'backpack'
p302
I104
sS'haaaaaafta'
p303
I105
sS'avocado'
p304
I105
sS'vida"'
p305
I105
sS'writing'
p306
I105
sS'better'
p307
I77
sS'tilts'
p308
I105
sS'd\xc3\xadas'
p309
I105
sS'imy'
p310
I101
sS'weeks'
p311
I102
sS'easier'
p312
I104
sS'belly'
p313
I105
sS'then'
p314
I79
sS'them'
p315
I78
sS'woken'
p316
I104
sS'talkng'
p317
I105
sS'lambert'
p318
I104
sS'weakness'
p319
I105
sS'workout'
p320
I99
sS'safe'
p321
I105
sS"we'll"
p322
I102
sS'scene'
p323
I105
sS'break'
p324
I101
sS'band'
p325
I104
sS'roommate'
p326
I104
sS'sentimental'
p327
I105
sS'owned'
p328
I105
sS'they'
p329
I67
sS':(('
p330
I105
sS'schools'
p331
I105
sS'yourself'
p332
I104
sS'alex'
p333
I100
sS'22:35:24.0,34.0923518,-118.0261906,4324.01,lakers'
p334
I105
sS'cards\xe2\x80\x9d'
p335
I105
sS'lorena'
p336
I103
sS'crunchy'
p337
I105
sS'ewwww'
p338
I103
sS'l'
p339
I105
sS':///'
p340
I105
sS'choir'
p341
I103
sS'filling'
p342
I105
sS'dullavin'
p343
I105
sS'each'
p344
I103
sS'addicted'
p345
I104
sS'went'
p346
I88
sS'side'
p347
I104
sS'$56'
p348
I105
sS'mean'
p349
I90
sS"22:19:35.0,34.0918213,-118.02109927,4324.01,it's"
p350
I105
sS'snakes'
p351
I105
sS'diana'
p352
I103
sS'laying'
p353
I105
sS'spider'
p354
I105
sS'vote'
p355
I103
sS'dawg'
p356
I101
sS'forgot'
p357
I95
sS'ghosts'
p358
I105
sS'saturday'
p359
I94
sS'rt'
p360
I81
sS'large'
p361
I105
sS'anarchy\xe2\x80\x9d'
p362
I105
sS'network'
p363
I105
sS'driving'
p364
I101
sS'boozer'
p365
I105
sS'god'
p366
I94
sS'chokers'
p367
I105
sS'hooked'
p368
I104
sS'laid'
p369
I105
sS'me!!!\xe2\x9d\xa4\xe2\x9c\xa8'
p370
I105
sS'ihop'
p371
I104
sS'smh'
p372
I94
sS'got'
p373
I57
sS'rn'
p374
I55
sS'gov'
p375
I105
sS'day"'
p376
I105
sS'kkkkkkkk'
p377
I105
sS'asleep'
p378
I97
sS'dennys'
p379
I105
sS'cutest'
p380
I105
sS"you're"
p381
I82
sS'tops'
p382
I105
sS'faster\xe2\x80\x9d'
p383
I105
sS'free'
p384
I100
sS'struggle'
p385
I102
sS'hoodie'
p386
I105
sS'tacobell'
p387
I105
sS'wanted'
p388
I90
sS'ate'
p389
I104
sS'created'
p390
I105
sS'starts'
p391
I102
sS'days'
p392
I90
sS'outfits'
p393
I105
sS"today's"
p394
I101
sS'signature'
p395
I105
sS'uses'
p396
I105
sS'gay\xe2\x99\xa1\xe2\x80\x9d'
p397
I105
sS'(at'
p398
I105
sS'maggie'
p399
I105
sS'already'
p400
I64
sS'too"'
p401
I105
sS'lol\xe2\x80\x9d'
p402
I105
sS'>>'
p403
I104
sS'unfollowed'
p404
I105
sS'grade'
p405
I99
sS'accent'
p406
I105
sS'picture.*'
p407
I105
sS'hearing'
p408
I104
sS'hook'
p409
I105
sS'kfc'
p410
I105
sS'another'
p411
I101
sS'sober'
p412
I105
sS',91731\n504386194646368256,icameallover,2014-08-26'
p413
I105
sS'thick'
p414
I103
sS'blunts'
p415
I105
sS',91731\n507648219858206720,icameallover,2014-09-04'
p416
I105
sS'bonita'
p417
I105
sS'haaha'
p418
I105
sS'dogg'
p419
I105
sS'top'
p420
I103
sS'ruuuuude'
p421
I105
sS'girls'
p422
I93
sS'vagina'
p423
I105
sS'elevator'
p424
I105
sS'mobbin'
p425
I105
sS'needed'
p426
I105
sS'jamba'
p427
I105
sS'lynnette'
p428
I105
sS'dumbass'
p429
I105
sS'too'
p430
I61
sS'miller'
p431
I105
sS'legs'
p432
I103
sS'bitter'
p433
I104
sS'listen'
p434
I102
sS'butter'
p435
I105
sS'hangout'
p436
I105
sS'wienerschnitzel)'
p437
I104
sS'happily'
p438
I105
sS'took'
p439
I101
sS'trippy'
p440
I105
sS'wisdom'
p441
I104
sS'encinita'
p442
I105
sS'motivates'
p443
I105
sS'jshhvshydbhv'
p444
I105
sS'somewhat'
p445
I105
sS'wasted'
p446
I104
sS'begins'
p447
I105
sS'anxiety'
p448
I105
sS'hahahahahahahah'
p449
I105
sS'target'
p450
I104
sS'showed'
p451
I105
sS'5:30'
p452
I105
sS'exorcist'
p453
I105
sS"mother's"
p454
I105
sS'tree'
p455
I105
sS'me?"can'
p456
I105
sS'shower'
p457
I98
sS'matter'
p458
I104
sS'classes'
p459
I102
sS'friend'
p460
I99
sS'notecards'
p461
I105
sS'knights'
p462
I105
sS'feeling'
p463
I86
sS'summer.\xe2\x80\x9d'
p464
I105
sS'minus'
p465
I105
sS'rad'
p466
I104
sS'fashion'
p467
I104
sS'sees'
p468
I105
sS'palace'
p469
I105
sS'big\xe2\x80\x9d'
p470
I105
sS'ran'
p471
I105
sS'portraits'
p472
I105
sS'ruckus'
p473
I105
sS'mind'
p474
I95
sS'mine'
p475
I101
sS'anybody'
p476
I104
sS'talking'
p477
I84
sS'x)'
p478
I105
sS'good"'
p479
I105
sS'seen'
p480
I99
sS'seem'
p481
I104
sS'mins'
p482
I100
sS'queeeee'
p483
I105
sS'tells'
p484
I103
sS'>>>><<<<'
p485
I105
sS'strength'
p486
I105
sS'driving"'
p487
I105
sS'burgers'
p488
I105
sS'maaaaaan'
p489
I105
sS'-'
p490
I89
sS'snow'
p491
I104
sS'investment'
p492
I105
sS'chest'
p493
I104
sS"arroyo's"
p494
I104
sS'wnthoasap'
p495
I105
sS'paintballing'
p496
I105
sS'reals'
p497
I105
sS'quarterback'
p498
I105
sS'circles'
p499
I105
sS'blue'
p500
I101
sS'blue,91732\n504422813546328065,silenteyes_,2014-08-27'
p501
I105
sS'exactly'
p502
I105
sS'though'
p503
I102
sS'-jfk'
p504
I105
sS'doin'
p505
I105
sS'13:50:32.0,34.09200922,-118.02562652,4324.01,packed'
p506
I105
sS'victoria'
p507
I105
sS'poker'
p508
I105
sS'y'
p509
I92
sS'"i'
p510
I105
sS'regular'
p511
I104
sS'germany'
p512
I104
sS'marie'
p513
I105
sS'that!"'
p514
I105
sS'animes'
p515
I105
sS'xpress)'
p516
I102
sS'singer'
p517
I105
sS'episode'
p518
I104
sS'flor'
p519
I105
sS'alarm'
p520
I105
sS'm'
p521
I105
sS'dog'
p522
I104
sS'doe'
p523
I103
sS'freeway'
p524
I105
sS'definitely'
p525
I103
sS'b&w'
p526
I105
sS'*crack'
p527
I105
sS'entertaining'
p528
I105
sS'boyfriends'
p529
I105
sS'annoyed'
p530
I103
sS'came'
p531
I99
sS'00:09:58.0,34.091133,-118.016415,4324.01,my'
p532
I105
sS'saying'
p533
I101
sS'cheesey'
p534
I105
sS'bomb'
p535
I96
sS'lyrics'
p536
I105
sS'hunger'
p537
I104
sS'queen'
p538
I104
sS'aot'
p539
I105
sS'ending'
p540
I104
sS'actonyms'
p541
I105
sS'h8in'
p542
I105
sS'8)))'
p543
I105
sS'earth'
p544
I105
sS'probs'
p545
I104
sS'busy'
p546
I103
sS'rolley'
p547
I105
sS'100-1'
p548
I105
sS'peasants'
p549
I105
sS'enjoyable'
p550
I105
sS'life\xe2\x80\x9d'
p551
I105
sS'hrs'
p552
I105
sS'roses*'
p553
I105
sS'theme'
p554
I104
sS'version'
p555
I105
sS'about'
p556
I57
sS'rich'
p557
I104
sS'chipotle'
p558
I105
sS'titans'
p559
I105
sS'wearing'
p560
I102
sS'do'
p561
I36
sS'dl'
p562
I105
sS'dm'
p563
I105
sS'asians'
p564
I105
sS'balling?\xe2\x80\x9d'
p565
I105
sS'first....hmmmm'
p566
I105
sS'de'
p567
I99
sS'watch'
p568
I86
sS'da'
p569
I103
sS'pocket'
p570
I105
sS'wedding'
p571
I104
sS'nigguh'
p572
I104
sS'you!ahhi'
p573
I105
sS'nasty'
p574
I104
sS'lmao'
p575
I98
sS'runs'
p576
I104
sS'"obsession'
p577
I105
sS'bar'
p578
I103
sS'officially'
p579
I105
sS'emo'
p580
I104
sS'licking'
p581
I105
sS'bay'
p582
I103
sS'twice'
p583
I102
sS'bad'
p584
I68
sS'bae'
p585
I79
sS'fomie'
p586
I105
sS'shots'
p587
I105
sS'>>>>>>'
p588
I105
sS'headed'
p589
I105
sS'fair'
p590
I102
sS'habit'
p591
I104
sS'w/'
p592
I100
sS'messing'
p593
I105
sS'kroq'
p594
I105
sS'lol,91731\n487686949369417728,muybu3no,2014-07-11'
p595
I105
sS'goodnight'
p596
I103
sS'shutup'
p597
I105
sS'imissdexter'
p598
I105
sS'erika'
p599
I103
sS'fail'
p600
I103
sS'miserable'
p601
I105
sS'lysm.\xe2\x9d\xa4\xef\xb8\x8f'
p602
I105
sS'best'
p603
I82
sS'brazil'
p604
I105
sS'said'
p605
I88
sS'chins'
p606
I105
sS'mus'
p607
I105
sS'away'
p608
I97
sS'prince'
p609
I105
sS'future'
p610
I101
sS'irl'
p611
I105
sS'finger'
p612
I104
sS'hopefully'
p613
I102
sS'mum'
p614
I105
sS'events'
p615
I105
sS'babas'
p616
I105
sS'we'
p617
I60
sS'oomf'
p618
I99
sS'omg'
p619
I61
sS'omf'
p620
I105
sS'rims'
p621
I105
sS'2005\xc2\xa0'
p622
I105
sS'weak'
p623
I105
sS'equals'
p624
I105
sS"emily's"
p625
I105
sS'rivers'
p626
I105
sS'omw'
p627
I105
sS'wear'
p628
I100
sS'wtf'
p629
I81
sS'wth'
p630
I104
sS'news'
p631
I104
sS'omy'
p632
I105
sS're-clawed'
p633
I105
sS'received'
p634
I105
sS'goddess'
p635
I105
sS'tfti'
p636
I105
sS'brat'
p637
I105
sS'val\xc3\xa9'
p638
I104
sS'fault'
p639
I99
sS'ill'
p640
I100
sS'cup'
p641
I105
sS'adventures'
p642
I104
sS'against'
p643
I105
sS'una'
p644
I102
sS'games'
p645
I103
sS'lookin'
p646
I104
sS'receiver'
p647
I105
sS'x1234'
p648
I105
sS'jello'
p649
I105
sS'asked'
p650
I103
sS'lenses'
p651
I105
sS'ily'
p652
I101
sS'25+'
p653
I105
sS'eyesight'
p654
I105
sS'stupt'
p655
I105
sS'tough'
p656
I105
sS'character'
p657
I105
sS'xx8'
p658
I105
sS'2nd'
p659
I104
sS'i.d'
p660
I105
sS'canyon'
p661
I105
sS'con-artist'
p662
I105
sS'tony'
p663
I105
sS'blonde'
p664
I105
sS'trust'
p665
I105
sS'*12'
p666
I105
sS'100'
p667
I105
sS'speak'
p668
I105
sS'god?"'
p669
I105
sS'angel'
p670
I104
sS'asks'
p671
I103
sS'topical'
p672
I105
sS'binge'
p673
I105
sS'three'
p674
I104
sS'been'
p675
I65
sS'quickly'
p676
I104
sS'\xe2\x9d\x84\xef\xb8\x8f'
p677
I105
sS'beer'
p678
I103
sS'much'
p679
I56
sS'puta'
p680
I105
sS'cheli'
p681
I105
sS'basic'
p682
I105
sS'expected'
p683
I105
sS'puto'
p684
I104
sS'lovely'
p685
I104
sS'idol'
p686
I105
sS'stresses'
p687
I105
sS'life'
p688
I57
sS'yessssss'
p689
I104
sS'soooooo'
p690
I105
sS'relaxing'
p691
I105
sS'drugs'
p692
I105
sS'rock\xe2\x80\x9d'
p693
I105
sS'mce'
p694
I102
sS'sunshine'
p695
I104
sS'sooooo'
p696
I104
sS'bladder'
p697
I105
sS'ariana'
p698
I104
sS'chile'
p699
I105
sS'doubts'
p700
I105
sS'catch'
p701
I104
sS'travelball'
p702
I105
sS'chill'
p703
I98
sS'combos'
p704
I105
sS'tank'
p705
I103
sS'air'
p706
I104
sS'ugly'
p707
I88
sS'ugliest'
p708
I105
sS'teachers'
p709
I102
sS'voice'
p710
I103
sS'study'
p711
I104
sS'chilling'
p712
I105
sS'mistake'
p713
I105
sS'loooove'
p714
I104
sS'mexico'
p715
I104
sS'iq'
p716
I105
sS'is'
p717
I11
sS'sushi'
p718
I104
sS'it'
p719
I13
sS'v.v'
p720
I105
sS'iv'
p721
I105
sS'throat'
p722
I104
sS'cant'
p723
I99
sS'im'
p724
I66
sS'2048'
p725
I105
sS'in'
p726
I16
sS'conditioner'
p727
I105
sS'1-year'
p728
I105
sS'id'
p729
I94
sS'ig'
p730
I103
sS'if'
p731
I37
sS'babyyyyyy'
p732
I105
sS'hate.,91731\n504137328408166401,silenteyes_,2014-08-26'
p733
I105
sS'nike'
p734
I105
sS'things'
p735
I91
sS'make'
p736
I73
sS'lost,91731\n482347942854930433,muybu3no,2014-06-27'
p737
I105
sS'backed'
p738
I105
sS'patient'
p739
I105
sS'hahah'
p740
I104
sS'babies'
p741
I104
sS'visitations'
p742
I105
sS'lasagna'
p743
I103
sS',91732\n504428224387248128,silenteyes_,2014-08-27'
p744
I105
sS'couple'
p745
I103
sS'perff'
p746
I105
sS'independent'
p747
I105
sS'cindy'
p748
I105
sS'social'
p749
I103
sS'hang'
p750
I104
sS'rain'
p751
I102
sS'hand'
p752
I105
sS'kik'
p753
I105
sS'respond\xe2\x80\x9d'
p754
I105
sS'garlic'
p755
I105
sS'kim'
p756
I100
sS'pice'
p757
I105
sS"i'm"
p758
I8
sS'kid'
p759
I104
sS'mentioning'
p760
I105
sS'postponed'
p761
I105
sS'thx'
p762
I102
sS'00:19:05.0,34.091126,-118.0164342,4324.01,i'
p763
I105
sS'1975'
p764
I105
sS'congrats'
p765
I104
sS'suffering'
p766
I105
sS'punishment'
p767
I105
sS'tho'
p768
I93
sS'thn'
p769
I105
sS'contact'
p770
I104
sS'greatest'
p771
I104
sS'mother'
p772
I100
sS'thing"'
p773
I105
sS'the'
p774
I5
sS'yours'
p775
I104
sS'dads'
p776
I101
sS'left'
p777
I96
sS'snowman'
p778
I102
sS'lol,91732\n504420044840124416,silenteyes_,2014-08-27'
p779
I105
sS'just'
p780
I19
sS'yea'
p781
I90
sS'photo'
p782
I104
sS'unfollow'
p783
I105
sS'sleepy'
p784
I104
sS'quotes'
p785
I105
sS'grades'
p786
I104
sS'bugged'
p787
I105
sS'thanks'
p788
I85
sS'human'
p789
I103
sS'swears'
p790
I105
sS'yes'
p791
I92
sS'yet'
p792
I98
sS'previous'
p793
I105
sS'hah'
p794
I105
sS'chinga'
p795
I105
sS'unique'
p796
I105
sS'mlfrt'
p797
I104
sS'00:21:53.0,34.091126,-118.0164015,4324.01,i'
p798
I105
sS'guysreality:sweaty'
p799
I105
sS'photographer'
p800
I105
sS'had'
p801
I64
sS'hag'
p802
I105
sS'hay'
p803
I104
sS'shout'
p804
I105
sS'n'
p805
I99
sS'teenager'
p806
I104
sS'joss'
p807
I105
sS'duncan'
p808
I105
sS'har'
p809
I105
sS'has'
p810
I87
sS'hat'
p811
I105
sS'"db"'
p812
I105
sS'gaaaaaaaaaaaayyyyyy'
p813
I105
sS'gave'
p814
I101
sS'which'
p815
I105
sS'ops'
p816
I105
sS'3pt'
p817
I105
sS'possible'
p818
I104
sS'"let\'s'
p819
I105
sS'antojitos'
p820
I105
sS'61-28'
p821
I105
sS'judge'
p822
I105
sS'apart'
p823
I105
sS'burns'
p824
I104
sS'"to'
p825
I105
sS'mis'
p826
I105
sS'dreams'
p827
I104
sS'd'
p828
I104
sS'$4000'
p829
I105
sS'county'
p830
I104
sS'gift'
p831
I105
sS'texts'
p832
I105
sS'cooler'
p833
I105
sS'lily'
p834
I104
sS'nude'
p835
I104
sS'56'
p836
I105
sS'unnecessary'
p837
I105
sS'steph'
p838
I105
sS'specific'
p839
I105
sS'mosquito'
p840
I105
sS'night'
p841
I83
sS'5$'
p842
I105
sS'aaahh'
p843
I105
sS'1080093834549393933'
p844
I105
sS'toros'
p845
I104
sS'right'
p846
I78
sS'old'
p847
I100
sS'deal'
p848
I101
sS'people'
p849
I57
sS'sends'
p850
I105
sS'"that\'s'
p851
I105
sS'prbbly'
p852
I105
sS'idgaf'
p853
I104
sS'50'
p854
I105
sS'tajin'
p855
I105
sS'clubs'
p856
I105
sS'usher'
p857
I105
sS'escape'
p858
I105
sS'favoriting'
p859
I105
sS'creep'
p860
I104
sS'enemies'
p861
I105
sS'bannercrowd:awwwwwware'
p862
I105
sS'born'
p863
I105
sS'gosh'
p864
I105
sS'for'
p865
I17
sS'nothjng'
p866
I105
sS'notification'
p867
I105
sS'fox'
p868
I105
sS'ice'
p869
I101
sS'everything'
p870
I96
sS'asking'
p871
I105
sS'loins'
p872
I105
sS'umm'
p873
I103
sS'valentine"'
p874
I105
sS'foo'
p875
I103
sS'adorable'
p876
I103
sS'christmas'
p877
I104
sS'icu'
p878
I104
sS'peek'
p879
I105
sS'stalking'
p880
I104
sS'pls'
p881
I93
sS'00:20:59.0,34.091126,-118.0164015,4324.01,ugh'
p882
I105
sS'spider-man'
p883
I105
sS'burn'
p884
I102
sS'baaaaabe'
p885
I105
sS'plz'
p886
I97
sS'parle'
p887
I105
sS'cheating'
p888
I105
sS'graduated'
p889
I104
sS"id's"
p890
I105
sS'post'
p891
I103
sS'super'
p892
I100
sS'redownload'
p893
I105
sS'$76'
p894
I105
sS'eat'
p895
I93
sS'me\xe2\x80\x9d'
p896
I105
sS'months'
p897
I101
sS';-)'
p898
I105
sS'dinner'
p899
I98
sS'regretting'
p900
I105
sS'plus'
p901
I105
sS'anime'
p902
I104
sS'cherish'
p903
I105
sS'sweater'
p904
I105
sS":'((("
p905
I105
sS'facetime'
p906
I102
sS'thinner'
p907
I105
sS'ppg'
p908
I105
sS'lied'
p909
I103
sS'twitcon'
p910
I104
sS'pays'
p911
I105
sS'ahh'
p912
I104
sS'lanaros'
p913
I105
sS'soo'
p914
I100
sS'ppl'
p915
I95
sS'down'
p916
I76
sS'locator'
p917
I104
sS'beings'
p918
I105
sS'.500'
p919
I105
sS'wrap'
p920
I105
sS'eric/efren'
p921
I105
sS'cafeteria'
p922
I105
sS'cubicle'
p923
I105
sS'positive'
p924
I105
sS'daum'
p925
I105
sS'east'
p926
I105
sS'imig'
p927
I104
sS'wal'
p928
I105
sS'stereotype'
p929
I105
sS'cali'
p930
I104
sS'support'
p931
I103
sS'constantly'
p932
I105
sS'>>>>'
p933
I101
sS'lattes'
p934
I105
sS'fight'
p935
I103
sS'stuck'
p936
I100
sS'winning'
p937
I105
sS'way'
p938
I87
sS'benchwarmers'
p939
I105
sS'gio'
p940
I99
sS'music'
p941
I100
sS'avocados'
p942
I105
sS'wat'
p943
I105
sS'was'
p944
I27
sS'happy'
p945
I67
sS'starve'
p946
I105
sS'head'
p947
I89
sS'yolo'
p948
I105
sS'fireworks'
p949
I105
sS'nowwwww'
p950
I105
sS'spam'
p951
I105
sS'heat'
p952
I105
sS'hear'
p953
I98
sS'dead'
p954
I102
sS'fgts'
p955
I105
sS'hands*'
p956
I105
sS'jennifer'
p957
I105
sS'true'
p958
I100
sS'daaaaammmmm'
p959
I105
sS'congratulations'
p960
I103
sS'approves.\xe2\x80\x9d'
p961
I105
sS'happen'
p962
I100
sS'22:53:32.0,34.0941862,-118.022122,4324.01,its'
p963
I105
sS'heartwarming'
p964
I105
sS'inside'
p965
I104
sS'raspado'
p966
I105
sS'attached'
p967
I105
sS'anel'
p968
I105
sS'tell'
p969
I93
sS'r.i.p'
p970
I105
sS'nicest'
p971
I105
sS'aisha'
p972
I105
sS'smashed'
p973
I105
sS'hurt?,91732\n504423520026497024,silenteyes_,2014-08-27'
p974
I105
sS'daddy'
p975
I105
sS'belllaaaaas'
p976
I105
sS'delete'
p977
I103
sS'ughhhhhh'
p978
I105
sS'46k'
p979
I105
sS'proud'
p980
I102
sS'hotter'
p981
I105
sS'too>>>'
p982
I105
sS'minaj'
p983
I104
sS'stronger'
p984
I105
sS'trig'
p985
I105
sS'tournament'
p986
I104
sS'graff'
p987
I105
sS'drive'
p988
I105
sS'selfishness'
p989
I105
sS'exist'
p990
I105
sS'die"'
p991
I104
sS'awhile'
p992
I104
sS'annoying'
p993
I78
sS'"dam'
p994
I105
sS'check'
p995
I101
sS'shit'
p996
I72
sS'holla'
p997
I105
sS'dying'
p998
I97
sS'no'
p999
I44
sS'\xe2\x9b\xba\xef\xb8\x8f'
p1000
I105
sS'nd'
p1001
I103
sS'ne'
p1002
I105
sS'til'
p1003
I105
sS'tooooo'
p1004
I102
sS'5k+'
p1005
I105
sS'pajamas...hahaha'
p1006
I105
sS'holding'
p1007
I105
sS'brings'
p1008
I105
sS'test'
p1009
I102
sS'confusing'
p1010
I105
sS'smell'
p1011
I103
sS'roll'
p1012
I103
sS'classics/'
p1013
I105
sS'picture'
p1014
I95
sS'brothers'
p1015
I103
sS'surprise'
p1016
I104
sS'why'
p1017
I51
sS'welcome'
p1018
I103
sS'update'
p1019
I104
sS'subtweet'
p1020
I105
sS"let's"
p1021
I95
sS'giggin'
p1022
I105
sS'fell'
p1023
I104
sS'invested'
p1024
I105
sS'hahahahahah'
p1025
I105
sS'jocelyyyyyn'
p1026
I105
sS'pierced'
p1027
I105
sS'weekend'
p1028
I90
sS'senior'
p1029
I99
sS'died'
p1030
I102
sS'babysitting'
p1031
I105
sS'marrissa'
p1032
I105
sS'longer'
p1033
I103
sS'assume'
p1034
I105
sS'together'
p1035
I100
sS'jacket'
p1036
I104
sS'teeth'
p1037
I102
sS'"hit'
p1038
I105
sS'surprised'
p1039
I104
sS'stick'
p1040
I103
sS'camacho'
p1041
I105
sS':/'
p1042
I90
sS':('
p1043
I81
sS':)'
p1044
I102
sS'sandia'
p1045
I105
sS"erika's"
p1046
I104
sS'dance'
p1047
I101
sS'*minion'
p1048
I105
sS'voicemail/call'
p1049
I105
sS'focus'
p1050
I104
sS'x1000000000'
p1051
I105
sS'outsiders'
p1052
I105
sS'manager'
p1053
I105
sS'mile'
p1054
I105
sS'/'
p1055
I105
sS'grateful'
p1056
I105
sS'skin'
p1057
I105
sS'battle'
p1058
I105
sS'outta'
p1059
I105
sS'involved'
p1060
I105
sS':0'
p1061
I105
sS'ward'
p1062
I105
sS'ballet'
p1063
I105
sS'yummy'
p1064
I104
sS'marissa'
p1065
I105
sS"when's"
p1066
I105
sS'flash'
p1067
I104
sS'father'
p1068
I100
sS'ughhhhhhhh'
p1069
I105
sS'countdown'
p1070
I105
sS'0'
p1071
I103
sS'finally'
p1072
I95
sS'negativity'
p1073
I105
sS'lmaoo'
p1074
I105
sS"5'4"
p1075
I105
sS'screen'
p1076
I105
sS'raymond>nathaniel'
p1077
I105
sS':l'
p1078
I105
sS'me'
p1079
I6
sS'clothes<<<<'
p1080
I105
sS'19:20:15.0,34.0905991,-118.0148393,4324.01,im'
p1081
I105
sS':d'
p1082
I102
sS"good'"
p1083
I105
sS'brownie'
p1084
I105
sS':b'
p1085
I105
sS'tacos'
p1086
I104
sS'retouch'
p1087
I105
sS'lynch'
p1088
I105
sS'allowed'
p1089
I105
sS'kitten'
p1090
I104
sS'cook'
p1091
I104
sS'join'
p1092
I104
sS'trouble'
p1093
I105
sS'you\xe2\x9d\xa4\xef\xb8\x8f'
p1094
I105
sS'brows'
p1095
I105
sS'minute'
p1096
I103
sS'cool'
p1097
I94
sS'clouds'
p1098
I105
sS'divorced'
p1099
I105
sS'level'
p1100
I105
sS'did'
p1101
I88
sS'die'
p1102
I86
sS'dig'
p1103
I105
sS'posts'
p1104
I105
sS'brother'
p1105
I97
sS'turnt'
p1106
I105
sS'temple'
p1107
I105
sS'leave'
p1108
I99
sS'p'
p1109
I105
sS'soooo'
p1110
I99
sS'00:19:50.0,34.091126,-118.0164015,4324.01,im'
p1111
I105
sS'subway'
p1112
I105
sS'team'
p1113
I102
sS'fuuuck'
p1114
I105
sS'guy'
p1115
I90
sS'round'
p1116
I102
sS'yall'
p1117
I102
sS"it'll"
p1118
I102
sS'unexpected'
p1119
I105
sS'says'
p1120
I100
sS'fearing'
p1121
I105
sS'porn'
p1122
I104
sS'farted'
p1123
I104
sS'boca'
p1124
I105
sS'literature'
p1125
I105
sS'sign'
p1126
I104
sS'pissing'
p1127
I105
sS'shakes'
p1128
I105
sS'ocean'
p1129
I105
sS'shirts'
p1130
I105
sS'eating'
p1131
I103
sS'cuddly'
p1132
I105
sS'chicken'
p1133
I96
sS'drinks'
p1134
I104
sS'complimented'
p1135
I105
sS'stands'
p1136
I105
sS'often'
p1137
I105
sS'year,91731\n489892457673265152,muybu3no,2014-07-17'
p1138
I105
sS'lolz,91731\n484107566033563648,muybu3no,2014-07-01'
p1139
I105
sS'rocher'
p1140
I105
sS'(emma'
p1141
I105
sS'reunite'
p1142
I105
sS'shell'
p1143
I105
sS'sadies'
p1144
I104
sS'melo'
p1145
I105
sS'goes'
p1146
I100
sS'eaten'
p1147
I105
sS'reply'
p1148
I101
sS'falling'
p1149
I103
sS'sweaters'
p1150
I105
sS'foles'
p1151
I105
sS'azusa'
p1152
I104
sS'oldies'
p1153
I105
sS"mommy'"
p1154
I105
sS'makeup'
p1155
I103
sS'bromances'
p1156
I105
sS'paradas'
p1157
I105
sS'understanding'
p1158
I105
sS'water'
p1159
I99
sS'2:30'
p1160
I105
sS'entertain'
p1161
I104
sS'<<<<'
p1162
I102
sS'say"'
p1163
I105
sS'groups'
p1164
I105
sS'alone'
p1165
I92
sS'along'
p1166
I105
sS'teaches'
p1167
I105
sS'teacher'
p1168
I101
sS'change'
p1169
I97
sS'wait'
p1170
I86
sS'box'
p1171
I105
sS'boy'
p1172
I98
sS'yessss'
p1173
I105
sS'flames'
p1174
I100
sS'healthy'
p1175
I103
sS'studied'
p1176
I105
sS'step'
p1177
I104
sS'lakers'
p1178
I103
sS'bow'
p1179
I105
sS"eric's"
p1180
I105
sS'accomplished'
p1181
I104
sS'maclin'
p1182
I105
sS'aaaamazing'
p1183
I105
sS'boo'
p1184
I100
sS'hbu'
p1185
I104
sS'weird'
p1186
I92
sS'me/us'
p1187
I105
sS'pillow'
p1188
I104
sS'massage'
p1189
I104
sS'love'
p1190
I30
sS'hiking'
p1191
I105
sS'extra'
p1192
I103
sS'cheeseburger'
p1193
I105
sS'losing'
p1194
I103
sS'fake'
p1195
I96
sS'pony'
p1196
I105
sS'tuesday'
p1197
I102
sS'market'
p1198
I105
sS'siempre'
p1199
I105
sS'handled'
p1200
I105
sS'working'
p1201
I98
sS'baes'
p1202
I105
sS'aye'
p1203
I103
sS'easily.\xe2\x80\x9d'
p1204
I105
sS'angry'
p1205
I104
sS'wuuuuuuut'
p1206
I105
sS'dude'
p1207
I100
sS'iguey'
p1208
I105
sS'intense'
p1209
I104
sS'live'
p1210
I92
sS'iphone'
p1211
I103
sS'tan"...go'
p1212
I105
sS'msg'
p1213
I103
sS"celeste's"
p1214
I105
sS'thru'
p1215
I104
sS'angels'
p1216
I104
sS'today'
p1217
I46
sS'loving'
p1218
I103
sS'rios'
p1219
I105
sS'entrance'
p1220
I105
sS'sharing'
p1221
I105
sS'club'
p1222
I82
sS'cashier'
p1223
I104
sS'ooooooh'
p1224
I105
sS'chocolate'
p1225
I103
sS'kiwanis'
p1226
I105
sS'fixed'
p1227
I105
sS'everywhere'
p1228
I105
sS'virtue'
p1229
I105
sS'savior'
p1230
I105
sS'scratches'
p1231
I105
sS'\xe2\x9d\xa4\xef\xb8\x8f\xe2\x9d\xa4\xef\xb8\x8f'
p1232
I104
sS'blacker"'
p1233
I105
sS'effort'
p1234
I105
sS"flo's"
p1235
I104
sS'fly'
p1236
I104
sS'douche'
p1237
I105
sS'fosho'
p1238
I105
sS'niggas'
p1239
I103
sS'car'
p1240
I94
sS'yaaaayyyy?!!!!?!$28)3&:$'
p1241
I105
sS'pretend'
p1242
I105
sS'soul'
p1243
I103
sS'cat'
p1244
I104
sS'purge'
p1245
I102
sS'soup'
p1246
I105
sS'can'
p1247
I45
sS'cam'
p1248
I104
sS'cal'
p1249
I105
sS'following'
p1250
I105
sS'making'
p1251
I96
sS'trans'
p1252
I105
sS'bites'
p1253
I103
sS'7th-9th'
p1254
I105
sS'numbers'
p1255
I105
sS'heart'
p1256
I95
sS'crazy'
p1257
I87
sS'valentines'
p1258
I105
sS'figure'
p1259
I103
sS'mirrors'
p1260
I105
sS'kiddos'
p1261
I105
sS'december'
p1262
I105
sS'awesome'
p1263
I102
sS'sense'
p1264
I105
sS"didn't"
p1265
I84
sS'fuck'
p1266
I60
sS'heard'
p1267
I102
sS'gabby'
p1268
I105
sS'lorde'
p1269
I105
sS'ih8usm'
p1270
I105
sS'offense'
p1271
I104
sS'cardio'
p1272
I104
sS'6-10'
p1273
I105
sS'\xc2\xa4\xc3\xbe[\xc3\xa7-\xc2\xb1\xc2\xa9\xc2\xb2\xc3\xb8\xc2\xbb\xc2\xa5'
p1274
I105
sS'winter'
p1275
I105
sS'watching'
p1276
I93
sS'freezer'
p1277
I104
sS'gasol'
p1278
I105
sS'1'
p1279
I94
sS'till'
p1280
I94
sS'sunday'
p1281
I104
sS'actual'
p1282
I105
sS'calabicitas'
p1283
I105
sS'pins'
p1284
I104
sS'looses'
p1285
I105
sS'night\xe2\x80\x9d'
p1286
I105
sS'snaps'
p1287
I104
sS'"wut?"'
p1288
I105
sS'mat'
p1289
I105
sS'snooki'
p1290
I105
sS'may'
p1291
I102
sS'max'
p1292
I93
sS'spot'
p1293
I105
sS'00:12:40.0,34.091133,-118.016415,4324.01,im'
p1294
I105
sS'mac'
p1295
I103
sS'birthday'
p1296
I90
sS'*points'
p1297
I105
sS'mad'
p1298
I89
sS'date'
p1299
I98
sS'such'
p1300
I81
sS'suck'
p1301
I99
sS'guys'
p1302
I84
sS'grow'
p1303
I105
sS'man'
p1304
I93
sS'listener'
p1305
I105
sS'stress'
p1306
I104
sS'remember'
p1307
I92
sS'whenever'
p1308
I105
sS'maybe'
p1309
I96
sS'su'
p1310
I105
sS'q'
p1311
I105
sS'needy'
p1312
I105
sS'si'
p1313
I105
sS'hiiiiiiii'
p1314
I105
sS'so'
p1315
I11
sS'automatically'
p1316
I105
sS'sm'
p1317
I92
sS'"do'
p1318
I104
sS'sc'
p1319
I105
sS'tall'
p1320
I105
sS'sf'
p1321
I105
sS'talk'
p1322
I91
sS'cute'
p1323
I56
sS'breaking'
p1324
I105
sS'shoes'
p1325
I104
sS'feb'
p1326
I105
sS're-sign'
p1327
I105
sS'shaky'
p1328
I105
sS'wishing'
p1329
I102
sS'years'
p1330
I97
sS"mcdonald's)"
p1331
I105
sS'course'
p1332
I102
sS'episodes'
p1333
I105
sS'gross.,91732\n504421199343280128,silenteyes_,2014-08-27'
p1334
I105
sS'"which'
p1335
I105
sS'cold'
p1336
I99
sS'still'
p1337
I70
sS'pussy*'
p1338
I105
sS'llegando'
p1339
I105
sS'blocked'
p1340
I105
sS'dreading'
p1341
I105
sS'avid'
p1342
I104
sS'group'
p1343
I104
sS'thank'
p1344
I95
sS'curly'
p1345
I104
sS"he's"
p1346
I80
sS'\xe2\x9c\x94\xef\xb8\x8f\xe2\x9c\x94\xef\xb8\x8f\xe2\x9c\x94\xef\xb8\x8f\xe2\x9c\x94\xef\xb8\x8f'
p1347
I105
sS'interesting'
p1348
I105
sS'civic'
p1349
I105
sS'amazing'
p1350
I95
sS'fav/rt'
p1351
I105
sS'coaching'
p1352
I104
sS'according'
p1353
I105
sS'saxon'
p1354
I102
sS'joce'
p1355
I105
sS'tweets'
p1356
I101
sS'ours'
p1357
I105
sS'main'
p1358
I104
sS'sooooooooooooooooooooooooooooooooooooooooooooo'
p1359
I105
sS'selfie'
p1360
I83
sS'texas'
p1361
I105
sS'happened'
p1362
I101
sS'roses'
p1363
I105
sS'lonely'
p1364
I97
sS'stsrt'
p1365
I105
sS'moms'
p1366
I103
sS'conversations'
p1367
I104
sS"tonight's"
p1368
I105
sS'feelin'
p1369
I105
sS'lunch'
p1370
I103
sS'srsly'
p1371
I105
sS'touching'
p1372
I105
sS'morenita'
p1373
I105
sS'kkk'
p1374
I104
sS'half'
p1375
I100
sS'not'
p1376
I34
sS'moma'
p1377
I105
sS'now'
p1378
I45
sS'killed'
p1379
I105
sS'gavyn'
p1380
I105
sS'josh'
p1381
I105
sS'wont'
p1382
I104
sS'01:12:52.0,34.0911391,-118.0163684,4324.01,wish'
p1383
I105
sS'stopppppppp'
p1384
I105
sS'tweet/'
p1385
I105
sS'name'
p1386
I93
sS'sophomore'
p1387
I104
sS'fudge'
p1388
I105
sS'heavy!!!!\xe2\x80\x9dshut'
p1389
I105
sS'drop'
p1390
I102
sS'locked'
p1391
I105
sS'diente'
p1392
I104
sS'crazier?"yes"'
p1393
I105
sS'twit-pic'
p1394
I105
sS'x10'
p1395
I104
sS'em'
p1396
I105
sS'el'
p1397
I95
sS'en'
p1398
I104
sS'lowkey'
p1399
I103
sS'23:21:39.0,34.0943467,-118.0224694,4324.01,if'
p1400
I105
sS'ed'
p1401
I105
sS'ft'
p1402
I105
sS'yeah'
p1403
I97
sS'borrow'
p1404
I105
sS'soy'
p1405
I105
sS'catching'
p1406
I105
sS'ex'
p1407
I99
sS'year'
p1408
I84
sS'a-okay'
p1409
I105
sS'okay'
p1410
I80
sS'girl'
p1411
I81
sS"beyonc\xc3\xa9's"
p1412
I105
sS'es'
p1413
I105
sS'tried'
p1414
I102
sS'living'
p1415
I104
sS'mouths'
p1416
I105
sS'3rd'
p1417
I104
sS'me?\xe2\x80\x9d'
p1418
I105
sS'looking'
p1419
I95
sS'bday'
p1420
I99
sS'seriously'
p1421
I85
sS'miles'
p1422
I105
sS"shouldn't"
p1423
I101
sS'100x'
p1424
I105
sS'nudes'
p1425
I103
sS'gtfa'
p1426
I105
sS'bb!\xe2\x9d\xa4\xef\xb8\x8f'
p1427
I105
sS'earlier'
p1428
I102
sS'buzz'
p1429
I105
sS'balloon'
p1430
I105
sS'boobs'
p1431
I104
sS'4:30/5'
p1432
I105
sS'bumps'
p1433
I105
sS'statistics'
p1434
I105
sS'complicated'
p1435
I104
sS'plea'
p1436
I105
sS'grandma'
p1437
I102
sS'mimi'
p1438
I105
sS'wwwho'
p1439
I105
sS'cough'
p1440
I105
sS'(thumbs'
p1441
I105
sS'card'
p1442
I105
sS'care'
p1443
I92
sS'yeeeee'
p1444
I105
sS'rot'
p1445
I105
sS'training'
p1446
I104
sS'gusta'
p1447
I105
sS'it.....on'
p1448
I105
sS'language'
p1449
I104
sS'juckie'
p1450
I104
sS'100%'
p1451
I104
sS'bombest'
p1452
I104
sS'punk'
p1453
I104
sS'year.,91732\n504423005548969984,silenteyes_,2014-08-27'
p1454
I105
sS'turn'
p1455
I101
sS'funky'
p1456
I105
sS'place'
p1457
I104
sS'pepperoni'
p1458
I105
sS'ahahahahahahahahahqhqhhaahah'
p1459
I105
sS'socking'
p1460
I105
sS'yess'
p1461
I104
sS'think'
p1462
I59
sS'first'
p1463
I79
sS'exotic'
p1464
I105
sS'cheese'
p1465
I103
sS'henry'
p1466
I105
sS'626'
p1467
I105
sS'sock'
p1468
I104
sS'perris'
p1469
I105
sS'one'
p1470
I47
sS',91731\n512726645195546625,icameallover,2014-09-18'
p1471
I105
sS'long'
p1472
I92
sS'suspended'
p1473
I105
sS'spanish'
p1474
I101
sS'carry'
p1475
I104
sS'message'
p1476
I102
sS'lags'
p1477
I104
sS'open'
p1478
I102
sS'tomorrow'
p1479
I84
sS"'em"
p1480
I105
sS'size'
p1481
I103
sS'gezz'
p1482
I105
sS'city'
p1483
I103
sS'little'
p1484
I92
sS'20:13:18.0,34.09306927,-118.026981,4324.01,2'
p1485
I105
sS'checked'
p1486
I105
sS'it,91732\n501493725806084096,gees626,2014-08-18'
p1487
I105
sS'virgin'
p1488
I105
sS'ceviche'
p1489
I105
sS'caught'
p1490
I105
sS'slept'
p1491
I105
sS't'
p1492
I105
sS'anyone'
p1493
I96
sS'grosssss'
p1494
I105
sS'fml'
p1495
I100
sS'2'
p1496
I82
sS'white'
p1497
I101
sS'williams'
p1498
I104
sS'gives'
p1499
I102
sS'eyes'
p1500
I97
sS'dawggggg'
p1501
I105
sS'mostly'
p1502
I104
sS'that'
p1503
I21
sS'season'
p1504
I104
sS'hurtful'
p1505
I105
sS'huh'
p1506
I104
sS'boba'
p1507
I104
sS'massages'
p1508
I105
sS'ridiculous'
p1509
I105
sS'butt'
p1510
I99
sS'thai'
p1511
I103
sS'flowers'
p1512
I104
sS'holder'
p1513
I105
sS'than'
p1514
I83
sS'00:21:31.0,34.091126,-118.0164015,4324.01,can'
p1515
I105
sS'boyfriend'
p1516
I101
sS'11'
p1517
I103
sS'10'
p1518
I97
sS'13'
p1519
I104
sS'12'
p1520
I103
sS'$10'
p1521
I105
sS'14'
p1522
I104
sS'17'
p1523
I105
sS'depressed'
p1524
I103
sS'18'
p1525
I103
sS'gotta'
p1526
I98
sS'work""not'
p1527
I105
sS'looove'
p1528
I105
sS'dissed'
p1529
I105
sS'r'
p1530
I97
sS'.6'
p1531
I105
sS'were'
p1532
I87
sS'cards'
p1533
I104
sS'gobble'
p1534
I104
sS'marines'
p1535
I105
sS'counselor'
p1536
I105
sS'and'
p1537
I10
sS'coconut'
p1538
I105
sS'lick'
p1539
I104
sS'01:19:13.0,34.0945178,-118.0213755,4324.01,does'
p1540
I105
sS'san'
p1541
I105
sS'nicer'
p1542
I103
sS'slay'
p1543
I104
sS'parking'
p1544
I105
sS'argument'
p1545
I104
sS'slap'
p1546
I105
sS'sad'
p1547
I91
sS'say'
p1548
I74
sS'came!,91732\n504419913319337984,silenteyes_,2014-08-27'
p1549
I105
sS'anytime'
p1550
I105
sS'griselda'
p1551
I105
sS'breakfast'
p1552
I99
sS'recover'
p1553
I105
sS'saw'
p1554
I98
sS'any'
p1555
I97
sS'invite'
p1556
I105
sS'porfavorrrrrrr'
p1557
I105
sS'worldtook'
p1558
I105
sS'wcw'
p1559
I103
sS'(art)'
p1560
I105
sS"rosemead's"
p1561
I105
sS'squidward'
p1562
I105
sS'note'
p1563
I104
sS'omfg'
p1564
I97
sS'"pop'
p1565
I105
sS'omggg'
p1566
I105
sS'take'
p1567
I80
sS'wanting'
p1568
I103
sS'neeeeed'
p1569
I105
sS'grammar'
p1570
I105
sS'bitching'
p1571
I105
sS'fyi'
p1572
I105
sS'sure'
p1573
I99
sS'pain'
p1574
I102
sS'spangled'
p1575
I105
sS'normal'
p1576
I105
sS'track'
p1577
I101
sS'dispute'
p1578
I105
sS'knew'
p1579
I103
sS'fails'
p1580
I105
sS'paid'
p1581
I104
sS'pastor'
p1582
I105
sS'boiling'
p1583
I105
sS'whtevr'
p1584
I105
sS'nutella'
p1585
I105
sS'voice*'
p1586
I104
sS'connor'
p1587
I104
sS'freshman'
p1588
I101
sS'20+'
p1589
I105
sS'america'
p1590
I105
sS'pages'
p1591
I105
sS'hair,91732\n501174672307019777,silenteyes_,2014-08-18'
p1592
I105
sS'forever'
p1593
I96
sS'mumford'
p1594
I105
sS'especially'
p1595
I103
sS'guyss'
p1596
I105
sS'sopes'
p1597
I105
sS'later'
p1598
I101
sS'steady'
p1599
I105
sS'hungry'
p1600
I92
sS'lawb'
p1601
I105
sS'mrs'
p1602
I104
sS'psat'
p1603
I105
sS'day\xe2\x80\x9dsame'
p1604
I105
sS'placeheaven'
p1605
I105
sS'(el'
p1606
I67
sS'professional'
p1607
I105
sS'mrf'
p1608
I103
sS'salt'
p1609
I105
sS'review'
p1610
I105
sS'shop'
p1611
I104
sS'walking'
p1612
I99
sS'\xe2\x9c\xa8'
p1613
I102
sS'show'
p1614
I96
sS'cheat'
p1615
I105
sS'hamburger'
p1616
I105
sS'rn\xe2\x80\x9d'
p1617
I105
sS'estoy'
p1618
I105
sS'bright'
p1619
I104
sS'corner'
p1620
I105
sS'malcolm'
p1621
I105
sS'takin'
p1622
I105
sS'fifth'
p1623
I105
sS'realizing'
p1624
I105
sS'slow'
p1625
I105
sS'laughlin'
p1626
I103
sS'title'
p1627
I104
sS'dick'
p1628
I103
sS'saints'
p1629
I105
sS'3'
p1630
I95
sS'only'
p1631
I65
sS'going'
p1632
I60
sS'black'
p1633
I97
sS'dcms'
p1634
I105
sS'wooo'
p1635
I105
sS'pumpkin'
p1636
I103
sS'today.\xe2\x9c\xa8'
p1637
I105
sS'correctly'
p1638
I105
sS'uncles'
p1639
I105
sS'get'
p1640
I39
sS'goodluck'
p1641
I103
sS'assistant'
p1642
I105
sS'ifly'
p1643
I105
sS'expectation'
p1644
I105
sS'mission'
p1645
I105
sS'tengan'
p1646
I105
sS'l0l0lolololollplo0lo0l'
p1647
I105
sS'dye'
p1648
I104
sS'00:19:12.0,34.091126,-118.0164342,4324.01,just'
p1649
I105
sS'freaking'
p1650
I104
sS'buuuut'
p1651
I104
sS'artist'
p1652
I103
sS'primi'
p1653
I105
sS'attitude'
p1654
I104
sS'awwwww'
p1655
I103
sS'morning'
p1656
I89
sS":'("
p1657
I101
sS":')"
p1658
I105
sS'stupid'
p1659
I91
sS"could've"
p1660
I105
sS'nostril'
p1661
I105
sS'worries'
p1662
I104
sS'miley'
p1663
I105
sS'finishing'
p1664
I105
sS'where'
p1665
I94
sS"everything's"
p1666
I105
sS"y'all"
p1667
I100
sS'ignored'
p1668
I104
sS'learn'
p1669
I104
sS'concert'
p1670
I105
sS'espn'
p1671
I105
sS'physically'
p1672
I103
sS'up'
p1673
I25
sS'cologne'
p1674
I105
sS'dickhead'
p1675
I105
sS'college'
p1676
I103
sS'sean'
p1677
I104
sS'hoes'
p1678
I105
sS'header>>>'
p1679
I105
sS'sport'
p1680
I104
sS'mcdonalds'
p1681
I104
sS'chocked'
p1682
I105
sS'wonder'
p1683
I100
sS'ohgeez.natalie'
p1684
I105
sS'dexter'
p1685
I104
sS'registering'
p1686
I104
sS'24/7'
p1687
I103
sS'orrrr'
p1688
I105
sS'amen'
p1689
I105
sS"father's"
p1690
I105
sS'enough'
p1691
I102
sS'awkssss'
p1692
I105
sS'hi\xe2\x80\x9dhi\xe2\x80\x9dhi'
p1693
I105
sS'between'
p1694
I105
sS'teens'
p1695
I105
sS'reading'
p1696
I104
sS'across'
p1697
I103
sS'cholas'
p1698
I105
sS'tux'
p1699
I104
sS'24'
p1700
I105
sS'cantaloupe'
p1701
I105
sS'august'
p1702
I105
sS'parent'
p1703
I105
sS'25'
p1704
I105
sS'fearless'
p1705
I105
sS'cray-ness'
p1706
I105
sS'flow'
p1707
I105
sS'jr'
p1708
I104
sS'killing'
p1709
I102
sS'want?!\xe2\x80\x9d'
p1710
I105
sS'subtweets'
p1711
I105
sS'como'
p1712
I105
sS'hurts'
p1713
I93
sS'lokkdawg'
p1714
I105
sS'cities'
p1715
I105
sS'come'
p1716
I75
sS'tue'
p1717
I105
sS'reaction'
p1718
I105
sS'dates'
p1719
I105
sS'$10.ima'
p1720
I105
sS'jfc'
p1721
I104
sS'many'
p1722
I100
sS'stupidest'
p1723
I105
sS'quiet'
p1724
I105
sS'somewhere'
p1725
I105
sS'4:20'
p1726
I104
sS'dated'
p1727
I105
sS'yeeee'
p1728
I105
sS'hyphy'
p1729
I105
sS'"for'
p1730
I105
sS'expression'
p1731
I105
sS"can't"
p1732
I59
sS'yoooou'
p1733
I105
sS'6:30'
p1734
I105
sS'color'
p1735
I101
sS'jk'
p1736
I94
sS'por'
p1737
I103
sS'period'
p1738
I91
sS'football'
p1739
I100
sS'1/8'
p1740
I105
sS'\xc2\xa7oooo'
p1741
I105
sS'learning'
p1742
I100
sS'yucaipa'
p1743
I105
sS'comprehend'
p1744
I105
sS'precious'
p1745
I105
sS'boat'
p1746
I105
sS'turkey'
p1747
I105
sS'now\xe2\x80\x9d'
p1748
I105
sS'arts'
p1749
I98
sS'wienerschnitzel'
p1750
I105
sS'cares'
p1751
I103
sS'west'
p1752
I104
sS'50$'
p1753
I105
sS'ucla'
p1754
I104
sS'wesr'
p1755
I105
sS'breath'
p1756
I104
sS'calm'
p1757
I105
sS'jerky'
p1758
I105
sS'hardly'
p1759
I105
sS'bullshit'
p1760
I105
sS'wants'
p1761
I101
sS'direction'
p1762
I105
sS'shopping'
p1763
I105
sS'uruapan'
p1764
I105
sS'thousand'
p1765
I105
sS'"good"'
p1766
I105
sS'andrew'
p1767
I100
sS'bumping.this'
p1768
I105
sS'dramatic'
p1769
I105
sS'wake'
p1770
I102
sS'"who'
p1771
I105
sS'evidence'
p1772
I105
sS'stabding'
p1773
I105
sS'spirit'
p1774
I105
sS'those'
p1775
I98
sS'sound'
p1776
I101
sS'myself'
p1777
I76
sS'cutie'
p1778
I105
sS'casa'
p1779
I104
sS'these'
p1780
I77
sS'sauce'
p1781
I105
sS'muthafuck'
p1782
I105
sS'snaptime'
p1783
I105
sS'goodmorning'
p1784
I105
sS'i\xe2\x80\x9d'
p1785
I105
sS'erikaaaaaa'
p1786
I105
sS'invited'
p1787
I105
sS'coolest'
p1788
I105
sS'ive'
p1789
I101
sS'troy'
p1790
I105
sS'noel'
p1791
I105
sS'fetuses'
p1792
I105
sS'though>>'
p1793
I105
sS'freshmen'
p1794
I105
sS'coffee'
p1795
I100
sS'bros'
p1796
I104
sS'sleeping'
p1797
I103
sS'couples'
p1798
I104
sS'blah'
p1799
I101
sS'someone'
p1800
I73
sS'aaaand'
p1801
I105
sS"(i'm"
p1802
I105
sS'weakest'
p1803
I105
sS'protein'
p1804
I105
sS'autocorrect'
p1805
I105
sS'everyday'
p1806
I98
sS'worry'
p1807
I104
sS'bags'
p1808
I105
sS'different'
p1809
I101
sS'me/jacks'
p1810
I105
sS'il'
p1811
I105
sS'pay'
p1812
I102
sS'lave'
p1813
I105
sS'10:30'
p1814
I105
sS'nighter'
p1815
I105
sS'same'
p1816
I82
sS'trip'
p1817
I102
sS'ya'
p1818
I100
sS'heartbreak'
p1819
I105
sS'followers'
p1820
I102
sS'buys'
p1821
I104
sS'sams'
p1822
I102
sS'peps'
p1823
I105
sS'emojis'
p1824
I105
sS'pal'
p1825
I105
sS'unemployed'
p1826
I105
sS'19:00:30.0,34.09182677,-118.0259591,4324.01,lunch'
p1827
I105
sS'week'
p1828
I88
sS'favorited'
p1829
I105
sS'finish'
p1830
I101
sS'clue'
p1831
I105
sS'har\xe2\x80\x9d'
p1832
I105
sS'hullo'
p1833
I104
sS'running'
p1834
I103
sS'fruit'
p1835
I105
sS'shhhhhhhut'
p1836
I105
sS'puke'
p1837
I105
sS'favorites'
p1838
I105
sS"rivera's"
p1839
I105
sS'totally'
p1840
I99
sS'p90x'
p1841
I104
sS'mentally'
p1842
I105
sS'\xe2\x9c\x8c\xef\xb8\x8f'
p1843
I102
sS'bow"'
p1844
I105
sS'tracking'
p1845
I105
sS'"8th'
p1846
I105
sS'horchataomw'
p1847
I105
sS'charger'
p1848
I104
sS'up.,91731\n489901673368649728,muybu3no,2014-07-17'
p1849
I105
sS'floor'
p1850
I105
sS'magical'
p1851
I105
sS'oven\xe2\x80\x9d'
p1852
I105
sS',91731\n503338850895544320,icameallover,2014-08-24'
p1853
I105
sS'without'
p1854
I95
sS'comes'
p1855
I97
sS'bottle'
p1856
I103
sS'pitbull'
p1857
I105
sS'alfredo'
p1858
I105
sS'genie'
p1859
I105
sS'model'
p1860
I105
sS"you've"
p1861
I105
sS'taxi'
p1862
I105
sS'summer'
p1863
I89
sS'sprayed'
p1864
I105
sS'\xe2\x98\xba\xef\xb8\x8f'
p1865
I90
sS'vent'
p1866
I105
sS'being'
p1867
I71
sS'money'
p1868
I97
sS'rest'
p1869
I100
sS'amazebees'
p1870
I104
sS'kill'
p1871
I95
sS'wifey'
p1872
I105
sS'touch'
p1873
I103
sS'dominique'
p1874
I105
sS'flavor'
p1875
I104
sS'rewatch'
p1876
I105
sS'misssssss'
p1877
I105
sS'blow'
p1878
I104
sS'death'
p1879
I103
sS'selfieeeeeee'
p1880
I105
sS'ny'
p1881
I105
sS'thinking'
p1882
I101
sS"we've"
p1883
I105
sS"everyone's"
p1884
I103
sS'seems'
p1885
I101
sS'except'
p1886
I105
sS'\xee\x90\x92\xee\x90\x92'
p1887
I105
sS'yaaaa'
p1888
I105
sS'lets'
p1889
I99
sS'ih8u'
p1890
I105
sS'4'
p1891
I91
sS'samples'
p1892
I105
sS'cb'
p1893
I105
sS'7:20'
p1894
I105
sS'yessuhhh'
p1895
I105
sS'denim'
p1896
I103
sS'real'
p1897
I98
sS'starving'
p1898
I102
sS'06:00:23.0,34.0917555,-118.0227679,4324.01,this'
p1899
I105
sS'around'
p1900
I99
sS'career-best'
p1901
I105
sS'read'
p1902
I104
sS'jeans'
p1903
I105
sS'brain\xe2\x80\x9dnever'
p1904
I105
sS'psa'
p1905
I105
sS'fridge'
p1906
I105
sS'gonna'
p1907
I46
sS'dark'
p1908
I100
sS'moi'
p1909
I104
sS'traffic'
p1910
I105
sS'ants'
p1911
I105
sS'listening'
p1912
I99
sS'(-'
p1913
I103
sS'world'
p1914
I95
sS'glitches'
p1915
I105
sS'disappointed'
p1916
I105
sS'in-n-out'
p1917
I105
sS'swift'
p1918
I105
sS'kennedy'
p1919
I104
sS'nt'
p1920
I105
sS'everytime'
p1921
I104
sS'tia'
p1922
I105
sS'thighs'
p1923
I102
sS'omgg'
p1924
I105
sS'potatoes'
p1925
I105
sS'waiving'
p1926
I105
sS'nw'
p1927
I105
sS'fat."'
p1928
I105
sS'meeernin'
p1929
I105
sS'fonts'
p1930
I105
sS"couldn't"
p1931
I103
sS'joking'
p1932
I104
sS'whaaaaaa'
p1933
I105
sS'titan'
p1934
I104
sS"covina's"
p1935
I105
sS'resorts'
p1936
I105
sS'am-12'
p1937
I105
sS'joan'
p1938
I105
sS'thinks'
p1939
I103
sS'ahhhhhh'
p1940
I105
sS'gross'
p1941
I92
sS'candles'
p1942
I104
sS'mood'
p1943
I92
sS'perfer'
p1944
I105
sS'subie'
p1945
I105
sS'5\'2"'
p1946
I105
sS'memories'
p1947
I103
sS'nooo'
p1948
I102
sS'recorded'
p1949
I105
sS'cowie'
p1950
I105
sS'conservative'
p1951
I105
sS'piche'
p1952
I105
sS'kms'
p1953
I100
sS'googles'
p1954
I105
sS'station)'
p1955
I104
sS'nuggets'
p1956
I104
sS'freed'
p1957
I105
sS'wcw,91731\n466712381775949825,estebannunez2,2014-05-14'
p1958
I105
sS'caring'
p1959
I105
sS'felt'
p1960
I101
sS'power'
p1961
I103
sS'asap'
p1962
I102
sS'lmfao'
p1963
I100
sS'nails'
p1964
I99
sS'booooo'
p1965
I105
sS'communicate'
p1966
I105
sS'*do'
p1967
I105
sS'pts'
p1968
I105
sS'weirdest'
p1969
I105
sS'credits'
p1970
I104
sS'artie'
p1971
I104
sS'hectic'
p1972
I105
sS'obsession"'
p1973
I105
sS'nanana'
p1974
I105
sS';)'
p1975
I104
sS'josie'
p1976
I100
sS'throw'
p1977
I97
sS'on'
p1978
I23
sS'luz'
p1979
I105
sS'ok'
p1980
I93
sS'ace'
p1981
I104
sS'oh'
p1982
I83
sS'of'
p1983
I15
sS'violence'
p1984
I105
sS'favorite'
p1985
I96
sS'inviting'
p1986
I105
sS'devon'
p1987
I105
sS'stand'
p1988
I100
sS'decent'
p1989
I105
sS'mixed'
p1990
I105
sS'luck'
p1991
I102
sS'or'
p1992
I62
sS'road'
p1993
I102
sS'amber'
p1994
I105
sS'burning'
p1995
I105
sS'flawed'
p1996
I105
sS'blessed'
p1997
I104
sS'snapchat'
p1998
I96
sS':/,91731\n507654232036474880,icameallover,2014-09-04'
p1999
I105
sS'rice'
p2000
I105
sS'determine'
p2001
I105
sS'dreaming'
p2002
I104
sS'annoys'
p2003
I104
sS'happening'
p2004
I105
sS'your'
p2005
I44
sS'trabajar'
p2006
I105
sS'stare'
p2007
I104
sS'mart'
p2008
I105
sS'fill'
p2009
I105
sS'her'
p2010
I69
sS'hes'
p2011
I102
sS'distracted'
p2012
I103
sS'hey'
p2013
I98
sS'lol'
p2014
I18
sS'strip'
p2015
I105
sS'los'
p2016
I101
sS'chico'
p2017
I105
sS'mondays'
p2018
I105
sS'low'
p2019
I105
sS'lot'
p2020
I93
sS'phi'
p2021
I105
sS'valley'
p2022
I105
sS'heh'
p2023
I105
sS'energy'
p2024
I104
sS'allergic'
p2025
I105
sS'complete'
p2026
I105
sS'kittens'
p2027
I105
sS'fml\xe2\x80\x9drft'
p2028
I105
sS'younger'
p2029
I105
sS'shrunk'
p2030
I105
sS'jur'
p2031
I105
sS'survived'
p2032
I104
sS'multitasking'
p2033
I105
sS'texted'
p2034
I105
sS'trying'
p2035
I90
sS'with'
p2036
I22
sS'buying'
p2037
I105
sS'spice'
p2038
I103
sS"they're"
p2039
I94
sS'waste'
p2040
I105
sS'romantic'
p2041
I103
sS'naming'
p2042
I105
sS"wasn't"
p2043
I99
sS'kissy'
p2044
I105
sS'freddy'
p2045
I105
sS'dancing\xe2\x80\x9du'
p2046
I105
sS'bbq'
p2047
I104
sS'manuel'
p2048
I105
sS'breathing-'
p2049
I105
sS'creeping'
p2050
I105
sS'22:00:38.0,34.0943419,-118.0241446,4324.01,how'
p2051
I105
sS'darker'
p2052
I105
sS'wrestlers'
p2053
I105
sS'gone'
p2054
I99
sS'ac'
p2055
I103
sS'taylor'
p2056
I103
sS'ohh'
p2057
I103
sS'johnny'
p2058
I104
sS'af'
p2059
I87
sS'taste'
p2060
I105
sS'certain'
p2061
I105
sS'tiiiiiiired'
p2062
I105
sS'describe'
p2063
I105
sS'am'
p2064
I75
sS'deep'
p2065
I104
sS'an'
p2066
I67
sS'maxed'
p2067
I105
sS'ap'
p2068
I103
sS'as'
p2069
I87
sS'salem'
p2070
I103
sS'at'
p2071
I20
sS'aw'
p2072
I92
sS'walks'
p2073
I104
sS'girlfriend'
p2074
I102
sS'watched'
p2075
I105
sS'hospitals'
p2076
I105
sS'film'
p2077
I104
sS'cream'
p2078
I103
sS'again'
p2079
I81
sS'hasnt'
p2080
I105
sS'yoga'
p2081
I105
sS'at,91731\n479070285186867200,muybu3no,2014-06-18'
p2082
I105
sS'twinnnzzzzz'
p2083
I105
sS'idiot'
p2084
I101
sS'babe.\xe2\x9d\xa4\xef\xb8\x8f'
p2085
I105
sS'ringtone'
p2086
I105
sS'blinded'
p2087
I105
sS'tight'
p2088
I103
sS'5'
p2089
I96
sS'you'
p2090
I9
sS'puppy'
p2091
I102
sS'coughing'
p2092
I105
sS'poor'
p2093
I103
sS'(\xe3\x80\x82-`\xcf\x89\xc2\xb4-)'
p2094
I105
sS'blessing'
p2095
I105
sS'totes'
p2096
I105
sS'obsessed'
p2097
I103
sS'flaws'
p2098
I105
sS'students'
p2099
I105
sS'threeeeeew'
p2100
I105
sS'time'
p2101
I42
sS'keepin'
p2102
I105
sS'walker'
p2103
I105
sS'important'
p2104
I105
sS'gayest'
p2105
I105
sS'fortuneteller'
p2106
I105
sS'serious'
p2107
I105
sS'chris'
p2108
I103
sS'happy.\xe2\x9d\xa4\xef\xb8\x8f'
p2109
I105
sS'finals'
p2110
I104
sS'niceee'
p2111
I105
sS'srry'
p2112
I105
sS'calls'
p2113
I104
sS'wife'
p2114
I103
sS'00:11:00.0,34.091133,-118.016415,4324.01,like'
p2115
I105
sS'wifi'
p2116
I101
sS'vines'
p2117
I104
sS'having'
p2118
I84
sS'ombr\xc3\xa9'
p2119
I105
sS'u'
p2120
I50
sS'adam'
p2121
I105
sS'alright'
p2122
I105
sS'songs'
p2123
I104
sS'starting'
p2124
I101
sS'cancun'
p2125
I105
sS'thugs'
p2126
I105
sS'all'
p2127
I36
sS'surrounded'
p2128
I105
sS'consider'
p2129
I105
sS'chinese'
p2130
I105
sS'washed'
p2131
I104
sS'd35w'
p2132
I105
sS'dollar'
p2133
I105
sS'af\xe2\x80\x9d'
p2134
I105
sS'christmas\xe2\x80\x9drft'
p2135
I105
sS'month'
p2136
I102
sS'coach'
p2137
I99
sS'talks'
p2138
I104
sS'follow'
p2139
I100
sS'faster'
p2140
I103
sS'religious'
p2141
I105
sS'emily'
p2142
I103
sS'waaaaaant'
p2143
I105
sS'stay"'
p2144
I105
sS'tx'
p2145
I104
sS'ty'
p2146
I105
sS'tu'
p2147
I104
sS'vs'
p2148
I105
sS'thursday'
p2149
I104
sS'laughing'
p2150
I104
sS'to'
p2151
I3
sS'tl'
p2152
I104
sS'danielle'
p2153
I105
sS'dirty'
p2154
I105
sS'tf'
p2155
I100
sS'smile'
p2156
I103
sS'td'
p2157
I105
sS'te'
p2158
I103
sS'presentation'
p2159
I105
sS'carters'
p2160
I103
sS'norm'
p2161
I105
sS'ta'
p2162
I103
sS'paying'
p2163
I105
sS'woman'
p2164
I104
sS'appointment'
p2165
I105
sS'worse'
p2166
I102
sS'shines\xe2\x98\x80\xef\xb8\x8f'
p2167
I105
sS'song'
p2168
I93
sS'very'
p2169
I98
sS'fav'
p2170
I102
sS'detention'
p2171
I99
sS'fat'
p2172
I97
sS'selfies'
p2173
I102
sS':/,91732\n504420782811144194,silenteyes_,2014-08-27'
p2174
I105
sS'sons'
p2175
I105
sS'worst'
p2176
I100
sS'fall'
p2177
I103
sS'4-4'
p2178
I105
sS'ticket'
p2179
I105
sS'difference'
p2180
I105
sS'hooker'
p2181
I105
sS'vero'
p2182
I105
sS'trippin'
p2183
I104
sS'heaven'
p2184
I104
sS'washing'
p2185
I105
sS'desserts'
p2186
I105
sS'8))))))'
p2187
I105
sS'celebrity'
p2188
I104
sS'list'
p2189
I104
sS'worded'
p2190
I105
sS'canceled'
p2191
I105
sS'sang'
p2192
I105
sS'sane'
p2193
I104
sS'startin'
p2194
I105
sS'9:20'
p2195
I105
sS'small'
p2196
I104
sS'mammal'
p2197
I105
sS'anal'
p2198
I105
sS'dodger'
p2199
I105
sS"i'll"
p2200
I81
sS'cookies'
p2201
I104
sS'00:40:35.0,34.0911213,-118.0163911,4324.01,do'
p2202
I105
sS'instagram'
p2203
I105
sS'ten'
p2204
I105
sS'streets'
p2205
I105
sS'yasssss'
p2206
I105
sS'(evan'
p2207
I105
sS'past'
p2208
I102
sS'burger'
p2209
I105
sS'zero'
p2210
I103
sS'pass'
p2211
I103
sS'nba'
p2212
I105
sS'casual'
p2213
I105
sS'hick'
p2214
I105
sS'what'
p2215
I38
sS'fuuuuuuuuuuuuuuuuhhhh'
p2216
I105
sS'sub'
p2217
I101
sS'richard'
p2218
I105
sS'noooooooo'
p2219
I105
sS'yee'
p2220
I105
sS'sun'
p2221
I102
sS'sum'
p2222
I105
sS'*done'
p2223
I105
sS'dcon'
p2224
I105
sS'anniversary'
p2225
I105
sS'emotions'
p2226
I102
sS'crush'
p2227
I105
sS'abs'
p2228
I105
sS'leftovers'
p2229
I105
sS'learned'
p2230
I105
sS'handy'
p2231
I105
sS'sux'
p2232
I105
sS'tattoos'
p2233
I105
sS'knees'
p2234
I105
sS'full'
p2235
I102
sS'bigest'
p2236
I105
sS'2127'
p2237
I105
sS'"you\'reee'
p2238
I105
sS'nena'
p2239
I105
sS'victory'
p2240
I105
sS'hours'
p2241
I98
sS'hearted'
p2242
I105
sS'situation'
p2243
I105
sS'directions'
p2244
I105
sS'91780'
p2245
I105
sS'strong'
p2246
I101
sS'"blue'
p2247
I105
sS'aware'
p2248
I105
sS'"hood"'
p2249
I105
sS'stretching'
p2250
I105
sS'jackie'
p2251
I104
sS'creepy'
p2252
I104
sS'pics'
p2253
I105
sS'spankin'
p2254
I105
sS'hungrier'
p2255
I105
sS'healthier'
p2256
I105
sS'milkshake'
p2257
I104
sS'arent'
p2258
I105
sS'pick'
p2259
I99
sS"would've"
p2260
I105
sS'inspires'
p2261
I105
sS'conditioning'
p2262
I105
sS'\xe2\x9d\xa4\xef\xb8\x8f\xe2\x9d\xa4\xef\xb8\x8f\xe2\x9d\xa4\xef\xb8\x8f\xe2\x9d\xa4\xef\xb8\x8f\xe2\x9d\xa4\xef\xb8\x8f'
p2263
I105
sS'votes'
p2264
I105
sS'followed'
p2265
I104
sS'members'
p2266
I104
sS'family'
p2267
I96
sS'period."'
p2268
I105
sS'suddenly'
p2269
I105
sS'africa'
p2270
I105
sS'reals\xe2\x80\x9d'
p2271
I105
sS'put'
p2272
I92
sS'semester'
p2273
I105
sS'xpress'
p2274
I105
sS'...ur'
p2275
I105
sS'ilh'
p2276
I105
sS'imh\xe2\x80\x9dimy2'
p2277
I105
sS'pulls'
p2278
I105
sS'rko'
p2279
I105
sS'friesfav'
p2280
I105
sS'emoji'
p2281
I104
sS'*knee'
p2282
I105
sS'goodnight!:)'
p2283
I105
sS'eye'
p2284
I100
sS'takes'
p2285
I102
sS'raff'
p2286
I104
sS'texting'
p2287
I105
sS'two'
p2288
I102
sS'twm'
p2289
I100
sS'assholes,91731\n487674774449950720,muybu3no,2014-07-11'
p2290
I105
sS'one?"'
p2291
I105
sS'6'
p2292
I101
sS'taken'
p2293
I105
sS'minou'
p2294
I105
sS'injury'
p2295
I105
sS'8:25'
p2296
I105
sS'more'
p2297
I68
sS'teen'
p2298
I105
sS'tryna'
p2299
I103
sS'knows'
p2300
I101
sS'alexiss'
p2301
I105
sS'chucks'
p2302
I105
sS'excuse'
p2303
I105
sS"ain't"
p2304
I102
sS'basically'
p2305
I102
sS'broke'
p2306
I101
sS'hurry'
p2307
I99
sS'dooooone'
p2308
I105
sS'glad'
p2309
I98
sS'opssss'
p2310
I105
sS'sizing'
p2311
I105
sS'keeping'
p2312
I104
sS'thread'
p2313
I105
sS'hour'
p2314
I105
sS'middle'
p2315
I102
sS"would'ves"
p2316
I105
sS'stappppp'
p2317
I105
sS'des'
p2318
I105
sS'sucks'
p2319
I96
sS'pepino'
p2320
I105
sS'mall'
p2321
I104
sS'geeeez'
p2322
I105
sS"carmine's"
p2323
I105
sS'v'
p2324
I103
sS'alyssa'
p2325
I105
sS'once"'
p2326
I105
sS'history'
p2327
I104
sS'beautiful'
p2328
I98
sS'mvl'
p2329
I105
sS'embarrassing'
p2330
I102
sS'*jackie'
p2331
I105
sS'brown'
p2332
I103
sS'lives'
p2333
I105
sS'momas'
p2334
I105
sS'share'
p2335
I105
sS'socal'
p2336
I105
sS'lolol'
p2337
I104
sS'breathing'
p2338
I105
sS'jealousy'
p2339
I105
sS'partner'
p2340
I103
sS'11:00'
p2341
I105
sS'pong'
p2342
I104
sS'disliked'
p2343
I105
sS'dress'
p2344
I103
sS'unappreciated'
p2345
I105
sS'huge'
p2346
I104
sS'needs'
p2347
I95
sS'court'
p2348
I105
sS'awkward'
p2349
I98
sS'rather'
p2350
I100
sS'acts'
p2351
I105
sS'stayed'
p2352
I105
sS'needa'
p2353
I105
sS'commercial'
p2354
I105
sS'buenos'
p2355
I105
sS'hugs'
p2356
I105
sS'bussy'
p2357
I105
sS'facetimes'
p2358
I105
sS'waved'
p2359
I105
sS'sandwich'
p2360
I105
sS'gtfo'
p2361
I104
sS'plans'
p2362
I102
sS'rude'
p2363
I103
sS'helmet'
p2364
I105
sS'okat'
p2365
I105
sS'advice'
p2366
I104
sS'mendez'
p2367
I105
sS'soundtrack'
p2368
I105
sS'tries'
p2369
I104
sS'yaaaay'
p2370
I105
sS'blood'
p2371
I104
sS'coming'
p2372
I93
sS'-heavy'
p2373
I105
sS'choice'
p2374
I105
sS'fo'
p2375
I105
sS'a'
p2376
I7
sS'phones'
p2377
I105
sS'short'
p2378
I104
sS'tweeting'
p2379
I103
sS'shady'
p2380
I103
sS'register'
p2381
I105
sS'volleyball'
p2382
I103
sS'4/5'
p2383
I105
sS'mislead'
p2384
I105
sS'hilton'
p2385
I105
sS'niccccceeeee'
p2386
I105
sS'grande'
p2387
I105
sS'scaring'
p2388
I105
sS'media'
p2389
I104
sS'putting'
p2390
I105
sS'dream'
p2391
I97
sS'playing'
p2392
I101
sS"that's"
p2393
I82
sS'replied'
p2394
I103
sS'chicks'
p2395
I105
sS'"im'
p2396
I105
sS'mexican'
p2397
I104
sS'help'
p2398
I100
sS"don't"
p2399
I29
sS'"if'
p2400
I105
sS'john'
p2401
I104
sS'sooo'
p2402
I102
sS'soon'
p2403
I100
sS'2hours'
p2404
I105
sS'eachothers'
p2405
I105
sS'performance'
p2406
I105
sS'isnt'
p2407
I103
sS'paper'
p2408
I105
sS'through'
p2409
I94
sS'replies'
p2410
I104
sS'hell'
p2411
I101
sS'smiling'
p2412
I104
sS'stealin'
p2413
I105
sS'avenue'
p2414
I104
sS'its'
p2415
I62
sS'bummed'
p2416
I103
sS'messed'
p2417
I101
sS'hickeys'
p2418
I105
sS'20'
p2419
I100
sS'pray'
p2420
I105
sS'thnx'
p2421
I104
sS'beyonce'
p2422
I105
sS'actually'
p2423
I83
sS'late'
p2424
I98
sS'>>>'
p2425
I103
sS'ululpulpupluplulpulpulplpulplu0ll0lul0l0ulul0ulululpulpulpulplpuplpulypupupupupuplulpplupuluplulppul0ulul0u0lulpulpu0ullupupuluplpupupluplup'
p2426
I105
sS'parts'
p2427
I105
sS'ilhsm'
p2428
I104
sS'bout'
p2429
I105
sS'soccer'
p2430
I103
sS'might'
p2431
I103
sS"haven't"
p2432
I101
sS'little*'
p2433
I105
sS'good'
p2434
I43
sS'somebody'
p2435
I104
sS'sucking'
p2436
I105
sS'yo'
p2437
I98
sS'drama'
p2438
I105
sS'food'
p2439
I87
sS'it"'
p2440
I104
sS'noticing'
p2441
I105
sS'yg'
p2442
I105
sS'kunka'
p2443
I105
sS'moaning'
p2444
I105
sS'starbucks'
p2445
I104
sS'belittle'
p2446
I105
sS'foot'
p2447
I104
sS'us?\xe2\x80\x9dyessss'
p2448
I105
sS'ommmffggggg'
p2449
I105
sS'yr'
p2450
I105
sS'complain'
p2451
I103
sS'bigger'
p2452
I104
sS'sucked'
p2453
I103
sS'pregnant'
p2454
I101
sS'always'
p2455
I58
sS'decimal'
p2456
I105
sS'00:31:48.0,34.09015677,-118.01511215,4324.01,waiting'
p2457
I105
sS'its*'
p2458
I105
sS'drake'
p2459
I105
sS'pam'
p2460
I105
sS'bless'
p2461
I105
sS'tear'
p2462
I105
sS'stopped'
p2463
I105
sS'tattoo,91732\n504423291940241408,silenteyes_,2014-08-27'
p2464
I105
sS"nicole's"
p2465
I105
sS'turns'
p2466
I105
sS"6'4"
p2467
I105
sS'found'
p2468
I100
sS'repeating'
p2469
I105
sS'friendship'
p2470
I104
sS'marry'
p2471
I103
sS"isn't"
p2472
I95
sS'breakdown'
p2473
I105
sS'harm'
p2474
I105
sS'everyone'
p2475
I75
sS'mental'
p2476
I105
sS'weight'
p2477
I101
sS'eyelash'
p2478
I105
sS'house'
p2479
I98
sS'fish'
p2480
I103
sS'hard'
p2481
I85
sS'idea'
p2482
I104
sS'filet-o-fish'
p2483
I105
sS'-_-\xe2\x80\x9d'
p2484
I105
sS'callate'
p2485
I104
sS'scratching'
p2486
I104
sS"school\xe2\x80\x9dcan't"
p2487
I105
sS'beyond'
p2488
I104
sS'really'
p2489
I49
sS'porfin'
p2490
I104
sS'<>'
p2491
I105
sS'missed'
p2492
I104
sS'<<<'
p2493
I103
sS'19'
p2494
I105
sS'efrens'
p2495
I105
sS'relaxers'
p2496
I105
sS'since'
p2497
I97
sS'maze,91731\n479839453792333824,muybu3no,2014-06-20'
p2498
I105
sS'\xe2\x98\x81\xef\xb8\x8f'
p2499
I105
sS'misses'
p2500
I105
sS'health'
p2501
I103
sS'perro'
p2502
I105
sS'7'
p2503
I103
sS'bitchass'
p2504
I105
sS'nest'
p2505
I105
sS'ass'
p2506
I83
sS'waist'
p2507
I105
sS'1-2'
p2508
I105
sS'downs'
p2509
I105
sS'lawrence'
p2510
I105
sS'friday'
p2511
I97
sS'guess'
p2512
I87
sS'dayzz'
p2513
I105
sS'reason'
p2514
I103
sS'base'
p2515
I105
sS'cookie'
p2516
I105
sS'disneyland'
p2517
I93
sS'fatass'
p2518
I103
sS'imagine'
p2519
I105
sS'ask'
p2520
I96
sS'\xc3\xb8mg'
p2521
I105
sS'teach'
p2522
I105
sS'beginning'
p2523
I105
sS'bash'
p2524
I102
sS'pairs'
p2525
I105
sS'"she'
p2526
I104
sS'stay\xe2\x80\x9d'
p2527
I105
sS'inappropriately'
p2528
I105
sS'terrible'
p2529
I103
sS'uncle'
p2530
I105
sS'jelly'
p2531
I105
sS'elective'
p2532
I105
sS'w'
p2533
I101
sS'dis'
p2534
I105
sS'exercising'
p2535
I105
sS'feed'
p2536
I104
sS'dont'
p2537
I94
sS'feel'
p2538
I55
sS'crapy'
p2539
I105
sS'patience'
p2540
I105
sS'number'
p2541
I104
sS'comfy'
p2542
I105
sS'feet'
p2543
I102
sS'fucked'
p2544
I100
sS'tendremos'
p2545
I105
sS'done'
p2546
I86
sS'blank'
p2547
I105
sS'"jocelyn'
p2548
I104
sS'17:36:46.0,34.09278973,-118.02637547,4324.01,you'
p2549
I105
sS'miss'
p2550
I56
sS'visors'
p2551
I105
sS'regret'
p2552
I105
sS'la\xe2\x80\x9ddodgers'
p2553
I105
sS'passes'
p2554
I105
sS'story'
p2555
I101
sS'"'
p2556
I101
sS'ladies!lol'
p2557
I105
sS'contra'
p2558
I105
sS'them\xe2\x80\x9d'
p2559
I105
sS'lmao\xe2\x80\x9dhate'
p2560
I105
sS"gerry's"
p2561
I102
sS'gpa'
p2562
I105
sS'least'
p2563
I104
sS'tradition'
p2564
I105
sS'paint'
p2565
I102
sS'*feel*'
p2566
I105
sS'station'
p2567
I87
sS'passed'
p2568
I105
sS'dealing'
p2569
I104
sS'mama'
p2570
I104
sS'kop'
p2571
I105
sS'essays'
p2572
I105
sS'hundred'
p2573
I104
sS'headache'
p2574
I104
sS'tienes"'
p2575
I105
sS'statement'
p2576
I105
sS'relationship'
p2577
I101
sS'noooooooooooo'
p2578
I105
sS'you\xe2\x80\x9d'
p2579
I104
sS'park'
p2580
I104
sS':/me'
p2581
I105
sS"i'ma"
p2582
I105
sS'dulce'
p2583
I105
sS'mmmm'
p2584
I105
sS'sam'
p2585
I105
sS'dentist'
p2586
I105
sS'part'
p2587
I103
sS'jordan'
p2588
I105
sS'(-:\xe2\x80\x9d'
p2589
I105
sS'doctors'
p2590
I105
sS'ashley'
p2591
I105
sS'believe'
p2592
I92
sS'stairs'
p2593
I105
sS'$3'
p2594
I105
sS'center'
p2595
I105
sS'vocab'
p2596
I105
sS'king'
p2597
I103
sS'b'
p2598
I103
sS'ifyouseekammyy'
p2599
I105
sS'inuyasha'
p2600
I105
sS'jumps'
p2601
I105
sS'gotten'
p2602
I103
sS'wacko'
p2603
I105
sS'recording'
p2604
I105
sS'territorial'
p2605
I105
sS'stalk'
p2606
I105
sS'supposed'
p2607
I105
sS'doublz'
p2608
I105
sS'salazar'
p2609
I105
sS'dang'
p2610
I105
sS'treated'
p2611
I104
sS'remembers'
p2612
I105
sS'domino'
p2613
I105
sS'tongues'
p2614
I105
sS':((('
p2615
I104
sS'belated'
p2616
I105
sS'midol'
p2617
I105
sS'hungryyyyyy'
p2618
I105
sS'wasnt'
p2619
I105
sS'sssss'
p2620
I105
sS'desire"'
p2621
I105
sS'yeee'
p2622
I105
sS'paragraphs'
p2623
I105
sS'juice'
p2624
I104
sS'graffiti'
p2625
I105
sS'fiona'
p2626
I105
sS'douchebags'
p2627
I105
sS'weeeek'
p2628
I105
sS'yeet'
p2629
I105
sS'lie'
p2630
I104
sS'nights'
p2631
I103
sS'fywd'
p2632
I105
sS'para'
p2633
I104
sS'lil'
p2634
I83
sS'self'
p2635
I105
sS'couch'
p2636
I105
sS'also'
p2637
I104
sS':-(((((('
p2638
I105
sS'lip'
p2639
I104
sS'build'
p2640
I103
sS'finding'
p2641
I100
sS'irritated'
p2642
I105
sS'"people'
p2643
I105
sS'play'
p2644
I95
sS'later"'
p2645
I105
sS'quote'
p2646
I103
sS'twirl'
p2647
I105
sS'sausage'
p2648
I105
sS"sam's"
p2649
I92
sS'most'
p2650
I95
sS'off\xe2\x80\x9d'
p2651
I105
sS'arroyo,91731\n479070798670356480,muybu3no,2014-06-18'
p2652
I105
sS'nothing'
p2653
I96
sS'extremely'
p2654
I104
sS'grumpy'
p2655
I105
sS'funnier'
p2656
I105
sS'chunti'
p2657
I105
sS'kb'
p2658
I104
sS'understands'
p2659
I105
sS'muscle'
p2660
I105
sS'$250\xe2\x80\x9d'
p2661
I105
sS'17:22:10.0,34.0937112,-118.0240382,4324.01,if'
p2662
I105
sS'clear'
p2663
I104
sS'sometimes'
p2664
I103
sS'mcm'
p2665
I105
sS'uur'
p2666
I105
sS'focken'
p2667
I105
sS'storyline'
p2668
I105
sS'prettier'
p2669
I105
sS'clean'
p2670
I98
sS'\xe2\x98\x80\xef\xb8\x8f'
p2671
I105
sS'gabe'
p2672
I105
sS'17:21:33.0,34.0937112,-118.0240382,4324.01,fuck'
p2673
I105
sS'lying'
p2674
I102
sS'recruiter'
p2675
I105
sS'ugh'
p2676
I94
sS'cereal'
p2677
I105
sS'gold'
p2678
I105
sS'gates'
p2679
I104
sS'hippee'
p2680
I105
sS'grandmas'
p2681
I105
sS'violet'
p2682
I105
sS'quiereme'
p2683
I104
sS'stfu'
p2684
I98
sS'hyped'
p2685
I105
sS'eaten"-the'
p2686
I105
sS'fina'
p2687
I105
sS'ojo'
p2688
I104
sS'sweaty'
p2689
I105
sS'fine'
p2690
I103
sS'find'
p2691
I94
sS'cartoon'
p2692
I105
sS'faces'
p2693
I105
sS'impact'
p2694
I105
sS'giant'
p2695
I105
sS'$5'
p2696
I105
sS'sports>>>'
p2697
I105
sS'bff'
p2698
I103
sS'gabypaints'
p2699
I105
sS'pinche'
p2700
I103
sS'paranoid'
p2701
I105
sS'nervous'
p2702
I103
sS'"willy'
p2703
I105
sS'failed'
p2704
I103
sS'l0l'
p2705
I96
sS'buddy!!<3'
p2706
I105
sS'*smell'
p2707
I105
sS'pretty'
p2708
I94
sS'what....fuckers,91731\n479070398764437505,muybu3no,2014-06-18'
p2709
I105
sS'8'
p2710
I102
sS'circle'
p2711
I104
sS'hip'
p2712
I105
sS'suuuuckss'
p2713
I105
sS'his'
p2714
I81
sS'hit'
p2715
I101
sS'starbizzzle'
p2716
I105
sS'beat...\xe2\x80\x9d'
p2717
I105
sS'famous'
p2718
I104
sS'feels'
p2719
I98
sS'ewwwwww'
p2720
I105
sS'preparing'
p2721
I105
sS'during'
p2722
I100
sS'him'
p2723
I74
sS'typos'
p2724
I104
sS'chupa'
p2725
I105
sS'cry'
p2726
I95
sS'(via'
p2727
I104
sS'violent'
p2728
I104
sS'ahhhhh'
p2729
I105
sS'*chemestry'
p2730
I105
sS'wickeddddd'
p2731
I105
sS'croatia'
p2732
I105
sS'witches'
p2733
I105
sS'double'
p2734
I105
sS'x'
p2735
I104
sS'vincent'
p2736
I105
sS'cri'
p2737
I105
sS'cringe'
p2738
I105
sS'tourney'
p2739
I105
sS'wrote'
p2740
I104
sS'conversing'
p2741
I105
sS'magic'
p2742
I105
sS'bars'
p2743
I105
sS'set'
p2744
I101
sS'art'
p2745
I74
sS'throwing'
p2746
I105
sS'tired,91732\n504422845234282496,silenteyes_,2014-08-27'
p2747
I105
sS'00:20:22.0,34.091126,-118.0164015,4324.01,just'
p2748
I105
sS'sex'
p2749
I105
sS'tip'
p2750
I105
sS'see'
p2751
I65
sS'defense'
p2752
I103
sS'dumb'
p2753
I100
sS'are'
p2754
I46
sS'sea'
p2755
I105
sS'barf'
p2756
I105
sS'\xe2\x98\xba\xef\xb8\x8f\xe2\x98\xba\xef\xb8\x8f\xe2\x98\xba\xef\xb8\x8f\xe2\x98\xba\xef\xb8\x8f'
p2757
I104
sS'close'
p2758
I103
sS'laat'
p2759
I105
sS'iver-michicant'
p2760
I105
sS'!!\xe2\x80\x9d'
p2761
I105
sS'arm'
p2762
I105
sS'project'
p2763
I104
sS'fuuuuuuckkk'
p2764
I105
sS'creeeepy'
p2765
I105
sS'fontana'
p2766
I105
sS'movie'
p2767
I97
sS'wow'
p2768
I89
sS'currently'
p2769
I104
sS'please'
p2770
I94
sS'case'
p2771
I105
sS'won'
p2772
I104
sS'table>>>'
p2773
I105
sS'intimidated'
p2774
I105
sS'probably'
p2775
I90
sS'rlly'
p2776
I104
sS"tv's"
p2777
I105
sS'monsters'
p2778
I105
sS'piss'
p2779
I105
sS'knowing'
p2780
I103
sS'skittle'
p2781
I105
sS'genes'
p2782
I105
sS'dani'
p2783
I105
sS'missing'
p2784
I96
sS'pisses'
p2785
I105
sS'attention'
p2786
I103
sS'bak'
p2787
I105
sS'renewed'
p2788
I105
sS'growing.,91732\n504423136914591745,silenteyes_,2014-08-27'
p2789
I105
sS'pancho!\xe2\x9d\xa4\xef\xb8\x8f'
p2790
I105
sS'pissed'
p2791
I104
sS'***touch'
p2792
I105
sS'league'
p2793
I102
sS'c'
p2794
I99
sS'mom!\xe2\x9d\xa4\xef\xb8\x8f'
p2795
I105
sS'last'
p2796
I70
sS'barelt'
p2797
I105
sS'memorized'
p2798
I104
sS'secrets'
p2799
I105
sS'jocelyn'
p2800
I88
sS"wouldn't"
p2801
I101
sS'barely'
p2802
I99
sS'annie'
p2803
I105
sS'retarded'
p2804
I104
sS'witch'
p2805
I105
sS'whole'
p2806
I101
sS'blaze'
p2807
I104
sS'lanyard'
p2808
I105
sS'load'
p2809
I105
sS'hehe'
p2810
I105
sS'liked'
p2811
I104
sS'guts'
p2812
I105
sS'florida,91731\n442741676067405824,muybu3no,2014-03-09'
p2813
I105
sS'drunk'
p2814
I103
sS'reasons'
p2815
I105
sS'sweet'
p2816
I103
sS'celeste'
p2817
I105
sS'motivation'
p2818
I105
sS'whatever'
p2819
I100
sS'iphones'
p2820
I105
sS'header'
p2821
I103
sS')-'
p2822
I105
sS'likes'
p2823
I105
sS'church'
p2824
I104
sS'service/'
p2825
I105
sS'\xe2\x9d\x84\xef\xb8\x8f\xe2\x9b\x84\xef\xb8\x8f*'
p2826
I105
sS'throughout'
p2827
I105
sS'crispy'
p2828
I105
sS'goats'
p2829
I105
sS'ferrero'
p2830
I105
sS'jave'
p2831
I105
sS'289'
p2832
I105
sS'worthless'
p2833
I105
sS'mentality'
p2834
I105
sS'mikes'
p2835
I105
sS'pt'
p2836
I105
sS'duo'
p2837
I105
sS'6-2'
p2838
I105
sS'karla'
p2839
I104
sS'celix'
p2840
I105
sS'earthquake'
p2841
I104
sS'hitting'
p2842
I103
sS'00:07:33.0,34.091133,-118.016415,4324.01,first'
p2843
I105
sS'faithfully'
p2844
I105
sS'nicki'
p2845
I104
sS'damn'
p2846
I84
sS'hereeee'
p2847
I105
sS'pe'
p2848
I105
sS'bugatti'
p2849
I105
sS'meeting'
p2850
I105
sS'woke'
p2851
I94
sS'vans'
p2852
I105
sS'modern'
p2853
I105
sS'00:10:18.0,34.091133,-118.016415,4324.01,first'
p2854
I105
sS'gay'
p2855
I104
sS'sending'
p2856
I104
sS'fire'
p2857
I105
sS'raj'
p2858
I105
sS"what's"
p2859
I98
sS'5022'
p2860
I105
sS'gas'
p2861
I87
sS'else'
p2862
I102
sS'anthony'
p2863
I105
sS'awake'
p2864
I103
sS'icwht'
p2865
I105
sS'ohhh'
p2866
I105
sS'prices'
p2867
I105
sS'jell-o'
p2868
I105
sS'hynas'
p2869
I105
sS'lool'
p2870
I105
sS'fuu'
p2871
I105
sS'truuuuu'
p2872
I105
sS'look'
p2873
I77
sS'fuq'
p2874
I105
sS'solid'
p2875
I103
sS'straight'
p2876
I104
sS'bill'
p2877
I104
sS'ahah'
p2878
I105
sS'while'
p2879
I98
sS"s'bored"
p2880
I105
sS'missssss'
p2881
I105
sS'match'
p2882
I105
sS'heyy'
p2883
I105
sS'fun'
p2884
I92
sS'olmos'
p2885
I105
sS'dms'
p2886
I105
sS'robin'
p2887
I104
sS'fuh'
p2888
I103
sS'pack'
p2889
I105
sS'<3'
p2890
I104
sS'backing'
p2891
I105
sS'rip'
p2892
I104
sS'chencho'
p2893
I104
sS'jake'
p2894
I105
sS'owes'
p2895
I105
sS'beautifully'
p2896
I105
sS'ready'
p2897
I86
sS'goonies'
p2898
I105
sS'voy'
p2899
I105
sS'frown'
p2900
I105
sS'shove'
p2901
I105
sS'cuisine'
p2902
I103
sS'raiders'
p2903
I105
sS'shirt'
p2904
I101
sS'anymore'
p2905
I93
sS'james'
p2906
I105
sS"ass',91732\n516594840247611392,icameallover,2014-09-29"
p2907
I105
sS'anything\xe2\x80\x9d'
p2908
I105
sS'what?,91732\n431645231356735488,xolupee,2014-02-07'
p2909
I105
sS'copying'
p2910
I105
sS'grand'
p2911
I105
sS'9'
p2912
I104
sS'itchy'
p2913
I104
sS'higher'
p2914
I105
sS'sushiiiiii'
p2915
I105
sS'used'
p2916
I101
sS'bon'
p2917
I105
sS'malandrin'
p2918
I105
sS'mountain'
p2919
I105
sS'>:('
p2920
I105
sS'yesterday'
p2921
I98
sS'moment'
p2922
I102
sS'liquids'
p2923
I105
sS'cleaning'
p2924
I103
sS'birch'
p2925
I102
sS'chingona'
p2926
I105
sS'plugs'
p2927
I105
sS'u.u'
p2928
I105
sS'plate'
p2929
I105
sS'early'
p2930
I97
sS'lower'
p2931
I104
sS'older'
p2932
I102
sS'spent'
p2933
I103
sS'obviously'
p2934
I105
sS'person'
p2935
I86
sS'cheer'
p2936
I102
sS'itttttt'
p2937
I105
sS'inspirational'
p2938
I105
sS'kelly'
p2939
I104
sS'chemistry'
p2940
I105
sS'spend'
p2941
I101
sS'darn'
p2942
I105
sS'dieting'
p2943
I105
sS'responsible'
p2944
I105
sS'mom'
p2945
I67
sS'gunna'
p2946
I104
sS'vacuum'
p2947
I105
sS'db'
p2948
I105
sS'nuestra'
p2949
I105
sS'shape'
p2950
I103
sS'questions'
p2951
I104
sS'using'
p2952
I105
sS'jv'
p2953
I105
sS'brandon'
p2954
I105
sS'??forget'
p2955
I105
sS'meanest'
p2956
I105
sS'letting'
p2957
I104
sS'cut'
p2958
I101
sS'cus'
p2959
I105
sS'$'
p2960
I105
sS'gotsssssss'
p2961
I105
sS'truuuuuuuuuuuuuuuuuuu'
p2962
I105
sS'cuz'
p2963
I102
sS'parents'
p2964
I95
sS'buen'
p2965
I105
sS'crying'
p2966
I98
sS'homies'
p2967
I105
sS'snap'
p2968
I104
sS'cum'
p2969
I105
sS'"ombre"'
p2970
I105
sS'excited'
p2971
I92
sS'hates'
p2972
I102
sS'sandwiches'
p2973
I105
sS'bio'
p2974
I104
sS'complaint'
p2975
I105
sS'truly\xe2\x98\xba'
p2976
I105
sS'demands'
p2977
I105
sS'big'
p2978
I96
sS'showing'
p2979
I103
sS'unlimited'
p2980
I105
sS'wives'
p2981
I105
sS'shitty'
p2982
I105
sS'game'
p2983
I87
sS'girlliving'
p2984
I105
sS'guide'
p2985
I105
sS'vending'
p2986
I105
sS'bit'
p2987
I103
sS'seattle'
p2988
I105
sS'wings'
p2989
I97
sS'knock'
p2990
I105
sS'success'
p2991
I104
sS'wingstop'
p2992
I103
sS'dabari'
p2993
I105
sS'aweee<3'
p2994
I105
sS'eek'
p2995
I105
sS'gooosssssh'
p2996
I105
sS'8:34pm\xe2\x80\x9d'
p2997
I105
sS'comida'
p2998
I105
sS'buddies'
p2999
I105
sS'partying'
p3000
I105
sS'w/o'
p3001
I105
sS'tristen'
p3002
I105
sS'fucking'
p3003
I77
sS'spring'
p3004
I105
sS'1st'
p3005
I104
sS'some'
p3006
I61
sS'back'
p3007
I64
sS'bounce'
p3008
I105
sS'fernando'
p3009
I105
sS'ah'
p3010
I105
sS'litter'
p3011
I105
sS'economic'
p3012
I105
sS'mmmmm'
p3013
I104
sS'trendy'
p3014
I105
sS'pale'
p3015
I105
sS'scale'
p3016
I105
sS'"fuck'
p3017
I105
sS'contacts'
p3018
I105
sS'apush'
p3019
I105
sS'camping'
p3020
I105
sS'prom'
p3021
I103
sS'sophomores'
p3022
I105
sS'inicio'
p3023
I105
sS'yoooo'
p3024
I105
sS'pee'
p3025
I105
sS'dating'
p3026
I105
sS'prob'
p3027
I104
sS'girrrrrl'
p3028
I105
sS'either'
p3029
I102
sS'bd'
p3030
I105
sS'be'
p3031
I26
sS'bf'
p3032
I105
sS'run'
p3033
I96
sS'zzz'
p3034
I105
sS'bb'
p3035
I101
sS'bc'
p3036
I41
sS'rub'
p3037
I105
sS'word'
p3038
I104
sS'crispies'
p3039
I105
sS'eyes,91732\n504421286232477696,silenteyes_,2014-08-27'
p3040
I105
sS'chanos'
p3041
I105
sS'cholo'
p3042
I104
sS'wingstop!\xe2\x80\x9d'
p3043
I105
sS'santa'
p3044
I103
sS'bs'
p3045
I105
sS'from'
p3046
I66
sS'raider'
p3047
I105
sS'chola'
p3048
I103
sS'by'
p3049
I84
sS'nueva'
p3050
I105
sS'perf'
p3051
I105
sS'luis'
p3052
I105
sS'anything'
p3053
I90
sS'netflix'
p3054
I104
sS'"take'
p3055
I105
sS'iced'
p3056
I105
sS'graduation'
p3057
I102
sS'snickers'
p3058
I105
sS'awwww'
p3059
I104
sS'deserves'
p3060
I105
sS'ounce'
p3061
I105
sS'extensions'
p3062
I105
sS'idk'
p3063
I77
sS'post-morning'
p3064
I105
sS'mouth'
p3065
I105
sS'wanna'
p3066
I66
sS'idc'
p3067
I104
sS'silence'
p3068
I105
sS'"pau'
p3069
I105
sS'seeing'
p3070
I98
sS'david'
p3071
I105
sS'jimmy'
p3072
I105
sS'picture.\xe2\x9d\xa4\xef\xb8\x8f\xe2\x9d\xa4\xef\xb8\x8f\xe2\x9d\xa4\xef\xb8\x8f\xe2\x9d\xa4\xef\xb8\x8f'
p3073
I105
sS'significant'
p3074
I105
sS'visit'
p3075
I103
sS'into'
p3076
I100
sS'johns'
p3077
I105
sS'legglesslisa'
p3078
I105
sS'because'
p3079
I81
sS'clack'
p3080
I100
sS'faceeeee'
p3081
I105
sS'lesson'
p3082
I105
sS'stfu!!!!!!-.-'
p3083
I105
sS'smells'
p3084
I102
sS'stitches'
p3085
I105
sS'impressed'
p3086
I105
sS'b\xc3\xa9same'
p3087
I105
sS'.-'
p3088
I105
sS'sneaky'
p3089
I104
sS'spending'
p3090
I105
sS'cryinf'
p3091
I105
sS'ache'
p3092
I104
sS'question'
p3093
I103
sS'ca)'
p3094
I66
sS'fast'
p3095
I104
sS'approved'
p3096
I105
sS'clocks'
p3097
I105
sS'bios'
p3098
I105
sS'awks'
p3099
I103
sS"we're"
p3100
I102
sS'dodgers'
p3101
I104
sS'bruh'
p3102
I103
sS'forward'
p3103
I101
sS'bored'
p3104
I96
sS'scared'
p3105
I100
sS'opens'
p3106
I105
sS'bigo'
p3107
I105
sS'mountains'
p3108
I105
sS'himself'
p3109
I105
sS'jacks'
p3110
I102
sS'pucking'
p3111
I105
sS'poster'
p3112
I105
sS'dippy'
p3113
I105
sS'bottom."'
p3114
I105
sS'hoped'
p3115
I105
sS'boys'
p3116
I99
sS'link'
p3117
I104
sS'252627'
p3118
I105
sS'line'
p3119
I104
sS'\xe2\x99\xa5'
p3120
I103
sS'junior'
p3121
I104
sS'planed'
p3122
I105
sS'fdb'
p3123
I105
sS'buttsie'
p3124
I105
sS'cif'
p3125
I105
sS'consist'
p3126
I105
sS'rosemead'
p3127
I105
sS'sounds'
p3128
I102
sS'5-2'
p3129
I105
sS'fries'
p3130
I99
sS"hasn't"
p3131
I103
sS'us'
p3132
I99
sS'ur'
p3133
I83
sS'um'
p3134
I105
sS'un'
p3135
I105
sS'so.,91731\n504146318106066944,silenteyes_,2014-08-26'
p3136
I105
sS'hynaswe'
p3137
I105
sS'played'
p3138
I105
sS'doors'
p3139
I105
sS'leeeeeetttttt'
p3140
I105
sS'called'
p3141
I100
sS'bell'
p3142
I104
sS'freak'
p3143
I104
sS'prevented'
p3144
I105
sS'cover'
p3145
I105
sS'c\xc3\xa1llate'
p3146
I105
sS'merry'
p3147
I105
sS'scarlet'
p3148
I105
sS'single'
p3149
I104
sS'promises'
p3150
I105
sS'week???,91731\n492359096192876545,muybu3no,2014-07-24'
p3151
I105
sS'dre'
p3152
I105
sS'fabricating'
p3153
I105
sS'chaz'
p3154
I105
sS'hater'
p3155
I105
sS'yearbook'
p3156
I105
sS'1/2'
p3157
I105
sS'*both'
p3158
I105
sS'excused'
p3159
I105
sS'nah'
p3160
I103
sS'backs'
p3161
I105
sS'weight)'
p3162
I105
sS'bro&sis'
p3163
I105
sS'nick'
p3164
I104
sS'nap'
p3165
I98
sS'yesss'
p3166
I105
sS'tits'
p3167
I103
sS'picking'
p3168
I105
sS'pooping'
p3169
I105
sS'bleached'
p3170
I105
sS'aunt'
p3171
I105
sS'nice'
p3172
I93
sS'diets\xe2\x80\x9d'
p3173
I105
sS'draw'
p3174
I105
sS'noche'
p3175
I105
sS'wiggins'
p3176
I105
sS'booger'
p3177
I105
sS'missin'
p3178
I104
sS'problems'
p3179
I105
sS'visits'
p3180
I105
sS'helping'
p3181
I104
sS'reservation'
p3182
I105
sS'charming'
p3183
I105
sS'00:13:00.0,34.0911237,-118.0164099,4324.01,i'
p3184
I105
sS'earphones'
p3185
I104
sS'tho.\xe2\x80\x9d'
p3186
I105
sS'ago'
p3187
I105
sS'savages'
p3188
I105
sS'\xe2\x9c\x82\xef\xb8\x8f'
p3189
I105
sS'e'
p3190
I103
sS'lana'
p3191
I105
sS'-1000'
p3192
I105
sS'1-6th'
p3193
I105
sS'detach'
p3194
I105
sS'cornflower'
p3195
I105
sS'vow'
p3196
I105
sS'walked'
p3197
I104
sS'peeps'
p3198
I105
sS'2000'
p3199
I105
sS'hella'
p3200
I101
sS'karma'
p3201
I104
sS'leak'
p3202
I105
sS'far'
p3203
I102
sS"she's"
p3204
I100
sS'back"'
p3205
I105
sS'hello'
p3206
I103
sS'once'
p3207
I99
sS'semana'
p3208
I105
sS'meerkat'
p3209
I105
sS'code'
p3210
I105
sS'squats'
p3211
I104
sS'immmm'
p3212
I105
sS'albondigas'
p3213
I105
sS'cynthia'
p3214
I105
sS'quero'
p3215
I104
sS'raiddersssss'
p3216
I105
sS'gf'
p3217
I103
sS'go'
p3218
I32
sS'gn'
p3219
I105
sS'tweeted'
p3220
I105
sS'chillin'
p3221
I100
sS'tacos?\xe2\x80\x9d'
p3222
I105
sS'issues'
p3223
I105
sS'penis'
p3224
I105
sS'rtc'
p3225
I105
sS'mmhm'
p3226
I105
sS'peanut'
p3227
I105
sS'itll'
p3228
I105
sS'young'
p3229
I100
sS'send'
p3230
I100
sS'nose'
p3231
I104
sS'woohoo'
p3232
I105
sS'bruhh'
p3233
I105
sS'helps'
p3234
I104
sS'dislike'
p3235
I105
sS'glees'
p3236
I105
sS'sent'
p3237
I105
sS'*horniest'
p3238
I105
sS'wished'
p3239
I105
sS',91732\n501174858479583232,silenteyes_,2014-08-18'
p3240
I105
sS'outside'
p3241
I102
sS'dessert'
p3242
I104
sS'*sigh'
p3243
I105
sS'kitty'
p3244
I101
sS'wave'
p3245
I105
sS'forgiven'
p3246
I105
sS'anillo'
p3247
I105
sS'facebook'
p3248
I104
sS'whyyyy'
p3249
I105
sS'homework'
p3250
I105
sS'telling'
p3251
I99
sS'animals'
p3252
I105
sS'drinking'
p3253
I103
sS'areeee'
p3254
I105
sS'wipe'
p3255
I105
sS'tri'
p3256
I105
sS'uhh'
p3257
I105
sS'olaf'
p3258
I103
sS'salad'
p3259
I105
sS'forsure'
p3260
I105
sS'knight'
p3261
I104
sS'button'
p3262
I104
sS'tokyo'
p3263
I104
sS'michael'
p3264
I103
sS'ryan'
p3265
I105
sS'try'
p3266
I96
sS'tonight!\xe2\x9d\xa4\xef\xb8\x8f'
p3267
I105
sS'heineken'
p3268
I105
sS'enforce'
p3269
I105
sS'cvs/pharmacy'
p3270
I97
sS'carls'
p3271
I105
sS'strongly'
p3272
I105
sS'averaged'
p3273
I105
sS'carter'
p3274
I99
sS'bleeding'
p3275
I105
sS'finn'
p3276
I105
sS'wrestling'
p3277
I105
sS'telepathy'
p3278
I105
sS'waking'
p3279
I102
sS'jump'
p3280
I105
sS'onnnnnnn'
p3281
I105
sS'video'
p3282
I105
sS'picked'
p3283
I105
sS'immaturity'
p3284
I105
sS'ummm'
p3285
I104
sS'shhhhhhhhh'
p3286
I105
sS'pajamas'
p3287
I105
sS'submit'
p3288
I105
sS'depression'
p3289
I105
sS'graduating'
p3290
I105
sS'hot\xe2\x80\x9d'
p3291
I105
sS'cupcakes'
p3292
I105
sS'business'
p3293
I105
sS'cancha'
p3294
I105
sS'donut'
p3295
I105
sS'giving'
p3296
I102
sS'screenshots'
p3297
I105
sS'squeeze'
p3298
I105
sS'enjoyed'
p3299
I105
sS'....\xe2\x80\x9d'
p3300
I105
sS'seconds'
p3301
I105
sS'waiting'
p3302
I95
sS'twins'
p3303
I104
sS'*hours'
p3304
I105
sS'bird'
p3305
I105
sS'exercise'
p3306
I104
sS'body'
p3307
I103
sS',91732\n450002781282508800,lafinne,2014-03-29'
p3308
I105
sS'*gets'
p3309
I105
sS'punch'
p3310
I104
sS'chick'
p3311
I105
sS'youngest'
p3312
I105
sS'packing'
p3313
I105
sS'les'
p3314
I105
sS'let'
p3315
I91
sS'sink'
p3316
I105
sS'others'
p3317
I104
sS'sing'
p3318
I103
sS':***'
p3319
I105
sS'props'
p3320
I105
sS'great'
p3321
I91
sS'talent'
p3322
I105
sS'broken'
p3323
I105
sS'receive'
p3324
I105
sS'septum'
p3325
I104
sS'30'
p3326
I102
sS'36'
p3327
I105
sS'leaving'
p3328
I97
sS"weren't"
p3329
I105
sS'popcorn'
p3330
I105
sS'makes'
p3331
I89
sS'sup'
p3332
I105
sS'involves'
p3333
I105
sS'thats'
p3334
I103
sS'wig'
p3335
I105
sS'down,91731\n487677363811938304,muybu3no,2014-07-11'
p3336
I105
sS'apple'
p3337
I105
sS'win'
p3338
I103
sS'app'
p3339
I105
sS'dedicated'
p3340
I105
sS'hardy'
p3341
I105
sS'yeeeeee'
p3342
I105
sS'names'
p3343
I104
sS'dumbest'
p3344
I105
sS'greg'
p3345
I105
sS'cloud'
p3346
I105
sS'use'
p3347
I100
sS'crap'
p3348
I103
sS'stream'
p3349
I105
sS'usa'
p3350
I105
sS'&'
p3351
I60
sS'"music'
p3352
I105
sS'snacks'
p3353
I105
sS'\xe2\x99\xa5\xef\xb8\x8f'
p3354
I104
sS'next'
p3355
I84
sS'few'
p3356
I104
sS'camera'
p3357
I104
sS'coldplay'
p3358
I105
sS'chu'
p3359
I105
sS'crab'
p3360
I105
sS'save'
p3361
I105
sS'length'
p3362
I105
sS'cheeks'
p3363
I104
sS'04:26:57.0,34.08671056,-118.02018447,4324.01,girl'
p3364
I105
sS'$20'
p3365
I105
sS'babe'
p3366
I85
sS'disgust'
p3367
I105
sS'started'
p3368
I100
sS'sister'
p3369
I92
sS'confused'
p3370
I104
sS'sore'
p3371
I100
sS'chichi'
p3372
I104
sS'train'
p3373
I105
sS'says*'
p3374
I105
sS'baby'
p3375
I76
sS'*everyone'
p3376
I105
sS'zamora'
p3377
I104
sS'annoy'
p3378
I103
sS'"glamour'
p3379
I105
sS'account'
p3380
I105
sS'balls'
p3381
I105
sS'practicing'
p3382
I105
sS'pug'
p3383
I105
sS'f'
p3384
I101
sS'this'
p3385
I12
sS'ride'
p3386
I99
sS'when'
p3387
I33
sS'olympus'
p3388
I105
sS'seahawks'
p3389
I105
sS'mother\xe2\x98\xba\xef\xb8\x8f'
p3390
I105
sS'anywhere'
p3391
I105
sS'meet'
p3392
I100
sS'didnt'
p3393
I103
sS'spilled'
p3394
I105
sS'proof'
p3395
I105
sS'control'
p3396
I105
sS'boy,91731\n466713302702489601,estebannunez2,2014-05-14'
p3397
I105
sS'loca'
p3398
I104
sS'kenny'
p3399
I105
sS'math>>>'
p3400
I105
sS'thirsty'
p3401
I100
sS'monica'
p3402
I105
sS'lock'
p3403
I105
sS"tran's"
p3404
I105
sS'kobe'
p3405
I105
sS'dripping'
p3406
I105
sS'high'
p3407
I87
sS'dyed'
p3408
I105
sS'gift!\xe2\x9d\xa4\xef\xb8\x8f'
p3409
I105
sS'tag'
p3410
I104
sS'faces.\xe2\x80\x9dsame'
p3411
I105
sS'something'
p3412
I85
sS'bones'
p3413
I105
sS'wonderful'
p3414
I103
sS'tan'
p3415
I104
sS'skirt'
p3416
I104
sS'tak'
p3417
I105
sS'sis'
p3418
I105
sS'summers'
p3419
I105
sS'49%'
p3420
I105
sS'or..."'
p3421
I105
sS'sit'
p3422
I103
sS'freaken'
p3423
I105
sS'stole'
p3424
I105
sS'sorry...do'
p3425
I105
sS'tickling'
p3426
I105
sS'blessings'
p3427
I105
sS'pair'
p3428
I105
sS'complained'
p3429
I105
sS'animal'
p3430
I105
sS'instead'
p3431
I100
sS'intelligent'
p3432
I105
sS'profile'
p3433
I105
sS'fma'
p3434
I105
sS'honda'
p3435
I105
sS'one?\xe2\x80\x9dyes'
p3436
I105
sS'greaaaaaaat'
p3437
I105
sS"connor's"
p3438
I104
sS'stop'
p3439
I78
sS'highs'
p3440
I104
sS'\xc2\xa1esta'
p3441
I105
sS'fart'
p3442
I105
sS'pigs'
p3443
I105
sS'men'
p3444
I104
sS'taco'
p3445
I104
sS'hahahaha'
p3446
I105
sS'coast'
p3447
I104
sS'have****"'
p3448
I105
sS'cuddling'
p3449
I105
sS'somethin'
p3450
I105
sS'realized'
p3451
I103
sS'dolled'
p3452
I105
sS'light'
p3453
I102
sS'"be'
p3454
I105
sS'lame'
p3455
I105
sS'lines'
p3456
I105
sS'bompton'
p3457
I105
sS'soh-cah-noa'
p3458
I105
sS'efren'
p3459
I102
sS'bakery'
p3460
I105
sS'honestly'
p3461
I101
sS'realizes'
p3462
I105
sS'agenda'
p3463
I105
sS'luuuuunnnnnccch'
p3464
I105
sS'marshalls'
p3465
I105
sS'longest'
p3466
I105
sS'coming!\xe2\x9d\xa4\xef\xb8\x8f'
p3467
I105
sS'bathing'
p3468
I105
sS'huuuungry'
p3469
I105
sS'thigh'
p3470
I104
sS'gios'
p3471
I103
sS'last,91731\n492363190240428032,muybu3no,2014-07-24'
p3472
I105
sS'move'
p3473
I97
sS'churros'
p3474
I105
sS'report'
p3475
I105
sS'hugged'
p3476
I105
sS"won't"
p3477
I93
sS'looks'
p3478
I91
sS'cruise'
p3479
I105
sS'hahaaha'
p3480
I105
sS'stressed,91732\n504420522156109825,silenteyes_,2014-08-27'
p3481
I105
sS'perfect'
p3482
I100
sS'write'
p3483
I104
sS'la'
p3484
I100
sS'dancin'
p3485
I105
sS'*rewrites'
p3486
I105
sS'[pic]'
p3487
I104
sS'kindergarten'
p3488
I105
sS'degrees'
p3489
I105
sS'ooooochhhhhh'
p3490
I105
sS'orange'
p3491
I104
sS'2014'
p3492
I101
sS'bye'
p3493
I98
sS'*lovejosieeee'
p3494
I105
sS'dad'
p3495
I93
sS'seen/met'
p3496
I105
sS'ruined'
p3497
I103
sS'crash'
p3498
I103
sS'dam'
p3499
I105
sS'practice'
p3500
I97
sS'catches'
p3501
I105
sS'ship'
p3502
I104
sS'hahaah'
p3503
I105
sS'youyou'
p3504
I105
sS'cutting'
p3505
I105
sS'2white2function'
p3506
I105
sS'kiss'
p3507
I96
sS'augustus'
p3508
I105
sS'day'
p3509
I51
sS'preschool'
p3510
I105
sS'worlds'
p3511
I105
sS'10pm'
p3512
I105
sS'toes'
p3513
I105
sS'exist.\xe2\x80\x9dsame'
p3514
I105
sS'panic'
p3515
I105
sS'tran'
p3516
I104
sS'"did'
p3517
I105
sS'boots'
p3518
I105
sS'://'
p3519
I105
sS'bestfriend>>>>'
p3520
I105
sS'camt'
p3521
I105
sS'shaking'
p3522
I105
sS'|'
p3523
I105
sS'm&m'
p3524
I105
sS'glasses'
p3525
I103
sS'8('
p3526
I105
sS'8)'
p3527
I105
sS'covina'
p3528
I104
sS'mija'
p3529
I105
sS'bdubs'
p3530
I104
sS'doing'
p3531
I93
sS'adventure'
p3532
I105
sS'parties'
p3533
I104
sS'acronyms'
p3534
I105
sS'shit,91731\n492358938117939200,muybu3no,2014-07-24'
p3535
I105
sS'books'
p3536
I105
sS'our'
p3537
I91
sS'lol,91731\n487648840598560768,muybu3no,2014-07-11'
p3538
I105
sS'shannon'
p3539
I105
sS'out'
p3540
I35
sS'secretly'
p3541
I105
sS'matt'
p3542
I105
sS'gomez'
p3543
I105
sS'02:21:25.0,34.0925826,-118.0264598,4324.01,hey'
p3544
I105
sS'madurita'
p3545
I105
sS'bag'
p3546
I105
sS'elote'
p3547
I105
sS'04:13:35.0,34.0941352,-118.0212197,4324.01,lost'
p3548
I105
sS'softly'
p3549
I105
sS'barley'
p3550
I105
sS'hilarious'
p3551
I105
sS'lecture'
p3552
I105
sS'cause'
p3553
I95
sS'waters'
p3554
I105
sS'red'
p3555
I103
sS'them"'
p3556
I105
sS'shut'
p3557
I101
sS'"mom'
p3558
I105
sS'doe"'
p3559
I105
sS'dcm'
p3560
I105
sS'ipod'
p3561
I105
sS'"close"'
p3562
I105
sS'pins&trading'
p3563
I105
sS'clarify'
p3564
I105
sS'completely'
p3565
I105
sS'que'
p3566
I101
sS'ii***'
p3567
I105
sS'head>>>'
p3568
I105
sS'nor'
p3569
I105
sS'fag'
p3570
I105
sS'craving'
p3571
I102
sS'scary'
p3572
I101
sS'river'
p3573
I105
sS'hostile'
p3574
I105
sS'g'
p3575
I104
sS'spill'
p3576
I105
sS'snapchats'
p3577
I105
sS'could'
p3578
I69
sS'area'
p3579
I105
sS'heartbreaking'
p3580
I105
sS'times'
p3581
I102
sS'misssss'
p3582
I105
sS'4th'
p3583
I102
sS'shrek'
p3584
I105
sS'scare'
p3585
I105
sS'anita'
p3586
I104
sS':((((('
p3587
I104
sS'exam'
p3588
I105
sS'there'
p3589
I76
sS'yells'
p3590
I105
sS'unaware'
p3591
I105
sS'advisor'
p3592
I105
sS'jesus'
p3593
I102
sS'embarrassed'
p3594
I105
sS'fits'
p3595
I105
sS'bae\xe2\x9d\xa4\xef\xb8\x8f'
p3596
I105
sS'currrrrrr'
p3597
I105
sS'bitch'
p3598
I83
sS'reached'
p3599
I105
sS'noticed'
p3600
I103
sS'quality'
p3601
I105
sS'(efren)'
p3602
I105
sS'prank'
p3603
I105
sS"doesn't"
p3604
I83
sS'fuhh'
p3605
I105
sS'sadly'
p3606
I104
sS'10x'
p3607
I105
sS'start'
p3608
I95
sS'festival'
p3609
I105
sS'weekend\xe2\x80\x9d'
p3610
I105
sS'manzana'
p3611
I104
sS'pots'
p3612
I105
sS'yet,91731\n488075617829527552,muybu3no,2014-07-12'
p3613
I105
sS'their'
p3614
I96
sS'attack'
p3615
I104
sS'feet.\xe2\x80\x9d'
p3616
I105
sS'athletics'
p3617
I105
sS'ticklish'
p3618
I105
sS'wrapped'
p3619
I105
sS'drool'
p3620
I105
sS"me.latelyi've"
p3621
I105
sS'final'
p3622
I104
sS'burgers)'
p3623
I105
sS'stomach'
p3624
I101
sS'stars'
p3625
I104
sS'shorts'
p3626
I103
sS'nobody'
p3627
I102
sS'putos'
p3628
I104
sS'yjlmk'
p3629
I105
sS'depressing'
p3630
I103
sS'chemicals'
p3631
I105
sS'grandpa'
p3632
I104
sS'rainy'
p3633
I105
sS'skyrim'
p3634
I105
sS'july'
p3635
I104
sS'boldin'
p3636
I105
sS'neck'
p3637
I104
sS'ipad'
p3638
I105
sS'loved'
p3639
I98
sS'pre-work'
p3640
I105
sS'"god'
p3641
I105
sS'haahaha'
p3642
I105
sS'boring'
p3643
I101
sS'bother'
p3644
I104
sS'reacted'
p3645
I105
sS'bed'
p3646
I99
sS'appealing'
p3647
I105
sS'cravings'
p3648
I104
sS'loves'
p3649
I102
sS'6th'
p3650
I103
sS'leslie'
p3651
I105
sS'.........\xe2\x80\x9d'
p3652
I105
sS'bet'
p3653
I105
sS'false'
p3654
I105
sS'recesses'
p3655
I105
sS'wakes'
p3656
I105
sS"sadie's"
p3657
I105
sS'robot'
p3658
I105
sS'tonight'
p3659
I83
sS'"noooo"'
p3660
I105
sS'fuuuuuuuuu'
p3661
I105
sS'ciara_jo'
p3662
I104
sS'haha\xe2\x9d\xa4\xef\xb8\x8f'
p3663
I105
sS'have'
p3664
I28
sS'portrait'
p3665
I104
sS'need'
p3666
I48
sS'haw'
p3667
I105
sS'p.e'
p3668
I104
sS'ichy'
p3669
I105
sS'screw'
p3670
I104
sS'bastard'
p3671
I105
sS'afraid'
p3672
I104
sS'angle'
p3673
I105
sS'smallest'
p3674
I105
sS'min'
p3675
I102
sS'mia'
p3676
I105
sS'studying'
p3677
I105
sS'idol.,91731\n492362781404827648,muybu3no,2014-07-24'
p3678
I105
sS'jue'
p3679
I105
sS'able'
p3680
I101
sS'provokes'
p3681
I105
sS'bagel'
p3682
I105
sS'mix'
p3683
I104
sS'mango'
p3684
I105
sS'babes'
p3685
I104
sS'bus'
p3686
I105
sS'linda'
p3687
I105
sS'korean'
p3688
I104
sS'='
p3689
I97
sS';-*'
p3690
I105
sS'youuuu'
p3691
I105
sS';-('
p3692
I105
sS'girlies'
p3693
I105
sS'tops-'
p3694
I105
sS'zoosk'
p3695
I105
sS'unless'
p3696
I104
sS'craved'
p3697
I105
sS'aww'
p3698
I103
sS'who'
p3699
I69
sS'naranja'
p3700
I105
sS'eyeliner'
p3701
I105
sS"where's"
p3702
I103
sS'sats'
p3703
I105
sS'connected'
p3704
I105
sS'mange'
p3705
I105
sS'highschool'
p3706
I104
sS'class'
p3707
I74
sS'saves"'
p3708
I105
sS'sfa'
p3709
I105
sS'prove'
p3710
I105
sS'refreshing'
p3711
I105
sS'eachother'
p3712
I105
sS'upset'
p3713
I104
sS'thanksgiving'
p3714
I105
sS'face'
p3715
I91
sS'looked'
p3716
I101
sS"you'll"
p3717
I103
sS'whhhhhaaaaaa'
p3718
I105
sS'se'
p3719
I104
sS'pictures'
p3720
I95
sS'xavier'
p3721
I105
sS'skinny'
p3722
I101
sS'painting'
p3723
I105
sS'fact'
p3724
I104
sS'gain'
p3725
I105
sS'smile>>>'
p3726
I105
sS'text'
p3727
I85
sS'sevenpoundssoft\xe2\x80\x9d'
p3728
I105
sS'tahahaha'
p3729
I104
sS'anyway'
p3730
I104
sS'bring'
p3731
I101
sS'lloyd'
p3732
I105
sS'fear'
p3733
I104
sS'works-out'
p3734
I105
sS'wrestle'
p3735
I105
sS'envy'
p3736
I105
sS'ear'
p3737
I103
sS'"friendship"'
p3738
I105
sS'comfort'
p3739
I105
sS'craziness'
p3740
I105
sS'('
p3741
I103
sS'home\xe2\x80\x9d'
p3742
I105
sS'brighten'
p3743
I105
sS'should'
p3744
I80
sS"there's"
p3745
I91
sS"anyone's"
p3746
I105
sS'lemme'
p3747
I103
sS'06:07:02.0,34.0917555,-118.0227679,4324.01,i'
p3748
I105
sS'fuel'
p3749
I103
sS'marriage'
p3750
I105
sS'communist'
p3751
I105
sS'handsome'
p3752
I104
sS'hope'
p3753
I84
sS'meant'
p3754
I103
sS'jacqueline'
p3755
I105
sS'cube'
p3756
I105
sS'listened'
p3757
I104
sS'means'
p3758
I103
sS'beat'
p3759
I102
sS'mainly'
p3760
I105
sS'wooooow'
p3761
I105
sS'b-)'
p3762
I105
sS'lucky'
p3763
I103
sS'bear'
p3764
I104
sS'99%'
p3765
I105
sS'tbh'
p3766
I82
sS'awww'
p3767
I102
sS'this"'
p3768
I105
sS'nanananananana'
p3769
I105
sS'whusssup'
p3770
I105
sS'richards'
p3771
I105
sS'vma'
p3772
I105
sS'n\xc3\xbamero'
p3773
I105
sS'ghetto'
p3774
I104
sS'smash'
p3775
I105
sS'qt'
p3776
I105
sS'ended'
p3777
I104
sS'mate!"'
p3778
I105
sS'shy'
p3779
I105
sS'married'
p3780
I104
sS'querro'
p3781
I105
sS'taxes'
p3782
I104
sS'calling'
p3783
I104
sS'stuff'
p3784
I95
sS'she'
p3785
I71
sS'dangerous'
p3786
I105
sS'usc'
p3787
I105
sS'grad'
p3788
I105
sS'view'
p3789
I105
sS'guessing'
p3790
I105
sS'loveeeee'
p3791
I105
sS'qts'
p3792
I105
sS'prayers'
p3793
I105
sS'lazy'
p3794
I104
sS'5.3k'
p3795
I105
sS'theres'
p3796
I105
sS'desperate'
p3797
I105
sS'dragon'
p3798
I105
sS'terms'
p3799
I104
sS"this's"
p3800
I105
sS'peterson'
p3801
I105
sS'wears'
p3802
I105
sS'closer'
p3803
I104
sS'tripping'
p3804
I105
sS'braid'
p3805
I105
sS'bad,91732\n504423426086682624,silenteyes_,2014-08-27'
p3806
I105
sS'00:08:05.0,34.0911035,-118.016404,4324.01,finally'
p3807
I105
sS'luv'
p3808
I103
sS'nightmare'
p3809
I103
sS"hunter's"
p3810
I105
sS'\xe2\x80\x93pooh\xe2\x80\x9d'
p3811
I105
sS'genius'
p3812
I105
sS'state'
p3813
I104
sS'\xc2\xb7'
p3814
I105
sS"beyonce's"
p3815
I105
sS'horrible'
p3816
I99
sS'progress'
p3817
I105
sS'homeeee'
p3818
I105
sS'youll'
p3819
I105
sS'email'
p3820
I104
sS'midnight'
p3821
I105
sS'bought'
p3822
I104
sS'ends'
p3823
I104
sS'bound'
p3824
I105
sS'ability'
p3825
I105
sS'trynna'
p3826
I105
sS'underwater'
p3827
I105
sS'butts'
p3828
I105
sS'pepinos!"\xe2\x80\x9d'
p3829
I105
sS'job'
p3830
I100
sS'key'
p3831
I102
sS'jog'
p3832
I105
sS'police'
p3833
I104
sS'04:13:44.0,34.0941352,-118.0212197,4324.01,fuckin'
p3834
I105
sS'outfit'
p3835
I105
sS'selena'
p3836
I103
sS'problem'
p3837
I104
sS'staring'
p3838
I104
sS'cents'
p3839
I105
sS'hits'
p3840
I104
sS'aqui'
p3841
I105
sS'preppy'
p3842
I105
sS'joke'
p3843
I104
sS'taking'
p3844
I103
sS'classes,91732\n504420605354344448,silenteyes_,2014-08-27'
p3845
I105
sS'agree'
p3846
I105
sS'conseguir'
p3847
I105
sS'april'
p3848
I104
sS'busted'
p3849
I105
sS'atleast'
p3850
I105
sS'year>>>'
p3851
I105
sS'passing'
p3852
I101
sS'journey'
p3853
I105
sS'otherwise'
p3854
I105
sS'comment'
p3855
I104
sS'17:25:18.0,34.0944512,-118.0224622,4324.01,lelame,91731\n484436444627230720,muybu3no,2014-07-02'
p3856
I105
sS"sylvia's"
p3857
I105
sS'01:17:38.0,34.0945824,-118.0204198,4324.01,where'
p3858
I105
sS'co'
p3859
I104
sS'"now'
p3860
I105
sS'wall'
p3861
I104
sS'removal'
p3862
I105
sS'ca'
p3863
I102
sS'pong\xe2\x80\x9di'
p3864
I105
sS'walk'
p3865
I100
sS'laugh'
p3866
I101
sS'cousin'
p3867
I101
sS'disturbing'
p3868
I105
sS'respect'
p3869
I104
sS'aaaaamaziiiinnnng'
p3870
I105
sS'*peterson'
p3871
I105
sS'puffs'
p3872
I105
sS'quit'
p3873
I104
sS'yay'
p3874
I101
sS'videos'
p3875
I105
sS"it's"
p3876
I40
sS'window'
p3877
I104
sS'darren'
p3878
I105
sS'shame'
p3879
I105
sS'tutor'
p3880
I105
sS'(idk'
p3881
I105
sS'seasoned'
p3882
I105
sS'bbz'
p3883
I105
sS'bby'
p3884
I101
sS'"i\'m'
p3885
I104
sS'yooooou'
p3886
I105
sS'kitchen'
p3887
I105
sS':/\xe2\x80\x9d'
p3888
I105
sS"it'd"
p3889
I102
sS'>'
p3890
I103
sS'peeee'
p3891
I105
sS'mike'
p3892
I105
sS'thanx'
p3893
I105
sS'both'
p3894
I99
sS'peters)'
p3895
I105
sS'hmu'
p3896
I103
sS'vince'
p3897
I104
sS'crappy'
p3898
I104
sS'bulk'
p3899
I105
sS'hmm'
p3900
I105
sS'finished'
p3901
I102
sS'-.-'
p3902
I99
sS'smoking'
p3903
I105
sS"kunka's"
p3904
I105
sS'present'
p3905
I103
sS'lisa\xe2\x80\x9d'
p3906
I104
sS'sucio'
p3907
I105
sS'vanilla'
p3908
I105
sS'notebook'
p3909
I105
sS'cvs'
p3910
I104
sS'parades'
p3911
I105
sS'will'
p3912
I58
sS'monrovia'
p3913
I105
sS'ar'
p3914
I105
sS'hahaha'
p3915
I100
sS'wild'
p3916
I105
sS"nobody's"
p3917
I105
sS'frustrating'
p3918
I105
sS'~'
p3919
I105
sS'supply'
p3920
I105
sS'koreans'
p3921
I105
sS'dent'
p3922
I105
sS'annual'
p3923
I105
sS'almost'
p3924
I98
sS'vicks'
p3925
I105
sS'surprisingly'
p3926
I105
sS',91732\n512726497526693889,icameallover,2014-09-18'
p3927
I105
sS'ay'
p3928
I105
sS'luving'
p3929
I105
sS"gorbal's"
p3930
I105
sS'avi'
p3931
I104
sS'thug'
p3932
I105
sS'bucks'
p3933
I104
sS'bicken'
p3934
I105
sS'sits'
p3935
I105
sS'whore'
p3936
I102
sS'parte'
p3937
I105
sS'bionicos'
p3938
I105
sS'juan'
p3939
I104
sS'eric'
p3940
I93
sS'member'
p3941
I105
sS'strange'
p3942
I105
sS'wheel'
p3943
I105
sS'brainstorm'
p3944
I105
sS'docs'
p3945
I105
sS'inch'
p3946
I105
sS'party'
p3947
I101
sS'gets'
p3948
I96
sS'paula'
p3949
I105
sS'difficult'
p3950
I105
sS'm\xc3\xa9xico'
p3951
I105
sS'ball'
p3952
I105
sS'fangirl'
p3953
I105
sS'emotionally'
p3954
I105
sS'selfish'
p3955
I105
sS'drink'
p3956
I100
sS'fucker'
p3957
I105
sS'beast'
p3958
I103
sS'fucken'
p3959
I98
sS'hahahah'
p3960
I105
sS'student'
p3961
I103
sS'sisters'
p3962
I103
sS'whale'
p3963
I104
sS'jayden'
p3964
I105
sS'//'
p3965
I105
sS'paycheck'
p3966
I105
sS'argue'
p3967
I105
sS'off'
p3968
I80
sS'surfboard'
p3969
I105
sS'fully'
p3970
I105
sS'i'
p3971
I2
sS'well'
p3972
I95
sS'antonio'
p3973
I105
sS'thought'
p3974
I90
sS'riff'
p3975
I104
sS'oops'
p3976
I103
sS'english'
p3977
I104
sS'uno'
p3978
I105
sS'drawing'
p3979
I105
sS'latest'
p3980
I105
sS'faggots'
p3981
I105
sS',91732\n503982337160249344,icameallover,2014-08-25'
p3982
I105
sS'j-animals'
p3983
I105
sS'roberts)'
p3984
I105
sS'bedolla'
p3985
I105
sS'cried'
p3986
I105
sS'less'
p3987
I104
sS"should've"
p3988
I105
sS'gr8'
p3989
I105
sS'\xe2\x98\xbb'
p3990
I104
sS'mistakes'
p3991
I104
sS'fernandos'
p3992
I105
sS'sre'
p3993
I105
sS'graduate'
p3994
I105
sS'happiness'
p3995
I105
sS'18:03:14.0,34.0941798,-118.0232074,4324.01,lakers'
p3996
I105
sS"60's"
p3997
I105
sS'quiero'
p3998
I104
sS'field'
p3999
I104
sS'jara'
p4000
I105
sS'point'
p4001
I99
sS'sky'
p4002
I105
sS'wash'
p4003
I105
sS'hall'
p4004
I105
sS'drew'
p4005
I105
sS'battery'
p4006
I105
sS'add'
p4007
I104
sS'other'
p4008
I98
sS'attractive'
p4009
I98
sS'crack'
p4010
I105
sS'baby.\xe2\x80\x9d'
p4011
I105
sS'*about'
p4012
I105
sS'earthquakes'
p4013
I105
sS'kick'
p4014
I104
sS'confront'
p4015
I105
sS'pero'
p4016
I104
sS'government'
p4017
I105
sS'checking'
p4018
I105
sS'go.\xe2\x80\x9d'
p4019
I105
sS"who's"
p4020
I103
sS'wdihhsm'
p4021
I105
sS'kkkk'
p4022
I105
sS'five'
p4023
I104
sS'know'
p4024
I55
sS'swanson'
p4025
I104
sS'desk'
p4026
I105
sS'!\xe2\x80\x9dforgiven'
p4027
I105
sS'pies'
p4028
I105
sS'trash'
p4029
I105
sS'like'
p4030
I14
sS'lost'
p4031
I97
sS'ring'
p4032
I105
sS'tons'
p4033
I105
sS'candy'
p4034
I105
sS'fomies'
p4035
I105
sS'lose'
p4036
I103
sS'leaves'
p4037
I105
sS'works'
p4038
I104
sS'soft'
p4039
I104
sS'page'
p4040
I105
sS'virginity'
p4041
I104
sS'nigga'
p4042
I102
sS'12/12'
p4043
I105
sS'twitter'
p4044
I95
sS'*laying'
p4045
I105
sS'library'
p4046
I104
sS'immortal'
p4047
I105
sS'hair'
p4048
I83
sS'championship'
p4049
I105
sS'ggoooooooo!\xe2\x80\x9d'
p4050
I105
sS'home'
p4051
I72
sS'selener'
p4052
I105
sS'happens'
p4053
I99
sS'hoooooot'
p4054
I105
sS"gettin'"
p4055
I105
sS'albertos'
p4056
I105
sS'literally'
p4057
I95
sS'avoid'
p4058
I103
sS'separate'
p4059
I105
sS"boys'"
p4060
I105
sS'suit'
p4061
I105
sS'does'
p4062
I88
sS'board"'
p4063
I105
sS'expensive'
p4064
I105
sS'fairs/'
p4065
I105
sS'rnnn'
p4066
I105
sS'bless"'
p4067
I105
sS':(((((('
p4068
I105
sS'duh'
p4069
I105
sS'pepper'
p4070
I105
sS'noise'
p4071
I104
sS'schedule'
p4072
I105
sS"luz's"
p4073
I105
sS"maria's"
p4074
I105
sS'crossing'
p4075
I105
sS'19:08:21.0,34.0941633,-118.0231991,4324.01,lin'
p4076
I105
sS'drained'
p4077
I105
sS'frustrate'
p4078
I104
sS'paste'
p4079
I105
sS'trials'
p4080
I105
sS'stage'
p4081
I105
sS'gained'
p4082
I105
sS':-('
p4083
I103
sS':-)'
p4084
I102
sS'emails'
p4085
I105
sS'puts'
p4086
I102
sS'jesse\xe2\x80\x9dsedzz'
p4087
I105
sS'getting'
p4088
I70
sS"donald's"
p4089
I103
sS'"you'
p4090
I105
sS'done.\xe2\x80\x9d'
p4091
I105
sS'scott'
p4092
I105
sS'kourtney'
p4093
I105
sS'angeles'
p4094
I104
sS'perks'
p4095
I105
sS'swear'
p4096
I101
sS'sweat'
p4097
I105
sS'puppies'
p4098
I104
sS"tommy's"
p4099
I104
sS'dub'
p4100
I104
sS'mmm-hmmmm'
p4101
I105
sS'own'
p4102
I100
sS'in*'
p4103
I105
sS'patas'
p4104
I105
sS'snitch'
p4105
I105
sS'fck'
p4106
I105
sS'weather'
p4107
I101
sS'female'
p4108
I105
sS'registration'
p4109
I105
sS'bueno'
p4110
I104
sS'fired'
p4111
I105
sS'behind'
p4112
I105
sS'brownies'
p4113
I104
sS'better,91731\n503980254806171648,icameallover,2014-08-25'
p4114
I105
sS'museum'
p4115
I105
sS'tamborazos'
p4116
I105
sS'kidding'
p4117
I103
sS'dropping'
p4118
I105
sS'levi'
p4119
I105
sS'biggest'
p4120
I104
sS'*throws'
p4121
I105
sS'naturally'
p4122
I105
sS'ghost'
p4123
I105
sS'buy'
p4124
I101
sS"dresses'"
p4125
I105
sS'stadium'
p4126
I105
sS"i've"
p4127
I75
sS'hs'
p4128
I103
sS'brand'
p4129
I105
sS'bitches'
p4130
I102
sS'hw'
p4131
I100
sS'but'
p4132
I24
sS'astro'
p4133
I105
sS'reminds'
p4134
I104
sS'hi'
p4135
I99
sS'goals'
p4136
I104
sS'pompas'
p4137
I105
sS'bum'
p4138
I105
sS'week!:('
p4139
I105
sS'ha'
p4140
I96
sS'bug'
p4141
I101
sS'he'
p4142
I52
sS'count'
p4143
I105
sS'made'
p4144
I77
sS'tactics'
p4145
I105
sS'places'
p4146
I105
sS'wish'
p4147
I84
sS'*kennedy'
p4148
I105
sS'j'
p4149
I105
sS'flip'
p4150
I105
sS'record'
p4151
I105
sS'*wrestling'
p4152
I105
sS'condition'
p4153
I105
sS'stories'
p4154
I103
sS'c/o'
p4155
I105
sS'00:18:40.0,34.091097,-118.016415,4324.01,two'
p4156
I105
sS'faggot'
p4157
I103
sS'piece'
p4158
I104
sS'minutes'
p4159
I100
sS'hunneds'
p4160
I105
sS'skating'
p4161
I105
sS'cmon'
p4162
I105
sS'replying'
p4163
I104
sS'jenny'
p4164
I105
sS'*whistles'
p4165
I105
sS'recognize'
p4166
I105
sS'fuuuu'
p4167
I105
sS'pic'
p4168
I103
sS'clubummmmmmmmmmmm'
p4169
I105
sS'pie'
p4170
I105
sS'carefree'
p4171
I105
sS'beats'
p4172
I105
sS'periods'
p4173
I105
sS'goodness'
p4174
I105
sS'adorbs'
p4175
I105
sS'ew'
p4176
I97
sS'jesse'
p4177
I105
sS'diego'
p4178
I105
sS'compared'
p4179
I105
sS'48'
p4180
I105
sS'46'
p4181
I105
sS'dressed'
p4182
I103
sS'percent'
p4183
I105
sS'oprah'
p4184
I105
sS'lately'
p4185
I103
sS'\xe2\x9b\x85\xef\xb8\x8f'
p4186
I104
sS'book'
p4187
I99
sS'bool'
p4188
I104
sS'puppy"'
p4189
I105
sS'sick'
p4190
I95
sS'tbh\xe2\x80\x9d'
p4191
I105
sS'star'
p4192
I104
sS'monday'
p4193
I105
sS'worker'
p4194
I104
sS'june'
p4195
I105
sS'stay'
p4196
I92
sS'town'
p4197
I105
sS'geeeeze'
p4198
I105
sS'16"'
p4199
I105
sS'kinda'
p4200
I97
sS'abripperx'
p4201
I105
sS'badass'
p4202
I105
sS'bitchy'
p4203
I105
sS'friends'
p4204
I79
sS'*$400'
p4205
I105
sS'ave'
p4206
I105
sS'*hiking'
p4207
I105
sS'\xe2\x80\x93'
p4208
I105
sS'\xe2\x80\x94'
p4209
I105
sS'kardashian'
p4210
I104
sS'bolton'
p4211
I105
sS'colorado'
p4212
I105
sS'\xe2\x80\x9d'
p4213
I105
sS'4s'
p4214
I105
sS':*'
p4215
I105
sS'uneducated'
p4216
I105
sS'understand'
p4217
I100
sS'monte)'
p4218
I104
sS'oklahoma'
p4219
I105
s.