(dp0
S''
p1
I1
sS'all'
p2
I19
sS'revoke'
p3
I24
sS':)'
p4
I23
sS':*'
p5
I24
sS'monte'
p6
I19
sS'monterrey'
p7
I24
sS'(10341'
p8
I24
sS'manager'
p9
I24
sS'sleep'
p10
I23
sS'4am'
p11
I24
sS'go'
p12
I18
sS':('
p13
I24
sS'hate'
p14
I24
sS'hmmm'
p15
I24
sS'depend'
p16
I24
sS'marissa'
p17
I24
sS'imma'
p18
I23
sS'tweet'
p19
I24
sS'flash'
p20
I24
sS'23:20:38.0,34.0750162,-118.0465791,4328.01,i'
p21
I24
sS'to'
p22
I4
sS'heavens,91731\n506199585891426304,meza_thecreator,2014-08-31'
p23
I24
sS'danielle'
p24
I24
sS'lord'
p25
I24
sS'te'
p26
I24
sS'scarlett'
p27
I24
sS'mlb'
p28
I24
sS'thoooooo'
p29
I24
sS'cruising'
p30
I24
sS'worse'
p31
I24
sS'very'
p32
I24
sS'puffy'
p33
I24
sS'taquito)'
p34
I24
sS'vegas'
p35
I24
sS':x'
p36
I24
sS'bestie'
p37
I24
sS'fam'
p38
I24
sS'cool'
p39
I24
sS'school'
p40
I23
sS'brother'
p41
I24
sS'try'
p42
I24
sS'damien'
p43
I24
sS'hyu'
p44
I24
sS'uh'
p45
I24
sS'guy'
p46
I24
sS'2010.\xe2\x80\xa6'
p47
I24
sS'joey'
p48
I24
sS"i'll"
p49
I19
sS'work'
p50
I22
sS'says'
p51
I24
sS'tired'
p52
I24
sS'smfh'
p53
I24
sS'waking'
p54
I23
sS'conjuring'
p55
I24
sS'picked'
p56
I24
sS'pass'
p57
I24
sS'ummm'
p58
I24
sS'chicken'
p59
I24
sS'even'
p60
I23
sS'what'
p61
I21
sS'waa'
p62
I24
sS'pozole'
p63
I24
sS'sun'
p64
I24
sS'schedule'
p65
I24
sS'uniform'
p66
I24
sS'lights'
p67
I24
sS'waiting'
p68
I23
sS'goes'
p69
I24
sS'new'
p70
I22
sS'ever'
p71
I24
sS'public'
p72
I24
sS'drafted'
p73
I24
sS'full'
p74
I24
sS'transportation'
p75
I24
sS'"espn\'s'
p76
I24
sS'license"'
p77
I24
sS'friendship"'
p78
I24
sS'here'
p79
I23
sS'\xe2\x9d\xa4\xef\xb8\x8f'
p80
I24
sS'let'
p81
I24
sS'102'
p82
I24
sS'yummy'
p83
I24
sS'101'
p84
I24
sS'wait'
p85
I23
sS'gerry'
p86
I24
sS'great'
p87
I24
sS'kids'
p88
I24
sS'h.i.m'
p89
I24
sS'sportscenter'
p90
I24
sS'broken'
p91
I24
sS'k'
p92
I24
sS'30'
p93
I24
sS'34'
p94
I24
sS'permit'
p95
I22
sS'\xe2\x9c\x94\xef\xb8\x8f'
p96
I24
sS'weird'
p97
I24
sS'honor'
p98
I24
sS'wassup'
p99
I24
sS'love'
p100
I22
sS'campaign'
p101
I24
sS'win'
p102
I24
sS'julie'
p103
I24
sS'bro'
p104
I24
sS'motor'
p105
I21
sS'semana'
p106
I24
sS'scandal'
p107
I23
sS'cocaine'
p108
I24
sS"nick's"
p109
I24
sS'everybody'
p110
I24
sS'use'
p111
I24
sS'from'
p112
I22
sS'would'
p113
I24
sS'&'
p114
I24
sS'arms'
p115
I24
sS'next'
p116
I24
sS'ca)'
p117
I21
sS'l0l'
p118
I24
sS'call'
p119
I24
sS'taken'
p120
I24
sS'rosemead'
p121
I24
sS'tell'
p122
I24
sS'today'
p123
I16
sS'more'
p124
I20
sS'.(:,91731\n506220045186244609,meza_thecreator,2014-08-31'
p125
I24
sS'faith'
p126
I24
sS'club'
p127
I23
sS'haha'
p128
I23
sS'sister'
p129
I24
sS'phone'
p130
I23
sS'everywhere'
p131
I24
sS'aux'
p132
I24
sS'baby'
p133
I24
sS'gladly'
p134
I24
sS'hole'
p135
I24
sS'effort'
p136
I24
sS'me'
p137
I13
sS'csusb'
p138
I24
sS'g'
p139
I24
sS'hour'
p140
I23
sS'this'
p141
I17
sS'car'
p142
I23
sS'ride'
p143
I24
sS'getting'
p144
I23
sS'soul'
p145
I23
sS'mj'
p146
I24
sS'can'
p147
I22
sS'learn'
p148
I24
sS'my'
p149
I5
sS'def'
p150
I24
sS'whiskey'
p151
I24
sS'heart'
p152
I24
sS'bell'
p153
I24
sS'give'
p154
I21
sS'december'
p155
I24
sS"didn't"
p156
I24
sS'fuck'
p157
I23
sS'high'
p158
I24
sS'heard'
p159
I24
sS'want'
p160
I18
sS'blvd'
p161
I23
sS"goody's"
p162
I24
sS'true,91731\n440186466195369984,_thesportschik,2014-03-02'
p163
I24
sS'awkward'
p164
I24
sS'watching'
p165
I24
sS'freezer'
p166
I24
sS'1'
p167
I24
sS'till'
p168
I23
sS'hot'
p169
I22
sS'pure'
p170
I24
sS'instead'
p171
I24
sS'comedy'
p172
I24
sS'pizza'
p173
I24
sS'okay'
p174
I24
sS'tattoo'
p175
I24
sS'fav'
p176
I24
sS'spot'
p177
I24
sS'plane'
p178
I24
sS'mad'
p179
I24
sS'taco'
p180
I24
sS'such'
p181
I24
sS'a'
p182
I6
sS'refuse'
p183
I24
sS'maybe'
p184
I24
sS'seconds'
p185
I24
sS'feels'
p186
I24
sS'scare'
p187
I24
sS'you.,91731\n506222935946694656,meza_thecreator,2014-08-31'
p188
I24
sS'so'
p189
I14
sS'things'
p190
I24
sS'21:59:20.0,34.0749696,-118.0464475,4328.01,know'
p191
I24
sS'worst'
p192
I24
sS'pulled'
p193
I24
sS'playing'
p194
I24
sS'cute'
p195
I23
sS'acts'
p196
I24
sS'mexican'
p197
I24
sS"don't"
p198
I23
sS'over'
p199
I22
sS'5:30am'
p200
I24
sS'soon'
p201
I24
sS'course'
p202
I24
sS'scott'
p203
I24
sS'1-10'
p204
I24
sS'hell'
p205
I24
sS'still'
p206
I23
sS'its'
p207
I23
sS'ima'
p208
I23
sS'7pm/6c'
p209
I24
sS'group'
p210
I24
sS'thank'
p211
I22
sS'la'
p212
I23
sS'lo'
p213
I24
sS'sunday'
p214
I24
sS'better'
p215
I21
sS'weeks'
p216
I24
sS'bye'
p217
I23
sS'ahh'
p218
I24
sS"haven't"
p219
I23
sS'then'
p220
I23
sS'chilvary'
p221
I24
sS'good'
p222
I20
sS'food'
p223
I23
sS'workout'
p224
I24
sS'lunch'
p225
I24
sS'they'
p226
I22
sS'half'
p227
I24
sS'not'
p228
I20
sS'day'
p229
I21
sS'always'
p230
I21
sS'nfl'
p231
I24
sS'drake'
p232
I24
sS'm\xc3\xa1s'
p233
I24
sS'someone'
p234
I24
sS'went'
p235
I23
sS'hoy'
p236
I24
sS'em'
p237
I24
sS'el'
p238
I17
sS'en'
p239
I24
sS'england'
p240
I24
sS'bombskis'
p241
I24
sS'doing'
p242
I24
sS'gfs'
p243
I24
sS'yeah'
p244
I22
sS'books'
p245
I24
sS'forgot'
p246
I24
sS'our'
p247
I23
sS'girl'
p248
I23
sS'out'
p249
I23
sS'rt'
p250
I24
sS'leave'
p251
I24
sS'driving'
p252
I23
sS'pussies'
p253
I24
sS'miss'
p254
I22
sS'since'
p255
I23
sS'fuckall'
p256
I24
sS'mere'
p257
I24
sS'disick'
p258
I24
sS'daniel'
p259
I24
sS"'em"
p260
I24
sS'wayyyyy'
p261
I24
sS'got'
p262
I20
sS'rn'
p263
I23
sS'cause'
p264
I21
sS'red'
p265
I24
sS'ass'
p266
I20
sS'shut'
p267
I24
sS'dodgers'
p268
I24
sS'monster'
p269
I24
sS'downnnn'
p270
I24
sS'friday'
p271
I24
sS'free'
p272
I24
sS'yesterday'
p273
I24
sS'tarzan'
p274
I24
sS'grandma'
p275
I24
sS'wanted'
p276
I24
sS'craving'
p277
I24
sS'card'
p278
I24
sS'care'
p279
I24
sS'r2'
p280
I24
sS'could'
p281
I24
sS'moment'
p282
I24
sS'asians...asians'
p283
I24
sS'birthday'
p284
I24
sS'(at'
p285
I24
sS'think'
p286
I22
sS'first'
p287
I23
sS'too"'
p288
I24
sS'dont'
p289
I23
sS'>>'
p290
I24
sS'feel'
p291
I24
sS'number'
p292
I21
sS'one'
p293
I20
sS'sisters'
p294
I24
sS'bitch'
p295
I24
sS'vote'
p296
I24
sS'barquero'
p297
I24
sS'hehe'
p298
I24
sS'tomorrow'
p299
I22
sS'one,91731\n506202265191841792,meza_thecreator,2014-08-31'
p300
I24
sS'iam'
p301
I24
sS"you're"
p302
I23
sS'los'
p303
I24
sS'overs'
p304
I24
sS'girls'
p305
I24
sS'system'
p306
I24
sS'least'
p307
I24
sS'"smuggling'
p308
I24
sS'anyone'
p309
I24
sS'attack'
p310
I24
sS'2'
p311
I24
sS'dumbass'
p312
I24
sS'too'
p313
I17
sS'passed'
p314
I22
sS'master'
p315
I24
sS'\xc2\xa0-via'
p316
I24
sS'22:09:59.0,34.0751362,-118.0466863,4328.01,i'
p317
I24
sS'williams'
p318
I23
sS'much"'
p319
I24
sS'lot'
p320
I24
sS'that'
p321
I17
sS'helloooo'
p322
I24
sS'gym'
p323
I24
sS'horchata'
p324
I24
sS'negro'
p325
I24
sS'cops'
p326
I24
sS'part'
p327
I24
sS'nahh'
p328
I24
sS'theater'
p329
I24
sS'july'
p330
I24
sS'than'
p331
I22
sS'10'
p332
I24
sS'babys'
p333
I24
sS'12'
p334
I24
sS'17'
p335
I24
sS'boring'
p336
I24
sS'gotta'
p337
I23
sS'packed'
p338
I24
sS'ihop'
p339
I24
sS'over-controlling'
p340
I24
sS'schooled'
p341
I24
sS'college'
p342
I24
sS'feeling'
p343
I23
sS'anyways'
p344
I24
sS'and'
p345
I12
sS'overdosing'
p346
I24
sS'esto'
p347
I24
sS'sad'
p348
I24
sS'say'
p349
I22
sS'brawny'
p350
I24
sS'have'
p351
I21
sS'need'
p352
I21
sS'seen'
p353
I24
sS'breakfast'
p354
I24
sS'mins'
p355
I24
sS'longgggggggg'
p356
I24
sS'ray'
p357
I21
sS'ratings'
p358
I24
sS'bae'
p359
I24
sS'congrats'
p360
I23
sS'sucks!"'
p361
I24
sS'-'
p362
I19
sS'also'
p363
I24
sS'hookah'
p364
I24
sS'take'
p365
I22
sS'sonics'
p366
I24
sS'rides'
p367
I24
sS'liz'
p368
I24
sS'who'
p369
I24
sS'addict'
p370
I24
sS'why'
p371
I23
sS'icon'
p372
I24
sS'forever'
p373
I24
sS'treats'
p374
I24
sS'medical'
p375
I23
sS'later'
p376
I24
sS'drive'
p377
I21
sS'face'
p378
I24
sS'freeway'
p379
I24
sS'definitely'
p380
I24
sS'clean'
p381
I24
sS'movie'
p382
I24
sS'(el'
p383
I21
sS'wow'
p384
I24
sS'fact'
p385
I24
sS'show'
p386
I24
sS'text'
p387
I24
sS'queen'
p388
I24
sS'itcause'
p389
I24
sS'bring'
p390
I24
sS'wetter'
p391
I24
sS'earth'
p392
I24
sS'fear'
p393
I24
sS'ayee'
p394
I24
sS'('
p395
I24
sS'treasure'
p396
I24
sS',91731\n506223936002981889,meza_thecreator,2014-08-31'
p397
I24
sS'enough'
p398
I24
sS'should'
p399
I24
sS'only'
p400
I23
sS'going'
p401
I22
sS'pretty'
p402
I24
sS'chipotle'
p403
I24
sS'posted'
p404
I21
sS'hope'
p405
I22
sS'lady'
p406
I24
sS'do'
p407
I23
sS'his'
p408
I23
sS'hit'
p409
I24
sS'get'
p410
I17
sS'de'
p411
I24
sS'watch'
p412
I23
sS'kind'
p413
I24
sS'tbh'
p414
I23
sS'awww'
p415
I24
sS'lighter'
p416
I24
sS'despite'
p417
I24
sS'pavs'
p418
I24
sS'dr'
p419
I23
sS'him'
p420
I23
sS'bar'
p421
I24
sS'married'
p422
I24
sS'stupid'
p423
I24
sS'she'
p424
I22
sS'tbfh'
p425
I24
sS'through'
p426
I24
sS'bal'
p427
I24
sS'where'
p428
I23
sS'looks'
p429
I24
sS'concert'
p430
I23
sS'cin'
p431
I24
sS'see'
p432
I23
sS'kicked'
p433
I24
sS'dumb'
p434
I24
sS'are'
p435
I14
sS'kanye'
p436
I24
sS'ur'
p437
I23
sS'best'
p438
I22
sS'ranker'
p439
I24
sS'crystal'
p440
I24
sS'pictures'
p441
I24
sS'away'
p442
I23
sS'mayor'
p443
I24
sS'meeeeee'
p444
I24
sS'3'
p445
I23
sS'a.m'
p446
I24
sS'probably'
p447
I24
sS'bought'
p448
I24
sS'knowing'
p449
I24
sS'we'
p450
I20
sS'never'
p451
I24
sS'dmv'
p452
I19
sS'god'
p453
I24
sS'joy'
p454
I24
sS'were'
p455
I24
sS'jo'
p456
I24
sS'coffee'
p457
I24
sS'wtf'
p458
I24
sS'cousin'
p459
I24
sS'hills'
p460
I24
sS'isotopes'
p461
I24
sS'cop'
p462
I24
sS'last'
p463
I22
sS'restaurant'
p464
I24
sS'many'
p465
I24
sS'fivestars'
p466
I24
sS"he's"
p467
I24
sS'nats'
p468
I24
sS'became'
p469
I24
sS'interesting'
p470
I24
sS"can't"
p471
I23
sS'load'
p472
I24
sS'point'
p473
I24
sS'gooooo'
p474
I24
sS'cemetery'
p475
I24
sS'cd'
p476
I24
sS'60'
p477
I24
sS'sing'
p478
I24
sS'tony'
p479
I24
sS"wouldn't"
p480
I24
sS'pierdas'
p481
I24
sS'"you'
p482
I24
sS"it's"
p483
I22
sS'been'
p484
I24
sS'much'
p485
I24
sS'damn'
p486
I23
sS'life'
p487
I23
sS'crying'
p488
I24
sS'gay'
p489
I23
sS'fire'
p490
I24
sS"what's"
p491
I23
sS'homies'
p492
I24
sS'17:40:49.0,34.08061413,-118.04497394,4328.01,you'
p493
I24
sS'-.-'
p494
I24
sS'palladium'
p495
I23
sS'those'
p496
I24
sS'chill'
p497
I24
sS'sound'
p498
I24
sS'casa'
p499
I24
sS'look'
p500
I23
sS'these'
p501
I21
sS'caughtup'
p502
I24
sS'seee'
p503
I24
sS'smile'
p504
I24
sS'will'
p505
I22
sS'texas'
p506
I24
sS'voice'
p507
I24
sS'robin'
p508
I23
sS'chilling'
p509
I24
sS'jenni'
p510
I24
sS'almost'
p511
I24
sS'is'
p512
I10
sS'it'
p513
I14
sS'fakes'
p514
I24
sS'cant'
p515
I23
sS'vs'
p516
I24
sS'im'
p517
I24
sS'\xc2\xbffue'
p518
I24
sS'in'
p519
I7
sS'ready'
p520
I24
sS'5\xe2\x83\xa3\xe2\xad\x90\xef\xb8\x8f'
p521
I24
sS'seem'
p522
I24
sS'whore'
p523
I24
sS'if'
p524
I21
sS'funny'
p525
I23
sS'handsome'
p526
I24
sS'cafe'
p527
I24
sS'pay'
p528
I23
sS'make'
p529
I24
sS'honk'
p530
I24
sS'ya'
p531
I24
sS'emojis'
p532
I24
sS'week'
p533
I24
sS'tipsy'
p534
I24
sS'1-3'
p535
I24
sS'arden'
p536
I23
sS'hang'
p537
I24
sS'drives'
p538
I24
sS'(4000'
p539
I24
sS'fucken'
p540
I23
sS'jealous'
p541
I24
sS"rivera's"
p542
I24
sS'totally'
p543
I24
sS"i'm"
p544
I12
sS'kid'
p545
I24
sS'off'
p546
I24
sS'me..learn'
p547
I24
sS'i'
p548
I2
sS'spent'
p549
I24
sS'person'
p550
I24
sS'the'
p551
I3
sS'clearance'
p552
I24
sS'summer'
p553
I23
sS'\xe2\x98\xba\xef\xb8\x8f'
p554
I24
sS'just'
p555
I17
sS'moments'
p556
I24
sS'photo'
p557
I21
sS'gunna'
p558
I24
sS'hands'
p559
I24
sS'sleepy'
p560
I24
sS'thanks'
p561
I24
sS'questions'
p562
I24
sS'yes'
p563
I23
sS'baldwin'
p564
I24
sS'yet'
p565
I24
sS'til'
p566
I24
sS'death'
p567
I24
sS'family'
p568
I23
sS'thinking'
p569
I23
sS'rose'
p570
I24
sS'supply'
p571
I24
sS'had'
p572
I22
sS'cuz'
p573
I24
sS'parents'
p574
I24
sS'easy'
p575
I24
sS'crack'
p576
I24
sS'chilllll'
p577
I24
sS'has'
p578
I22
sS'kick'
p579
I24
sS'real'
p580
I22
sS'around'
p581
I24
sS'big'
p582
I24
sS'glamurface\xe2\x80\xa6'
p583
I24
sS'early'
p584
I23
sS'test'
p585
I24
sS'game'
p586
I23
sS'traffic'
p587
I24
sS'know'
p588
I21
sS'dish'
p589
I24
sS'world'
p590
I24
sS'railroad'
p591
I24
sS'walk'
p592
I24
sS'burnt'
p593
I24
sS'stuff'
p594
I24
sS'like'
p595
I11
sS"ain't"
p596
I24
sS'follows'
p597
I24
sS'mine~*~*~*~*~*~*~*~'
p598
I24
sS'burgers'
p599
I24
sS'ray-ray)'
p600
I24
sS'laughing'
p601
I24
sS'night'
p602
I22
sS'hung'
p603
I24
sS'become'
p604
I24
sS'toros'
p605
I24
sS'nigga'
p606
I24
sS'old'
p607
I23
sS'deal'
p608
I24
sS'people'
p609
I21
sS'fucking'
p610
I22
sS'church'
p611
I24
sS'some'
p612
I21
sS'back'
p613
I23
sS'standing'
p614
I24
sS'hair'
p615
I22
sS'pulls'
p616
I24
sS'home'
p617
I22
sS',91731\n476781110420963329,drfoodmanchew,2014-06-11'
p618
I24
sS'yesss'
p619
I24
sS'friend'
p620
I24
sS'for'
p621
I15
sS'better.the'
p622
I24
sS'deleted'
p623
I24
sS'stops'
p624
I24
sS'chips'
p625
I24
sS'everything'
p626
I22
sS'does'
p627
I24
sS'drink'
p628
I22
sS'either'
p629
I24
sS'cord'
p630
I24
sS'be'
p631
I16
sS'eating'
p632
I24
sS'asap'
p633
I24
sS'lmfao'
p634
I23
sS'dental'
p635
I24
sS'lose'
p636
I24
sS'graduates'
p637
I24
sS'how'
p638
I21
sS'bp'
p639
I24
sS'intenso'
p640
I24
sS';*'
p641
I24
sS'super'
p642
I24
sS'on'
p643
I20
sS'about'
p644
I22
sS'usa'
p645
I24
sS'anything'
p646
I22
sS'oh'
p647
I23
sS'of'
p648
I11
sS'favorite'
p649
I23
sS'awwww'
p650
I24
sS'swear'
p651
I24
sS'stand'
p652
I24
sS'wanna'
p653
I21
sS'or'
p654
I21
sS'tonights'
p655
I24
sS'swimming'
p656
I24
sS'nerve'
p657
I24
sS'whats'
p658
I24
sS'into'
p659
I22
sS'down'
p660
I22
sS'bats'
p661
I24
sS'mikey'
p662
I24
sS'your'
p663
I18
sS'brakes'
p664
I24
sS'her'
p665
I17
sS'weekend'
p666
I24
sS'live'
p667
I24
sS'lol'
p668
I11
sS'generation'
p669
I24
sS'mondays'
p670
I24
sS'way'
p671
I22
sS'biggest'
p672
I24
sS'valley'
p673
I22
sS'was'
p674
I18
sS'happy'
p675
I24
sS'allback'
p676
I24
sS'invite'
p677
I23
sS'bore'
p678
I24
sS'bus'
p679
I24
sS'but'
p680
I18
sS'whatsup'
p681
I24
sS'line'
p682
I21
sS'trying'
p683
I24
sS'with'
p684
I17
sS'he'
p685
I22
sS'pull'
p686
I24
sS"wasn't"
p687
I24
sS'fries'
p688
I24
sS'up'
p689
I18
sS'until'
p690
I24
sS'planet'
p691
I24
sS'record'
p692
I23
sS'catching'
p693
I24
sS'lays'
p694
I24
sS'right,91731\n506189187750842368,meza_thecreator,2014-08-31'
p695
I24
sS'faded'
p696
I24
sS'whey'
p697
I24
sS'called'
p698
I24
sS'ray-ray'
p699
I23
sS'wifi'
p700
I24
sS'gona'
p701
I24
sS'af'
p702
I23
sS'taquito'
p703
I22
sS'year'
p704
I24
sS'am'
p705
I24
sS'deep'
p706
I24
sS'an'
p707
I22
sS'as'
p708
I24
sS'at'
p709
I9
sS'annoying'
p710
I24
sS'check'
p711
I21
sS'shit'
p712
I22
sS'again'
p713
I23
sS'\xe4\xb9\x9d\xe9\xbe\x8d\xe5\x86\xb0\xe5\xae\xa4'
p714
I24
sS'lemon'
p715
I24
sS'spit'
p716
I24
sS'no'
p717
I19
sS'when'
p718
I20
sS'=)'
p719
I24
sS'other'
p720
I24
sS'yummmm'
p721
I24
sS'department'
p722
I21
sS'tie'
p723
I24
sS'you'
p724
I8
sS'really'
p725
I22
sS'23:36:06.0,34.0750564,-118.0466987,4328.01,ass'
p726
I24
sS'nice'
p727
I24
sS'picture'
p728
I24
sS'monday'
p729
I23
sS'yeeeeeeeeee'
p730
I24
sS'altamed'
p731
I24
sS'-__-'
p732
I24
sS'annabelle'
p733
I24
sS"let's"
p734
I24
sS'scale'
p735
I24
sS'wechat'
p736
I24
sS'\xe2\x9a\xbe\xe2\x9a\xbe\xe2\x9a\xbe'
p737
I24
sS'friends'
p738
I23
sS'freeways'
p739
I24
sS'\xe2\x80\x93'
p740
I24
sS'8:15'
p741
I24
sS'vehicles'
p742
I21
sS'u'
p743
I21
sS'time'
p744
I20
sS"she's"
p745
I24
sS'monte)'
p746
I23
sS'having'
p747
I22
s.