(dp0
S''
p1
I2
sS'edc'
p2
I31
sS'all'
p3
I23
sS'coach'
p4
I33
sS':('
p5
I33
sS':)'
p6
I33
sS'sce'
p7
I32
sS'beware'
p8
I33
sS'yonc\xc3\xa9'
p9
I33
sS'month'
p10
I32
sS'betch'
p11
I33
sS'burritos'
p12
I33
sS'asian'
p13
I33
sS'go'
p14
I29
sS'shot'
p15
I32
sS'chair'
p16
I33
sS'chillin'
p17
I33
sS'(in'
p18
I33
sS'hmmm'
p19
I33
sS'relationships'
p20
I33
sS'niceeeeee:)'
p21
I33
sS'prom?party'
p22
I33
sS'tweet'
p23
I33
sS'tu'
p24
I32
sS'misses'
p25
I33
sS'laughing'
p26
I33
sS'enriquece'
p27
I33
sS'to'
p28
I4
sS'finally'
p29
I31
sS'sorry'
p30
I33
sS'enjoying'
p31
I33
sS'worth'
p32
I33
sS'fly'
p33
I33
sS'labels'
p34
I33
sS'song'
p35
I33
sS'very'
p36
I31
sS'horror'
p37
I33
sS'superfreak'
p38
I33
sS'choice'
p39
I33
sS'clitteraly'
p40
I33
sS'every'
p41
I32
sS'locked'
p42
I33
sS'ticket'
p43
I30
sS'blast'
p44
I33
sS'hooker'
p45
I33
sS'school'
p46
I29
sS'hour'
p47
I33
sS'did'
p48
I33
sS'chick-fil-a'
p49
I33
sS'georgie'
p50
I33
sS'list'
p51
I33
sS'gaga.;)'
p52
I33
sS'weekend!\xe2\x80\xa6'
p53
I33
sS'leave'
p54
I33
sS'soooo'
p55
I33
sS'settle'
p56
I33
sS'oooh'
p57
I33
sS'guy'
p58
I32
sS'ride'
p59
I33
sS'clothes'
p60
I33
sS'enjoy'
p61
I32
sS'olympic'
p62
I33
sS'revolution'
p63
I33
sS'force'
p64
I33
sS'crabulous'
p65
I31
sS'270'
p66
I33
sS'second'
p67
I31
sS'pass'
p68
I33
sS'nbc'
p69
I33
sS'...for'
p70
I33
sS'odd'
p71
I33
sS'others)'
p72
I33
sS'firetwerks'
p73
I33
sS'even'
p74
I30
sS'edison'
p75
I23
sS'hate'
p76
I33
sS'crush'
p77
I33
sS'sarachi'
p78
I32
sS'waiting'
p79
I33
sS'tranglovestang'
p80
I33
sS'goes'
p81
I32
sS'evey'
p82
I33
sS'new'
p83
I29
sS'learned'
p84
I33
sS'ever'
p85
I32
sS'public'
p86
I33
sS'era'
p87
I33
sS'supporting'
p88
I32
sS'almansor'
p89
I33
sS'months'
p90
I33
sS'never'
p91
I33
sS'here'
p92
I30
sS'plz'
p93
I33
sS'water'
p94
I33
sS'met'
p95
I33
sS'empobrece'
p96
I33
sS'let'
p97
I32
sS"'bye"
p98
I33
sS'others'
p99
I31
sS"hadn't"
p100
I33
sS'sexy'
p101
I33
sS'earthquake'
p102
I33
sS'change'
p103
I29
sS'wait'
p104
I24
sS'sheyt'
p105
I33
sS'boy'
p106
I30
sS'great'
p107
I30
sS'kids'
p108
I31
sS'canoga'
p109
I33
sS'brilliant'
p110
I33
sS'didnt'
p111
I33
sS'changed'
p112
I33
sS'funded'
p113
I33
sS'lakers'
p114
I33
sS'later'
p115
I33
sS'5ever'
p116
I32
sS'periodic'
p117
I33
sS'hby'
p118
I33
sS'boo'
p119
I33
sS'que'
p120
I33
sS"i'm"
p121
I8
sS"someone's"
p122
I33
sS'omggggg'
p123
I33
sS'delays'
p124
I33
sS'thats'
p125
I33
sS'love'
p126
I23
sS'hiking'
p127
I33
sS'prefer'
p128
I33
sS'till'
p129
I33
sS'names'
p130
I33
sS'cheerleader'
p131
I33
sS'fbi'
p132
I33
sS'sugar'
p133
I32
sS'post'
p134
I33
sS'golf'
p135
I33
sS'yourself'
p136
I33
sS'kimmel'
p137
I33
sS'from'
p138
I29
sS'fucccck'
p139
I33
sS'would'
p140
I28
sS'&'
p141
I33
sS'give'
p142
I33
sS'texting'
p143
I32
sS'two'
p144
I32
sS'france'
p145
I33
sS'baee'
p146
I32
sS'live'
p147
I32
sS'wayne'
p148
I33
sS'music'
p149
I32
sS'pumped!\xe2\x80\xa6'
p150
I33
sS'cutes'
p151
I33
sS'thru'
p152
I33
sS'type'
p153
I33
sS'tell'
p154
I32
sS'today'
p155
I23
sS'more'
p156
I30
sS'door'
p157
I32
sS'knows'
p158
I33
sS'holy'
p159
I31
sS'company'
p160
I33
sS'haha'
p161
I25
sS'sister'
p162
I33
sS'unintelligent'
p163
I33
sS'trail'
p164
I32
sS'small\xe2\x80\xa6'
p165
I33
sS"ain't"
p166
I33
sS'goods'
p167
I33
sS'baby'
p168
I29
sS'dragonboat'
p169
I33
sS'dislike'
p170
I33
sS'glad'
p171
I33
sS'women'
p172
I33
sS'me'
p173
I10
sS'ma'
p174
I33
sS'room'
p175
I33
sS'sanctified'
p176
I33
sS'this'
p177
I18
sS'car'
p178
I31
sS'latching'
p179
I33
sS'work'
p180
I32
sS'sucks'
p181
I33
sS'locker'
p182
I33
sS'cuddle'
p183
I33
sS'can'
p184
I25
sS'mr'
p185
I33
sS'meet'
p186
I33
sS'male'
p187
I33
sS'my'
p188
I6
sS'100%'
p189
I33
sS'lifesavers'
p190
I33
sS'numbers'
p191
I33
sS'beautiful'
p192
I33
sS'heart'
p193
I33
sS'compare'
p194
I33
sS"schneier's"
p195
I33
sS'picture'
p196
I33
sS'goood'
p197
I33
sS'mussst'
p198
I33
sS'process'
p199
I33
sS'lock'
p200
I33
sS'awesome'
p201
I33
sS"didn't"
p202
I31
sS'fuck'
p203
I32
sS'terrible'
p204
I33
sS'dm'
p205
I33
sS'something'
p206
I31
sS'want'
p207
I26
sS'sense'
p208
I33
sS'blvd'
p209
I33
sS'honest'
p210
I33
sS'trumpet'
p211
I33
sS'huge'
p212
I33
sS'needs'
p213
I32
sS'hoe'
p214
I33
sS'ayyyyeee'
p215
I32
sS'goal'
p216
I32
sS'complaining'
p217
I32
sS'dress'
p218
I33
sS'get'
p219
I23
sS'how'
p220
I29
sS'sunday'
p221
I32
sS'knoooow'
p222
I33
sS'fourth'
p223
I33
sS'instead'
p224
I32
sS'comedy'
p225
I33
sS'beach'
p226
I32
sS'noctornal'
p227
I32
sS'flavored'
p228
I33
sS'simplicity'
p229
I33
sS'sandwich'
p230
I32
sS'laundry'
p231
I33
sS'tried'
p232
I33
sS'may'
p233
I33
sS'aubervilliers'
p234
I33
sS'after'
p235
I29
sS'southern'
p236
I23
sS'sophistication'
p237
I33
sS'wrong'
p238
I32
sS'birthday'
p239
I31
sS'coming'
p240
I32
sS'date'
p241
I31
sS'end'
p242
I33
sS'guys'
p243
I33
sS'excited'
p244
I33
sS'a'
p245
I5
sS'stress'
p246
I33
sS'remember'
p247
I33
sS"tac's"
p248
I33
sS'read'
p249
I33
sS'maybe'
p250
I31
sS'maniaxs'
p251
I33
sS'headquarters'
p252
I23
sS'tysm'
p253
I33
sS'6917'
p254
I33
sS'so'
p255
I18
sS'ultimate'
p256
I33
sS'holidays'
p257
I33
sS'facebook'
p258
I33
sS'sa'
p259
I33
sS'playing'
p260
I31
sS'talk'
p261
I32
sS"that's"
p262
I33
sS'cute'
p263
I27
sS'six'
p264
I33
sS'mexican'
p265
I33
sS'office'
p266
I32
sS"don't"
p267
I25
sS'over'
p268
I32
sS'haircut'
p269
I33
sS'sooo'
p270
I33
sS'industrial'
p271
I33
sS'through'
p272
I31
sS'looks'
p273
I33
sS'still'
p274
I32
sS'its'
p275
I33
sS'perfect'
p276
I32
sS'silk'
p277
I33
sS'group'
p278
I33
sS'thank'
p279
I32
sS'la'
p280
I32
sS'pray'
p281
I33
sS'pcs'
p282
I33
sS'sexiest'
p283
I33
sS'amazing'
p284
I32
sS'drinks"'
p285
I33
sS'walnut'
p286
I25
sS'better'
p287
I31
sS'fade'
p288
I33
sS'pussy'
p289
I33
sS'imy'
p290
I33
sS'2014'
p291
I32
sS'might'
p292
I33
sS'"awes"'
p293
I33
sS'goodmorning'
p294
I33
sS'dad'
p295
I30
sS'then'
p296
I29
sS'them'
p297
I30
sS'good'
p298
I25
sS'yo'
p299
I32
sS'ya'
p300
I32
sS'dam'
p301
I33
sS'practice'
p302
I33
sS'yg'
p303
I33
sS'shuttle'
p304
I33
sS'snake'
p305
I33
sS'they'
p306
I29
sS'syikl'
p307
I33
sS'not'
p308
I24
sS'espinozasleather'
p309
I33
sS'seas'
p310
I33
sS'now'
p311
I30
sS'tourism'
p312
I33
sS'day'
p313
I22
sS'sucked'
p314
I33
sS'(2244'
p315
I25
sS'name'
p316
I32
sS'always'
p317
I31
sS'pobre'
p318
I33
sS'debating'
p319
I33
sS'm\xc3\xa1s'
p320
I33
sS'follow'
p321
I33
sS'roast'
p322
I33
sS'each'
p323
I31
sS'went'
p324
I32
sS'side'
p325
I33
sS"isn't"
p326
I32
sS'luck'
p327
I32
sS'seniors'
p328
I32
sS'el'
p329
I32
sS'everyone'
p330
I30
sS'tooooo:dd'
p331
I33
sS'chesca'
p332
I33
sS'doing'
p333
I32
sS'ollie'
p334
I33
sS'hard'
p335
I32
sS'yeah'
p336
I31
sS'taught'
p337
I33
sS'forgot'
p338
I32
sS'our'
p339
I32
sS'girl'
p340
I32
sS'beyond'
p341
I33
sS'message'
p342
I33
sS'es'
p343
I33
sS'out'
p344
I26
sS'rt'
p345
I32
sS'try'
p346
I33
sS'(at'
p347
I33
sS'blt'
p348
I33
sS'garvey'
p349
I29
sS'george'
p350
I33
sS'looking'
p351
I32
sS'mess'
p352
I33
sS'seriously'
p353
I29
sS'ypu'
p354
I33
sS'smh'
p355
I33
sS'got'
p356
I31
sS'rn'
p357
I32
sS'cause'
p358
I31
sS'correct'
p359
I33
sS'baeee'
p360
I33
sS'ass'
p361
I31
sS'wallpaper'
p362
I33
sS'turning'
p363
I33
sS'pathetic'
p364
I33
sS"you're"
p365
I28
sS'team'
p366
I33
sS'story'
p367
I33
sS'california'
p368
I22
sS'asf'
p369
I33
sS'ask'
p370
I31
sS'$380'
p371
I33
sS'marine'
p372
I33
sS'whittier'
p373
I33
sS'ate'
p374
I33
sS'recovering'
p375
I33
sS'teachers'
p376
I33
sS'awhhhh'
p377
I33
sS'"how'
p378
I33
sS'could'
p379
I32
sS'wuts'
p380
I33
sS'kiss'
p381
I33
sS'days'
p382
I30
sS'keep'
p383
I31
sS'american'
p384
I33
sS'bodhi'
p385
I33
sS'place'
p386
I33
sS'money:('
p387
I33
sS"today's"
p388
I33
sS'dangerous'
p389
I33
sS'loud'
p390
I32
sS'think'
p391
I28
sS'first'
p392
I31
sS"i'll"
p393
I33
sS'major'
p394
I33
sS'already'
p395
I31
sS'dont'
p396
I32
sS'feel'
p397
I29
sS'dries'
p398
I33
sS'one'
p399
I30
sS'peleliu'
p400
I33
sS'pop'
p401
I33
sS'done'
p402
I29
sS'bitch'
p403
I30
sS'another'
p404
I33
sS'such'
p405
I33
sS'foshow'
p406
I33
sS'booty'
p407
I33
sS'sounds'
p408
I31
sS'miss'
p409
I33
sS'tomorrow'
p410
I29
sS'hood'
p411
I33
sS'instagram'
p412
I33
sS"doesn't"
p413
I32
sS'little'
p414
I32
sS'long'
p415
I33
sS'district'
p416
I29
sS'start'
p417
I33
sS'festival'
p418
I33
sS'desk'
p419
I33
sS'system'
p420
I32
sS'anyone'
p421
I31
sS'their'
p422
I29
sS'2'
p423
I29
sS'too'
p424
I28
sS'tom'
p425
I33
sS'wrapped'
p426
I33
sS'thibodeau'
p427
I33
sS'legs'
p428
I33
sS'friend'
p429
I30
sS'listen'
p430
I32
sS'tomato'
p431
I33
sS'x)'
p432
I32
sS'relationship'
p433
I32
sS'that'
p434
I23
sS'season'
p435
I33
sS'gym'
p436
I33
sS'exactly'
p437
I33
sS'park'
p438
I28
sS'took'
p439
I33
sS'checking'
p440
I33
sS'dentist'
p441
I33
sS'quan'
p442
I33
sS'(rosemead'
p443
I30
sS'doctors'
p444
I32
sS'fooled'
p445
I33
sS'july'
p446
I33
sS'than'
p447
I32
sS'begins'
p448
I33
sS'professionals'
p449
I33
sS'observatory'
p450
I33
sS'lmao'
p451
I32
sS'kingtaco'
p452
I33
sS'18'
p453
I33
sS'yasss'
p454
I32
sS'goodnight'
p455
I33
sS'hike'
p456
I33
sS'shower'
p457
I32
sS'speaking'
p458
I33
sS'were'
p459
I32
sS'dang'
p460
I33
sS'marines'
p461
I33
sS'headache'
p462
I33
sS'and'
p463
I15
sS'm-1000'
p464
I33
sS'mind'
p465
I31
sS'few'
p466
I33
sS'sad'
p467
I31
sS'tonight'
p468
I31
sS'cryyyy'
p469
I33
sS'say'
p470
I33
sS'selling'
p471
I30
sS'have'
p472
I18
sS'need'
p473
I25
sS'breakfast'
p474
I32
sS'saw'
p475
I32
sS'kevin'
p476
I33
sS'comes('
p477
I33
sS'affairs'
p478
I33
sS'nights'
p479
I33
sS'funnny'
p480
I33
sS'congrats'
p481
I33
sS'lil'
p482
I33
sS'donkey"'
p483
I32
sS'-'
p484
I19
sS'also'
p485
I33
sS'ideal'
p486
I33
sS'omfb'
p487
I33
sS'take'
p488
I32
sS'which'
p489
I33
sS'tooo'
p490
I33
sS'finding'
p491
I33
sS'truck'
p492
I33
sS'grammys'
p493
I33
sS'youre'
p494
I33
sS'electric'
p495
I33
sS'bruce'
p496
I32
sS'knew'
p497
I32
sS'what'
p498
I29
sS'rehearsal'
p499
I32
sS'nolan'
p500
I33
sS'plan'
p501
I33
sS'awh'
p502
I33
sS'nothing'
p503
I33
sS'seasons'
p504
I33
sS'mhmmm'
p505
I33
sS'class'
p506
I32
sS'forever'
p507
I33
sS'rooms'
p508
I33
sS'especially'
p509
I33
sS'refunds'
p510
I33
sS'grove'
p511
I25
sS'bubba'
p512
I33
sS'proud'
p513
I33
sS'drive'
p514
I33
sS'order'
p515
I33
sS'sexier'
p516
I33
sS'crytolocker'
p517
I33
sS'hear'
p518
I33
sS'senior'
p519
I33
sS"espinoza's"
p520
I33
sS'review'
p521
I32
sS'joining'
p522
I33
sS"niggar'"
p523
I33
sS'advisory'
p524
I33
sS'ugh'
p525
I33
sS'bomb'
p526
I31
sS'hunger'
p527
I33
sS'text'
p528
I31
sS'5real'
p529
I33
sS'butt'
p530
I33
sS'wanting'
p531
I33
sS'stfu'
p532
I33
sS'sneaking'
p533
I33
sS'turnbull'
p534
I33
sS'feat'
p535
I33
sS'find'
p536
I33
sS'ha'
p537
I33
sS'based'
p538
I33
sS'('
p539
I27
sS'weekends'
p540
I33
sS'dick'
p541
I33
sS'enough'
p542
I33
sS'should'
p543
I31
sS'gurrrl'
p544
I33
sS'rico'
p545
I32
sS'only'
p546
I30
sS'going'
p547
I29
sS'tape'
p548
I33
sS'combo'
p549
I33
sS'crab)'
p550
I33
sS'hope'
p551
I30
sS'physco'
p552
I33
sS'do'
p553
I29
sS'ties'
p554
I33
sS'his'
p555
I32
sS'watching'
p556
I32
sS'goodluck'
p557
I33
sS'stop'
p558
I32
sS'tbh'
p559
I31
sS'feels'
p560
I32
sS'ones'
p561
I32
sS'nearly'
p562
I33
sS'ira'
p563
I33
sS'du'
p564
I33
sS'chips'
p565
I33
sS'him'
p566
I31
sS'celebrate'
p567
I33
sS'leather'
p568
I33
sS'rosemead)'
p569
I24
sS'clinic'
p570
I33
sS'morning'
p571
I31
sS'bad'
p572
I30
sS'bae'
p573
I29
sS'she'
p574
I30
sS'gotten'
p575
I33
sS'yassss'
p576
I33
sS"won't"
p577
I33
sS'where'
p578
I32
sS'gotta'
p579
I33
sS'"wardrobe'
p580
I33
sS'happen'
p581
I33
sS'mandatory'
p582
I33
sS'w/'
p583
I30
sS'intelligence'
p584
I33
sS'sex'
p585
I32
sS'see'
p586
I30
sS'korea'
p587
I33
sS'college'
p588
I33
sS'are'
p589
I22
sS'seam'
p590
I33
sS'close'
p591
I33
sS'best'
p592
I32
sS'said'
p593
I32
sS'(8966'
p594
I33
sS'destiny'
p595
I33
sS'crawfish'
p596
I33
sS'away'
p597
I31
sS'currently'
p598
I33
sS'please'
p599
I32
sS'21+'
p600
I33
sS'3'
p601
I32
sS'gaga'
p602
I33
sS'probably'
p603
I33
sS'decorate'
p604
I33
sS'available'
p605
I33
sS'we'
p606
I27
sS'gradnight'
p607
I32
sS'omg'
p608
I33
sS'wears'
p609
I33
sS'escandalosa'
p610
I33
sS'cake'
p611
I33
sS'yasssssssss'
p612
I33
sS'wtf'
p613
I33
sS'hurts'
p614
I33
sS'kev'
p615
I33
sS'come'
p616
I32
sS'hours'
p617
I33
sS'feeling'
p618
I33
sS'superstar'
p619
I33
sS'many'
p620
I30
sS'ill'
p621
I33
sS'perfff'
p622
I33
sS'hotel?!"'
p623
I33
sS'amateurs'
p624
I33
sS'became'
p625
I33
sS'games'
p626
I32
sS'alot'
p627
I33
sS'china'
p628
I33
sS'hangout'
p629
I33
sS'brah'
p630
I32
sS'6001st'
p631
I33
sS'asked'
p632
I33
sS"can't"
p633
I28
sS'mortified'
p634
I33
sS'drunk'
p635
I31
sS'gooooo'
p636
I33
sS'seems'
p637
I33
sS'cuando'
p638
I32
sS'community'
p639
I30
sS'running'
p640
I33
sS'*super'
p641
I33
sS'non'
p642
I33
sS'learning'
p643
I33
sS'sing'
p644
I33
sS'kings'
p645
I32
sS'croacia'
p646
I33
sS'tranformers'
p647
I33
sS'considering'
p648
I33
sS'malfunction"'
p649
I33
sS'temecula'
p650
I33
sS'light'
p651
I33
sS'beef'
p652
I33
sS'agree'
p653
I33
sS"it's"
p654
I26
sS'cannons'
p655
I33
sS'lmfaaaao'
p656
I33
sS'been'
p657
I31
sS'baseball'
p658
I33
sS'beep'
p659
I33
sS'$300'
p660
I32
sS'damn'
p661
I31
sS'willl'
p662
I33
sS'pile'
p663
I33
sS'meeting'
p664
I33
sS'annoying'
p665
I33
sS'woke'
p666
I33
sS'life'
p667
I30
sS"where's"
p668
I33
sS'wanna'
p669
I33
sS'gay'
p670
I33
sS'vinegar'
p671
I33
sS'fire'
p672
I33
sS'hmu'
p673
I31
sS"what's"
p674
I33
sS'gradnite'
p675
I33
sS'else'
p676
I31
sS'hmm'
p677
I33
sS'tfti'
p678
I33
sS'comfortable'
p679
I33
sS'those'
p680
I31
sS'sound'
p681
I33
sS'wood'
p682
I33
sS'wins'
p683
I33
sS'kevinw0lff'
p684
I33
sS'look'
p685
I31
sS'talking'
p686
I33
sS'these'
p687
I31
sS'straight'
p688
I33
sS'worried'
p689
I33
sS'single'
p690
I33
sS'air'
p691
I33
sS'will'
p692
I32
sS'w'
p693
I33
sS'while'
p694
I32
sS'ratchet'
p695
I33
sS"haven't"
p696
I33
sS'hahaha'
p697
I33
sS'fun'
p698
I31
sS'herr'
p699
I33
sS'huffington'
p700
I33
sS'2night'
p701
I33
sS'pound'
p702
I33
sS'helllllo'
p703
I33
sS'is'
p704
I9
sS'it'
p705
I15
sS'someone'
p706
I27
sS'im'
p707
I32
sS'in'
p708
I13
sS'ready'
p709
I33
sS'ave'
p710
I24
sS'throwing'
p711
I33
sS'$huffle'
p712
I33
sS'alone'
p713
I33
sS'everyday'
p714
I33
sS'if'
p715
I23
sS'yassssss'
p716
I33
sS'intense'
p717
I33
sS'shooting'
p718
I33
sS'anymore'
p719
I33
sS'nike'
p720
I33
sS')'
p721
I31
sS'barnes'
p722
I33
sS'make'
p723
I31
sS'same'
p724
I27
sS'food'
p725
I33
sS"i'd"
p726
I33
sS'hey'
p727
I33
sS'grand'
p728
I33
sS'9'
p729
I31
sS'party'
p730
I32
sS'krebs'
p731
I33
sS'wheel'
p732
I33
sS'"you'
p733
I33
sS'sacramento'
p734
I33
sS'alert'
p735
I33
sS'kik'
p736
I33
sS'fucken'
p737
I33
sS'waterfall'
p738
I33
sS'moving'
p739
I33
sS'sisters'
p740
I33
sS'sandals'
p741
I33
sS'weird'
p742
I33
sS'kid'
p743
I33
sS'c-4'
p744
I33
sS'off'
p745
I33
sS'center'
p746
I30
sS'dock'
p747
I33
sS'i'
p748
I1
sS'expression'
p749
I33
sS'floor'
p750
I33
sS'well'
p751
I30
sS'spent'
p752
I33
sS'tho'
p753
I30
sS'without'
p754
I32
sS'flags'
p755
I33
sS'easily'
p756
I33
sS'y'
p757
I33
sS'the'
p758
I3
sS'corporate'
p759
I23
sS'(x'
p760
I33
sS'\xe2\x98\xba\xef\xb8\x8f'
p761
I33
sS'just'
p762
I21
sS'being'
p763
I31
sS'xeo'
p764
I32
sS'rest'
p765
I33
sS'grades'
p766
I31
sS'snickered'
p767
I33
sS'questions'
p768
I33
sS'yep'
p769
I33
sS'yes'
p770
I29
sS'scooters'
p771
I33
sS'griffith'
p772
I33
sS'schleep'
p773
I33
sS'cut'
p774
I33
sS'"cute"'
p775
I33
sS'thinking'
p776
I33
sS'flee'
p777
I33
sS"everyone's"
p778
I33
sS'had'
p779
I26
sS'cuz'
p780
I33
sS'banh'
p781
I32
sS'blog'
p782
I33
sS'add'
p783
I33
sS'interested'
p784
I33
sS'parents'
p785
I33
sS'attractive'
p786
I33
sS'crying'
p787
I32
sS'sweet'
p788
I33
sS'has'
p789
I33
sS'transformation'
p790
I33
sS'smart'
p791
I33
sS'victims'
p792
I33
sS'around'
p793
I33
sS'casually'
p794
I33
sS'government'
p795
I32
sS'rules'
p796
I33
sS'big'
p797
I31
sS'couple'
p798
I33
sS'gonna'
p799
I32
sS'caps'
p800
I33
sS'early'
p801
I33
sS'cameout'
p802
I33
sS'game'
p803
I30
sS'know'
p804
I25
sS'mom'
p805
I33
sS'(-'
p806
I31
sS'press'
p807
I33
sS'accepted'
p808
I33
sS'lady'
p809
I33
sS'd'
p810
I32
sS'like'
p811
I16
sS'quincenera'
p812
I33
sS'51'
p813
I33
sS'garage'
p814
I33
sS't'
p815
I32
sS'night'
p816
I33
sS'works'
p817
I32
sS'emmy'
p818
I33
sS'because'
p819
I32
sS'saturdays'
p820
I33
sS'deal'
p821
I33
sS'people'
p822
I29
sS'fucking'
p823
I27
sS'charlie'
p824
I33
sS'scared'
p825
I33
sS'some'
p826
I33
sS'competition'
p827
I33
sS'crypto'
p828
I33
sS'mirror'
p829
I33
sS'dear'
p830
I32
sS'home'
p831
I31
sS'finna'
p832
I33
sS'for'
p833
I12
sS'gapped'
p834
I33
sS'per'
p835
I33
sS'everything'
p836
I33
sS'does'
p837
I32
sS'exit'
p838
I33
sS'spoilers'
p839
I33
sS'careless'
p840
I33
sS'christmas'
p841
I33
sS'either'
p842
I33
sS'be'
p843
I19
sS'who'
p844
I30
sS'run'
p845
I33
sS'bb'
p846
I32
sS'lmfao'
p847
I32
sS'm*****'
p848
I33
sS'laker'
p849
I33
sS'quimmdizzle'
p850
I33
sS'slut'
p851
I33
sS'$80'
p852
I33
sS'hopped'
p853
I33
sS'crap'
p854
I33
sS';)'
p855
I31
sS'super'
p856
I31
sS'by'
p857
I31
sS'panel'
p858
I32
sS'on'
p859
I17
sS'about'
p860
I28
sS':-)'
p861
I31
sS'ok'
p862
I31
sS'working'
p863
I33
sS'anything'
p864
I33
sS'oh'
p865
I33
sS'of'
p866
I14
sS'january)'
p867
I33
sS'shrimp'
p868
I33
sS'discrimination'
p869
I33
sS'mean'
p870
I33
sS'dowwwwn'
p871
I33
sS'or'
p872
I26
sS'road'
p873
I33
sS'seeing'
p874
I32
sS'reactions'
p875
I33
sS'dude'
p876
I33
sS'ahh'
p877
I33
sS'snapchat'
p878
I33
sS"pike's"
p879
I33
sS'down'
p880
I27
sS'wintergreen'
p881
I33
sS'show'
p882
I33
sS'determine'
p883
I33
sS'heated'
p884
I33
sS'wrap'
p885
I33
sS'next'
p886
I33
sS'pointless'
p887
I33
sS'your'
p888
I29
sS'smells'
p889
I33
sS'east'
p890
I33
sS'sarge'
p891
I33
sS'"swamp'
p892
I32
sS'peoples'
p893
I33
sS'her'
p894
I30
sS'area'
p895
I33
sS'panorama'
p896
I33
sS'there'
p897
I32
sS'ca)'
p898
I30
sS'lol'
p899
I20
sS'why'
p900
I31
sS'hee'
p901
I32
sS'much'
p902
I28
sS'jheneaiko'
p903
I33
sS'way'
p904
I32
sS'goddamn'
p905
I33
sS'forward'
p906
I33
sS'call'
p907
I33
sS'bored'
p908
I33
sS'was'
p909
I23
sS'happy'
p910
I29
sS'head'
p911
I33
sS'delilah'
p912
I33
sS"i've"
p913
I32
sS'bus'
p914
I33
sS'fireworks'
p915
I32
sS'but'
p916
I27
sS'idea'
p917
I33
sS'heat'
p918
I33
sS'uncle'
p919
I33
sS'dead'
p920
I33
sS'trying'
p921
I30
sS'with'
p922
I17
sS'eat'
p923
I33
sS'he'
p924
I31
sS"they're"
p925
I32
sS'made'
p926
I32
sS'josh'
p927
I33
sS'friday'
p928
I33
sS'wish'
p929
I32
sS'inside'
p930
I33
sS'hunnny'
p931
I33
sS'up'
p932
I26
sS'aaaayeeee'
p933
I33
sS'fl0pz'
p934
I33
sS'dirty'
p935
I33
sS'slutten'
p936
I33
sS'stages'
p937
I33
sS'minutes'
p938
I33
sS'called'
p939
I32
sS'underclassmen'
p940
I33
sS'150'
p941
I33
sS'quan)'
p942
I33
sS'videos'
p943
I33
sS'year'
p944
I33
sS'am'
p945
I32
sS'deep'
p946
I33
sS'an'
p947
I29
sS'as'
p948
I27
sS'right'
p949
I33
sS'at'
p950
I11
sS'families'
p951
I33
sS'education'
p952
I32
sS'huntington'
p953
I33
sS'shit'
p954
I31
sS'performed'
p955
I33
sS'faithful'
p956
I33
sS'no'
p957
I30
sS'nah'
p958
I33
sS'when'
p959
I28
sS'other'
p960
I31
sS'5'
p961
I33
sS'special'
p962
I33
sS'scraps'
p963
I33
sS'you'
p964
I7
sS'really'
p965
I31
sS'tic'
p966
I33
sS'album'
p967
I33
sS'scrub'
p968
I33
sS'brothers'
p969
I33
sS'monday'
p970
I33
sS'crime'
p971
I33
sS'eiffel'
p972
I33
sS'june'
p973
I33
sS'thanks'
p974
I33
sS"miguelunlimited's"
p975
I33
sS'gifts'
p976
I32
sS'push'
p977
I33
sS'fell'
p978
I33
sS'recent'
p979
I33
sS'coverage'
p980
I33
sS'hurt'
p981
I33
sS'finals'
p982
I33
sS'missed'
p983
I33
sS"batman!!'"
p984
I33
sS'accidents'
p985
I33
sS'\xe2\x80\x94'
p986
I33
sS'yelp'
p987
I33
sS'sore'
p988
I33
sS'walked'
p989
I33
sS'loyal'
p990
I33
sS'u'
p991
I31
sS'time'
p992
I32
sS'alright'
p993
I33
sS'12'
p994
I33
sS'having'
p995
I33
sS'once'
p996
I33
s.