(dp0
S''
p1
I1
sS'edc'
p2
I29
sS'all'
p3
I17
sS'coach'
p4
I28
sS':)'
p5
I28
sS'foul'
p6
I29
sS'zing'
p7
I29
sS':/'
p8
I29
sS'sleep'
p9
I29
sS'asian'
p10
I29
sS'go'
p11
I22
sS'follow'
p12
I29
sS'gm'
p13
I29
sS'hate'
p14
I24
sS"163lb's"
p15
I29
sS'griffin'
p16
I28
sS'buddy'
p17
I29
sS'marissa'
p18
I29
sS'imma'
p19
I27
sS'tu'
p20
I29
sS'father'
p21
I27
sS'young'
p22
I29
sS'gigs'
p23
I29
sS'to'
p24
I2
sS'bike'
p25
I29
sS'/.\\'
p26
I29
sS'smile'
p27
I29
sS'sorry'
p28
I29
sS'chainz'
p29
I29
sS'02:43:47.0,34.07197656,-118.08076719,4336.01,headed'
p30
I29
sS'brown'
p31
I28
sS'digit'
p32
I29
sS'mornin'
p33
I29
sS'worse'
p34
I29
sS'song'
p35
I28
sS'\xe2\x9a\xbe\xef\xb8\x8f'
p36
I29
sS'continues'
p37
I29
sS'fav'
p38
I29
sS'13:06:44.0,34.0704,-118.082,4336.01,can'
p39
I29
sS'fat'
p40
I29
sS'screwed'
p41
I29
sS'fah'
p42
I29
sS'vegas'
p43
I29
sS'every'
p44
I29
sS'fall'
p45
I29
sS'asswhole'
p46
I29
sS'ticket'
p47
I29
sS'difference'
p48
I29
sS'en'
p49
I29
sS'cool'
p50
I29
sS'01:57:25.0,34.0704,-118.082,4336.01,visit'
p51
I29
sS"we'll"
p52
I29
sS'foo'
p53
I29
sS'magic'
p54
I29
sS'did'
p55
I29
sS'cause'
p56
I29
sS'joel'
p57
I29
sS'brother'
p58
I28
sS'christmas'
p59
I29
sS'gus'
p60
I28
sS"week's"
p61
I29
sS'terry'
p62
I29
sS'03:06:35.0,34.07164113,-118.07362597,4336.01,maxed'
p63
I29
sS'guy'
p64
I27
sS'tru'
p65
I29
sS'12:53:22.0,34.0704,-118.082,4336.01,love'
p66
I29
sS"i'll"
p67
I28
sS'work'
p68
I28
sS'century'
p69
I29
sS'29th'
p70
I29
sS'paso'
p71
I29
sS'waking'
p72
I29
sS'mia'
p73
I29
sS'\xee\x90\x98'
p74
I28
sS'pass'
p75
I29
sS'run'
p76
I29
sS'nba'
p77
I29
sS'semifinals'
p78
I29
sS'panda'
p79
I28
sS'jesus'
p80
I29
sS'what'
p81
I23
sS'watchespn'
p82
I29
sS'giving'
p83
I28
sS'pts'
p84
I28
sS'+'
p85
I28
sS'lawrence'
p86
I29
sS'fucks'
p87
I29
sS'paying'
p88
I29
sS'waiting'
p89
I29
sS'eating'
p90
I29
sS'goes'
p91
I29
sS'sup'
p92
I29
sS'new'
p93
I28
sS'ever'
p94
I27
sS'geeked'
p95
I29
sS'mauricio'
p96
I29
sS'christian'
p97
I29
sS'clerk'
p98
I29
sS'never'
p99
I28
sS'\xe2\x98\xba\xef\xb8\x8f,91770\n489844076871565312,obeyyjoshy,2014-07-17'
p100
I29
sS'here'
p101
I25
sS'hours'
p102
I28
sS'met'
p103
I29
sS'vest?,91770\n472190418461790208,jassyjaay,2014-05-30'
p104
I29
sS'sing'
p105
I29
sS"aren't"
p106
I29
sS'wait'
p107
I28
sS'boss'
p108
I29
sS'boy'
p109
I26
sS'great'
p110
I28
sS'kids'
p111
I29
sS'sportscenter'
p112
I20
sS'healthy'
p113
I29
sS'k'
p114
I29
sS'jail'
p115
I29
sS'lakers'
p116
I29
sS'leaving'
p117
I29
sS"trip's"
p118
I29
sS'pico'
p119
I29
sS'sucks\xe2\x80\x9d'
p120
I29
sS'pick'
p121
I27
sS'raza'
p122
I29
sS'que'
p123
I29
sS"i'm"
p124
I9
sS'pack'
p125
I29
sS'makes'
p126
I29
sS'scooter'
p127
I29
sS'me:/'
p128
I29
sS'shuffle'
p129
I28
sS'brz'
p130
I29
sS'hiking'
p131
I29
sS'suddenly'
p132
I29
sS'win'
p133
I26
sS'18:38:54.0,34.0704,-118.082,4336.01,watching'
p134
I29
sS'bro'
p135
I29
sS'hahahahah'
p136
I29
sS'thursday'
p137
I29
sS'fake'
p138
I28
sS'tho,91770\n462402129190064130,darlingdeee,2014-05-03'
p139
I29
sS'from'
p140
I18
sS'russell'
p141
I29
sS'usa'
p142
I29
sS'&'
p143
I25
sS'runyon'
p144
I29
sS'played'
p145
I29
sS'texting'
p146
I29
sS'next'
p147
I26
sS'few'
p148
I29
sS'ca)'
p149
I19
sS'wayne'
p150
I29
sS'music'
p151
I29
sS'iphone'
p152
I29
sS'go..,91770\n477784916705304576,iamjoel07,2014-06-14'
p153
I29
sS'6'
p154
I29
sS'team\xc2\xa0-via'
p155
I29
sS'asts'
p156
I29
sS'rosemead'
p157
I10
sS'tell'
p158
I29
sS'today'
p159
I21
sS'more'
p160
I29
sS'tryna'
p161
I28
sS'sharing'
p162
I28
sS'escuchando'
p163
I29
sS'club'
p164
I29
sS'share'
p165
I28
sS'company'
p166
I29
sS'combo'
p167
I29
sS'haha'
p168
I28
sS'!,91770\n489861079023906817,obeyyjoshy,2014-07-17'
p169
I29
sS'"i'
p170
I29
sS'trail'
p171
I28
sS'everywhere'
p172
I28
sS'biatch'
p173
I29
sS'baby'
p174
I29
sS'z'
p175
I29
sS'me'
p176
I9
sS'balls'
p177
I29
sS'ma'
p178
I29
sS'angel*'
p179
I29
sS'niggas'
p180
I29
sS'this'
p181
I20
sS'car'
p182
I28
sS'ride'
p183
I29
sS'getting'
p184
I27
sS'1184'
p185
I29
sS'vs'
p186
I29
sS'today!,91770\n497824340730052608,wonder__island,2014-08-08'
p187
I29
sS'can'
p188
I23
sS'learn'
p189
I29
sS'sets'
p190
I29
sS'my'
p191
I5
sS'beautiful'
p192
I28
sS'heart'
p193
I29
sS'crazy'
p194
I28
sS'tap'
p195
I29
sS'council'
p196
I29
sS'give'
p197
I27
sS':),91770\n454699512376733696,itsyurgirl,2014-04-11'
p198
I29
sS"didn't"
p199
I28
sS'fuck'
p200
I25
sS'days'
p201
I29
sS'lol,91770\n489852914693726209,obeyyjoshy,2014-07-17'
p202
I29
sS'heard'
p203
I28
sS'homie'
p204
I28
sS'gabby'
p205
I29
sS'something'
p206
I27
sS'want'
p207
I27
sS'people.\xe2\x80\x9d'
p208
I29
sS'keep'
p209
I29
sS'goal'
p210
I29
sS'sit'
p211
I27
sS'means'
p212
I29
sS'thrills'
p213
I29
sS'1'
p214
I27
sS'the\xe2\x80\xa6'
p215
I28
sS'hot'
p216
I28
sS'swear'
p217
I29
sS'example"'
p218
I29
sS',91770\n489854482985918465,obeyyjoshy,2014-07-17'
p219
I29
sS'01:23:53.0,34.07216609,-118.07770126,4336.01,trying'
p220
I29
sS'browns'
p221
I29
sS'banned'
p222
I29
sS'express'
p223
I29
sS'okay'
p224
I29
sS'beauty'
p225
I29
sS':******,91770\n497818117137899520,wonder__island,2014-08-08'
p226
I29
sS'may'
p227
I28
sS'highs'
p228
I29
sS'after'
p229
I28
sS'long'
p230
I28
sS'now...who'
p231
I29
sS'fa'
p232
I29
sS"'deliver"
p233
I29
sS'birthday'
p234
I27
sS'mad'
p235
I29
sS'coming'
p236
I28
sS'mah'
p237
I28
sS'!!,91770\n502834530907332608,obeyyjoshy,2014-08-22'
p238
I29
sS'guys'
p239
I29
sS'grow'
p240
I29
sS'man'
p241
I27
sS'a'
p242
I6
sS'somethin'
p243
I29
sS'\xe2\x98\xba\xef\xb8\x8f,91770\n502718537820291072,obeyyjoshy,2014-08-22'
p244
I29
sS'anymore'
p245
I29
sS'johnson'
p246
I29
sS'tbh'
p247
I29
sS'fungo'
p248
I29
sS'20:08:41.0,34.06814197,-118.07989681,4336.01,nocturnal'
p249
I29
sS'bugs'
p250
I29
sS'avani'
p251
I29
sS'akala'
p252
I29
sS'honestly'
p253
I28
sS'waited'
p254
I29
sS'ipa,91770\n393609381138276352,jbecerrita,2013-10-25'
p255
I29
sS'go!,91770\n497827852885032960,wonder__island,2014-08-08'
p256
I29
sS'madres'
p257
I29
sS'talk'
p258
I27
sS"that's"
p259
I28
sS'kaskade'
p260
I29
sS'14:31:26.0,34.06803673,-118.07979908,4336.01,good'
p261
I29
sS'westbrook'
p262
I29
sS'office'
p263
I28
sS"don't"
p264
I22
sS'ball\xe2\x9a\xbe\xef\xb8\x8f\xe2\x80\x9d'
p265
I29
sS'over'
p266
I25
sS'move'
p267
I29
sS'19:55:57.0,34.0680712,-118.07990307,4336.01,you'
p268
I29
sS'mission'
p269
I29
sS'years'
p270
I29
sS'ended'
p271
I29
sS'mikey'
p272
I29
sS'during'
p273
I29
sS'hell'
p274
I29
sS'mcdonalds'
p275
I29
sS'panthers'
p276
I29
sS'nets'
p277
I29
sS'forgiving'
p278
I29
sS'before'
p279
I28
sS'perfect'
p280
I28
sS'group'
p281
I28
sS'thank'
p282
I27
sS'fit'
p283
I29
sS'la'
p284
I22
sS'somewhere'
p285
I28
sS'leggo'
p286
I29
sS'29'
p287
I29
sS'03:50:17.0,34.0704,-118.082,4336.01,happy'
p288
I29
sS'late'
p289
I29
sS'coaching'
p290
I29
sS'2015'
p291
I29
sS'bye'
p292
I28
sS'2010'
p293
I29
sS'goodmorning'
p294
I29
sS'happened'
p295
I28
sS'dad'
p296
I24
sS'them'
p297
I27
sS'good'
p298
I20
sS'food'
p299
I28
sS'dam'
p300
I29
sS'workout'
p301
I29
sS'school'
p302
I29
sS'clippers'
p303
I29
sS"you've"
p304
I29
sS'\xe2\x98\xba\xef\xb8\x8f'
p305
I25
sS'hands'
p306
I28
sS'not'
p307
I19
sS'cavaliers'
p308
I29
sS'now'
p309
I23
sS'day'
p310
I26
sS'screamed'
p311
I29
sS',91770\n502933922234527744,obeyyjoshy,2014-08-22'
p312
I29
sS'name'
p313
I28
sS'thankful'
p314
I29
sS'always'
p315
I27
sS'delicate'
p316
I29
sS'13:29:45.0,34.0704,-118.082,4336.01,workout'
p317
I29
sS'namn'
p318
I29
sS'drive'
p319
I29
sS'--'
p320
I29
sS'accomplishments'
p321
I29
sS'newport'
p322
I29
sS'ya'
p323
I29
sS'done'
p324
I29
sS'went'
p325
I29
sS'quarter'
p326
I29
sS'friendship'
p327
I28
sS'|'
p328
I28
sS'semifinal'
p329
I29
sS'sterling'
p330
I29
sS'everyone'
p331
I28
sS'sources\xc2\xa0-via'
p332
I29
sS'01:26:51.0,34.0704,-118.082,4336.01,a'
p333
I29
sS'doing'
p334
I29
sS'house'
p335
I27
sS'hard'
p336
I28
sS'idea'
p337
I29
sS'^_______^'
p338
I29
sS'dia'
p339
I29
sS'books'
p340
I28
sS'ex'
p341
I29
sS'into'
p342
I29
sS'our'
p343
I27
sS'girl'
p344
I27
sS'saturday'
p345
I29
sS'really'
p346
I28
sS'try'
p347
I29
sS'and\xe2\x80\xa6'
p348
I28
sS'wuttheph0'
p349
I29
sS'space'
p350
I29
sS'god'
p351
I27
sS'since'
p352
I29
sS'perlers'
p353
I29
sS'rap...unbelievable'
p354
I29
sS'strangers'
p355
I29
sS'seriously'
p356
I29
sS'7'
p357
I29
sS'smh'
p358
I29
sS'medicine'
p359
I29
sS'got'
p360
I23
sS'rn'
p361
I29
sS'nudes'
p362
I29
sS'common'
p363
I29
sS'ass'
p364
I24
sS'craving'
p365
I29
sS'working'
p366
I29
sS'cutest'
p367
I29
sS"doesn't"
p368
I27
sS'godly'
p369
I29
sS'friday'
p370
I29
sS'given'
p371
I29
sS'free'
p372
I29
sS'previews'
p373
I29
sS'california'
p374
I22
sS'struggle'
p375
I29
sS'ima'
p376
I29
sS'ask'
p377
I29
sS'inhaler'
p378
I29
sS'wanted'
p379
I29
sS'x:,91770\n497817400012587008,wonder__island,2014-08-08'
p380
I29
sS'care'
p381
I29
sS'training'
p382
I29
sS',91770\n497803289904152576,wonder__island,2014-08-08'
p383
I29
sS'florida'
p384
I29
sS'so'
p385
I18
sS'david'
p386
I28
sS'thing'
p387
I29
sS'american'
p388
I29
sS'place'
p389
I29
sS'ft)'
p390
I29
sS'loud'
p391
I29
sS'think'
p392
I29
sS'fuckin'
p393
I29
sS'first'
p394
I24
sS'already'
p395
I29
sS'city'
p396
I29
sS':*,91770\n497826585118900224,wonder__island,2014-08-08'
p397
I29
sS'feel'
p398
I28
sS'to.come'
p399
I29
sS'taco'
p400
I29
sS'one'
p401
I23
sS'srry,91770\n496094356667781120,trickeelobos,2014-08-04'
p402
I29
sS'bitch'
p403
I28
sS'paul\xe2\x80\xa6'
p404
I29
sS'owner'
p405
I29
sS'kobe'
p406
I29
sS'miss'
p407
I25
sS'tomorrow'
p408
I29
sS'braces'
p409
I29
sS"you're"
p410
I28
sS'little'
p411
I26
sS'"'
p412
I28
sS'espn'
p413
I29
sS'5th'
p414
I28
sS'twisted'
p415
I29
sS"wayne's...no"
p416
I29
sS'anyone'
p417
I28
sS'their'
p418
I27
sS'attack'
p419
I29
sS'2'
p420
I26
sS'too'
p421
I28
sS'pains'
p422
I29
sS'bbq'
p423
I29
sS'white'
p424
I27
sS'las'
p425
I29
sS'friend'
p426
I28
sS'quay_16'
p427
I29
sS'2-1'
p428
I29
sS'lot'
p429
I29
sS'that'
p430
I12
sS'season'
p431
I27
sS'gym'
p432
I29
sS'nobody'
p433
I27
sS'serve'
p434
I29
sS'washington'
p435
I29
sS'wisdom'
p436
I29
sS'blazers'
p437
I28
sS'ridiculous'
p438
I29
sS'because'
p439
I28
sS'(rosemead'
p440
I19
sS'wasted'
p441
I29
sS'specialists'
p442
I29
sS'july'
p443
I29
sS'did\xe2\x80\xa6'
p444
I29
sS',91770\n508346149863174144,obeyyjoshy,2014-09-06'
p445
I29
sS'than'
p446
I28
sS'21:42:45.0,34.06823387,-118.07984149,4336.01,work'
p447
I29
sS'ceramics'
p448
I29
sS'10'
p449
I19
sS'survivor'
p450
I29
sS'lmao'
p451
I28
sS'god\xe2\x80\x9d'
p452
I29
sS'double'
p453
I29
sS'gotta'
p454
I29
sS'pts\xc2\xa0-via'
p455
I29
sS'goodnight'
p456
I29
sS'fungos'
p457
I29
sS'future'
p458
I28
sS'williams'
p459
I29
sS'were'
p460
I27
sS'chiropractor'
p461
I29
sS'fitness"'
p462
I29
sS'feeling'
p463
I28
sS'playing'
p464
I29
sS'spurs'
p465
I28
sS'and'
p466
I4
sS'outta'
p467
I29
sS'san'
p468
I29
sS'correction'
p469
I29
sS'ano'
p470
I29
sS'yeee'
p471
I29
sS'briefs'
p472
I29
sS'anybody'
p473
I29
sS'tonight'
p474
I28
sS'say'
p475
I28
sS'rosemead\xe2\x80\xa6'
p476
I29
sS'have'
p477
I23
sS'need'
p478
I24
sS'embiid'
p479
I29
sS'nazo'
p480
I29
sS'tells'
p481
I29
sS'kevin'
p482
I29
sS'lie'
p483
I28
sS'nights'
p484
I29
sS"habibti's"
p485
I29
sS'homerun'
p486
I29
sS'lil'
p487
I29
sS'cave'
p488
I29
sS'-'
p489
I26
sS'jabari'
p490
I29
sS'cherries'
p491
I29
sS',91770\n489846748358012929,obeyyjoshy,2014-07-17'
p492
I29
sS'derek'
p493
I29
sS'take'
p494
I27
sS'subway!!d'
p495
I29
sS'gm\xc2\xa0-via'
p496
I29
sS'='
p497
I29
sS'cavs'
p498
I29
sS'menudo'
p499
I29
sS'even'
p500
I29
sS'princess'
p501
I29
sS'sure'
p502
I29
sS'lets'
p503
I29
sS'goodbye'
p504
I29
sS'retired'
p505
I29
sS'any'
p506
I29
sS'who'
p507
I27
sS'mosh'
p508
I29
sS'freshman'
p509
I29
sS'upland'
p510
I29
sS'cap'
p511
I29
sS'why'
p512
I28
sS'fair'
p513
I29
sS'medical'
p514
I27
sS'later'
p515
I28
sS'm'
p516
I29
sS'dog'
p517
I28
sS'tooth'
p518
I28
sS'freeway'
p519
I29
sS'21:42:35.0,34.06824636,-118.07982724,4336.01,barely'
p520
I29
sS',91770\n489851009686974464,obeyyjoshy,2014-07-17'
p521
I29
sS'sd'
p522
I29
sS'wow'
p523
I29
sS'lows'
p524
I29
sS'saying'
p525
I29
sS'walking'
p526
I29
sS'parker'
p527
I27
sS'ko'
p528
I29
sS'show'
p529
I28
sS'random'
p530
I28
sS'ex-cop'
p531
I29
sS'anniversary'
p532
I29
sS'118-103'
p533
I29
sS'destroy'
p534
I29
sS'fuckheads'
p535
I29
sS'ootd'
p536
I29
sS'participate'
p537
I29
sS'find'
p538
I29
sS'oppurtunity'
p539
I29
sS'durant'
p540
I29
sS'believe'
p541
I29
sS'sila'
p542
I29
sS'jay'
p543
I29
sS'series'
p544
I28
sS'explain'
p545
I29
sS'such'
p546
I29
sS'bust'
p547
I29
sS'only'
p548
I26
sS'going'
p549
I21
sS'14:53:11.0,34.07111532,-118.07405445,4336.01,fuck'
p550
I29
sS'watching'
p551
I29
sS'18:05:10.0,34.06683,-118.0705,4336.01,driving'
p552
I29
sS'hope'
p553
I29
sS'wearing'
p554
I28
sS'do'
p555
I23
sS'haircut'
p556
I29
sS'sunglasses'
p557
I29
sS'get'
p558
I18
sS"okc's"
p559
I29
sS'de'
p560
I29
sS'rush'
p561
I29
sS'trees'
p562
I29
sS'soon'
p563
I29
sS'joint'
p564
I29
sS'feels'
p565
I28
sS'state'
p566
I29
sS'tierra'
p567
I29
sS'words'
p568
I29
sS'consecutive'
p569
I29
sS'gifts'
p570
I29
sS'15'
p571
I29
sS'trade'
p572
I29
sS'him'
p573
I29
sS'moviegoer'
p574
I29
sS'groupie'
p575
I29
sS'married'
p576
I29
sS'i-10'
p577
I29
sS'morning'
p578
I26
sS'whether'
p579
I29
sS'bad'
p580
I29
sS'bae'
p581
I29
sS'she'
p582
I29
sS'activity'
p583
I29
sS'x'
p584
I29
sS'where'
p585
I28
sS'bother'
p586
I29
sS"y'all"
p587
I29
sS'19:48:26.0,34.06820188,-118.07990459,4336.01,i'
p588
I29
sS'concert'
p589
I29
sS'rebs'
p590
I29
sS'cuz'
p591
I29
sS'notice'
p592
I29
sS'around'
p593
I29
sS'see'
p594
I26
sS',91770\n489201483678629888,jakedmartinez,2014-07-16'
p595
I29
sS'are'
p596
I20
sS'parking'
p597
I29
sS'close'
p598
I29
sS'nocturnal'
p599
I27
sS'cold'
p600
I29
sS'best'
p601
I26
sS'kids\xc2\xa0-via'
p602
I29
sS't,91770\n506258469838548992,shargayz,2014-09-01'
p603
I29
sS'still'
p604
I29
sS'jeter'
p605
I29
sS'away'
p606
I28
sS'please'
p607
I29
sS'\xee\x90\x98\xe2\x80\x9d'
p608
I29
sS'3'
p609
I28
sS'paisa'
p610
I29
sS'probably'
p611
I28
sS'nope'
p612
I29
sS'dream\xe2\x9c\xa8'
p613
I29
sS'gives'
p614
I29
sS'we'
p615
I14
sS'omg'
p616
I29
sS'18:56:27.0,34.0704,-118.082,4336.01,just'
p617
I29
sS'jt'
p618
I29
sS',91770\n497941984846180352,c_jaaaay,2014-08-09'
p619
I29
sS'team'
p620
I29
sS'weekend'
p621
I29
sS'05:20:49.0,34.0704,-118.082,4336.01,how'
p622
I29
sS'three-pointers'
p623
I29
sS'job'
p624
I29
sS'dieting'
p625
I29
sS'wear'
p626
I29
sS'wtf'
p627
I28
sS'jk'
p628
I27
sS'news'
p629
I28
sS'picking'
p630
I29
sS'killing'
p631
I29
sS'come'
p632
I26
sS'water'
p633
I29
sS'terrible\xe2\x80\x9d'
p634
I29
sS'last'
p635
I25
sS'many'
p636
I27
sS'hoes'
p637
I29
sS"he's"
p638
I27
sS'amazing'
p639
I29
sS'it.,91770\n430545544218288129,epicbeerrider,2014-02-04'
p640
I29
sS"can't"
p641
I27
sS'app\xc2\xa0-via'
p642
I29
sS'liked'
p643
I29
sS'sky'
p644
I29
sS'ca'
p645
I29
sS'05:12:25.0,34.07199592,-118.07561047,4336.01,me'
p646
I29
sS'whatever'
p647
I29
sS'2nd'
p648
I28
sS'canyon'
p649
I29
sS'repostapp'
p650
I24
sS'greg'
p651
I29
sS'likes'
p652
I29
sS'laugh'
p653
I29
sS'sprinters'
p654
I29
sS'tony'
p655
I27
sS'cr'
p656
I29
sS'blonde'
p657
I29
sS'bench'
p658
I29
sS'?,91770\n489848729671720961,obeyyjoshy,2014-07-17'
p659
I29
sS'sunday'
p660
I29
sS'turkey'
p661
I29
sS'destroyed'
p662
I29
sS'yay'
p663
I29
sS'14:48:44.0,34.06822214,-118.07993948,4336.01,you'
p664
I29
sS"it's"
p665
I22
sS'af'
p666
I29
sS'yupp'
p667
I29
sS'window'
p668
I29
sS'been'
p669
I27
sS'18:54:22.0,34.06674,-118.07069,4336.01,think'
p670
I29
sS'much'
p671
I28
sS'damn'
p672
I28
sS'collections'
p673
I29
sS'po'
p674
I28
sS'woke'
p675
I29
sS'wants'
p676
I28
sS'mike'
p677
I28
sS'gay'
p678
I28
sS'fire'
p679
I28
sS'mind'
p680
I29
sS"what's"
p681
I29
sS'andrew'
p682
I29
sS'wounds'
p683
I29
sS'else'
p684
I27
sS'\xe2\x98\xba\xef\xb8\x8f,91770\n489849227648843776,obeyyjoshy,2014-07-17'
p685
I29
sS'tweets'
p686
I29
sS'tfti'
p687
I29
sS'-.-'
p688
I28
sS'fellow'
p689
I29
sS'spin'
p690
I29
sS'those'
p691
I29
sS'plants'
p692
I29
sS'myself'
p693
I27
sS'east'
p694
I28
sS'look'
p695
I28
sS'16:02:45.0,34.0704,-118.082,4336.01,but'
p696
I29
sS'these'
p697
I28
sS'leave'
p698
I29
sS'straight'
p699
I28
sS'air'
p700
I29
sS'will'
p701
I25
sS'forgetting'
p702
I29
sS'while'
p703
I29
sS'suppose'
p704
I29
sS'fun'
p705
I29
sS'2012'
p706
I29
sS'robin'
p707
I29
sS',91770\n502829729406521344,obeyyjoshy,2014-08-22'
p708
I29
sS'27-6-8'
p709
I29
sS'hadiarso'
p710
I29
sS'"a'
p711
I29
sS'mexico'
p712
I28
sS'is'
p713
I11
sS'it'
p714
I16
sS'middle'
p715
I29
sS'cant'
p716
I29
sS'someone'
p717
I27
sS'experience'
p718
I29
sS'in'
p719
I7
sS'ready'
p720
I27
sS'pics'
p721
I29
sS'stint'
p722
I28
sS'if'
p723
I24
sS'grown'
p724
I29
sS'intense'
p725
I29
sS'shirt'
p726
I29
sS'open'
p727
I28
sS'demeter'
p728
I29
sS'things'
p729
I29
sS'make'
p730
I25
sS'08:30:19.0,34.07208389,-118.07602613,4336.01,stop'
p731
I29
sS'lol,91770\n497815107338903553,wonder__island,2014-08-08'
p732
I29
sS'20:49:33.0,34.0631088,-118.07842779,4336.01,she'
p733
I29
sS'moms'
p734
I29
sS"i'd"
p735
I29
sS'followers'
p736
I29
sS'fidm'
p737
I29
sS'underground'
p738
I29
sS'party'
p739
I29
sS'android'
p740
I29
sS'better'
p741
I29
sS'week'
p742
I27
sS'church'
p743
I29
sS'23:02:50.0,34.070894,-118.0776791,4336.01,srry'
p744
I29
sS'19:16:26.0,34.06722938,-118.07135507,4336.01,finally'
p745
I29
sS'running'
p746
I29
sS'admitting'
p747
I29
sS'lol\xe2\x80\x9d'
p748
I29
sS'sandals'
p749
I29
sS'aka'
p750
I29
sS'thoughts'
p751
I29
sS'\xe2\x9c\x8c\xef\xb8\x8f'
p752
I27
sS'off'
p753
I27
sS'blood'
p754
I29
sS'i'
p755
I3
sS'well'
p756
I29
sS'18:51:31.0,34.06674,-118.07069,4336.01,everyone'
p757
I29
sS'county'
p758
I29
sS'thought'
p759
I27
sS'person'
p760
I28
sS'comes'
p761
I29
sS'mother'
p762
I29
sS'the'
p763
I4
sS'spend'
p764
I29
sS'series\xc2\xa0-via'
p765
I29
sS'left'
p766
I29
sS'summer'
p767
I28
sS'20:09:01.0,34.06823148,-118.07990394,4336.01,i'
p768
I29
sS'they'
p769
I29
sS'just'
p770
I23
sS"we're"
p771
I29
sS'being'
p772
I28
sS'half'
p773
I29
sS'sleepy'
p774
I29
sS'rest'
p775
I27
sS'02:40:48.0,34.0710192,-118.0746393,4336.01,now'
p776
I29
sS'loss\xc2\xa0-via'
p777
I29
sS'mistakes'
p778
I29
sS'love'
p779
I20
sS'yes'
p780
I29
sS'yet'
p781
I29
sS'alignment'
p782
I29
sS'stopping'
p783
I29
sS'asthma'
p784
I29
sS'family'
p785
I29
sS'surreal'
p786
I29
sS'20:22:40.0,34.0704,-118.082,4336.01,time'
p787
I29
sS'had'
p788
I28
sS'except'
p789
I29
sS'bullshit'
p790
I29
sS'04:10:17.0,34.07203964,-118.08068723,4336.01,i'
p791
I29
sS'(15-18'
p792
I29
sS'n'
p793
I29
sS'combine'
p794
I29
sS'4'
p795
I27
sS'mann'
p796
I29
sS'riverside'
p797
I29
sS'has'
p798
I24
sS'pot'
p799
I29
sS'smart'
p800
I29
sS'real'
p801
I28
sS'book'
p802
I29
sS'today.,91770\n497805732561960961,wonder__island,2014-08-08'
p803
I29
sS'thx'
p804
I29
sS'big'
p805
I26
sS'kass'
p806
I29
sS"who's"
p807
I28
sS'sure.,91770\n497811810234273792,wonder__island,2014-08-08'
p808
I29
sS'gonna'
p809
I24
sS'early'
p810
I29
sS'shitty'
p811
I29
sS'game'
p812
I28
sS'know'
p813
I22
sS'\xe2\x9d\xa4'
p814
I29
sS'consisted'
p815
I29
sS'lebanon'
p816
I29
sS'walk'
p817
I29
sS'ditto'
p818
I29
sS'\xe2\x9d\x93'
p819
I29
sS'60-40'
p820
I29
sS'in-n-out'
p821
I29
sS'like'
p822
I20
sS'lost'
p823
I28
sS"ain't"
p824
I29
sS'shade'
p825
I29
sS'ahh'
p826
I29
sS'yeah'
p827
I29
sS'favoriting'
p828
I29
sS'ussoccerworldcup2014'
p829
I29
sS'continue'
p830
I29
sS',91770\n508346064513290240,obeyyjoshy,2014-09-06'
p831
I29
sS'night'
p832
I26
sS'man,91770\n485976696617586688,nataleiclarisa,2014-07-07'
p833
I29
sS'nervous.\xe2\x80\x9d'
p834
I29
sS'awesome'
p835
I29
sS'mahjong'
p836
I29
sS'right'
p837
I26
sS'people'
p838
I27
sS'fucking'
p839
I26
sS'twitter'
p840
I29
sS'1st'
p841
I29
sS'some'
p842
I25
sS'back'
p843
I26
sS'up?\xe2\x80\x9d'
p844
I29
sS'hair'
p845
I28
sS'donald'
p846
I29
sS'palm'
p847
I29
sS'trippen'
p848
I29
sS'jessikuhh_22'
p849
I28
sS'racial'
p850
I29
sS'guess'
p851
I29
sS'peace'
p852
I29
sS'wiggins'
p853
I29
sS'txt'
p854
I29
sS'ngyari'
p855
I29
sS'for'
p856
I13
sS'icc'
p857
I29
sS'memories'
p858
I27
sS'thanksgiving'
p859
I29
sS'moon'
p860
I29
sS'everything'
p861
I28
sS'yooooo'
p862
I29
sS'cnn'
p863
I29
sS'balboa'
p864
I29
sS'fanny'
p865
I29
sS'be'
p866
I20
sS'ripped'
p867
I29
sS'01:39:03.0,34.07017185,-118.07278969,4336.01,i'
p868
I29
sS'patient'
p869
I29
sS'ps'
p870
I29
sS'lmfao'
p871
I29
sS'hypocritical'
p872
I29
sS'lose'
p873
I29
sS'send'
p874
I29
sS'how'
p875
I27
sS'step'
p876
I29
sS'phew'
p877
I29
sS'lottery'
p878
I29
sS'yr\xe2\x80\x9d'
p879
I29
sS'by'
p880
I25
sS'on'
p881
I24
sS'about'
p882
I23
sS'ok'
p883
I28
sS'would'
p884
I29
sS'oh'
p885
I27
sS'of'
p886
I15
sS'crocs'
p887
I29
sS'tie'
p888
I29
sS'104-90'
p889
I29
sS"brown's"
p890
I29
sS'west'
p891
I18
sS'mean'
p892
I29
sS'wanna'
p893
I26
sS'or'
p894
I26
sS'swimming'
p895
I29
sS'everything\xe2\x80\xa6'
p896
I29
sS'17:55:27.0,34.06674,-118.07069,4336.01,fucking'
p897
I29
sS'mailroom'
p898
I29
sS'selfie'
p899
I29
sS'within'
p900
I29
sS'lol,91770\n500656523513581568,julialopez_11,2014-08-16'
p901
I29
sS'bound'
p902
I17
sS'snapchat'
p903
I29
sS'son'
p904
I28
sS'down'
p905
I26
sS'nothing'
p906
I29
sS'playoff'
p907
I29
sS'nigga'
p908
I27
sS'accounts'
p909
I29
sS'brush'
p910
I28
sS'luck'
p911
I29
sS'shoots'
p912
I29
sS'happening'
p913
I29
sS'your'
p914
I24
sS'fast'
p915
I29
sS'sad'
p916
I29
sS'her'
p917
I29
sS'treated'
p918
I29
sS'support'
p919
I28
sS'there'
p920
I27
sS'lone'
p921
I29
sS'hey'
p922
I29
sS'lol'
p923
I17
sS'start'
p924
I29
sS'modifications'
p925
I29
sS'way'
p926
I28
sS'bruh'
p927
I27
sS'call'
p928
I29
sS'exceptional'
p929
I29
sS'bored'
p930
I29
sS'was'
p931
I23
sS'happy'
p932
I27
sS'930'
p933
I29
sS'head'
p934
I29
sS'buy'
p935
I28
sS'18:29:19.0,34.06698,-118.07166,4336.01,i'
p936
I29
sS'invite'
p937
I29
sS'kandi'
p938
I28
sS"i've"
p939
I27
sS'fasho'
p940
I28
sS'bus'
p941
I29
sS'coke'
p942
I29
sS'bitches'
p943
I29
sS'but'
p944
I22
sS"l.a.'s"
p945
I29
sS'boys'
p946
I29
sS'heat'
p947
I29
sS'hi'
p948
I29
sS'hear'
p949
I27
sS'tho'
p950
I27
sS'._'
p951
I29
sS'trying'
p952
I29
sS'with'
p953
I12
sS',91770\n426583243094106115,darlingdeee,2014-01-24'
p954
I29
sS'he'
p955
I28
sS'count'
p956
I29
sS'pull'
p957
I29
sS'throw'
p958
I29
sS'made'
p959
I29
sS'applying'
p960
I29
sS'treatment...,91770\n503372066574585857,goshfatherjinco,2014-08-24'
p961
I29
sS'happen'
p962
I29
sS'rage'
p963
I29
sS"wasn't"
p964
I29
sS'wish'
p965
I25
sS'inside'
p966
I29
sS'whatcha'
p967
I29
sS'up'
p968
I16
sS'tellin'
p969
I29
sS'curious"'
p970
I29
sS'me,91770\n484851396131295232,megandukee,2014-07-04'
p971
I29
sS'00:09:15.0,34.07081273,-118.07298685,4336.01,money'
p972
I29
sS'faded'
p973
I29
sS'18:42:25.0,34.06698,-118.07166,4336.01,imma'
p974
I29
sS'agree'
p975
I29
sS',91770\n489859190395920384,obeyyjoshy,2014-07-17'
p976
I29
sS"205lb's"
p977
I29
sS'proud'
p978
I29
sS'ravers'
p979
I29
sS'feliz'
p980
I29
sS'coffee\xe2\x80\x9d'
p981
I29
sS'am'
p982
I28
sS'life'
p983
I25
sS'an'
p984
I27
sS'82'
p985
I29
sS'as'
p986
I25
sS'diamond'
p987
I29
sS'at'
p988
I8
sS'chat'
p989
I29
sS'home'
p990
I27
sS'dammit'
p991
I29
sS'20'
p992
I29
sS'trip'
p993
I28
sS'shit'
p994
I27
sS'again'
p995
I28
sS'maybe'
p996
I29
sS'33-49'
p997
I29
sS'us'
p998
I29
sS'no'
p999
I23
sS'ends'
p1000
I29
sS'\xe2\x98\xba\xef\xb8\x8f,91770\n502825378004869120,obeyyjoshy,2014-08-22'
p1001
I29
sS'when'
p1002
I26
sS'40'
p1003
I29
sS'til'
p1004
I29
sS'bernardino'
p1005
I29
sS'other'
p1006
I29
sS'vacation'
p1007
I29
sS'sick'
p1008
I29
sS'hmu'
p1009
I29
sS',91770\n502933880048205826,obeyyjoshy,2014-08-22'
p1010
I29
sS'you'
p1011
I5
sS'out'
p1012
I26
sS'else,91770\n489849625461800960,obeyyjoshy,2014-07-17'
p1013
I29
sS'nice'
p1014
I29
sS'livin'
p1015
I29
sS'junk'
p1016
I29
sS'babbbe'
p1017
I29
sS'put'
p1018
I29
sS'13:52:50.0,34.0704,-118.082,4336.01,throwback'
p1019
I29
sS'felt'
p1020
I28
sS'18:59:00.0,34.06844665,-118.0795516,4336.01,i'
p1021
I29
sS'update'
p1022
I29
sS'stay'
p1023
I29
sS"let's"
p1024
I28
sS'chance'
p1025
I29
sS'flower'
p1026
I29
sS'reallllll'
p1027
I29
sS'friends'
p1028
I28
sS'desert'
p1029
I29
sS'lead'
p1030
I28
sS'started\xe2\x9c\x88'
p1031
I29
sS'age'
p1032
I29
sS'daily'
p1033
I29
sS'3-0'
p1034
I29
sS'loyal'
p1035
I29
sS'04:02:03.0,34.0704,-118.082,4336.01,multitasking'
p1036
I29
sS'u'
p1037
I25
sS'cute'
p1038
I29
sS'time'
p1039
I25
sS'fresh'
p1040
I28
sS'having'
p1041
I27
sS'rumbo'
p1042
I29
s.