(dp0
S''
p1
I1
sS'raining'
p2
I88
sS'd\xc3\xada'
p3
I88
sS'pido'
p4
I89
sS'19:24:48.0,34.04840003,-118.06615401,4337,security'
p5
I89
sS'hats'
p6
I89
sS'both'
p7
I87
sS'monte'
p8
I71
sS'foul'
p9
I89
sS'yikes'
p10
I89
sS'woods'
p11
I89
sS'sleep'
p12
I83
sS'asian'
p13
I88
sS'hanging'
p14
I89
sS'liar'
p15
I89
sS'captain'
p16
I89
sS'hate'
p17
I75
sS'rocking'
p18
I89
sS'mucho'
p19
I89
sS'buddy'
p20
I88
sS'this...u'
p21
I89
sS'electricity'
p22
I89
sS'tweet'
p23
I79
sS'?\xe2\x98\xba\xef\xb8\x8f'
p24
I89
sS'bike'
p25
I89
sS'voted'
p26
I88
sS'under'
p27
I89
sS'lord'
p28
I87
sS'sorry'
p29
I84
sS'pride'
p30
I89
sS'$47'
p31
I88
sS'worth'
p32
I83
sS'saves'
p33
I89
sS'risk'
p34
I89
sS'homeboy'
p35
I89
sS'partyy'
p36
I88
sS'lurk'
p37
I88
sS'helmet'
p38
I89
sS'every'
p39
I81
sS'jack'
p40
I86
sS'idc)'
p41
I89
sS',91733\n495806437579186176,tonesterrr13,2014-08-03'
p42
I89
sS'affect'
p43
I89
sS'stabbed'
p44
I89
sS'screaming'
p45
I89
sS'..too'
p46
I89
sS'tickets'
p47
I86
sS'four'
p48
I89
sS'school'
p49
I80
sS'mcfc'
p50
I89
sS'broiler'
p51
I89
sS'wooden'
p52
I89
sS'calif'
p53
I89
sS'mireya'
p54
I89
sS'venue'
p55
I89
sS'wednesday'
p56
I87
sS'oooo'
p57
I89
sS'suhh'
p58
I89
sS'honor'
p59
I89
sS'math'
p60
I88
sS'heading'
p61
I88
sS'spiders'
p62
I89
sS'enjoy'
p63
I88
sS'tired'
p64
I84
sS'glasss'
p65
I89
sS'performin'
p66
I89
sS'bacon'
p67
I87
sS'japanese'
p68
I87
sS'voting'
p69
I89
sS'tires'
p70
I89
sS'second'
p71
I89
sS'street'
p72
I85
sS'crossed<3'
p73
I89
sS'n'
p74
I76
sS'others)'
p75
I88
sS'jessica'
p76
I89
sS'even'
p77
I70
sS'inglewood'
p78
I89
sS"tonight's"
p79
I88
sS'mogs'
p80
I89
sS'ahijado'
p81
I88
sS'contributed'
p82
I89
sS'fingers'
p83
I88
sS'children'
p84
I89
sS'saludos'
p85
I77
sS'overdue'
p86
I89
sS'above'
p87
I89
sS'quincea\xc3\xb1era'
p88
I89
sS'new'
p89
I66
sS'6ft'
p90
I89
sS'ever'
p91
I72
sS'ayeezy'
p92
I89
sS'disney'
p93
I89
sS'told'
p94
I86
sS'kicked'
p95
I89
sS'loo'
p96
I89
sS"carl's"
p97
I88
sS'gayer'
p98
I89
sS'never'
p99
I72
sS'here'
p100
I67
sS'10%'
p101
I89
sS'\xe2\x9d\xa4\xef\xb8\x8f'
p102
I75
sS'ching'
p103
I88
sS'103'
p104
I89
sS'stares'
p105
I89
sS"aren't"
p106
I86
sS'dork'
p107
I89
sS'calculate'
p108
I89
sS'dry'
p109
I88
sS'kids'
p110
I87
sS'daughter'
p111
I89
sS'saludamos'
p112
I89
sS'attending'
p113
I89
sS'study'
p114
I89
sS'changed'
p115
I86
sS'dru'
p116
I89
sS"ray's"
p117
I88
sS"i'd"
p118
I87
sS'omar'
p119
I89
sS'stressed'
p120
I88
sS"baller's"
p121
I89
sS'military'
p122
I22
sS"i'm"
p123
I11
sS'sriracha'
p124
I89
sS'changer'
p125
I89
sS'julio'
p126
I89
sS'fantastic'
p127
I89
sS'wassup'
p128
I88
sS'ridiculed'
p129
I89
sS'semanas'
p130
I89
sS'julia'
p131
I89
sS'bro'
p132
I49
sS'17:53:59.0,34.05179169,-118.0570689,4337,why'
p133
I89
sS'total'
p134
I89
sS'chavo'
p135
I88
sS'bra'
p136
I89
sS'opponents'
p137
I89
sS'04:22:40.0,34.05009164,-118.06694541,4337,mary'
p138
I89
sS'spoke'
p139
I89
sS'would'
p140
I67
sS'hospital'
p141
I86
sS'watering'
p142
I89
sS'arms'
p143
I89
sS'welcome\xe2\x9d\xa4\xef\xb8\x8f'
p144
I89
sS'cali'
p145
I88
sS'asses'
p146
I89
sS'edward'
p147
I89
sS'call'
p148
I79
sS'(drug'
p149
I89
sS'survive'
p150
I89
sS'type'
p151
I87
sS'until'
p152
I87
sS'owen'
p153
I89
sS'females'
p154
I88
sS'posting'
p155
I88
sS'holy'
p156
I87
sS'relax'
p157
I88
sS'brings'
p158
I88
sS'haha'
p159
I36
sS'subtweet'
p160
I89
sS'award'
p161
I89
sS'pierced'
p162
I89
sS'phone'
p163
I84
sS'"mark"'
p164
I89
sS'excellent'
p165
I89
sS'hold'
p166
I88
sS"5'7"
p167
I89
sS'blocking'
p168
I89
sS'97'
p169
I89
sS'must'
p170
I87
sS'shoot'
p171
I87
sS'hospital.,91733\n434064812767584256,youlikemypenis,2014-02-13'
p172
I89
sS'word'
p173
I89
sS'room'
p174
I88
sS'roon'
p175
I89
sS'cheapest'
p176
I89
sS'1999'
p177
I89
sS'wooot\xe2\x80\x9d'
p178
I89
sS'potted'
p179
I89
sS'work'
p180
I64
sS'mi'
p181
I88
sS'reaaaaally'
p182
I89
sS'movies'
p183
I87
sS'club?"'
p184
I89
sS'mr'
p185
I87
sS'brake'
p186
I89
sS'my'
p187
I10
sS'il'
p188
I89
sS'ghana'
p189
I89
sS'love-davie'
p190
I89
sS'give'
p191
I84
sS'household'
p192
I89
sS'heartless'
p193
I89
sS'player"\xe2\x80\x9d'
p194
I89
sS'buming'
p195
I89
sS'homie'
p196
I89
sS'want'
p197
I58
sS'aaah'
p198
I89
sS'david'
p199
I88
sS'shesh'
p200
I89
sS'absolute'
p201
I88
sS'hof'
p202
I89
sS'hoe'
p203
I88
sS'end'
p204
I84
sS'recovery'
p205
I89
sS'thing'
p206
I79
sS'sitting'
p207
I89
sS'nuts'
p208
I89
sS'damage'
p209
I89
sS'machine'
p210
I89
sS'very'
p211
I87
sS'hot'
p212
I79
sS'babeluck'
p213
I89
sS'ig'
p214
I89
sS'hop'
p215
I89
sS'rewind'
p216
I89
sS'answer'
p217
I87
sS'futboleros'
p218
I81
sS'beach'
p219
I88
sS'shit,91733\n451752763857199105,bizymike,2014-04-03'
p220
I89
sS'hoy'
p221
I87
sS'parties,91733\n506528929465634816,_bootymonstaa_,2014-09-01'
p222
I89
sS'horoscope'
p223
I89
sS'bday'
p224
I83
sS'04:31:09.0,34.0463423,-118.0483154,4337,someone'
p225
I89
sS'after'
p226
I83
sS'loyalty'
p227
I89
sS'seppaku'
p228
I89
sS'wrong'
p229
I86
sS'jumping'
p230
I89
sS'lay'
p231
I89
sS'yamil'
p232
I89
sS'salsa'
p233
I88
sS'horas'
p234
I89
sS'kzjdjcjdjd'
p235
I89
sS'las'
p236
I89
sS'19:58:41.0,34.04380773,-118.06215692,4337,so'
p237
I89
sS'orden'
p238
I89
sS'horchata'
p239
I89
sS"meme'd"
p240
I89
sS'attempt'
p241
I88
sS'....."'
p242
I89
sS'vicio'
p243
I89
sS'chillen'
p244
I89
sS'appreciate'
p245
I89
sS',91733\n495878459344699392,_xalexxx,2014-08-03'
p246
I89
sS'greet'
p247
I89
sS'green'
p248
I87
sS'agragradecer'
p249
I89
sS'suerte'
p250
I89
sS'keeps'
p251
I88
sS'worst'
p252
I86
sS'1000'
p253
I89
sS'order'
p254
I86
sS'amir'
p255
I89
sS'fifa'
p256
I87
sS'school)'
p257
I89
sS'executed'
p258
I89
sS'decide'
p259
I89
sS'office'
p260
I87
sS'wut'
p261
I89
sS'lunice'
p262
I89
sS'over'
p263
I71
sS'fam'
p264
I86
sS'migos'
p265
I88
sS'else,91733\n494339421345288194,_bootymonstaa_,2014-07-30'
p266
I89
sS'ma\xc3\xb1ana'
p267
I89
sS'mayor'
p268
I83
sS'before'
p269
I85
sS'ima'
p270
I85
sS'rene_canas'
p271
I89
sS'somewhere'
p272
I89
sS'stingrays'
p273
I89
sS'gente'
p274
I89
sS'imo'
p275
I89
sS'better'
p276
I75
sS'liqur'
p277
I89
sS'differently'
p278
I89
sS'imy'
p279
I89
sS'hidden'
p280
I89
sS'fin'
p281
I87
sS'"winter'
p282
I89
sS'shively'
p283
I87
sS'then'
p284
I69
sS'them'
p285
I73
sS'*shrug*'
p286
I89
sS'weakness'
p287
I88
sS'chiodos'
p288
I89
sS'safe'
p289
I89
sS"we'll"
p290
I86
sS'break'
p291
I89
sS'karen_fornia\xe2\x80\xa6'
p292
I89
sS'they'
p293
I57
sS'payback'
p294
I88
sS'vaping'
p295
I89
sS'"nah'
p296
I89
sS'one'
p297
I45
sS'embarrassed'
p298
I89
sS'grammar'
p299
I89
sS'kicking'
p300
I89
sS'summer,91733\n513375184649076738,alvaradomay35,2014-09-20'
p301
I89
sS'l'
p302
I86
sS'alexis'
p303
I89
sS'toasted'
p304
I89
sS',91733\n496104058139471872,marcsanfranz,2014-08-04'
p305
I89
sS',91733\n509090293451218944,tylerthegurl,2014-09-08'
p306
I89
sS'mead'
p307
I88
sS'each'
p308
I88
sS'$50'
p309
I88
sS'americans'
p310
I89
sS'went'
p311
I86
sS'side'
p312
I85
sS'mean'
p313
I77
sS'complaciendo'
p314
I89
sS'spidey'
p315
I89
sS"hasn't"
p316
I89
sS'knockout'
p317
I89
sS'series'
p318
I88
sS'bowls'
p319
I89
sS'group'
p320
I89
sS'carry'
p321
I88
sS'strips'
p322
I89
sS'xmen'
p323
I89
sS"we'd"
p324
I88
sS'forgot'
p325
I86
sS'navy'
p326
I89
sS'logo'
p327
I89
sS'saturday'
p328
I84
sS'rt'
p329
I29
sS'goo'
p330
I89
sS'gon'
p331
I88
sS'driving'
p332
I87
sS'oprah'
p333
I89
sS'sluts'
p334
I89
sS'god'
p335
I77
sS'kawhi'
p336
I89
sS'cool:)'
p337
I89
sS'george'
p338
I89
sS'exitos'
p339
I89
sS're'
p340
I89
sS'daniel'
p341
I89
sS'rb'
p342
I89
sS'smh'
p343
I85
sS'got'
p344
I46
sS'rn'
p345
I78
sS'sliding'
p346
I89
sS'mopped'
p347
I89
sS'gate'
p348
I89
sS'arizona'
p349
I88
sS"doesn't"
p350
I80
sS'veto'
p351
I89
sS'"ain\'t'
p352
I89
sS'fave'
p353
I88
sS'little'
p354
I79
sS'free'
p355
I83
sS'richieboii3'
p356
I89
sS"2k15..can't"
p357
I89
sS'techno'
p358
I89
sS'struggle'
p359
I87
sS'toking'
p360
I89
sS'favs'
p361
I89
sS'wanted'
p362
I84
sS'silent'
p363
I89
sS'mvp'
p364
I89
sS'aisle'
p365
I89
sS'dammit'
p366
I89
sS'go('
p367
I89
sS'sigan'
p368
I89
sS'starts'
p369
I88
sS'hyperbolic'
p370
I89
sS'days'
p371
I88
sS'shush'
p372
I89
sS'"this'
p373
I88
sS'bears'
p374
I89
sS'shipped'
p375
I88
sS'whatta'
p376
I89
sS"today's"
p377
I89
sS'mvl'
p378
I89
sS'fuckin'
p379
I85
sS'already'
p380
I77
sS'too"'
p381
I89
sS'>>'
p382
I89
sS'there...woooop'
p383
I89
sS'grade'
p384
I88
sS'hunned'
p385
I89
sS'too)'
p386
I89
sS'wash'
p387
I87
sS'spinning'
p388
I89
sS'warped'
p389
I89
sS'another'
p390
I81
sS'\xc3\x9c'
p391
I89
sS'sober'
p392
I89
sS'enter-tame'
p393
I89
sS'hood'
p394
I88
sS'cool\xe2\x9c\xa8'
p395
I89
sS'basketball'
p396
I88
sS'service'
p397
I88
sS'top'
p398
I86
sS'rncan'
p399
I89
sS'girls'
p400
I80
sS'tow'
p401
I89
sS'needed'
p402
I89
sS'ton'
p403
I89
sS'too'
p404
I67
sS'tea'
p405
I89
sS'dwell'
p406
I89
sS'john'
p407
I88
sS'dogs'
p408
I88
sS'listen'
p409
I86
sS'hangout'
p410
I89
sS'fiery'
p411
I89
sS'tooo'
p412
I88
sS'gym'
p413
I87
sS'2014progressbrewing'
p414
I89
sS'serve'
p415
I88
sS'took'
p416
I87
sS'trippy'
p417
I89
sS'sammycaitlynn'
p418
I89
sS'broooooooo'
p419
I89
sS'much.not'
p420
I89
sS'messing'
p421
I89
sS'that...gn'
p422
I89
sS'again..,91733\n489634528957186048,cheps_doiing_it,2014-07-17'
p423
I89
sS'tree'
p424
I89
sS'tackles'
p425
I89
sS'spending'
p426
I89
sS'preparation'
p427
I89
sS'matter'
p428
I87
sS'classes'
p429
I88
sS'flame'
p430
I89
sS'sheen'
p431
I89
sS'spoiled'
p432
I89
sS'yoooooooooooooooo'
p433
I89
sS'feeling'
p434
I88
sS'powers'
p435
I89
sS'\xee\x80\xa2'
p436
I89
sS'este'
p437
I87
sS'sees'
p438
I88
sS'esta'
p439
I88
sS'ran'
p440
I88
sS'boston'
p441
I89
sS'girls,91733\n468207069279948800,chingdaisychong,2014-05-19'
p442
I89
sS'mind'
p443
I84
sS'mine'
p444
I86
sS'talking'
p445
I83
sS'rat'
p446
I89
sS'guapo'
p447
I88
sS'rap'
p448
I88
sS'100'
p449
I89
sS'seen'
p450
I84
sS'picks'
p451
I89
sS'pool/bbq'
p452
I89
sS'ray'
p453
I84
sS'hub'
p454
I89
sS'shes'
p455
I89
sS'-'
p456
I85
sS'chamba'
p457
I89
sS'brandon'
p458
I89
sS'on"'
p459
I89
sS'hoody'
p460
I88
sS'shelf'
p461
I89
sS'razer'
p462
I89
sS'rides'
p463
I88
sS'me,91733\n494246738320842753,_bootymonstaa_,2014-07-29'
p464
I89
sS'programa'
p465
I89
sS'blue'
p466
I87
sS'nobody'
p467
I86
sS'shall'
p468
I88
sS'12:52:51.0,34.05180371,-118.04289063,4337,goodmorning'
p469
I89
sS'nuevos'
p470
I89
sS'roma'
p471
I89
sS'shorty'
p472
I89
sS'audition'
p473
I88
sS'germany'
p474
I89
sS'*enlarges'
p475
I89
sS'jumpin'
p476
I89
sS'stood'
p477
I89
sS'competing'
p478
I89
sS'*adds'
p479
I89
sS'alabama'
p480
I89
sS'idgafos'
p481
I89
sS'bradford'
p482
I89
sS'camps'
p483
I89
sS'don'
p484
I88
sS'on,91733\n505347776939446273,bizymike,2014-08-29'
p485
I89
sS'm'
p486
I89
sS'dog'
p487
I88
sS'doe'
p488
I88
sS'freeway'
p489
I85
sS'hear:)'
p490
I89
sS'points'
p491
I88
sS'aunt'
p492
I88
sS'dads'
p493
I89
sS'tomorrow,91733\n439850382106181632,steveelaine333,2014-03-01'
p494
I89
sS'cama'
p495
I89
sS'boyfriends'
p496
I88
sS'annoyed'
p497
I89
sS'came'
p498
I83
sS'marvel'
p499
I89
sS'freak'
p500
I89
sS'saying'
p501
I86
sS'bomb'
p502
I86
sS'inspire'
p503
I89
sS'hunger'
p504
I89
sS'lewis'
p505
I89
sS'random'
p506
I87
sS'bonnie'
p507
I89
sS'sweating'
p508
I89
sS'nephew'
p509
I88
sS'randomize'
p510
I89
sS'ily\xe2\x80\x9d\xe2\x98\xba\xef\xb8\x8f'
p511
I89
sS'busy'
p512
I89
sS'clicked'
p513
I89
sS'yaaasss'
p514
I89
sS'cousins'
p515
I89
sS'weekends'
p516
I89
sS'bonuses'
p517
I89
sS'tries'
p518
I88
sS'theme'
p519
I89
sS'bliss'
p520
I89
sS'rick'
p521
I89
sS'rich'
p522
I89
sS'sgv)'
p523
I89
sS'apologized'
p524
I89
sS'rice'
p525
I89
sS'incredibles'
p526
I89
sS'wearing'
p527
I88
sS'do'
p528
I36
sS'dj'
p529
I87
sS'de'
p530
I62
sS'watch'
p531
I83
sS'dc'
p532
I87
sS'perfection<33'
p533
I89
sS'coast'
p534
I87
sS'competitive'
p535
I87
sS'wedding'
p536
I88
sS'report'
p537
I89
sS'happiest'
p538
I89
sS'dr'
p539
I88
sS'14'
p540
I88
sS'bat'
p541
I89
sS'vemos'
p542
I88
sS'bar'
p543
I86
sS'officially'
p544
I89
sS'guns'
p545
I89
sS'bag'
p546
I88
sS'bad'
p547
I74
sS'bae'
p548
I82
sS'shots'
p549
I89
sS'aww<333'
p550
I89
sS'release'
p551
I89
sS'bam'
p552
I89
sS'steal'
p553
I89
sS'ears'
p554
I89
sS'adorable<33'
p555
I89
sS'besties'
p556
I89
sS'clogging'
p557
I89
sS'fair'
p558
I89
sS'brought'
p559
I89
sS'w/'
p560
I79
sS'flosstradamus'
p561
I89
sS'reported'
p562
I89
sS'followers'
p563
I89
sS',91733\n489644816800571393,cheps_doiing_it,2014-07-17'
p564
I89
sS'goodnight'
p565
I88
sS'submitted'
p566
I89
sS'13:34:33.0,34.04149539,-118.06815175,4337,working'
p567
I89
sS'months\xe2\x80\x9d'
p568
I89
sS'o_o'
p569
I88
sS'jerseys'
p570
I89
sS'best'
p571
I65
sS'subject'
p572
I89
sS'mangoes'
p573
I89
sS'10:18:27.0,34.04813583,-118.06654788,4337,doomsday'
p574
I89
sS'said'
p575
I79
sS'lots'
p576
I88
sS'away'
p577
I84
sS'rings'
p578
I87
sS'calamity'
p579
I89
sS'future'
p580
I88
sS'finger'
p581
I89
sS'descanse'
p582
I89
sS'prada'
p583
I89
sS'$60'
p584
I89
sS'viernes'
p585
I89
sS'we'
p586
I44
sS'oomf'
p587
I84
sS'omg'
p588
I77
sS'wears'
p589
I89
sS'\xe2\x82\xac81million'
p590
I89
sS'weak'
p591
I88
sS'mayne'
p592
I87
sS'19:48:49.0,34.0488874,-118.043649,4337,leslie'
p593
I89
sS'boss'
p594
I85
sS'nightmares'
p595
I89
sS'wear'
p596
I85
sS'wtf'
p597
I83
sS'wth'
p598
I87
sS'news'
p599
I87
sS'picking'
p600
I89
sS'artiesin'
p601
I89
sS'blasted'
p602
I89
sS'ham'
p603
I89
sS'cop'
p604
I89
sS'tfti'
p605
I88
sS'howey'
p606
I89
sS'cow'
p607
I89
sS'met'
p608
I85
sS'country'
p609
I88
sS'ill'
p610
I84
sS'50000'
p611
I89
sS'jelly'
p612
I89
sS'edgar'
p613
I89
sS'vtech'
p614
I89
sS'stuttgart'
p615
I89
sS'haha\xe2\x80\x9d,91733\n446677172757880832,chrisuribeee,2014-03-20'
p616
I89
sS'games'
p617
I84
sS'chappelle'
p618
I89
sS"gnar's"
p619
I89
sS'logic'
p620
I89
sS'fagg'
p621
I89
sS'kidnapkid'
p622
I89
sS'rside'
p623
I89
sS'asked'
p624
I87
sS'con'
p625
I86
sS'paternidad'
p626
I89
sS"zlatan's"
p627
I89
sS'toni'
p628
I89
sS'legs'
p629
I88
sS'kak\xc3\xa1'
p630
I89
sS'25%'
p631
I89
sS'tiana'
p632
I89
sS'90+s'
p633
I89
sS'(str8'
p634
I89
sS'strong'
p635
I89
sS'"you'
p636
I89
sS'three'
p637
I89
sS'been'
p638
I65
sS'rivera'
p639
I89
sS'beer'
p640
I83
sS'much'
p641
I66
sS'diedso'
p642
I89
sS'tenemos'
p643
I89
sS'expected'
p644
I89
sS'puto'
p645
I88
sS'celebration'
p646
I89
sS'goodshit'
p647
I89
sS'life'
p648
I75
sS'sevilla'
p649
I89
sS'twrk'
p650
I89
sS'together\xe2\x80\x9d'
p651
I89
sS'drugs'
p652
I88
sS'sunshine'
p653
I89
sS'argument'
p654
I89
sS'07:48:26.0,34.04501889,-118.06768077,4337,turrrrn'
p655
I89
sS'fest'
p656
I88
sS'...soon'
p657
I89
sS'child'
p658
I88
sS'catch'
p659
I86
sS'165'
p660
I89
sS'cunt'
p661
I89
sS'chill'
p662
I88
sS'gracias'
p663
I77
sS'tank'
p664
I87
sS'sly'
p665
I89
sS'shiiieettt'
p666
I89
sS'raspy'
p667
I89
sS'air'
p668
I87
sS'ugly'
p669
I88
sS'suppose'
p670
I89
sS'surprised'
p671
I89
sS'b-day'
p672
I89
sS'drawstring\xe2\x80\xa6'
p673
I89
sS'voice'
p674
I85
sS'lahm'
p675
I89
sS'k'
p676
I89
sS'chilling'
p677
I89
sS'hangars'
p678
I89
sS'kindness'
p679
I89
sS'tzu'
p680
I83
sS'played'
p681
I86
sS'>:-/'
p682
I89
sS'is'
p683
I17
sS'dumped'
p684
I89
sS'it'
p685
I16
sS'iv'
p686
I89
sS'player'
p687
I87
sS'cant'
p688
I88
sS'im'
p689
I78
sS'cans'
p690
I89
sS'in'
p691
I14
sS'said)'
p692
I89
sS',91733\n494339932932931584,_bootymonstaa_,2014-07-30'
p693
I89
sS'id'
p694
I88
sS'trusted'
p695
I89
sS'if'
p696
I38
sS'memorial'
p697
I89
sS'nike/ups'
p698
I89
sS'bottles'
p699
I89
sS'cools'
p700
I89
sS'dodgerboy_88'
p701
I89
sS'suggest'
p702
I88
sS'make'
p703
I68
sS'hahaq'
p704
I89
sS'bella'
p705
I89
sS'backed'
p706
I89
sS'complex'
p707
I89
sS'hahah'
p708
I88
sS'80s'
p709
I89
sS'ipa.monday'
p710
I89
sS'bunny'
p711
I88
sS'yung'
p712
I89
sS'lunes'
p713
I89
sS'buscando'
p714
I88
sS'sacramento'
p715
I89
sS'...aaaayyy'
p716
I89
sS'hang'
p717
I86
sS'coachella'
p718
I89
sS'evil'
p719
I88
sS'hand'
p720
I86
sS'\xe2\x9c\x94\xef\xb8\x8f'
p721
I89
sS'realness'
p722
I89
sS'lol\xe2\x80\x9d'
p723
I88
sS'dark'
p724
I89
sS'opportunity'
p725
I89
sS"he'll"
p726
I89
sS'07:49:44.0,34.0424436,-118.05801954,4337,10'
p727
I89
sS'kid'
p728
I84
sS'butter'
p729
I89
sS'kept'
p730
I88
sS'kod'
p731
I89
sS'score'
p732
I89
sS'thx'
p733
I89
sS'charlie'
p734
I89
sS'youre'
p735
I89
sS'pissa\xe2\x9d\xa4\xef\xb8\x8f'
p736
I89
sS'spine<33'
p737
I89
sS'tho'
p738
I65
sS'contact'
p739
I88
sS'greatest'
p740
I85
sS'goals'
p741
I89
sS'mother'
p742
I88
sS'the'
p743
I3
sS'flops'
p744
I89
sS'cool('
p745
I89
sS'musical'
p746
I89
sS'tha'
p747
I89
sS'left'
p748
I85
sS'leagues'
p749
I89
sS'background'
p750
I89
sS'just'
p751
I26
sS'yea'
p752
I87
sS'photo'
p753
I87
sS'laptop'
p754
I89
sS'bruise'
p755
I89
sS'omarg42'
p756
I89
sS'hahahha'
p757
I89
sS'thanks'
p758
I71
sS'facts'
p759
I89
sS'yep'
p760
I89
sS'yes'
p761
I80
sS'yet'
p762
I82
sS's\xc3\xad'
p763
I89
sS'servidor'
p764
I89
sS'buyers'
p765
I89
sS'hills'
p766
I89
sS'tired&'
p767
I89
sS'cherry'
p768
I89
sS',91733\n496238730282147841,_xalexxx,2014-08-04'
p769
I89
sS'had'
p770
I63
sS'shout'
p771
I85
sS'potential'
p772
I89
sS'easy'
p773
I87
sS'save'
p774
I88
sS'hat'
p775
I88
sS'complex)'
p776
I89
sS'gave'
p777
I87
sS'turquoise'
p778
I89
sS'19:48:02.0,34.0488874,-118.043649,4337,that'
p779
I89
sS'lantern'
p780
I89
sS'possible'
p781
I87
sS'reyna'
p782
I89
sS'birth'
p783
I89
sS'newcastle'
p784
I89
sS'judge'
p785
I89
sS'opm'
p786
I89
sS'poses'
p787
I89
sS'6:00'
p788
I89
sS'korean'
p789
I88
sS'rumor'
p790
I89
sS'angel<333'
p791
I89
sS'desire'
p792
I89
sS'county'
p793
I89
sS'-_-'
p794
I88
sS'gift'
p795
I87
sS'texts'
p796
I87
sS'hunt'
p797
I88
sS'07:58:35.0,34.04250872,-118.05685025,4337,best'
p798
I89
sS'50'
p799
I86
sS'yaris'
p800
I89
sS'officer'
p801
I89
sS'night'
p802
I74
sS'amor'
p803
I89
sS'security'
p804
I89
sS'portuguese'
p805
I89
sS'right'
p806
I60
sS'old'
p807
I84
sS'yesenia'
p808
I89
sS'deal'
p809
I88
sS'people'
p810
I67
sS'understand'
p811
I88
sS'somehow'
p812
I88
sS'dead'
p813
I88
sS'deflection'
p814
I89
sS'0-100'
p815
I89
sS'breacheddd,91733\n348670609305255936,chrisfit101,2013-06-23'
p816
I89
sS'guess'
p817
I86
sS'finna'
p818
I88
sS'////'
p819
I89
sS'humor'
p820
I89
sS'ump'
p821
I89
sS'for'
p822
I15
sS'bottom'
p823
I89
sS'monacofor'
p824
I89
sS'11:25:13.0,34.04109792,-118.06009943,4337,babe'
p825
I89
sS'ice'
p826
I88
sS'stupid,91733\n500527284093087744,monicaaalovee,2014-08-16'
p827
I89
sS'contributing'
p828
I89
sS'everything'
p829
I85
sS'asking'
p830
I88
sS'scarier'
p831
I89
sS'umm'
p832
I87
sS'420'
p833
I89
sS'boo\xe2\x9d\xa4\xef\xb8\x8f'
p834
I89
sS'stalking'
p835
I89
sS'forever"'
p836
I89
sS'corn'
p837
I89
sS'7-eleven'
p838
I88
sS'22:35:41.0,34.04979536,-118.05976582,4337,visiting'
p839
I89
sS'plz'
p840
I88
sS'spa.,91733\n493622825018589184,jaffematthew,2014-07-28'
p841
I89
sS'phew'
p842
I89
sS'confrontation'
p843
I89
sS'defensive'
p844
I89
sS'losing'
p845
I89
sS'post'
p846
I86
sS'super'
p847
I87
sS'06:19:38.0,34.04357758,-118.05310439,4337,liz'
p848
I89
sS'aunts'
p849
I89
sS'esperamos'
p850
I87
sS'months'
p851
I89
sS'o'
p852
I89
sS'dinner'
p853
I87
sS'plus'
p854
I87
sS'afternoon'
p855
I89
sS'islands'
p856
I89
sS'nooooooo'
p857
I89
sS'curry'
p858
I89
sS'"villains"'
p859
I89
sS'facetime'
p860
I87
sS'duke'
p861
I89
sS'aha'
p862
I73
sS'lied'
p863
I89
sS'civil'
p864
I88
sS'pays'
p865
I89
sS'selfie'
p866
I89
sS'float'
p867
I89
sS'sol'
p868
I89
sS'soo'
p869
I89
sS'ppl'
p870
I88
sS'down'
p871
I62
sS'lies'
p872
I89
sS'magazines'
p873
I89
sS'coastal'
p874
I89
sS'soy'
p875
I88
sS'dean'
p876
I88
sS'rant'
p877
I89
sS'rounds'
p878
I89
sS'daum'
p879
I80
sS'east'
p880
I88
sS"6'3*\xe2\x80\x9d"
p881
I89
sS'crowd'
p882
I88
sS'fight'
p883
I88
sS'stuck'
p884
I86
sS'way'
p885
I74
sS'benchwarmers'
p886
I89
sS'music'
p887
I83
sS'was'
p888
I27
sS'war'
p889
I87
sS'happy'
p890
I64
sS'head'
p891
I84
sS'gf/bf'
p892
I89
sS'form'
p893
I89
sS'offer'
p894
I89
sS'understandably'
p895
I89
sS'batman'
p896
I89
sS'gorgeous'
p897
I89
sS'heat'
p898
I87
sS'bmth'
p899
I89
sS'hear'
p900
I86
sS'?\xe2\x80\x9d'
p901
I89
sS'dooope'
p902
I89
sS'*dap'
p903
I89
sS'manziel'
p904
I89
sS'true'
p905
I81
sS'\xc3\xa1ngeles'
p906
I87
sS'branded'
p907
I89
sS'understood'
p908
I89
sS'sweated'
p909
I89
sS'*richards'
p910
I89
sS'tell'
p911
I85
sS'tucson'
p912
I89
sS'martian'
p913
I89
sS'jeeeezus'
p914
I89
sS'pre-pg'
p915
I89
sS'lieng'
p916
I89
sS'stages'
p917
I89
sS"pharrell's"
p918
I89
sS'delete'
p919
I89
sS'moly'
p920
I89
sS'proud'
p921
I89
sS'proved'
p922
I89
sS'sticks'
p923
I89
sS'flat'
p924
I89
sS'together?"yeah"that\'s'
p925
I89
sS'6:30am'
p926
I89
sS'drive'
p927
I88
sS'belasco'
p928
I89
sS'ship'
p929
I88
sS'annoying'
p930
I88
sS'trip'
p931
I87
sS'shit'
p932
I55
sS'crutches'
p933
I89
sS'goldlink'
p934
I89
sS'tix'
p935
I89
sS'dying'
p936
I89
sS'no'
p937
I37
sS'na'
p938
I78
sS'when'
p939
I40
sS'asshole'
p940
I89
sS'til'
p941
I88
sS'ny'
p942
I89
sS'setting'
p943
I88
sS'papers'
p944
I89
sS'test'
p945
I89
sS'mmmmmmmmmmmmmmmmmmmmmmmmmmmmm'
p946
I89
sS'nt'
p947
I89
sS'roll'
p948
I89
sS'picture'
p949
I85
sS"'s"
p950
I88
sS'hustlas,91733\n438154486565965824,bizymike,2014-02-25'
p951
I89
sS'surprise'
p952
I89
sS'ramada'
p953
I89
sS'felt'
p954
I85
sS'update'
p955
I88
sS'hahahah'
p956
I89
sS"let's"
p957
I79
sS'fell'
p958
I89
sS'disclosure'
p959
I89
sS'professional'
p960
I89
sS'attendees'
p961
I89
sS'nighas'
p962
I89
sS'aware'
p963
I89
sS'weekend'
p964
I74
sS'died'
p965
I89
sS'domingo'
p966
I85
sS'longer'
p967
I86
sS'faze'
p968
I89
sS"mike's"
p969
I89
sS'together'
p970
I89
sS'loyal'
p971
I89
sS'time'
p972
I50
sS'coscos'
p973
I89
sS'serious'
p974
I88
sS'truuuuck'
p975
I89
sS'songs'
p976
I87
sS'neighbors'
p977
I88
sS':/'
p978
I74
sS':('
p979
I81
sS':)'
p980
I79
sS'ron'
p981
I89
sS'kodaline'
p982
I89
sS'dance'
p983
I88
sS'(1955'
p984
I89
sS'relieve'
p985
I89
sS'tkd'
p986
I89
sS'hawaii'
p987
I89
sS'theaters'
p988
I89
sS'mila'
p989
I89
sS'playoffs'
p990
I89
sS'row'
p991
I89
sS'21st'
p992
I89
sS'baller'
p993
I89
sS'zone'
p994
I88
sS"when's"
p995
I89
sS'flash'
p996
I89
sS'vez'
p997
I89
sS'disgusting'
p998
I89
sS'rodr\xc3\xadguez\xe2\x80\x9d'
p999
I89
sS'thighs'
p1000
I89
sS'gutless'
p1001
I89
sS'0'
p1002
I86
sS'finally'
p1003
I83
sS'fog'
p1004
I89
sS'promoting'
p1005
I89
sS'hola'
p1006
I89
sS'lmaoo'
p1007
I89
sS'me'
p1008
I13
sS':o'
p1009
I88
sS'sci-fi'
p1010
I89
sS':d'
p1011
I86
sS'antunez'
p1012
I89
sS'alexandsierra3'
p1013
I89
sS'sponsors'
p1014
I89
sS'tacos'
p1015
I85
sS'escuche'
p1016
I89
sS'vegas'
p1017
I83
sS'ojos'
p1018
I89
sS'cook'
p1019
I88
sS'ma'
p1020
I89
sS'trouble'
p1021
I89
sS':p'
p1022
I84
sS'<333333'
p1023
I89
sS'minute'
p1024
I89
sS'cool'
p1025
I82
sS'empty'
p1026
I89
sS'annd'
p1027
I89
sS'staples'
p1028
I89
sS'did'
p1029
I73
sS'die'
p1030
I85
sS'brother'
p1031
I87
sS'turnt'
p1032
I87
sS'leave'
p1033
I84
sS'p'
p1034
I88
sS'soooo'
p1035
I89
sS'team'
p1036
I77
sS'quick'
p1037
I85
sS'guy'
p1038
I78
sS'round'
p1039
I88
sS'yall'
p1040
I84
sS'commissary'
p1041
I89
sS'$77'
p1042
I89
sS'says'
p1043
I87
sS'regret'
p1044
I88
sS"you.'<33"
p1045
I89
sS'cavalry...a'
p1046
I89
sS'dealing'
p1047
I89
sS'shirts'
p1048
I87
sS'comforting'
p1049
I89
sS'19:04:10.0,34.04813583,-118.06654788,4337,hard'
p1050
I89
sS'drinks'
p1051
I87
sS'bruhh...\xe2\x80\x9d'
p1052
I89
sS'adds'
p1053
I89
sS'stands'
p1054
I89
sS'mt'
p1055
I89
sS'uniform'
p1056
I89
sS'adrianzaw'
p1057
I89
sS'megangaver'
p1058
I89
sS'goes'
p1059
I83
sS'reply'
p1060
I87
sS'falling'
p1061
I89
sS'appeal'
p1062
I89
sS'boost'
p1063
I89
sS'dental'
p1064
I89
sS'filled'
p1065
I89
sS'bandwagon'
p1066
I89
sS'agosto'
p1067
I86
sS'grandparents'
p1068
I89
sS'hairs'
p1069
I89
sS'makeup'
p1070
I87
sS'whittier\xe2\x80\xa6'
p1071
I89
sS'kickball'
p1072
I89
sS'water'
p1073
I87
sS'drinks,91733\n500513975633600512,monicaaalovee,2014-08-16'
p1074
I89
sS'13:47:28.0,34.05179358,-118.05360372,4337,running'
p1075
I89
sS'<<<<'
p1076
I89
sS's/o'
p1077
I89
sS'dzaaaaamn'
p1078
I89
sS'alone'
p1079
I86
sS'suckers'
p1080
I89
sS'along'
p1081
I88
sS'rue'
p1082
I89
sS'appears'
p1083
I89
sS'change'
p1084
I88
sS'wait'
p1085
I75
sS'boy'
p1086
I68
sS'invite-.-'
p1087
I89
sS'redemption'
p1088
I89
sS'flames'
p1089
I89
sS'washer'
p1090
I89
sS'hbd'
p1091
I89
sS'title'
p1092
I89
sS'lakers'
p1093
I88
sS'boi'
p1094
I89
sS',91733\n495679430400827392,tonesterrr13,2014-08-02'
p1095
I89
sS'boo'
p1096
I88
sS'life.,91733\n473543601805611008,shamsgoob,2014-06-02'
p1097
I89
sS'04:22:00.0,34.04523892,-118.05545656,4337,i'
p1098
I89
sS'weird'
p1099
I89
sS'rafael'
p1100
I89
sS'lmfaoooo'
p1101
I89
sS'04:31:17.0,34.0463372,-118.0483146,4337,comfort'
p1102
I89
sS'love'
p1103
I43
sS'bloods'
p1104
I88
sS'lineup..but'
p1105
I89
sS'qbiena'
p1106
I89
sS'u.t.u'
p1107
I89
sS'prefer'
p1108
I89
sS'dawgg,91733\n506528648505995264,_bootymonstaa_,2014-09-01'
p1109
I89
sS'withas'
p1110
I89
sS'bloody'
p1111
I89
sS'23:57:06.0,34.04664079,-118.0669984,4337,just'
p1112
I89
sS'1st'
p1113
I87
sS'"my'
p1114
I88
sS'everybody'
p1115
I89
sS'angell'
p1116
I89
sS'remaking'
p1117
I89
sS'franco'
p1118
I79
sS'working'
p1119
I86
sS'aye'
p1120
I87
sS'positive'
p1121
I89
sS'angry'
p1122
I89
sS'dude'
p1123
I83
sS'only'
p1124
I76
sS'intense'
p1125
I89
sS'davis/drummond'
p1126
I89
sS'charlies'
p1127
I89
sS'live'
p1128
I81
sS'wood'
p1129
I89
sS'ayy'
p1130
I85
sS'iphone'
p1131
I89
sS'memory'
p1132
I89
sS'scope'
p1133
I89
sS'thru'
p1134
I86
sS'rosemead'
p1135
I83
sS'today'
p1136
I64
sS'loving'
p1137
I88
sS'scratched'
p1138
I89
sS'entrance'
p1139
I89
sS'sharing'
p1140
I89
sS'12:47:18.0,34.04374372,-118.05471921,4337,i'
p1141
I89
sS'club'
p1142
I88
sS'pillow'
p1143
I89
sS'holyfuck'
p1144
I89
sS'ooh'
p1145
I89
sS'chocolate'
p1146
I89
sS'everywhere'
p1147
I89
sS'goooo'
p1148
I89
sS'\xe2\x9d\xa4\xef\xb8\x8f\xe2\x9d\xa4\xef\xb8\x8f'
p1149
I89
sS'mascot'
p1150
I89
sS'francisquito'
p1151
I89
sS'wouldnt'
p1152
I89
sS'niggas'
p1153
I83
sS'car'
p1154
I82
sS'cap'
p1155
I89
sS'cat'
p1156
I89
sS'purge'
p1157
I87
sS'aguilar'
p1158
I89
sS'can'
p1159
I59
sS'cal'
p1160
I89
sS'believed'
p1161
I89
sS'making'
p1162
I89
sS'metal'
p1163
I89
sS'biter'
p1164
I89
sS'heart'
p1165
I88
sS'crazy'
p1166
I84
sS'internet'
p1167
I89
sS'figure'
p1168
I87
sS'*brother'
p1169
I89
sS'awesome'
p1170
I86
sS"didn't"
p1171
I67
sS'fuck'
p1172
I58
sS'chit'
p1173
I89
sS'heard'
p1174
I88
sS'hard.,91733\n513515504951361536,mad_salz,2014-09-21'
p1175
I89
sS'dropped'
p1176
I86
sS'usna'
p1177
I89
sS'listens'
p1178
I89
sS'drama'
p1179
I89
sS'arkham'
p1180
I89
sS'watching'
p1181
I87
sS'1'
p1182
I84
sS'till'
p1183
I82
sS'shasta'
p1184
I81
sS'pins'
p1185
I89
sS'\xe2\x9d\xa4\xef\xb8\x8f\xe2\x9d\xa4\xef\xb8\x8f\xe2\x9d\xa4\xef\xb8\x8f'
p1186
I89
sS'sleep.,91733\n423090155138740224,bizymike,2014-01-14'
p1187
I89
sS'looses'
p1188
I89
sS'goosebumps'
p1189
I89
sS'flavored'
p1190
I81
sS'staying'
p1191
I88
sS'flirting'
p1192
I89
sS'healthy/focused'
p1193
I89
sS'may'
p1194
I88
sS'max'
p1195
I89
sS'liverpool'
p1196
I89
sS'spot'
p1197
I85
sS'diva'
p1198
I89
sS'tbt'
p1199
I88
sS'birthday'
p1200
I76
sS'mad'
p1201
I84
sS'mag'
p1202
I89
sS'date'
p1203
I87
sS'such'
p1204
I86
sS'heroes'
p1205
I89
sS'nikedidas'
p1206
I89
sS'guys'
p1207
I65
sS'avengers'
p1208
I89
sS'pressuring'
p1209
I89
sS'man'
p1210
I39
sS'stress'
p1211
I89
sS'natural'
p1212
I88
sS'remember'
p1213
I80
sS'17:23:22.0,34.05176188,-118.04677505,4337,lunch'
p1214
I89
sS'maybe'
p1215
I86
sS'irwin'
p1216
I89
sS'su'
p1217
I82
sS'st'
p1218
I86
sS'switch'
p1219
I89
sS'00:10:39.0,34.0416406,-118.0627117,4337,i'
p1220
I89
sS'so'
p1221
I25
sS'automatically'
p1222
I89
sS'tall'
p1223
I89
sS'talk'
p1224
I76
sS'nearly'
p1225
I89
sS',91733\n496228074543792129,_xalexxx,2014-08-04'
p1226
I89
sS'cute'
p1227
I81
sS'acts'
p1228
I89
sS'paramore'
p1229
I89
sS'usc'
p1230
I89
sS'indeed'
p1231
I88
sS'themselves.\xe2\x80\x9d'
p1232
I89
sS'arguer'
p1233
I89
sS'years'
p1234
I85
sS'brain'
p1235
I89
sS'kimmel'
p1236
I89
sS'tweets('
p1237
I89
sS'diplo'
p1238
I85
sS'kanye'
p1239
I89
sS'cold'
p1240
I87
sS'still'
p1241
I71
sS'pointer'
p1242
I89
sS'llegando'
p1243
I89
sS'dreading'
p1244
I89
sS'gratos'
p1245
I89
sS'police'
p1246
I89
sS'thank'
p1247
I74
sS"he's"
p1248
I71
sS'chips'
p1249
I89
sS'18:36:35.0,34.0412982,-118.0694835,4337,i'
p1250
I89
sS'rondo'
p1251
I88
sS'tori'
p1252
I89
sS'amazing'
p1253
I78
sS'lyin'
p1254
I89
sS'wasting'
p1255
I89
sS'lobs'
p1256
I89
sS'manhunter'
p1257
I89
sS'tweets'
p1258
I86
sS'main'
p1259
I87
sS'mommy'
p1260
I89
sS'texas'
p1261
I89
sS'happened'
p1262
I87
sS'ramon'
p1263
I89
sS'halp'
p1264
I89
sS'"rave'
p1265
I89
sS'matches'
p1266
I88
sS'10:38:36.0,34.04813583,-118.06654788,4337,cuz'
p1267
I89
sS'feelin'
p1268
I89
sS'lunch'
p1269
I87
sS'safari'
p1270
I88
sS'half'
p1271
I87
sS'not'
p1272
I32
sS'feature'
p1273
I89
sS'now'
p1274
I65
sS'killed'
p1275
I85
sS'year"'
p1276
I89
sS'nos'
p1277
I86
sS'wont'
p1278
I89
sS'holographic'
p1279
I89
sS'name'
p1280
I81
sS'james'
p1281
I88
sS'drop'
p1282
I85
sS'rock'
p1283
I89
sS'x10'
p1284
I89
sS'muchas'
p1285
I88
sS'pizza'
p1286
I88
sS'concerts'
p1287
I88
sS'reminds'
p1288
I89
sS"birthday'"
p1289
I89
sS'em'
p1290
I81
sS'el'
p1291
I60
sS'en'
p1292
I73
sS'rodr\xc3\xadguez'
p1293
I89
sS'lowkey'
p1294
I89
sS'ed'
p1295
I88
sS'torch'
p1296
I89
sS'yeah'
p1297
I56
sS'wrap'
p1298
I89
sS'catching'
p1299
I89
sS'ex'
p1300
I84
sS'year'
p1301
I75
sS'calexpo'
p1302
I89
sS'girl'
p1303
I70
sS'teams'
p1304
I89
sS'obsession'
p1305
I89
sS'pills'
p1306
I89
sS'es'
p1307
I89
sS'anyway,91733\n495802612365533184,crystallynngale,2014-08-03'
p1308
I89
sS'album'
p1309
I86
sS'living'
p1310
I89
sS'jackson'
p1311
I89
sS'3rd'
p1312
I88
sS'looking'
p1313
I83
sS'seriously'
p1314
I82
sS'stupid'
p1315
I85
sS'forever.,91733\n500518916477571072,monicaaalovee,2014-08-16'
p1316
I89
sS'you!,91733\n495695438603763712,xquietstorm08x,2014-08-02'
p1317
I89
sS'lmfao,91733\n500511705055907841,monicaaalovee,2014-08-16'
p1318
I89
sS'squares'
p1319
I89
sS'descansamos'
p1320
I89
sS'shows'
p1321
I88
sS'tiesto'
p1322
I88
sS'earlier'
p1323
I88
sS'wan'
p1324
I89
sS'million'
p1325
I86
sS'hulk'
p1326
I87
sS'quite'
p1327
I89
sS'disrespect'
p1328
I87
sS'birfffffday'
p1329
I89
sS'allstar'
p1330
I89
sS'california'
p1331
I86
sS'amigos'
p1332
I88
sS'cough'
p1333
I88
sS'inevitable'
p1334
I89
sS'whittier'
p1335
I47
sS'care'
p1336
I88
sS'partner'
p1337
I89
sS'a&m'
p1338
I89
sS'training'
p1339
I89
sS'00:13:00.0,34.0492405,-118.0456626,4337,just'
p1340
I89
sS'empezando'
p1341
I89
sS'zomg'
p1342
I88
sS'100$'
p1343
I89
sS'gusto'
p1344
I88
sS'bachata'
p1345
I88
sS'turn'
p1346
I84
sS"country's"
p1347
I89
sS'place'
p1348
I87
sS'every\xe2\x80\xa6'
p1349
I89
sS'"pass'
p1350
I89
sS'"karina'
p1351
I89
sS'unborn'
p1352
I89
sS'think'
p1353
I69
sS'teammates'
p1354
I89
sS'first'
p1355
I73
sS'sanchez'
p1356
I87
sS'hangs'
p1357
I89
sS'saving'
p1358
I89
sS'626'
p1359
I88
sS'wahlberg'
p1360
I89
sS'softball'
p1361
I86
sS'60/605'
p1362
I89
sS'xd'
p1363
I89
sS'yourself'
p1364
I86
sS'dieng'
p1365
I88
sS'twinkie'
p1366
I89
sS'00:21:48.0,34.04123727,-118.07003978,4337,dodger'
p1367
I89
sS'spanish'
p1368
I88
sS'vote'
p1369
I88
sS'zaw'
p1370
I87
sS'sounds'
p1371
I85
sS'ayers'
p1372
I89
sS'open'
p1373
I88
sS'tomorrow'
p1374
I76
sS'hardddd'
p1375
I89
sS'size'
p1376
I89
sS'city'
p1377
I88
sS'given'
p1378
I88
sS'boulevard'
p1379
I89
sS'wrath'
p1380
I89
sS'fieri'
p1381
I89
sS'gif'
p1382
I89
sS'23'
p1383
I89
sS'caught'
p1384
I87
sS'perffffffect<3'
p1385
I89
sS't'
p1386
I89
sS'anyone'
p1387
I83
sS'fml'
p1388
I89
sS'2'
p1389
I73
sS'draft'
p1390
I83
sS'velllllcome'
p1391
I89
sS'typing'
p1392
I89
sS'white'
p1393
I85
sS'friend'
p1394
I82
sS'fohwtbs'
p1395
I89
sS'fancy'
p1396
I89
sS'hug'
p1397
I88
sS'lecture/class'
p1398
I89
sS'that'
p1399
I18
sS'ayeeeeeeee'
p1400
I89
sS'season'
p1401
I87
sS'hun'
p1402
I88
sS'huh'
p1403
I87
sS'alan'
p1404
I89
sS'cutie\xe2\x80\x9d'
p1405
I89
sS'cops'
p1406
I89
sS'(rosemead'
p1407
I24
sS'gin'
p1408
I89
sS'fooled'
p1409
I89
sS'than'
p1410
I75
sS"here's"
p1411
I89
sS'boyfriend'
p1412
I88
sS'10'
p1413
I86
sS'13'
p1414
I89
sS'12'
p1415
I87
sS'15'
p1416
I86
sS'lmao'
p1417
I67
sS'17'
p1418
I89
sS'<<rft>>'
p1419
I89
sS'19'
p1420
I89
sS'18'
p1421
I86
sS'gotta'
p1422
I79
sS'man\xe2\x80\x9d'
p1423
I89
sS'looove'
p1424
I89
sS"coolin'"
p1425
I89
sS'r'
p1426
I84
sS'were'
p1427
I66
sS'college'
p1428
I89
sS'sublime'
p1429
I89
sS'"aww'
p1430
I89
sS'and'
p1431
I12
sS'00:04:19.0,34.04337825,-118.06226699,4337,better'
p1432
I89
sS'bear!!l"'
p1433
I89
sS'san'
p1434
I85
sS'sam'
p1435
I88
sS'sac'
p1436
I89
sS'craig'
p1437
I89
sS'parking'
p1438
I86
sS'turned'
p1439
I88
sS'hershey'
p1440
I89
sS'sad'
p1441
I89
sS'woah'
p1442
I89
sS'say'
p1443
I72
sS'slam'
p1444
I89
sS',91733\n453021254497234944,bizymike,2014-04-07'
p1445
I89
sS'rent'
p1446
I88
sS'23:34:12.0,34.04566446,-118.06365811,4337,\xe2\x99\xa5\xe2\x99\xa5'
p1447
I89
sS'comiccon'
p1448
I89
sS'recover'
p1449
I89
sS'saw'
p1450
I79
sS'any'
p1451
I87
sS'superman'
p1452
I89
sS'sport'
p1453
I89
sS'wcw'
p1454
I88
sS'answering'
p1455
I89
sS'cocontest\xc3\xa9'
p1456
I89
sS'note'
p1457
I89
sS'equipment'
p1458
I89
sS'squad'
p1459
I88
sS'take'
p1460
I68
sS'"mexicans'
p1461
I89
sS'performance'
p1462
I89
sS'blunt'
p1463
I89
sS'bitching'
p1464
I89
sS'cienna'
p1465
I89
sS'septiembre'
p1466
I89
sS'sure'
p1467
I82
sS'pain'
p1468
I88
sS'wearin'
p1469
I89
sS'wooow'
p1470
I89
sS'know,91733\n494974708765720576,notoriouz_riggs,2014-07-31'
p1471
I89
sS'knew'
p1472
I87
sS'betrayal'
p1473
I89
sS'05:15:25.0,34.047999,-118.043667,4337,sucks'
p1474
I89
sS'paid'
p1475
I87
sS'netflix'
p1476
I89
sS'hand,91733\n506784803379634176,bizymike,2014-09-02'
p1477
I89
sS'champs'
p1478
I89
sS'freshmen'
p1479
I89
sS'20%'
p1480
I89
sS'pr\xc3\xb3xima'
p1481
I89
sS'complaints'
p1482
I89
sS'knee'
p1483
I89
sS'fck'
p1484
I89
sS"amanda's"
p1485
I89
sS'forever'
p1486
I87
sS'saludarle'
p1487
I89
sS'serie'
p1488
I89
sS'later'
p1489
I87
sS'saludarlo'
p1490
I89
sS'hungry'
p1491
I88
sS'playing'
p1492
I86
sS'sunset'
p1493
I88
sS',91733\n496202180005990401,berlinmason,2014-08-04'
p1494
I89
sS'axe'
p1495
I89
sS'uncle'
p1496
I89
sS'senior'
p1497
I89
sS'bitchhass'
p1498
I89
sS'shop'
p1499
I89
sS'rating'
p1500
I88
sS'walking'
p1501
I89
sS'shot'
p1502
I89
sS'compadres'
p1503
I89
sS'beckham'
p1504
I89
sS'show'
p1505
I85
sS'cheap'
p1506
I89
sS'merit'
p1507
I89
sS'discovered'
p1508
I89
sS'estoy'
p1509
I87
sS'nomage'
p1510
I89
sS'celebrating'
p1511
I89
sS'label'
p1512
I89
sS'aint'
p1513
I89
sS'woot'
p1514
I88
sS'laughlin'
p1515
I89
sS'(ye'
p1516
I89
sS'knicks'
p1517
I89
sS'07:37:57.0,34.04333392,-118.06274031,4337,i'
p1518
I89
sS'dick'
p1519
I85
sS'outside'
p1520
I88
sS'18<333'
p1521
I89
sS'tears'
p1522
I88
sS'going'
p1523
I58
sS'black'
p1524
I88
sS'deck'
p1525
I89
sS"common's"
p1526
I89
sS'narrows'
p1527
I47
sS'get'
p1528
I42
sS'mission'
p1529
I88
sS'define'
p1530
I89
sS'bandwagons'
p1531
I89
sS'outlet'
p1532
I89
sS'hippy'
p1533
I89
sS'dye'
p1534
I89
sS'clans'
p1535
I89
sS'doorman'
p1536
I89
sS'gem'
p1537
I88
sS'celebrate'
p1538
I89
sS'llol'
p1539
I89
sS'morning'
p1540
I86
sS'penguins'
p1541
I88
sS'markers'
p1542
I89
sS'undefeated'
p1543
I89
sS'worries'
p1544
I88
sS'finishing'
p1545
I89
sS'tent'
p1546
I89
sS'where'
p1547
I77
sS'xmas'
p1548
I87
sS"y'all"
p1549
I73
sS'concert'
p1550
I87
sS'gooooooogllllle'
p1551
I89
sS'physically'
p1552
I89
sS'mom'
p1553
I77
sS'notice'
p1554
I89
sS'seat'
p1555
I89
sS'asleep'
p1556
I86
sS'anyways'
p1557
I85
sS'hoes'
p1558
I88
sS'apologies'
p1559
I89
sS'estamos'
p1560
I89
sS'(like'
p1561
I89
sS'wonder'
p1562
I86
sS'um'
p1563
I89
sS'beatboxer'
p1564
I89
sS'03:19:50.0,34.04997146,-118.06941691,4337,no'
p1565
I89
sS'ways'
p1566
I89
sS'harvey'
p1567
I89
sS'this\xc2\xbb'
p1568
I89
sS'3'
p1569
I82
sS'gaga'
p1570
I89
sS'adolfo_85'
p1571
I89
sS'between'
p1572
I89
sS"alyssa's"
p1573
I89
sS'yepp'
p1574
I89
sS'across'
p1575
I89
sS'jaykantor'
p1576
I89
sS'thai/chinese'
p1577
I89
sS'august'
p1578
I88
sS'kool'
p1579
I88
sS'lol,91733\n496022360743358465,mariaaaamj,2014-08-03'
p1580
I89
sS'screen'
p1581
I88
sS'tus'
p1582
I89
sS'fan..we'
p1583
I89
sS'jr'
p1584
I88
sS'blame'
p1585
I89
sS'faults'
p1586
I89
sS'jo'
p1587
I89
sS'jk'
p1588
I80
sS'broil'
p1589
I89
sS'vieeentooosssss'
p1590
I89
sS'come'
p1591
I71
sS'ja'
p1592
I87
sS'busting'
p1593
I89
sS'mans'
p1594
I89
sS'tuck'
p1595
I89
sS'many'
p1596
I83
sS'trades'
p1597
I89
sS'quiet'
p1598
I89
sS'contract'
p1599
I89
sS'malia'
p1600
I89
sS'empezar'
p1601
I89
sS'tour'
p1602
I88
sS'dated'
p1603
I89
sS'soaking'
p1604
I89
sS'"maybe'
p1605
I89
sS'guardians'
p1606
I88
sS'yeeea'
p1607
I89
sS"can't"
p1608
I72
sS'mano'
p1609
I89
sS"fans'"
p1610
I89
sS'chokeslams'
p1611
I89
sS'color'
p1612
I89
sS'hurts'
p1613
I87
sS'por'
p1614
I84
sS'pos'
p1615
I89
sS'pop'
p1616
I89
sS'60'
p1617
I87
sS'terrenos'
p1618
I88
sS"couldn't"
p1619
I87
sS'no-kill'
p1620
I89
sS'ricardo'
p1621
I88
sS'\xee\x90\x98'
p1622
I89
sS'subscribed'
p1623
I89
sS'capable'
p1624
I89
sS'west'
p1625
I87
sS'ucla'
p1626
I89
sS'mark'
p1627
I89
sS'breath'
p1628
I89
sS'raging'
p1629
I89
sS'sesh'
p1630
I89
sS'featuring'
p1631
I89
sS"wayne's"
p1632
I89
sS'tyga'
p1633
I89
sS'wants'
p1634
I87
sS'shopping'
p1635
I87
sS'laner'
p1636
I89
sS'readings'
p1637
I89
sS'tiger'
p1638
I89
sS'comen'
p1639
I89
sS'wake'
p1640
I87
sS'standup'
p1641
I89
sS'"who'
p1642
I89
sS'bmx'
p1643
I89
sS'dropouts'
p1644
I89
sS'05:36:36.0,34.0491758,-118.0457542,4337,nice'
p1645
I89
sS'those'
p1646
I82
sS'paying'
p1647
I88
sS'myself'
p1648
I84
sS'(:,91733\n376850992090071040,lunakbby,2013-09-08'
p1649
I89
sS"batman's"
p1650
I89
sS'3:45'
p1651
I89
sS'these'
p1652
I71
sS'cash'
p1653
I89
sS'cast'
p1654
I88
sS'ratchet'
p1655
I89
sS"haven't"
p1656
I85
sS'joke'
p1657
I89
sS'situation'
p1658
I89
sS'invited'
p1659
I86
sS'buzzed'
p1660
I89
sS'premiere'
p1661
I89
sS'lol<3'
p1662
I89
sS'tea<33'
p1663
I89
sS'coffee'
p1664
I88
sS'bros'
p1665
I87
sS'sleeping'
p1666
I89
sS'gabsmead'
p1667
I86
sS'blah'
p1668
I86
sS'someone'
p1669
I76
sS'punched'
p1670
I89
sS'ironic'
p1671
I89
sS'somebody'
p1672
I89
sS'awhile'
p1673
I88
sS'worry'
p1674
I86
sS'lovezzzz'
p1675
I89
sS'evento'
p1676
I87
sS'different'
p1677
I88
sS'chevron'
p1678
I89
sS'skylar'
p1679
I89
sS'pay'
p1680
I86
sS'bowl'
p1681
I88
sS's'
p1682
I89
sS'same'
p1683
I78
sS'check'
p1684
I89
sS'food'
p1685
I83
sS'heartbreak'
p1686
I89
sS'pad'
p1687
I87
sS'cassie'
p1688
I89
sS'yessir'
p1689
I89
sS'19:53:51.0,34.04893437,-118.06835904,4337,too'
p1690
I89
sS'rt\xe2\x80\x9d'
p1691
I89
sS'cramming'
p1692
I89
sS'week'
p1693
I76
sS'dooooo'
p1694
I89
sS'raps'
p1695
I89
sS'finish'
p1696
I89
sS'screenshot'
p1697
I89
sS'tarde'
p1698
I89
sS'ye'
p1699
I89
sS'nj'
p1700
I89
sS'weed'
p1701
I86
sS'scientist'
p1702
I89
sS'running'
p1703
I88
sS'woulda'
p1704
I89
sS'tita'
p1705
I89
sS'presidents'
p1706
I89
sS'cartoon'
p1707
I89
sS'be<3"'
p1708
I89
sS'bryce'
p1709
I89
sS'<33333'
p1710
I89
sS'^.^'
p1711
I89
sS'band'
p1712
I89
sS'charger'
p1713
I89
sS'magical'
p1714
I88
sS'nothin'
p1715
I89
sS'without'
p1716
I86
sS'solve'
p1717
I89
sS'comes'
p1718
I89
sS'bottle'
p1719
I89
sS'trains'
p1720
I89
sS'model'
p1721
I89
sS'bumping'
p1722
I89
sS'amazed'
p1723
I89
sS'bitchesss'
p1724
I89
sS'summer'
p1725
I50
sS'peace'
p1726
I89
sS'\xe2\x98\xba\xef\xb8\x8f'
p1727
I87
sS'being'
p1728
I82
sS'money'
p1729
I87
sS'drafters'
p1730
I89
sS'rest'
p1731
I87
sS"fosselman's"
p1732
I89
sS'informarle'
p1733
I89
sS'kill'
p1734
I88
sS'touch'
p1735
I89
sS'asleep*'
p1736
I89
sS'ps4'
p1737
I87
sS'blow'
p1738
I88
sS'death'
p1739
I88
sS"madrid's"
p1740
I88
sS'alike\xe2\x80\x9d'
p1741
I89
sS'thinking'
p1742
I87
sS'rose'
p1743
I88
sS"everyone's"
p1744
I88
sS'iphones'
p1745
I89
sS'it\xe2\x80\x99s'
p1746
I89
sS'lets'
p1747
I88
sS'4'
p1748
I80
sS'tuesday'
p1749
I89
sS'skies'
p1750
I89
sS'ross'
p1751
I89
sS'real'
p1752
I68
sS'defection'
p1753
I89
sS'calmate'
p1754
I89
sS'around'
p1755
I86
sS'mehh'
p1756
I89
sS'read'
p1757
I88
sS'jeans'
p1758
I89
sS'quick..looks'
p1759
I89
sS'gonna'
p1760
I54
sS'early'
p1761
I86
sS'warehouse'
p1762
I89
sS'simmons'
p1763
I89
sS'traffic'
p1764
I84
sS'listening'
p1765
I88
sS'kaman'
p1766
I89
sS'\xe2\x9d\x84\xef\xb8\x8f\xe2\x9d\x84\xef\xb8\x8f'
p1767
I89
sS'world'
p1768
I81
sS'"texter"'
p1769
I89
sS'lady'
p1770
I87
sS'valentine'
p1771
I89
sS'it.\xe2\x80\xa6'
p1772
I89
sS'2014-15'
p1773
I89
sS'some\xe2\x80\xa6'
p1774
I89
sS'bracelet'
p1775
I89
sS'21:16:00.0,34.04892876,-118.06707962,4337,fuck'
p1776
I89
sS'miracle'
p1777
I89
sS'career"'
p1778
I88
sS'chamber'
p1779
I89
sS'either'
p1780
I88
sS'hallelujah'
p1781
I89
sS'fully'
p1782
I89
sS'lol,91733\n496201324933808128,tonesterrr13,2014-08-04'
p1783
I89
sS'accidentally'
p1784
I89
sS'great,91733\n505870835769303041,adrian_tybg,2014-08-31'
p1785
I89
sS'me<33'
p1786
I87
sS'joking'
p1787
I89
sS'arrested'
p1788
I89
sS'competition'
p1789
I89
sS'chuck'
p1790
I89
sS'supplementary'
p1791
I89
sS'eddie'
p1792
I89
sS'laotian'
p1793
I89
sS'drummonnnnnnd'
p1794
I89
sS'23:27:25.0,34.04566446,-118.06365811,4337,just'
p1795
I89
sS'respect'
p1796
I89
sS'playin'
p1797
I89
sS'rocks'
p1798
I89
sS'thinks'
p1799
I87
sS'ahhhhhh'
p1800
I89
sS'malone'
p1801
I88
sS'buzzin'
p1802
I89
sS'mood'
p1803
I88
sS'memories'
p1804
I88
sS'drove'
p1805
I89
sS'moon'
p1806
I87
sS'throat'
p1807
I89
sS'lunar'
p1808
I89
sS'rn,91733\n488029166692884480,ashley_gines_,2014-07-12'
p1809
I89
sS'dimples'
p1810
I89
sS'shirtless'
p1811
I89
sS'football'
p1812
I84
sS'business'
p1813
I88
sS'asap'
p1814
I88
sS'lmfao'
p1815
I84
sS'problems'
p1816
I89
sS'nails'
p1817
I89
sS'07:32:07.0,34.04083241,-118.05017636,4337,hard'
p1818
I89
sS'thugz'
p1819
I89
sS'tonka'
p1820
I89
sS'polite'
p1821
I89
sS'broken'
p1822
I88
sS'^_^'
p1823
I89
sS'hectic'
p1824
I89
sS';)'
p1825
I89
sS';('
p1826
I88
sS'throw'
p1827
I85
sS'!,91733\n465417933720518656,roobieflores,2014-05-11'
p1828
I89
sS'on'
p1829
I19
sS'potosi'
p1830
I89
sS'ol'
p1831
I88
sS'ok'
p1832
I81
sS'haaaaarrdddd'
p1833
I89
sS'oh'
p1834
I70
sS'og'
p1835
I89
sS'of'
p1836
I9
sS'teddy'
p1837
I89
sS'favorite'
p1838
I83
sS'(yes)'
p1839
I89
sS"6'2"
p1840
I89
sS'pockets'
p1841
I89
sS'act'
p1842
I89
sS'luck'
p1843
I87
sS'or'
p1844
I64
sS'road'
p1845
I86
sS'shrug*'
p1846
I89
sS'gritar'
p1847
I89
sS'blessed'
p1848
I88
sS'snapchat'
p1849
I87
sS'vacation'
p1850
I89
sS'kroos'
p1851
I89
sS'awww<333'
p1852
I89
sS':c'
p1853
I89
sS'apologize'
p1854
I89
sS'yay('
p1855
I89
sS'fantasy'
p1856
I88
sS'your'
p1857
I31
sS'trabajar'
p1858
I89
sS'fast'
p1859
I89
sS'her'
p1860
I71
sS'hes'
p1861
I88
sS',91733\n463056747478126592,bandaelcoronel,2014-05-04'
p1862
I89
sS'there'
p1863
I62
sS'madden'
p1864
I87
sS'lol'
p1865
I6
sS'start'
p1866
I87
sS"how'd"
p1867
I89
sS'low'
p1868
I86
sS'lot'
p1869
I80
sS'kind-of'
p1870
I89
sS'cultures'
p1871
I89
sS'valley'
p1872
I89
sS'jayrod'
p1873
I89
sS'21:25:59.0,34.04493667,-118.04822654,4337,dang'
p1874
I89
sS'adidas'
p1875
I89
sS'dormir'
p1876
I89
sS'complete'
p1877
I89
sS'you('
p1878
I88
sS'co-worker'
p1879
I89
sS'lmaooo'
p1880
I87
sS'jus'
p1881
I82
sS'chata'
p1882
I89
sS'09:36:07.0,34.04813583,-118.06654788,4337,get'
p1883
I89
sS'ended'
p1884
I89
sS'"what\'s'
p1885
I89
sS'e'
p1886
I86
sS'trying'
p1887
I85
sS'with'
p1888
I22
sS'buying'
p1889
I88
sS'happening'
p1890
I89
sS'20:41:30.0,34.0454119,-118.0582356,4337,fresas'
p1891
I89
sS"they're"
p1892
I79
sS'rush'
p1893
I88
sS'october'
p1894
I89
sS'applying'
p1895
I89
sS'stanford'
p1896
I89
sS"wasn't"
p1897
I83
sS'ronaldo'
p1898
I89
sS'bucket'
p1899
I89
sS'\xe2\x80\x9cwomen\xe2\x80\x99s'
p1900
I89
sS'pacer'
p1901
I89
sS'vick'
p1902
I89
sS'manuel'
p1903
I88
sS'trading'
p1904
I89
sS'grass'
p1905
I89
sS'builders'
p1906
I89
sS'swaggy'
p1907
I89
sS'gone'
p1908
I88
sS'jdjdjdjdkkf'
p1909
I89
sS'gona'
p1910
I89
sS'videos'
p1911
I88
sS'af'
p1912
I75
sS'exhausted'
p1913
I89
sS'certain'
p1914
I89
sS'describe'
p1915
I89
sS'moved'
p1916
I87
sS'al'
p1917
I87
sS'an'
p1918
I76
sS'as'
p1919
I59
sS'scanned'
p1920
I89
sS'at'
p1921
I8
sS'nero'
p1922
I88
sS'ay'
p1923
I89
sS'watched'
p1924
I87
sS'horse'
p1925
I89
sS'film'
p1926
I89
sS'cream'
p1927
I88
sS'again'
p1928
I78
sS'deserve'
p1929
I88
sS'harr'
p1930
I89
sS'roses'
p1931
I89
sS'5'
p1932
I83
sS'hmu'
p1933
I88
sS'you'
p1934
I5
sS'trash'
p1935
I88
sS'thinkpiece'
p1936
I89
sS'appreciated.\xe2\x80\x9d'
p1937
I89
sS'poor'
p1938
I88
sS'suites'
p1939
I89
sS'championship'
p1940
I89
sS'obsessed'
p1941
I89
sS'separate'
p1942
I89
sS'teeth'
p1943
I89
sS'drift'
p1944
I89
sS'keepin'
p1945
I89
sS'flower'
p1946
I89
sS'\xc2\xa324'
p1947
I89
sS'05:17:44.0,34.04345898,-118.05328502,4337,my'
p1948
I89
sS'chris'
p1949
I89
sS'dunked'
p1950
I89
sS'pool'
p1951
I88
sS'alcohol'
p1952
I88
sS'building'
p1953
I88
sS'20mins'
p1954
I89
sS'calls'
p1955
I89
sS'spend'
p1956
I89
sS'clowning'
p1957
I89
sS'barcelona'
p1958
I88
sS'9800'
p1959
I88
sS"ko's"
p1960
I89
sS'groot'
p1961
I87
sS'homos'
p1962
I89
sS'u'
p1963
I52
sS'adam'
p1964
I89
sS'tuh-tonka'
p1965
I89
sS'non-knicks'
p1966
I89
sS'alright'
p1967
I82
sS'time,91733\n495190424131084289,bizymike,2014-08-01'
p1968
I89
sS'starting'
p1969
I87
sS'kyrie'
p1970
I89
sS'represent'
p1971
I89
sS'all'
p1972
I35
sS'shazam'
p1973
I88
sS'forget'
p1974
I87
sS'chinese'
p1975
I89
sS'katy'
p1976
I89
sS'yonc\xc3\xa9'
p1977
I89
sS'dollar'
p1978
I89
sS'seals'
p1979
I89
sS'awhh'
p1980
I88
sS'ciudad'
p1981
I89
sS'coach'
p1982
I86
sS'rosales'
p1983
I89
sS'lurks'
p1984
I89
sS'overdose'
p1985
I89
sS'talks'
p1986
I89
sS'follow'
p1987
I85
sS'sue\xc3\xb1o'
p1988
I88
sS'liam'
p1989
I89
sS'als'
p1990
I89
sS'hmmm'
p1991
I89
sS'oma\xc3\xb1as'
p1992
I88
sS'go,91733\n461946887587627008,bizymike,2014-05-01'
p1993
I89
sS'hunting'
p1994
I89
sS'imma'
p1995
I86
sS'lallana'
p1996
I89
sS'tu'
p1997
I88
sS'thursday'
p1998
I88
sS'laughing'
p1999
I89
sS'pistons'
p2000
I89
sS'to'
p2001
I4
sS'fernies'
p2002
I89
sS'alvarez'
p2003
I87
sS'thooo'
p2004
I89
sS'baddies'
p2005
I89
sS'smile'
p2006
I87
sS'te'
p2007
I89
sS',91733\n496032633009082368,marcsanfranz,2014-08-03'
p2008
I89
sS'feria'
p2009
I86
sS'sound'
p2010
I88
sS'michi'
p2011
I89
sS'woman'
p2012
I88
sS'worse'
p2013
I87
sS'song'
p2014
I83
sS'far'
p2015
I85
sS'paradise'
p2016
I89
sS'fat'
p2017
I89
sS'selfies'
p2018
I89
sS'fan'
p2019
I84
sS'bestie'
p2020
I89
sS'fall'
p2021
I83
sS'ayer'
p2022
I89
sS'ticket'
p2023
I89
sS'difference'
p2024
I89
sS'fag'
p2025
I87
sS'condition'
p2026
I89
sS'avis'
p2027
I89
sS'upppp'
p2028
I89
sS'enjoyable'
p2029
I89
sS'randomness'
p2030
I89
sS'heaven'
p2031
I88
sS'eds'
p2032
I89
sS'louis'
p2033
I88
sS'list'
p2034
I88
sS'sang'
p2035
I89
sS'vibes'
p2036
I89
sS'hyu'
p2037
I89
sS'harry'
p2038
I89
sS'small'
p2039
I87
sS'dodger'
p2040
I89
sS"i'll"
p2041
I68
sS'ass'
p2042
I70
sS'instagram'
p2043
I88
sS'02:51:12.0,34.05169051,-118.06434478,4337,debating'
p2044
I89
sS'healed'
p2045
I89
sS'past'
p2046
I89
sS'funck'
p2047
I89
sS'design'
p2048
I89
sS'pass'
p2049
I87
sS'rato'
p2050
I88
sS'nba'
p2051
I86
sS'postiga'
p2052
I89
sS'fuck~'
p2053
I89
sS'what'
p2054
I34
sS'seguirme'
p2055
I88
sS'accnt'
p2056
I89
sS"nelly's"
p2057
I89
sS'richard'
p2058
I88
sS'sun'
p2059
I89
sS'section'
p2060
I89
sS'music...box'
p2061
I89
sS'fucks'
p2062
I89
sS'lol,91733\n496199637242376192,tonesterrr13,2014-08-04'
p2063
I89
sS'crush'
p2064
I89
sS'sus'
p2065
I87
sS',91733\n495721791550394370,_sunbum,2014-08-03'
p2066
I89
sS'sup'
p2067
I88
sS'advance'
p2068
I89
sS'guythe'
p2069
I89
sS'public'
p2070
I88
sS'vamos'
p2071
I89
sS'zaragoza'
p2072
I89
sS'full'
p2073
I85
sS'ranged'
p2074
I89
sS'loose'
p2075
I89
sS'05:13:16.0,34.04141807,-118.06836834,4337,,91733\n526469147509932032,58pris,2014-10-26'
p2076
I89
sS'supposedly'
p2077
I89
sS'vale'
p2078
I89
sS'hours'
p2079
I86
sS'tracks'
p2080
I89
sS'descansar'
p2081
I87
sS'hmmmm'
p2082
I89
sS'alberto'
p2083
I89
sS'shoulda'
p2084
I85
sS'durags'
p2085
I89
sS"nobody's"
p2086
I89
sS'creeps'
p2087
I89
sS'naval'
p2088
I89
sS'ahead'
p2089
I89
sS'playbills'
p2090
I89
sS'inspired'
p2091
I89
sS'jackie'
p2092
I89
sS'experience'
p2093
I89
sS'pics'
p2094
I87
sS'prior'
p2095
I89
sS'pico'
p2096
I89
sS'milkshake'
p2097
I89
sS'pick'
p2098
I85
sS'action'
p2099
I80
sS"would've"
p2100
I89
sS'link'
p2101
I89
sS'07:34:14.0,34.04763881,-118.06447758,4337,plur'
p2102
I89
sS'06:12:55.0,34.04965565,-118.05789834,4337,thotties'
p2103
I89
sS'via'
p2104
I87
sS'followed'
p2105
I88
sS'family'
p2106
I82
sS'marginal'
p2107
I89
sS'curas'
p2108
I89
sS'batshit'
p2109
I89
sS'ask'
p2110
I82
sS'follower'
p2111
I89
sS'you\xe2\x80\x99re'
p2112
I89
sS'by\xe2\x80\xa6'
p2113
I89
sS'toys'
p2114
I89
sS'buenas'
p2115
I89
sS'gosh'
p2116
I89
sS'environment'
p2117
I89
sS"keepin'"
p2118
I89
sS'ash'
p2119
I89
sS'takes'
p2120
I89
sS'hollywoodbowl'
p2121
I89
sS'two'
p2122
I81
sS'lol,91733\n489885599692644353,bizymike,2014-07-17'
p2123
I89
sS'resident'
p2124
I88
sS'6'
p2125
I87
sS'taken'
p2126
I89
sS'nothing,91733\n495651449054175232,sacadeswaga,2014-08-02'
p2127
I89
sS'injury'
p2128
I89
sS'more'
p2129
I74
sS'tryna'
p2130
I87
sS'door'
p2131
I88
sS'knows'
p2132
I89
sS'pads'
p2133
I89
sS'strange'
p2134
I89
sS'festival.\xe2\x80\xa6'
p2135
I89
sS"family's"
p2136
I89
sS'brothas'
p2137
I89
sS'excuse'
p2138
I86
sS"ain't"
p2139
I75
sS'basically'
p2140
I88
sS'broke'
p2141
I86
sS'dios'
p2142
I83
sS'hurry'
p2143
I89
sS'glad'
p2144
I84
sS'town'
p2145
I87
sS'grill'
p2146
I87
sS'keeping'
p2147
I89
sS'tortoise'
p2148
I89
sS'hour'
p2149
I89
sS'03:32:24.0,34.04997884,-118.06447813,4337,having'
p2150
I89
sS'phillip'
p2151
I89
sS'der'
p2152
I89
sS'sucks'
p2153
I85
sS'4am'
p2154
I89
sS'friendly'
p2155
I89
sS'thooooo'
p2156
I89
sS'mall'
p2157
I89
sS'sudden'
p2158
I89
sS'del'
p2159
I88
sS'knocked'
p2160
I89
sS'seagull'
p2161
I89
sS'spontaneous'
p2162
I89
sS'def'
p2163
I87
sS'history'
p2164
I21
sS'beautiful'
p2165
I77
sS'shark'
p2166
I89
sS'f4'
p2167
I89
sS'reportese'
p2168
I89
sS'brown'
p2169
I88
sS'"84th"'
p2170
I89
sS'share'
p2171
I88
sS'sike'
p2172
I89
sS'\xc2\xaf\\_('
p2173
I89
sS'numbers'
p2174
I89
sS'sense'
p2175
I86
sS'14-0'
p2176
I89
sS'1/365'
p2177
I89
sS'pong'
p2178
I87
sS'dress'
p2179
I88
sS'snake\xe2\x80\x9d'
p2180
I89
sS'influenced'
p2181
I89
sS'needs'
p2182
I85
sS'court'
p2183
I89
sS'goal'
p2184
I88
sS'awkward'
p2185
I89
sS'flawless'
p2186
I89
sS'rather'
p2187
I89
sS'breaking'
p2188
I87
sS'licked'
p2189
I89
sS'stayed'
p2190
I88
sS'needa'
p2191
I87
sS'109292882-1'
p2192
I89
sS'explains'
p2193
I89
sS'goat'
p2194
I89
sS'shiba'
p2195
I89
sS'blacked'
p2196
I89
sS'sandwich'
p2197
I89
sS'okay'
p2198
I78
sS'tried'
p2199
I89
sS'rude'
p2200
I88
sS'bags'
p2201
I89
sS's\xc3\xa1bado'
p2202
I87
sS'advice'
p2203
I87
sS'sneak'
p2204
I87
sS'fb'
p2205
I87
sS'fd'
p2206
I89
sS'coming'
p2207
I82
sS'choice'
p2208
I89
sS'a'
p2209
I7
sS'short'
p2210
I89
sS'-___-'
p2211
I89
sS'disc\xc3\xbalpen'
p2212
I89
sS'tweeting'
p2213
I88
sS'sence'
p2214
I89
sS'brudda'
p2215
I89
sS'volleyball'
p2216
I89
sS'dragon'
p2217
I89
sS"bae's"
p2218
I89
sS'beardless'
p2219
I89
sS'yaaaassss'
p2220
I89
sS'putting'
p2221
I89
sS'breads'
p2222
I89
sS'merche'
p2223
I89
sS'$4000'
p2224
I88
sS"that's"
p2225
I63
sS'mexican'
p2226
I89
sS'help'
p2227
I87
sS"don't"
p2228
I37
sS'september'
p2229
I89
sS'brotha'
p2230
I83
sS'soon'
p2231
I84
sS'trade'
p2232
I89
sS'bcuz'
p2233
I89
sS'held'
p2234
I89
sS'attitude'
p2235
I88
sS'ffl'
p2236
I88
sS'through'
p2237
I87
sS'recuerdos'
p2238
I89
sS'signs'
p2239
I89
sS'hell'
p2240
I81
sS'mcdonalds'
p2241
I89
sS'its'
p2242
I82
sS'24'
p2243
I87
sS'messed'
p2244
I87
sS'27'
p2245
I89
sS'21'
p2246
I88
sS'22'
p2247
I89
sS'13:52:36.0,34.05183355,-118.04884256,4337,goodmorning\xe2\x98\x81\xef\xb8\x8f,91733\n425988086304997376,bizymike,2014-01-22'
p2248
I89
sS"anthony's"
p2249
I89
sS'fair)'
p2250
I89
sS'28'
p2251
I88
sS'actually'
p2252
I84
sS'late'
p2253
I86
sS'>>>'
p2254
I88
sS'wizards'
p2255
I89
sS'\xe2\x9d\xa4\xef\xb8\x8f,91733\n495719973738655744,badgirlalii,2014-08-02'
p2256
I89
sS'21:16:00.0,34.04882478,-118.06712715,4337,as'
p2257
I89
sS'day/nightso'
p2258
I89
sS'pcc'
p2259
I86
sS'bout'
p2260
I85
sS'soccer'
p2261
I87
sS'might'
p2262
I83
sS'goodmorning'
p2263
I88
sS'fool'
p2264
I86
sS'good'
p2265
I42
sS'return'
p2266
I88
sS'yo'
p2267
I75
sS'ya'
p2268
I70
sS'alesana'
p2269
I89
sS'buys'
p2270
I89
sS'it"'
p2271
I89
sS'bought'
p2272
I89
sS'uhh'
p2273
I89
sS'walls'
p2274
I89
sS'starbucks'
p2275
I88
sS'outbreak'
p2276
I89
sS'ninja'
p2277
I88
sS'orrr'
p2278
I89
sS'bigger'
p2279
I89
sS'easily'
p2280
I89
sS'everytime'
p2281
I87
sS'07:54:26.0,34.04210974,-118.05593002,4337,best'
p2282
I89
sS'always'
p2283
I53
sS'drake'
p2284
I87
sS'jaime'
p2285
I89
sS'm\xc3\xa1s'
p2286
I88
sS'tear'
p2287
I87
sS'kill.me.now'
p2288
I89
sS'found'
p2289
I81
sS'daumn'
p2290
I89
sS'button'
p2291
I88
sS"isn't"
p2292
I83
sS'2k'
p2293
I88
sS'weighs'
p2294
I88
sS'everyone'
p2295
I79
sS'england'
p2296
I89
sS'mental'
p2297
I89
sS'mums'
p2298
I88
sS'house'
p2299
I84
sS'fish'
p2300
I89
sS'hard'
p2301
I30
sS'idea'
p2302
I88
sS'weekend>>>'
p2303
I89
sS'09:07:37.0,34.04040403,-118.05508143,4337,i'
p2304
I89
sS'heartbroken'
p2305
I89
sS'really'
p2306
I78
sS'perry'
p2307
I89
sS'missed'
p2308
I85
sS'wondered'
p2309
I89
sS'<<<'
p2310
I89
sS'19:14:55.0,34.05181055,-118.05660535,4337,getting'
p2311
I89
sS'since'
p2312
I80
sS'summmmmerrr'
p2313
I89
sS'health'
p2314
I89
sS'discopor'
p2315
I89
sS'7'
p2316
I88
sS'chavo\xe2\x9d\xa4\xef\xb8\x8f'
p2317
I89
sS'print'
p2318
I89
sS'okay\xe2\x9d\xa4\xef\xb8\x8f'
p2319
I89
sS'sex...if'
p2320
I89
sS'issue'
p2321
I89
sS'brewery'
p2322
I89
sS'dunk'
p2323
I88
sS'reporting'
p2324
I89
sS'upon'
p2325
I89
sS'friday'
p2326
I88
sS'motherfucker'
p2327
I88
sS'ness'
p2328
I89
sS'darius'
p2329
I89
sS'asb'
p2330
I89
sS'reason'
p2331
I88
sS'rated'
p2332
I89
sS'cookie'
p2333
I89
sS'disneyland'
p2334
I89
sS'fadded'
p2335
I89
sS'imagine'
p2336
I89
sS'put'
p2337
I85
sS'eem'
p2338
I89
sS'duuuuhh'
p2339
I89
sS'kings'
p2340
I89
sS'bendiga'
p2341
I88
sS'bhris'
p2342
I89
sS'definition'
p2343
I89
sS'04:06:55.0,34.04186667,-118.06225081,4337,i'
p2344
I89
sS'haaha'
p2345
I89
sS'english'
p2346
I89
sS'persuading'
p2347
I89
sS'terrible'
p2348
I89
sS'terribly'
p2349
I89
sS'american'
p2350
I21
sS'expecting'
p2351
I89
sS'w'
p2352
I80
sS'scouts'
p2353
I89
sS'throws'
p2354
I89
sS'feed'
p2355
I89
sS'claudia'
p2356
I89
sS'07:11:58.0,34.04696865,-118.06188201,4337,booty'
p2357
I89
sS'guac'
p2358
I89
sS'dont'
p2359
I88
sS'feel'
p2360
I74
sS'hablo'
p2361
I89
sS'knocking'
p2362
I88
sS'number'
p2363
I86
sS'welcome'
p2364
I80
sS'happier'
p2365
I89
sS'dust'
p2366
I89
sS'sailor'
p2367
I87
sS'done'
p2368
I83
sS'least'
p2369
I89
sS'gaberlino'
p2370
I89
sS'legalized'
p2371
I89
sS'miss'
p2372
I72
sS'moan'
p2373
I89
sS'story'
p2374
I87
sS'"'
p2375
I86
sS'guest'
p2376
I88
sS'aaaaaay'
p2377
I89
sS'interact'
p2378
I89
sS'puzzles'
p2379
I89
sS'felicidades'
p2380
I88
sS'paint'
p2381
I89
sS'eddy'
p2382
I89
sS'station'
p2383
I88
sS'saint'
p2384
I89
sS'essays'
p2385
I89
sS'jeo'
p2386
I89
sS'store'
p2387
I89
sS'headache'
p2388
I88
sS'selling'
p2389
I88
sS'para'
p2390
I85
sS'pump'
p2391
I89
sS'you\xe2\x80\x9d'
p2392
I89
sS'hotel'
p2393
I88
sS'park'
p2394
I70
sS'mmmm'
p2395
I89
sS'07:48:26.0,34.04929991,-118.06731842,4337,disclosure'
p2396
I89
sS'blondie'
p2397
I89
sS'part'
p2398
I85
sS'jordan'
p2399
I89
sS'rain'
p2400
I87
sS'mexicans'
p2401
I89
sS'believe'
p2402
I84
sS'enlarge*'
p2403
I89
sS'carnage'
p2404
I89
sS'obama'
p2405
I87
sS'king'
p2406
I89
sS'b'
p2407
I84
sS'compliments'
p2408
I89
sS'double'
p2409
I89
sS'21:33:23.0,34.05178802,-118.06418213,4337,can'
p2410
I89
sS'clouds\xe2\x80\x9d'
p2411
I89
sS'zmillvogkillv'
p2412
I89
sS'2020'
p2413
I89
sS'supposed'
p2414
I89
sS'dang'
p2415
I87
sS',91733\n496199770415710208,tonesterrr13,2014-08-04'
p2416
I89
sS'ousted'
p2417
I85
sS'it..\xe2\x80\x9d'
p2418
I89
sS'timmmmeee'
p2419
I89
sS'motivation'
p2420
I89
sS'picked'
p2421
I89
sS'wasnt'
p2422
I89
sS'giancarlo'
p2423
I89
sS'beforehand'
p2424
I89
sS'lmaooooo'
p2425
I88
sS',91733\n444626693823533057,cbbarraza,2014-03-15'
p2426
I89
sS'skrill'
p2427
I89
sS'now..when'
p2428
I89
sS'5\xe2\x80\x997\xe2\x80\x9d'
p2429
I89
sS"edm_bear's"
p2430
I89
sS'04:07:18.0,34.04053206,-118.05531696,4337,always'
p2431
I89
sS'lie'
p2432
I83
sS'glensonla'
p2433
I89
sS'relationship'
p2434
I89
sS'dancing'
p2435
I85
sS'lil'
p2436
I79
sS'self'
p2437
I88
sS'couch'
p2438
I89
sS'also'
p2439
I86
sS'breeze'
p2440
I89
sS'analogy'
p2441
I89
sS'sharpe'
p2442
I89
sS'finding'
p2443
I89
sS'pupusas'
p2444
I89
sS"harris'"
p2445
I89
sS'to.take'
p2446
I89
sS'deandre'
p2447
I89
sS'krit'
p2448
I89
sS'play'
p2449
I83
sS'jamie'
p2450
I89
sS'gonnaa'
p2451
I89
sS'quote'
p2452
I89
sS'inconvenience'
p2453
I89
sS'b_reezy25'
p2454
I89
sS'most'
p2455
I78
sS'nothing'
p2456
I80
sS'sbarros'
p2457
I89
sS'breh'
p2458
I89
sS'extremely'
p2459
I89
sS'pozole'
p2460
I89
sS'kb'
p2461
I89
sS'muscle'
p2462
I89
sS'bug'
p2463
I89
sS'incase'
p2464
I89
sS'windows'
p2465
I89
sS'performances'
p2466
I89
sS'"you\'re'
p2467
I89
sS'sometimes'
p2468
I88
sS'cover'
p2469
I89
sS'both^.^'
p2470
I89
sS'camo'
p2471
I89
sS'storyline'
p2472
I89
sS'exs'
p2473
I89
sS'clean'
p2474
I89
sS'ky'
p2475
I89
sS'latest'
p2476
I89
sS'lying'
p2477
I89
sS'please,91733\n468245162154401792,bizymike,2014-05-19'
p2478
I89
sS'thomas'
p2479
I89
sS'ugh'
p2480
I83
sS'x100'
p2481
I89
sS'gold'
p2482
I89
sS'gates'
p2483
I89
sS'federal\xe2\x80\xa6'
p2484
I89
sS'hugging'
p2485
I89
sS'stfu'
p2486
I88
sS'session'
p2487
I89
sS'fonz'
p2488
I89
sS'rts'
p2489
I89
sS'fine'
p2490
I85
sS'find'
p2491
I88
sS'omegle'
p2492
I89
sS'current'
p2493
I89
sS'giant'
p2494
I89
sS'payday'
p2495
I88
sS'failed'
p2496
I87
sS'summer,91733\n495840171330654208,camille_keh,2014-08-03'
p2497
I89
sS'pretty'
p2498
I79
sS'boy<333'
p2499
I89
sS'ban'
p2500
I89
sS'accurate'
p2501
I89
sS'hip'
p2502
I89
sS'tittie'
p2503
I89
sS'his'
p2504
I72
sS'hit'
p2505
I76
sS'tommorow'
p2506
I84
sS'banned'
p2507
I89
sS'strut'
p2508
I89
sS'whistle'
p2509
I89
sS'feels'
p2510
I87
sS'05:25:29.0,34.04672901,-118.06778035,4337,drugs,91733\n495829411170906112,g30babyy,2014-08-03'
p2511
I89
sS'international'
p2512
I88
sS'during'
p2513
I87
sS',91733\n495805791434059777,thatkidburgs,2014-08-03'
p2514
I89
sS'him'
p2515
I67
sS'crs'
p2516
I89
sS'catches'
p2517
I89
sS'rft'
p2518
I89
sS'laaaamee'
p2519
I89
sS'cry'
p2520
I87
sS'day('
p2521
I89
sS'nickelodeon'
p2522
I89
sS'garcia'
p2523
I89
sS'common'
p2524
I88
sS'x'
p2525
I89
sS'7-eleven\xe2\x80\xa6'
p2526
I89
sS'cheese'
p2527
I89
sS'restaurants'
p2528
I89
sS'booty!"no'
p2529
I89
sS'bars'
p2530
I89
sS'set'
p2531
I80
sS'throwing'
p2532
I89
sS'sex'
p2533
I89
sS'manning'
p2534
I89
sS'see'
p2535
I56
sS'girly'
p2536
I89
sS'dumb'
p2537
I87
sS'are'
p2538
I41
sS'close'
p2539
I87
sS'retweet'
p2540
I88
sS'sustayta'
p2541
I89
sS'blide'
p2542
I89
sS'irwindale'
p2543
I89
sS'pictures'
p2544
I87
sS'wow'
p2545
I77
sS'currently'
p2546
I89
sS'please'
p2547
I86
sS'slapped'
p2548
I89
sS'fans'
p2549
I89
sS'won'
p2550
I88
sS'crema'
p2551
I89
sS'probably'
p2552
I87
sS'champagne'
p2553
I88
sS'nope'
p2554
I88
sS'piss'
p2555
I89
sS'knowing'
p2556
I88
sS'promoci\xc3\xb3n'
p2557
I89
sS'ranker'
p2558
I89
sS'imaginas'
p2559
I89
sS'missing'
p2560
I87
sS'goddamn'
p2561
I89
sS'brewing'
p2562
I83
sS'outfit'
p2563
I89
sS'\xc3\xa1rea'
p2564
I88
sS'tomorrow?best'
p2565
I89
sS'franchise'
p2566
I88
sS'perfection'
p2567
I89
sS'official'
p2568
I89
sS'meeks'
p2569
I88
sS'c'
p2570
I88
sS'last'
p2571
I78
sS'dangit'
p2572
I89
sS'necesario'
p2573
I89
sS'policy'
p2574
I89
sS'treated'
p2575
I89
sS'barely'
p2576
I87
sS'event'
p2577
I89
sS'connection'
p2578
I89
sS'became'
p2579
I88
sS'alot'
p2580
I88
sS'weirdo'
p2581
I89
sS'bond'
p2582
I89
sS'whole'
p2583
I85
sS'patty'
p2584
I89
sS'faggots'
p2585
I88
sS'liked'
p2586
I87
sS'\xe2\x98\xba'
p2587
I89
sS'society/jmc'
p2588
I89
sS'drunk'
p2589
I84
sS'simple'
p2590
I89
sS'sweet'
p2591
I89
sS'smashing'
p2592
I89
sS'all.you'
p2593
I89
sS'community'
p2594
I81
sS'except'
p2595
I89
sS'andan'
p2596
I88
sS'likes'
p2597
I89
sS'rave'
p2598
I88
sS'ty('
p2599
I89
sS'sammy'
p2600
I88
sS'expensive'
p2601
I87
sS'patiently'
p2602
I89
sS'duh'
p2603
I87
sS'devil'
p2604
I89
sS'n****'
p2605
I89
sS'pt'
p2606
I89
sS':hat'
p2607
I88
sS'\xc3\xa9xito'
p2608
I89
sS'teacher'
p2609
I89
sS'hitting'
p2610
I89
sS'season"'
p2611
I89
sS'mr.banks'
p2612
I89
sS'dropping'
p2613
I87
sS'damn'
p2614
I87
sS'pg'
p2615
I88
sS'pe'
p2616
I89
sS'"friends'
p2617
I89
sS'dinobot'
p2618
I89
sS'19:51:17.0,34.0483909,-118.0707405,4337,just'
p2619
I89
sS'meeting'
p2620
I89
sS'woke'
p2621
I86
sS'pm'
p2622
I89
sS'sleeved'
p2623
I89
sS'champion'
p2624
I89
sS'gay'
p2625
I86
sS'sending'
p2626
I89
sS'fire'
p2627
I87
sS"what's"
p2628
I77
sS'crack'
p2629
I89
sS'gas'
p2630
I89
sS'else'
p2631
I89
sS'skksksks'
p2632
I89
sS'cinco'
p2633
I89
sS'whatever'
p2634
I88
sS'awake'
p2635
I88
sS'mvl:armani'
p2636
I89
sS'things<33'
p2637
I88
sS'progressbrewing'
p2638
I89
sS'look'
p2639
I75
sS'\xc2\xa325'
p2640
I89
sS'raw'
p2641
I89
sS'solid'
p2642
I89
sS'belly'
p2643
I89
sS'straight'
p2644
I87
sS'tip'
p2645
I89
sS'fux'
p2646
I89
sS'while'
p2647
I86
sS'truuuue'
p2648
I89
sS'match'
p2649
I89
sS'fun'
p2650
I73
sS'grass*"you'
p2651
I89
sS'biking'
p2652
I89
sS'pack'
p2653
I87
sS'mikey.,91733\n456052047272361985,bizymike,2014-04-15'
p2654
I89
sS'juuuuust'
p2655
I89
sS'calculator'
p2656
I89
sS'munchies'
p2657
I89
sS'psh'
p2658
I89
sS'ducks'
p2659
I88
sS'1000%'
p2660
I89
sS'reads'
p2661
I89
sS'owes'
p2662
I89
sS'ready'
p2663
I73
sS'andamos'
p2664
I89
sS'voy'
p2665
I89
sS'monroe'
p2666
I89
sS'audi'
p2667
I89
sS'funny'
p2668
I81
sS'raiders'
p2669
I89
sS'shirt'
p2670
I85
sS'anymore'
p2671
I85
sS'belong'
p2672
I89
sS'lettering/numbers'
p2673
I89
sS'\xcb\x98\xcc\xaf)_/\xc2\xaf'
p2674
I89
sS'grand'
p2675
I89
sS'9'
p2676
I88
sS'sango'
p2677
I89
sS'used'
p2678
I86
sS'togashi'
p2679
I89
sS'hello('
p2680
I89
sS'mountain'
p2681
I89
sS'bonus'
p2682
I88
sS'yesterday'
p2683
I82
sS'popcorn'
p2684
I89
sS'moment'
p2685
I86
sS'moving'
p2686
I89
sS'cleaning'
p2687
I89
sS'plugs'
p2688
I89
sS'recent'
p2689
I88
sS"1.12.'93"
p2690
I89
sS'older'
p2691
I87
sS'leons'
p2692
I89
sS'cheek'
p2693
I89
sS'spent'
p2694
I86
sS'grind'
p2695
I87
sS'sports'
p2696
I89
sS'person'
p2697
I81
sS'whoree'
p2698
I89
sS'$4.00'
p2699
I89
sS'doods'
p2700
I89
sS'winner'
p2701
I89
sS'y'
p2702
I80
sS'organization'
p2703
I89
sS'stating'
p2704
I89
sS'ande'
p2705
I89
sS'things'
p2706
I83
sS'>.<'
p2707
I86
sS'zayn'
p2708
I88
sS'tonight\xe2\x80\x9d'
p2709
I89
sS'rn,91733\n495657446678220800,_xojv,2014-08-02'
p2710
I89
sS'wise)'
p2711
I89
sS'claro'
p2712
I89
sS'4th'
p2713
I88
sS'-jay'
p2714
I89
sS"lives'"
p2715
I89
sS'plagued'
p2716
I89
sS'hermosillo'
p2717
I89
sS'mob'
p2718
I89
sS'retired'
p2719
I89
sS'alternative'
p2720
I89
sS'apple'
p2721
I89
sS'damm'
p2722
I89
sS'cut'
p2723
I89
sS'waste'
p2724
I89
sS'cup'
p2725
I83
sS'chavos'
p2726
I89
sS'hated'
p2727
I89
sS'alternate'
p2728
I89
sS'cuz'
p2729
I88
sS'reunion'
p2730
I89
sS'rangers'
p2731
I89
sS'arriba'
p2732
I89
sS'crying'
p2733
I87
sS'homies'
p2734
I88
sS'snap'
p2735
I86
sS'everyone\xe2\x80\x9d\xe2\x98\xba\xef\xb8\x8f\xe2\x98\xba\xef\xb8\x8f\xe2\x98\xba\xef\xb8\x8f\xe2\x98\xba\xef\xb8\x8f\xe2\x98\xba\xef\xb8\x8f\xe2\x98\xba\xef\xb8\x8f\xe2\x98\xba\xef\xb8\x8f\xe2\x98\xba\xef\xb8\x8f\xe2\x98\xba\xef\xb8\x8f\xe2\x98\xba\xef\xb8\x8f\xe2\x9d\xa4\xef\xb8\x8f\xe2\x9d\xa4\xef\xb8\x8f\xe2\x9d\xa4\xef\xb8\x8f\xe2\x9d\xa4\xef\xb8\x8f\xe2\x9d\xa4\xef\xb8\x8f\xe2\x9d\xa4\xef\xb8\x8f'
p2736
I89
sS'cum'
p2737
I89
sS'easter'
p2738
I87
sS'excited'
p2739
I86
sS'hates'
p2740
I88
sS'know...his'
p2741
I89
sS'customers'
p2742
I89
sS'bills'
p2743
I89
sS'emergency'
p2744
I89
sS'big'
p2745
I80
sS'couple'
p2746
I89
sS'20:39:30.0,34.04269065,-118.06777088,4337,purple'
p2747
I89
sS'lovin'
p2748
I89
sS'game'
p2749
I68
sS'wbu'
p2750
I89
sS'\xcb\x98\xcd\xa1'
p2751
I89
sS'bit'
p2752
I89
sS'noviembre'
p2753
I89
sS'wings'
p2754
I89
sS'knock'
p2755
I87
sS'd'
p2756
I89
sS'wingstop'
p2757
I89
sS'da'
p2758
I88
sS'interweb'
p2759
I89
sS'(championship)'
p2760
I89
sS'frexles'
p2761
I89
sS'ignore'
p2762
I89
sS'20:37:43.0,34.04337825,-118.06226699,4337,got'
p2763
I89
sS'nipple'
p2764
I89
sS'popular'
p2765
I89
sS'fault'
p2766
I88
sS'dying,91733\n500511439057334272,monicaaalovee,2014-08-16'
p2767
I89
sS'<333'
p2768
I88
sS'sistaaaaas'
p2769
I89
sS'fucking'
p2770
I72
sS'tambi\xc3\xa9n'
p2771
I89
sS'lol,91733\n495679430396608512,tonesterrr13,2014-08-02'
p2772
I89
sS'semana'
p2773
I88
sS'some'
p2774
I63
sS'back'
p2775
I68
sS'handjob'
p2776
I89
sS'cfssaves20'
p2777
I89
sS'sighs'
p2778
I89
sS'towards'
p2779
I89
sS'mighty'
p2780
I89
sS'28th'
p2781
I89
sS'greener'
p2782
I89
sS'homegirl'
p2783
I89
sS'boogers'
p2784
I89
sS'seguidores'
p2785
I89
sS'jewelry'
p2786
I88
sS'contacts'
p2787
I89
sS"12:50:55.0,34.05178883,-118.04960956,4337,i'm"
p2788
I89
sS'smirkin'
p2789
I89
sS'absolutely'
p2790
I88
sS'though'
p2791
I89
sS'armani'
p2792
I89
sS'per'
p2793
I89
sS'prop'
p2794
I89
sS'prom'
p2795
I89
sS'hermano'
p2796
I89
sS'pee'
p2797
I89
sS'epic'
p2798
I88
sS'temple'
p2799
I89
sS'nose'
p2800
I88
sS'be'
p2801
I25
sS'bf'
p2802
I87
sS'bg'
p2803
I89
sS'eating'
p2804
I87
sS'omgg'
p2805
I89
sS'bb'
p2806
I88
sS'bc'
p2807
I83
sS'bm'
p2808
I89
sS'kunis'
p2809
I89
sS'laker'
p2810
I89
sS'confidence'
p2811
I89
sS'16:07:06.0,34.05173142,-118.0596344,4337,goodmorning'
p2812
I89
sS'loud"'
p2813
I89
sS'bt'
p2814
I89
sS'step'
p2815
I89
sS'bp'
p2816
I88
sS'reunited'
p2817
I89
sS'jail,91733\n457350672531222528,bizymike,2014-04-19'
p2818
I89
sS'crap'
p2819
I88
sS'\xe2\x9d\x84\xef\xb8\x8f\xe2\x9d\x84\xef\xb8\x8f\xe2\x9d\x84\xef\xb8\x8f\xe2\x9d\x84\xef\xb8\x8f\xe2\x9d\x84\xef\xb8\x8f\xe2\x9d\x84\xef\xb8\x8f\xe2\x9d\x84\xef\xb8\x8f\xe2\x9d\x84\xef\xb8\x8f\xe2\x9d\x84\xef\xb8\x8f'
p2820
I89
sS'by'
p2821
I61
sS'meshe'
p2822
I89
sS'showtime'
p2823
I89
sS'certificate'
p2824
I89
sS'anything'
p2825
I84
sS'wore'
p2826
I88
sS'fouls'
p2827
I89
sS'graduation'
p2828
I89
sS'awwww'
p2829
I89
sS'deserves'
p2830
I89
sS'whisky'
p2831
I89
sS'idk'
p2832
I75
sS'iiiiin'
p2833
I89
sS'mouth'
p2834
I89
sS'estar'
p2835
I89
sS'wanna'
p2836
I74
sS'idc'
p2837
I88
sS'silence'
p2838
I89
sS'seeing'
p2839
I84
sS'jimmy'
p2840
I89
sS'garbage'
p2841
I89
sS'03:15:39.0,34.04950401,-118.06799174,4337,omfg'
p2842
I89
sS'into'
p2843
I78
sS'daaaay'
p2844
I89
sS'nonsense'
p2845
I89
sS'drain'
p2846
I89
sS'momma'
p2847
I88
sS'nigga'
p2848
I78
sS'ayyy'
p2849
I89
sS'cnxl'
p2850
I89
sS'smells'
p2851
I89
sS'eagles'
p2852
I89
sS'classical'
p2853
I89
sS'juntahispana'
p2854
I81
sS'ca)'
p2855
I20
sS'long'
p2856
I87
sS'awks'
p2857
I88
sS"we're"
p2858
I83
sS"i'mma"
p2859
I89
sS'bruh'
p2860
I64
sS'forward'
p2861
I88
sS'w/e'
p2862
I89
sS'bored'
p2863
I88
sS'scared'
p2864
I89
sS'invite'
p2865
I88
sS'vivan'
p2866
I89
sS'registered'
p2867
I89
sS'buttery'
p2868
I89
sS'santeria'
p2869
I89
sS'05:40:26.0,34.04493545,-118.06776376,4337,carnage'
p2870
I89
sS'boys'
p2871
I84
sS'crank'
p2872
I88
sS'alive'
p2873
I89
sS'familia'
p2874
I89
sS'delta'
p2875
I89
sS'episode'
p2876
I89
sS'line'
p2877
I88
sS'posted'
p2878
I88
sS'info'
p2879
I89
sS'cif'
p2880
I89
sS'60ish'
p2881
I89
sS'angels'
p2882
I89
sS'gaby'
p2883
I89
sS'up'
p2884
I33
sS'us'
p2885
I81
sS'ur'
p2886
I69
sS'planet'
p2887
I89
sS'uo'
p2888
I89
sS'un'
p2889
I86
sS'uh'
p2890
I87
sS'uk'
p2891
I89
sS'faded'
p2892
I88
sS'jumbo'
p2893
I89
sS'highlight'
p2894
I88
sS'z'
p2895
I89
sS'similar'
p2896
I89
sS'called'
p2897
I84
sS'yelled'
p2898
I89
sS'bell'
p2899
I89
sS'enough.\xe2\x80\x9d'
p2900
I89
sS'ordered'
p2901
I88
sS'stick'
p2902
I89
sS'subtweets'
p2903
I89
sS'zayumm'
p2904
I89
sS'tchami'
p2905
I89
sS'cowboys'
p2906
I89
sS'single'
p2907
I89
sS'cure'
p2908
I89
sS'chat'
p2909
I88
sS'those,91733\n496201303178379264,berlinmason,2014-08-04'
p2910
I89
sS'17:55:15.0,34.04813583,-118.06654788,4337,get'
p2911
I89
sS'..amazing'
p2912
I89
sS'disappoints'
p2913
I89
sS'%'
p2914
I89
sS'jesus'
p2915
I89
sS'bro\xe2\x9d\xa4\xef\xb8\x8f\xe2\x9d\xa4\xef\xb8\x8f'
p2916
I89
sS'times\xe2\x80\x9d'
p2917
I89
sS'nah'
p2918
I88
sS'23:32:31.0,34.04824052,-118.06491558,4337,titties'
p2919
I89
sS'food.,91733\n501891174823890944,monicaaalovee,2014-08-20'
p2920
I89
sS'omana)'
p2921
I89
sS'excuses'
p2922
I88
sS'nap'
p2923
I89
sS'definitely'
p2924
I88
sS'department'
p2925
I89
sS'dovey'
p2926
I89
sS'07:54:43.0,34.04219486,-118.05586422,4337,i'
p2927
I89
sS"recostamo'"
p2928
I89
sS'nice'
p2929
I79
sS'brushing'
p2930
I89
sS'better<33'
p2931
I89
sS'partying\xe2\x80\xa6'
p2932
I89
sS'papi'
p2933
I89
sS'04:07:38.0,34.04662839,-118.06420664,4337,orange'
p2934
I89
sS'ly2'
p2935
I88
sS'gross'
p2936
I89
sS'\xe2\x98\xba\xef\xb8\x8f\xe2\x98\xba\xef\xb8\x8f'
p2937
I88
sS'tomorrow....can'
p2938
I89
sS'cheryldouglass'
p2939
I89
sS'convention'
p2940
I89
sS'drag'
p2941
I89
sS'outs'
p2942
I89
sS'paisas'
p2943
I89
sS'twisted'
p2944
I89
sS'dude,91733\n496198337284931584,tonesterrr13,2014-08-04'
p2945
I89
sS'desert'
p2946
I87
sS'earphones'
p2947
I89
sS'ago'
p2948
I89
sS'remix'
p2949
I89
sS'land'
p2950
I88
sS'texted'
p2951
I88
sS'dvd'
p2952
I89
sS'age'
p2953
I89
sS'youtube'
p2954
I89
sS'walked'
p2955
I88
sS'bruised'
p2956
I89
sS'one:)'
p2957
I89
sS"she's"
p2958
I81
sS'emily'
p2959
I89
sS'having'
p2960
I85
sS'initiating'
p2961
I89
sS'once'
p2962
I88
sS'essay'
p2963
I89
sS'edc'
p2964
I88
sS'code'
p2965
I88
sS'merced'
p2966
I86
sS'amazinggggg'
p2967
I89
sS'edm'
p2968
I89
sS'steve'
p2969
I89
sS'gf'
p2970
I89
sS'sunday,91733\n506785435306045440,bizymike,2014-09-02'
p2971
I89
sS'gang'
p2972
I88
sS'superbowl'
p2973
I89
sS'gane'
p2974
I89
sS'go'
p2975
I48
sS'gn'
p2976
I88
sS'psycho'
p2977
I89
sS'tweeted'
p2978
I87
sS'chillin'
p2979
I89
sS'seemed'
p2980
I89
sS'baseball'
p2981
I89
sS'baron'
p2982
I88
sS'peanut'
p2983
I89
sS'05:38:06.0,34.0467539,-118.06010769,4337,bruhhhhh,91733\n500331930882015233,mollypoppinmark,2014-08-15'
p2984
I89
sS'young'
p2985
I87
sS'send'
p2986
I89
sS'suits'
p2987
I89
sS'(not'
p2988
I89
sS'details'
p2989
I89
sS'women'
p2990
I89
sS'interchange'
p2991
I89
sS'sent'
p2992
I86
sS'queen'
p2993
I88
sS'mouf'
p2994
I89
sS'peyton'
p2995
I89
sS'lol,91733\n496200219021676544,tonesterrr13,2014-08-04'
p2996
I89
sS'711'
p2997
I89
sS'wave'
p2998
I88
sS'thoooo'
p2999
I89
sS'facebook'
p3000
I89
sS'telling'
p3001
I86
sS'eeeh'
p3002
I89
sS'now.\xe2\x80\x9d'
p3003
I89
sS'omana'
p3004
I88
sS'magic'
p3005
I88
sS"wade's"
p3006
I89
sS'marry'
p3007
I88
sS'shock'
p3008
I89
sS'michael'
p3009
I87
sS"they've"
p3010
I89
sS'leader'
p3011
I89
sS'try'
p3012
I84
sS'married'
p3013
I89
sS'you.,91733\n435411462568165376,bizymike,2014-02-17'
p3014
I89
sS'game\xe2\x80\x9d'
p3015
I89
sS'hustle'
p3016
I89
sS'challenge'
p3017
I89
sS'dimes'
p3018
I89
sS'hunter'
p3019
I89
sS'..fuuuck'
p3020
I89
sS'booty'
p3021
I85
sS"you'd"
p3022
I87
sS'breakfast,91733\n494518456197206016,_bootymonstaa_,2014-07-30'
p3023
I89
sS'sayyyy'
p3024
I89
sS'palapa'
p3025
I89
sS'waking'
p3026
I89
sS'jump'
p3027
I89
sS'noooooooooooooooooo'
p3028
I89
sS'video'
p3029
I85
sS'bro..i'
p3030
I89
sS'uncomfortable'
p3031
I89
sS'earth'
p3032
I89
sS'download'
p3033
I89
sS'acid'
p3034
I89
sS'click'
p3035
I89
sS'victor'
p3036
I89
sS'universities'
p3037
I89
sS'3x'
p3038
I89
sS'plays'
p3039
I88
sS'giving'
p3040
I88
sS'tuesdays'
p3041
I89
sS'omanas'
p3042
I89
sS'overwhelmed'
p3043
I89
sS'gnarrr'
p3044
I89
sS'waiting'
p3045
I83
sS'aquaman'
p3046
I89
sS'twins'
p3047
I89
sS'theres'
p3048
I89
sS'kershaw'
p3049
I89
sS'obvious'
p3050
I89
sS'...this'
p3051
I89
sS'body'
p3052
I89
sS'leg'
p3053
I87
sS'pushing'
p3054
I88
sS'punch'
p3055
I89
sS'guuuuurl'
p3056
I89
sS'12:44:47.0,34.05173548,-118.05624903,4337,everyone'
p3057
I89
sS'for?\xe2\x80\x9d'
p3058
I89
sS'les'
p3059
I89
sS'let'
p3060
I77
sS'slut'
p3061
I89
sS'cuando'
p3062
I89
sS'others'
p3063
I89
sS'luis'
p3064
I89
sS'plzzz'
p3065
I89
sS'joins'
p3066
I89
sS'great'
p3067
I76
sS's\\o'
p3068
I89
sS'gerardoortizoficial'
p3069
I86
sS'\xe2\x9a\xbd\xef\xb8\x8f'
p3070
I89
sS'metro'
p3071
I89
sS'pressure'
p3072
I89
sS'32'
p3073
I89
sS'30'
p3074
I89
sS'calvin'
p3075
I89
sS'leaving'
p3076
I89
sS"weren't"
p3077
I89
sS'12:49:14.0,34.05184011,-118.04534118,4337,morning'
p3078
I89
sS'veeery'
p3079
I89
sS'makes'
p3080
I83
sS'explain'
p3081
I89
sS'thats'
p3082
I87
sS'fake'
p3083
I87
sS'now,91733\n460654783087403009,fearlessmel_15,2014-04-28'
p3084
I89
sS'drums'
p3085
I89
sS'volleyball.,91733\n496203530081153024,berlinmason,2014-08-04'
p3086
I89
sS'suburbs"'
p3087
I89
sS'win'
p3088
I85
sS'22:19:36.0,34.0474732,-118.06661926,4337,not'
p3089
I89
sS'sgv'
p3090
I89
sS'manny'
p3091
I89
sS'wit'
p3092
I89
sS'yeeeeee'
p3093
I89
sS'dumbest'
p3094
I88
sS'unfollow/ig'
p3095
I89
sS'greg'
p3096
I89
sS'singing'
p3097
I88
sS':))'
p3098
I89
sS'me,91733\n494339389648949248,_bootymonstaa_,2014-07-30'
p3099
I89
sS'standing'
p3100
I89
sS'use'
p3101
I86
sS'fee'
p3102
I89
sS'from'
p3103
I55
sS'barrios'
p3104
I89
sS'usa'
p3105
I87
sS'&'
p3106
I59
sS'chi'
p3107
I83
sS'tmmrw'
p3108
I89
sS'next'
p3109
I75
sS'few'
p3110
I87
sS'doubt'
p3111
I89
sS'!,91733\n496149192402694145,tonesterrr13,2014-08-04'
p3112
I89
sS'=]\xe2\x80\xa6'
p3113
I89
sS'touched'
p3114
I89
sS'charcoal'
p3115
I89
sS'popped'
p3116
I88
sS'babe'
p3117
I89
sS"gq's"
p3118
I89
sS'love,91733\n523674858635685890,58pris,2014-10-19'
p3119
I89
sS'becomes'
p3120
I89
sS'hard"'
p3121
I89
sS'about'
p3122
I66
sS'!\xe2\x80\x9d'
p3123
I88
sS'sore'
p3124
I89
sS'soooooooo'
p3125
I89
sS':-)'
p3126
I89
sS'vol1'
p3127
I89
sS'$10.00'
p3128
I89
sS'8'
p3129
I89
sS'baby'
p3130
I82
sS'rare'
p3131
I89
sS'(arcadia'
p3132
I84
sS'animals'
p3133
I89
sS'announcing'
p3134
I89
sS'this'
p3135
I23
sS'ride'
p3136
I89
sS'sounded'
p3137
I89
sS'pac'
p3138
I89
sS'pour'
p3139
I89
sS'creepy'
p3140
I89
sS'anywhere'
p3141
I89
sS'crossed'
p3142
I89
sS'pre-order'
p3143
I89
sS'aight'
p3144
I87
sS'meet'
p3145
I86
sS'closing'
p3146
I89
sS'fyou'
p3147
I89
sS'tap'
p3148
I89
sS'geez'
p3149
I88
sS'process'
p3150
I89
sS'19:48:38.0,34.04948934,-118.06342067,4337,hard'
p3151
I89
sS'whaaaaat'
p3152
I89
sS'tax'
p3153
I89
sS'loco'
p3154
I89
sS'high'
p3155
I86
sS'tag'
p3156
I89
sS'something'
p3157
I83
sS'looks.,91733\n505975775733239809,simsim831,2014-08-31'
p3158
I89
sS'triangle'
p3159
I89
sS'llws'
p3160
I89
sS'jackuofficial'
p3161
I88
sS'dairy'
p3162
I89
sS'sir'
p3163
I89
sS'united'
p3164
I89
sS'sit'
p3165
I87
sS'pair'
p3166
I89
sS'bandana'
p3167
I89
sS'calliou'
p3168
I89
sS'anna\xe2\x9d\xa4\xef\xb8\x8f'
p3169
I89
sS'uhhh'
p3170
I89
sS'hawt'
p3171
I89
sS'stop'
p3172
I81
sS'waters'
p3173
I89
sS'lesean'
p3174
I89
sS'men'
p3175
I89
sS'taco'
p3176
I86
sS'fits'
p3177
I88
sS'fighting'
p3178
I89
sS'fuhh'
p3179
I83
sS'idgaf'
p3180
I89
sS'somethin'
p3181
I88
sS'realized'
p3182
I88
sS'chubbies'
p3183
I89
sS'22nd'
p3184
I89
sS'harddddd'
p3185
I89
sS'sleep,91733\n453021315390115840,bizymike,2014-04-07'
p3186
I89
sS'honestly'
p3187
I86
sS'cali.,91733\n496200977158926336,ofmiceandsera,2014-08-04'
p3188
I89
sS'noches'
p3189
I89
sS'that!!!,91733\n481128284319531009,nvkf_,2014-06-23'
p3190
I89
sS'souja'
p3191
I89
sS'mustache'
p3192
I89
sS'ummmmm'
p3193
I89
sS'houston'
p3194
I89
sS'fresno'
p3195
I89
sS'\xe2\x9a\xa0\xef\xb8\x8f\xe2\x9a\xa0\xef\xb8\x8f\xe2\x9a\xa0\xef\xb8\x8f\xe2\x9a\xa0\xef\xb8\x8f'
p3196
I89
sS'speech'
p3197
I89
sS"won't"
p3198
I81
sS'looks'
p3199
I84
sS'kbs'
p3200
I89
sS'galaxy'
p3201
I81
sS'bunch'
p3202
I88
sS'perfect'
p3203
I87
sS'le'
p3204
I88
sS'la'
p3205
I62
sS'lo'
p3206
I88
sS'[pic]'
p3207
I88
sS'2014'
p3208
I77
sS"twitter's"
p3209
I89
sS'criminal'
p3210
I88
sS'2010'
p3211
I89
sS'2012'
p3212
I86
sS'dad'
p3213
I84
sS'flex'
p3214
I89
sS'ruined'
p3215
I89
sS'crash'
p3216
I89
sS'greater'
p3217
I88
sS'practice'
p3218
I87
sS'fiesta'
p3219
I88
sS'dat'
p3220
I87
sS'snake'
p3221
I86
sS'kiss'
p3222
I89
sS'das'
p3223
I88
sS'front'
p3224
I86
sS'rotation'
p3225
I89
sS'republican'
p3226
I89
sS'day'
p3227
I49
sS'asff'
p3228
I89
sS'articles'
p3229
I89
sS',91733\n493424086928732160,bizymike,2014-07-27'
p3230
I89
sS'bttf'
p3231
I89
sS'nfl'
p3232
I87
sS'interesting)'
p3233
I89
sS'weather'
p3234
I89
sS'mode'
p3235
I88
sS'truth'
p3236
I88
sS'promise'
p3237
I89
sS'01:23:19.0,34.04337825,-118.06226699,4337,bet'
p3238
I89
sS'want('
p3239
I89
sS'|'
p3240
I88
sS'glasses'
p3241
I89
sS'seniors'
p3242
I89
sS'studios'
p3243
I87
sS'tite'
p3244
I89
sS'bueno'
p3245
I88
sS'sampedro'
p3246
I89
sS'doing'
p3247
I78
sS'*throws'
p3248
I88
sS'heated'
p3249
I89
sS'snaps'
p3250
I89
sS'skank'
p3251
I89
sS'society'
p3252
I22
sS'amazayn'
p3253
I89
sS'flamingo'
p3254
I89
sS'show,91733\n453021074364452864,bizymike,2014-04-07'
p3255
I89
sS'our'
p3256
I72
sS'80'
p3257
I88
sS'87'
p3258
I89
sS'popping'
p3259
I88
sS'out'
p3260
I43
sS"'"
p3261
I89
sS'thots'
p3262
I89
sS"music's"
p3263
I89
sS'occupied'
p3264
I89
sS'yup'
p3265
I89
sS'chaos'
p3266
I89
sS'stub'
p3267
I89
sS'include'
p3268
I89
sS'..make'
p3269
I89
sS'\xe2\x9c\x8c\xef\xb8\x8f,91733\n506529128149811200,_bootymonstaa_,2014-09-01'
p3270
I89
sS'freshman'
p3271
I89
sS'ily'
p3272
I89
sS'hilarious'
p3273
I86
sS'memes'
p3274
I89
sS'cause'
p3275
I67
sS'reg'
p3276
I89
sS'red'
p3277
I87
sS'sleeves'
p3278
I89
sS'shut'
p3279
I87
sS'8o'
p3280
I88
sS'bww'
p3281
I89
sS'southern'
p3282
I89
sS'godly'
p3283
I89
sS'molly'
p3284
I89
sS'leaves'
p3285
I89
sS'grilled'
p3286
I89
sS'madrid.\xe2\x80\x9d'
p3287
I89
sS'que'
p3288
I77
sS'us\xe2\x80\x9d'
p3289
I89
sS'developed\xe2\x80\xa6'
p3290
I89
sS'van'
p3291
I89
sS'accessory'
p3292
I89
sS'craving'
p3293
I89
sS"party's"
p3294
I89
sS'scary'
p3295
I89
sS'prepare'
p3296
I89
sS'g'
p3297
I88
sS'could'
p3298
I78
sS'area'
p3299
I89
sS'keep'
p3300
I80
sS'elector'
p3301
I89
sS'49ers'
p3302
I89
sS'beakersfield'
p3303
I88
sS'davis'
p3304
I89
sS'keef'
p3305
I89
sS'austin'
p3306
I89
sS'scare'
p3307
I89
sS'south'
p3308
I81
sS'ihy'
p3309
I89
sS'lettering'
p3310
I89
sS'"rogues"'
p3311
I89
sS'yells'
p3312
I89
sS'scene'
p3313
I89
sS'hey'
p3314
I84
sS'exact'
p3315
I89
sS'hahahaha'
p3316
I88
sS'lol,91733\n496200510261563392,tonesterrr13,2014-08-04'
p3317
I89
sS'list)'
p3318
I89
sS'bitch'
p3319
I81
sS'lagging'
p3320
I87
sS'rs5'
p3321
I89
sS'noticed'
p3322
I89
sS'hehe'
p3323
I89
sS'suck'
p3324
I89
sS'hiding'
p3325
I89
sS"you're"
p3326
I67
sS'realmadrid'
p3327
I89
sS'los'
p3328
I76
sS'festival'
p3329
I73
sS"05:03:47.0,34.04027147,-118.05375779,4337,i'll"
p3330
I89
sS'ahh'
p3331
I89
sS'their'
p3332
I80
sS'attack'
p3333
I89
sS'escenario'
p3334
I89
sS'vetoes'
p3335
I89
sS'17:34:56.0,34.04098846,-118.05826563,4337,lol'
p3336
I89
sS'up..pool'
p3337
I89
sS'bosco'
p3338
I87
sS'final'
p3339
I88
sS'painful'
p3340
I89
sS'photoshopped'
p3341
I89
sS'2-3'
p3342
I89
sS'gummy'
p3343
I89
sS'shell'
p3344
I89
sS'stomach'
p3345
I87
sS'shiiiiiiiiiiiiit'
p3346
I89
sS'shorts'
p3347
I87
sS'starving'
p3348
I89
sS'academy'
p3349
I89
sS'exactly'
p3350
I88
sS'scrambling'
p3351
I89
sS'axwell'
p3352
I89
sS'listo'
p3353
I89
sS'gotchu'
p3354
I89
sS'surround'
p3355
I89
sS'ben'
p3356
I89
sS'kickback'
p3357
I89
sS'boring'
p3358
I89
sS'bother'
p3359
I89
sS'05:13:51.0,34.04141807,-118.06836834,4337,,91733\n511382216199639040,vanessa_darlinn,2014-09-15'
p3360
I89
sS'depends'
p3361
I88
sS'bed'
p3362
I89
sS'claim'
p3363
I89
sS'anaheim'
p3364
I88
sS'injured'
p3365
I89
sS'loves'
p3366
I86
sS'lover'
p3367
I89
sS'anytime'
p3368
I89
sS'debmau5'
p3369
I89
sS'lovey'
p3370
I89
sS'"finding'
p3371
I89
sS'lol.,91733\n500514223554719744,monicaaalovee,2014-08-16'
p3372
I89
sS'*x-factor'
p3373
I89
sS'villains'
p3374
I89
sS'clip'
p3375
I88
sS"03:04:01.0,34.04146409,-118.06971774,4337,we'll"
p3376
I89
sS'07:13:31.0,34.04504451,-118.06261742,4337,hard'
p3377
I89
sS',91733\n366353723250847745,christianborja,2013-08-11'
p3378
I89
sS'tonight'
p3379
I67
sS'!!!you'
p3380
I89
sS'mornings'
p3381
I89
sS'have'
p3382
I35
sS',91733\n462007128870252544,_kimberlybabey,2014-05-01'
p3383
I89
sS'need'
p3384
I69
sS'tdfw'
p3385
I89
sS'nosey'
p3386
I89
sS'clearly'
p3387
I89
sS'lol,91733\n500511196643348481,monicaaalovee,2014-08-16'
p3388
I89
sS'00:39:15.0,34.04318778,-118.05253558,4337,guyssss'
p3389
I89
sS'afraid'
p3390
I89
sS'perilously'
p3391
I89
sS'congrats'
p3392
I89
sS'able'
p3393
I88
sS'hangover'
p3394
I89
sS'cuatro'
p3395
I89
sS'mix'
p3396
I88
sS'sh'
p3397
I89
sS'which'
p3398
I86
sS'325'
p3399
I89
sS'truck'
p3400
I88
sS'mis'
p3401
I87
sS'chiquitita'
p3402
I89
sS'='
p3403
I88
sS'mustards'
p3404
I89
sS';-)'
p3405
I89
sS'realizes'
p3406
I89
sS'girlies'
p3407
I89
sS'us<3333'
p3408
I89
sS'kelly'
p3409
I89
sS'combat'
p3410
I89
sS'aww'
p3411
I83
sS'who'
p3412
I73
sS'niners'
p3413
I89
sS'fricken'
p3414
I89
sS"where's"
p3415
I88
sS'cracking'
p3416
I88
sS'maid'
p3417
I89
sS'why'
p3418
I66
sS'stubhub'
p3419
I88
sS'saddest'
p3420
I88
sS'eachother'
p3421
I89
sS'request'
p3422
I89
sS'aahhhhhfooo'
p3423
I89
sS'face'
p3424
I83
sS'looked'
p3425
I87
sS"you'll"
p3426
I88
sS'park)'
p3427
I86
sS'se'
p3428
I89
sS'movie'
p3429
I86
sS'woop'
p3430
I89
sS'typical'
p3431
I89
sS'bound,91733\n470525991584935936,omfgkaylan,2014-05-25'
p3432
I89
sS'impression'
p3433
I89
sS'atmosphere'
p3434
I88
sS'selection'
p3435
I89
sS'dijo'
p3436
I88
sS'lob*'
p3437
I89
sS'text'
p3438
I79
sS'agreed'
p3439
I89
sS'hm'
p3440
I89
sS'assholes'
p3441
I89
sS'spanking'
p3442
I89
sS',91733\n454476064509530113,dadisonmreyer,2014-04-11'
p3443
I89
sS'bring'
p3444
I86
sS'planning'
p3445
I89
sS'eyes'
p3446
I89
sS'staff'
p3447
I89
sS'ayee'
p3448
I89
sS'envy'
p3449
I89
sS'lolol\xe2\x80\x9d'
p3450
I89
sS'based'
p3451
I89
sS'true<333'
p3452
I89
sS'jay'
p3453
I89
sS'to.watch'
p3454
I89
sS'('
p3455
I63
sS'*pants'
p3456
I89
sS'woo'
p3457
I89
sS'should'
p3458
I70
sS'hector'
p3459
I89
sS"there's"
p3460
I85
sS'lemme'
p3461
I88
sS'combo'
p3462
I88
sS',91733\n'
p3463
I89
sS'soulection'
p3464
I89
sS'hope'
p3465
I79
sS'meant'
p3466
I87
sS'move'
p3467
I89
sS'handle'
p3468
I88
sS'means'
p3469
I87
sS'beat'
p3470
I87
sS'dope'
p3471
I81
sS'props'
p3472
I89
sS'overall'
p3473
I89
sS'lucky'
p3474
I87
sS'bear'
p3475
I88
sS'vim'
p3476
I89
sS'tbh'
p3477
I86
sS'awww'
p3478
I89
sS'ones'
p3479
I84
sS'here\xe2\x99\xa5,91733\n485354750250979328,essamour,2014-07-05'
p3480
I89
sS'words'
p3481
I89
sS'babosoooo'
p3482
I89
sS'\xc3\xb3rdenes'
p3483
I87
sS'barcas'
p3484
I89
sS'kardashians'
p3485
I88
sS'endless'
p3486
I89
sS'smash'
p3487
I89
sS'donate'
p3488
I89
sS'rudimental'
p3489
I89
sS'brothers/cousins'
p3490
I89
sS'course'
p3491
I89
sS'disclosureeeeee'
p3492
I89
sS'h'
p3493
I89
sS'rage'
p3494
I89
sS'calling'
p3495
I88
sS'stuff'
p3496
I82
sS'she'
p3497
I60
sS'dollars.\xe2\x80\x9d'
p3498
I89
sS'fixed'
p3499
I89
sS'view'
p3500
I89
sS'spotted'
p3501
I89
sS'btw'
p3502
I87
sS'temporarily'
p3503
I89
sS'freinds'
p3504
I89
sS'thankfully'
p3505
I89
sS'national'
p3506
I88
sS'shake'
p3507
I89
sS'lazy'
p3508
I89
sS'sooowoo'
p3509
I89
sS'edition'
p3510
I89
sS'computer'
p3511
I89
sS'desperate'
p3512
I89
sS'wc'
p3513
I89
sS"this's"
p3514
I89
sS'packed'
p3515
I89
sS'creating'
p3516
I89
sS'closer'
p3517
I89
sS'byob'
p3518
I89
sS'tripping'
p3519
I89
sS'interview'
p3520
I89
sS'has'
p3521
I70
sS'vip'
p3522
I89
sS'clean.\xe2\x80\x9d'
p3523
I89
sS'unreal,91733\n503393085934419969,sincerelyale_,2014-08-24'
p3524
I89
sS'gira'
p3525
I89
sS'fosho'
p3526
I89
sS'state'
p3527
I88
sS'luc'
p3528
I88
sS'clutchhhh'
p3529
I89
sS'bump?"'
p3530
I89
sS'horrible'
p3531
I88
sS'progress'
p3532
I83
sS'pistol'
p3533
I89
sS'octubre'
p3534
I88
sS',91733\n445369550268162048,giselle_dana,2014-03-17'
p3535
I89
sS'weighing'
p3536
I89
sS'trynna'
p3537
I89
sS'opening'
p3538
I89
sS'a.m'
p3539
I89
sS'04:33:19.0,34.0463481,-118.0483165,4337,i'
p3540
I89
sS'interfere'
p3541
I89
sS',91733\n495806375880953857,tonesterrr13,2014-08-03'
p3542
I89
sS'the\xe2\x80\xa6'
p3543
I89
sS'job'
p3544
I89
sS'key'
p3545
I89
sS'underwear'
p3546
I89
sS'hellll'
p3547
I89
sS'legit'
p3548
I89
sS'weeks'
p3549
I89
sS'thinking/doing'
p3550
I89
sS'olga'
p3551
I89
sS'taking'
p3552
I86
sS'conmigo'
p3553
I89
sS'waisted'
p3554
I89
sS'grandmas'
p3555
I89
sS'figures'
p3556
I89
sS'passing'
p3557
I88
sS'grr'
p3558
I89
sS'rumchatatatatatata'
p3559
I89
sS'invites'
p3560
I89
sS'jersey'
p3561
I89
sS'comment'
p3562
I89
sS'alllllllll'
p3563
I89
sS'toilet'
p3564
I89
sS'wall'
p3565
I87
sS'ca'
p3566
I75
sS'chainsmokers'
p3567
I89
sS'bronson'
p3568
I89
sS'walk'
p3569
I88
sS'\xe2\x9c\x88\xef\xb8\x8f\xe2\x9c\x8c\xef\xb8\x8f'
p3570
I89
sS'laugh'
p3571
I89
sS'cousin'
p3572
I87
sS'clash'
p3573
I89
sS'table'
p3574
I89
sS'winning'
p3575
I89
sS'jaz'
p3576
I89
sS'quit'
p3577
I88
sS'yay'
p3578
I84
sS'johnny'
p3579
I89
sS'it,91733\n526158742006423552,myniggamonika,2014-10-25'
p3580
I89
sS"it's"
p3581
I34
sS'ravers'
p3582
I89
sS'bumblebee'
p3583
I89
sS'01:50:38.0,34.04138668,-118.06888458,4337,well'
p3584
I89
sS'pronto!gracias'
p3585
I89
sS'selfie...i'
p3586
I89
sS'treat'
p3587
I86
sS'bby'
p3588
I89
sS'richards'
p3589
I89
sS'red/gold'
p3590
I89
sS'improve'
p3591
I89
sS'rt/fav'
p3592
I89
sS'bbq'
p3593
I89
sS'?:)'
p3594
I89
sS'mike'
p3595
I89
sS'15:58:31.0,34.04068612,-118.05720088,4337,riverside'
p3596
I89
sS'general'
p3597
I89
sS'league'
p3598
I86
sS'am'
p3599
I76
sS'hob'
p3600
I89
sS'1357'
p3601
I89
sS'finale'
p3602
I89
sS'hmm'
p3603
I89
sS'-.-'
p3604
I80
sS'shaking..fuck'
p3605
I89
sS'right."'
p3606
I89
sS'10:26:52.0,34.04813583,-118.06654788,4337,love'
p3607
I89
sS'cuts'
p3608
I89
sS'spain'
p3609
I89
sS'volunteer'
p3610
I89
sS'ladders'
p3611
I89
sS'xoxoxo'
p3612
I89
sS'richy'
p3613
I89
sS'asisti\xc3\xb3'
p3614
I89
sS'harder'
p3615
I86
sS'beats'
p3616
I89
sS'waba'
p3617
I89
sS'will'
p3618
I60
sS'hahaha'
p3619
I78
sS'wild'
p3620
I88
sS'munchin'
p3621
I89
sS'decides'
p3622
I89
sS'discoveries'
p3623
I89
sS'koreans'
p3624
I89
sS'almost'
p3625
I88
sS'madrina'
p3626
I89
sS'\xc3\xa9xitos'
p3627
I89
sS'05:14:21.0,34.040794,-118.05780999,4337,,91733\n511382364829016064,vanessa_darlinn,2014-09-15'
p3628
I89
sS'girlfriend'
p3629
I89
sS'vs'
p3630
I86
sS'avi'
p3631
I88
sS'hearted'
p3632
I89
sS'bucks'
p3633
I88
sS'wks'
p3634
I89
sS'sits'
p3635
I89
sS',91733\n452280470999277568,thatonegirldayz,2014-04-05'
p3636
I89
sS'whore'
p3637
I84
sS'</3'
p3638
I88
sS'diggins'
p3639
I89
sS'moves'
p3640
I89
sS'fkn'
p3641
I89
sS'players'
p3642
I89
sS'cross'
p3643
I89
sS'parts'
p3644
I89
sS'speaker'
p3645
I89
sS'largest'
p3646
I89
sS'party'
p3647
I75
sS'android'
p3648
I89
sS'gets'
p3649
I86
sS'sheeran'
p3650
I89
sS'yooo'
p3651
I89
sS'ball'
p3652
I83
sS'pho'
p3653
I89
sS'context'
p3654
I89
sS'emotionally'
p3655
I89
sS'diego'
p3656
I89
sS'heider'
p3657
I89
sS'bale'
p3658
I89
sS'drink'
p3659
I85
sS'disagree'
p3660
I89
sS'effect'
p3661
I89
sS'fucker'
p3662
I89
sS'romeo'
p3663
I89
sS'sigue'
p3664
I89
sS"franco's"
p3665
I86
sS'fucken'
p3666
I86
sS'fucked'
p3667
I88
sS'hecka'
p3668
I89
sS'collar'
p3669
I89
sS'pull'
p3670
I89
sS'//'
p3671
I88
sS'clips'
p3672
I89
sS'off'
p3673
I69
sS'center'
p3674
I88
sS'i'
p3675
I2
sS'03:21:12.0,34.0500236,-118.06704962,4337,a$aaaaaaap,91733\n495769939131645952,cdilla23,2014-08-03'
p3676
I89
sS'well'
p3677
I69
sS'05:40:41.0,34.04496173,-118.06776476,4337,and'
p3678
I89
sS'thought'
p3679
I83
sS'phan'
p3680
I89
sS'knotts'
p3681
I89
sS"malone's"
p3682
I89
sS'juicy'
p3683
I89
sS'sets'
p3684
I89
sS'position'
p3685
I89
sS'audio'
p3686
I88
sS'conservative'
p3687
I89
sS'usual'
p3688
I88
sS'taller'
p3689
I89
sS'rocket'
p3690
I87
sS'culiacan'
p3691
I89
sS"should've"
p3692
I88
sS'hands'
p3693
I87
sS'flies'
p3694
I89
sS'dose'
p3695
I89
sS'against'
p3696
I89
sS'clinic'
p3697
I83
sS'useless\xe2\x80\x9dgems'
p3698
I89
sS'seats'
p3699
I89
sS'paul'
p3700
I89
sS'happiness'
p3701
I89
sS'schleep'
p3702
I89
sS'outi\xe2\x80\x99ve'
p3703
I89
sS'quiero'
p3704
I89
sS'console'
p3705
I89
sS'department."'
p3706
I89
sS'field'
p3707
I89
sS'quiere'
p3708
I89
sS'gma'
p3709
I88
sS'point'
p3710
I87
sS'sky'
p3711
I89
sS'realize'
p3712
I89
sS'add'
p3713
I87
sS'arrt'
p3714
I89
sS'13:52:08.0,34.05168443,-118.04974864,4337,up'
p3715
I89
sS'wet'
p3716
I88
sS'funand'
p3717
I89
sS'riverside'
p3718
I89
sS',91733\n501712492276355073,bizymike,2014-08-19'
p3719
I89
sS'kick'
p3720
I89
sS'sbarro'
p3721
I89
sS'then\xe2\x80\xa6'
p3722
I89
sS'checking'
p3723
I89
sS"who's"
p3724
I83
sS'pants'
p3725
I89
sS',91733\n496192191631720448,vinstuh,2014-08-04'
p3726
I89
sS'cruz'
p3727
I89
sS'know'
p3728
I49
sS'nvm'
p3729
I89
sS'copping'
p3730
I89
sS'fools'
p3731
I89
sS'"your'
p3732
I89
sS'swameet'
p3733
I89
sS'cp3'
p3734
I89
sS'like'
p3735
I28
sS'lost'
p3736
I84
sS'chairs'
p3737
I89
sS'ring'
p3738
I89
sS'w/coco'
p3739
I89
sS'admitted'
p3740
I89
sS'gaaaame'
p3741
I89
sS'sissy'
p3742
I89
sS'(or'
p3743
I89
sS'osea'
p3744
I88
sS'become'
p3745
I89
sS'funniest'
p3746
I89
sS'heel'
p3747
I88
sS'italian'
p3748
I89
sS'lance'
p3749
I89
sS'because'
p3750
I83
sS'habitat'
p3751
I89
sS'twitter'
p3752
I83
sS'library'
p3753
I88
sS',91733\n495991299150217216,_xalexxx,2014-08-03'
p3754
I89
sS'hair'
p3755
I87
sS'dudee'
p3756
I89
sS'\xe2\x8c\x9a\xef\xb8\x8f\xe2\x9c\xa8probably'
p3757
I89
sS'francisco'
p3758
I89
sS'trak'
p3759
I89
sS'choosing'
p3760
I89
sS'springs'
p3761
I89
sS'home'
p3762
I82
sS'peter'
p3763
I89
sS'away"me'
p3764
I89
sS'shakira'
p3765
I89
sS'forward...let'
p3766
I89
sS'happens'
p3767
I89
sS'chating'
p3768
I89
sS'hospital)'
p3769
I89
sS'literally'
p3770
I84
sS'everywhere!!!,91733\n513747985973276672,bizymike,2014-09-21'
p3771
I89
sS'grinding'
p3772
I89
sS'whaaaaaaaaat'
p3773
I89
sS'does'
p3774
I83
sS'wendy'
p3775
I88
sS'assuming'
p3776
I89
sS'kiddo'
p3777
I89
sS'fanny'
p3778
I89
sS'muahhhh'
p3779
I89
sS'pepper'
p3780
I89
sS'blowing'
p3781
I89
sS'schedule'
p3782
I88
sS'starvin'
p3783
I89
sS'stags'
p3784
I89
sS'hoping'
p3785
I89
sS'how'
p3786
I58
sS'host'
p3787
I89
sS'stay'
p3788
I87
sS'stage'
p3789
I79
sS'throne'
p3790
I89
sS'jam'
p3791
I89
sS'sister'
p3792
I87
sS'quarter'
p3793
I89
sS'lifestyle'
p3794
I88
sS'justin'
p3795
I88
sS'getting'
p3796
I71
sS'coworker'
p3797
I89
sS'shaking'
p3798
I89
sS'shoes'
p3799
I89
sS'angeles'
p3800
I87
sS'swear'
p3801
I85
sS'sweat'
p3802
I88
sS'hawkman/girl'
p3803
I89
sS'turtle'
p3804
I88
sS'own'
p3805
I84
sS'enough'
p3806
I89
sS'pussy'
p3807
I88
sS'couldnt'
p3808
I89
sS'par'
p3809
I89
sS'champ'
p3810
I89
sS'suarez'
p3811
I89
sS'female'
p3812
I89
sS'artists'
p3813
I89
sS'lol,91733\n500516104704245761,monicaaalovee,2014-08-16'
p3814
I89
sS'badass'
p3815
I89
sS'cuevas'
p3816
I89
sS'screen,91733\n495840097888374784,camille_keh,2014-08-03'
p3817
I89
sS'wack'
p3818
I87
sS'madrid'
p3819
I89
sS'francis'
p3820
I89
sS'smots'
p3821
I89
sS'annabel'
p3822
I87
sS'brides'
p3823
I89
sS'museum'
p3824
I22
sS'*'
p3825
I89
sS'secret'
p3826
I89
sS'kidding'
p3827
I88
sS'continental'
p3828
I89
sS'spread'
p3829
I89
sS'23:03:46.0,34.04819522,-118.06803474,4337,fuckkk,91733\n463099208774742017,tijeras1970,2014-05-04'
p3830
I89
sS'tg'
p3831
I89
sS'biggest'
p3832
I89
sS'rode'
p3833
I89
sS'kyrie"'
p3834
I89
sS'jinx'
p3835
I89
sS'function'
p3836
I89
sS'ghost'
p3837
I89
sS'buy'
p3838
I85
sS'north'
p3839
I88
sS'stadium'
p3840
I89
sS"i've"
p3841
I81
sS'drummonddddd'
p3842
I89
sS'bitches'
p3843
I86
sS'hw'
p3844
I89
sS'but'
p3845
I30
sS'blaming'
p3846
I89
sS'5lb'
p3847
I89
sS':-(,91733\n504119901972606976,58pris,2014-08-26'
p3848
I89
sS'hi'
p3849
I81
sS'(south'
p3850
I82
sS'courts'
p3851
I89
sS'you<33'
p3852
I89
sS'>>>>>'
p3853
I89
sS'ha'
p3854
I89
sS'eat'
p3855
I83
sS'he'
p3856
I51
sS'count'
p3857
I89
sS'one!('
p3858
I89
sS'made'
p3859
I75
sS'ahaha\xe2\x80\x9d'
p3860
I89
sS'places'
p3861
I88
sS'placer'
p3862
I89
sS'whether'
p3863
I89
sS'wish'
p3864
I85
sS'23:33:50.0,34.04133854,-118.06627982,4337,en'
p3865
I89
sS'j'
p3866
I88
sS'signed'
p3867
I89
sS'godson'
p3868
I88
sS'mouseketeer'
p3869
I89
sS'dms'
p3870
I89
sS'wackkkkkkk'
p3871
I89
sS'mccoy'
p3872
I89
sS'trafford'
p3873
I89
sS'yuki'
p3874
I89
sS'skating'
p3875
I89
sS'maaan'
p3876
I89
sS'replying'
p3877
I89
sS'pic'
p3878
I83
sS'pie'
p3879
I88
sS'combine'
p3880
I89
sS'inn'
p3881
I89
sS'liive'
p3882
I89
sS'vines'
p3883
I89
sS'goodness'
p3884
I89
sS'ambassadors'
p3885
I89
sS'shooting'
p3886
I89
sS'happen'
p3887
I83
sS'highdeas*'
p3888
I89
sS'p.m.\xe2\x80\x9d'
p3889
I89
sS'contest'
p3890
I89
sS'dressed'
p3891
I89
sS'scrubs'
p3892
I89
sS'lately'
p3893
I89
sS'other'
p3894
I82
sS'guarantee'
p3895
I89
sS'special'
p3896
I89
sS'sick'
p3897
I84
sS"'18"
p3898
I89
sS'7/11'
p3899
I89
sS'jamming'
p3900
I89
sS"'11"
p3901
I89
sS'19:20:43.0,34.04708595,-118.06567128,4337,llegando'
p3902
I89
sS'adjustments'
p3903
I89
sS'troll'
p3904
I89
sS'chavez'
p3905
I87
sS'star'
p3906
I89
sS'monday'
p3907
I88
sS'carlitos'
p3908
I89
sS'class'
p3909
I86
sS'june'
p3910
I89
sS'lmaooo\xe2\x80\x9d'
p3911
I88
sS'semis'
p3912
I89
sS'kinda'
p3913
I86
sS'ese'
p3914
I89
sS'nicest'
p3915
I89
sS'palenque'
p3916
I89
sS'friends'
p3917
I80
sS'goin'
p3918
I88
sS'ave'
p3919
I89
sS'alecks'
p3920
I89
sS'boapy'
p3921
I89
sS'noo,91733\n495771335788728320,cdilla23,2014-08-03'
p3922
I89
sS'racer'
p3923
I89
sS'rule'
p3924
I88
sS'compete'
p3925
I89
sS'lives'
p3926
I88
sS'monte)'
p3927
I89
sS'"the'
p3928
I89
sS'dillion'
p3929
I89
sS'\xe2\x80\x8e'
p3930
I89
s.