(dp0
S''
p1
I1
sS'stooppid'
p2
I40
sS'all'
p3
I25
sS'coach'
p4
I40
sS':('
p5
I37
sS':)'
p6
I39
sS'squats'
p7
I40
sS'personally'
p8
I40
sS'dollar'
p9
I40
sS'monte'
p10
I39
sS'yellow'
p11
I40
sS'month'
p12
I40
sS'andre'
p13
I40
sS'skate'
p14
I40
sS'sleep'
p15
I38
sS'spiders'
p16
I40
sS'go'
p17
I25
sS'liar'
p18
I40
sS'hate'
p19
I35
sS'issues'
p20
I40
sS'forget'
p21
I40
sS'baseball'
p22
I40
sS'lyrics'
p23
I40
sS'zone'
p24
I39
sS'car\xe2\x80\x9d'
p25
I40
sS"when's"
p26
I40
sS'tweet'
p27
I39
sS'ali'
p28
I40
sS'acting'
p29
I40
sS'send'
p30
I39
sS'to'
p31
I5
sS'finally'
p32
I39
sS'sucha'
p33
I40
sS'camarones'
p34
I40
sS'rainbowssssss'
p35
I40
sS'bomb'
p36
I40
sS'sorry'
p37
I40
sS'chill'
p38
I40
sS'shoot'
p39
I40
sS'grandmas'
p40
I40
sS'\xe2\x9a\xbe\xef\xb8\x8f'
p41
I40
sS'automotive'
p42
I39
sS'smh'
p43
I40
sS'restaurant)'
p44
I40
sS'focus'
p45
I40
sS'selfies'
p46
I40
sS'putting'
p47
I40
sS"chubby's"
p48
I40
sS'surprise'
p49
I40
sS'bartender'
p50
I40
sS'24th'
p51
I40
sS'mmmhm'
p52
I40
sS':p'
p53
I39
sS'riss'
p54
I40
sS'tickets'
p55
I40
sS'entire'
p56
I40
sS'school'
p57
I40
sS'heaven'
p58
I40
sS'did'
p59
I36
sS'die'
p60
I40
sS'laying'
p61
I40
sS'brother'
p62
I33
sS'leave'
p63
I39
sS'soooo'
p64
I40
sS'team'
p65
I40
sS'guy'
p66
I39
sS'dodger'
p67
I37
sS'athlete'
p68
I40
sS'clothes'
p69
I40
sS"i'll"
p70
I34
sS'work'
p71
I39
sS'instagram'
p72
I39
sS'tired'
p73
I38
sS'trend'
p74
I40
sS'tea'
p75
I40
sS'sore'
p76
I40
sS'crop'
p77
I40
sS'zero'
p78
I40
sS'dodgers'
p79
I40
sS'uncomfortable'
p80
I40
sS'follow'
p81
I40
sS'yayyy'
p82
I40
sS'eating'
p83
I40
sS'air'
p84
I40
sS'fear'
p85
I40
sS'cuz'
p86
I40
sS'even'
p87
I36
sS'what'
p88
I30
sS'pozole'
p89
I40
sS'richard'
p90
I39
sS'ugly'
p91
I40
sS'giving'
p92
I40
sS"tonight's"
p93
I40
sS'sum'
p94
I40
sS'aubourn'
p95
I39
sS'fucks'
p96
I40
sS'crush'
p97
I40
sS'lights'
p98
I40
sS'waiting'
p99
I40
sS'experiment'
p100
I40
sS'sooooooooo'
p101
I40
sS'goes'
p102
I39
sS'blur'
p103
I40
sS'kershaw'
p104
I40
sS'new'
p105
I36
sS'hmmm'
p106
I40
sS'ever'
p107
I38
sS'azusa'
p108
I40
sS'body'
p109
I40
sS'slick'
p110
I40
sS'full'
p111
I38
sS'led'
p112
I40
sS'zach'
p113
I40
sS'listening'
p114
I39
sS'here'
p115
I36
sS'surfer'
p116
I40
sS'water'
p117
I39
sS'met'
p118
I40
sS'let'
p119
I38
sS'meet'
p120
I40
sS'alone'
p121
I39
sS'along'
p122
I40
sS'shoulda'
p123
I40
sS'change'
p124
I39
sS'wait'
p125
I38
sS'snappers'
p126
I40
sS'boy'
p127
I40
sS'great'
p128
I37
sS'kids'
p129
I40
sS'defend'
p130
I40
sS'shove'
p131
I40
sS'healthy'
p132
I40
sS'didnt'
p133
I40
sS'k'
p134
I36
sS'ty'
p135
I40
sS'bitches'
p136
I40
sS'creepy'
p137
I40
sS'bow'
p138
I40
sS'tomorw'
p139
I40
sS"i'd"
p140
I39
sS'kemp'
p141
I40
sS'cathy'
p142
I40
sS'weird'
p143
I39
sS'makes'
p144
I38
sS'pillow'
p145
I40
sS'massage'
p146
I36
sS'eyebrows'
p147
I39
sS'aidan'
p148
I40
sS'love'
p149
I15
sS'family'
p150
I40
sS'win'
p151
I40
sS'deals'
p152
I40
sS'ask'
p153
I40
sS'chunky'
p154
I39
sS'thursday'
p155
I40
sS'verge'
p156
I40
sS'workout.\xe2\x80\x9d'
p157
I40
sS'gosh'
p158
I40
sS'\xe2\x98\xba\xef\xb8\x8f\xe2\x98\xba\xef\xb8\x8f'
p159
I40
sS'emoji'
p160
I40
sS'yourself'
p161
I40
sS'plot'
p162
I39
sS'use'
p163
I39
sS'hahahahaha'
p164
I40
sS'from'
p165
I34
sS'franco'
p166
I40
sS'would'
p167
I38
sS'&'
p168
I33
sS'chola'
p169
I40
sS'sends'
p170
I40
sS'mirrors'
p171
I40
sS'dude'
p172
I40
sS'face.\xe2\x80\x9d'
p173
I40
sS'next'
p174
I36
sS'few'
p175
I40
sS'ca)'
p176
I39
sS'camera'
p177
I40
sS'music'
p178
I38
sS'therefore'
p179
I40
sS'6'
p180
I39
sS'shits'
p181
I40
sS'ayyye'
p182
I40
sS'checkout'
p183
I40
sS'tell'
p184
I37
sS'today'
p185
I36
sS'more'
p186
I38
sS'faith'
p187
I40
sS'towers'
p188
I40
sS'share'
p189
I40
sS'company'
p190
I40
sS'haha'
p191
I31
sS'about'
p192
I27
sS'hurt'
p193
I39
sS'phone'
p194
I33
sS"ain't"
p195
I39
sS'broke'
p196
I39
sS'baby'
p197
I39
sS'hurry'
p198
I40
sS'yuuuuuum'
p199
I40
sS'drinking"'
p200
I40
sS'must'
p201
I40
sS'me'
p202
I7
sS'word'
p203
I40
sS'awwuh'
p204
I40
sS'this'
p205
I22
sS'car'
p206
I36
sS'ride'
p207
I40
sS'oh'
p208
I37
sS'mi'
p209
I40
sS'niggaz'
p210
I40
sS'cat'
p211
I39
sS'mommas'
p212
I40
sS'movies'
p213
I40
sS'mall'
p214
I40
sS'dizzy'
p215
I40
sS'del'
p216
I39
sS'can'
p217
I23
sS'cam'
p218
I39
sS'learn'
p219
I40
sS'knocked'
p220
I40
sS'making'
p221
I37
sS'*all'
p222
I40
sS'my'
p223
I3
sS'beautiful'
p224
I40
sS'crazy'
p225
I40
sS'partyyyy'
p226
I40
sS'give'
p227
I39
sS'australia....oh'
p228
I40
sS'floor'
p229
I40
sS"didn't"
p230
I37
sS'fuck'
p231
I35
sS'wal-mart'
p232
I40
sS'beatles'
p233
I40
sS'something'
p234
I36
sS'want'
p235
I29
sS'sense'
p236
I39
sS'keep'
p237
I40
sS'needs'
p238
I39
sS'awkward'
p239
I38
sS'cheering'
p240
I40
sS'rather'
p241
I39
sS'watching'
p242
I37
sS'freezer'
p243
I39
sS'1'
p244
I40
sS'till'
p245
I39
sS'hot'
p246
I39
sS'animal'
p247
I40
sS'hugs'
p248
I40
sS'answer'
p249
I38
sS'johnnys'
p250
I40
sS'beach'
p251
I40
sS'musical'
p252
I40
sS'pizza'
p253
I39
sS'staying'
p254
I39
sS'okay'
p255
I34
sS'tried'
p256
I40
sS'rude'
p257
I40
sS'mess'
p258
I40
sS'watch'
p259
I39
sS'after'
p260
I38
sS'diva'
p261
I40
sS'birthday'
p262
I39
sS'mad'
p263
I40
sS'matt'
p264
I40
sS'date'
p265
I40
sS'such'
p266
I39
sS'tacos'
p267
I40
sS'guys'
p268
I35
sS'man'
p269
I37
sS'a'
p270
I11
sS'realized'
p271
I40
sS'whyyyyy'
p272
I40
sS'maybe'
p273
I37
sS'sit'
p274
I40
sS'bean'
p275
I40
sS'fine'
p276
I40
sS'ehhhh'
p277
I40
sS'so'
p278
I13
sS'sc'
p279
I38
sS'every'
p280
I40
sS'playing'
p281
I40
sS'talk'
p282
I38
sS"that's"
p283
I36
sS'punking'
p284
I40
sS'cute'
p285
I38
sS'rn\xe2\x80\x9d'
p286
I40
sS'fimbres'
p287
I40
sS'help'
p288
I40
sS'office'
p289
I40
sS"don't"
p290
I24
sS'freckles'
p291
I40
sS'over'
p292
I35
sS'haircut'
p293
I39
sS'soon'
p294
I40
sS'attitude'
p295
I40
sS'looks'
p296
I37
sS'left'
p297
I40
sS'hell'
p298
I38
sS'still'
p299
I34
sS'its'
p300
I37
sS'before'
p301
I35
sS'perfect'
p302
I37
sS'stupidass'
p303
I40
sS';('
p304
I40
sS"he's"
p305
I38
sS'personal'
p306
I40
sS'soaking'
p307
I39
sS'cheerleaders'
p308
I40
sS'tori'
p309
I40
sS'amazing'
p310
I37
sS'nephew'
p311
I40
sS'better'
p312
I34
sS'>>>'
p313
I40
sS'pac'
p314
I40
sS'pussy'
p315
I40
sS'orange'
p316
I40
sS'2014'
p317
I39
sS'main'
p318
I40
sS"*they're"
p319
I40
sS'prisoners'
p320
I40
sS"haven't"
p321
I38
sS'dad'
p322
I35
sS'then'
p323
I35
sS'them'
p324
I37
sS'good'
p325
I30
sS'sisters'
p326
I40
sS'fourth'
p327
I40
sS'yo'
p328
I39
sS'wake'
p329
I40
sS"it'"
p330
I40
sS'practice'
p331
I37
sS'it"'
p332
I40
sS'earn'
p333
I40
sS'feelin'
p334
I40
sS'dat'
p335
I40
sS'mention'
p336
I40
sS'drinking'
p337
I40
sS'starbucks'
p338
I39
sS'they'
p339
I36
sS'half'
p340
I39
sS'not'
p341
I22
sS'now'
p342
I27
sS'twilight'
p343
I40
sS'day'
p344
I35
sS'agaiiiiiiiiin'
p345
I40
sS'baes'
p346
I40
sS'bryan'
p347
I40
sS'gets'
p348
I39
sS'name'
p349
I39
sS'sundays'
p350
I40
sS'always'
p351
I36
sS'explode'
p352
I40
sS'doesnt'
p353
I39
sS"julian's"
p354
I40
sS'truth'
p355
I40
sS'spikey'
p356
I40
sS'went'
p357
I38
sS'side'
p358
I40
sS'mean'
p359
I39
sS'everyone'
p360
I39
sS'bday'
p361
I40
sS'delicious'
p362
I39
sS'doing'
p363
I33
sS'house'
p364
I39
sS'yeah'
p365
I35
sS'used'
p366
I40
sS'connect'
p367
I40
sS'year'
p368
I36
sS'our'
p369
I37
sS'girl'
p370
I36
sS'beyond'
p371
I40
sS'ipad'
p372
I40
sS'saturday'
p373
I40
sS'special'
p374
I40
sS'out'
p375
I30
sS'album'
p376
I40
sS'try'
p377
I40
sS'by'
p378
I39
sS'rey'
p379
I40
sS'nigga'
p380
I40
sS'missed'
p381
I40
sS'am\xc3\xa9rica'
p382
I40
sS'heaaaad'
p383
I40
sS'god'
p384
I37
sS'mitts'
p385
I40
sS'since'
p386
I38
sS'thirst'
p387
I40
sS'"go'
p388
I40
sS'looking'
p389
I40
sS'hayden'
p390
I40
sS'seriously'
p391
I39
sS'stupid'
p392
I38
sS'hilarious'
p393
I38
sS'got'
p394
I34
sS'rn'
p395
I37
sS'smd'
p396
I40
sS'cause'
p397
I40
sS'ass'
p398
I39
sS'shut'
p399
I36
sS'grease'
p400
I39
sS'cutest'
p401
I40
sS"doesn't"
p402
I38
sS'hang'
p403
I40
sS'confused'
p404
I40
sS'friday'
p405
I36
sS'story'
p406
I36
sS'free'
p407
I40
sS'"hey'
p408
I40
sS'killin'
p409
I40
sS'complicated'
p410
I40
sS'splashes'
p411
I40
sS'grandma'
p412
I36
sS'put'
p413
I38
sS'stupidest'
p414
I40
sS'philip'
p415
I40
sS'wanted'
p416
I39
sS'upppppppp'
p417
I40
sS'care'
p418
I40
sS'nunery'
p419
I40
sS'ate'
p420
I40
sS'organic'
p421
I40
sS'dayum'
p422
I40
sS'could'
p423
I39
sS'days'
p424
I39
sS'times'
p425
I39
sS'thing'
p426
I38
sS'heck'
p427
I40
sS"today's"
p428
I40
sS'daisy'
p429
I38
sS'tied'
p430
I40
sS'yess'
p431
I40
sS'think'
p432
I35
sS'first'
p433
I39
sS'feed'
p434
I40
sS'already'
p435
I33
sS'thinks'
p436
I40
sS'feel'
p437
I35
sS'recruiting'
p438
I40
sS'supper'
p439
I40
sS'number'
p440
I40
sS'fancy'
p441
I40
sS'one'
p442
I27
sS'wash'
p443
I40
sS'pop'
p444
I40
sS'done'
p445
I37
sS'lol'
p446
I18
sS'another'
p447
I37
sS'millers'
p448
I40
sS'"man"'
p449
I40
sS'miss'
p450
I37
sS'tomorrow'
p451
I31
sS"you're"
p452
I30
sS'little'
p453
I36
sS'"'
p454
I40
sS'monkey'
p455
I38
sS'needed'
p456
I40
sS'top'
p457
I40
sS'*in'
p458
I40
sS'girls'
p459
I38
sS'anyone'
p460
I40
sS'their'
p461
I38
sS'2'
p462
I39
sS'too'
p463
I32
sS'stuffed'
p464
I40
sS'ocs'
p465
I40
sS'legs'
p466
I38
sS'bitter'
p467
I40
sS'banana'
p468
I40
sS"we're"
p469
I40
sS'stomach'
p470
I40
sS'gear'
p471
I40
sS'relationship'
p472
I40
sS'that'
p473
I20
sS'happily'
p474
I40
sS'season'
p475
I39
sS'exactly'
p476
I40
sS'huh'
p477
I40
sS'took'
p478
I39
sS'mmmm'
p479
I40
sS'eachother'
p480
I40
sS'part'
p481
I40
sS'grandpa'
p482
I40
sS'ashley'
p483
I40
sS'july'
p484
I40
sS'believe'
p485
I35
sS'than'
p486
I40
sS'hmmmmmmmmmmph'
p487
I40
sS'11'
p488
I40
sS'10'
p489
I40
sS'13'
p490
I40
sS'perfectly'
p491
I40
sS'impractical'
p492
I40
sS'disses'
p493
I40
sS'ew'
p494
I40
sS'busted'
p495
I40
sS'10:07'
p496
I40
sS'gotta'
p497
I38
sS'beanie'
p498
I40
sS'beanies'
p499
I40
sS'bed'
p500
I39
sS'shower'
p501
I40
sS'pennsylvania'
p502
I40
sS'guuueeeess'
p503
I40
sS'loves'
p504
I40
sS'were'
p505
I34
sS'dang'
p506
I40
sS'sister'
p507
I35
sS'feeling'
p508
I40
sS'minus'
p509
I40
sS'bet'
p510
I38
sS'powder'
p511
I40
sS'and'
p512
I8
sS'kidding'
p513
I40
sS'outta'
p514
I40
sS'angel'
p515
I40
sS'ni\xc3\xb1o'
p516
I40
sS'julian'
p517
I40
sS'pro'
p518
I40
sS'fights'
p519
I40
sS'mind'
p520
I39
sS'mine'
p521
I38
sS'slap'
p522
I40
sS'sad'
p523
I36
sS'tonight'
p524
I35
sS'talking'
p525
I40
sS'say'
p526
I38
sS'alfonso'
p527
I40
sS'have'
p528
I21
sS'need'
p529
I32
sS'breakfast'
p530
I39
sS'turn'
p531
I40
sS'saw'
p532
I39
sS'worst'
p533
I40
sS'ray'
p534
I40
sS'haha-'
p535
I40
sS'wilson'
p536
I40
sS'nights'
p537
I40
sS'wcw'
p538
I39
sS'congrats'
p539
I40
sS"i've"
p540
I40
sS'-'
p541
I19
sS'other'
p542
I40
sS'without'
p543
I40
sS"snooki's"
p544
I40
sS'take'
p545
I36
sS'online'
p546
I38
sS'honestly'
p547
I39
sS'blunt'
p548
I40
sS'memory'
p549
I40
sS'play'
p550
I39
sS'sure'
p551
I38
sS'gonnaa'
p552
I40
sS'aww'
p553
I39
sS'quote'
p554
I40
sS'eggs'
p555
I40
sS'who'
p556
I37
sS'jorge'
p557
I40
sS'thts'
p558
I40
sS"where's"
p559
I40
sS'most'
p560
I39
sS'matty'
p561
I40
sS'mouth'
p562
I40
sS'voice*'
p563
I40
sS'nothing'
p564
I40
sS'cap'
p565
I40
sS'why'
p566
I28
sS'see!-'
p567
I40
sS"amanda's"
p568
I39
sS'massages'
p569
I40
sS'forever'
p570
I40
sS'episode'
p571
I40
sS'especially'
p572
I39
sS'into'
p573
I40
sS'camp'
p574
I40
sS'internship'
p575
I40
sS'hungry'
p576
I39
sS'face'
p577
I39
sS'doll'
p578
I40
sS"you'll"
p579
I39
sS'barca'
p580
I40
sS'tha'
p581
I40
sS'pineapple'
p582
I40
sS'(el'
p583
I39
sS'senior'
p584
I40
sS'stadium/dodger'
p585
I40
sS'annoyed'
p586
I39
sS'came'
p587
I39
sS'dodging'
p588
I40
sS'saying'
p589
I40
sS'walking'
p590
I40
sS'ugh'
p591
I39
sS'shot'
p592
I39
sS'familia'
p593
I40
sS'"trouble"'
p594
I40
sS'show'
p595
I39
sS'text'
p596
I38
sS'charles'
p597
I39
sS'anyway'
p598
I40
sS'stfu'
p599
I40
sS'jared'
p600
I40
sS'chicken'
p601
I40
sS'snapchat>>>'
p602
I40
sS'screenshots'
p603
I40
sS'frankie'
p604
I40
sS'\xe2\x9c\x8c'
p605
I40
sS"em'"
p606
I39
sS'peck'
p607
I40
sS'210'
p608
I40
sS'\xe2\x9c\x8b'
p609
I40
sS'('
p610
I40
sS'ruin'
p611
I39
sS'wut'
p612
I40
sS'outside'
p613
I40
sS'should'
p614
I36
sS'only'
p615
I38
sS'going'
p616
I31
sS'black'
p617
I39
sS'touched'
p618
I40
sS'pretty'
p619
I38
sS"nathaniel's"
p620
I40
sS'sooooooo'
p621
I40
sS'circle'
p622
I39
sS'boyfriend'
p623
I40
sS'hope'
p624
I40
sS'personality'
p625
I40
sS'wearing'
p626
I40
sS'do'
p627
I24
sS'his'
p628
I39
sS'hit'
p629
I40
sS'get'
p630
I20
sS'goodluck'
p631
I40
sS'luke'
p632
I40
sS'goosebumps'
p633
I40
sS'de'
p634
I39
sS'stop'
p635
I38
sS'sneeze'
p636
I40
sS'wiggle'
p637
I38
sS'feels'
p638
I38
sS'maaan'
p639
I40
sS'watermelon'
p640
I40
sS'gee'
p641
I40
sS'up:)'
p642
I40
sS'hii'
p643
I40
sS'him'
p644
I35
sS'show!!!!\xe2\x80\x9d'
p645
I40
sS'carrrrr'
p646
I40
sS'jumps?"'
p647
I40
sS'racing'
p648
I40
sS'morning'
p649
I36
sS'joker'
p650
I40
sS'bad'
p651
I40
sS'bae'
p652
I36
sS'gloves'
p653
I40
sS'she'
p654
I38
sS'boring'
p655
I40
sS'disgusting\xe2\x80\x9d'
p656
I40
sS'"over'
p657
I40
sS'finishing'
p658
I40
sS'told'
p659
I40
sS'where'
p660
I36
sS"y'all"
p661
I37
sS'mmm'
p662
I40
sS"missin'"
p663
I40
sS'notice'
p664
I40
sS'freaaaaaaking'
p665
I40
sS'resist'
p666
I40
sS'see'
p667
I31
sS'computer'
p668
I40
sS'dumb'
p669
I39
sS'are'
p670
I25
sS'erika'
p671
I39
sS'close'
p672
I40
sS'news'
p673
I40
sS'arm'
p674
I40
sS'best'
p675
I39
sS'points'
p676
I40
sS'project'
p677
I40
sS'lost'
p678
I40
sS'said'
p679
I38
sS'luv'
p680
I39
sS'pedicure'
p681
I40
sS'ways'
p682
I40
sS'movie'
p683
I38
sS'away'
p684
I39
sS'shaved'
p685
I40
sS'birds'
p686
I40
sS'3'
p687
I39
sS'horrible'
p688
I38
sS'probably'
p689
I40
sS'burned'
p690
I40
sS'brotherrr'
p691
I40
sS'nathaniel'
p692
I37
sS'compliment'
p693
I40
sS'24'
p694
I39
sS'we'
p695
I31
sS'never'
p696
I40
sS'omg'
p697
I37
sS'intending'
p698
I40
sS'uuu'
p699
I40
sS'killing'
p700
I40
sS'death'
p701
I40
sS'coffee'
p702
I40
sS'wth'
p703
I40
sS'cousin'
p704
I38
sS'w'
p705
I40
sS'js'
p706
I40
sS'selena'
p707
I39
sS'dada'
p708
I40
sS'pissed'
p709
I40
sS'both'
p710
I39
sS'last'
p711
I36
sS'sniff'
p712
I40
sS'thot'
p713
I40
sS"wouldn't"
p714
I39
sS'barely'
p715
I40
sS'crib'
p716
I40
sS'equal'
p717
I40
sS'hahahaha'
p718
I40
sS'games'
p719
I40
sS"sun's"
p720
I40
sS'yeeee'
p721
I40
sS'chorizo'
p722
I39
sS'passing'
p723
I40
sS'whole'
p724
I39
sS'asked'
p725
I39
sS"can't"
p726
I32
sS'come'
p727
I39
sS'dm'
p728
I40
sS'\xe2\x98\xba'
p729
I40
sS'pox'
p730
I40
sS'point'
p731
I40
sS'simple'
p732
I39
sS'sweet'
p733
I39
sS'jeans'
p734
I40
sS'whatever'
p735
I39
sS'walk'
p736
I40
sS'))'
p737
I40
sS'fukin'
p738
I40
sS'agents'
p739
I40
sS'laugh'
p740
I40
sS'church'
p741
I37
sS'rave'
p742
I40
sS'trust'
p743
I39
sS'late'
p744
I37
sS'snapchat'
p745
I40
sS'devil'
p746
I40
sS'yay'
p747
I39
sS'pin'
p748
I40
sS'puts'
p749
I40
sS'nocutrnaaal'
p750
I40
sS"it's"
p751
I26
sS'g-night'
p752
I40
sS'been'
p753
I40
sS'gopro'
p754
I40
sS'much'
p755
I36
sS'damn'
p756
I39
sS'arroyo'
p757
I40
sS'tina'
p758
I40
sS'entered'
p759
I40
sS'meeting'
p760
I40
sS'known'
p761
I40
sS'woke'
p762
I38
sS'wants'
p763
I39
sS'life'
p764
I36
sS'shopping'
p765
I38
sS'soooooo'
p766
I40
sS'gay'
p767
I37
sS'fire'
p768
I39
sS"what's"
p769
I39
sS'else'
p770
I39
sS'moment'
p771
I40
sS'dramatic'
p772
I40
sS'understand'
p773
I40
sS'oitnb'
p774
I40
sS'chatty'
p775
I40
sS'aries'
p776
I40
sS'calls'
p777
I40
sS'jotaria'
p778
I40
sS'those'
p779
I38
sS'volunteer'
p780
I40
sS'case'
p781
I39
sS'myself'
p782
I36
sS'soccer'
p783
I40
sS'letssssssssss'
p784
I40
sS'look'
p785
I37
sS'38'
p786
I40
sS'plain'
p787
I40
sS'bill'
p788
I40
sS'hahaha\xe2\x80\x9d'
p789
I40
sS'value'
p790
I40
sS'transformation'
p791
I40
sS'will'
p792
I35
sS'forgetting'
p793
I40
sS'while'
p794
I39
sS'"so'
p795
I40
sS'life"'
p796
I40
sS'hahaha'
p797
I36
sS'fun'
p798
I37
sS'hater'
p799
I40
sS'taking'
p800
I40
sS'chilling'
p801
I40
sS'pack'
p802
I40
sS'swim'
p803
I40
sS'nominating'
p804
I40
sS'annabelle'
p805
I40
sS'flex'
p806
I40
sS'almost'
p807
I40
sS'is'
p808
I10
sS'sushi'
p809
I40
sS'it'
p810
I9
sS'fakes'
p811
I40
sS'"u'
p812
I40
sS':-(\xe2\x80\x9d'
p813
I40
sS'someone'
p814
I39
sS'im'
p815
I35
sS'experience'
p816
I40
sS'in'
p817
I16
sS'ready'
p818
I38
sS'lmaoooooooooo'
p819
I40
sS'rid'
p820
I39
sS'if'
p821
I28
sS'gone'
p822
I40
sS'funny'
p823
I40
sS'different'
p824
I40
sS'shooting'
p825
I40
sS"karina's"
p826
I40
sS'shirt'
p827
I40
sS'open'
p828
I40
sS'james'
p829
I40
sS'migraine'
p830
I40
sS'things'
p831
I37
sS'make'
p832
I39
sS'0'
p833
I40
sS'upside'
p834
I40
sS'same'
p835
I37
sS'trip'
p836
I40
sS'puig'
p837
I40
sS'grinded'
p838
I40
sS'bows'
p839
I40
sS'babies'
p840
I40
sS'docs'
p841
I40
sS'party'
p842
I39
sS'torta'
p843
I39
sS"70's"
p844
I40
sS'dooooo'
p845
I40
sS'claps'
p846
I40
sS'uhm'
p847
I40
sS'raymond'
p848
I40
sS'again'
p849
I40
sS'earphones'
p850
I40
sS'bald'
p851
I40
sS'ima'
p852
I40
sS'haus'
p853
I40
sS'bullying'
p854
I40
sS'fucken'
p855
I39
sS'afraid'
p856
I40
sS'xd'
p857
I40
sS'kim'
p858
I40
sS'puff'
p859
I40
sS'jealous'
p860
I38
sS'a2k'
p861
I40
sS'nickname'
p862
I40
sS"i'm"
p863
I12
sS'kid'
p864
I40
sS'charles\xe2\x80\x9d'
p865
I40
sS'posted'
p866
I40
sS'cut!\xe2\x80\x9d'
p867
I40
sS'off'
p868
I39
sS'blood'
p869
I40
sS'i'
p870
I2
sS'dancing'
p871
I40
sS'well'
p872
I37
sS'anybody'
p873
I39
sS'obviously'
p874
I38
sS'tho'
p875
I39
sS'person'
p876
I39
sS'cheer'
p877
I37
sS'knotts'
p878
I38
sS'flags'
p879
I40
sS'jersey'
p880
I39
sS'bottle'
p881
I38
sS'deserve'
p882
I40
sS'very'
p883
I40
sS'the'
p884
I4
sS'yours'
p885
I39
sS'dads'
p886
I40
sS'latest'
p887
I40
sS'withdraws'
p888
I40
sS'taller'
p889
I40
sS'\xe2\x98\xba\xef\xb8\x8f'
p890
I39
sS'just'
p891
I20
sS'being'
p892
I37
sS'42'
p893
I40
sS"should've"
p894
I40
sS'rest'
p895
I40
sS'front'
p896
I40
sS'kill'
p897
I38
sS'thanks'
p898
I38
sS'yes'
p899
I33
sS'move'
p900
I40
sS'polar'
p901
I40
sS'loading'
p902
I40
sS'hiking'
p903
I40
sS'hint'
p904
I40
sS'doyer'
p905
I40
sS'expendables'
p906
I40
sS'drive'
p907
I40
sS'had'
p908
I35
sS'burrito'
p909
I40
sS'bww'
p910
I40
sS'add'
p911
I40
sS'lower'
p912
I40
sS'easy'
p913
I40
sS'wet'
p914
I38
sS'selfish'
p915
I40
sS'riverside'
p916
I40
sS'has'
p917
I38
sS'excited'
p918
I39
sS'hates'
p919
I40
sS'gave'
p920
I40
sS'real'
p921
I39
sS'necklegsarms'
p922
I40
sS'psn'
p923
I40
sS'around'
p924
I40
sS'big'
p925
I36
sS'laughed'
p926
I40
sS'results'
p927
I40
sS'monique'
p928
I40
sS'gonna'
p929
I34
sS'anger'
p930
I40
sS'early'
p931
I35
sS'marrissarosee'
p932
I40
sS'game'
p933
I29
sS'bitch'
p934
I40
sS'know'
p935
I24
sS'mom'
p936
I38
sS'(-'
p937
I40
sS'judge'
p938
I40
sS'world'
p939
I39
sS'bit'
p940
I40
sS'accepted'
p941
I40
sS'rear'
p942
I40
sS'like'
p943
I14
sS'ballin'
p944
I40
sS'ill'
p945
I40
sS'toniiiggght'
p946
I40
sS'twin'
p947
I40
sS'xbox'
p948
I40
sS'either'
p949
I39
sS'night'
p950
I36
sS'served'
p951
I40
sS'alycia'
p952
I40
sS'right'
p953
I33
sS'old'
p954
I40
sS'deal'
p955
I39
sS'people'
p956
I33
sS'fucking'
p957
I32
sS'animals'
p958
I40
sS'scared'
p959
I39
sS'fake'
p960
I40
sS'some'
p961
I36
sS'back'
p962
I34
sS'hair'
p963
I40
sS'tajin'
p964
I40
sS'lips'
p965
I40
sS'mmmmm'
p966
I40
sS'looked'
p967
I40
sS'home'
p968
I33
sS'guess'
p969
I40
sS'cuddlezz'
p970
I40
sS"dick's"
p971
I40
sS'jojo'
p972
I40
sS'for'
p973
I24
sS'literally'
p974
I40
sS'absolutely'
p975
I40
sS'thanksgiving'
p976
I40
sS'rattlesnake'
p977
I40
sS'ice'
p978
I40
sS'camping'
p979
I40
sS"'i'm"
p980
I40
sS'everything'
p981
I38
sS'does'
p982
I39
sS'*homeless'
p983
I40
sS'sparrow'
p984
I40
sS'be'
p985
I24
sS'rank'
p986
I40
sS'knew'
p987
I40
sS'run'
p988
I39
sS'bc'
p989
I37
sS'lmfao'
p990
I39
sS'treating'
p991
I40
sS'spider-man'
p992
I40
sS'lose'
p993
I40
sS"smd's"
p994
I40
sS'how'
p995
I32
sS'post'
p996
I40
sS'exciting'
p997
I40
sS'super'
p998
I37
sS'throw'
p999
I38
sS'earlier'
p1000
I40
sS'hearing'
p1001
I40
sS'on'
p1002
I15
sS':-('
p1003
I39
sS':-)'
p1004
I35
sS'carried'
p1005
I40
sS'anything'
p1006
I37
sS'getting'
p1007
I35
sS'jenna'
p1008
I40
sS'of'
p1009
I17
sS'iced'
p1010
I39
sS'favorite'
p1011
I39
sS'ruiz'
p1012
I40
sS'drama'
p1013
I40
sS'srs'
p1014
I39
sS'dinner'
p1015
I39
sS'swear'
p1016
I40
sS'beans'
p1017
I40
sS'idk'
p1018
I37
sS'neighbor'
p1019
I39
sS'act'
p1020
I39
sS'luck'
p1021
I39
sS'wanna'
p1022
I35
sS'or'
p1023
I35
sS'alge'
p1024
I40
sS'repair'
p1025
I39
sS'own'
p1026
I40
sS'chu'
p1027
I40
sS'noticed'
p1028
I40
sS'pays'
p1029
I40
sS'selfie'
p1030
I37
sS'errands'
p1031
I38
sS'bound'
p1032
I40
sS'soo'
p1033
I39
sS'due'
p1034
I40
sS'down'
p1035
I38
sS'ahs'
p1036
I40
sS'because'
p1037
I35
sS'rising'
p1038
I40
sS'tiny'
p1039
I40
sS'subtweet'
p1040
I40
sS'parties'
p1041
I40
sS'kinda'
p1042
I40
sS'your'
p1043
I24
sS'fired'
p1044
I40
sS'11:11'
p1045
I40
sS'out"teammate'
p1046
I40
sS'her'
p1047
I35
sS'shat'
p1048
I40
sS'weekend'
p1049
I39
sS'there'
p1050
I35
sS'live'
p1051
I40
sS'long'
p1052
I37
sS'ass"'
p1053
I40
sS'stuck'
p1054
I40
sS'awks'
p1055
I40
sS'naaahhhhhh'
p1056
I40
sS'pool'
p1057
I39
sS'stars'
p1058
I40
sS'bruh'
p1059
I40
sS'biggest'
p1060
I40
sS'sale'
p1061
I40
sS'was'
p1062
I23
sS'twitter'
p1063
I40
sS'happy'
p1064
I36
sS'cleaning'
p1065
I40
sS'head'
p1066
I39
sS'buy'
p1067
I39
sS'remember'
p1068
I40
sS'inches'
p1069
I40
sS'enough'
p1070
I40
sS'3lau'
p1071
I40
sS'hw'
p1072
I40
sS'but'
p1073
I24
sS'idea'
p1074
I39
sS'boys'
p1075
I39
sS'talents'
p1076
I40
sS'bun'
p1077
I40
sS'might'
p1078
I40
sS'chazzyy4\xe2\x80\x9d'
p1079
I40
sS'coldest'
p1080
I40
sS'line'
p1081
I40
sS'trying'
p1082
I40
sS'with'
p1083
I20
sS'eat'
p1084
I36
sS'he'
p1085
I36
sS"they're"
p1086
I40
sS'made'
p1087
I37
sS'apology'
p1088
I40
sS'happen'
p1089
I40
sS'born'
p1090
I40
sS'dog'
p1091
I40
sS'wish'
p1092
I35
sS'up'
p1093
I18
sS'us'
p1094
I40
sS'fight'
p1095
I40
sS'excitement'
p1096
I40
sS'crystal'
p1097
I40
sS'catching'
p1098
I40
sS'stories'
p1099
I40
sS'uh'
p1100
I39
sS'freeman'
p1101
I40
sS'problem'
p1102
I40
sS'piece'
p1103
I40
sS'minutes'
p1104
I40
sS'called'
p1105
I39
sS'dots'
p1106
I40
sS'ac'
p1107
I40
sS'sometimes'
p1108
I40
sS'freak'
p1109
I40
sS'iphone'
p1110
I40
sS'johnny'
p1111
I40
sS'af'
p1112
I36
sS'them\xe2\x80\x9d'
p1113
I40
sS'am'
p1114
I34
sS'mike'
p1115
I40
sS'an'
p1116
I34
sS'twist'
p1117
I39
sS'alarm'
p1118
I40
sS'as'
p1119
I38
sS'guessed'
p1120
I40
sS'exist'
p1121
I40
sS'at'
p1122
I22
sS'aw'
p1123
I40
sS'jude"'
p1124
I40
sS'ay'
p1125
I40
sS'rawlings'
p1126
I40
sS'awhile'
p1127
I39
sS'annoying'
p1128
I37
sS'sharknado'
p1129
I40
sS'shit'
p1130
I34
sS'cream'
p1131
I40
sS'holla'
p1132
I40
sS'rainy'
p1133
I40
sS'peter'
p1134
I40
sS'jesus'
p1135
I40
sS'dying'
p1136
I39
sS'no'
p1137
I30
sS'way'
p1138
I40
sS'nah'
p1139
I38
sS'relax'
p1140
I40
sS'when'
p1141
I26
sS'green'
p1142
I40
sS'event'
p1143
I40
sS'dylan'
p1144
I40
sS'tight'
p1145
I40
sS'nap'
p1146
I40
sS'hulloh'
p1147
I40
sS'dummmb'
p1148
I40
sS'sick'
p1149
I37
sS'you'
p1150
I6
sS'really'
p1151
I32
sS'smell'
p1152
I40
sS"kim's"
p1153
I40
sS'nice'
p1154
I40
sS"selena's"
p1155
I40
sS'picture'
p1156
I38
sS'repeat'
p1157
I40
sS'la'
p1158
I40
sS'separate'
p1159
I40
sS'shelter'
p1160
I40
sS'messing'
p1161
I40
sS'welcome'
p1162
I40
sS'forgot'
p1163
I40
sS'goo'
p1164
I40
sS'stay'
p1165
I38
sS"let's"
p1166
I35
sS'*moles'
p1167
I40
sS'gandola'
p1168
I40
sS'gatsby'
p1169
I37
sS'chris'
p1170
I40
sS'jokers'
p1171
I40
sS'friends'
p1172
I32
sS'birthday\xe2\x80\x9d'
p1173
I40
sS'died'
p1174
I39
sS'um'
p1175
I40
sS'land'
p1176
I39
sS'lana'
p1177
I39
sS'spend'
p1178
I40
sS'assume'
p1179
I40
sS'lot'
p1180
I40
sS'kissed'
p1181
I40
sS'rule'
p1182
I40
sS'gorilla'
p1183
I40
sS'u'
p1184
I35
sS'fact'
p1185
I40
sS'time'
p1186
I30
sS'far'
p1187
I40
sS"she's"
p1188
I38
sS'surprised'
p1189
I40
sS'having'
p1190
I39
s.