(dp0
S''
p1
I2
sS'monte'
p2
I23
sS':)'
p3
I25
sS'dance'
p4
I26
sS'lack'
p5
I26
sS'all'
p6
I24
sS'four'
p7
I26
sS'sleep'
p8
I25
sS'go'
p9
I22
sS'follow'
p10
I26
sS'hate'
p11
I25
sS':3'
p12
I26
sS'tv'
p13
I26
sS'subjected'
p14
I26
sS'acting'
p15
I25
sS'to'
p16
I3
sS'finally'
p17
I24
sS'smile'
p18
I26
sS'sorry'
p19
I26
sS'woman'
p20
I26
sS'paychecks'
p21
I26
sS"they'll"
p22
I26
sS'song'
p23
I25
sS':d'
p24
I23
sS'tacos'
p25
I25
sS'^-^'
p26
I26
sS'maaaaaaaannnnnn'
p27
I26
sS'vegas'
p28
I25
sS'fan'
p29
I26
sS'telling'
p30
I26
sS'ticket'
p31
I26
sS'difference'
p32
I26
sS':p'
p33
I24
sS'cool'
p34
I23
sS'tickets'
p35
I25
sS'did'
p36
I24
sS'wednesday'
p37
I26
sS'peine'
p38
I26
sS'frozen'
p39
I26
sS'soooo'
p40
I26
sS'settle'
p41
I26
sS'red'
p42
I26
sS'guy'
p43
I26
sS'round'
p44
I25
sS"i'll"
p45
I25
sS'work'
p46
I23
sS'instagram'
p47
I26
sS'till'
p48
I26
sS'd'
p49
I26
sS'panda'
p50
I26
sS'even'
p51
I22
sS'what'
p52
I19
sS'stands'
p53
I25
sS'giving'
p54
I26
sS'"butt'
p55
I26
sS'musty'
p56
I26
sS'f*ck'
p57
I26
sS'version'
p58
I26
sS'goes'
p59
I26
sS'new'
p60
I25
sS'ever'
p61
I20
sS'disney'
p62
I26
sS'told'
p63
I25
sS'body'
p64
I26
sS'never'
p65
I25
sS'punch'
p66
I26
sS'here'
p67
I26
sS'\xe2\x9d\xa4\xef\xb8\x8f'
p68
I25
sS'let'
p69
I22
sS'separate'
p70
I26
sS'address'
p71
I26
sS'change'
p72
I25
sS'box'
p73
I26
sS'boy'
p74
I26
sS'great'
p75
I25
sS'yessss'
p76
I26
sS'~^.^~'
p77
I26
sS'amount'
p78
I26
sS"i'd"
p79
I26
sS'advertising'
p80
I26
sS'pick'
p81
I26
sS'\xe2\x9c\x94\xef\xb8\x8f'
p82
I26
sS"i'm"
p83
I12
sS'makes'
p84
I25
sS'homecoming'
p85
I26
sS'thats'
p86
I26
sS'eyebrows'
p87
I26
sS'shuffle'
p88
I26
sS'family'
p89
I26
sS'win'
p90
I26
sS'namek'
p91
I26
sS'mme'
p92
I26
sS'names'
p93
I26
sS'motor'
p94
I26
sS'*this'
p95
I26
sS'gorillas'
p96
I26
sS'yourself'
p97
I25
sS'from'
p98
I24
sS'would'
p99
I23
sS'&'
p100
I23
sS';/'
p101
I26
sS'texting'
p102
I26
sS'two'
p103
I25
sS'sunday'
p104
I26
sS'few'
p105
I24
sS'live'
p106
I26
sS'much..and'
p107
I26
sS'music'
p108
I26
sS'6'
p109
I26
sS'shits'
p110
I26
sS'indiana'
p111
I26
sS'now&then'
p112
I26
sS'type'
p113
I25
sS'tell'
p114
I26
sS'today'
p115
I26
sS'more'
p116
I24
sS'charcoal'
p117
I26
sS'diamond'
p118
I26
sS'peeping'
p119
I26
sS'relax'
p120
I26
sS'haha'
p121
I22
sS'training'
p122
I26
sS'phone'
p123
I25
sS'aleady'
p124
I26
sS'ceviche'
p125
I26
sS'broke'
p126
I26
sS'glad'
p127
I26
sS'me'
p128
I7
sS'..for'
p129
I26
sS'room'
p130
I24
sS'salad'
p131
I26
sS'dialed'
p132
I26
sS'this'
p133
I15
sS'car'
p134
I25
sS'des'
p135
I26
sS'soul'
p136
I25
sS'offended'
p137
I26
sS'duermete'
p138
I26
sS'obvious'
p139
I26
sS'can'
p140
I22
sS'mr'
p141
I26
sS'making'
p142
I24
sS'my'
p143
I5
sS'beautiful'
p144
I25
sS'heart'
p145
I24
sS'give'
p146
I26
sS'favorite'
p147
I26
sS'billboards'
p148
I26
sS'fuck'
p149
I25
sS'socal'
p150
I25
sS'something'
p151
I25
sS'want'
p152
I20
sS'hit'
p153
I26
sS'clothing'
p154
I26
sS'guarantee'
p155
I26
sS'chores'
p156
I26
sS'huge'
p157
I26
sS'needs'
p158
I26
sS'rather'
p159
I26
sS'means'
p160
I26
sS'sudden'
p161
I26
sS'how'
p162
I25
sS'hot'
p163
I25
sS'7:00'
p164
I26
sS'friday-.-'
p165
I26
sS'reyes'
p166
I26
sS'irreverent'
p167
I26
sS'ventura)'
p168
I25
sS'pink'
p169
I26
sS'express'
p170
I26
sS'may'
p171
I26
sS'mind&u'
p172
I26
sS'together....im'
p173
I26
sS'after'
p174
I24
sS'spot'
p175
I26
sS'fart'
p176
I26
sS'fb'
p177
I26
sS'birthday'
p178
I23
sS'mad'
p179
I25
sS'taco'
p180
I26
sS'hahahaha'
p181
I24
sS'guys'
p182
I26
sS'man'
p183
I24
sS'a'
p184
I6
sS'stress'
p185
I26
sS'remember'
p186
I25
sS'titos'
p187
I26
sS'shady'
p188
I26
sS'9am'
p189
I26
sS'so'
p190
I10
sS'basket'
p191
I25
sS'every'
p192
I26
sS'playing'
p193
I25
sS'talk'
p194
I26
sS"that's"
p195
I23
sS'ignite'
p196
I26
sS'cute'
p197
I26
sS'breaking'
p198
I26
sS'furshure'
p199
I26
sS'help'
p200
I25
sS"don't"
p201
I21
sS'indeed'
p202
I26
sS'over'
p203
I26
sS'move'
p204
I26
sS'soon'
p205
I26
sS'course'
p206
I26
sS'paper'
p207
I26
sS'through'
p208
I26
sS'looks'
p209
I26
sS'mutt'
p210
I26
sS'hell'
p211
I25
sS'still'
p212
I20
sS'its'
p213
I22
sS'before'
p214
I26
sS'perfect'
p215
I26
sS'group'
p216
I26
sS"he's"
p217
I23
sS'fix'
p218
I26
sS'buns'
p219
I26
sS'him'
p220
I21
sS'better'
p221
I21
sS"lynch's"
p222
I26
sS'window'
p223
I25
sS'tweets'
p224
I26
sS'mail'
p225
I26
sS'weeks'
p226
I25
sS'easier'
p227
I26
sS"haven't"
p228
I26
sS'happened'
p229
I26
sS'dad'
p230
I26
sS'then'
p231
I25
sS'them'
p232
I23
sS'good'
p233
I20
sS'twerkin'
p234
I26
sS'ya'
p235
I25
sS'versace'
p236
I23
sS'puente'
p237
I26
sS'break'
p238
I26
sS'amonos'
p239
I26
sS'\xe2\x98\xba\xef\xb8\x8f'
p240
I26
sS'party'
p241
I26
sS'not'
p242
I14
sS'now'
p243
I22
sS'ahaha'
p244
I26
sS'day'
p245
I26
sS'strive'
p246
I26
sS'bryan'
p247
I26
sS'name'
p248
I25
sS'sophomore'
p249
I26
sS'always'
p250
I21
sS'drake'
p251
I26
sS'gurl'
p252
I26
sS'each'
p253
I26
sS'alee'
p254
I26
sS'went'
p255
I26
sS'quarter'
p256
I26
sS'shaking'
p257
I26
sS'mean'
p258
I25
sS'el'
p259
I24
sS'en'
p260
I26
sS'listening'
p261
I26
sS'pirates'
p262
I26
sS'editor-in-chief'
p263
I26
sS'doing'
p264
I25
sS'fish'
p265
I26
sS'hard'
p266
I26
sS'spider'
p267
I26
sS'accidentally'
p268
I26
sS'haul'
p269
I26
sS'year'
p270
I26
sS'our'
p271
I24
sS'girl'
p272
I26
sS'calling'
p273
I26
sS'special'
p274
I25
sS'out'
p275
I23
sS'rt'
p276
I23
sS'living'
p277
I26
sS'ughhhhh'
p278
I26
sS'god'
p279
I25
sS'dehydrated'
p280
I26
sS'seriously'
p281
I25
sS'7'
p282
I26
sS'got'
p283
I21
sS'rn'
p284
I26
sS'receiving'
p285
I26
sS'cause'
p286
I25
sS'sma'
p287
I26
sS'ass'
p288
I26
sS'shut'
p289
I26
sS'working'
p290
I26
sS'turning'
p291
I26
sS"you're"
p292
I22
sS'little'
p293
I21
sS'basketball'
p294
I26
sS'both\xe2\x80\xa6'
p295
I26
sS'ask'
p296
I22
sS'philip'
p297
I26
sS'care'
p298
I26
sS'lipstick...and'
p299
I26
sS',91732\n515961367811997697,ohthatjeremy,2014-09-27'
p300
I26
sS'applications'
p301
I26
sS'starts'
p302
I26
sS'days'
p303
I24
sS'keep'
p304
I26
sS'filter'
p305
I26
sS'conversation'
p306
I26
sS'nudes...sick'
p307
I26
sS'w'
p308
I26
sS'amazingly'
p309
I26
sS'smile..&does'
p310
I26
sS'think'
p311
I24
sS'first'
p312
I23
sS'enjoy'
p313
I26
sS'already'
p314
I24
sS'dont'
p315
I26
sS'>>'
p316
I26
sS'feel'
p317
I25
sS'*'
p318
I26
sS'meet'
p319
I26
sS'coming'
p320
I26
sS'zac'
p321
I26
sS'one'
p322
I21
sS'lettuce'
p323
I26
sS'bitch'
p324
I26
sS'sober'
p325
I26
sS'ways'
p326
I26
sS'miss'
p327
I23
sS"'bout"
p328
I26
sS"doesn't"
p329
I24
sS'guess'
p330
I23
sS'"'
p331
I24
sS'tok'
p332
I26
sS'least'
p333
I26
sS'their'
p334
I26
sS'wonderful'
p335
I26
sS'dumbass'
p336
I26
sS'tom'
p337
I26
sS'racist'
p338
I26
sS'las'
p339
I26
sS'dogs'
p340
I25
sS'friend'
p341
I25
sS'gives'
p342
I26
sS'hug'
p343
I26
sS'lot'
p344
I25
sS'that'
p345
I13
sS'hotel'
p346
I26
sS'ridiculous'
p347
I26
sS'cereal'
p348
I26
sS'butt'
p349
I26
sS'flowers'
p350
I26
sS'than'
p351
I25
sS'titans'
p352
I26
sS'distance'
p353
I26
sS'anxiety'
p354
I26
sS'gotta'
p355
I20
sS'flame'
p356
I26
sS'were'
p357
I26
sS'dang'
p358
I26
sS'feeling'
p359
I25
sS'spurs'
p360
I26
sS'anyways'
p361
I26
sS'and'
p362
I8
sS'motivation'
p363
I26
sS'false'
p364
I26
sS'esta'
p365
I26
sS'wasnt'
p366
I26
sS'pro'
p367
I26
sS'lmaooooo'
p368
I26
sS'notebook'
p369
I26
sS'tonight'
p370
I24
sS'talking'
p371
I26
sS'say'
p372
I23
sS'have'
p373
I19
sS'need'
p374
I20
sS'seem'
p375
I26
sS'saw'
p376
I26
sS'backseat'
p377
I26
sS'sat'
p378
I26
sS'sh*t'
p379
I26
sS'dancing'
p380
I26
sS'responsible'
p381
I26
sS'omfg'
p382
I26
sS'take'
p383
I25
sS'chibi'
p384
I26
sS'truck'
p385
I26
sS'play'
p386
I26
sS'2am'
p387
I26
sS'clash'
p388
I26
sS'though'
p389
I25
sS'aww'
p390
I26
sS'knew'
p391
I26
sS'dial'
p392
I26
sS'insanity'
p393
I26
sS"where's"
p394
I26
sS'intentions'
p395
I26
sS'72'
p396
I26
sS'cracking'
p397
I26
sS'nothing'
p398
I26
sS'accepting'
p399
I26
sS'awe'
p400
I25
sS'extremely'
p401
I26
sS'class'
p402
I24
sS'forever'
p403
I26
sS'camp'
p404
I26
sS'upset'
p405
I25
sS"20:29:10.0,34.046087,-118.0213396,4340.03,i'll"
p406
I26
sS'mrs'
p407
I26
sS'24/7'
p408
I26
sS'aunt'
p409
I26
sS'se'
p410
I26
sS'(el'
p411
I25
sS'uncle'
p412
I26
sS'salt'
p413
I26
sS'saying'
p414
I26
sS'bomb'
p415
I24
sS'x100'
p416
I26
sS'queen'
p417
I26
sS'brother'
p418
I26
sS'chicken'
p419
I26
sS'nevada'
p420
I26
sS'fine'
p421
I26
sS'find'
p422
I25
sS'peck'
p423
I26
sS'('
p424
I22
sS'should'
p425
I25
sS'only'
p426
I23
sS'going'
p427
I24
sS'pretty'
p428
I26
sS'watching'
p429
I25
sS'hope'
p430
I26
sS'do'
p431
I19
sS'his'
p432
I24
sS'handle'
p433
I26
sS'get'
p434
I14
sS"'i"
p435
I26
sS'de'
p436
I26
sS'watch'
p437
I26
sS'congratulations'
p438
I26
sS'feels'
p439
I26
sS'ones'
p440
I25
sS'perfection'
p441
I26
sS'gee'
p442
I26
sS'nasty'
p443
I26
sS'gen'
p444
I25
sS'bar'
p445
I26
sS'morning'
p446
I26
sS'jokes'
p447
I26
sS'bad'
p448
I26
sS'bae'
p449
I26
sS'she'
p450
I23
sS'fixed'
p451
I26
sS'where'
p452
I23
sS'yasss'
p453
I26
sS'"hot'
p454
I26
sS'toe'
p455
I26
sS'btw'
p456
I26
sS'frame'
p457
I26
sS'see'
p458
I17
sS'college'
p459
I26
sS'are'
p460
I19
sS'2011-2012'
p461
I26
sS'surgery'
p462
I26
sS'ruined'
p463
I26
sS'best'
p464
I21
sS'wonder'
p465
I26
sS'knees'
p466
I26
sS'said'
p467
I26
sS'has'
p468
I26
sS'lots'
p469
I26
sS'sumtimes'
p470
I26
sS'away'
p471
I26
sS'please'
p472
I24
sS'yet'
p473
I26
sS'enough'
p474
I26
sS"there's"
p475
I26
sS'burned'
p476
I26
sS'nope'
p477
I26
sS'across'
p478
I26
sS'ima'
p479
I26
sS'we'
p480
I26
sS'loose'
p481
I26
sS'keg'
p482
I26
sS'literally'
p483
I26
sS'weak'
p484
I26
sS'blame'
p485
I26
sS'wear'
p486
I26
sS'wtf'
p487
I26
sS'wth'
p488
I26
sS'cousin'
p489
I26
sS'come'
p490
I24
sS'both'
p491
I26
sS'last'
p492
I26
sS'career'
p493
I26
sS'thot'
p494
I26
sS'la'
p495
I25
sS'amazing'
p496
I26
sS'negative'
p497
I26
sS"she's"
p498
I26
sS'games'
p499
I26
sS'berry'
p500
I26
sS'quien'
p501
I26
sS"can't"
p502
I24
sS'6:30'
p503
I26
sS'drunk'
p504
I25
sS'simple'
p505
I26
sS'had'
p506
I26
sS'whatever'
p507
I25
sS'3005'
p508
I26
sS'likes'
p509
I26
sS'boys"'
p510
I26
sS'kings'
p511
I26
sS'late'
p512
I26
sS'most'
p513
I26
sS'cares'
p514
I26
sS'bikinis'
p515
I26
sS"it's"
p516
I21
sS'fri'
p517
I26
sS'ca)'
p518
I25
sS'\xe2\x98\x95'
p519
I26
sS'copies'
p520
I26
sS'been'
p521
I25
sS'telemundo'
p522
I26
sS'damn'
p523
I26
sS'yah'
p524
I25
sS'woke'
p525
I26
sS'pm'
p526
I24
sS'engine'
p527
I26
sS'ass..ewwww'
p528
I26
sS'fire'
p529
I26
sS'karinas'
p530
I26
sS'gas'
p531
I26
sS'$60'
p532
I26
sS'dave'
p533
I26
sS'understand'
p534
I26
sS'-.-'
p535
I24
sS'bonjour'
p536
I26
sS'jaiden'
p537
I26
sS'those'
p538
I26
sS'sound'
p539
I26
sS"(mcmurphy's)"
p540
I26
sS'myself'
p541
I25
sS'save'
p542
I26
sS'casa'
p543
I25
sS'crazy..who'
p544
I26
sS'these'
p545
I26
sS'straight'
p546
I25
sS'harder'
p547
I26
sS'5h'
p548
I26
sS'n'
p549
I26
sS'will'
p550
I25
sS'hahaha'
p551
I23
sS'fun'
p552
I26
sS'cock'
p553
I26
sS'fool'
p554
I26
sS'<3'
p555
I26
sS'eventually'
p556
I26
sS'is'
p557
I9
sS'purse'
p558
I26
sS'it'
p559
I11
sS'"j'
p560
I26
sS'sleeping'
p561
I26
sS'middle'
p562
I26
sS'someone'
p563
I23
sS'im'
p564
I25
sS'in'
p565
I10
sS'ready'
p566
I25
sS'if'
p567
I19
sS'funny'
p568
I25
sS'intense'
p569
I26
sS'yaaaassss'
p570
I26
sS'open'
p571
I26
sS'things'
p572
I24
sS'make'
p573
I20
sS'same'
p574
I25
sS'trip'
p575
I26
sS'shorter'
p576
I26
sS'moms'
p577
I26
sS'speech'
p578
I26
sS'sports"'
p579
I26
sS'9'
p580
I26
sS'oone'
p581
I26
sS'gets'
p582
I26
sS'chappelle'
p583
I26
sS'week'
p584
I26
sS'used'
p585
I25
sS'fiesta'
p586
I25
sS'boo'
p587
I26
sS'rain'
p588
I26
sS'blockers'
p589
I26
sS'moment'
p590
I26
sS'do.,91732\n514920310848495616,ohthatjeremy,2014-09-24'
p591
I26
sS'ca.\xe2\x80\xa6'
p592
I26
sS'off'
p593
I25
sS'i'
p594
I1
sS'stephanie'
p595
I26
sS'well'
p596
I23
sS'tarzan'
p597
I25
sS'thought'
p598
I25
sS'person'
p599
I26
sS'without'
p600
I26
sS'coke?fine'
p601
I26
sS'comes'
p602
I25
sS'pandora'
p603
I26
sS'mother'
p604
I26
sS'very'
p605
I26
sS'the'
p606
I7
sS'latest'
p607
I25
sS'franklin'
p608
I26
sS'they'
p609
I26
sS'just'
p610
I16
sS'camel'
p611
I26
sS'being'
p612
I24
sS'money'
p613
I25
sS'thanks'
p614
I26
sS'using'
p615
I26
sS'love'
p616
I16
sS'yes'
p617
I23
sS'prince'
p618
I26
sS'letting'
p619
I26
sS'boot'
p620
I26
sS'ganna'
p621
I26
sS'color'
p622
I26
sS'shout'
p623
I26
sS'belongs'
p624
I26
sS'chugged'
p625
I26
sS'4'
p626
I25
sS'bread'
p627
I26
sS'excited'
p628
I25
sS'defiantly'
p629
I26
sS'real'
p630
I21
sS'around'
p631
I26
sS'big'
p632
I26
sS"who's"
p633
I25
sS'gonna'
p634
I26
sS'early'
p635
I25
sS'game'
p636
I25
sS'know'
p637
I22
sS'mom'
p638
I22
sS'world'
p639
I26
sS'guys\xe2\x9d\xa4\xef\xb8\x8f'
p640
I26
sS'sad....she'
p641
I26
sS'like'
p642
I15
sS':di'
p643
I26
sS'nude'
p644
I26
sS'buddies'
p645
I26
sS'darn'
p646
I26
sS'true'
p647
I26
sS'laughing'
p648
I26
sS'night'
p649
I25
sS'page'
p650
I26
sS'right'
p651
I24
sS'old'
p652
I25
sS'often'
p653
I26
sS'people'
p654
I23
sS'fucking'
p655
I26
sS'"hug"'
p656
I26
sS'twitter'
p657
I25
sS'some'
p658
I23
sS'back'
p659
I23
sS'alive'
p660
I26
sS'home'
p661
I23
sS'birth'
p662
I26
sS'tripped'
p663
I26
sS'photo,91732\n514916555251920898,ohthatjeremy,2014-09-24'
p664
I26
sS'for'
p665
I14
sS'steaming'
p666
I26
sS'catfish'
p667
I26
sS'5:15'
p668
I26
sS'everything'
p669
I25
sS'does'
p670
I24
sS'himself.....but'
p671
I26
sS'be'
p672
I23
sS'-luke'
p673
I26
sS'deleted'
p674
I26
sS'martin'
p675
I26
sS'found'
p676
I26
sS'sandwiches'
p677
I26
sS'post'
p678
I26
sS'super'
p679
I26
sS'by'
p680
I26
sS'*if'
p681
I26
sS'on'
p682
I20
sS'about'
p683
I19
sS'lifestyle'
p684
I26
sS'certificate'
p685
I26
sS'8pm'
p686
I26
sS'oh'
p687
I25
sS'attacks'
p688
I26
sS'of'
p689
I14
sS'valentines'
p690
I26
sS'legendary'
p691
I26
sS'anima'
p692
I26
sS'dinner'
p693
I26
sS'neighbor'
p694
I26
sS'act'
p695
I26
sS'luck'
p696
I25
sS'wanna'
p697
I22
sS'or'
p698
I26
sS'road'
p699
I26
sS'letter'
p700
I26
sS'formerly'
p701
I26
sS'dude'
p702
I26
sS'selfie'
p703
I25
sS'soo'
p704
I26
sS'getting'
p705
I26
sS'down'
p706
I26
sS'because'
p707
I26
sS'forget'
p708
I26
sS'your'
p709
I22
sS"torress's"
p710
I26
sS'fast'
p711
I26
sS'her'
p712
I19
sS'anymore'
p713
I26
sS'spending'
p714
I26
sS'weekend'
p715
I26
sS'there'
p716
I25
sS'hey'
p717
I23
sS'lol'
p718
I22
sS'why'
p719
I22
sS'sends'
p720
I26
sS'addicting'
p721
I26
sS'9.9'
p722
I26
sS'way'
p723
I23
sS'bruh'
p724
I25
sS'jane'
p725
I26
sS'valley'
p726
I26
sS'was'
p727
I20
sS'tthis'
p728
I26
sS'happy'
p729
I21
sS'leon'
p730
I26
sS'buy'
p731
I26
sS'north'
p732
I26
sS'complete'
p733
I26
sS'believe'
p734
I26
sS'bitches'
p735
I26
sS'but'
p736
I21
sS'hear'
p737
I25
sS'kegs'
p738
I26
sS'trying'
p739
I26
sS'with'
p740
I16
sS'eat'
p741
I26
sS'he'
p742
I23
sS"they're"
p743
I26
sS'throw'
p744
I26
sS'made'
p745
I25
sS'durfee'
p746
I26
sS'j'
p747
I26
sS'up'
p748
I17
sS'ur'
p749
I25
sS'planet'
p750
I26
sS'uh'
p751
I26
sS'submitting'
p752
I26
sS'cake'
p753
I26
sS'problem'
p754
I26
sS'wicked'
p755
I26
sS'minutes'
p756
I26
sS'11pm'
p757
I26
sS'pimples'
p758
I26
sS'request'
p759
I26
sS'efron'
p760
I26
sS'am'
p761
I23
sS'life'
p762
I26
sS'an'
p763
I25
sS'as'
p764
I24
sS'exist'
p765
I26
sS'at'
p766
I17
sS'walks'
p767
I26
sS'awhile'
p768
I26
sS'frys'
p769
I24
sS'check'
p770
I26
sS'shit'
p771
I22
sS'23:32:23.0,34.0461276,-118.0211826,4340.03,now'
p772
I26
sS'again'
p773
I25
sS'compared'
p774
I26
sS'no'
p775
I16
sS'nah'
p776
I26
sS'when'
p777
I18
sS'elotero'
p778
I26
sS'til'
p779
I26
sS'excuses'
p780
I26
sS'falsely'
p781
I26
sS'5'
p782
I26
sS'normal'
p783
I26
sS'you'
p784
I4
sS'really'
p785
I25
sS'smell'
p786
I26
sS'10'
p787
I26
sS'picture'
p788
I25
sS'noche'
p789
I26
sS'obsessed'
p790
I26
sS'gross'
p791
I26
sS'football'
p792
I26
sS'people......i'
p793
I26
sS"let's"
p794
I26
sS'modelo'
p795
I26
sS'kinda'
p796
I24
sS'serious'
p797
I26
sS'friends'
p798
I23
sS'needed'
p799
I26
sS'ealiest'
p800
I26
sS'ago'
p801
I26
sS'um'
p802
I26
sS'younger'
p803
I26
sS'calls'
p804
I25
sS'excuse'
p805
I26
sS'u'
p806
I24
sS'time'
p807
I21
sS"ain't"
p808
I25
sS'having'
p809
I25
sS'once'
p810
I26
s.