(dp0
S''
p1
I1
sS'represent'
p2
I21
sS'all'
p3
I19
sS'gs'
p4
I21
sS'vampires'
p5
I21
sS'af\xe2\x80\x9d'
p6
I21
sS'gf'
p7
I21
sS'skate'
p8
I21
sS'sleep'
p9
I21
sS'go'
p10
I18
sS'barbecue'
p11
I21
sS'hate'
p12
I21
sS'suuu'
p13
I20
sS'tweet'
p14
I21
sS'flash'
p15
I21
sS'to'
p16
I4
sS'finally'
p17
I21
sS'program'
p18
I21
sS'bruhh'
p19
I21
sS'those'
p20
I21
sS'enjoying'
p21
I21
sS'pay'
p22
I21
sS'garden'
p23
I21
sS'sitting'
p24
I21
sS'far'
p25
I21
sS'blanket'
p26
I21
sS'continues'
p27
I20
sS'homes'
p28
I21
sS'every'
p29
I21
sS"hangin'"
p30
I21
sS'screaming'
p31
I21
sS'wantttt'
p32
I21
sS'treating'
p33
I21
sS'did'
p34
I20
sS'die'
p35
I21
sS'turnt'
p36
I21
sS'try'
p37
I21
sS'alex_cooki2'
p38
I21
sS'gut'
p39
I21
sS'small'
p40
I21
sS'guy'
p41
I21
sS"i'll"
p42
I21
sS'work'
p43
I20
sS'instagram'
p44
I21
sS'tired'
p45
I20
sS'vina)'
p46
I21
sS'trails'
p47
I21
sS'streets'
p48
I21
sS'mansion'
p49
I21
sS'street'
p50
I21
sS'\xee\x90\x99'
p51
I21
sS'ummm'
p52
I21
sS'makers'
p53
I21
sS'drinks'
p54
I21
sS'idc'
p55
I21
sS'what'
p56
I18
sS'hide'
p57
I21
sS'cooking'
p58
I21
sS'crush'
p59
I21
sS'tho\xe2\x80\x9d'
p60
I21
sS'abt'
p61
I21
sS'new'
p62
I20
sS'ever'
p63
I21
sS'spider-man'
p64
I21
sS'body'
p65
I21
sS'full'
p66
I20
sS'never'
p67
I21
sS'punch'
p68
I21
sS'here'
p69
I21
sS'eminem'
p70
I21
sS'hours'
p71
I21
sS'\xe2\x9d\xa4\xef\xb8\x8f'
p72
I20
sS'100'
p73
I21
sS'loma'
p74
I8
sS'great'
p75
I21
sS'alta'
p76
I8
sS'staters'
p77
I21
sS'smoke'
p78
I21
sS"i'm"
p79
I10
sS'changes'
p80
I21
sS'thats'
p81
I21
sS'lmfaoooo'
p82
I21
sS'love'
p83
I17
sS'family'
p84
I21
sS'extra'
p85
I21
sS'munchkin'
p86
I21
sS'bro'
p87
I20
sS'insta'
p88
I21
sS'fake'
p89
I21
sS'singing'
p90
I21
sS'market'
p91
I20
sS'baby'
p92
I21
sS'from'
p93
I19
sS'working'
p94
I21
sS'&'
p95
I15
sS'dude'
p96
I21
sS'next'
p97
I21
sS'cali'
p98
I21
sS'live'
p99
I20
sS'oday'
p100
I21
sS'music'
p101
I19
sS'thru'
p102
I21
sS'tell'
p103
I21
sS'today'
p104
I20
sS'more'
p105
I21
sS'pude'
p106
I21
sS'tryna'
p107
I21
sS'on'
p108
I11
sS'club'
p109
I21
sS'haha'
p110
I21
sS'trail'
p111
I18
sS'goods'
p112
I21
sS"ain't"
p113
I20
sS'\xe2\x9d\xa4\xef\xb8\x8f\xe2\x9d\xa4\xef\xb8\x8f'
p114
I21
sS'4am'
p115
I21
sS'hole'
p116
I21
sS'glad'
p117
I21
sS'me'
p118
I12
sS'hour'
p119
I21
sS'this'
p120
I7
sS'car'
p121
I20
sS'clients'
p122
I21
sS"quinn's"
p123
I21
sS'cuddle'
p124
I21
sS'following'
p125
I21
sS'making'
p126
I21
sS'(upper)'
p127
I21
sS'my'
p128
I5
sS'beautiful'
p129
I20
sS'heart'
p130
I21
sS'crazy'
p131
I21
sS'nursing'
p132
I21
sS'awesome'
p133
I20
sS"didn't"
p134
I20
sS'fuck'
p135
I13
sS'heard'
p136
I21
sS'(col'
p137
I20
sS'something'
p138
I21
sS'want'
p139
I21
sS'wow'
p140
I21
sS'pong'
p141
I21
sS'xo.arlene_'
p142
I21
sS'native'
p143
I21
sS'pink'
p144
I21
sS'court'
p145
I21
sS'lame'
p146
I21
sS'six'
p147
I21
sS'till'
p148
I21
sS'ordinary'
p149
I21
sS'listens'
p150
I21
sS'okay'
p151
I21
sS'cocktail'
p152
I21
sS'bday'
p153
I21
sS'diagram'
p154
I21
sS'birthday'
p155
I14
sS'lay'
p156
I21
sS'numb'
p157
I21
sS'taco'
p158
I21
sS'guys'
p159
I20
sS'man'
p160
I21
sS'a'
p161
I7
sS'horchata'
p162
I21
sS'fathers'
p163
I21
sS'lines'
p164
I21
sS'think'
p165
I19
sS'perform'
p166
I21
sS'chief'
p167
I21
sS'so'
p168
I16
sS':-)))'
p169
I21
sS'lmfaooooo'
p170
I21
sS'jajajaj'
p171
I21
sS'multiples'
p172
I21
sS'playing'
p173
I19
sS'up\xe2\x80\x9d'
p174
I21
sS'cute'
p175
I21
sS"don't"
p176
I18
sS'over'
p177
I20
sS'fam'
p178
I21
sS'"system"'
p179
I21
sS'years'
p180
I20
sS'through'
p181
I21
sS'looks'
p182
I21
sS'still'
p183
I20
sS'its'
p184
I21
sS'before'
p185
I21
sS'style'
p186
I21
sS'le'
p187
I20
sS'thank'
p188
I21
sS'fit'
p189
I21
sS'la'
p190
I21
sS'ships'
p191
I21
sS'abbey'
p192
I21
sS'better'
p193
I20
sS'penn'
p194
I21
sS'bye'
p195
I21
sS'(altadena'
p196
I21
sS'happened'
p197
I21
sS'then'
p198
I21
sS'good'
p199
I19
sS'combination'
p200
I21
sS'views'
p201
I21
sS'food'
p202
I21
sS'insomnia'
p203
I21
sS'lunch'
p204
I21
sS'they'
p205
I17
sS'hands'
p206
I21
sS'now'
p207
I21
sS'day'
p208
I19
sS'nioman'
p209
I21
sS'billy'
p210
I21
sS'found'
p211
I20
sS'friendship'
p212
I21
sS"isn't"
p213
I21
sS'em'
p214
I21
sS'el'
p215
I21
sS'everyone'
p216
I21
sS'lowkey'
p217
I21
sS'house'
p218
I19
sS'yeah'
p219
I18
sS'our'
p220
I20
sS'girl'
p221
I20
sS'hart'
p222
I21
sS'event'
p223
I21
sS'witness'
p224
I21
sS'really'
p225
I18
sS'rt'
p226
I21
sS'missed'
p227
I21
sS'nunca'
p228
I21
sS'human-space'
p229
I21
sS'fpebrian28'
p230
I15
sS'&\xe2\x80\xa6'
p231
I21
sS'stupid'
p232
I21
sS'hill'
p233
I21
sS'smh'
p234
I21
sS'got'
p235
I20
sS'nudes'
p236
I21
sS'ass'
p237
I19
sS'shut'
p238
I21
sS'monster'
p239
I21
sS'dirt'
p240
I21
sS'friday'
p241
I17
sS'completely'
p242
I21
sS'rly'
p243
I21
sS'mma'
p244
I21
sS'soundcloud'
p245
I21
sS'recovering'
p246
I21
sS'david'
p247
I21
sS'american'
p248
I21
sS'4th'
p249
I21
sS'place'
p250
I21
sS'w'
p251
I21
sS'hunger'
p252
I21
sS'(at'
p253
I20
sS'childhood'
p254
I21
sS'first'
p255
I21
sS'already'
p256
I20
sS'one'
p257
I20
sS'whoop'
p258
I21
sS'done'
p259
I21
sS'bitch'
p260
I21
sS'spanish'
p261
I21
sS'kidding'
p262
I21
sS'miss'
p263
I21
sS"you're"
p264
I21
sS'long'
p265
I21
sS'start'
p266
I21
sS'anyone'
p267
I21
sS'their'
p268
I20
sS'2'
p269
I21
sS'too'
p270
I15
sS'legs'
p271
I21
sS'exploring'
p272
I21
sS'selling'
p273
I21
sS'lot'
p274
I21
sS'relationship'
p275
I21
sS'that'
p276
I15
sS'gym'
p277
I21
sS'exactly'
p278
I21
sS'park'
p279
I11
sS'than'
p280
I20
sS'king'
p281
I21
sS'lmao'
p282
I20
sS'showed'
p283
I21
sS'fufu'
p284
I21
sS'hike'
p285
I21
sS'bed'
p286
I21
sS'you\xe2\x80\xa6'
p287
I21
sS'r'
p288
I20
sS'speakin'
p289
I21
sS'csula!!!!!!!!!!!!!!!!!!!!!!!!!!!!!!!!!!!!!!!!\xe2\x80\x9d'
p290
I21
sS'loves'
p291
I21
sS'spoiled'
p292
I21
sS'companionable'
p293
I21
sS'and'
p294
I7
sS'ranch'
p295
I19
sS'~~'
p296
I21
sS'well'
p297
I21
sS'turned'
p298
I21
sS'mine'
p299
I20
sS'sad'
p300
I20
sS'13th'
p301
I21
sS'say'
p302
I21
sS'infront'
p303
I21
sS'have'
p304
I18
sS'cleaned'
p305
I21
sS'need'
p306
I20
sS'seen'
p307
I20
sS'yeet'
p308
I21
sS'kevin'
p309
I21
sS'snorting'
p310
I21
sS'congrats'
p311
I21
sS'1964'
p312
I21
sS'studying'
p313
I21
sS'shorts'
p314
I21
sS'-'
p315
I21
sS'elysse'
p316
I19
sS'note'
p317
I21
sS'which'
p318
I21
sS'panties'
p319
I21
sS'blunt'
p320
I21
sS'play'
p321
I20
sS'pain'
p322
I21
sS'huh'
p323
I21
sS'who'
p324
I21
sS'most'
p325
I21
sS'bsn'
p326
I21
sS'why'
p327
I15
sS'mo-fo'
p328
I21
sS'forever'
p329
I21
sS'altadena'
p330
I19
sS'hungry'
p331
I21
sS'yang'
p332
I21
sS'park)'
p333
I18
sS'nightmare'
p334
I21
sS'joining'
p335
I21
sS'saying'
p336
I21
sS'walking'
p337
I21
sS'golf'
p338
I21
sS'show'
p339
I19
sS'lmaoo'
p340
I21
sS'perce'
p341
I21
sS'nominated'
p342
I21
sS'pops'
p343
I20
sS'trailhead'
p344
I21
sS'earned'
p345
I21
sS'deck'
p346
I21
sS'3'
p347
I21
sS'should'
p348
I20
sS'rihanna'
p349
I19
sS'going'
p350
I18
sS'nez'
p351
I21
sS'watching'
p352
I21
sS'hope'
p353
I21
sS'do'
p354
I20
sS'tricia'
p355
I21
sS'workin'
p356
I21
sS'get'
p357
I18
sS'beat'
p358
I21
sS'jazz'
p359
I21
sS'watch'
p360
I21
sS'da'
p361
I21
sS'courage'
p362
I21
sS'rapper'
p363
I21
sS'morning'
p364
I20
sS'nupes'
p365
I21
sS'garcia'
p366
I21
sS'bad'
p367
I21
sS'miles'
p368
I21
sS'she'
p369
I21
sS'nominate'
p370
I21
sS'x'
p371
I21
sS'where'
p372
I20
sS'ears'
p373
I21
sS"y'all"
p374
I21
sS'maurice'
p375
I21
sS'w/'
p376
I21
sS'mom'
p377
I21
sS'up'
p378
I17
sS'see'
p379
I21
sS'are'
p380
I18
sS'best'
p381
I20
sS'wonder'
p382
I21
sS'farmers'
p383
I20
sS'review'
p384
I21
sS'enough'
p385
I21
sS'future'
p386
I21
sS'finger'
p387
I21
sS'zorthian'
p388
I19
sS'across'
p389
I21
sS'supposed'
p390
I21
sS'we'
p391
I21
sS'omg'
p392
I21
sS'hosting'
p393
I21
sS'were'
p394
I21
sS'jr'
p395
I21
sS'cut'
p396
I21
sS'botes'
p397
I21
sS'wtf'
p398
I20
sS'cousin'
p399
I21
sS'come'
p400
I20
sS'jon'
p401
I21
sS'last'
p402
I20
sS'joke'
p403
I21
sS'taking'
p404
I21
sS'alos'
p405
I21
sS'games'
p406
I19
sS'expression'
p407
I21
sS'asked'
p408
I21
sS"can't"
p409
I21
sS'previewing'
p410
I21
sS'community'
p411
I21
sS'walk'
p412
I21
sS'canyon'
p413
I17
sS'oakland'
p414
I21
sS'yay'
p415
I20
sS"it's"
p416
I19
sS'millard'
p417
I18
sS'three'
p418
I21
sS'been'
p419
I19
sS'mark'
p420
I21
sS'beer'
p421
I21
sS'much'
p422
I21
sS'damn'
p423
I20
sS'life'
p424
I21
sS'aubrey'
p425
I21
sS'boy'
p426
I21
sS"what's"
p427
I21
sS'buckle.\xe2\x80\xa6'
p428
I21
sS'sleeves'
p429
I21
sS'smoking'
p430
I21
sS'lacihill3'
p431
I21
sS'tonight'
p432
I20
sS'look'
p433
I19
sS'these'
p434
I20
sS'n'
p435
I21
sS'will'
p436
I18
sS'while'
p437
I20
sS'kick'
p438
I21
sS'favorite...popcorn'
p439
I21
sS'fun'
p440
I21
sS'~'
p441
I21
sS'ringing'
p442
I21
sS'played'
p443
I21
sS'almost'
p444
I21
sS'is'
p445
I8
sS'downton'
p446
I21
sS'it'
p447
I16
sS'frat'
p448
I21
sS'someone'
p449
I21
sS'im'
p450
I21
sS'in'
p451
I16
sS'if'
p452
I21
sS"course's\xe2\x80\xa6"
p453
I21
sS'things'
p454
I21
sS'make'
p455
I21
sS'belong'
p456
I21
sS'same'
p457
I21
sS'shorter'
p458
I21
sS'ya'
p459
I20
sS'party'
p460
I20
sS'week'
p461
I20
sS'finish'
p462
I21
sS'slave'
p463
I21
sS'screenshot'
p464
I21
sS'yesterday'
p465
I21
sS'serenading'
p466
I21
sS'companion'
p467
I21
sS'running'
p468
I20
sS'totally'
p469
I21
sS'weird'
p470
I21
sS'off'
p471
I20
sS'mention'
p472
I21
sS'i'
p473
I2
sS'jirayr'
p474
I20
sS'itself'
p475
I21
sS'kyle'
p476
I21
sS'nothin'
p477
I21
sS'tho'
p478
I21
sS'edge'
p479
I21
sS'flags'
p480
I21
sS'y'
p481
I21
sS'the'
p482
I3
sS'musical'
p483
I21
sS'left'
p484
I21
sS'dar'
p485
I21
sS'just'
p486
I13
sS'whoop\xe2\x80\x9d'
p487
I21
sS'thanks'
p488
I19
sS'beat\xe2\x80\xa6'
p489
I21
sS'followed'
p490
I21
sS'happiness'
p491
I20
sS'death'
p492
I21
sS'cancer'
p493
I21
sS"bella's"
p494
I21
sS'prieto'
p495
I21
sS'drew'
p496
I21
sS'spread'
p497
I21
sS'parents'
p498
I21
sS'4'
p499
I21
sS'easy'
p500
I21
sS'wet'
p501
I21
sS'has'
p502
I21
sS'easter'
p503
I21
sS'excited'
p504
I21
sS'homework'
p505
I21
sS'around'
p506
I21
sS'mayb'
p507
I21
sS"who's"
p508
I21
sS'possible'
p509
I21
sS'gonna'
p510
I21
sS'[15448]'
p511
I21
sS'five'
p512
I21
sS'dudes'
p513
I21
sS'listening'
p514
I21
sS'judge'
p515
I21
sS'accepted'
p516
I21
sS'fools'
p517
I21
sS'stuff'
p518
I21
sS'like'
p519
I18
sS'gift'
p520
I21
sS'='
p521
I21
sS'still....29'
p522
I21
sS'candy'
p523
I21
sS'5hrs'
p524
I21
sS'night'
p525
I19
sS'nigga'
p526
I20
sS'old'
p527
I21
sS'passers'
p528
I21
sS'scared'
p529
I21
sS'some'
p530
I18
sS'back'
p531
I21
sS'bounce'
p532
I21
sS'home'
p533
I21
sS'supernaked'
p534
I21
sS'finna'
p535
I21
sS'for'
p536
I14
sS'moon'
p537
I21
sS'185)'
p538
I21
sS'though!\xe2\x80\x9d'
p539
I21
sS'420'
p540
I21
sS'porter'
p541
I21
sS'be'
p542
I18
sS'noise'
p543
I21
sS'pls'
p544
I21
sS'bellys'
p545
I21
sS'lmfao'
p546
I20
sS'corn'
p547
I21
sS'solitude.henry'
p548
I21
sS'raider'
p549
I21
sS'super'
p550
I21
sS'by'
p551
I21
sS'stage'
p552
I21
sS'faith'
p553
I20
sS':-)'
p554
I21
sS'anything'
p555
I21
sS'oh'
p556
I18
sS'h.)'
p557
I20
sS'of'
p558
I12
sS'favorite'
p559
I20
sS'stoked'
p560
I20
sS'sry'
p561
I21
sS'wanna'
p562
I20
sS'marshal'
p563
I21
sS'seeing'
p564
I21
sS'aha'
p565
I21
sS'into'
p566
I20
sS'down'
p567
I21
sS'cookies..beautiful'
p568
I21
sS'your'
p569
I19
sS'2k14'
p570
I21
sS'ridge'
p571
I17
sS'her'
p572
I19
sS'chargers'
p573
I21
sS'there'
p574
I20
sS'ca)'
p575
I21
sS'lol'
p576
I18
sS'fight'
p577
I21
sS'gig'
p578
I21
sS'stuck'
p579
I21
sS'joseph'
p580
I21
sS'homemade'
p581
I21
sS'bruh'
p582
I21
sS'was'
p583
I9
sS'twitter'
p584
I21
sS'happy'
p585
I17
sS'jones'
p586
I21
sS'head'
p587
I21
sS"i've"
p588
I20
sS'lovitz'
p589
I21
sS'bitches'
p590
I20
sS'but'
p591
I19
sS'hear'
p592
I21
sS'episode'
p593
I21
sS'with'
p594
I13
sS'eat'
p595
I21
sS'buying'
p596
I21
sS'he'
p597
I18
sS'.i'
p598
I21
sS'sending'
p599
I21
sS'made'
p600
I20
sS'hikers'
p601
I21
sS'scottg1178'
p602
I21
sS'us'
p603
I19
sS'subtweets'
p604
I21
sS'emit'
p605
I21
sS'kyerra'
p606
I21
sS'am'
p607
I20
sS'deep'
p608
I21
sS'as'
p609
I18
sS'at'
p610
I10
sS'ship'
p611
I21
sS'43rd'
p612
I21
sS'shit'
p613
I20
sS'cotton'
p614
I21
sS'relatio'
p615
I21
sS'know'
p616
I21
sS'no'
p617
I20
sS'when'
p618
I20
sS'started'
p619
I21
sS'pasadena'
p620
I21
sS'sunrise'
p621
I21
sS'holding'
p622
I21
sS'sunset'
p623
I16
sS'you'
p624
I6
sS'out'
p625
I19
sS'ward"'
p626
I21
sS'class'
p627
I21
sS'thoreau'
p628
I21
sS'kinda'
p629
I21
sS'dunked'
p630
I20
sS'song'
p631
I20
sS'friends'
p632
I20
sS'ago'
p633
I21
sS'glass'
p634
I21
sS'baked'
p635
I21
sS'suit'
p636
I21
sS'rule'
p637
I21
sS'hungryyyyyyyyu'
p638
I21
sS'repay'
p639
I21
sS'time'
p640
I20
sS"she's"
p641
I20
sS'"the'
p642
I21
sS'starting'
p643
I21
sS'lanbui'
p644
I21
s.