(dp0
S''
p1
I1
sS'raining'
p2
I29
sS'all'
p3
I21
sS':('
p4
I28
sS':)'
p5
I26
sS'month'
p6
I29
sS'laura'
p7
I29
sS'\xe2\x9d\xa4\xef\xb8\x8f\xe2\x9d\xa4\xef\xb8\x8f'
p8
I29
sS'mile'
p9
I28
sS'\xd0\xbf\xd0\xbe\xd0\xbd\xd1\x8f\xd1\x82\xd0\xbd\xd0\xbe'
p10
I28
sS'\xd1\x81\xd1\x82\xd0\xb8\xd0\xba\xd0\xb5\xd1\x80\xd1\x8b'
p11
I29
sS'hanging'
p12
I28
sS'go'
p13
I20
sS'managed'
p14
I29
sS'psycho'
p15
I29
sS'chillin'
p16
I29
sS'children'
p17
I29
sS'payoff'
p18
I29
sS'tv'
p19
I29
sS'seriously'
p20
I29
sS'\xd0\x9a\xd1\x80\xd1\x83\xd1\x82\xd0\xbe'
p21
I29
sS'to'
p22
I8
sS'finally'
p23
I28
sS'\xd0\xbd\xd0\xb5\xd0\xbb\xd1\x8c\xd0\xb7\xd1\x8f'
p24
I29
sS'present'
p25
I29
sS'tf'
p26
I29
sS'lord'
p27
I29
sS'sorry'
p28
I28
sS'sent'
p29
I29
sS'7'
p30
I29
sS'far'
p31
I29
sS'vegan'
p32
I29
sS'sloppy'
p33
I29
sS'selfies'
p34
I29
sS'you...is'
p35
I29
sS'gloomy'
p36
I29
sS'every'
p37
I28
sS'mps'
p38
I29
sS'bestie'
p39
I29
sS'fall'
p40
I28
sS'telling'
p41
I28
sS'trouble'
p42
I29
sS'monkeys'
p43
I29
sS'cool'
p44
I28
sS'tickets'
p45
I28
sS'steve'
p46
I29
sS'school'
p47
I25
sS'anotha'
p48
I28
sS'clouds'
p49
I29
sS'did'
p50
I27
sS'gettin'
p51
I29
sS'brother'
p52
I29
sS'bridezillas'
p53
I29
sS'team'
p54
I29
sS'movie'
p55
I29
sS'rach'
p56
I29
sS'\xd0\xbc\xd0\xbe\xd0\xbc\xd0\xb5\xd0\xbd\xd1\x82'
p57
I29
sS'\xd0\xb5\xd1\x81\xd1\x82\xd1\x8c'
p58
I29
sS'work'
p59
I26
sS'tired'
p60
I28
sS'awake'
p61
I29
sS'\xd1\x82\xd1\x8b'
p62
I29
sS'\xd0\xa2\xd0\xb5\xd0\xbf\xd0\xb5\xd1\x80\xd1\x8c'
p63
I29
sS'sign'
p64
I29
sS'cameron'
p65
I28
sS'10x'
p66
I29
sS'\xd0\xbd\xd0\xb5'
p67
I27
sS'sheeran'
p68
I29
sS'cactus'
p69
I29
sS'\xd0\xbd\xd0\xbe'
p70
I29
sS'even'
p71
I28
sS'what'
p72
I22
sS'christ'
p73
I29
sS'\xd0\xbf\xd0\xb5\xd1\x81\xd0\xbd\xd1\x8f'
p74
I29
sS'movies'
p75
I29
sS'hate'
p76
I28
sS'+'
p77
I28
sS'probs'
p78
I29
sS'crush'
p79
I28
sS'internship'
p80
I29
sS'printing'
p81
I29
sS'\xd0\xb3\xd0\xb4\xd0\xb5'
p82
I29
sS'above'
p83
I29
sS'new'
p84
I29
sS'ever'
p85
I28
sS'3d'
p86
I29
sS'\xd0\xbf\xd1\x80\xd0\xb8\xd0\xb5\xd1\x85\xd0\xb0\xd0\xbb\xd0\xb0'
p87
I29
sS'ayyyyyy'
p88
I29
sS'cheetos'
p89
I29
sS'grandparents'
p90
I29
sS'never'
p91
I27
sS'commercial'
p92
I29
sS'\xd0\xbe\xd0\xba\xd0\xbe\xd0\xbb\xd0\xbe'
p93
I29
sS'here'
p94
I26
sS'\xd0\xb2\xd0\xb8\xd1\x81\xd0\xb8\xd1\x82'
p95
I29
sS'hours'
p96
I28
sS'\xe2\x9d\xa4\xef\xb8\x8f'
p97
I23
sS'benji'
p98
I29
sS'hills'
p99
I29
sS'wait'
p100
I25
sS'boy'
p101
I29
sS'great'
p102
I28
sS'kids'
p103
I29
sS'yessss'
p104
I29
sS'30'
p105
I29
sS'credit'
p106
I29
sS'bangs'
p107
I29
sS'offering.guess'
p108
I29
sS'froyo'
p109
I29
sS'social'
p110
I29
sS'usually'
p111
I29
sS"i'm"
p112
I2
sS"someone's"
p113
I29
sS'makes'
p114
I28
sS'holmes'
p115
I29
sS'love'
p116
I21
sS'hiking'
p117
I28
sS'\xd0\xbe\xd1\x84\xd0\xb8\xd1\x86\xd0\xb8\xd0\xb0\xd0\xbb\xd1\x8c\xd0\xbd\xd0\xbe'
p118
I29
sS'win'
p119
I29
sS'hogh'
p120
I29
sS'crazy'
p121
I29
sS'young'
p122
I29
sS'semester'
p123
I28
sS'patriots'
p124
I29
sS'suicides'
p125
I29
sS'apply'
p126
I29
sS'\xd0\xbf\xd1\x80\xd0\xb8'
p127
I29
sS'\xd0\xbc\xd0\xbe\xd0\xb8'
p128
I29
sS'yourself'
p129
I29
sS'languages'
p130
I29
sS'from'
p131
I23
sS'would'
p132
I25
sS'&'
p133
I22
sS'\xd0\xb2\xd0\xb0\xd0\xbc'
p134
I29
sS'positive'
p135
I29
sS'sends'
p136
I29
sS'24/7*'
p137
I29
sS'dude'
p138
I28
sS'aaron'
p139
I28
sS'jeersus'
p140
I29
sS'next'
p141
I28
sS'cali'
p142
I29
sS'live'
p143
I27
sS'camera'
p144
I29
sS'ayy'
p145
I29
sS'\xd1\x85\xd0\xbe\xd1\x80\xd0\xbe\xd1\x88\xd0\xbe'
p146
I29
sS'memory'
p147
I27
sS'eagles'
p148
I29
sS'until'
p149
I29
sS'today'
p150
I27
sS'more'
p151
I27
sS'gryffindor'
p152
I4
sS'faith'
p153
I29
sS'oscar'
p154
I29
sS'\xd0\xbd\xd0\xb5\xd0\xbc\xd0\xbd\xd0\xbe\xd0\xb3\xd0\xbe'
p155
I29
sS'aleahvw'
p156
I29
sS'oregon'
p157
I29
sS'sjsu'
p158
I29
sS'phone'
p159
I29
sS'small\xe2\x80\xa6'
p160
I29
sS'\xd0\xb4\xd1\x83\xd0\xbc\xd0\xb0\xd1\x8e\xd1\x82'
p161
I29
sS'arms'
p162
I29
sS'\xd0\xbb\xd0\xb8\xd1\x87\xd0\xbd\xd0\xbe'
p163
I29
sS'baby'
p164
I27
sS'flawless'
p165
I29
sS'me'
p166
I15
sS'bartender'
p167
I29
sS'selfie\xe2\x80\x9d'
p168
I29
sS'40'
p169
I29
sS'this'
p170
I19
sS'\xd1\x85\xd0\xbe\xd1\x82\xd1\x8f'
p171
I29
sS'getting'
p172
I26
sS'reviews'
p173
I28
sS'soup'
p174
I29
sS'archer'
p175
I29
sS'can'
p176
I27
sS'blooming'
p177
I29
sS'making'
p178
I28
sS'drops'
p179
I29
sS'my'
p180
I12
sS'beautiful'
p181
I29
sS'\xd0\xb2\xd0\xb5\xd1\x81\xd0\xb5\xd0\xbb\xd0\xbe'
p182
I29
sS'shark'
p183
I29
sS'stream'
p184
I29
sS'give'
p185
I29
sS'rodriguez'
p186
I29
sS'florida'
p187
I29
sS'love*guy'
p188
I29
sS'fuck'
p189
I27
sS'high'
p190
I26
sS'\xd0\xb1\xd0\xbe\xd0\xbb\xd1\x8c\xd1\x88\xd0\xb5'
p191
I29
sS'something'
p192
I28
sS'want'
p193
I28
sS'\xd0\xb6\xd0\xb5\xd1\x81\xd1\x82\xd1\x8c'
p194
I29
sS'ohhhh'
p195
I29
sS'chores'
p196
I29
sS'rays'
p197
I29
sS'winter'
p198
I29
sS'\xd0\x92\xd0\x9a\xd0\xbe\xd0\xbd\xd1\x82\xd0\xb0\xd0\xba\xd1\x82\xd0\xb5'
p199
I28
sS'turn'
p200
I28
sS'watching'
p201
I26
sS'everyday'
p202
I29
sS'1'
p203
I27
sS'how'
p204
I27
sS'amazing'
p205
I29
sS'\xe2\x9d\xa4\xef\xb8\x8f\xe2\x9d\xa4\xef\xb8\x8f\xe2\x9d\xa4\xef\xb8\x8f'
p206
I28
sS'pizza'
p207
I29
sS'pre-gaming'
p208
I29
sS'w'
p209
I29
sS"grillin'"
p210
I29
sS'after'
p211
I29
sS'soundtrack'
p212
I29
sS'wrong'
p213
I26
sS'birthday'
p214
I29
sS'adventure'
p215
I29
sS'idfc'
p216
I29
sS'such'
p217
I29
sS'suck'
p218
I29
sS'\xd0\xb2\xd1\x81\xd0\xb5\xd1\x85'
p219
I27
sS'guys'
p220
I27
sS"tp's"
p221
I29
sS'goal'
p222
I29
sS'a'
p223
I9
sS'twins'
p224
I29
sS'benny'
p225
I29
sS'volleyball'
p226
I29
sS'st'
p227
I28
sS'sj'
p228
I28
sS'-.-t'
p229
I29
sS'\xd0\xb0\xd0\xb2\xd0\xb8\xd1\x82\xd0\xbe'
p230
I29
sS'so'
p231
I15
sS'ultimate'
p232
I29
sS'fundamental'
p233
I29
sS'yeeeee'
p234
I29
sS'playing'
p235
I29
sS'talk'
p236
I29
sS"that's"
p237
I29
sS'cute'
p238
I28
sS'school)'
p239
I29
sS'six'
p240
I29
sS'sister'
p241
I29
sS"don't"
p242
I24
sS'over'
p243
I28
sS'move'
p244
I27
sS'midnight'
p245
I29
sS'\xd1\x82\xd0\xb0\xd0\xba'
p246
I27
sS'course'
p247
I29
sS'attitude'
p248
I29
sS'naughty'
p249
I29
sS'through'
p250
I29
sS'looks'
p251
I28
sS'cruise'
p252
I29
sS'hell'
p253
I29
sS'still'
p254
I27
sS'junior'
p255
I29
sS'worship'
p256
I29
sS'before'
p257
I28
sS'perfect'
p258
I26
sS'thank'
p259
I29
sS'la'
p260
I26
sS'personal'
p261
I29
sS'interesting'
p262
I29
sS'broom'
p263
I29
sS'confused/tired/surprised/everything'
p264
I29
sS'beyonce'
p265
I29
sS'hot'
p266
I29
sS'actually'
p267
I26
sS'disagree\xe2\x80\x9d'
p268
I29
sS'\xd0\xbf\xd0\xbe\xd0\xbb\xd0\xb8\xd1\x86\xd0\xb8\xd1\x8f'
p269
I29
sS'bout'
p270
I28
sS'holiday'
p271
I28
sS'selfie'
p272
I29
sS'then'
p273
I29
sS'them'
p274
I28
sS'someone'
p275
I26
sS'yo'
p276
I29
sS'ya'
p277
I27
sS'\xd1\x82\xd0\xb5\xd1\x80\xd0\xbc\xd0\xbe\xd0\xbf\xd0\xb0\xd1\x81\xd1\x82\xd1\x8b'
p278
I29
sS'break'
p279
I29
sS'lunch'
p280
I29
sS'heaven'
p281
I29
sS'wednesdays'
p282
I29
sS'\xe2\x98\xba\xef\xb8\x8f'
p283
I28
sS'\xd0\x94\xd0\xbe\xd0\xb1\xd1\x80\xd0\xbe\xd0\xb5'
p284
I29
sS'not'
p285
I25
sS'now'
p286
I28
sS'day'
p287
I25
sS"lucia's"
p288
I29
sS'\xd1\x83\xd1\x82\xd1\x80\xd0\xbe'
p289
I29
sS'\xd1\x80\xd0\xb5\xd0\xb0\xd0\xbb\xd1\x8c\xd0\xbd\xd0\xbe'
p290
I28
sS'commonroom)'
p291
I27
sS'always'
p292
I27
sS'\xd0\xb5\xd0\xb5\xd1\x91'
p293
I29
sS'://'
p294
I29
sS'good'
p295
I26
sS'man'
p296
I29
sS'acoustic'
p297
I29
sS'mean'
p298
I29
sS'em'
p299
I29
sS'signing'
p300
I29
sS'everyone'
p301
I29
sS'\xd0\x9d\xd1\x83'
p302
I29
sS'perlman'
p303
I29
sS'doing'
p304
I27
sS'ed'
p305
I29
sS'hard'
p306
I29
sS'yeah'
p307
I29
sS'hawaii'
p308
I29
sS'\xd1\x81\xd0\xba\xd0\xb0\xd0\xb7\xd0\xb0\xd0\xbb'
p309
I29
sS'finish'
p310
I29
sS'wattup'
p311
I29
sS'\xd0\xbf\xd1\x80\xd0\xbe\xd1\x81\xd1\x82\xd0\xbe'
p312
I29
sS'our'
p313
I29
sS'girl'
p314
I28
sS'\xd0\xbc\xd1\x83\xd0\xb7\xd1\x8b\xd0\xba\xd0\xb0'
p315
I29
sS'out'
p316
I22
sS'album'
p317
I29
sS'alcohol'
p318
I29
sS'driving'
p319
I29
sS'god'
p320
I22
sS'fuhkin'
p321
I29
sS'looking'
p322
I27
sS'\xd1\x83'
p323
I28
sS'stupid'
p324
I29
sS'stud'
p325
I29
sS'got'
p326
I27
sS'rn'
p327
I29
sS'nudes'
p328
I29
sS'math'
p329
I28
sS"dee's)"
p330
I29
sS'turning'
p331
I29
sS'herman'
p332
I26
sS'little'
p333
I29
sS'free'
p334
I29
sS'houses'
p335
I29
sS'reason'
p336
I29
sS'killin'
p337
I29
sS'rain'
p338
I29
sS'ask'
p339
I28
sS'\xd0\x9f\xd0\xbb\xd0\xb0\xd1\x82\xd0\xbd\xd0\xb0\xd1\x8f'
p340
I29
sS'fiat'
p341
I29
sS'district'
p342
I29
sS'g'
p343
I29
sS'teachers'
p344
I29
sS'\xd0\xbc\xd0\xb5\xd0\xbd\xd1\x8f'
p345
I29
sS'could'
p346
I29
sS'skateboard'
p347
I29
sS'days'
p348
I29
sS'david'
p349
I29
sS'\xd0\xb8\xd0\xbd\xd0\xbe\xd0\xb3\xd0\xb4\xd0\xb0'
p350
I29
sS'thing'
p351
I27
sS'american'
p352
I29
sS'\xd1\x82\xd0\xbe'
p353
I29
sS'yall'
p354
I29
sS"today's"
p355
I29
sS'\xd0\x9e\xd0\xa7\xd0\x95\xd0\x9d\xd0\xac'
p356
I29
sS'misses'
p357
I29
sS'16:7but'
p358
I29
sS'yess'
p359
I29
sS'think'
p360
I28
sS'back...my'
p361
I29
sS'first'
p362
I28
sS'feed'
p363
I29
sS'already'
p364
I27
sS'\xd0\xba\xd1\x80\xd1\x83\xd0\xb3\xd0\xbb\xd0\xbe\xd0\xb5'
p365
I29
sS'blown'
p366
I29
sS'feel'
p367
I27
sS'lovelace'
p368
I29
sS'\xd0\xb3\xd1\x80\xd1\x83\xd0\xb7\xd0\xb8\xd1\x82'
p369
I29
sS'hearing'
p370
I29
sS'set'
p371
I29
sS'done'
p372
I28
sS'bitch'
p373
I25
sS'\xd0\xa3\xd0\xb6\xd0\xb5'
p374
I29
sS'changing'
p375
I29
sS'sober'
p376
I29
sS'\xd0\x92\xd1\x81\xd1\x91'
p377
I29
sS'sounds'
p378
I28
sS'miss'
p379
I25
sS'tomorrow'
p380
I27
sS'\xd0\xbf\xd0\xbe\xd1\x81\xd0\xbb\xd0\xb5\xd0\xb4\xd0\xbd\xd0\xb8\xd0\xb5'
p381
I29
sS"you're"
p382
I28
sS'wishin'
p383
I29
sS'toy'
p384
I29
sS'silent'
p385
I29
sS'jet'
p386
I29
sS'stuck'
p387
I29
sS'festival'
p388
I29
sS'bite'
p389
I29
sS'girls'
p390
I28
sS'system'
p391
I29
sS'least'
p392
I29
sS'\xd0\x9b\xd0\xb5\xd0\xbd\xd0\xb8\xd0\xbd\xd0\xb3\xd1\x80\xd0\xb0\xd0\xb4\xd1\x81\xd0\xba\xd0\xbe\xd0\xb9'
p393
I29
sS'their'
p394
I28
sS'2'
p395
I26
sS'master'
p396
I29
sS'too'
p397
I20
sS'storm'
p398
I29
sS'tom'
p399
I29
sS'john'
p400
I28
sS'itzhak'
p401
I29
sS'\xd0\xb2\xd1\x8b'
p402
I29
sS'friend'
p403
I29
sS'gives'
p404
I29
sS'perserverance'
p405
I29
sS'moisture'
p406
I29
sS'that'
p407
I21
sS'season'
p408
I27
sS'$$'
p409
I29
sS'universe'
p410
I29
sS'huh'
p411
I29
sS'boba'
p412
I29
sS'cops'
p413
I29
sS'\xd0\xb2\xd0\xb0\xd1\x81'
p414
I29
sS'flowers'
p415
I29
sS'boyfriend'
p416
I29
sS'kind'
p417
I29
sS'15'
p418
I29
sS'seuss'
p419
I29
sS'\xd0\xbd\xd0\xb0'
p420
I29
sS'hike'
p421
I27
sS'gotta'
p422
I29
sS'tree'
p423
I29
sS'bed'
p424
I29
sS'\xd1\x81\xd1\x82\xd0\xb5\xd0\xbd\xd1\x8b'
p425
I29
sS'classes'
p426
I29
sS'werf'
p427
I29
sS'were'
p428
I29
sS'cards'
p429
I29
sS'video'
p430
I29
sS'feeling'
p431
I28
sS'and'
p432
I14
sS'angel'
p433
I29
sS'\xd0\xba\xd0\xb8\xd0\xbd\xd0\xbe'
p434
I29
sS'well'
p435
I29
sS"wouldn't"
p436
I29
sS'turned'
p437
I29
sS'spelled'
p438
I29
sS'mateo'
p439
I29
sS'tonight'
p440
I29
sS'raw'
p441
I29
sS'say'
p442
I29
sS'have'
p443
I23
sS'need'
p444
I26
sS'sacre'
p445
I29
sS'breakfast'
p446
I29
sS'marathon'
p447
I29
sS'\xd0\x94\xd0\xbe\xd0\xbd\xd0\xb5\xd1\x86\xd0\xba\xd0\xb0'
p448
I29
sS'mountain'
p449
I28
sS'patterns'
p450
I29
sS'0-3'
p451
I29
sS'-'
p452
I29
sS'\xd0\x91\xd0\xbb\xd0\xb8\xd0\xbd'
p453
I29
sS'omfg'
p454
I29
sS'take'
p455
I25
sS'babes'
p456
I29
sS'honestly'
p457
I29
sS'windex'
p458
I29
sS'\xd1\x87\xd0\xb0\xd1\x81\xd1\x8b'
p459
I29
sS'motha'
p460
I29
sS'blue'
p461
I29
sS'play'
p462
I29
sS'exactly'
p463
I29
sS'\xd1\x82\xd0\xb5\xd0\xbf\xd0\xb5\xd1\x80\xd1\x8c'
p464
I26
sS'iceland'
p465
I29
sS'pitbull'
p466
I29
sS'\xd1\x83\xd0\xb2\xd0\xb5\xd0\xb4\xd0\xbe\xd0\xbc\xd0\xbb\xd0\xb5\xd0\xbd\xd0\xb8\xd1\x8f'
p467
I29
sS'paid'
p468
I29
sS'netflix'
p469
I28
sS'guilhem'
p470
I29
sS'mouth'
p471
I29
sS'cannt'
p472
I29
sS'nothing'
p473
I29
sS'\xd1\x8d\xd1\x82\xd0\xbe\xd0\xbc'
p474
I29
sS'why'
p475
I27
sS'forever'
p476
I29
sS'especially'
p477
I29
sS'yummm'
p478
I29
sS'performances'
p479
I29
sS'sometimes'
p480
I29
sS'flow'
p481
I29
sS'dog'
p482
I29
sS'ghetto'
p483
I29
sS'face'
p484
I27
sS'thunder'
p485
I29
sS'\xd0\xba\xd1\x83\xd0\xbb\xd0\xb5\xd1\x80\xd0\xbe\xd0\xb2'
p486
I29
sS'ugh'
p487
I28
sS'unified'
p488
I29
sS'rainbows'
p489
I29
sS'rub'
p490
I29
sS'anyway'
p491
I29
sS'bring'
p492
I29
sS'jared'
p493
I29
sS'\xd0\xbd\xd0\xbe\xd0\xb2\xd0\xbe\xd0\xbc'
p494
I29
sS'find'
p495
I28
sS'one'
p496
I24
sS'\xd1\x83\xd0\xb6\xd0\xb5'
p497
I28
sS'ayyyy'
p498
I29
sS'true'
p499
I29
sS'dick'
p500
I29
sS'should'
p501
I28
sS'brimstone'
p502
I29
sS'only'
p503
I26
sS'going'
p504
I26
sS'black'
p505
I29
sS'8'
p506
I28
sS'he'
p507
I29
sS'hope'
p508
I29
sS'lacma'
p509
I29
sS'wearing'
p510
I29
sS'do'
p511
I22
sS'his'
p512
I28
sS'\xd0\xbf\xd1\x80\xd0\xbe\xd0\xb8\xd1\x81\xd1\x85\xd0\xbe\xd0\xb4\xd0\xb8\xd1\x82'
p513
I29
sS'have\xe2\x80\xa6'
p514
I29
sS'get'
p515
I23
sS'beat'
p516
I29
sS'dd'
p517
I29
sS'samuel'
p518
I28
sS'watch'
p519
I28
sS'tbt'
p520
I29
sS'truly'
p521
I29
sS'awww'
p522
I29
sS'dz'
p523
I29
sS'perfection'
p524
I29
sS'words'
p525
I29
sS'gifts'
p526
I29
sS'happiest'
p527
I29
sS'dr'
p528
I29
sS'him'
p529
I28
sS'gem'
p530
I29
sS'secondary'
p531
I29
sS'\xd0\xb4\xd0\xb0\xd0\xbd\xd0\xbd\xd1\x8b\xd0\xb9'
p532
I29
sS'rft'
p533
I29
sS'cry'
p534
I28
sS'morning'
p535
I29
sS'bad'
p536
I29
sS'bae'
p537
I25
sS'she'
p538
I27
sS'x'
p539
I29
sS'told'
p540
I29
sS'where'
p541
I29
sS"friends'"
p542
I29
sS'3:00'
p543
I29
sS'bleu'
p544
I29
sS'available'
p545
I29
sS'learn'
p546
I29
sS't-baugh'
p547
I29
sS'w/'
p548
I29
sS'national'
p549
I29
sS'see'
p550
I21
sS'arc'
p551
I29
sS'college'
p552
I29
sS'are'
p553
I17
sS'ignores'
p554
I29
sS'hoes'
p555
I29
sS'\xd1\x80\xd0\xb0\xd0\xb1\xd0\xbe\xd1\x82\xd0\xb0\xd0\xb5\xd1\x82'
p556
I29
sS'bark'
p557
I29
sS'dnaanannana'
p558
I29
sS'best'
p559
I27
sS'southpoly'
p560
I29
sS'said'
p561
I29
sS'maranatha'
p562
I29
sS'sleepin'
p563
I29
sS'pictures'
p564
I28
sS'away'
p565
I29
sS'please'
p566
I27
sS'sites'
p567
I29
sS'grrrreat...pre'
p568
I29
sS'3'
p569
I29
sS"there's"
p570
I29
sS'call'
p571
I29
sS'probably'
p572
I29
sS'\xd0\xba\xd0\xbb\xd0\xb0\xd1\x81\xd1\x81\xd0\xbd\xd0\xb0\xd1\x8f'
p573
I29
sS'email'
p574
I29
sS'yaasss'
p575
I29
sS'\xd0\xb2\xd1\x81\xd1\x91'
p576
I28
sS'24'
p577
I29
sS'we'
p578
I25
sS'\xd1\x86\xd0\xb5\xd0\xbb\xd0\xbe\xd0\xbc'
p579
I29
sS'omg'
p580
I25
sS'missing'
p581
I28
sS'attention'
p582
I29
sS'gym'
p583
I29
sS'the\xe2\x80\xa6'
p584
I29
sS'akiko'
p585
I29
sS'coffee'
p586
I29
sS'french'
p587
I29
sS'wtf'
p588
I29
sS'cousin'
p589
I29
sS'motto'
p590
I29
sS'come'
p591
I28
sS'21'
p592
I29
sS'tfti'
p593
I29
sS'last'
p594
I28
sS'met'
p595
I29
sS'ill'
p596
I29
sS"he's"
p597
I29
sS'\xd0\xb6\xd1\x83\xd1\x80\xd0\xbd\xd0\xb0\xd0\xbb\xd0\xb8\xd1\x81\xd1\x82'
p598
I29
sS'\xd0\x9d\xd0\xb0'
p599
I29
sS'lookin'
p600
I29
sS"can't"
p601
I28
sS'lucius****'
p602
I29
sS'spoil'
p603
I29
sS'drunk'
p604
I27
sS'ca'
p605
I29
sS'dolla'
p606
I29
sS'canyon'
p607
I24
sS'together-'
p608
I29
sS'want*'
p609
I29
sS'[pic]'
p610
I28
sS'consider'
p611
I29
sS'wowwwww'
p612
I29
sS'considering'
p613
I29
sS'\xd1\x80\xd0\xb0\xd0\xb7\xd0\xbe\xd0\xb3\xd0\xbd\xd0\xb0\xd0\xbb\xd0\xb8'
p614
I29
sS'asks'
p615
I29
sS'cares'
p616
I29
sS"it's"
p617
I21
sS'carey'
p618
I29
sS'been'
p619
I28
sS'secret'
p620
I29
sS'much'
p621
I24
sS'damn'
p622
I27
sS'\xd0\xb4\xd0\xb5\xd0\xbb\xd0\xb0?)'
p623
I29
sS'fupa!-cameron'
p624
I29
sS'\xd0\xb1\xd1\x83\xd0\xb4\xd0\xb5\xd1\x82'
p625
I29
sS'wants'
p626
I29
sS'life'
p627
I27
sS"where's"
p628
I29
sS"'words"
p629
I29
sS'moved'
p630
I29
sS"what's"
p631
I29
sS'sooooo'
p632
I29
sS'arcadia'
p633
I29
sS'else'
p634
I27
sS'photos'
p635
I29
sS'dave'
p636
I29
sS"cameron's"
p637
I29
sS'\xd0\xb7\xd0\xb0\xd1\x80\xd0\xb0\xd0\xb1\xd0\xbe\xd1\x82\xd0\xb0\xd0\xbb\xd0\xb8'
p638
I29
sS'angles'
p639
I29
sS'\xd0\xbc\xd0\xb8\xd0\xbd\xd1\x83\xd1\x82'
p640
I29
sS'those'
p641
I28
sS'myself'
p642
I29
sS'soccer'
p643
I29
sS'\xd0\xbd\xd1\x83'
p644
I29
sS'frozen'
p645
I29
sS'"do'
p646
I29
sS'bill'
p647
I29
sS'appearance'
p648
I29
sS'n'
p649
I29
sS'will'
p650
I23
sS'while'
p651
I28
sS'eaton'
p652
I24
sS'tanz'
p653
I29
sS'hahaha'
p654
I28
sS'fun'
p655
I29
sS'fuk'
p656
I29
sS'\xd0\xbf\xd1\x80\xd0\xb0\xd0\xb2'
p657
I29
sS'stop'
p658
I29
sS'biaaatch'
p659
I29
sS'they'
p660
I28
sS'played'
p661
I29
sS'almost'
p662
I29
sS'is'
p663
I11
sS'vk'
p664
I29
sS'unworkable'
p665
I29
sS'it'
p666
I16
sS'\xd0\xbf\xd0\xbe\xd0\xbb\xd0\xbd\xd0\xbe\xd1\x81\xd1\x82\xd1\x8c\xd1\x8e'
p667
I29
sS'ducks'
p668
I29
sS'vs'
p669
I28
sS'jooged'
p670
I29
sS'in'
p671
I13
sS'bucks'
p672
I29
sS'id'
p673
I29
sS'if'
p674
I24
sS'gone'
p675
I29
sS'different'
p676
I29
sS'\xd1\x82\xd0\xbe\xd0\xbb\xd1\x8c\xd0\xba\xd0\xbe'
p677
I29
sS'anymore'
p678
I29
sS'doctor'
p679
I28
sS'perform'
p680
I29
sS'media'
p681
I29
sS'make'
p682
I26
sS"aaron's"
p683
I29
sS'b/c'
p684
I29
sS'same'
p685
I28
sS'food'
p686
I29
sS'\xd1\x8d\xd1\x82\xd0\xbe'
p687
I29
sS'film'
p688
I29
sS'bands'
p689
I29
sS'party'
p690
I29
sS'reminder'
p691
I29
sS'week'
p692
I28
sS'oil'
p693
I29
sS'slave'
p694
I29
sS'\xd1\x81\xd0\xbd\xd0\xbe\xd0\xb2\xd0\xb0'
p695
I29
sS'arctic'
p696
I29
sS'boo'
p697
I29
sS'hang'
p698
I28
sS'coachella'
p699
I27
sS'fucker'
p700
I29
sS'\xd0\xb3\xd0\xbe\xd1\x80\xd1\x8f\xd1\x82'
p701
I29
sS'\xd0\xb8\xd1\x81\xd0\xbf\xd0\xbe\xd0\xbb\xd0\xbd\xd0\xb8\xd1\x82\xd0\xb5\xd0\xbb\xd1\x8f'
p702
I29
sS'waterfall'
p703
I23
sS'\xd1\x81\xd0\xb5\xd1\x80\xd0\xb2\xd0\xb5\xd1\x80\xd0\xb0'
p704
I28
sS'student'
p705
I29
sS'sisters'
p706
I29
sS'climbing'
p707
I28
sS'thoughts'
p708
I29
sS'granada'
p709
I29
sS'\xe2\x9c\x8c\xef\xb8\x8f'
p710
I29
sS'off'
p711
I28
sS'dying'
p712
I29
sS'i'
p713
I6
sS'non-annoying'
p714
I29
sS'\xd1\x81\xd0\xbe\xd0\xb1\xd1\x80\xd0\xb0\xd0\xbb\xd0\xb8\xd1\x81\xd1\x8c'
p715
I29
sS'youre'
p716
I29
sS'youngins'
p717
I29
sS"von's"
p718
I29
sS'thought'
p719
I27
sS'person'
p720
I29
sS'without'
p721
I29
sS'flags'
p722
I29
sS'greatest'
p723
I29
sS'bottle'
p724
I29
sS'mother'
p725
I28
sS'the'
p726
I7
sS'jenga'
p727
I29
sS'summer'
p728
I28
sS'listening'
p729
I28
sS'just'
p730
I24
sS'chair.\xe2\x80\x9d'
p731
I29
sS'being'
p732
I28
sS'photo'
p733
I29
sS'accurate'
p734
I29
sS'\xd0\xb8\xd1\x82\xd0\xbe\xd0\xb3\xd0\xb5'
p735
I29
sS'snapchats'
p736
I29
sS'seen'
p737
I29
sS'foot'
p738
I29
sS'boyfff'
p739
I29
sS'financially'
p740
I29
sS'kill'
p741
I29
sS'thanks'
p742
I29
sS'using'
p743
I29
sS'yes'
p744
I25
sS'\xd0\xa1\xd0\xa8\xd0\x90'
p745
I29
sS'bit'
p746
I29
sS'afterwards'
p747
I29
sS'blow'
p748
I29
sS'\xd0\x95\xd1\x81\xd1\x82\xd1\x8c'
p749
I29
sS"g's"
p750
I29
sS'had'
p751
I28
sS'cuz'
p752
I28
sS'leto'
p753
I29
sS'realize'
p754
I29
sS'sawtay'
p755
I29
sS'lets'
p756
I28
sS'fuuuuuu'
p757
I29
sS'parents'
p758
I29
sS'4'
p759
I29
sS'halftime'
p760
I29
sS'save'
p761
I29
sS'loan'
p762
I29
sS'real'
p763
I26
sS'bio'
p764
I29
sS'presh'
p765
I29
sS'big'
p766
I29
sS'say.....d'
p767
I29
sS'crushed'
p768
I29
sS'gonna'
p769
I26
sS'early'
p770
I29
sS'shitty'
p771
I29
sS'game'
p772
I29
sS'five'
p773
I29
sS'know'
p774
I27
sS'mom'
p775
I26
sS'wanting'
p776
I29
sS'world'
p777
I28
sS'snare'
p778
I29
sS'height'
p779
I29
sS'lady'
p780
I28
sS'\xd1\x81\xd0\xb5\xd0\xb3\xd0\xbe\xd0\xb4\xd0\xbd\xd1\x8f'
p781
I29
sS'd'
p782
I29
sS'thurman'
p783
I29
sS'screwing'
p784
I29
sS'necessary'
p785
I29
sS'like'
p786
I21
sS'\xd0\xba\xd0\xb0\xd0\xba'
p787
I26
sS'\xd1\x84\xd0\xb8\xd0\xbb\xd1\x8c\xd0\xbc\xd0\xb0\xd1\x85'
p788
I29
sS'ring'
p789
I29
sS'haynes'
p790
I29
sS'lightning'
p791
I29
sS'wonders'
p792
I29
sS'salle'
p793
I29
sS'right'
p794
I28
sS'old'
p795
I29
sS'\xd0\xbc\xd0\xbe\xd0\xb6\xd0\xbd\xd0\xbe'
p796
I28
sS'people'
p797
I27
sS'fucking'
p798
I28
sS'twitter'
p799
I29
sS'some'
p800
I26
sS'back'
p801
I27
sS'\xd0\x92\xd0\xb8\xd0\xb4\xd0\xb5\xd0\xbe'
p802
I29
sS'mood'
p803
I29
sS'for'
p804
I16
sS'literally'
p805
I27
sS'*guy'
p806
I29
sS'chips'
p807
I29
sS'everything'
p808
I29
sS'does'
p809
I29
sS'uma'
p810
I29
sS'quote'
p811
I29
sS'anne'
p812
I29
sS'christmas'
p813
I28
sS'drink'
p814
I29
sS'\xd0\xb2'
p815
I21
sS'be'
p816
I21
sS'\xd0\xb0'
p817
I25
sS'who'
p818
I26
sS'run'
p819
I26
sS'seconds'
p820
I29
sS'\xd0\xb8'
p821
I27
sS'\xd0\xa3'
p822
I27
sS'reunited'
p823
I29
sS'found'
p824
I29
sS'\xd0\xb3\xd1\x80\xd1\x83\xd0\xbf\xd0\xbf\xd0\xb0\xd1\x85'
p825
I29
sS'r'
p826
I29
sS'yaass'
p827
I29
sS'by'
p828
I27
sS'\xd0\x92'
p829
I29
sS'on'
p830
I16
sS'about'
p831
I27
sS'goods'
p832
I29
sS'ok'
p833
I27
sS'anything'
p834
I29
sS'oh'
p835
I24
sS'\xd1\x81\xd0\xbe'
p836
I29
sS'of'
p837
I19
sS'favorite'
p838
I29
sS'afternoon'
p839
I29
sS'mariah'
p840
I29
sS'nooooooo'
p841
I29
sS'wanna'
p842
I28
sS'or'
p843
I28
sS'silence'
p844
I29
sS'op'
p845
I29
sS'seeing'
p846
I28
sS'\xd0\xbf\xd0\xbe\xd0\xba\xd1\x83\xd0\xbf\xd0\xb0\xd1\x82\xd1\x8c'
p847
I29
sS'accompanied'
p848
I29
sS'marshall'
p849
I23
sS'blessed'
p850
I28
sS'angelo'
p851
I29
sS'down'
p852
I26
sS'because'
p853
I28
sS'wilde'
p854
I29
sS'guac'
p855
I29
sS'parties'
p856
I29
sS'\xe2\x80\x9cbe'
p857
I29
sS'your'
p858
I18
sS'\xd1\x87\xd1\x82\xd0\xbe'
p859
I29
sS'dick!"....it\'s'
p860
I29
sS'lasagna'
p861
I29
sS'her'
p862
I29
sS'crunk'
p863
I29
sS'weekend'
p864
I29
sS'support'
p865
I29
sS'there'
p866
I29
sS'knowing'
p867
I29
sS'ca)'
p868
I5
sS'lol'
p869
I25
sS'class'
p870
I27
sS'lmfaooo'
p871
I29
sS'virgin'
p872
I29
sS'mondays'
p873
I29
sS'way'
p874
I25
sS'house'
p875
I29
sS'biggest'
p876
I29
sS'music'
p877
I29
sS'slopes'
p878
I29
sS'goin'
p879
I29
sS'was'
p880
I18
sS'segel'
p881
I29
sS'happy'
p882
I27
sS'aoki'
p883
I29
sS'building'
p884
I29
sS'head'
p885
I27
sS'buy'
p886
I29
sS"i've"
p887
I27
sS'commonroom'
p888
I5
sS'lane'
p889
I29
sS'but'
p890
I24
sS'forward'
p891
I29
sS'\xd0\xa3\xd0\xba\xd1\x80\xd0\xb0\xd0\xb8\xd0\xbd\xd0\xb5'
p892
I29
sS'with'
p893
I14
sS'eat'
p894
I29
sS'\xe2\x99\xa1'
p895
I29
sS'\xd0\xb4\xd0\xb0'
p896
I28
sS"wasn't"
p897
I29
sS'uv'
p898
I29
sS'up'
p899
I28
sS'us'
p900
I27
sS'ur'
p901
I29
sS'monsoonal'
p902
I29
sS'j-hart'
p903
I29
sS'bf'
p904
I29
sS'highlight'
p905
I29
sS'(pasadena'
p906
I5
sS'meyers'
p907
I29
sS'toilet'
p908
I29
sS'v'
p909
I29
sS"favs....it's"
p910
I29
sS'm'
p911
I29
sS'year'
p912
I29
sS'am'
p913
I24
sS'\xd0\xbe\xd0\xb1\xd0\xbb\xd0\xb0\xd1\x81\xd1\x82\xd0\xb8'
p914
I29
sS'an'
p915
I25
sS'as'
p916
I27
sS'cure'
p917
I29
sS'at'
p918
I3
sS'\xd0\xb1\xd1\x8b\xd0\xbb\xd0\xbe'
p919
I29
sS'annoying'
p920
I28
sS'check'
p921
I29
sS'shit'
p922
I28
sS'cream'
p923
I29
sS'harvey'
p924
I29
sS'rainy'
p925
I29
sS'jesus'
p926
I29
sS'\xd0\xb8\xd1\x81\xd0\xba\xd0\xb0\xd1\x82\xd1\x8c'
p927
I28
sS'no'
p928
I24
sS'nah'
p929
I28
sS'peace'
p930
I29
sS'when'
p931
I22
sS'kirt'
p932
I29
sS'pasadena'
p933
I26
sS'5'
p934
I27
sS'kickboxing'
p935
I29
sS'sick'
p936
I28
sS'pedicures'
p937
I28
sS'you'
p938
I10
sS'really'
p939
I28
sS'\xe2\x9d\xa4\xef\xb8\x8f\xe2\x98\x95\xef\xb8\x8f'
p940
I29
sS'belong'
p941
I29
sS'colton'
p942
I29
sS'poor'
p943
I29
sS'monday'
p944
I29
sS'haha'
p945
I29
sS'football'
p946
I29
sS'papa'
p947
I29
sS"let's"
p948
I28
sS'these'
p949
I29
sS'award'
p950
I29
sS'shiiiit'
p951
I29
sS'\xd0\xb1\xd1\x8b\xd0\xb2\xd0\xb0\xd0\xb5\xd1\x82'
p952
I29
sS'friends'
p953
I28
sS'desert'
p954
I29
sS'missed'
p955
I29
sS'jones'
p956
I29
sS'fuckin'
p957
I29
sS'\xe2\x9c\x82\xef\xb8\x8f'
p958
I29
sS'\xd0\xb1\xd0\xbe\xd0\xbc\xd0\xb1\xd0\xb8\xd0\xbb\xd0\xb8'
p959
I29
sS'taken.\xe2\x80\x9d'
p960
I29
sS'excuse'
p961
I29
sS'\xd0\xbd\xd0\xb0\xd0\xb4\xd0\xbe'
p962
I29
sS'grouplove'
p963
I29
sS'mother\xe2\x80\x9d'
p964
I29
sS'look'
p965
I29
sS'u'
p966
I29
sS'time'
p967
I26
sS"she's"
p968
I27
sS'\xd0\x92\xd0\x9a'
p969
I28
sS'basically'
p970
I29
s.