(dp0
S''
p1
I1
sS'raining'
p2
I32
sS'all'
p3
I24
sS'coach'
p4
I32
sS':)'
p5
I30
sS'dance'
p6
I31
sS'ouch'
p7
I32
sS'gone\xe2\x80\x9d'
p8
I32
sS'milf'
p9
I32
sS'baby'
p10
I32
sS'sleep'
p11
I32
sS'per'
p12
I32
sS'go'
p13
I29
sS'15'
p14
I32
sS'hate'
p15
I24
sS'children'
p16
I31
sS'emily'
p17
I32
sS'pedro'
p18
I31
sS'zone'
p19
I32
sS'tv'
p20
I31
sS'stinky'
p21
I32
sS'send'
p22
I32
sS'originality'
p23
I32
sS'to'
p24
I4
sS'asking'
p25
I32
sS'spain'
p26
I32
sS'teaching'
p27
I32
sS'un'
p28
I32
sS'worth'
p29
I32
sS"orchestra's"
p30
I32
sS'callin'
p31
I32
sS'very'
p32
I30
sS'fav'
p33
I32
sS'choice'
p34
I32
sS'shoot'
p35
I32
sS'leggings'
p36
I32
sS'more"'
p37
I32
sS'fall'
p38
I31
sS'check'
p39
I32
sS'little'
p40
I25
sS'etc!\xe2\x80\xa6'
p41
I32
sS'cool'
p42
I32
sS'school'
p43
I30
sS'heaven'
p44
I32
sS'clouds'
p45
I32
sS'--'
p46
I27
sS'turns'
p47
I32
sS'stiffed'
p48
I32
sS'solution'
p49
I32
sS'random'
p50
I32
sS'ebanks'
p51
I32
sS'independence'
p52
I32
sS'team'
p53
I32
sS'small'
p54
I32
sS'guy'
p55
I31
sS'hatingggg'
p56
I32
sS'challenge'
p57
I32
sS'sewage'
p58
I32
sS"i'll"
p59
I32
sS'benjamin'
p60
I32
sS'says'
p61
I29
sS'regret'
p62
I32
sS'ten'
p63
I32
sS'phones'
p64
I32
sS'waking'
p65
I30
sS'past'
p66
I32
sS'talks'
p67
I32
sS'second'
p68
I31
sS'video'
p69
I32
sS'excerpts'
p70
I32
sS'even'
p71
I28
sS'what'
p72
I18
sS'adds'
p73
I32
sS'rapping'
p74
I32
sS'giving'
p75
I32
sS'sun'
p76
I31
sS'section'
p77
I32
sS'cooking'
p78
I32
sS'orchestra'
p79
I30
sS'wouldnt'
p80
I32
sS'bipolar'
p81
I32
sS'tears'
p82
I32
sS'twins'
p83
I32
sS'new'
p84
I28
sS'tips'
p85
I30
sS'seemed'
p86
I32
sS'ever'
p87
I29
sS'bird'
p88
I30
sS'full'
p89
I32
sS'zig-zaggy'
p90
I32
sS'bowtie'
p91
I32
sS'kangaroo'
p92
I31
sS'never'
p93
I30
sS'equals'
p94
I31
sS'here'
p95
I31
sS'hours'
p96
I31
sS'\xe2\x9d\xa4\xef\xb8\x8f'
p97
I32
sS'let'
p98
I31
sS'sink'
p99
I32
sS'2:37'
p100
I32
sS'meet'
p101
I32
sS'confused'
p102
I32
sS'strong'
p103
I32
sS'teacher'
p104
I31
sS'fantasies'
p105
I32
sS'box'
p106
I32
sS'boy'
p107
I32
sS'great'
p108
I29
sS'kids'
p109
I30
sS'yaaasss'
p110
I32
sS'metro'
p111
I32
sS'didnt'
p112
I31
sS'reason'
p113
I32
sS'leaving'
p114
I32
sS'exploitation'
p115
I32
sS'breakkkkk'
p116
I32
sS'cervantes'
p117
I32
sS'supplements'
p118
I31
sS'musically'
p119
I32
sS'action'
p120
I32
sS'california'
p121
I32
sS"i'm"
p122
I27
sS'makes'
p123
I31
sS'maker'
p124
I32
sS'signifies'
p125
I32
sS'thats'
p126
I32
sS'fantastic'
p127
I31
sS'via'
p128
I32
sS'love'
p129
I22
sS'bry'
p130
I31
sS'scales'
p131
I32
sS'siri'
p132
I31
sS'sign'
p133
I30
sS'expect'
p134
I32
sS'sight-reading'
p135
I32
sS'composer'
p136
I32
sS'1st'
p137
I32
sS'nathan'
p138
I32
sS'stand'
p139
I32
sS'strad'
p140
I31
sS'singing'
p141
I32
sS'concertmstr'
p142
I32
sS'yourself'
p143
I31
sS'2:47'
p144
I32
sS'eye'
p145
I31
sS'figure'
p146
I32
sS'would'
p147
I28
sS'&'
p148
I24
sS'found'
p149
I32
sS'>:)'
p150
I32
sS'42'
p151
I32
sS'texting'
p152
I26
sS'two'
p153
I26
sS'sweg'
p154
I32
sS'yonatan'
p155
I32
sS'almost'
p156
I32
sS'live'
p157
I30
sS'wood'
p158
I32
sS'music'
p159
I25
sS'survive'
p160
I32
sS'means'
p161
I32
sS"oppenheimer's"
p162
I32
sS'tell'
p163
I30
sS'today'
p164
I26
sS'more'
p165
I25
sS'charcoal'
p166
I32
sS'knows'
p167
I32
sS'holy'
p168
I32
sS'fuuuccckkk'
p169
I32
sS'clicking'
p170
I32
sS'lutoslawski'
p171
I32
sS'haha'
p172
I31
sS'it'
p173
I14
sS'phone'
p174
I30
sS'landed'
p175
I32
sS'carrying'
p176
I32
sS'adult'
p177
I32
sS'known'
p178
I32
sS'glad'
p179
I32
sS'must'
p180
I32
sS'me'
p181
I15
sS"gigi's"
p182
I32
sS'keeping'
p183
I32
sS'rice'
p184
I32
sS'practicing'
p185
I32
sS'room'
p186
I30
sS'hour'
p187
I32
sS'henri'
p188
I32
sS'this'
p189
I16
sS'car'
p190
I32
sS'iceskating'
p191
I32
sS'work'
p192
I27
sS'world\xe2\x80\x9d'
p193
I32
sS'movies'
p194
I32
sS'mall'
p195
I32
sS'drags'
p196
I32
sS'can'
p197
I25
sS'learn'
p198
I31
sS'making'
p199
I31
sS'dispute'
p200
I32
sS'my'
p201
I9
sS'def'
p202
I32
sS'history'
p203
I32
sS'beautiful'
p204
I31
sS'heart'
p205
I32
sS'dedicated'
p206
I32
sS'performer'
p207
I32
sS'pawn'
p208
I32
sS'pooped'
p209
I32
sS"didn't"
p210
I31
sS'fuck'
p211
I29
sS'bus'
p212
I32
sS'high'
p213
I32
sS'heard'
p214
I32
sS'orion'
p215
I32
sS'protective'
p216
I32
sS'something'
p217
I32
sS'want'
p218
I26
sS'david'
p219
I32
sS'wayyyy'
p220
I32
sS'low'
p221
I32
sS'hoe'
p222
I32
sS'end'
p223
I32
sS'vibe'
p224
I32
sS'travel'
p225
I32
sS'watching'
p226
I30
sS'moves'
p227
I32
sS'tickling'
p228
I32
sS'lounge'
p229
I32
sS'how'
p230
I23
sS'amazing'
p231
I30
sS'seeds'
p232
I32
sS'mari'
p233
I32
sS'adjacent'
p234
I32
sS'elephant'
p235
I32
sS'interview'
p236
I31
sS'instead'
p237
I32
sS"hai's"
p238
I32
sS'profile'
p239
I32
sS'mar'
p240
I32
sS'hawt'
p241
I32
sS'"never'
p242
I32
sS'aspiring'
p243
I32
sS'may'
p244
I32
sS'max'
p245
I32
sS'quits'
p246
I32
sS'after'
p247
I29
sS'spider'
p248
I32
sS'mozart+'
p249
I32
sS'fa'
p250
I32
sS'wrong'
p251
I32
sS'birthday'
p252
I24
sS'lay'
p253
I32
sS'taco'
p254
I31
sS'improving'
p255
I32
sS'such'
p256
I28
sS'coast'
p257
I32
sS'guys'
p258
I32
sS'lesbian'
p259
I32
sS'man'
p260
I30
sS'a'
p261
I6
sS'thought'
p262
I32
sS'stress'
p263
I32
sS'short'
p264
I32
sS'remember'
p265
I29
sS'tbh'
p266
I32
sS'tweeting'
p267
I32
sS'noooo'
p268
I32
sS'anytime'
p269
I32
sS'cigarettes'
p270
I32
sS'music-related'
p271
I32
sS'courage'
p272
I32
sS'so'
p273
I18
sS'goodbye'
p274
I32
sS'banks'
p275
I31
sS"russell's"
p276
I32
sS'dream'
p277
I32
sS'playing'
p278
I29
sS'jlnedwards'
p279
I32
sS"that's"
p280
I31
sS'imagining'
p281
I32
sS'cute'
p282
I31
sS'boxing'
p283
I32
sS'help'
p284
I29
sS'office'
p285
I32
sS"don't"
p286
I26
sS'indeed'
p287
I32
sS'over'
p288
I30
sS'midnight'
p289
I32
sS'meter'
p290
I32
sS'years'
p291
I27
sS'unacceptably'
p292
I32
sS'ihy'
p293
I32
sS'through'
p294
I29
sS'shake'
p295
I32
sS'still'
p296
I27
sS'its'
p297
I26
sS'before'
p298
I31
sS'perfect'
p299
I32
sS'needa'
p300
I32
sS'difference'
p301
I31
sS'group'
p302
I32
sS'thank'
p303
I29
sS'fit'
p304
I31
sS"he's"
p305
I32
sS'del'
p306
I32
sS'yorker'
p307
I32
sS'actually'
p308
I31
sS'late'
p309
I31
sS'physical\xe2\x80\xa6'
p310
I32
sS'strange'
p311
I32
sS'ruining'
p312
I32
sS'version'
p313
I32
sS'instruments'
p314
I32
sS'skills'
p315
I32
sS'bout'
p316
I31
sS'bye'
p317
I32
sS'hahaha'
p318
I32
sS'looooovvveeeeee'
p319
I32
sS"haven't"
p320
I31
sS'dad'
p321
I32
sS'then'
p322
I28
sS'them'
p323
I28
sS'good'
p324
I23
sS'ya'
p325
I30
sS'auto'
p326
I32
sS'workout'
p327
I32
sS'practice'
p328
I30
sS'flew'
p329
I32
sS'break'
p330
I32
sS'lunch'
p331
I31
sS'violins'
p332
I32
sS'they'
p333
I27
sS'half'
p334
I29
sS'not'
p335
I18
sS'now'
p336
I27
sS'day'
p337
I26
sS'lunc'
p338
I32
sS'alex'
p339
I32
sS'name'
p340
I31
sS'always'
p341
I28
sS'drop'
p342
I32
sS'arrested'
p343
I32
sS'bows'
p344
I32
sS'detroit'
p345
I32
sS'did'
p346
I30
sS'weather'
p347
I32
sS"hitler's"
p348
I32
sS'fitness'
p349
I32
sS'disregard'
p350
I32
sS"'lipinski'"
p351
I32
sS'masterclass'
p352
I32
sS'side'
p353
I32
sS"isn't"
p354
I32
sS'reactions'
p355
I32
sS'mental'
p356
I32
sS'beginner'
p357
I32
sS'doing'
p358
I28
sS'house'
p359
I32
sS'hard'
p360
I32
sS'idea'
p361
I31
sS'hakkasan'
p362
I32
sS'brother'
p363
I32
sS"logan's"
p364
I32
sS'gaps'
p365
I32
sS"we'd"
p366
I30
sS'year'
p367
I28
sS'territory'
p368
I32
sS'girl'
p369
I29
sS'"fire"'
p370
I32
sS'really'
p371
I26
sS'living'
p372
I31
sS'ultimately'
p373
I32
sS'unprivate'
p374
I32
sS'missed'
p375
I32
sS'omgksbidnsl'
p376
I32
sS'entertainment'
p377
I32
sS'open'
p378
I32
sS'confess'
p379
I32
sS'sunburnt'
p380
I32
sS'mess'
p381
I32
sS'seriously'
p382
I30
sS'health'
p383
I32
sS'7'
p384
I32
sS'internet'
p385
I32
sS'medicine'
p386
I32
sS'got'
p387
I29
sS'rn'
p388
I32
sS'cause'
p389
I27
sS'correct'
p390
I32
sS'"torres'
p391
I32
sS'shows'
p392
I32
sS'ass'
p393
I31
sS'model'
p394
I32
sS'stanky'
p395
I32
sS'drink'
p396
I32
sS'turning'
p397
I32
sS'worthiness'
p398
I32
sS"doesn't"
p399
I31
sS'story'
p400
I31
sS'free'
p401
I32
sS'quite'
p402
I32
sS'"hey'
p403
I32
sS'completely'
p404
I32
sS'tami'
p405
I32
sS'complicated'
p406
I32
sS'asf'
p407
I30
sS'carl'
p408
I32
sS'imagine'
p409
I32
sS'ask'
p410
I32
sS'horse'
p411
I32
sS'wanted'
p412
I32
sS'quinn'
p413
I32
sS'becker'
p414
I32
sS'care'
p415
I31
sS'scary'
p416
I31
sS"'stop"
p417
I32
sS'flushed'
p418
I32
sS'visit'
p419
I32
sS'karsashian'
p420
I32
sS'starts'
p421
I32
sS'could'
p422
I30
sS'calories'
p423
I32
sS'days'
p424
I30
sS'keep'
p425
I30
sS'thing'
p426
I31
sS'musicians'
p427
I32
sS'prejudice'
p428
I32
sS'w'
p429
I32
sS'enough'
p430
I32
sS'students'
p431
I32
sS'moving'
p432
I32
sS'rain>>>>>>>>>>'
p433
I32
sS'think'
p434
I30
sS'first'
p435
I31
sS'grossman'
p436
I32
sS'coaching\xe2\x80\xa6'
p437
I32
sS'mr'
p438
I32
sS'dont'
p439
I24
sS'>>'
p440
I32
sS'feel'
p441
I27
sS'coming'
p442
I32
sS'flipping'
p443
I31
sS'one'
p444
I24
sS'embarrassed'
p445
I32
sS'lat'
p446
I32
sS'done'
p447
I32
sS'bitch'
p448
I30
sS'delicious'
p449
I32
sS'vote'
p450
I32
sS'booty'
p451
I32
sS'sounds'
p452
I31
sS'(1919-2013)'
p453
I32
sS'miss'
p454
I30
sS'tomorrow'
p455
I30
sS'commotion--even'
p456
I32
sS"you're"
p457
I22
sS'guess'
p458
I31
sS'"'
p459
I31
sS"there's"
p460
I32
sS'start'
p461
I32
sS'yes\xe2\x98\xba\xef\xb8\x8f'
p462
I32
sS'dogg'
p463
I32
sS'top'
p464
I32
sS'yin'
p465
I32
sS'girls'
p466
I30
sS'hilary'
p467
I32
sS'response'
p468
I32
sS'burn'
p469
I32
sS'2'
p470
I31
sS'master'
p471
I32
sS'too'
p472
I21
sS'statement'
p473
I32
sS'imma'
p474
I32
sS'shaham'
p475
I32
sS'lol'
p476
I30
sS'jen'
p477
I32
sS'friend'
p478
I29
sS'listen'
p479
I32
sS'tomato'
p480
I32
sS'malibu'
p481
I32
sS'lot'
p482
I30
sS'that'
p483
I18
sS'completed'
p484
I32
sS'exactly'
p485
I32
sS'arad'
p486
I32
sS'alan'
p487
I32
sS'hurt'
p488
I32
sS'part'
p489
I30
sS'believe'
p490
I31
sS"here's"
p491
I32
sS'neck'
p492
I32
sS'king'
p493
I32
sS'john'
p494
I32
sS'ben'
p495
I30
sS'14'
p496
I31
sS'jam'
p497
I32
sS'kickback'
p498
I32
sS'likely'
p499
I32
sS'bed'
p500
I32
sS'war'
p501
I32
sS'preparation'
p502
I32
sS'future'
p503
I32
sS'silly'
p504
I32
sS'recovered'
p505
I32
sS'were'
p506
I31
sS'sharleen'
p507
I32
sS'college'
p508
I32
sS'feeling'
p509
I32
sS'strolls'
p510
I32
sS'fruity'
p511
I32
sS'devotion'
p512
I32
sS'and'
p513
I8
sS'mind'
p514
I31
sS'ivory'
p515
I32
sS'constellations'
p516
I32
sS'spent'
p517
I32
sS'tonight'
p518
I32
sS'talking'
p519
I31
sS'say'
p520
I29
sS'alike'
p521
I32
sS'have'
p522
I21
sS'lurking'
p523
I32
sS'need'
p524
I29
sS'seen'
p525
I32
sS'seem'
p526
I32
sS'any'
p527
I31
sS'alive'
p528
I32
sS'hello'
p529
I32
sS'lie'
p530
I32
sS'prenatals'
p531
I32
sS'congrats'
p532
I32
sS'languorous'
p533
I32
sS'self'
p534
I32
sS'-'
p535
I31
sS'ideas'
p536
I32
sS'expires'
p537
I32
sS'arm'
p538
I32
sS'auditions'
p539
I30
sS'grimy'
p540
I32
sS'hookah'
p541
I32
sS'take'
p542
I29
sS'babes'
p543
I32
sS'laughed'
p544
I32
sS'finding'
p545
I31
sS'green'
p546
I32
sS'many'
p547
I32
sS'='
p548
I32
sS'mountaintop'
p549
I32
sS'play'
p550
I28
sS'nobody'
p551
I32
sS'pandora'
p552
I32
sS'though'
p553
I32
sS'yayya'
p554
I32
sS'who'
p555
I28
sS'reach'
p556
I32
sS'paid'
p557
I30
sS'rehearsal'
p558
I31
sS'most'
p559
I32
sS'trippy'
p560
I32
sS'pleasure'
p561
I32
sS'instantly*"just'
p562
I32
sS'why'
p563
I26
sS'grave'
p564
I32
sS'closet'
p565
I32
sS'won'
p566
I32
sS'alarm'
p567
I32
sS'sometimes'
p568
I32
sS'cover'
p569
I32
sS'drive'
p570
I32
sS'doe'
p571
I32
sS'pipe'
p572
I32
sS'yang'
p573
I32
sS'ferrari'
p574
I32
sS'talk'
p575
I32
sS'summer...what'
p576
I32
sS'vieuxtemps'
p577
I32
sS'goals'
p578
I32
sS'son'
p579
I32
sS'taxi'
p580
I32
sS'atmosphere'
p581
I31
sS'answered'
p582
I31
sS'lyrics'
p583
I32
sS'german'
p584
I32
sS'text'
p585
I32
sS'agreed'
p586
I32
sS'able'
p587
I32
sS'sweating'
p588
I32
sS'cruised'
p589
I32
sS'bring'
p590
I31
sS'stfu'
p591
I31
sS'lloyd'
p592
I31
sS'livin'
p593
I32
sS'high-profile'
p594
I32
sS'chicken'
p595
I32
sS'find'
p596
I29
sS'ground'
p597
I32
sS'answer'
p598
I32
sS'candidacy'
p599
I32
sS'\xe2\x9c\x8b'
p600
I30
sS'hollyweird'
p601
I32
sS'hills'
p602
I32
sS'true'
p603
I31
sS'writes'
p604
I32
sS'finalized'
p605
I32
sS'minnesota'
p606
I30
sS'should'
p607
I27
sS'status'
p608
I32
sS'only'
p609
I29
sS'going'
p610
I30
sS'bliss'
p611
I32
sS'pretty'
p612
I30
sS'combo'
p613
I32
sS'8'
p614
I31
sS'halloween'
p615
I32
sS'anymore.\xe2\x80\x9d'
p616
I32
sS'brotha'
p617
I32
sS'hope'
p618
I29
sS'etiquette-'
p619
I32
sS'do'
p620
I27
sS'his'
p621
I30
sS'hit'
p622
I32
sS'postnatals'
p623
I32
sS'get'
p624
I27
sS'beat'
p625
I32
sS'sooo'
p626
I32
sS'diamonds'
p627
I32
sS'stop'
p628
I32
sS'lucky'
p629
I32
sS'da'
p630
I32
sS'me.\xe2\x80\x9d'
p631
I32
sS'feels'
p632
I31
sS'made'
p633
I31
sS'interviews'
p634
I32
sS'actions'
p635
I32
sS'words'
p636
I30
sS'tribute'
p637
I32
sS'during'
p638
I32
sS'nasty'
p639
I32
sS'him'
p640
I31
sS'target'
p641
I32
sS'conservatory'
p642
I30
sS'temp'
p643
I32
sS'colin'
p644
I32
sS'course'
p645
I32
sS'frustrated'
p646
I32
sS'busiest'
p647
I32
sS'cry'
p648
I32
sS'morning'
p649
I32
sS'soloist'
p650
I31
sS'book'
p651
I32
sS'bad'
p652
I31
sS'stupid'
p653
I32
sS'she'
p654
I28
sS'orch'
p655
I32
sS"won't"
p656
I30
sS'olypics'
p657
I32
sS'ph'
p658
I32
sS'where'
p659
I31
sS'setup'
p660
I32
sS'wrote'
p661
I31
sS'view'
p662
I32
sS'cole'
p663
I32
sS'btw'
p664
I32
sS'concert'
p665
I30
sS'burst'
p666
I32
sS'w/'
p667
I32
sS'signs'
p668
I32
sS'again"[tries'
p669
I32
sS'game!"'
p670
I32
sS'around'
p671
I32
sS'pilar'
p672
I32
sS'dickhead'
p673
I32
sS'see'
p674
I30
sS'toes'
p675
I32
sS'dumb'
p676
I31
sS'are'
p677
I20
sS'whataa'
p678
I32
sS'stack'
p679
I32
sS'smoothies'
p680
I32
sS'best'
p681
I29
sS'situation'
p682
I32
sS'closer'
p683
I32
sS'recording'
p684
I32
sS'said'
p685
I32
sS'computer'
p686
I32
sS'luv'
p687
I32
sS'record'
p688
I32
sS"master's"
p689
I32
sS'pictures'
p690
I32
sS'wow'
p691
I30
sS'yayayayya'
p692
I32
sS'state'
p693
I32
sS'smallest'
p694
I32
sS'routine'
p695
I31
sS'theft'
p696
I32
sS'wulfhorst'
p697
I32
sS'we'
p698
I28
sS'pushing'
p699
I32
sS'omg'
p700
I31
sS'10'
p701
I32
sS'god'
p702
I32
sS'beilman'
p703
I30
sS'lupe'
p704
I32
sS'...i'
p705
I32
sS'lotion'
p706
I32
sS'job'
p707
I32
sS'french'
p708
I32
sS'asst'
p709
I32
sS'cousin'
p710
I32
sS'picking'
p711
I32
sS'come'
p712
I30
sS'pissed'
p713
I32
sS'ham'
p714
I32
sS'soloists'
p715
I32
sS'mans'
p716
I32
sS'last'
p717
I28
sS'talented'
p718
I32
sS'joke'
p719
I32
sS'la'
p720
I32
sS'minds'
p721
I32
sS'nerds'
p722
I32
sS'april'
p723
I32
sS'honey'
p724
I32
sS'games'
p725
I31
sS'bet'
p726
I32
sS'faces'
p727
I32
sS'wheels'
p728
I32
sS'darker'
p729
I32
sS'all.~'
p730
I32
sS"can't"
p731
I30
sS'ily'
p732
I32
sS'pre'
p733
I32
sS'co'
p734
I32
sS'bell'
p735
I31
sS'sky'
p736
I32
sS'tuesday'
p737
I32
sS'each'
p738
I32
sS'destabilizes'
p739
I32
sS'likes'
p740
I32
sS'learning'
p741
I31
sS'news'
p742
I32
sS'constant'
p743
I32
sS'labor'
p744
I32
sS'tomarrow'
p745
I32
sS'thoeeee'
p746
I32
sS'better'
p747
I32
sS"aren't"
p748
I32
sS'question--'
p749
I32
sS'sends'
p750
I32
sS'agree'
p751
I32
sS"it's"
p752
I26
sS'dub'
p753
I32
sS'three'
p754
I31
sS'been'
p755
I27
sS'shoulda'
p756
I32
sS'breath'
p757
I32
sS'reduction'
p758
I32
sS'much'
p759
I31
sS'damn'
p760
I32
sS'treat'
p761
I32
sS'issss'
p762
I32
sS'2010'
p763
I32
sS'proposal'
p764
I32
sS'extreme'
p765
I32
sS'exhaustion'
p766
I32
sS'board'
p767
I32
sS'website'
p768
I32
sS'life'
p769
I29
sS'gay'
p770
I32
sS'restrictions'
p771
I32
sS'vanska'
p772
I32
sS"what's"
p773
I32
sS'thiiiiiiiisss'
p774
I32
sS'else'
p775
I31
sS'engage'
p776
I32
sS'wake'
p777
I32
sS'general'
p778
I32
sS'palladium'
p779
I32
sS'weeks'
p780
I32
sS'those'
p781
I30
sS'chill'
p782
I31
sS'paying'
p783
I32
sS'myself'
p784
I31
sS'hahahhah'
p785
I32
sS'look'
p786
I32
sS'these'
p787
I28
sS'slept'
p788
I32
sS'tip'
p789
I32
sS'famous'
p790
I32
sS'chew:30'
p791
I32
sS'n'
p792
I31
sS'will'
p793
I31
sS'while'
p794
I31
sS'smart'
p795
I32
sS'hbd'
p796
I32
sS'fun'
p797
I30
sS'unlyrical'
p798
I32
sS'frustrating'
p799
I32
sS'guide'
p800
I31
sS'theres'
p801
I32
sS'ive'
p802
I31
sS'stink'
p803
I32
sS'iz'
p804
I32
sS"ma'm"
p805
I32
sS'canoe'
p806
I32
sS'order'
p807
I32
sS'is'
p808
I10
sS'coffee'
p809
I31
sS'duhh'
p810
I32
sS'ii'
p811
I31
sS'someone'
p812
I31
sS'im'
p813
I26
sS'calender'
p814
I32
sS'in'
p815
I11
sS'ready'
p816
I32
sS'violin'
p817
I27
sS'worry'
p818
I32
sS'if'
p819
I26
sS'grown'
p820
I32
sS'pebbles\xe2\x80\xa6'
p821
I32
sS'"secret"'
p822
I32
sS'anymore'
p823
I31
sS'james'
p824
I32
sS'things'
p825
I31
sS'bowl'
p826
I32
sS'same'
p827
I30
sS'trip'
p828
I32
sS'food'
p829
I32
sS"i'd"
p830
I32
sS'mode"'
p831
I32
sS'hahah'
p832
I30
sS'viola'
p833
I32
sS'waste'
p834
I32
sS'packs'
p835
I32
sS'strawberries'
p836
I32
sS'fill'
p837
I32
sS'"orchestra'
p838
I32
sS'difficult'
p839
I31
sS'week'
p840
I31
sS'ball'
p841
I32
sS'smoke'
p842
I32
sS'planting'
p843
I32
sS'appearances'
p844
I32
sS'buzz'
p845
I32
sS'<3'
p846
I32
sS'\xe2\x9c\x94\xef\xb8\x8f'
p847
I32
sS'moment'
p848
I32
sS'arrived'
p849
I32
sS'purpose'
p850
I32
sS'kim'
p851
I32
sS'jealous'
p852
I32
sS'totally'
p853
I32
sS'weird'
p854
I32
sS'fruitsnacks'
p855
I32
sS'live\xe2\x80\xa6'
p856
I32
sS'posted'
p857
I32
sS'task'
p858
I32
sS'off'
p859
I30
sS'score'
p860
I32
sS'i'
p861
I2
sS'whole'
p862
I32
sS'well'
p863
I29
sS'em!\xe2\x9d\xa4\xef\xb8\x8f'
p864
I32
sS'tho'
p865
I32
sS'de'
p866
I32
sS'without'
p867
I31
sS'comes'
p868
I32
sS'inspirational'
p869
I32
sS'y'
p870
I32
sS'the'
p871
I3
sS'reward'
p872
I32
sS'musical'
p873
I31
sS'love\xe2\x80\xa6'
p874
I32
sS'parents\xe2\x80\x99'
p875
I31
sS'summer'
p876
I29
sS'capitol'
p877
I32
sS'just'
p878
I15
sS'when'
p879
I26
sS'theee'
p880
I32
sS'hands'
p881
I32
sS'rest'
p882
I32
sS'mid'
p883
I32
sS'kill'
p884
I31
sS'thanks'
p885
I30
sS'questions'
p886
I32
sS'yep'
p887
I32
sS'yes'
p888
I31
sS'yet'
p889
I32
sS'happiness'
p890
I32
sS'hah'
p891
I32
sS'yr'
p892
I31
sS'myself-'
p893
I32
sS'cup'
p894
I32
sS'headed'
p895
I32
sS'had'
p896
I29
sS'tension!"'
p897
I32
sS'hall'
p898
I31
sS'sixflags'
p899
I32
sS'lets'
p900
I31
sS'setting'
p901
I32
sS'parents'
p902
I30
sS'4'
p903
I30
sS'crying'
p904
I32
sS'sweet'
p905
I32
sS'engulfed'
p906
I32
sS'ohhh'
p907
I32
sS'grow'
p908
I32
sS'has'
p909
I30
sS'excited'
p910
I31
sS'homework'
p911
I31
sS'ross'
p912
I32
sS'swim'
p913
I31
sS'gods'
p914
I32
sS'which'
p915
I32
sS'read'
p916
I32
sS'big'
p917
I32
sS'fyi'
p918
I32
sS'gonna'
p919
I31
sS'blog\xe2\x80\xa6'
p920
I32
sS'tmrw'
p921
I32
sS'game'
p922
I31
sS'know'
p923
I24
sS'listening'
p924
I32
sS'world'
p925
I32
sS'bit'
p926
I32
sS'retreat'
p927
I32
sS'forcing'
p928
I32
sS'like'
p929
I17
sS'flappy'
p930
I30
sS'rides'
p931
I32
sS'balance\xe2\x80\xa6'
p932
I32
sS'piece'
p933
I32
sS'loses'
p934
I27
sS'lose'
p935
I32
sS'dietary'
p936
I32
sS'zombies'
p937
I32
sS'night'
p938
I31
sS'beverly'
p939
I32
sS'become'
p940
I32
sS'2:40'
p941
I32
sS'rain\xe2\x98\x94\xef\xb8\x8f'
p942
I32
sS'towards'
p943
I32
sS'unexplored'
p944
I32
sS'alda'
p945
I32
sS'"almost"'
p946
I32
sS'because'
p947
I30
sS'old'
p948
I30
sS"couldn't"
p949
I30
sS'classical'
p950
I30
sS'people'
p951
I29
sS'fucking'
p952
I31
sS'spring'
p953
I32
sS'twitter'
p954
I31
sS'fake'
p955
I32
sS'some'
p956
I26
sS'back'
p957
I31
sS'competition'
p958
I32
sS'blow'
p959
I32
sS'hair'
p960
I31
sS'urgent'
p961
I32
sS'lips'
p962
I32
sS'sure'
p963
I32
sS'mideast'
p964
I32
sS'selfishness'
p965
I32
sS'home'
p966
I29
sS'nicaragua'
p967
I32
sS"bach's"
p968
I32
sS'shey'
p969
I32
sS"bachelor's"
p970
I32
sS'for'
p971
I12
sS'gil'
p972
I32
sS'leah'
p973
I32
sS'scholz'
p974
I32
sS'ice'
p975
I32
sS'violinist'
p976
I30
sS'everything'
p977
I31
sS'loved'
p978
I32
sS'does'
p979
I30
sS'passion'
p980
I32
sS'birthday\xe2\x9d\xa4\xef\xb8\x8f'
p981
I32
sS'pipes'
p982
I32
sS'prof'
p983
I32
sS'fragments'
p984
I32
sS'dating'
p985
I32
sS'adorable'
p986
I32
sS'\xe2\x9a\xab\xef\xb8\x8f\xe2\x9a\xaa\xef\xb8\x8f'
p987
I32
sS'burfdae'
p988
I32
sS'stairway'
p989
I32
sS'be'
p990
I13
sS'slower'
p991
I32
sS'felt'
p992
I32
sS'ghetto-mesia'
p993
I32
sS'business'
p994
I32
sS'schedule'
p995
I32
sS'lmfao'
p996
I31
sS'adler'
p997
I32
sS'journal'
p998
I32
sS'rock'
p999
I32
sS'lu'
p1000
I32
sS'subconscious'
p1001
I32
sS'go...well'
p1002
I32
sS'bs'
p1003
I32
sS'from'
p1004
I24
sS'article'
p1005
I32
sS'super'
p1006
I32
sS'by'
p1007
I27
sS'wealth'
p1008
I32
sS'on'
p1009
I17
sS'about'
p1010
I24
sS'snoop'
p1011
I32
sS'anything'
p1012
I32
sS'netflix'
p1013
I31
sS'of'
p1014
I7
sS'months'
p1015
I32
sS'favorite'
p1016
I31
sS'power\xe2\x80\xa6'
p1017
I32
sS'quartet'
p1018
I32
sS'watch'
p1019
I32
sS'-my'
p1020
I32
sS'journey'
p1021
I32
sS'whaaat'
p1022
I32
sS'urth'
p1023
I32
sS'itty'
p1024
I32
sS'mixed'
p1025
I32
sS"maker's"
p1026
I32
sS'wanna'
p1027
I32
sS'or'
p1028
I28
sS'bitty'
p1029
I32
sS'whats'
p1030
I32
sS'owe'
p1031
I32
sS'dude'
p1032
I32
sS'into'
p1033
I31
sS'soo'
p1034
I31
sS'getting'
p1035
I31
sS'down'
p1036
I31
sS'right'
p1037
I31
sS'elementary'
p1038
I32
sS'violin.\xe2\x80\x9d'
p1039
I32
sS'lesson'
p1040
I32
sS'whos'
p1041
I32
sS'math'
p1042
I32
sS'your'
p1043
I15
sS'omfg'
p1044
I32
sS'wack'
p1045
I32
sS'fast'
p1046
I32
sS'legacy'
p1047
I32
sS'lashes'
p1048
I32
sS'her'
p1049
I30
sS'hes'
p1050
I32
sS'ew'
p1051
I32
sS'there'
p1052
I30
sS'question'
p1053
I32
sS'ca)'
p1054
I32
sS'long'
p1055
I30
sS'fight'
p1056
I32
sS'stuck'
p1057
I32
sS'appears'
p1058
I32
sS'cats'
p1059
I32
sS"we're"
p1060
I32
sS'way'
p1061
I27
sS'suit'
p1062
I32
sS'forward'
p1063
I32
sS'tatis'
p1064
I32
sS'was'
p1065
I19
sS'strict'
p1066
I32
sS'happy'
p1067
I22
sS'head'
p1068
I31
sS'complete'
p1069
I32
sS"i've"
p1070
I31
sS'instrument'
p1071
I32
sS'brand'
p1072
I32
sS'bite'
p1073
I32
sS'but'
p1074
I25
sS'sophisticated'
p1075
I32
sS'beginners'
p1076
I32
sS'soundpost'
p1077
I32
sS'hi'
p1078
I31
sS'hear'
p1079
I30
sS'time]*dies'
p1080
I32
sS'learned'
p1081
I32
sS'adults'
p1082
I32
sS'trying'
p1083
I31
sS'with'
p1084
I18
sS'bug'
p1085
I32
sS'he'
p1086
I27
sS'fdb'
p1087
I31
sS'tossed'
p1088
I32
sS'erick'
p1089
I32
sS'fredrick'
p1090
I32
sS'bestfriend"'
p1091
I32
sS'wish'
p1092
I30
sS'inside'
p1093
I32
sS'mozart'
p1094
I32
sS'up'
p1095
I25
sS'us'
p1096
I32
sS'flirt'
p1097
I31
sS'whiskey'
p1098
I32
sS'miguel'
p1099
I32
sS'woke'
p1100
I32
sS'scream'
p1101
I32
sS'tad'
p1102
I32
sS'(pasadena'
p1103
I32
sS'>'
p1104
I32
sS'minutes'
p1105
I31
sS'called'
p1106
I29
sS'feet'
p1107
I32
sS'distance'
p1108
I32
sS'skating'
p1109
I32
sS'gone'
p1110
I32
sS'ac'
p1111
I32
sS'later'
p1112
I32
sS'money'
p1113
I32
sS'butthole'
p1114
I32
sS'videos'
p1115
I32
sS'tryna'
p1116
I32
sS'taste'
p1117
I32
sS'inadequate'
p1118
I32
sS'felix'
p1119
I32
sS'am'
p1120
I27
sS'an'
p1121
I26
sS'as'
p1122
I27
sS'sometime'
p1123
I32
sS'cheetah'
p1124
I32
sS'at'
p1125
I19
sS'annoying'
p1126
I31
sS"violinist's"
p1127
I32
sS'portland'
p1128
I32
sS'shit'
p1129
I29
sS'cream'
p1130
I32
sS'again'
p1131
I30
sS'jesus'
p1132
I32
sS'no'
p1133
I27
sS'modernize'
p1134
I32
sS'sessions'
p1135
I32
sS'offensive'
p1136
I30
sS'power'
p1137
I32
sS'nap'
p1138
I31
sS'other'
p1139
I32
sS'details'
p1140
I32
sS'boyfriend\xe2\x80\xa6'
p1141
I32
sS'laugh'
p1142
I32
sS'you'
p1143
I5
sS'out'
p1144
I26
sS'smell'
p1145
I31
sS'realize'
p1146
I32
sS'nice'
p1147
I31
sS'happens'
p1148
I32
sS'obsessed'
p1149
I32
sS'wing'
p1150
I32
sS'welcome'
p1151
I29
sS'ehnes'
p1152
I32
sS'downing'
p1153
I32
sS'important'
p1154
I31
sS'peak'
p1155
I32
sS'finish'
p1156
I32
sS'aware'
p1157
I32
sS'weekend'
p1158
I32
sS'resell'
p1159
I32
sS'ago'
p1160
I32
sS'gavotte'
p1161
I32
sS'land'
p1162
I32
sS'happier'
p1163
I32
sS'rain>'
p1164
I32
sS'wife'
p1165
I32
sS'kardashian'
p1166
I32
sS'martin'
p1167
I32
sS"pandora's"
p1168
I32
sS'shoutout'
p1169
I32
sS'bb'
p1170
I32
sS'directors'
p1171
I32
sS'"holidays"'
p1172
I32
sS'u'
p1173
I24
sS'time'
p1174
I24
sS'alright'
p1175
I32
sS'berries'
p1176
I32
sS'baked'
p1177
I32
sS'avoid'
p1178
I32
sS'others'
p1179
I32
sS'once'
p1180
I30
s.