(dp0
S''
p1
I2
sS'inning'
p2
I82
sS'unica'
p3
I81
sS'd\xc3\xada'
p4
I78
sS'raining'
p5
I82
sS'magnetic'
p6
I82
sS'ucrania'
p7
I82
sS'yellow'
p8
I80
sS'yikes'
p9
I82
sS'obstruction'
p10
I82
sS'nursery'
p11
I82
sS'sleep'
p12
I77
sS'urth'
p13
I21
sS'proverbs'
p14
I82
sS'mirage'
p15
I81
sS'continues...\xe2\x98\x95\xe2\x98\x95\xe2\x98\x95'
p16
I82
sS'captain'
p17
I81
sS'hate'
p18
I72
sS'cytokines'
p19
I82
sS'poorly'
p20
I82
sS'otro'
p21
I82
sS'as\xc3\xad'
p22
I82
sS'05:06:44.0,34.14561,-118.13831,4636.01,chillin'
p23
I82
sS'buddy'
p24
I81
sS'presente'
p25
I82
sS'auf'
p26
I82
sS'swam'
p27
I82
sS'auh'
p28
I82
sS'tweet'
p29
I81
sS'sweetest'
p30
I82
sS'censored'
p31
I82
sS'tardes'
p32
I82
sS'instead\xe2\x80\xa6'
p33
I82
sS'daze'
p34
I81
sS'under'
p35
I80
sS'recycle'
p36
I82
sS'teaching'
p37
I81
sS'sorry'
p38
I81
sS"brah's"
p39
I82
sS'worth'
p40
I79
sS'disrespectful."'
p41
I82
sS'ale'
p42
I82
sS'imta'
p43
I81
sS'mata'
p44
I82
sS'sellers'
p45
I82
sS'barenboim'
p46
I82
sS'lololol'
p47
I82
sS'gracias'
p48
I82
sS'every'
p49
I75
sS'jack'
p50
I81
sS'bummed'
p51
I82
sS'jacob'
p52
I81
sS'ala'
p53
I82
sS'ugghh'
p54
I82
sS'monkeys'
p55
I82
sS'maxx)'
p56
I82
sS'sly'
p57
I82
sS'tickets'
p58
I82
sS'estudiar"'
p59
I82
sS'school'
p60
I67
sS'bestfriend'
p61
I81
sS'skills'
p62
I81
sS'pinch'
p63
I82
sS'wednesday'
p64
I81
sS'*food'
p65
I82
sS'frozen'
p66
I82
sS'honor'
p67
I82
sS'probar\xc3\xa9'
p68
I82
sS'robles'
p69
I81
sS'\xd0\x9f\xd0\xbe\xd0\xb5\xd1\x85\xd0\xb0\xd0\xbb\xd0\xb8'
p70
I82
sS'recuerdas'
p71
I82
sS'blick'
p72
I82
sS'heading'
p73
I79
sS'clothes'
p74
I80
sS'enjoy'
p75
I82
sS'coffee)'
p76
I82
sS'everygirl'
p77
I82
sS'winded'
p78
I82
sS'force'
p79
I82
sS'tired'
p80
I77
sS'awake'
p81
I82
sS'phones'
p82
I82
sS'hanging'
p83
I82
sS'japanese'
p84
I81
sS'fosforilaci\xc3\xb3n'
p85
I82
sS'6pm'
p86
I82
sS'second'
p87
I80
sS'street'
p88
I76
sS"porto's"
p89
I82
sS'7th'
p90
I82
sS'nucle\xc3\xb3sido'
p91
I82
sS'friendships'
p92
I81
sS'air'
p93
I82
sS'fawk'
p94
I82
sS'others)'
p95
I66
sS'fattening'
p96
I82
sS'even'
p97
I73
sS'betty'
p98
I82
sS'errors'
p99
I82
sS'hide'
p100
I82
sS'christ'
p101
I81
sS'ruben'
p102
I81
sS'+'
p103
I80
sS'cooking'
p104
I81
sS'kate"'
p105
I77
sS'bikini'
p106
I82
sS'asia'
p107
I81
sS'ristorante)'
p108
I82
sS'lights'
p109
I81
sS'saludos'
p110
I77
sS'fuerza'
p111
I82
sS'above'
p112
I82
sS'beater'
p113
I82
sS'weather'
p114
I82
sS'new'
p115
I33
sS'ever'
p116
I75
sS'disney'
p117
I81
sS'told'
p118
I73
sS'mee'
p119
I82
sS'crunch'
p120
I82
sS'pats'
p121
I82
sS'kicked'
p122
I81
sS'cambiar'
p123
I82
sS'intrest'
p124
I82
sS'pancakes'
p125
I81
sS'never'
p126
I64
sS'brainwashed'
p127
I82
sS'here'
p128
I52
sS'smudge'
p129
I82
sS'socialize'
p130
I82
sS'\xe2\x9d\xa4\xef\xb8\x8f'
p131
I70
sS'phone)'
p132
I82
sS'studio'
p133
I82
sS'mes'
p134
I79
sS'active'
p135
I82
sS'100'
p136
I82
sS'101'
p137
I81
sS'celebration'
p138
I81
sS'stresses'
p139
I82
sS'kids'
p140
I77
sS'daughter'
p141
I80
sS'sedum'
p142
I82
sS'k'
p143
I80
sS'changed'
p144
I80
sS'compa\xc3\xb1\xc3\xadas'
p145
I82
sS'foolishness'
p146
I82
sS'itunes'
p147
I82
sS'imma'
p148
I81
sS"i'd"
p149
I77
sS'mentor'
p150
I82
sS"jen's"
p151
I82
sS'both\xe2\x80\xa6'
p152
I82
sS"i'm"
p153
I13
sS'postponed'
p154
I82
sS'changes'
p155
I82
sS'soga'
p156
I82
sS'costumbres'
p157
I82
sS'julio'
p158
I81
sS'fantastic'
p159
I80
sS'm\xc3\xbasicos'
p160
I82
sS'campaign'
p161
I82
sS'selen'
p162
I82
sS'julie'
p163
I82
sS'graders'
p164
I78
sS'19.6'
p165
I82
sS'strap'
p166
I82
sS'bro'
p167
I79
sS'insta'
p168
I82
sS'thursday'
p169
I82
sS'opposes\xe2\x80\xa6'
p170
I82
sS'actions'
p171
I82
sS'total'
p172
I81
sS'brb'
p173
I82
sS'hoping'
p174
I82
sS'sarah'
p175
I82
sS'rancho'
p176
I81
sS'would'
p177
I59
sS'army'
p178
I82
sS'remainder'
p179
I82
sS'ac\xc3\xa1'
p180
I82
sS'negative'
p181
I82
sS'latin-american'
p182
I82
sS'cali'
p183
I82
sS'call'
p184
I77
sS'typo'
p185
I82
sS'recommend'
p186
I82
sS'survive'
p187
I82
sS'25th'
p188
I82
sS'type'
p189
I81
sS'until'
p190
I79
sS'tras'
p191
I82
sS'paperwork'
p192
I82
sS'saber'
p193
I81
sS'advance'
p194
I82
sS'successful'
p195
I82
sS'(8)'
p196
I82
sS'haha'
p197
I70
sS'wars'
p198
I81
sS'hurt'
p199
I81
sS'glass'
p200
I80
sS'berlin'
p201
I82
sS'warm'
p202
I82
sS'pecan'
p203
I82
sS'mather'
p204
I82
sS"off'"
p205
I82
sS'lord'
p206
I82
sS'amazing...and'
p207
I82
sS'hold'
p208
I81
sS'hola'
p209
I79
sS'must'
p210
I81
sS'me'
p211
I18
sS'sitar'
p212
I82
sS'mg'
p213
I82
sS'enjoying'
p214
I81
sS'word'
p215
I81
sS'room'
p216
I77
sS'skipping'
p217
I82
sS'hideous'
p218
I82
sS'setup'
p219
I82
sS'work'
p220
I53
sS'mi'
p221
I74
sS'worm'
p222
I82
sS'advocacy'
p223
I82
sS'detuviste'
p224
I82
sS'hizo'
p225
I81
sS'movies'
p226
I82
sS'locker'
p227
I82
sS'daft'
p228
I82
sS'nicki'
p229
I82
sS'ms'
p230
I82
sS'mr'
p231
I80
sS'my'
p232
I6
sS'example'
p233
I81
sS'shook'
p234
I82
sS'decorative'
p235
I82
sS'kyashew.i'
p236
I82
sS'wana'
p237
I82
sS'soooooo'
p238
I82
sS'give'
p239
I77
sS'calories'
p240
I82
sS'dolphin'
p241
I82
sS'organized'
p242
I82
sS'woman'
p243
I82
sS'want'
p244
I64
sS'keep'
p245
I78
sS'association'
p246
I82
sS'khighroller"'
p247
I82
sS'absolute'
p248
I81
sS'end'
p249
I78
sS'turn'
p250
I81
sS'complaining'
p251
I82
sS'travel'
p252
I82
sS'sitting'
p253
I80
sS'thinking:('
p254
I82
sS'damage'
p255
I82
sS'machine'
p256
I82
sS'the\xe2\x80\xa6'
p257
I75
sS'amazing'
p258
I61
sS'bunt'
p259
I81
sS'hop'
p260
I82
sS'answer'
p261
I80
sS'place'
p262
I71
sS'meet-'
p263
I82
sS'beach'
p264
I81
sS'charging'
p265
I81
sS'pizza'
p266
I74
sS'fever'
p267
I82
sS'beauty'
p268
I75
sS'cuisine'
p269
I82
sS'mess'
p270
I80
sS'insecure'
p271
I82
sS'after'
p272
I68
sS'vicious'
p273
I82
sS'lab'
p274
I82
sS'wrong'
p275
I79
sS'jumping'
p276
I82
sS'laugh*'
p277
I82
sS'creativity'
p278
I82
sS'midlands'
p279
I82
sS'president'
p280
I82
sS'law'
p281
I82
sS'wouldn\xe2\x80\x99t'
p282
I82
sS'parallel'
p283
I82
sS'las'
p284
I74
sS'bucks'
p285
I81
sS'chilled'
p286
I82
sS'margaritas'
p287
I77
sS'rousey'
p288
I82
sS'janis'
p289
I72
sS'wins'
p290
I80
sS'aliens'
p291
I82
sS'appreciate'
p292
I81
sS'lost'
p293
I79
sS'childhood'
p294
I82
sS'hasta'
p295
I82
sS'wink'
p296
I82
sS'\xc3\xbanica'
p297
I82
sS'green'
p298
I75
sS'non-optimised'
p299
I82
sS'suerte'
p300
I82
sS'democratic'
p301
I81
sS'order'
p302
I82
sS'wind'
p303
I82
sS'wine'
p304
I72
sS'salon'
p305
I74
sS'office'
p306
I81
sS'wut'
p307
I82
sS'dejen'
p308
I82
sS'over'
p309
I65
sS'fall'
p310
I81
sS'satisfied'
p311
I82
sS'tillamook'
p312
I82
sS'clave'
p313
I82
sS'ears"'
p314
I82
sS'ma\xc3\xb1ana'
p315
I82
sS'here.fucking'
p316
I82
sS'mayor'
p317
I81
sS'playhouse'
p318
I22
sS'scoring'
p319
I82
sS'meetup'
p320
I82
sS'venti'
p321
I82
sS'fit'
p322
I81
sS'reflection'
p323
I82
sS'somewhere'
p324
I81
sS'fix'
p325
I79
sS'denver'
p326
I82
sS'writing'
p327
I81
sS'better'
p328
I63
sS'\xd0\x9e\xd0\xbf\xd1\x83\xd0\xb1\xd0\xbb\xd0\xb8\xd0\xba\xd0\xbe\xd0\xb2\xd0\xb0\xd0\xbd\xd0\xbe'
p329
I81
sS'd\xc3\xadas'
p330
I80
sS'personas'
p331
I80
sS'jk\xee\x90\x94'
p332
I82
sS'pictu'
p333
I82
sS'weeks'
p334
I82
sS'fin'
p335
I78
sS'spice'
p336
I82
sS'split'
p337
I82
sS'then'
p338
I68
sS'them'
p339
I71
sS'iowa'
p340
I81
sS'combination'
p341
I82
sS'decidir'
p342
I82
sS'weakness'
p343
I82
sS'workout'
p344
I79
sS're-watching'
p345
I82
sS"we'll"
p346
I82
sS'esperan'
p347
I82
sS'break'
p348
I78
sS'band'
p349
I82
sS'bang'
p350
I82
sS'pasan'
p351
I82
sS'therapy'
p352
I81
sS'wednesdays'
p353
I82
sS'they'
p354
I50
sS':(('
p355
I82
sS'good?"'
p356
I82
sS'potate-tates'
p357
I82
sS'tourism'
p358
I82
sS'silver'
p359
I82
sS'bank'
p360
I82
sS'bread'
p361
I80
sS'whoop'
p362
I82
sS'rocky'
p363
I82
sS'sleepless'
p364
I81
sS'lucy'
p365
I81
sS'detroit'
p366
I82
sS'rocks'
p367
I82
sS'explode'
p368
I82
sS'bono'
p369
I82
sS'fitness'
p370
I63
sS'addicted'
p371
I82
sS'went'
p372
I78
sS'vidas'
p373
I82
sS'side'
p374
I80
sS'mean'
p375
I78
sS"'ill"
p376
I82
sS'proposing'
p377
I82
sS'gunna'
p378
I82
sS'series'
p379
I81
sS'impede'
p380
I82
sS'coward'
p381
I82
sS'celebrating'
p382
I79
sS'taught'
p383
I81
sS'dubstep'
p384
I81
sS'forgot'
p385
I80
sS'mikala'
p386
I82
sS'ghosts'
p387
I82
sS'sfsu'
p388
I82
sS'saturday'
p389
I78
sS'whip'
p390
I82
sS'rt'
p391
I75
sS'so\xe2\x80\xa6'
p392
I81
sS'driving'
p393
I80
sS'display'
p394
I82
sS'saludarte'
p395
I82
sS'god'
p396
I76
sS'timers'
p397
I82
sS'trainers'
p398
I82
sS'george'
p399
I82
sS'strangers'
p400
I82
sS'conoscas'
p401
I82
sS'amaranth'
p402
I82
sS'daniel'
p403
I82
sS'suyas'
p404
I82
sS'smh'
p405
I81
sS'surprise'
p406
I81
sS'rn'
p407
I79
sS"joe's)"
p408
I80
sS'venezuela'
p409
I82
sS'ella'
p410
I82
sS'rainbowroom'
p411
I82
sS'foundation'
p412
I82
sS'md)'
p413
I82
sS'turning'
p414
I82
sS"you're"
p415
I71
sS'veto'
p416
I82
sS'tops'
p417
I82
sS',91101\n493252555955109888,thebigcafeteria,2014-07-27'
p418
I82
sS'eternal'
p419
I82
sS'given'
p420
I82
sS'free'
p421
I77
sS'bailar'
p422
I82
sS'"hey'
p423
I82
sS'playing'
p424
I82
sS'elle'
p425
I82
sS"people's"
p426
I82
sS'estimate'
p427
I82
sS'wanted'
p428
I78
sS'storm'
p429
I82
sS'fresca'
p430
I82
sS'skin"'
p431
I80
sS'bowl"'
p432
I82
sS'andaconda'
p433
I82
sS'ate'
p434
I81
sS'w/margaritas'
p435
I82
sS'dugh'
p436
I82
sS'starts'
p437
I81
sS'r8'
p438
I82
sS'days'
p439
I74
sS'shush'
p440
I82
sS'"this'
p441
I82
sS'musicians'
p442
I80
sS"today's"
p443
I82
sS'arrived'
p444
I82
sS'diggers'
p445
I82
sS'(at'
p446
I63
sS'hora'
p447
I82
sS'already'
p448
I75
sS'indigenous'
p449
I82
sS'grade'
p450
I81
sS'buddywatts'
p451
I82
sS'lettuce'
p452
I82
sS'featured'
p453
I77
sS'floors'
p454
I82
sS'\xec\xb9\x9c\xea\xb5\xac\xeb\x9e\x91'
p455
I82
sS'delicious'
p456
I81
sS'sober'
p457
I82
sS'knifes'
p458
I82
sS'time<3'
p459
I82
sS'basketball'
p460
I81
sS'bonita'
p461
I82
sS'service'
p462
I82
sS"grammy's"
p463
I82
sS'-your'
p464
I82
sS'top'
p465
I82
sS'deutsch'
p466
I82
sS'girls'
p467
I76
sS'elevator'
p468
I82
sS'touting'
p469
I82
sS'best-written'
p470
I82
sS'needed'
p471
I81
sS'jamba'
p472
I81
sS'ton'
p473
I82
sS'too'
p474
I67
sS'break...lol'
p475
I82
sS'hollywood'
p476
I82
sS'legs'
p477
I82
sS'monicas'
p478
I82
sS'listen'
p479
I80
sS'kiwi'
p480
I82
sS'murder'
p481
I82
sS'research...totally'
p482
I82
sS'collapse'
p483
I82
sS'juventud'
p484
I82
sS'happily'
p485
I82
sS'tooo'
p486
I82
sS'gym'
p487
I71
sS'coffee+random'
p488
I82
sS'\xee\x80\x91'
p489
I82
sS'took'
p490
I79
sS'wisdom'
p491
I82
sS'somewhat'
p492
I82
sS'wardrobe'
p493
I82
sS"valentina's"
p494
I82
sS'alrighty'
p495
I82
sS'dowwwwnnn'
p496
I82
sS'begins'
p497
I82
sS'distance'
p498
I82
sS'trek'
p499
I81
sS'kidnaps'
p500
I82
sS'target'
p501
I82
sS'studdard'
p502
I81
sS'bloated'
p503
I82
sS'thx'
p504
I82
sS'tree'
p505
I80
sS'likely'
p506
I81
sS'nations'
p507
I82
sS'project'
p508
I82
sS'matter'
p509
I81
sS'fabulous'
p510
I81
sS'silly'
p511
I82
sS'speaking'
p512
I81
sS'historical'
p513
I82
sS'9:30am'
p514
I82
sS'feeling'
p515
I76
sS'tipping'
p516
I82
sS'out:"german'
p517
I82
sS'mini'
p518
I81
sS'rad'
p519
I81
sS'fashion'
p520
I81
sS'sees'
p521
I80
sS'nutrition'
p522
I82
sS'runner'
p523
I81
sS'ruckus'
p524
I82
sS'mind'
p525
I76
sS'mine'
p526
I79
sS'talking'
p527
I77
sS'bicicleta'
p528
I82
sS'"holy'
p529
I82
sS'rap'
p530
I82
sS'seen'
p531
I81
sS'mins'
p532
I82
sS'mint'
p533
I82
sS'tells'
p534
I82
sS'ray'
p535
I82
sS'forced'
p536
I82
sS'maxx'
p537
I80
sS'strength'
p538
I82
sS'carmz'
p539
I82
sS'laden'
p540
I82
sS'caff\xc3\xa9'
p541
I79
sS'lattes'
p542
I82
sS'-'
p543
I47
sS'snow'
p544
I59
sS'a...duck'
p545
I82
sS'specs'
p546
I82
sS'bengas'
p547
I82
sS'recommended'
p548
I81
sS'contact'
p549
I81
sS'luxury'
p550
I82
sS'gotcha'
p551
I82
sS'blue'
p552
I79
sS'though'
p553
I81
sS'screwing'
p554
I82
sS'rappers'
p555
I82
sS'outcome'
p556
I82
sS'sue'
p557
I81
sS'assholes."'
p558
I82
sS'anatomy'
p559
I82
sS'joplin"'
p560
I77
sS'serlo'
p561
I82
sS'germany'
p562
I82
sS'middlebrooks'
p563
I82
sS'retaining'
p564
I82
sS'coil'
p565
I82
sS'spin'
p566
I82
sS'coin'
p567
I82
sS'jean'
p568
I82
sS'sub'
p569
I82
sS'7am'
p570
I82
sS'davines'
p571
I82
sS'\xe2\x9c\xa8\xe2\x9c\xa8\xe2\x9c\xa8'
p572
I82
sS'richard'
p573
I82
sS'4.43'
p574
I82
sS'quedar\xc3\xa1s'
p575
I82
sS'sunrises'
p576
I82
sS'\xd0\xb2\xd1\x81\xd1\x82\xd1\x80\xd0\xb5\xd1\x87\xd0\xb0\xd0\xb9'
p577
I82
sS'alumni'
p578
I82
sS'dog'
p579
I79
sS"val's"
p580
I82
sS'yours'
p581
I82
sS'jalapenos'
p582
I82
sS'definitely'
p583
I81
sS'(hate'
p584
I82
sS'dos'
p585
I82
sS'"soup'
p586
I82
sS'clocked'
p587
I82
sS'came'
p588
I78
sS'marvel'
p589
I82
sS'flakis'
p590
I82
sS'saying'
p591
I81
sS'bomb'
p592
I80
sS'coeur'
p593
I81
sS'visitor'
p594
I81
sS'meetings'
p595
I79
sS'queen'
p596
I82
sS'sweating'
p597
I82
sS'helping'
p598
I82
sS'dinna'
p599
I82
sS'radio'
p600
I82
sS'poison'
p601
I82
sS'stomach'
p602
I82
sS'"cirque-a-palooza"'
p603
I81
sS'earth'
p604
I81
sS'tempted'
p605
I82
sS'enjoyed'
p606
I82
sS'presidencial'
p607
I82
sS'lessons'
p608
I82
sS'orleans'
p609
I82
sS'busy'
p610
I80
sS'divinity'
p611
I82
sS'crossfit'
p612
I77
sS'cousins'
p613
I81
sS'explain'
p614
I81
sS'booty>>>>>'
p615
I82
sS'pre-dinner'
p616
I82
sS'sugar'
p617
I82
sS'rico'
p618
I82
sS'judged'
p619
I82
sS'rich'
p620
I81
sS'game.....errrr'
p621
I82
sS'folks'
p622
I79
sS'chipotle'
p623
I82
sS'p\xc3\xa1senme'
p624
I82
sS'*evil'
p625
I82
sS'personality'
p626
I82
sS'rfffft!\xe2\x80\x9d'
p627
I82
sS'monica'
p628
I80
sS'\xc3\x81ngeles'
p629
I82
sS'godzilla'
p630
I82
sS'j-squared'
p631
I82
sS'dame?\xe2\x80\x9d'
p632
I82
sS'de'
p633
I38
sS'watch'
p634
I72
sS'dc'
p635
I82
sS'coast'
p636
I81
sS'shutting'
p637
I82
sS'bei'
p638
I82
sS'watermelon'
p639
I82
sS'lurrkinnggg'
p640
I82
sS'wedding'
p641
I80
sS'midterms'
p642
I82
sS'dr'
p643
I80
sS'sabrina'
p644
I81
sS'becomes'
p645
I82
sS'unfortunately'
p646
I81
sS'earl'
p647
I82
sS'bat'
p648
I82
sS'bar'
p649
I80
sS"allyson's"
p650
I82
sS'greens'
p651
I70
sS'mientras'
p652
I82
sS'roasted'
p653
I82
sS'officially'
p654
I81
sS'boggling'
p655
I82
sS'lookout'
p656
I82
sS'patch'
p657
I80
sS'bag'
p658
I80
sS'bad'
p659
I74
sS'bae'
p660
I80
sS'men)'
p661
I82
sS'shots'
p662
I82
sS'steak'
p663
I81
sS'yasss'
p664
I82
sS'bleu'
p665
I73
sS'momentos'
p666
I82
sS'exnaeaaaaan'
p667
I82
sS'mine"\xe2\x80\x9d'
p668
I82
sS'reference'
p669
I82
sS'med'
p670
I82
sS'w/'
p671
I34
sS'nut'
p672
I81
sS'testing'
p673
I82
sS'ingri'
p674
I82
sS'lawlers'
p675
I82
sS'kiss_thestars'
p676
I82
sS'checks'
p677
I82
sS'pilot'
p678
I82
sS'result'
p679
I82
sS'fail'
p680
I82
sS'nug'
p681
I82
sS'vacaciones'
p682
I82
sS'best'
p683
I55
sS'brazil'
p684
I81
sS'said'
p685
I72
sS'lots'
p686
I82
sS'away'
p687
I77
sS'rawest'
p688
I82
sS't-mobile'
p689
I82
sS'sites'
p690
I82
sS'bien'
p691
I78
sS"there's"
p692
I78
sS'hopefully'
p693
I82
sS'364'
p694
I82
sS'procrastinating'
p695
I82
sS'mothers'
p696
I82
sS'alguien'
p697
I81
sS'viernes'
p698
I77
sS'hah'
p699
I82
sS'we'
p700
I43
sS'men'
p701
I81
sS'omg'
p702
I75
sS'loves'
p703
I82
sS'sera'
p704
I82
sS'weak'
p705
I81
sS'boss'
p706
I79
sS'oms'
p707
I82
sS'wv'
p708
I82
sS'hazmat'
p709
I82
sS'drew'
p710
I82
sS'wtf'
p711
I82
sS'visited'
p712
I82
sS'dedication'
p713
I82
sS'cousin'
p714
I80
sS'picking'
p715
I76
sS'unified\xe2\x80\xa6'
p716
I82
sS'kitchen'
p717
I78
sS'pity'
p718
I82
sS'christmas:)'
p719
I82
sS'accident'
p720
I82
sS'met'
p721
I81
sS'fault'
p722
I82
sS'adventures'
p723
I82
sS'against'
p724
I82
sS'non-native'
p725
I82
sS'una'
p726
I79
sS'aprender'
p727
I82
sS'cob'
p728
I82
sS'games'
p729
I81
sS'lookin'
p730
I81
sS'asked'
p731
I79
sS'con'
p732
I75
sS'yaay'
p733
I82
sS'"beatbox/bloom"'
p734
I82
sS'tone'
p735
I82
sS'greens"'
p736
I82
sS'elf'
p737
I82
sS'irresponsible'
p738
I82
sS'greens)'
p739
I81
sS'+mad'
p740
I82
sS'levanto'
p741
I82
sS'hers'
p742
I82
sS'camisa'
p743
I82
sS'trust'
p744
I82
sS'speak'
p745
I82
sS'conference'
p746
I82
sS'nosedive'
p747
I82
sS'clip'
p748
I82
sS'"you'
p749
I82
sS'grupos'
p750
I82
sS'shout'
p751
I82
sS'been'
p752
I61
sS'quickly'
p753
I82
sS'beer'
p754
I81
sS'much'
p755
I58
sS'interest'
p756
I82
sS'pastores'
p757
I82
sS'lovely'
p758
I80
sS'foulll'
p759
I82
sS'"one'
p760
I77
sS'cub'
p761
I82
sS'dry'
p762
I82
sS'life'
p763
I62
sS'desaf\xc3\xado'
p764
I82
sS'innocent'
p765
I82
sS'mushroom'
p766
I81
sS'caf\xc3\xa9'
p767
I81
sS'uh-oh'
p768
I82
sS'knowledge'
p769
I82
sS'prison'
p770
I82
sS'ariana'
p771
I81
sS'dave'
p772
I82
sS'craft'
p773
I82
sS'puedes'
p774
I81
sS'jewels'
p775
I82
sS'chile'
p776
I80
sS'catch'
p777
I82
sS'worked'
p778
I82
sS'aguayo'
p779
I80
sS'church)'
p780
I82
sS'chill'
p781
I82
sS'physician'
p782
I82
sS'save'
p783
I81
sS'doppelg\xc3\xa4nger)'
p784
I82
sS'reinstate'
p785
I82
sS'raspy'
p786
I82
sS'1580am'
p787
I82
sS'newest'
p788
I82
sS'n'
p789
I81
sS'-------'
p790
I82
sS'near'
p791
I81
sS'harley'
p792
I82
sS'puesta'
p793
I82
sS'voice'
p794
I80
sS'study'
p795
I80
sS'cab'
p796
I82
sS'remembering'
p797
I82
sS'biotech'
p798
I82
sS'cheeers'
p799
I82
sS'cane'
p800
I82
sS'"a'
p801
I63
sS'played'
p802
I81
sS'flamcis'
p803
I82
sS'is'
p804
I16
sS'sushi'
p805
I77
sS'it'
p806
I20
sS'tease'
p807
I82
sS'player'
p808
I79
sS'cant'
p809
I76
sS'im'
p810
I70
sS'1era'
p811
I82
sS'in'
p812
I9
sS'united\xe2\x80\xa6'
p813
I82
sS'seattle'
p814
I81
sS'id'
p815
I82
sS'ig'
p816
I82
sS'if'
p817
I41
sS'memorial'
p818
I82
sS'37"'
p819
I82
sS'wainright'
p820
I81
sS'credit'
p821
I82
sS'things'
p822
I77
sS'make'
p823
I67
sS'polaroid'
p824
I82
sS'bella'
p825
I82
sS'equiped'
p826
I82
sS'backed'
p827
I82
sS'caffe'
p828
I25
sS'hahah'
p829
I81
sS'avoids'
p830
I82
sS'thaanks'
p831
I82
sS'several'
p832
I82
sS'showing'
p833
I82
sS'european'
p834
I82
sS'lunes'
p835
I81
sS'yaz(h)'
p836
I82
sS'mujeres'
p837
I82
sS'me*worker'
p838
I82
sS'sacramento'
p839
I82
sS'declaring'
p840
I82
sS'pick'
p841
I81
sS'hang'
p842
I80
sS'coachella'
p843
I81
sS'rain'
p844
I79
sS'doin'
p845
I82
sS'portal'
p846
I81
sS'tuna'
p847
I82
sS'opportunity'
p848
I82
sS'aka'
p849
I81
sS'cocoa'
p850
I82
sS'kid'
p851
I75
sS'butter'
p852
I82
sS'circunstancias'
p853
I82
sS'sunburned'
p854
I82
sS'smokey'
p855
I81
sS"mother's"
p856
I82
sS'1600'
p857
I82
sS'congrats'
p858
I81
sS'mentors'
p859
I81
sS'tho'
p860
I82
sS'burgers'
p861
I82
sS'client'
p862
I80
sS'mother'
p863
I82
sS'the'
p864
I1
sS'musical'
p865
I78
sS'\xc3\xa0s'
p866
I82
sS'left'
p867
I78
sS'pinnocchio'
p868
I82
sS'criticism'
p869
I82
sS'kale'
p870
I82
sS'just'
p871
I26
sS'pouya'
p872
I82
sS'photo'
p873
I77
sS'sleepy'
p874
I81
sS'peeve'
p875
I82
sS'gravity'
p876
I82
sS'queenette'
p877
I82
sS'grades'
p878
I82
sS'thanks'
p879
I74
sS'human'
p880
I82
sS'facts'
p881
I82
sS'yep'
p882
I81
sS'yes'
p883
I71
sS'pimper'
p884
I82
sS'yet'
p885
I77
sS'50th'
p886
I82
sS's\xc3\xad'
p887
I77
sS'note'
p888
I82
sS'antes'
p889
I82
sS'burns'
p890
I82
sS'hills'
p891
I81
sS'dining'
p892
I82
sS'profecional'
p893
I82
sS'thick'
p894
I82
sS'had'
p895
I53
sS'sochi'
p896
I82
sS'5s'
p897
I82
sS'passive'
p898
I82
sS'hay'
p899
I79
sS'chartreuse'
p900
I82
sS'board'
p901
I82
sS'easy'
p902
I81
sS'starbucks)'
p903
I78
sS'has'
p904
I66
sS'hat'
p905
I82
sS'wendythegr8'
p906
I81
sS'gave'
p907
I79
sS'breaky'
p908
I82
sS'turquoise'
p909
I82
sS'flourless'
p910
I82
sS'bands'
p911
I82
sS'comprend\xc3\xad'
p912
I82
sS'online'
p913
I82
sS'comparisons'
p914
I82
sS'amarillo'
p915
I82
sS'whichever'
p916
I82
sS"muffley'"
p917
I82
sS"boy+peet's"
p918
I82
sS'birth'
p919
I82
sS'wanting'
p920
I82
sS'banda'
p921
I81
sS'mis'
p922
I82
sS'dreams'
p923
I80
sS'apart'
p924
I82
sS'shoulder'
p925
I82
sS'bluberry'
p926
I82
sS'-_-'
p927
I82
sS'story"'
p928
I82
sS'performing'
p929
I81
sS'buzzer'
p930
I82
sS'haunt'
p931
I82
sS'specific'
p932
I82
sS'remind'
p933
I82
sS'salvadore\xc3\xb1o'
p934
I81
sS'ninguna'
p935
I82
sS'officer'
p936
I82
sS'night'
p937
I48
sS'amor'
p938
I82
sS'security'
p939
I82
sS'baisically'
p940
I82
sS'creen'
p941
I82
sS'right'
p942
I60
sS'old'
p943
I66
sS'deal'
p944
I78
sS'people'
p945
I54
sS'ustedes'
p946
I82
sS'hiciste'
p947
I82
sS'somehow'
p948
I82
sS'emails'
p949
I82
sS'clubs'
p950
I82
sS'election'
p951
I82
sS'escape'
p952
I82
sS'dear'
p953
I79
sS'nevaaaaaa'
p954
I82
sS'creep'
p955
I81
sS'tripped'
p956
I82
sS'denies'
p957
I82
sS'sprawl'
p958
I82
sS'txt'
p959
I82
sS'cooper'
p960
I82
sS'for'
p961
I11
sS'purple'
p962
I81
sS'opposite'
p963
I82
sS'fox'
p964
I82
sS'gooch'
p965
I82
sS'/'
p966
I81
sS'everything'
p967
I79
sS'asking'
p968
I82
sS'shakespeare'
p969
I80
sS'treadmill'
p970
I80
sS'convict'
p971
I82
sS'jeans'
p972
I82
sS'foo'
p973
I82
sS'christmas'
p974
I71
sS'colleges)'
p975
I82
sS'vdd'
p976
I82
sS'20:07:05.0,34.14255504,-118.13541527,4636.01,pasadena'
p977
I82
sS'sherman'
p978
I82
sS'pls'
p979
I81
sS'queda'
p980
I82
sS'club)'
p981
I82
sS'corn'
p982
I82
sS'burn'
p983
I82
sS'plz'
p984
I82
sS'blooper'
p985
I82
sS'starring'
p986
I82
sS'mocha...now'
p987
I82
sS'losing'
p988
I81
sS'freese'
p989
I82
sS'post'
p990
I80
sS'super'
p991
I75
sS'obo'
p992
I82
sS'oreo'
p993
I82
sS'yelling'
p994
I82
sS'capsu'
p995
I82
sS'me\xe2\x80\x9d'
p996
I82
sS'coral'
p997
I82
sS'months'
p998
I82
sS'o'
p999
I80
sS'sizzling'
p1000
I82
sS';-)'
p1001
I82
sS'dinner'
p1002
I67
sS'regretting'
p1003
I82
sS'coiled'
p1004
I82
sS'afternoon'
p1005
I80
sS'stoked'
p1006
I82
sS'\xd0\xbe\xd1\x82'
p1007
I82
sS'mismo'
p1008
I82
sS'curry'
p1009
I82
sS'automatically'
p1010
I82
sS'bath'
p1011
I82
sS'aber'
p1012
I82
sS'presence'
p1013
I82
sS'civil'
p1014
I82
sS'liek'
p1015
I82
sS'selfie'
p1016
I78
sS'float'
p1017
I82
sS'profession'
p1018
I82
sS'sol'
p1019
I81
sS'soo'
p1020
I81
sS'son'
p1021
I80
sS'down'
p1022
I72
sS'entrepreneur'
p1023
I82
sS'soy'
p1024
I82
sS'for2'
p1025
I82
sS'shoots'
p1026
I82
sS'persistente'
p1027
I82
sS'cubicle'
p1028
I82
sS'evaluator'
p1029
I82
sS'often'
p1030
I81
sS'cleared'
p1031
I82
sS'lashes'
p1032
I82
sS'bayou'
p1033
I82
sS'creamery'
p1034
I82
sS'support'
p1035
I79
sS'altitude'
p1036
I82
sS'merkin'
p1037
I82
sS'abrazo'
p1038
I82
sS'fight'
p1039
I81
sS'gig'
p1040
I82
sS'absolutely'
p1041
I81
sS'physicists'
p1042
I82
sS'way'
p1043
I69
sS'wax'
p1044
I81
sS'jane'
p1045
I82
sS'music'
p1046
I72
sS'gurus'
p1047
I82
sS'was'
p1048
I35
sS'war'
p1049
I82
sS'happy'
p1050
I56
sS'intolerance'
p1051
I82
sS'head'
p1052
I79
sS'guiis'
p1053
I82
sS'ellos'
p1054
I82
sS'diggity'
p1055
I82
sS'batman'
p1056
I82
sS'was\xe2\x80\xa6'
p1057
I81
sS'notifications'
p1058
I81
sS'seguir'
p1059
I82
sS'hear'
p1060
I82
sS'dead'
p1061
I82
sS'tacky'
p1062
I82
sS'robar'
p1063
I82
sS'approval'
p1064
I82
sS'true'
p1065
I77
sS"'concept'"
p1066
I82
sS'candidato'
p1067
I82
sS'today...fingers'
p1068
I82
sS'fuzzy)'
p1069
I82
sS"else's"
p1070
I82
sS'urth\xc3\xa9'
p1071
I82
sS'undefeated'
p1072
I82
sS'inside'
p1073
I82
sS'attached'
p1074
I82
sS'devices'
p1075
I82
sS'tell'
p1076
I75
sS'crusin'
p1077
I82
sS'nerdy'
p1078
I82
sS'"le'
p1079
I82
sS'offending'
p1080
I82
sS'duet'
p1081
I82
sS'"didn\'t'
p1082
I82
sS'$'
p1083
I82
sS'inexorable'
p1084
I82
sS'hist\xc3\xb3ria'
p1085
I82
sS'pontiff'
p1086
I82
sS'l.a.weekend'
p1087
I82
sS'minaj'
p1088
I82
sS'\xd0\x94\xd0\xbe\xd0\xb1\xd1\x80\xd0\xbe\xd0\xb5'
p1089
I82
sS'novel'
p1090
I82
sS'drive'
p1091
I79
sS'her\xe2\x9d\xa4\xef\xb8\x8f\xe2\x98\x95\xef\xb8\x8f'
p1092
I82
sS'exist'
p1093
I82
sS'fashioned'
p1094
I82
sS'dierks'
p1095
I82
sS'entero'
p1096
I82
sS'annoying'
p1097
I81
sS'check'
p1098
I80
sS'shit'
p1099
I75
sS'micelrr'
p1100
I82
sS'derecho'
p1101
I81
sS'holaaaa'
p1102
I82
sS'nl'
p1103
I81
sS'holy'
p1104
I79
sS'dying'
p1105
I82
sS'no'
p1106
I40
sS'na'
p1107
I82
sS'commercials'
p1108
I81
sS'nc'
p1109
I82
sS'when'
p1110
I39
sS'reality'
p1111
I81
sS'til'
p1112
I80
sS'tim'
p1113
I82
sS'colonizers'
p1114
I82
sS'pasadena'
p1115
I10
sS'winning'
p1116
I82
sS'holding'
p1117
I82
sS'brings'
p1118
I82
sS'test'
p1119
I81
sS'tie'
p1120
I82
sS'hangin'
p1121
I82
sS'smell'
p1122
I82
sS'roll'
p1123
I80
sS'roomies'
p1124
I82
sS'garland'
p1125
I82
sS'estudiar'
p1126
I82
sS'models'
p1127
I82
sS'football'
p1128
I80
sS'convincing'
p1129
I82
sS"let's"
p1130
I78
sS'ich'
p1131
I82
sS'intent'
p1132
I82
sS'scores'
p1133
I82
sS'pizzas'
p1134
I82
sS'weekend'
p1135
I75
sS'dena'
p1136
I80
sS'died'
p1137
I82
sS'puss'
p1138
I82
sS'domingo'
p1139
I82
sS'faster'
p1140
I81
sS'phone'
p1141
I81
sS'proposed'
p1142
I82
sS'gap'
p1143
I82
sS'pegolo'
p1144
I82
sS'together'
p1145
I81
sS"n'"
p1146
I80
sS'levantar'
p1147
I82
sS'off"'
p1148
I82
sS':)"'
p1149
I82
sS'fsu'
p1150
I82
sS'reception'
p1151
I82
sS'time'
p1152
I30
sS'serious'
p1153
I82
sS'tenemos'
p1154
I82
sS'phlegm'
p1155
I82
sS'neighbors'
p1156
I82
sS':/'
p1157
I81
sS':('
p1158
I79
sS':)'
p1159
I67
sS'sandia'
p1160
I82
sS'themed'
p1161
I82
sS'dance'
p1162
I81
sS'skip'
p1163
I82
sS'rob'
p1164
I82
sS'truncated'
p1165
I82
sS'madison'
p1166
I82
sS'monterrey'
p1167
I82
sS'laura'
p1168
I80
sS'roy'
p1169
I82
sS'manager'
p1170
I82
sS'menos'
p1171
I81
sS'ice'
p1172
I75
sS'muppet'
p1173
I81
sS'row'
p1174
I81
sS'macht'
p1175
I82
sS'zona'
p1176
I55
sS'corazon?\xe2\x80\x9drt'
p1177
I82
sS'yummy'
p1178
I80
sS'hump'
p1179
I82
sS'obamacare'
p1180
I81
sS'thighs'
p1181
I82
sS'aclara'
p1182
I82
sS'veg'
p1183
I82
sS'finally'
p1184
I70
sS'relaci\xc3\xb3n'
p1185
I82
sS"must've"
p1186
I82
sS'sing'
p1187
I82
sS'96'
p1188
I82
sS'brown'
p1189
I81
sS':o'
p1190
I82
sS'm\xc3\xa1ximo."'
p1191
I82
sS'advantage'
p1192
I82
sS':d'
p1193
I82
sS'word)'
p1194
I82
sS'espa\xc3\xb1ol'
p1195
I82
sS'keeping'
p1196
I82
sS'choice'
p1197
I82
sS'chargers'
p1198
I82
sS'vegas'
p1199
I82
sS'cumple'
p1200
I80
sS'join'
p1201
I82
sS'trouble'
p1202
I80
sS'blast'
p1203
I81
sS':p'
p1204
I82
sS'minute'
p1205
I82
sS'cool'
p1206
I79
sS'dating'
p1207
I82
sS'cathie'
p1208
I82
sS'impressive'
p1209
I81
sS'did'
p1210
I69
sS'turns'
p1211
I81
sS'rights'
p1212
I82
sS'peeps'
p1213
I81
sS'brother'
p1214
I81
sS'turnt'
p1215
I82
sS'forgets'
p1216
I82
sS'leave'
p1217
I81
sS'p'
p1218
I82
sS'soooo'
p1219
I82
sS'settle'
p1220
I82
sS'team'
p1221
I75
sS'quick'
p1222
I81
sS'guy'
p1223
I74
sS'4-5th'
p1224
I82
sS'round'
p1225
I81
sS'yall'
p1226
I81
sS'parked'
p1227
I81
sS'distasteful'
p1228
I82
sS'pork'
p1229
I82
sS'accomplishment'
p1230
I82
sS'says'
p1231
I80
sS'regret'
p1232
I82
sS"winchell's"
p1233
I81
sS'winding\xe2\x80\xa6'
p1234
I82
sS'discover'
p1235
I82
sS'sigo'
p1236
I81
sS'\xee\x90\x9d'
p1237
I82
sS'colin'
p1238
I82
sS'dried'
p1239
I82
sS'comienza'
p1240
I82
sS'hace'
p1241
I81
sS'trent'
p1242
I81
sS'run'
p1243
I76
sS'chicken'
p1244
I82
sS'garzpacho'
p1245
I82
sS'drinks'
p1246
I81
sS'hymn'
p1247
I82
sS'celestino'
p1248
I79
sS'curse'
p1249
I82
sS'snacks'
p1250
I81
sS'rapping'
p1251
I82
sS'mt'
p1252
I82
sS'bc'
p1253
I78
sS'uniform'
p1254
I82
sS'current'
p1255
I80
sS'suspect'
p1256
I82
sS'goes'
p1257
I78
sS'del'
p1258
I74
sS'falling'
p1259
I81
sS'aburrimiento'
p1260
I82
sS'badge'
p1261
I82
sS'filled'
p1262
I82
sS'..or'
p1263
I82
sS'\xec\x9a\xb8\xeb\x8f\x99\xeb\x84\xa4'
p1264
I82
sS'learn'
p1265
I81
sS'florals\xe2\x80\xa6'
p1266
I82
sS'french'
p1267
I82
sS'groundcover'
p1268
I82
sS'water'
p1269
I82
sS'raz\xc3\xb3n'
p1270
I82
sS'baseball'
p1271
I82
sS'obsessing'
p1272
I82
sS'along'
p1273
I81
sS'aunque'
p1274
I82
sS'change'
p1275
I80
sS'wait'
p1276
I73
sS'boy'
p1277
I78
sS',91101\n500146548655681538,ralphlarsen_10,2014-08-15'
p1278
I82
sS'3:20'
p1279
I82
sS'thirty'
p1280
I82
sS'healthy'
p1281
I79
sS'pearls'
p1282
I80
sS'buca'
p1283
I82
sS'lakers'
p1284
I82
sS'bow'
p1285
I82
sS'bangs'
p1286
I82
sS'boo'
p1287
I81
sS'usually'
p1288
I82
sS'weird'
p1289
I81
sS'norte-americana'
p1290
I82
sS'massage'
p1291
I77
sS'v\xc3\xa9spera'
p1292
I82
sS'engineer'
p1293
I82
sS'percriptions\xee\x84\x9a'
p1294
I82
sS'love'
p1295
I40
sS'slaughter\xe2\x80\xa6'
p1296
I82
sS'24\xe2\x80\xa6'
p1297
I82
sS'lending'
p1298
I82
sS'sincerely'
p1299
I82
sS'semana'
p1300
I75
sS'*come'
p1301
I82
sS'sky'
p1302
I82
sS'everybody'
p1303
I81
sS'bulbs'
p1304
I82
sS'siempre'
p1305
I82
sS'vivid'
p1306
I82
sS'working'
p1307
I78
sS'prove'
p1308
I82
sS'aye'
p1309
I82
sS'positive'
p1310
I82
sS'angry'
p1311
I81
sS"it'll"
p1312
I82
sS'visit'
p1313
I78
sS'only'
p1314
I53
sS'sports'
p1315
I80
sS"elliot's"
p1316
I82
sS'ca)'
p1317
I16
sS'vivir'
p1318
I82
sS'christmas"'
p1319
I64
sS'iphone'
p1320
I81
sS'wondering'
p1321
I80
sS'teeth'
p1322
I82
sS'thru'
p1323
I81
sS'prep'
p1324
I82
sS'today'
p1325
I28
sS'limoges'
p1326
I82
sS'introducing'
p1327
I82
sS'compa\xc3\xb1eros'
p1328
I82
sS'sharing'
p1329
I81
sS'love/hate'
p1330
I82
sS'ooc'
p1331
I82
sS'malas'
p1332
I82
sS'club'
p1333
I79
sS'share'
p1334
I81
sS'acceptable'
p1335
I82
sS'ooh'
p1336
I82
sS'oregon'
p1337
I82
sS'chocolate'
p1338
I78
sS'downtown'
p1339
I80
sS'daredevil'
p1340
I82
sS'ignorant'
p1341
I82
sS'luvs'
p1342
I82
sS'afff'
p1343
I82
sS'"german'
p1344
I80
sS'fly'
p1345
I82
sS'consiste'
p1346
I82
sS'anything'
p1347
I82
sS"workin'"
p1348
I82
sS'tokyo'
p1349
I80
sS'car'
p1350
I77
sS'pretend'
p1351
I82
sS'abortion'
p1352
I82
sS'soul'
p1353
I82
sS'cat'
p1354
I82
sS'"john'
p1355
I82
sS'soup'
p1356
I79
sS'judy'
p1357
I82
sS'sour'
p1358
I81
sS'can'
p1359
I56
sS'cabeza'
p1360
I82
sS'sabidur\xc3\xada'
p1361
I82
sS'making'
p1362
I78
sS'pickle'
p1363
I82
sS'placements'
p1364
I82
sS'\xe3\x85\x8b\xe3\x85\x8b'
p1365
I82
sS'heart'
p1366
I78
sS'crazy'
p1367
I81
sS'valentines'
p1368
I82
sS"tarantino's"
p1369
I79
sS'figure'
p1370
I80
sS'awesome'
p1371
I68
sS"didn't"
p1372
I76
sS'fuck'
p1373
I72
sS'agent'
p1374
I80
sS'sample'
p1375
I81
sS'heard'
p1376
I75
sS'posing'
p1377
I82
sS'dropped'
p1378
I81
sS'council'
p1379
I82
sS'gabbz'
p1380
I82
sS'dennis'
p1381
I82
sS'cardio'
p1382
I82
sS'exist\xc3\xada'
p1383
I82
sS'pink'
p1384
I82
sS'stunning'
p1385
I82
sS'sav_jean'
p1386
I82
sS'winter'
p1387
I81
sS'lluvia'
p1388
I81
sS'foul'
p1389
I82
sS'watching'
p1390
I74
sS'lounge'
p1391
I75
sS'till'
p1392
I79
sS'sunday'
p1393
I77
sS'llega'
p1394
I82
sS'pure'
p1395
I82
sS'elephant'
p1396
I82
sS'oraci\xc3\xb3n'
p1397
I82
sS'llego'
p1398
I79
sS'sworn'
p1399
I82
sS'idk'
p1400
I81
sS'map'
p1401
I82
sS'product'
p1402
I82
sS'mar'
p1403
I76
sS'mat'
p1404
I82
sS'may'
p1405
I74
sS'broad'
p1406
I82
sS'..\xe2\x80\x9drmft'
p1407
I82
sS'\xed\x88\xac\xea\xb3\xa0\xed\x95\x98\xeb\x9f\xac'
p1408
I82
sS'bank)'
p1409
I82
sS'latte'
p1410
I76
sS'mac'
p1411
I81
sS'birthday'
p1412
I65
sS'mad'
p1413
I79
sS'hombre'
p1414
I80
sS'date'
p1415
I66
sS'such'
p1416
I79
sS"usual'"
p1417
I82
sS'guys'
p1418
I71
sS'grow'
p1419
I82
sS'unbelievably'
p1420
I82
sS'man'
p1421
I73
sS'classroom'
p1422
I82
sS'stress'
p1423
I81
sS'remember'
p1424
I79
sS'johnson'
p1425
I82
sS'tbh'
p1426
I80
sS'whenever'
p1427
I81
sS'maybe'
p1428
I77
sS'busca'
p1429
I82
sS'awww'
p1430
I82
sS'su'
p1431
I81
sS'st'
p1432
I75
sS'q'
p1433
I80
sS'sabr\xc3\xa1s'
p1434
I82
sS'si'
p1435
I80
sS'so'
p1436
I24
sS'vaya'
p1437
I82
sS'african'
p1438
I82
sS'tall'
p1439
I82
sS'pulled'
p1440
I81
sS'yaaaas'
p1441
I82
sS'talk'
p1442
I76
sS'cute'
p1443
I76
sS'kodeine"'
p1444
I82
sS'manera'
p1445
I82
sS'ro'
p1446
I82
sS'respighi'
p1447
I82
sS'indeed'
p1448
I82
sS'haircut'
p1449
I82
sS'midnight'
p1450
I82
sS'years'
p1451
I79
sS'course'
p1452
I79
sS'kimmel'
p1453
I82
sS'schooler'
p1454
I82
sS'whats'
p1455
I82
sS'cold'
p1456
I77
sS'still'
p1457
I58
sS'birds'
p1458
I82
sS'gta'
p1459
I82
sS'apes'
p1460
I82
sS'group'
p1461
I74
sS'thank'
p1462
I68
sS'should.,91101\n429914227793756160,conarteest,2014-02-02'
p1463
I82
sS'how'
p1464
I50
sS'interesting'
p1465
I80
sS'animoo'
p1466
I82
sS'concert"'
p1467
I82
sS'hot'
p1468
I49
sS'auntie'
p1469
I81
sS'tejedor'
p1470
I81
sS'converstion'
p1471
I82
sS'lewis'
p1472
I82
sS'celebrate'
p1473
I81
sS'hometown'
p1474
I81
sS'mckinley'
p1475
I77
sS'ours'
p1476
I82
sS'old~~'
p1477
I82
sS'main'
p1478
I82
sS'norway'
p1479
I82
sS'mommy'
p1480
I81
sS'happened'
p1481
I82
sS'non'
p1482
I81
sS'johns'
p1483
I82
sS'09:48:33.0,34.14513008,-118.13711194,4636.01,about'
p1484
I82
sS'tucked'
p1485
I82
sS'3'
p1486
I66
sS'moms'
p1487
I82
sS'smarter'
p1488
I81
sS'introduce'
p1489
I82
sS'feelin'
p1490
I80
sS'lunch'
p1491
I63
sS'cucaracha'
p1492
I82
sS'waaait'
p1493
I82
sS'hamilton'
p1494
I76
sS'obscene'
p1495
I82
sS'saban'
p1496
I81
sS'half'
p1497
I78
sS'not'
p1498
I37
sS'kids)'
p1499
I82
sS'now'
p1500
I47
sS'bullshit'
p1501
I82
sS'nos'
p1502
I82
sS'wont'
p1503
I82
sS'term'
p1504
I82
sS'faulty'
p1505
I82
sS'xtra'
p1506
I82
sS'name'
p1507
I79
sS'thankful'
p1508
I82
sS'drop'
p1509
I79
sS'dr.giovanna'
p1510
I82
sS'basic'
p1511
I82
sS'alabanza'
p1512
I82
sS'rock'
p1513
I81
sS'hoy'
p1514
I81
sS'turtle'
p1515
I82
sS'el'
p1516
I51
sS'en'
p1517
I62
sS'eh'
p1518
I82
sS'maestros'
p1519
I81
sS'pol\xc3\xadticos'
p1520
I82
sS'yeah'
p1521
I77
sS'shleeep'
p1522
I82
sS'wrap'
p1523
I82
sS'catching'
p1524
I81
sS'ex'
p1525
I82
sS'begun'
p1526
I82
sS'year'
p1527
I64
sS'assumption'
p1528
I82
sS'girl'
p1529
I69
sS'obsession'
p1530
I82
sS'es'
p1531
I62
sS'album'
p1532
I82
sS'living'
p1533
I79
sS'ultimately'
p1534
I82
sS'opened'
p1535
I81
sS'3rd'
p1536
I81
sS'frightened'
p1537
I82
sS'lawyers'
p1538
I82
sS'looking'
p1539
I72
sS'bday'
p1540
I81
sS'seriously'
p1541
I80
sS'stupid'
p1542
I81
sS"shouldn't"
p1543
I82
sS'internet'
p1544
I82
sS'churches'
p1545
I82
sS'nudes'
p1546
I82
sS'managed'
p1547
I82
sS'overflowing'
p1548
I82
sS'~~^^\xea\xb7\xb8\xeb\xa6\xb0\xed\x8b\xb0'
p1549
I82
sS'earlier'
p1550
I82
sS'monster'
p1551
I80
sS'thong'
p1552
I82
sS'aj_santos2'
p1553
I82
sS'million'
p1554
I82
sS'lmu'
p1555
I82
sS'quite'
p1556
I81
sS'vayan'
p1557
I82
sS'lmk'
p1558
I82
sS'california'
p1559
I79
sS'feel\xe2\x80\xa6'
p1560
I82
sS'brooke'
p1561
I82
sS'amigos'
p1562
I82
sS'keith'
p1563
I82
sS'card'
p1564
I81
sS'care'
p1565
I79
sS"livin'"
p1566
I82
sS'training'
p1567
I79
sS'gusta'
p1568
I82
sS'show)'
p1569
I82
sS'language'
p1570
I77
sS'yup'
p1571
I82
sS'meet-up'
p1572
I80
sS'headphones'
p1573
I82
sS'punk'
p1574
I82
sS'honest'
p1575
I82
sS'thing'
p1576
I73
sS'yum'
p1577
I81
sS'recompense'
p1578
I82
sS'blope."'
p1579
I82
sS'yess'
p1580
I82
sS'think'
p1581
I61
sS'first'
p1582
I60
sS'origin'
p1583
I82
sS'cheese'
p1584
I82
sS'bling'
p1585
I81
sS'xo'
p1586
I82
sS'apocalypse'
p1587
I82
sS'americano'
p1588
I79
sS'ozomatli'
p1589
I82
sS'bendiciones'
p1590
I79
sS"girlfriend's"
p1591
I82
sS'one'
p1592
I46
sS'xx'
p1593
I82
sS'americans'
p1594
I82
sS'long'
p1595
I73
sS'spanish'
p1596
I80
sS'carry'
p1597
I82
sS'ring'
p1598
I81
sS'drove'
p1599
I81
sS'open'
p1600
I82
sS'tomorrow'
p1601
I75
sS'lancome'
p1602
I81
sS'shoes'
p1603
I82
sS'city'
p1604
I77
sS'little'
p1605
I66
sS'ovi'
p1606
I82
sS'limited'
p1607
I82
sS'silent'
p1608
I82
sS'district'
p1609
I82
sS'bite'
p1610
I82
sS'slept'
p1611
I81
sS'caff\xc3\xa8'
p1612
I82
sS'response'
p1613
I82
sS'anyone'
p1614
I75
sS'aromatherapy'
p1615
I81
sS'2'
p1616
I48
sS'tragic'
p1617
I82
sS'typing'
p1618
I82
sS'$1m'
p1619
I82
sS'white'
p1620
I61
sS'strawbs'
p1621
I82
sS'friend'
p1622
I73
sS'gives'
p1623
I82
sS'urth\xe2\x9d\xa4\xef\xb8\x8f'
p1624
I82
sS'eyes'
p1625
I82
sS'urfffff'
p1626
I82
sS'that'
p1627
I23
sS'season'
p1628
I75
sS'chandelier'
p1629
I82
sS"men's"
p1630
I82
sS'huh'
p1631
I81
sS'boba'
p1632
I73
sS'\xd0\xb2\xd0\xb8\xd0\xb4\xd0\xbd\xd0\xbe'
p1633
I82
sS'massages'
p1634
I82
sS'hillary'
p1635
I82
sS'delong'
p1636
I82
sS'geraniums'
p1637
I82
sS'butt'
p1638
I82
sS'thai'
p1639
I79
sS'14-15'
p1640
I82
sS'vendr\xc3\xa1s'
p1641
I82
sS'than'
p1642
I73
sS'becuz'
p1643
I82
sS'boyfriend'
p1644
I81
sS'wide'
p1645
I82
sS'12'
p1646
I82
sS'15'
p1647
I80
sS'lmao'
p1648
I77
sS'17'
p1649
I82
sS'16'
p1650
I81
sS'19'
p1651
I82
sS'18'
p1652
I82
sS'gotta'
p1653
I74
sS'buzzfeed'
p1654
I82
sS'karate'
p1655
I82
sS'r'
p1656
I76
sS'were'
p1657
I72
sS'college'
p1658
I70
sS'encanta'
p1659
I82
sS'oath'
p1660
I82
sS'sophia'
p1661
I82
sS'and'
p1662
I7
sS'coconut'
p1663
I82
sS'lick'
p1664
I81
sS'rene'
p1665
I82
sS'san'
p1666
I82
sS'sam'
p1667
I81
sS'urthcaffe'
p1668
I80
sS'turned'
p1669
I79
sS'vevo'
p1670
I82
sS'prostitution'
p1671
I82
sS'sad'
p1672
I82
sS'dash'
p1673
I82
sS'say'
p1674
I68
sS'rent'
p1675
I82
sS'squeezable'
p1676
I82
sS'breakfast'
p1677
I73
sS'haya'
p1678
I82
sS'saw'
p1679
I78
sS'any'
p1680
I76
sS'kevin'
p1681
I82
sS'kush'
p1682
I82
sS'silhouette'
p1683
I82
sS'romper'
p1684
I82
sS'allison'
p1685
I82
sS'efficient'
p1686
I82
sS'primaried'
p1687
I82
sS'enlazando'
p1688
I82
sS'hotspot'
p1689
I82
sS'instructed'
p1690
I82
sS'wandered'
p1691
I82
sS'~^^'
p1692
I80
sS'box."'
p1693
I82
sS'potential'
p1694
I82
sS'arclight'
p1695
I82
sS'take'
p1696
I70
sS'honoris'
p1697
I82
sS'bailey'
p1698
I82
sS'performance'
p1699
I81
sS'pranks'
p1700
I82
sS'channel'
p1701
I81
sS'two\xe2\x80\xa6'
p1702
I82
sS'surf'
p1703
I82
sS'begin'
p1704
I82
sS'sure'
p1705
I75
sS'goodbye'
p1706
I82
sS'theatre'
p1707
I75
sS'normal'
p1708
I81
sS'cups'
p1709
I82
sS'cheesecake'
p1710
I82
sS'knew'
p1711
I80
sS'paid'
p1712
I80
sS'falls'
p1713
I81
sS'wire'
p1714
I82
sS'rants'
p1715
I82
sS'cualquier'
p1716
I82
sS'freshman'
p1717
I82
sS'tracy'
p1718
I82
sS'america'
p1719
I81
sS'pages'
p1720
I82
sS'queens'
p1721
I82
sS'sutton'
p1722
I82
sS'forever'
p1723
I82
sS'especially'
p1724
I79
sS'"under'
p1725
I80
sS'considered'
p1726
I82
sS'average'
p1727
I82
sS'proud'
p1728
I79
sS'steady'
p1729
I82
sS'hungry'
p1730
I80
sS'tooth'
p1731
I82
sS'backdrop'
p1732
I82
sS'premieres'
p1733
I82
sS'(204'
p1734
I82
sS'basically'
p1735
I82
sS'(201'
p1736
I81
sS'shop'
p1737
I80
sS'walking'
p1738
I78
sS'beading'
p1739
I82
sS'shot'
p1740
I81
sS'show'
p1741
I74
sS'german'
p1742
I70
sS'school)'
p1743
I79
sS'$7'
p1744
I82
sS'fifty'
p1745
I82
sS'olvidan'
p1746
I82
sS'estoy'
p1747
I82
sS'therapist'
p1748
I82
sS'la\xe2\x80\xa6'
p1749
I82
sS'threshold'
p1750
I82
sS'corner'
p1751
I79
sS'aggressive'
p1752
I82
sS'ground'
p1753
I81
sS'aint'
p1754
I77
sS'landis'
p1755
I82
sS'13ft'
p1756
I82
sS'woot'
p1757
I81
sS'ratio'
p1758
I82
sS'dice'
p1759
I81
sS'\xe2\x9c\x8b'
p1760
I82
sS'title'
p1761
I82
sS'\xe2\x9c\x85'
p1762
I82
sS'cammy'
p1763
I82
sS'dick'
p1764
I81
sS'enough'
p1765
I79
sS'crime'
p1766
I82
sS'nadie'
p1767
I81
sS'going'
p1768
I64
sS'black'
p1769
I79
sS'"kiss'
p1770
I77
sS'improve'
p1771
I82
sS'earth/urth'
p1772
I82
sS'pinkberry'
p1773
I82
sS'awareness'
p1774
I82
sS'pumpkin'
p1775
I80
sS'viva'
p1776
I82
sS'beatles'
p1777
I82
sS'get'
p1778
I41
sS'jazz'
p1779
I81
sS'8-10'
p1780
I82
sS'truly'
p1781
I81
sS'becky'
p1782
I82
sS'nearly'
p1783
I82
sS'gracing'
p1784
I82
sS'me-shell'
p1785
I82
sS'04:04:28.0,34.14563,-118.13827,4636.01,long'
p1786
I82
sS'candles'
p1787
I82
sS'trade'
p1788
I82
sS'gem'
p1789
I80
sS'nieces'
p1790
I82
sS'photo....fading'
p1791
I82
sS'reading'
p1792
I81
sS'artist'
p1793
I82
sS'vince\xe2\x80\xa6'
p1794
I82
sS'trendiest'
p1795
I82
sS'isnt'
p1796
I82
sS'morning'
p1797
I57
sS'jokes'
p1798
I82
sS'miles'
p1799
I81
sS'losers'
p1800
I82
sS"could've"
p1801
I82
sS'bong'
p1802
I82
sS'silencio'
p1803
I82
sS'patr\xc3\xb2n'
p1804
I82
sS'freeeeeeeeeeeeeeeeeeeeeeze'
p1805
I82
sS'where'
p1806
I71
sS'xmas'
p1807
I81
sS"y'all"
p1808
I79
sS'faulker'
p1809
I82
sS'concert'
p1810
I82
sS'"washing'
p1811
I82
sS'mtv'
p1812
I82
sS'violated'
p1813
I82
sS'mom'
p1814
I74
sS'pendragon'
p1815
I82
sS'-cont.-'
p1816
I82
sS'cocktails'
p1817
I82
sS'opini\xc3\xb3n'
p1818
I82
sS'asleep'
p1819
I78
sS'anyways'
p1820
I82
sS'parking'
p1821
I78
sS"17:04:35.0,34.13984149,-118.13338627,4636.01,it's"
p1822
I82
sS'(oops'
p1823
I82
sS'wonder'
p1824
I81
sS'um'
p1825
I82
sS'economistas'
p1826
I81
sS'leaning'
p1827
I82
sS'ways'
p1828
I81
sS'swiat'
p1829
I82
sS'senate'
p1830
I81
sS'thurs'
p1831
I82
sS'\xd0\x9f\xd0\xbe\xd0\xbf\xd1\x83\xd0\xbb\xd1\x8f\xd1\x80\xd0\xbd\xd1\x8b\xd0\xb9'
p1832
I82
sS'cafe)'
p1833
I81
sS'outside'
p1834
I80
sS'estar'
p1835
I81
sS'between'
p1836
I81
sS'auditioning'
p1837
I82
sS'enjoys'
p1838
I82
sS'before'
p1839
I64
sS'across'
p1840
I79
sS'travels'
p1841
I82
sS'ima'
p1842
I82
sS'notice'
p1843
I80
sS'jobs'
p1844
I82
sS'25'
p1845
I82
sS'screen'
p1846
I82
sS'tus'
p1847
I81
sS'style'
p1848
I82
sS'killing'
p1849
I81
sS'guitar'
p1850
I82
sS'gretz'
p1851
I82
sS'woodfired'
p1852
I80
sS'istangram'
p1853
I82
sS'como'
p1854
I78
sS'$900'
p1855
I82
sS'creamery)'
p1856
I82
sS'come'
p1857
I67
sS'ja'
p1858
I82
sS'runneth'
p1859
I82
sS'baes'
p1860
I82
sS'fried'
p1861
I82
sS'installation'
p1862
I82
sS'talented'
p1863
I75
sS'many'
p1864
I79
sS'trader'
p1865
I71
sS'dedicate'
p1866
I82
sS'flipped'
p1867
I82
sS's'
p1868
I72
sS'disappointment'
p1869
I81
sS'madport'
p1870
I80
sS'awards'
p1871
I82
sS'pureed'
p1872
I82
sS"can't"
p1873
I64
sS'celebrando'
p1874
I82
sS'among'
p1875
I82
sS'merry'
p1876
I81
sS'distancia'
p1877
I82
sS'color'
p1878
I79
sS'por'
p1879
I73
sS'period'
p1880
I82
sS'pop'
p1881
I82
sS'cafe!"'
p1882
I82
sS'fated'
p1883
I82
sS'64'
p1884
I82
sS"couldn't"
p1885
I82
sS'article'
p1886
I82
sS'cancel'
p1887
I82
sS'blah~'
p1888
I82
sS'crew'
p1889
I81
sS'precious'
p1890
I82
sS'm\xc3\xbasica'
p1891
I82
sS'arts'
p1892
I75
sS'ese'
p1893
I82
sS'west'
p1894
I82
sS'dis'
p1895
I82
sS'"from'
p1896
I82
sS'mark'
p1897
I81
sS'breath'
p1898
I81
sS'tesla'
p1899
I82
sS'wink)'
p1900
I82
sS'dictator'
p1901
I82
sS'legit'
p1902
I82
sS'mary'
p1903
I81
sS'wants'
p1904
I80
sS'i\xe2\x80\xa6'
p1905
I81
sS'shopping'
p1906
I77
sS'spanked'
p1907
I82
sS'blessing'
p1908
I82
sS'forrreeeaallzz'
p1909
I82
sS'reaching'
p1910
I82
sS'readings'
p1911
I82
sS'photos'
p1912
I82
sS'\xd0\xbf\xd0\xbe\xd0\xbb\xd1\x8c\xd0\xb7\xd0\xbe\xd0\xb2\xd0\xb0\xd1\x82\xd0\xb5\xd0\xbb\xd1\x8c'
p1913
I82
sS'wake'
p1914
I81
sS'treatment'
p1915
I82
sS"eagle'...like"
p1916
I82
sS'evidence'
p1917
I82
sS'argentina'
p1918
I82
sS'those'
p1919
I75
sS'^'
p1920
I81
sS'case'
p1921
I82
sS'myself'
p1922
I79
sS'casa'
p1923
I80
sS'791-9981'
p1924
I82
sS'these'
p1925
I70
sS'twigzzpasadena'
p1926
I81
sS'chace'
p1927
I82
sS'massetti'
p1928
I82
sS'cast'
p1929
I82
sS'ratchet'
p1930
I82
sS'joke'
p1931
I82
sS'coco'
p1932
I82
sS'situation'
p1933
I82
sS'abducted'
p1934
I82
sS'despierto'
p1935
I82
sS'conforman'
p1936
I82
sS'dworsky'
p1937
I81
sS'ive'
p1938
I80
sS'vest'
p1939
I82
sS'cum'
p1940
I82
sS'orientation'
p1941
I81
sS'sab\xc3\xada'
p1942
I82
sS'favorite)'
p1943
I82
sS'coffee'
p1944
I65
sS'bldgs'
p1945
I82
sS'fucken'
p1946
I82
sS'middle'
p1947
I81
sS'good'
p1948
I43
sS'chillow'
p1949
I82
sS'maarse'
p1950
I81
sS'apparel"'
p1951
I79
sS'nation'
p1952
I82
sS'restroom'
p1953
I82
sS'ivy'
p1954
I82
sS'worry'
p1955
I81
sS'evento'
p1956
I82
sS'different'
p1957
I81
sS'pas'
p1958
I82
sS'disrespectful'
p1959
I82
sS'doctor'
p1960
I81
sS'media'
p1961
I82
sS'bowl'
p1962
I81
sS'tour'
p1963
I82
sS'same'
p1964
I71
sS'trip'
p1965
I82
sS'food'
p1966
I77
sS'followers'
p1967
I82
sS're\xc3\xadr'
p1968
I82
sS'coworkers'
p1969
I81
sS'buys'
p1970
I82
sS'"i'
p1971
I81
sS'thaaank'
p1972
I82
sS'reminder'
p1973
I82
sS'ahorrita'
p1974
I82
sS'todos'
p1975
I80
sS'hermit'
p1976
I82
sS'week'
p1977
I77
sS'fyi'
p1978
I82
sS'finish'
p1979
I81
sS'screenshot'
p1980
I82
sS'tarde'
p1981
I81
sS'tambi\xc3\xa9n'
p1982
I82
sS'pasadena\xe2\x80\xa6'
p1983
I82
sS'merrry'
p1984
I82
sS'driver'
p1985
I81
sS'leaks'
p1986
I82
sS'cheers'
p1987
I81
sS'running'
p1988
I82
sS'harris'
p1989
I82
sS'"have"'
p1990
I82
sS'tix'
p1991
I82
sS'totally'
p1992
I80
sS'passing'
p1993
I82
sS'\xe2\x9c\x8c\xef\xb8\x8f'
p1994
I81
sS'theater'
p1995
I80
sS'claudolalia'
p1996
I82
sS'\xec\x97\xb0\xec\xa3\xbc'
p1997
I82
sS'floor'
p1998
I82
sS'mala'
p1999
I82
sS'roommate'
p2000
I82
sS'nothin'
p2001
I82
sS'cumpli\xc3\xb3'
p2002
I81
sS'without'
p2003
I78
sS'comes'
p2004
I82
sS'bottle'
p2005
I81
sS'pitbull'
p2006
I82
sS'continental)'
p2007
I82
sS'grounds'
p2008
I82
sS"you've"
p2009
I82
sS'taxi'
p2010
I81
sS'summer'
p2011
I81
sS'lb'
p2012
I82
sS'\xe2\x98\xba\xef\xb8\x8f'
p2013
I78
sS'vent'
p2014
I82
sS'being'
p2015
I72
sS'money'
p2016
I78
sS'rest'
p2017
I80
sS'navaro'
p2018
I82
sS'kill'
p2019
I77
sS'wifey'
p2020
I81
sS'harrison'
p2021
I82
sS'touch'
p2022
I82
sS'(a'
p2023
I82
sS'speed'
p2024
I82
sS'captured'
p2025
I82
sS'w/your'
p2026
I82
sS'blow'
p2027
I82
sS'76'
p2028
I82
sS'death'
p2029
I82
sS'overdue'
p2030
I82
sS'thinking'
p2031
I79
sS'rose'
p2032
I79
sS'micky'
p2033
I82
sS'seems'
p2034
I82
sS'except'
p2035
I80
sS'leto'
p2036
I82
sS'banh'
p2037
I82
sS'lets'
p2038
I78
sS'setting'
p2039
I82
sS'4'
p2040
I72
sS'interesting..thanks'
p2041
I82
sS'dicks'
p2042
I81
sS'tuesday'
p2043
I82
sS'skies'
p2044
I82
sS'real'
p2045
I70
sS'starving'
p2046
I81
sS'around'
p2047
I78
sS'(='
p2048
I82
sS'read'
p2049
I80
sS'cuando'
p2050
I81
sS'1:3'
p2051
I82
sS'gonna'
p2052
I76
sS'dark'
p2053
I81
sS'darn'
p2054
I81
sS'\xe2\x9d\xa4'
p2055
I81
sS'ramshackle'
p2056
I82
sS'world'
p2057
I77
sS'lady'
p2058
I77
sS'dare'
p2059
I82
sS'oh\xe2\x80\xa6'
p2060
I82
sS'in-n-out'
p2061
I82
sS'ponte'
p2062
I82
sS'dumpy'
p2063
I82
sS'patrick'
p2064
I82
sS'cardinal'
p2065
I82
sS'davidinpas'
p2066
I81
sS'facing'
p2067
I82
sS'millennials'
p2068
I82
sS'hac\xc3\xada'
p2069
I82
sS'(despair'
p2070
I82
sS'laughing'
p2071
I81
sS'omgg'
p2072
I82
sS'clay'
p2073
I81
sS'beverly'
p2074
I81
sS'fidm?!??\xe2\x80\x9d'
p2075
I82
sS'twelve'
p2076
I82
sS'gusts'
p2077
I82
sS'xochipilli1'
p2078
I82
sS'learning'
p2079
I82
sS'definici\xc3\xb3n'
p2080
I82
sS'madrid'
p2081
I82
sS'pacific'
p2082
I81
sS'ante'
p2083
I82
sS'eddie'
p2084
I82
sS'lobster'
p2085
I82
sS'skaggs'
p2086
I82
sS'table'
p2087
I82
sS'scrub'
p2088
I82
sS'bigger'
p2089
I82
sS'thinks'
p2090
I81
sS'reasons'
p2091
I82
sS'bless'
p2092
I81
sS'ledtronics'
p2093
I82
sS'caribbean'
p2094
I82
sS'in\xe2\x80\xa6'
p2095
I82
sS'dds'
p2096
I82
sS'memories'
p2097
I81
sS'noon'
p2098
I82
sS'recorded'
p2099
I82
sS'dudley'
p2100
I82
sS'moon'
p2101
I80
sS'so...lol'
p2102
I82
sS'(stem)...i'
p2103
I82
sS'newport'
p2104
I82
sS'amigo'
p2105
I82
sS'biased'
p2106
I82
sS'outage'
p2107
I82
sS'saludo'
p2108
I82
sS'power'
p2109
I80
sS'lezzzz'
p2110
I82
sS'lmfao'
p2111
I80
sS'problems'
p2112
I82
sS'nails'
p2113
I81
sS'each'
p2114
I80
sS'actually\xe2\x80\xa6'
p2115
I82
sS'slaughter'
p2116
I82
sS'broken'
p2117
I82
sS'despicable'
p2118
I82
sS'the...)'
p2119
I82
sS"couldn't\xe2\x80\xa6"
p2120
I82
sS'throwback'
p2121
I82
sS'yay'
p2122
I79
sS';)'
p2123
I79
sS'francis'
p2124
I82
sS'throw'
p2125
I81
sS'be\xe2\x80\xa6'
p2126
I82
sS'on'
p2127
I22
sS'stone'
p2128
I81
sS'stuff\xe2\x80\xa6'
p2129
I82
sS'ok'
p2130
I75
sS'package'
p2131
I81
sS'obba'
p2132
I82
sS'of'
p2133
I14
sS'industry'
p2134
I80
sS'favorite'
p2135
I74
sS'needed\xe2\x80\xa6'
p2136
I82
sS'mixes'
p2137
I82
sS'drew_is_loco'
p2138
I82
sS'fell'
p2139
I82
sS'medicare'
p2140
I82
sS'chipping'
p2141
I82
sS'act'
p2142
I82
sS'joplin'
p2143
I81
sS'luck'
p2144
I79
sS'liderazgo'
p2145
I82
sS'or'
p2146
I51
sS'road'
p2147
I82
sS'burning'
p2148
I82
sS'follows'
p2149
I82
sS'gritar'
p2150
I82
sS'skilled'
p2151
I82
sS'snapchat'
p2152
I80
sS'erstar'
p2153
I82
sS'earring'
p2154
I81
sS'morir'
p2155
I81
sS'entra'
p2156
I82
sS'accounts'
p2157
I82
sS'frack'
p2158
I82
sS'\xeb\x93\x9c\xeb\x8e\x8c'
p2159
I82
sS'deddles'
p2160
I82
sS'luft'
p2161
I82
sS'your'
p2162
I37
sS'mental'
p2163
I82
sS'stare'
p2164
I82
sS'jerks'
p2165
I82
sS'orthodontist'
p2166
I82
sS'fill'
p2167
I82
sS'her'
p2168
I57
sS'hes'
p2169
I82
sS'there'
p2170
I56
sS'(15'
p2171
I80
sS'lol'
p2172
I45
sS'start'
p2173
I74
sS'mondays'
p2174
I82
sS'low'
p2175
I82
sS'lot'
p2176
I78
sS'todav\xc3\xada'
p2177
I82
sS'energy'
p2178
I81
sS'chalkboard'
p2179
I82
sS'chats'
p2180
I82
sS'pottery'
p2181
I82
sS'dormir'
p2182
I81
sS'\xe2\x9d\xa4\xe2\x9d\xa4\xe2\x9d\xa4'
p2183
I82
sS'haciendo'
p2184
I82
sS'adrian'
p2185
I82
sS'mammals'
p2186
I82
sS'pitcher'
p2187
I82
sS'you"'
p2188
I82
sS'pienada'
p2189
I82
sS'sirve'
p2190
I82
sS'silente'
p2191
I82
sS'omelet'
p2192
I81
sS'texted'
p2193
I82
sS'trying'
p2194
I76
sS'with'
p2195
I15
sS'shannon'
p2196
I82
sS'buying'
p2197
I81
sS'happening'
p2198
I82
sS'pull'
p2199
I81
sS'joint'
p2200
I82
sS'stanford'
p2201
I82
sS"wasn't"
p2202
I81
sS'prescindido'
p2203
I82
sS'pa\xc3\xadses'
p2204
I82
sS'yogurtland'
p2205
I82
sS'dirty'
p2206
I81
sS'monopole'
p2207
I76
sS'dif\xc3\xadceis'
p2208
I82
sS'usted'
p2209
I82
sS'strongly'
p2210
I82
sS'gone'
p2211
I81
sS'brasil'
p2212
I82
sS'puppetists'
p2213
I82
sS'replacing'
p2214
I81
sS'tostadas'
p2215
I82
sS'llumber'
p2216
I82
sS'af'
p2217
I79
sS'ah'
p2218
I81
sS'ak'
p2219
I82
sS'am'
p2220
I59
sS'al'
p2221
I78
sS'minneapolis'
p2222
I82
sS'an'
p2223
I53
sS'tengo'
p2224
I81
sS'ar'
p2225
I82
sS'at'
p2226
I8
sS'walks'
p2227
I82
sS'girlfriend'
p2228
I82
sS'watched'
p2229
I81
sS'az'
p2230
I81
sS'malibu'
p2231
I82
sS'shit.\xe2\x80\x9drmft'
p2232
I82
sS'film'
p2233
I82
sS'cream'
p2234
I80
sS'again'
p2235
I70
sS'stumbled'
p2236
I82
sS'kickball"'
p2237
I82
sS'\xea\xbd\x83\xeb\xb0\x94\xec\xa7\x80\xec\x9d\x98'
p2238
I82
sS'drivers'
p2239
I82
sS'diarrhea'
p2240
I82
sS'foothills'
p2241
I82
sS'"work"'
p2242
I82
sS'roses'
p2243
I81
sS'5'
p2244
I69
sS'gambling'
p2245
I82
sS'you'
p2246
I12
sS'trash'
p2247
I82
sS"barani'"
p2248
I82
sS'10'
p2249
I82
sS'disco'
p2250
I82
sS'ham'
p2251
I82
sS'sheesh...mind'
p2252
I82
sS'hey'
p2253
I79
sS'60s'
p2254
I82
sS'separate'
p2255
I82
sS'students'
p2256
I79
sS'resistance)'
p2257
I82
sS'cuerpo'
p2258
I82
sS';p'
p2259
I82
sS"she's"
p2260
I78
sS'of\xe2\x80\xa6'
p2261
I81
sS'grupo'
p2262
I82
sS'crappy'
p2263
I81
sS'sneeze'
p2264
I81
sS'finals'
p2265
I82
sS'omgggggg'
p2266
I82
sS'missed'
p2267
I82
sS"vanessa's"
p2268
I82
sS'carbs'
p2269
I81
sS'natalie'
p2270
I82
sS'individual'
p2271
I82
sS'calls'
p2272
I82
sS'wife'
p2273
I81
sS'waived'
p2274
I82
sS'wifi'
p2275
I81
sS'mask'
p2276
I82
sS'websites'
p2277
I81
sS'having'
p2278
I69
sS'password'
p2279
I82
sS'u'
p2280
I68
sS'nelson'
p2281
I82
sS'resembles'
p2282
I82
sS'husky'
p2283
I82
sS'songs'
p2284
I82
sS'starting'
p2285
I81
sS'seattle"'
p2286
I79
sS'veamos'
p2287
I82
sS'all'
p2288
I40
sS'forget'
p2289
I77
sS'chinese'
p2290
I81
sS'wera'
p2291
I82
sS'aids'
p2292
I82
sS'rapster'
p2293
I82
sS'lack'
p2294
I82
sS'correr'
p2295
I82
sS'month'
p2296
I80
sS'hannnnn'
p2297
I82
sS'coach'
p2298
I81
sS'talks'
p2299
I81
sS'follow'
p2300
I81
sS'sue\xc3\xb1o'
p2301
I81
sS'"gave"'
p2302
I82
sS'pjs'
p2303
I82
sS'atlanta'
p2304
I82
sS'claire'
p2305
I82
sS'milkshake'
p2306
I82
sS'tv'
p2307
I80
sS'tu'
p2308
I76
sS'sparkling'
p2309
I82
sS'spirit'
p2310
I82
sS'trs'
p2311
I82
sS'to'
p2312
I5
sS'tl'
p2313
I82
sS'program'
p2314
I82
sS'tj'
p2315
I79
sS'wga\xe2\x80\x99s'
p2316
I82
sS'14'
p2317
I82
sS'tf'
p2318
I80
sS'tg'
p2319
I82
sS'te'
p2320
I73
sS'presentation'
p2321
I82
sS'mandela'
p2322
I82
sS'overwhelmed'
p2323
I82
sS'unliked'
p2324
I82
sS'appointment'
p2325
I82
sS'song'
p2326
I78
sS'very'
p2327
I75
sS'debit'
p2328
I82
sS'fav'
p2329
I82
sS'fat'
p2330
I80
sS'souls'
p2331
I82
sS'selfies'
p2332
I82
sS'aware'
p2333
I82
sS'candid'
p2334
I82
sS'worst'
p2335
I82
sS'bestie'
p2336
I82
sS'got'
p2337
I59
sS'fab'
p2338
I82
sS'fosfatos'
p2339
I82
sS'ticket'
p2340
I80
sS'difference'
p2341
I82
sS'hooker'
p2342
I82
sS'treating'
p2343
I82
sS'leads'
p2344
I82
sS'heaven'
p2345
I79
sS'gf'
p2346
I82
sS'--'
p2347
I76
sS'\xec\x89\xb0\xeb\x82\x98\xeb\x8a\x94'
p2348
I82
sS'list'
p2349
I79
sS'sang'
p2350
I81
sS'skate'
p2351
I81
sS'sassy'
p2352
I82
sS'small'
p2353
I82
sS'dodger'
p2354
I82
sS'bruyneoscar'
p2355
I82
sS'multa'
p2356
I82
sS"i'll"
p2357
I75
sS'stoppppp'
p2358
I82
sS'cookies'
p2359
I82
sS'neighborhood'
p2360
I81
sS'instagram'
p2361
I80
sS'nbs'
p2362
I82
sS'tea'
p2363
I76
sS'a..holes'
p2364
I82
sS'paso'
p2365
I80
sS'tee'
p2366
I82
sS'past'
p2367
I80
sS'burger'
p2368
I80
sS'zero'
p2369
I82
sS'reconnecting'
p2370
I82
sS'design'
p2371
I80
sS'pass'
p2372
I81
sS'functioning'
p2373
I82
sS'chuckle'
p2374
I82
sS'\xe2\x9d\xa4\xef\xb8\x8f\xe2\x9d\xa4\xef\xb8\x8f'
p2375
I82
sS'what'
p2376
I44
sS'bomber'
p2377
I82
sS'opted'
p2378
I82
sS'sua'
p2379
I82
sS'com\xc3\xban'
p2380
I82
sS'sun'
p2381
I81
sS'deliciousness'
p2382
I82
sS'puerto'
p2383
I82
sS'anniversary'
p2384
I80
sS'crush'
p2385
I81
sS'miniaturist'
p2386
I82
sS'sus'
p2387
I81
sS'pizzeria)'
p2388
I80
sS'verdugo'
p2389
I82
sS'tribute'
p2390
I81
sS'public'
p2391
I82
sS'vamos'
p2392
I82
sS'full'
p2393
I75
sS'christian'
p2394
I81
sS"c'mon"
p2395
I82
sS'alene'
p2396
I82
sS'd1'
p2397
I82
sS'ma'
p2398
I82
sS'oldtown'
p2399
I82
sS'reads'
p2400
I82
sS'"soy'
p2401
I82
sS'hours'
p2402
I78
sS'sh..the..f..up'
p2403
I82
sS'tracks'
p2404
I82
sS'cockroach'
p2405
I82
sS'method'
p2406
I82
sS'shops'
p2407
I82
sS'pleasant'
p2408
I82
sS'search'
p2409
I82
sS'ahead'
p2410
I82
sS'tweets'
p2411
I82
sS'weirded'
p2412
I82
sS'creepy'
p2413
I82
sS'pics'
p2414
I80
sS'amount'
p2415
I82
sS'pico'
p2416
I82
sS'lasagna'
p2417
I82
sS'gear'
p2418
I82
sS'social'
p2419
I81
sS"john's"
p2420
I77
sS'disneyland'
p2421
I81
sS'turbamulta'
p2422
I82
sS'restaruant'
p2423
I82
sS'minutos'
p2424
I82
sS'via'
p2425
I79
sS'followed'
p2426
I82
sS'family'
p2427
I80
sS'pasadena-_-'
p2428
I82
sS'suddenly'
p2429
I80
sS'vez'
p2430
I81
sS'transit'
p2431
I82
sS'vii'
p2432
I82
sS'escuchar'
p2433
I82
sS'uncensored"'
p2434
I76
sS'ask'
p2435
I80
sS'hemmings'
p2436
I82
sS'naples'
p2437
I82
sS'buenas'
p2438
I81
sS'pulls'
p2439
I82
sS'gosh'
p2440
I81
sS'teach'
p2441
I82
sS'interrumpe'
p2442
I82
sS'countdown'
p2443
I82
sS'eye'
p2444
I79
sS'takes'
p2445
I80
sS'former'
p2446
I82
sS'h$lla'
p2447
I82
sS'two'
p2448
I73
sS'trabaja'
p2449
I82
sS'"smokey'
p2450
I82
sS'bottleneck'
p2451
I82
sS'6'
p2452
I80
sS'taken'
p2453
I82
sS'wobbles'
p2454
I82
sS'injury'
p2455
I82
sS'more'
p2456
I67
sS'tryna'
p2457
I82
sS"roommate's"
p2458
I82
sS'fellow'
p2459
I82
sS'knows'
p2460
I78
sS'grabbing'
p2461
I82
sS'cliquish'
p2462
I82
sS'company'
p2463
I81
sS'(not'
p2464
I82
sS'problem'
p2465
I82
sS'site'
p2466
I82
sS'hurrr'
p2467
I82
sS'excuse'
p2468
I82
sS'lifeguarding'
p2469
I82
sS"ain't"
p2470
I80
sS'stick'
p2471
I82
sS'dios'
p2472
I81
sS'dooo'
p2473
I82
sS'wound'
p2474
I82
sS'funciones'
p2475
I82
sS'glad'
p2476
I78
sS'luv'
p2477
I82
sS'town'
p2478
I78
sS'grill'
p2479
I80
sS'none'
p2480
I82
sS'gatorade'
p2481
I82
sS'hour'
p2482
I70
sS'science'
p2483
I81
sS'created'
p2484
I82
sS'sucks'
p2485
I80
sS'laurie'
p2486
I82
sS'4am'
p2487
I82
sS'guards'
p2488
I82
sS'remain'
p2489
I82
sS'vs'
p2490
I82
sS'nine'
p2491
I75
sS'pero'
p2492
I80
sS'\xe2\x98\x95\xe2\x98\x95\xe2\x98\x95'
p2493
I82
sS'martinis'
p2494
I82
sS'history'
p2495
I81
sS'beautiful'
p2496
I73
sS'hamburger'
p2497
I82
sS'salted'
p2498
I82
sS'disclosure'
p2499
I82
sS'division'
p2500
I82
sS'magnet'
p2501
I82
sS'baths'
p2502
I82
sS'methodist'
p2503
I80
sS'ludo'
p2504
I82
sS'socal'
p2505
I82
sS'autumn'
p2506
I82
sS'lolol'
p2507
I82
sS'\xe2\x98\x95\xef\xb8\x8f'
p2508
I80
sS'festivities'
p2509
I82
sS'sense'
p2510
I81
sS'station'
p2511
I82
sS'dress'
p2512
I80
sS'concept'
p2513
I82
sS'huge'
p2514
I82
sS'stil'
p2515
I82
sS'macadamia'
p2516
I82
sS'court'
p2517
I82
sS'rather'
p2518
I81
sS'american'
p2519
I82
sS'hearty'
p2520
I82
sS'needa'
p2521
I81
sS'hannah'
p2522
I82
sS'heck'
p2523
I82
sS'musica'
p2524
I82
sS'freshly'
p2525
I82
sS'hugs'
p2526
I82
sS'\xe2\x9a\xbe\xef\xb8\x8f'
p2527
I82
sS'reaaaaaally'
p2528
I82
sS'recording'
p2529
I82
sS'plant'
p2530
I82
sS'sandwich'
p2531
I80
sS'okay'
p2532
I81
sS'tried'
p2533
I80
sS'rude'
p2534
I82
sS'helmet'
p2535
I82
sS'notre'
p2536
I82
sS'brett'
p2537
I82
sS'par'
p2538
I82
sS'hw'
p2539
I82
sS'ap\xc3\xa9ndice'
p2540
I82
sS'fb'
p2541
I82
sS'plane'
p2542
I82
sS'streets'
p2543
I82
sS'fe'
p2544
I82
sS'coming'
p2545
I77
sS'gravel)'
p2546
I82
sS'sloppy'
p2547
I82
sS'fl'
p2548
I82
sS'question!"'
p2549
I82
sS'sanctions'
p2550
I82
sS'a'
p2551
I4
sS'short'
p2552
I81
sS'onto'
p2553
I82
sS'fleeeeek'
p2554
I82
sS'register'
p2555
I82
sS"....it's"
p2556
I82
sS'anytime'
p2557
I82
sS'blunder'
p2558
I82
sS'meza'
p2559
I82
sS"music'"
p2560
I82
sS"bae's"
p2561
I82
sS"track's"
p2562
I82
sS'grande'
p2563
I81
sS'pay'
p2564
I82
sS'lmfaooooo'
p2565
I82
sS'pleasure'
p2566
I82
sS'dream'
p2567
I80
sS'eagle'
p2568
I82
sS"that's"
p2569
I74
sS'"in'
p2570
I82
sS'chicks'
p2571
I82
sS'paisana'
p2572
I82
sS'mexican'
p2573
I74
sS'help'
p2574
I77
sS"don't"
p2575
I53
sS'september'
p2576
I82
sS'john'
p2577
I82
sS'flowers'
p2578
I82
sS'sooo'
p2579
I81
sS'soon'
p2580
I78
sS':\xe2\x80\xa6'
p2581
I82
sS'auburn'
p2582
I80
sS'held'
p2583
I82
sS'attitude'
p2584
I80
sS'paper'
p2585
I80
sS'through'
p2586
I77
sS'cabana'
p2587
I82
sS'hell'
p2588
I82
sS'mcdonalds'
p2589
I82
sS'its'
p2590
I71
sS'arrogant'
p2591
I82
sS'playing.\xe2\x80\xa6'
p2592
I82
sS'24'
p2593
I72
sS'sharpay'
p2594
I82
sS'alle'
p2595
I82
sS"'how"
p2596
I82
sS'20'
p2597
I81
sS'21'
p2598
I80
sS'alla'
p2599
I82
sS'buscan'
p2600
I82
sS'sale'
p2601
I82
sS'28'
p2602
I82
sS'29'
p2603
I82
sS'actually'
p2604
I80
sS'late'
p2605
I77
sS'speech'
p2606
I82
sS'bout'
p2607
I79
sS'margarita'
p2608
I82
sS'might'
p2609
I78
sS"haven't"
p2610
I81
sS'fool'
p2611
I81
sS'evening'
p2612
I81
sS'sucedido'
p2613
I82
sS'yo'
p2614
I81
sS'ya'
p2615
I70
sS'propose'
p2616
I82
sS'ghotanian'
p2617
I82
sS'uhm'
p2618
I82
sS'hunter'
p2619
I82
sS'wasabi'
p2620
I82
sS'primary'
p2621
I82
sS'damon'
p2622
I82
sS'starbucks'
p2623
I75
sS'foot'
p2624
I82
sS'clouds'
p2625
I82
sS'"sleepless'
p2626
I79
sS'sucked'
p2627
I81
sS'\xd1\x83\xd1\x82\xd1\x80\xd0\xbe'
p2628
I82
sS'bryan'
p2629
I81
sS'prem'
p2630
I82
sS'pregnant'
p2631
I82
sS'nugget'
p2632
I82
sS'always'
p2633
I65
sS'spinning'
p2634
I82
sS'figures.....i'
p2635
I82
sS'm\xc3\xa1s'
p2636
I80
sS'someone'
p2637
I69
sS'fassbender'
p2638
I82
sS'stopped'
p2639
I82
sS'pan'
p2640
I82
sS'die'
p2641
I82
sS'found'
p2642
I76
sS'1\xe2\x83\xa37\xe2\x83\xa3'
p2643
I82
sS'marry'
p2644
I82
sS"isn't"
p2645
I80
sS'morrita'
p2646
I82
sS'breakdown'
p2647
I82
sS'everyone'
p2648
I76
sS'neil'
p2649
I82
sS'another'
p2650
I68
sS'weight'
p2651
I82
sS'experiencia'
p2652
I82
sS'house'
p2653
I73
sS'fish'
p2654
I80
sS'hard'
p2655
I71
sS'idea'
p2656
I82
sS'dia'
p2657
I81
sS'toda'
p2658
I81
sS'cloudy'
p2659
I82
sS'squishy'
p2660
I82
sS'pizza?01-12-2014'
p2661
I82
sS'l\xc3\xadderes'
p2662
I82
sS'blues'
p2663
I82
sS'todo'
p2664
I79
sS'event'
p2665
I51
sS'really'
p2666
I54
sS'mirar\xc3\xa1s'
p2667
I82
sS'specials'
p2668
I82
sS'flower'
p2669
I82
sS'\xed\x86\xa0\xec\x9a\x9c'
p2670
I82
sS'gente...day'
p2671
I82
sS'loooooove'
p2672
I82
sS'robert'
p2673
I82
sS'since'
p2674
I79
sS'jolly'
p2675
I82
sS'everyones'
p2676
I82
sS'commemorative'
p2677
I82
sS'acting'
p2678
I77
sS'18:35:31.0,34.13984149,-118.13338627,4636.01,it'
p2679
I82
sS'7'
p2680
I80
sS'muchachon!\xe2\x80\x9drt'
p2681
I82
sS"la's"
p2682
I82
sS'ass'
p2683
I76
sS'bistro'
p2684
I81
sS')'
p2685
I82
sS'env\xc3\xada'
p2686
I82
sS'friday'
p2687
I77
sS'guess'
p2688
I76
sS'corrompen'
p2689
I82
sS'libtos'
p2690
I82
sS'mmm'
p2691
I82
sS'reason'
p2692
I82
sS"goin'"
p2693
I82
sS'cookie'
p2694
I82
sS'conditioning'
p2695
I80
sS"audi's"
p2696
I82
sS'put'
p2697
I79
sS'asi'
p2698
I82
sS'pasasena'
p2699
I82
sS'individualidad'
p2700
I82
sS'frm'
p2701
I82
sS'albatross'
p2702
I82
sS'misogyny'
p2703
I82
sS'girly'
p2704
I82
sS'todaywednesday'
p2705
I82
sS'seasonal'
p2706
I82
sS'takuya'
p2707
I81
sS'computers'
p2708
I82
sS'persuading'
p2709
I82
sS'terrible'
p2710
I81
sS'lawler'
p2711
I82
sS'cheering'
p2712
I82
sS'uncle'
p2713
I82
sS'fruit'
p2714
I82
sS'cravens'
p2715
I82
sS'w'
p2716
I81
sS'leading'
p2717
I82
sS'consequence'
p2718
I82
sS'(168'
p2719
I81
sS"ya'all"
p2720
I82
sS'exercising'
p2721
I82
sS'coloring'
p2722
I82
sS'hawks'
p2723
I82
sS'dont'
p2724
I78
sS'nace'
p2725
I82
sS'feel'
p2726
I73
sS'misa'
p2727
I82
sS'valentine'
p2728
I82
sS'feet'
p2729
I81
sS'cada'
p2730
I81
sS'brave'
p2731
I82
sS'done'
p2732
I70
sS'felicidades'
p2733
I82
sS'florist'
p2734
I82
sS'angeles)'
p2735
I80
sS"t'was"
p2736
I82
sS'miss'
p2737
I81
sS'esperan.\xe2\x80\x9drt'
p2738
I82
sS'cado'
p2739
I82
sS'razor'
p2740
I82
sS'story'
p2741
I79
sS'killin'
p2742
I82
sS'fuller'
p2743
I82
sS'raddddd'
p2744
I82
sS'18%'
p2745
I82
sS'gourmet'
p2746
I75
sS'l.a'
p2747
I82
sS'swipe'
p2748
I82
sS'sure"'
p2749
I82
sS'least'
p2750
I79
sS'bum'
p2751
I82
sS'wonderful'
p2752
I81
sS'passed'
p2753
I82
sS'bravo'
p2754
I82
sS'mama'
p2755
I81
sS'syrup'
p2756
I82
sS'banana'
p2757
I82
sS'store'
p2758
I81
sS'kaplan'
p2759
I82
sS'apparentally'
p2760
I82
sS'para'
p2761
I74
sS'behind'
p2762
I78
sS'wee.....lobstatruck'
p2763
I82
sS'time\xe2\x80\xa6'
p2764
I82
sS'hotel'
p2765
I82
sS'park'
p2766
I82
sS'\xd0\xa2\xd0\xb5\xd0\xbf\xd0\xb5\xd1\x80\xd1\x8c'
p2767
I82
sS'part'
p2768
I78
sS'jordan'
p2769
I82
sS'cyber'
p2770
I82
sS'ense\xc3\xb1a'
p2771
I82
sS'9:45'
p2772
I82
sS'$4'
p2773
I81
sS'believe'
p2774
I75
sS'stairs'
p2775
I82
sS'obama'
p2776
I81
sS'b'
p2777
I80
sS'lebron'
p2778
I82
sS'double'
p2779
I81
sS'compositores'
p2780
I82
sS'grey'
p2781
I80
sS'keeper'
p2782
I82
sS'razon'
p2783
I82
sS'panda'
p2784
I82
sS'you\xe2\x80\xa6'
p2785
I82
sS'determined'
p2786
I82
sS'marriage'
p2787
I82
sS'per\xc3\xadodos'
p2788
I82
sS'dang'
p2789
I82
sS'toward'
p2790
I82
sS'ousted'
p2791
I81
sS'booth'
p2792
I82
sS'\xec\xa1\xb4\xec\x9e\xac\xea\xb0\x90\xec\x9d\xb4\xeb\x9e\x80'
p2793
I82
sS'motivation'
p2794
I82
sS'ranch'
p2795
I82
sS'"intimate'
p2796
I79
sS'~~'
p2797
I82
sS'breakthru'
p2798
I81
sS'wasnt'
p2799
I82
sS'tacos'
p2800
I82
sS'virtud'
p2801
I82
sS'hailey'
p2802
I82
sS'16:16:57.0,34.1458843,-118.13470539,4636.01,go'
p2803
I82
sS'juice'
p2804
I81
sS'substantial'
p2805
I82
sS'gala'
p2806
I82
sS"nothin'"
p2807
I82
sS'caroussel'
p2808
I82
sS'karl'
p2809
I81
sS'estrada'
p2810
I82
sS'sell'
p2811
I82
sS'lie'
p2812
I82
sS'pasad'
p2813
I82
sS'u.s'
p2814
I82
sS'relationship'
p2815
I82
sS'lies'
p2816
I82
sS'dancing'
p2817
I82
sS'lil'
p2818
I81
sS'trance'
p2819
I82
sS'self'
p2820
I82
sS'hambriento'
p2821
I82
sS"'twas"
p2822
I82
sS'h20'
p2823
I82
sS'discos'
p2824
I82
sS'couch'
p2825
I81
sS'auditions'
p2826
I80
sS'maison'
p2827
I81
sS'sandwiches'
p2828
I82
sS'nuestras'
p2829
I81
sS'require'
p2830
I82
sS'buff'
p2831
I82
sS'waitin'
p2832
I82
sS'play'
p2833
I77
sS'experienced'
p2834
I82
sS'cargo'
p2835
I82
sS'kai'
p2836
I82
sS'lets\xe2\x80\xa6'
p2837
I82
sS'reach'
p2838
I82
sS'reunited'
p2839
I82
sS'-9.5'
p2840
I82
sS'react'
p2841
I82
sS'most'
p2842
I68
sS'say\xe2\x80\xa6'
p2843
I82
sS'"relaja"'
p2844
I82
sS'complementing'
p2845
I82
sS'amas'
p2846
I82
sS'fiasco'
p2847
I82
sS'nothing'
p2848
I75
sS'henson'
p2849
I74
sS'amaz'
p2850
I82
sS'reparte'
p2851
I82
sS'heretic'
p2852
I82
sS'nost\xc3\xa1lgico'
p2853
I82
sS'spinach'
p2854
I82
sS'mobile'
p2855
I80
sS'clear'
p2856
I81
sS'"puppet'
p2857
I76
sS'wore'
p2858
I82
sS'because\xe2\x80\xa6'
p2859
I82
sS'mz'
p2860
I82
sS'clean'
p2861
I82
sS'falcons'
p2862
I82
sS'\xe2\x98\x80\xef\xb8\x8f'
p2863
I82
sS'91101(626)'
p2864
I82
sS'bulletin'
p2865
I82
sS'lying'
p2866
I82
sS"they're"
p2867
I79
sS'corgis'
p2868
I82
sS'ugh'
p2869
I78
sS'golf'
p2870
I82
sS'non-18thc'
p2871
I82
sS'gold'
p2872
I79
sS'schoolers'
p2873
I82
sS'tener'
p2874
I81
sS'disappointed'
p2875
I82
sS'16:07:19.0,34.14579,-118.14113,4636.01,transformers'
p2876
I82
sS'chanel'
p2877
I82
sS'sweater:/'
p2878
I82
sS'stfu'
p2879
I81
sS'session'
p2880
I81
sS'shitty'
p2881
I82
sS'miller'
p2882
I82
sS'jared'
p2883
I81
sS'heavens'
p2884
I82
sS'salu2'
p2885
I81
sS'find'
p2886
I79
sS'mysterians'
p2887
I82
sS'giant'
p2888
I81
sS'$5'
p2889
I81
sS'buscaba'
p2890
I82
sS'justice'
p2891
I81
sS'tears\xe2\x80\x9d'
p2892
I82
sS'regresar'
p2893
I82
sS'corazones'
p2894
I82
sS'pretty'
p2895
I76
sS'grecia'
p2896
I82
sS'override'
p2897
I82
sS'8'
p2898
I81
sS'$1'
p2899
I82
sS"mom's"
p2900
I82
sS'porque'
p2901
I80
sS'thenlmao'
p2902
I82
sS'his'
p2903
I71
sS'hit'
p2904
I82
sS'waterproof'
p2905
I82
sS'tommorow'
p2906
I82
sS'luke'
p2907
I82
sS'salud'
p2908
I82
sS'trees'
p2909
I82
sS'meif'
p2910
I82
sS'piercing'
p2911
I82
sS'fartnado'
p2912
I82
sS'feels'
p2913
I82
sS'promete'
p2914
I82
sS'preparing'
p2915
I81
sS'international'
p2916
I82
sS'during'
p2917
I80
sS'giggle)'
p2918
I82
sS'him'
p2919
I76
sS'urths'
p2920
I82
sS'devoured'
p2921
I82
sS'beautifully'
p2922
I82
sS'sacrificed'
p2923
I82
sS'cry'
p2924
I80
sS'stroll'
p2925
I81
sS'waitiiing'
p2926
I82
sS'banking'
p2927
I82
sS"'diy"
p2928
I82
sS'caramel'
p2929
I82
sS'hike'
p2930
I80
sS'advocacy\xe2\x80\xa6'
p2931
I82
sS'poisoned'
p2932
I82
sS'gee'
p2933
I82
sS'aprend\xc3\xad'
p2934
I82
sS'wrote'
p2935
I80
sS'restaurants'
p2936
I82
sS'insane'
p2937
I82
sS'body'
p2938
I82
sS'set'
p2939
I80
sS'ser'
p2940
I78
sS'vino'
p2941
I80
sS'throwing'
p2942
I82
sS'shayan'
p2943
I82
sS'opposing'
p2944
I82
sS'music...and'
p2945
I82
sS'vine'
p2946
I82
sS'tip'
p2947
I82
sS'see'
p2948
I52
sS'professional'
p2949
I82
sS'dumb'
p2950
I82
sS'are'
p2951
I32
sS'sea'
p2952
I82
sS'tender'
p2953
I68
sS'close'
p2954
I80
sS'cheerios'
p2955
I82
sS'arm'
p2956
I82
sS'pones'
p2957
I82
sS'rosemary'
p2958
I82
sS'it...\xe2\x80\xa6'
p2959
I82
sS'fitness)'
p2960
I82
sS'pictures'
p2961
I80
sS'wow'
p2962
I74
sS'currently'
p2963
I81
sS'please'
p2964
I79
sS'massaged'
p2965
I82
sS'won'
p2966
I82
sS'pennies'
p2967
I82
sS'hayley'
p2968
I82
sS'grandparents'
p2969
I82
sS'probably'
p2970
I77
sS'soulmate'
p2971
I82
sS'weekly'
p2972
I82
sS'nope'
p2973
I82
sS'rita'
p2974
I82
sS'piss'
p2975
I82
sS'knowing'
p2976
I82
sS'makeup'
p2977
I82
sS'eats'
p2978
I82
sS'sister/friend'
p2979
I82
sS'missing'
p2980
I82
sS'underwood'
p2981
I82
sS'attention'
p2982
I80
sS'outfit'
p2983
I81
sS'succeed'
p2984
I82
sS'opposition'
p2985
I82
sS'hazardde'
p2986
I82
sS'encapsulate'
p2987
I82
sS'pissed'
p2988
I82
sS'needs'
p2989
I82
sS'both'
p2990
I78
sS'last'
p2991
I64
sS'restaurant'
p2992
I78
sS'thot'
p2993
I82
sS"wouldn't"
p2994
I80
sS'barely'
p2995
I82
sS'onion'
p2996
I82
sS'foreign'
p2997
I82
sS'connection'
p2998
I82
sS'grimes'
p2999
I82
sS'gei'
p3000
I82
sS'context'
p3001
I82
sS'areand'
p3002
I82
sS'\xe2\x98\x95'
p3003
I82
sS'corrupt'
p3004
I82
sS'whole'
p3005
I79
sS'load'
p3006
I82
sS'juega'
p3007
I82
sS'liked'
p3008
I80
sS"everyone's"
p3009
I82
sS'happening"'
p3010
I82
sS'majesty'
p3011
I82
sS'este'
p3012
I79
sS'simple'
p3013
I81
sS'sweet'
p3014
I82
sS'das'
p3015
I82
sS'editions'
p3016
I82
sS'lucha'
p3017
I82
sS'community'
p3018
I80
sS'rosa'
p3019
I55
sS'simply'
p3020
I81
sS'platform'
p3021
I82
sS'church'
p3022
I70
sS'megdelacy'
p3023
I82
sS'supple'
p3024
I82
sS'platinum'
p3025
I82
sS'deber\xc3\xadamos'
p3026
I82
sS'raise'
p3027
I82
sS'pu'
p3028
I82
sS'redhook_brewery'
p3029
I82
sS'autocorrect'
p3030
I82
sS'souplantation'
p3031
I77
sS'coffee!"'
p3032
I81
sS"god.i'm"
p3033
I82
sS'hitting'
p3034
I81
sS'whom'
p3035
I82
sS'secret'
p3036
I82
sS'dropping'
p3037
I81
sS'damn'
p3038
I76
sS'sandwiches)'
p3039
I76
sS'meeting'
p3040
I72
sS'chandler'
p3041
I82
sS'woke'
p3042
I81
sS'rehearsals'
p3043
I82
sS'misunderstood'
p3044
I82
sS'lived'
p3045
I82
sS'versa'
p3046
I82
sS'gay'
p3047
I82
sS'!!!!!!!!!!!!!!!!!!!!!lol'
p3048
I82
sS'fire'
p3049
I79
sS"what's"
p3050
I80
sS'gas'
p3051
I82
sS'leaf\xc2\xae'
p3052
I82
sS'else'
p3053
I80
sS'my\xe2\x80\xa6'
p3054
I82
sS'understand'
p3055
I80
sS'whitney'
p3056
I82
sS'nap"\xe2\x80\xa6'
p3057
I82
sS'rocking'
p3058
I82
sS'haaaaa'
p3059
I82
sS'w/the'
p3060
I81
sS'look'
p3061
I70
sS'solid'
p3062
I80
sS'belly'
p3063
I82
sS'straight'
p3064
I81
sS'bill'
p3065
I80
sS'convo'
p3066
I82
sS'caravan'
p3067
I82
sS'while'
p3068
I74
sS'replaced'
p3069
I82
sS'smart'
p3070
I81
sS'shift'
p3071
I81
sS'fun'
p3072
I75
sS'kissing'
p3073
I82
sS'animated'
p3074
I82
sS'guide'
p3075
I82
sS'2night'
p3076
I82
sS'theres'
p3077
I81
sS'indulging'
p3078
I82
sS'swim'
p3079
I82
sS"alternative's"
p3080
I75
sS'<3'
p3081
I81
sS'century'
p3082
I82
sS'cents'
p3083
I82
sS'rip'
p3084
I82
sS'disappointing'
p3085
I82
sS"su'a"
p3086
I82
sS'itself'
p3087
I81
sS'owes'
p3088
I82
sS'salvar'
p3089
I82
sS'ready'
p3090
I75
sS'rid'
p3091
I82
sS':---)'
p3092
I82
sS'voy'
p3093
I82
sS'chase'
p3094
I80
sS'funny'
p3095
I80
sS'decor'
p3096
I82
sS'shirt'
p3097
I82
sS'anymore'
p3098
I80
sS'\xee\x80\x8d\xee\x8c\xb4'
p3099
I82
sS'rules'
p3100
I77
sS'\xe2\x98\x85'
p3101
I82
sS'9'
p3102
I82
sS"'straight"
p3103
I82
sS'soylent'
p3104
I82
sS'reselling'
p3105
I82
sS'get\xe2\x80\xa6'
p3106
I81
sS'higher'
p3107
I82
sS'used'
p3108
I80
sS'classmates'
p3109
I81
sS'islandia'
p3110
I82
sS'jitney'
p3111
I82
sS'gallery'
p3112
I82
sS'tiff'
p3113
I82
sS'yesterday'
p3114
I79
sS'alert'
p3115
I81
sS'\xe2\x98\x80\xef\xb8\x8f\xe2\x9b\x85\xef\xb8\x8f'
p3116
I82
sS'moment'
p3117
I80
sS'walmart'
p3118
I82
sS'moving'
p3119
I82
sS'purpose'
p3120
I82
sS'decency'
p3121
I82
sS'robust'
p3122
I82
sS'nickname'
p3123
I82
sS'conveniently'
p3124
I82
sS'soooooooooo'
p3125
I82
sS'recent'
p3126
I82
sS'plate'
p3127
I82
sS'early'
p3128
I76
sS'gene'
p3129
I82
sS'jajaja'
p3130
I82
sS'evocative'
p3131
I82
sS'spent'
p3132
I81
sS'analysis'
p3133
I82
sS'obviously'
p3134
I82
sS'person'
p3135
I73
sS'cheer'
p3136
I82
sS'headlining'
p3137
I82
sS'"rent"'
p3138
I82
sS"everything's"
p3139
I82
sS'y'
p3140
I56
sS'wedges'
p3141
I82
sS'philipmartinsus'
p3142
I81
sS'rsduarte'
p3143
I82
sS'spend'
p3144
I82
sS'caturra'
p3145
I82
sS'opinar'
p3146
I82
sS'listening'
p3147
I79
sS'~~^^'
p3148
I78
sS'theee'
p3149
I82
sS'ludicrous'
p3150
I82
sS'audrey_arndt'
p3151
I82
sS'\xd0\xb8\xd0\xbc\xd0\xb5\xd0\xbd\xd0\xbd\xd0\xbe'
p3152
I82
sS'deseadme'
p3153
I82
sS'distracting'
p3154
I82
sS'openly'
p3155
I82
sS'questions'
p3156
I82
sS'using'
p3157
I81
sS'jv'
p3158
I82
sS'apple'
p3159
I82
sS'juuuust'
p3160
I82
sS'cut'
p3161
I82
sS'pac\xc3\xadfico'
p3162
I82
sS'illusions'
p3163
I82
sS'adrienne'
p3164
I82
sS'cup'
p3165
I80
sS'othertime'
p3166
I82
sS'hated'
p3167
I81
sS'bick'
p3168
I82
sS'burrito'
p3169
I82
sS'bww'
p3170
I82
sS"fu's"
p3171
I82
sS'parents'
p3172
I81
sS'location'
p3173
I81
sS'crying'
p3174
I80
sS'snap'
p3175
I81
sS'selfish'
p3176
I82
sS'bridal'
p3177
I81
sS'submissions'
p3178
I82
sS'excited'
p3179
I76
sS'hates'
p3180
I82
sS'bin'
p3181
I82
sS'cordon'
p3182
I72
sS'pls!!!!\xc2\xa1!\xc2\xa1\xc2\xa1'
p3183
I82
sS'big'
p3184
I73
sS'couple'
p3185
I80
sS'instructors'
p3186
I82
sS'8:30pm'
p3187
I82
sS'matters'
p3188
I81
sS'game'
p3189
I67
sS'truely'
p3190
I82
sS'crisp'
p3191
I81
sS'bit'
p3192
I80
sS'entendida'
p3193
I82
sS'wings'
p3194
I82
sS"macy's"
p3195
I76
sS'del\xe2\x80\xa6'
p3196
I82
sS'knock'
p3197
I81
sS'seperate'
p3198
I82
sS'd'
p3199
I76
sS"children's"
p3200
I82
sS'university'
p3201
I82
sS'wingstop'
p3202
I82
sS'da'
p3203
I82
sS'shabu'
p3204
I75
sS'dejes'
p3205
I82
sS'ignore'
p3206
I82
sS'continue'
p3207
I82
sS'indication'
p3208
I82
sS'byproduct'
p3209
I82
sS'popular'
p3210
I82
sS'mode'
p3211
I82
sS'may\xe2\x80\xa6'
p3212
I82
sS'disorder'
p3213
I82
sS'doctorado'
p3214
I82
sS'sketch'
p3215
I82
sS'"jane'
p3216
I81
sS'grossest'
p3217
I82
sS'parade'
p3218
I80
sS'growling'
p3219
I82
sS'fucking'
p3220
I77
sS'spring'
p3221
I82
sS'fathers'
p3222
I82
sS'1st'
p3223
I79
sS'some'
p3224
I55
sS'back'
p3225
I56
sS'b4'
p3226
I82
sS'mmmmm'
p3227
I82
sS'"we'
p3228
I82
sS'apply'
p3229
I82
sS'candle'
p3230
I81
sS'molino'
p3231
I79
sS'tratando'
p3232
I82
sS'obnoxious'
p3233
I82
sS'savage'
p3234
I82
sS'feveeer'
p3235
I82
sS'weirdo'
p3236
I82
sS'jewelry'
p3237
I82
sS"jj's"
p3238
I82
sS'pet'
p3239
I82
sS'hombres'
p3240
I82
sS'seller'
p3241
I62
sS'amiguita'
p3242
I82
sS'prom'
p3243
I82
sS'jokingly'
p3244
I82
sS'scalp'
p3245
I82
sS'epic'
p3246
I82
sS'disfrutar'
p3247
I82
sS'unscripted'
p3248
I80
sS't'
p3249
I82
sS'be'
p3250
I29
sS'atenci\xc3\xb3n'
p3251
I82
sS'eating'
p3252
I77
sS'bb'
p3253
I82
sS'rum'
p3254
I81
sS'300'
p3255
I82
sS'salmon'
p3256
I82
sS'audi'
p3257
I82
sS'laker'
p3258
I82
sS'virtues'
p3259
I82
sS'zombie'
p3260
I82
sS'aerosmith'
p3261
I82
sS'step'
p3262
I81
sS'santa'
p3263
I80
sS'bs'
p3264
I82
sS'crap'
p3265
I81
sS'tocar'
p3266
I80
sS'by'
p3267
I64
sS'wealth'
p3268
I82
sS'depths'
p3269
I82
sS'a\xc3\xb1os'
p3270
I82
sS'dreams)'
p3271
I82
sS'wouldnt'
p3272
I82
sS'audition'
p3273
I82
sS'iced'
p3274
I80
sS'truck'
p3275
I79
sS'audible'
p3276
I82
sS'drama'
p3277
I81
sS'levantarme'
p3278
I82
sS'bulgogi'
p3279
I82
sS'trato'
p3280
I81
sS'sepultura'
p3281
I82
sS'dads'
p3282
I82
sS'pre-film'
p3283
I82
sS'wanna'
p3284
I77
sS'block'
p3285
I82
sS'ppl'
p3286
I82
sS'seeing'
p3287
I80
sS'jimmy'
p3288
I76
sS'clinton'
p3289
I81
sS'colorado'
p3290
I80
sS'same-sex'
p3291
I82
sS'techie'
p3292
I81
sS'dude'
p3293
I80
sS'into'
p3294
I72
sS'helical'
p3295
I82
sS'rtrtrt'
p3296
I82
sS'\xd0\xba\xd1\x83\xd0\xb4\xd0\xb0'
p3297
I82
sS'jesucristo'
p3298
I82
sS'phase'
p3299
I82
sS'momma'
p3300
I82
sS'because'
p3301
I74
sS'beber'
p3302
I82
sS'lol\xee\x90\x92\xe2\x80\xa6'
p3303
I82
sS'rolls'
p3304
I82
sS'smells'
p3305
I82
sS'impressed'
p3306
I82
sS'ma-ma-ma-matchaaaa'
p3307
I82
sS'pierda'
p3308
I82
sS'bibim'
p3309
I81
sS'pertenencias'
p3310
I82
sS'spending'
p3311
I82
sS'pocos'
p3312
I82
sS'question'
p3313
I80
sS'cherished'
p3314
I81
sS'fast'
p3315
I78
sS'msl'
p3316
I82
sS"we're"
p3317
I80
sS'dodgers'
p3318
I82
sS'mattresses'
p3319
I82
sS'forward'
p3320
I81
sS'bored'
p3321
I81
sS"causin'"
p3322
I82
sS'scared'
p3323
I82
sS'mountains'
p3324
I81
sS'himself'
p3325
I81
sS'urtth'
p3326
I82
sS'jewish'
p3327
I82
sS'(521'
p3328
I82
sS'murphy'
p3329
I82
sS'singer'
p3330
I82
sS'egoismo'
p3331
I82
sS'boys'
p3332
I82
sS'yesssss'
p3333
I82
sS'"venadita'
p3334
I82
sS'competition'
p3335
I82
sS'absortivo'
p3336
I82
sS'episode'
p3337
I82
sS'line'
p3338
I79
sS'\xe2\x99\xa5'
p3339
I82
sS'relaxes'
p3340
I82
sS'posted'
p3341
I78
sS'info'
p3342
I82
sS'phillips'
p3343
I82
sS'cif'
p3344
I81
sS'fived'
p3345
I82
sS'sounds'
p3346
I82
sS'celebrated'
p3347
I82
sS'up'
p3348
I32
sS'us'
p3349
I79
sS'ur'
p3350
I81
sS'clips'
p3351
I82
sS'windows'
p3352
I82
sS'\xd1\x84\xd0\xbe\xd1\x82\xd0\xbe'
p3353
I81
sS'un'
p3354
I67
sS'uh'
p3355
I82
sS'cama'
p3356
I82
sS'\xeb\x9d\xbc\xeb\x96\xbc'
p3357
I82
sS'electronics'
p3358
I82
sS'loving'
p3359
I82
sS'ua'
p3360
I82
sS'called'
p3361
I81
sS'necesito'
p3362
I82
sS'sort'
p3363
I82
sS'pictured)'
p3364
I82
sS'sometimes'
p3365
I77
sS'freak'
p3366
I81
sS'today\xe2\x80\xa6'
p3367
I82
sS'messed'
p3368
I82
sS'cover'
p3369
I82
sS'pel\xc3\xadculas'
p3370
I82
sS'"its'
p3371
I82
sS'cham'
p3372
I81
sS'creeper'
p3373
I82
sS'single'
p3374
I81
sS'musicals."'
p3375
I82
sS'carmen'
p3376
I82
sS'cafe'
p3377
I69
sS'empire'
p3378
I82
sS'kidney'
p3379
I82
sS'rainy'
p3380
I82
sS'stray'
p3381
I82
sS'lemon'
p3382
I82
sS'bendito'
p3383
I82
sS'200k'
p3384
I82
sS'nah'
p3385
I82
sS'backs'
p3386
I82
sS'habr\xc3\xa1'
p3387
I82
sS'nick'
p3388
I82
sS'points'
p3389
I82
sS'datsik'
p3390
I82
sS'carrera'
p3391
I82
sS'grind'
p3392
I82
sS'priorities'
p3393
I82
sS'b/c'
p3394
I82
sS'nice'
p3395
I78
sS'temor'
p3396
I82
sS'slick'
p3397
I82
sS'draw'
p3398
I82
sS'noche'
p3399
I82
sS'favourite'
p3400
I82
sS"child's"
p3401
I82
sS'papa'
p3402
I81
sS'resign'
p3403
I82
sS'william'
p3404
I81
sS'muddles'
p3405
I82
sS'conocidos'
p3406
I82
sS'reservation'
p3407
I82
sS'ristorante'
p3408
I80
sS'long\xe2\x80\xa6'
p3409
I82
sS'structure'
p3410
I82
sS'ago'
p3411
I81
sS'playhouse)'
p3412
I79
sS'e'
p3413
I78
sS'youtube'
p3414
I81
sS'walked'
p3415
I82
sS'admiring'
p3416
I82
sS'seeing\xe2\x80\xa6'
p3417
I82
sS'2000'
p3418
I82
sS'algo'
p3419
I81
sS'weights'
p3420
I81
sS'ig\xe2\x80\x9d'
p3421
I82
sS'akira)'
p3422
I81
sS'far'
p3423
I81
sS'fresh'
p3424
I80
sS'bartonella'
p3425
I82
sS'standoff'
p3426
I82
sS'hello'
p3427
I80
sS'once'
p3428
I79
sS'cheetos'
p3429
I82
sS'sonoma'
p3430
I82
sS'windo'
p3431
I82
sS'scratch'
p3432
I81
sS'resistance'
p3433
I82
sS'ds'
p3434
I82
sS'edm'
p3435
I82
sS'steve'
p3436
I82
sS'desserts'
p3437
I81
sS'\xe2\x99\xa1\xe2\x99\xa1'
p3438
I82
sS'freakin'
p3439
I82
sS'go'
p3440
I52
sS'gossip'
p3441
I82
sS'chillin'
p3442
I81
sS'(besides'
p3443
I82
sS'visiting'
p3444
I82
sS'dawwwwwwwwg'
p3445
I82
sS'young'
p3446
I79
sS'send'
p3447
I80
sS'suits'
p3448
I82
sS'culinary'
p3449
I73
sS'nuestros'
p3450
I82
sS'blaze'
p3451
I82
sS'babes'
p3452
I82
sS'yoga'
p3453
I82
sS'dislike'
p3454
I82
sS'sent'
p3455
I82
sS'certain'
p3456
I82
sS'persuade'
p3457
I82
sS'wendy'
p3458
I81
sS'dessert'
p3459
I78
sS'agua'
p3460
I81
sS'henselae'
p3461
I82
sS'month!\xe2\x80\xa6'
p3462
I82
sS'wishes'
p3463
I82
sS'facebook'
p3464
I82
sS'hugging'
p3465
I82
sS'homework'
p3466
I82
sS'telling'
p3467
I82
sS'confiamos'
p3468
I82
sS'chloelin2'
p3469
I82
sS'championship'
p3470
I82
sS'materialism'
p3471
I82
sS'entire'
p3472
I81
sS'touring'
p3473
I82
sS'seahawks'
p3474
I82
sS'comenzar'
p3475
I82
sS'basicallly'
p3476
I82
sS'experiencing'
p3477
I82
sS'notes'
p3478
I82
sS'gettin'
p3479
I82
sS'michael'
p3480
I80
sS'eve'
p3481
I81
sS'seguro'
p3482
I82
sS'try'
p3483
I82
sS'brutal'
p3484
I82
sS'skipped'
p3485
I82
sS'race'
p3486
I82
sS'havent'
p3487
I81
sS'trout'
p3488
I82
sS'mahler'
p3489
I82
sS'\xd1\x81\xd0\xb5\xd1\x82\xd0\xb8'
p3490
I82
sS'joey'
p3491
I82
sS'claudia'
p3492
I80
sS'app'
p3493
I82
sS'clients'
p3494
I81
sS"you'd"
p3495
I80
sS'capacitaci\xc3\xb3n'
p3496
I82
sS'yourself'
p3497
I82
sS'unconventional'
p3498
I82
sS'scientist'
p3499
I81
sS'movie...makes'
p3500
I82
sS'angel"'
p3501
I82
sS'video'
p3502
I80
sS'...great'
p3503
I82
sS'picked'
p3504
I82
sS'ojo'
p3505
I82
sS'infront'
p3506
I82
sS'yvonne'
p3507
I82
sS'news'
p3508
I82
sS'graduating'
p3509
I82
sS'optimize'
p3510
I82
sS'software'
p3511
I82
sS'bda'
p3512
I82
sS'business'
p3513
I81
sS'fine'
p3514
I79
sS'asap'
p3515
I82
sS'sushivino'
p3516
I82
sS'practices'
p3517
I82
sS'seconds'
p3518
I82
sS'waiting'
p3519
I78
sS'indian'
p3520
I80
sS'playa'
p3521
I82
sS'grande)'
p3522
I80
sS'kershaw'
p3523
I81
sS'wwwwwwwvvvbex'
p3524
I82
sS'cordova'
p3525
I77
sS'piensan'
p3526
I82
sS'blowdry'
p3527
I82
sS'when\xe2\x80\xa6'
p3528
I82
sS'led'
p3529
I82
sS'cam'
p3530
I82
sS'raccoons'
p3531
I82
sS'leg'
p3532
I80
sS"grauman's"
p3533
I82
sS'commercial'
p3534
I81
sS'ressurrei\xc3\xa7\xc3\xa3o'
p3535
I82
sS'shmurda'
p3536
I82
sS'sinn'
p3537
I82
sS'packing'
p3538
I82
sS'les'
p3539
I82
sS'let'
p3540
I76
sS'pancake'
p3541
I82
sS'others'
p3542
I67
sS'fold"'
p3543
I82
sS'sexy'
p3544
I81
sS'respetan'
p3545
I82
sS'oxidativa'
p3546
I82
sS'restaurant)'
p3547
I82
sS'great'
p3548
I56
sS'adversidad'
p3549
I82
sS'talent'
p3550
I77
sS'\xe2\x9a\xbd\xef\xb8\x8f'
p3551
I82
sS'5:00'
p3552
I82
sS'30'
p3553
I80
sS'shades'
p3554
I80
sS'leaving'
p3555
I81
sS'\xd0\xa2\xd0\xad\xd0\x93'
p3556
I82
sS'products'
p3557
I82
sS'opinion'
p3558
I82
sS'ps4'
p3559
I82
sS'madport\xe2\x80\xa6'
p3560
I82
sS'makes'
p3561
I75
sS'weekends'
p3562
I82
sS'thats'
p3563
I80
sS'padadena'
p3564
I77
sS'(my'
p3565
I81
sS'reserve'
p3566
I82
sS'win'
p3567
I76
sS'charge'
p3568
I81
sS'siri'
p3569
I82
sS'private'
p3570
I82
sS'ran'
p3571
I82
sS'wit'
p3572
I81
sS'dumbest'
p3573
I82
sS'pesar'
p3574
I82
sS'(me'
p3575
I82
sS'"stoneface"'
p3576
I82
sS'singing'
p3577
I82
sS'lime'
p3578
I82
sS'standing'
p3579
I81
sS'from'
p3580
I43
sS'usa'
p3581
I81
sS'&'
p3582
I27
sS'smile\xe2\x80\xa6'
p3583
I82
sS'live'
p3584
I77
sS'se\xc3\xb1orita'
p3585
I81
sS'agr\xc3\xa9game'
p3586
I82
sS'reanimating'
p3587
I82
sS'next'
p3588
I75
sS'few'
p3589
I79
sS'jonathan'
p3590
I82
sS'dejan'
p3591
I82
sS'dallas'
p3592
I82
sS"'the"
p3593
I82
sS'popped'
p3594
I82
sS'babe'
p3595
I82
sS'disgust'
p3596
I82
sS'upcoming'
p3597
I81
sS'ap\xc3\xb3s'
p3598
I82
sS'started'
p3599
I78
sS'tennis'
p3600
I82
sS'musician'
p3601
I82
sS'about'
p3602
I47
sS'infection'
p3603
I82
sS'wich"'
p3604
I82
sS'train'
p3605
I81
sS'rabbit'
p3606
I82
sS'baby'
p3607
I68
sS'actual'
p3608
I82
sS'shostakovich'
p3609
I82
sS'pocahontas'
p3610
I82
sS'women'
p3611
I79
sS"winchell's)"
p3612
I82
sS'balls'
p3613
I82
sS'practicing'
p3614
I82
sS'salad'
p3615
I76
sS'f'
p3616
I82
sS'this'
p3617
I19
sS'gabriel'
p3618
I82
sS'ride'
p3619
I79
sS'oh'
p3620
I65
sS'youjuuuu'
p3621
I82
sS'tax-deductible\xe2\x80\xa6'
p3622
I82
sS'erwin'
p3623
I81
sS'donut'
p3624
I80
sS'unreal'
p3625
I82
sS'crossed'
p3626
I82
sS'parlacen'
p3627
I82
sS'meet'
p3628
I82
sS'closing'
p3629
I82
sS'didnt'
p3630
I81
sS'performed'
p3631
I82
sS'hip'
p3632
I82
sS'weaker'
p3633
I82
sS'thirsty'
p3634
I82
sS'do'
p3635
I47
sS'process'
p3636
I82
sS'tax'
p3637
I82
sS'trap'
p3638
I82
sS'high'
p3639
I78
sS'tal'
p3640
I82
sS'wesolych'
p3641
I82
sS'hilton'
p3642
I66
sS'something'
p3643
I79
sS'tab'
p3644
I82
sS'blvd'
p3645
I79
sS'enrique'
p3646
I82
sS'shrimp'
p3647
I82
sS'handmade'
p3648
I82
sS'sir'
p3649
I80
sS'united'
p3650
I80
sS'ipads...(and'
p3651
I82
sS'tanto'
p3652
I82
sS'six'
p3653
I81
sS'fuuuuuuuuuckkkkkkkkkkkkk'
p3654
I82
sS'tom'
p3655
I82
sS'arrangement'
p3656
I82
sS'camille'
p3657
I81
sS'animal'
p3658
I80
sS'hmwk'
p3659
I82
sS'bus'
p3660
I82
sS'instead'
p3661
I82
sS'fam'
p3662
I81
sS'native'
p3663
I82
sS'sin'
p3664
I79
sS'gallo'
p3665
I82
sS'stand'
p3666
I82
sS'watery'
p3667
I82
sS'puppets'
p3668
I82
sS'falta'
p3669
I82
sS'overridden'
p3670
I82
sS'autobiography'
p3671
I82
sS'"you\'d'
p3672
I82
sS'stop'
p3673
I72
sS"bookcases'"
p3674
I82
sS'productive'
p3675
I82
sS'"posey'
p3676
I82
sS'jonathon'
p3677
I82
sS'piace'
p3678
I82
sS'hahahaha'
p3679
I82
sS'conformes'
p3680
I82
sS'cuesta'
p3681
I82
sS'autograph'
p3682
I82
sS'staff'
p3683
I82
sS'tomato'
p3684
I82
sS'realized'
p3685
I81
sS'pueblo'
p3686
I82
sS'light'
p3687
I80
sS'counter'
p3688
I82
sS'bakery'
p3689
I80
sS'honestly'
p3690
I81
sS'rove'
p3691
I81
sS'swimming'
p3692
I82
sS'loud'
p3693
I82
sS'discussion'
p3694
I82
sS'mustache'
p3695
I81
sS'houston'
p3696
I82
sS'adjust'
p3697
I82
sS'a/c'
p3698
I81
sS'aiken'
p3699
I81
sS'produces'
p3700
I82
sS'move'
p3701
I78
sS'churros'
p3702
I82
sS'whilst'
p3703
I82
sS'now-gop'
p3704
I82
sS'130'
p3705
I82
sS"won't"
p3706
I80
sS'looks'
p3707
I78
sS'damnit'
p3708
I82
sS'dalene'
p3709
I82
sS'bunch'
p3710
I82
sS'perfect'
p3711
I75
sS'1'
p3712
I80
sS'le'
p3713
I69
sS'jaime-becerra'
p3714
I82
sS'bridget'
p3715
I81
sS'la'
p3716
I31
sS'lo'
p3717
I74
sS'decorum'
p3718
I82
sS'notebooks'
p3719
I82
sS'me?"'
p3720
I82
sS'[pic]'
p3721
I66
sS'madre'
p3722
I82
sS'what\xe2\x80\xa6'
p3723
I82
sS'"ok"'
p3724
I82
sS'2015'
p3725
I82
sS'2014'
p3726
I79
sS'holiday'
p3727
I79
sS'2011'
p3728
I82
sS'dad'
p3729
I73
sS'flex'
p3730
I81
sS'designs'
p3731
I82
sS'tears'
p3732
I81
sS'serra'
p3733
I82
sS'willianand'
p3734
I82
sS'later'
p3735
I82
sS"papa's"
p3736
I82
sS'dan'
p3737
I80
sS'banqueros'
p3738
I82
sS'fiesta'
p3739
I78
sS'"entershamement"'
p3740
I82
sS'flew'
p3741
I82
sS'happy\xe2\x80\xa6'
p3742
I82
sS'cutting'
p3743
I82
sS'bio'
p3744
I82
sS'hands'
p3745
I81
sS'front'
p3746
I80
sS'specs..their'
p3747
I82
sS'seaweed'
p3748
I82
sS'day'
p3749
I32
sS'hunden'
p3750
I81
sS'minimalist'
p3751
I82
sS'autistic'
p3752
I82
sS'cantantes'
p3753
I82
sS'puro'
p3754
I82
sS'radiant'
p3755
I82
sS'nfl'
p3756
I81
sS'cider'
p3757
I82
sS'jaime888'
p3758
I82
sS'boots'
p3759
I82
sS'ohhhhhh'
p3760
I82
sS'sufficiently'
p3761
I82
sS'slipping'
p3762
I82
sS'donde'
p3763
I82
sS'nfr'
p3764
I82
sS'viewing'
p3765
I82
sS'mofos'
p3766
I82
sS'abricott'
p3767
I82
sS'sil'
p3768
I82
sS'|'
p3769
I80
sS'glasses'
p3770
I81
sS'border'
p3771
I82
sS'salsa'
p3772
I82
sS'bueno'
p3773
I80
sS'shower'
p3774
I82
sS'doing'
p3775
I79
sS'wazza'
p3776
I82
sS"mcfly's"
p3777
I82
sS'waking'
p3778
I82
sS'mas'
p3779
I82
sS'books'
p3780
I81
sS'our'
p3781
I68
sS'--what'
p3782
I82
sS'"fallen'
p3783
I75
sS'sexual'
p3784
I82
sS'wine)'
p3785
I81
sS'special'
p3786
I81
sS'out'
p3787
I40
sS'secretly'
p3788
I82
sS'arreglarlo'
p3789
I82
sS'borderline'
p3790
I82
sS'twice'
p3791
I81
sS'pointless'
p3792
I82
sS'bob'
p3793
I82
sS'w/o'
p3794
I82
sS'unitarian'
p3795
I79
sS'similarly'
p3796
I82
sS'menci\xc3\xb3n'
p3797
I82
sS'hilarious'
p3798
I81
sS'causa'
p3799
I82
sS'lecture'
p3800
I82
sS'ckdu'
p3801
I82
sS'autocorrected'
p3802
I82
sS'cause'
p3803
I75
sS'math'
p3804
I82
sS'dew."'
p3805
I82
sS'quarter'
p3806
I82
sS'jessica'
p3807
I81
sS'stalker'
p3808
I82
sS'*black'
p3809
I82
sS'thirstythursday'
p3810
I82
sS'frank'
p3811
I82
sS'cambia'
p3812
I82
sS'jeff'
p3813
I82
sS"cliff's"
p3814
I81
sS'attending'
p3815
I82
sS'completely'
p3816
I82
sS'que'
p3817
I42
sS'advisor'
p3818
I79
sS'qui'
p3819
I82
sS'motherlode'
p3820
I82
sS'necesariamente'
p3821
I82
sS'craving'
p3822
I81
sS'organic'
p3823
I78
sS'cirujano'
p3824
I82
sS'g'
p3825
I80
sS'buenos'
p3826
I82
sS'snapchats'
p3827
I81
sS'could'
p3828
I75
sS"'equivocating"
p3829
I82
sS'florida'
p3830
I82
sS'times'
p3831
I81
sS'conversation'
p3832
I78
sS'especiales'
p3833
I82
sS'4th'
p3834
I82
sS'pudding'
p3835
I81
sS"arguement'"
p3836
I82
sS'felt'
p3837
I82
sS'pgx108'
p3838
I82
sS'retail'
p3839
I78
sS'austin'
p3840
I81
sS'scare'
p3841
I82
sS'south'
p3842
I81
sS'praxis'
p3843
I82
sS'degree'
p3844
I82
sS'ihy'
p3845
I82
sS'bacalao'
p3846
I82
sS'reaches'
p3847
I82
sS'jesus'
p3848
I80
sS'milagro'
p3849
I82
sS'puppet'
p3850
I82
sS'bitch'
p3851
I78
sS'collages'
p3852
I82
sS'mah'
p3853
I81
sS'owner'
p3854
I81
sS'besties'
p3855
I82
sS'blows'
p3856
I82
sS'hehe'
p3857
I81
sS'vacation\xee\x90\x92\xee\x90\x92\xee\x90\x92'
p3858
I82
sS'\xec\x97\xac\xeb\xa6\x84\xeb\xb0\xa4'
p3859
I82
sS"doesn't"
p3860
I78
sS'65%'
p3861
I82
sS'stoneface'
p3862
I82
sS'los'
p3863
I61
sS'festival'
p3864
I81
sS'shtoppp'
p3865
I82
sS'seat'
p3866
I82
sS'door'
p3867
I82
sS'mal'
p3868
I82
sS'their'
p3869
I76
sS'attack'
p3870
I82
sS"bb's"
p3871
I82
sS'lifting'
p3872
I82
sS'decorations'
p3873
I82
sS'ankle'
p3874
I82
sS'lions'
p3875
I82
sS'philosophical'
p3876
I82
sS'final'
p3877
I80
sS'beard'
p3878
I81
sS'florists'
p3879
I82
sS'xoxo'
p3880
I82
sS'gummy'
p3881
I82
sS'manicurist'
p3882
I82
sS'shiny'
p3883
I82
sS"'noles"
p3884
I82
sS'greta'
p3885
I82
sS'academy'
p3886
I82
sS'envidiar'
p3887
I82
sS'nobody'
p3888
I82
sS"leach's"
p3889
I82
sS'salimos'
p3890
I82
sS'adelante'
p3891
I82
sS'inventing'
p3892
I82
sS'grandpa'
p3893
I81
sS'9.5'
p3894
I82
sS'encuentro'
p3895
I82
sS'july'
p3896
I82
sS'lista'
p3897
I82
sS'pasadenaca'
p3898
I82
sS'intense\xe2\x80\xa6'
p3899
I82
sS'loved'
p3900
I80
sS'colleagues'
p3901
I82
sS'defeats'
p3902
I82
sS'relaxing'
p3903
I82
sS'warfare'
p3904
I82
sS'roulette'
p3905
I82
sS'boring'
p3906
I80
sS'bother'
p3907
I82
sS'classes'
p3908
I82
sS'bed'
p3909
I81
sS"creepin'"
p3910
I82
sS'claim'
p3911
I82
sS'xenia'
p3912
I82
sS'awmahgahd'
p3913
I82
sS'j.mikes'
p3914
I82
sS'6th'
p3915
I80
sS'spurt'
p3916
I82
sS'bet'
p3917
I81
sS'1.5'
p3918
I82
sS'uggggghhh'
p3919
I82
sS'wakes'
p3920
I82
sS'resistence'
p3921
I82
sS'trainer'
p3922
I82
sS'tonight'
p3923
I68
sS'yellin'
p3924
I82
sS'spicy'
p3925
I82
sS'receptionist'
p3926
I82
sS'have'
p3927
I39
sS'2.2'
p3928
I82
sS'need'
p3929
I63
sS'mathilda'
p3930
I82
sS'nosey'
p3931
I82
sS'apparently'
p3932
I81
sS'clearly'
p3933
I82
sS'"bend'
p3934
I82
sS'screw'
p3935
I82
sS'jeebus'
p3936
I82
sS'min'
p3937
I79
sS'kristy'
p3938
I82
sS'skittles'
p3939
I82
sS'fanatic'
p3940
I82
sS'able'
p3941
I82
sS'davies'
p3942
I81
sS'arabs'
p3943
I82
sS'bagel'
p3944
I82
sS'reflexology)'
p3945
I82
sS'instangram'
p3946
I82
sS':*(************'
p3947
I82
sS'witch'
p3948
I82
sS'which'
p3949
I81
sS'road"'
p3950
I82
sS'linda'
p3951
I81
sS'korean'
p3952
I81
sS'barn'
p3953
I82
sS'='
p3954
I75
sS'asl'
p3955
I82
sS'lugar'
p3956
I82
sS'2016'
p3957
I82
sS'ahi'
p3958
I82
sS'nyc...again'
p3959
I82
sS'empleo'
p3960
I82
sS'"by'
p3961
I82
sS'^^'
p3962
I80
sS'who'
p3963
I50
sS'dutch'
p3964
I82
sS'lmaooo'
p3965
I82
sS'2500$'
p3966
I82
sS'pasadena)'
p3967
I71
sS'duele'
p3968
I82
sS'visa'
p3969
I82
sS'neargod'
p3970
I82
sS'fountains'
p3971
I82
sS'mornings'
p3972
I82
sS"joe's"
p3973
I70
sS'comparison'
p3974
I82
sS'why'
p3975
I70
sS'police'
p3976
I82
sS'pollack'
p3977
I82
sS'deny'
p3978
I82
sS'lined'
p3979
I82
sS'sheba'
p3980
I80
sS'malos'
p3981
I82
sS'enthusiastic'
p3982
I82
sS'stranded'
p3983
I81
sS'thanksgiving'
p3984
I82
sS'pastor'
p3985
I82
sS'face'
p3986
I77
sS'looked'
p3987
I80
sS'becareful'
p3988
I82
sS"you'll"
p3989
I81
sS'se'
p3990
I77
sS'movie'
p3991
I74
sS'brew'
p3992
I80
sS'skinny'
p3993
I81
sS'mou'
p3994
I82
sS'pasadena:)'
p3995
I82
sS'h,91101\n514133335384158208,_guzmanny,2014-09-22'
p3996
I82
sS'text'
p3997
I79
sS'supported'
p3998
I82
sS'assholes'
p3999
I82
sS'eyebrows'
p4000
I82
sS'centimorgan'
p4001
I82
sS'bring'
p4002
I78
sS'democrats'
p4003
I81
sS'\xd0\x9c\xd0\x9e\xd0\x91/\xd0\x9f\xd0\x9a'
p4004
I82
sS'comienzo'
p4005
I81
sS'longer'
p4006
I82
sS'a/b'
p4007
I82
sS'day\xe2\x80\xa6'
p4008
I82
sS'ni'
p4009
I79
sS'ear'
p4010
I82
sS'noir'
p4011
I81
sS'planter'
p4012
I82
sS'earned'
p4013
I81
sS'2013we'
p4014
I82
sS'('
p4015
I82
sS'should'
p4016
I73
sS'ngt'
p4017
I82
sS'skifeess'
p4018
I82
sS'throop'
p4019
I79
sS'handsome'
p4020
I82
sS'libro'
p4021
I82
sS'hope'
p4022
I73
sS'nj'
p4023
I82
sS'meant'
p4024
I81
sS'prosperity'
p4025
I82
sS'jurassic'
p4026
I82
sS'handle'
p4027
I82
sS'opinions'
p4028
I82
sS'means'
p4029
I80
sS"'set"
p4030
I82
sS'dope'
p4031
I82
sS'jammy'
p4032
I82
sS'majorly'
p4033
I82
sS'lucky'
p4034
I80
sS'bear'
p4035
I82
sS'\xc2\xbfopini\xc3\xb3n'
p4036
I82
sS';-)"'
p4037
I81
sS'bean'
p4038
I81
sS'ones'
p4039
I80
sS'words'
p4040
I82
sS'bead'
p4041
I79
sS'diplo'
p4042
I82
sS'=/'
p4043
I82
sS'"which'
p4044
I81
sS'chips'
p4045
I82
sS'naples)'
p4046
I82
sS'insulina'
p4047
I82
sS'variedad'
p4048
I82
sS'puse'
p4049
I82
sS'c\xc3\xa1rcel'
p4050
I82
sS'brain'
p4051
I80
sS'h'
p4052
I82
sS'undergrad'
p4053
I82
sS'rapper'
p4054
I82
sS'hugged'
p4055
I82
sS'teams'
p4056
I82
sS'stuff'
p4057
I82
sS'she'
p4058
I55
sS'gran'
p4059
I81
sS'tunes'
p4060
I82
sS'ahahahahahah'
p4061
I82
sS'grab'
p4062
I82
sS'discovery'
p4063
I82
sS'11am'
p4064
I82
sS'server'
p4065
I82
sS'view'
p4066
I79
sS'"duck'
p4067
I82
sS'raci\xc3\xb3n'
p4068
I82
sS'humans'
p4069
I82
sS'lazy'
p4070
I82
sS'quiche'
p4071
I82
sS'existe'
p4072
I82
sS'driveway'
p4073
I82
sS'desperate'
p4074
I82
sS'kanye'
p4075
I82
sS'drinks?!phrase'
p4076
I82
sS'drivin'
p4077
I82
sS'peterson'
p4078
I82
sS'packed'
p4079
I81
sS'responses'
p4080
I82
sS'closer'
p4081
I82
sS'heaters'
p4082
I82
sS'interview'
p4083
I81
sS'fits.you'
p4084
I82
sS'insulting'
p4085
I82
sS'smog'
p4086
I82
sS'pi\xc3\xb1ata'
p4087
I82
sS'unless'
p4088
I82
sS'calhoun'
p4089
I82
sS'spotify'
p4090
I82
sS'yass'
p4091
I82
sS'genius'
p4092
I82
sS'written'
p4093
I82
sS"pop's"
p4094
I82
sS'peppermints'
p4095
I82
sS'queeeeeen'
p4096
I82
sS'bought'
p4097
I81
sS'mejores'
p4098
I82
sS'ends'
p4099
I82
sS'sole'
p4100
I82
sS'exam'
p4101
I82
sS'opening'
p4102
I80
sS'joy'
p4103
I80
sS'focus'
p4104
I82
sS'job'
p4105
I78
sS'joe'
p4106
I82
sS'key'
p4107
I81
sS'shopeeee'
p4108
I82
sS'felicia'
p4109
I82
sS'6?airplane'
p4110
I82
sS'swift'
p4111
I82
sS'boxing'
p4112
I82
sS'arts)'
p4113
I80
sS'staring'
p4114
I82
sS'marty'
p4115
I81
sS'nightmares'
p4116
I82
sS'hits'
p4117
I81
sS'figured'
p4118
I82
sS'\xec\x88\x98\xeb\x8b\xa4~~^^'
p4119
I82
sS'tried!\xe2\x80\xa6'
p4120
I82
sS'career'
p4121
I82
sS'caffe)'
p4122
I72
sS'taking'
p4123
I80
sS"he's"
p4124
I80
sS'drug'
p4125
I82
sS'agree'
p4126
I82
sS'fulfilled'
p4127
I82
sS'april'
p4128
I82
sS'admit'
p4129
I81
sS'busted'
p4130
I82
sS'atleast'
p4131
I82
sS'thang'
p4132
I82
sS'ami'
p4133
I82
sS'puff'
p4134
I82
sS'niggas'
p4135
I82
sS'taiji'
p4136
I81
sS'wear'
p4137
I82
sS'?\xe2\x80\x9d'
p4138
I82
sS'gorgeous'
p4139
I81
sS'english'
p4140
I82
sS'co'
p4141
I81
sS'schr\xc3\xb6dinger'
p4142
I82
sS'universalist'
p4143
I79
sS'gooooo'
p4144
I82
sS'curls'
p4145
I82
sS'ca'
p4146
I61
sS'unbelievable'
p4147
I82
sS'575'
p4148
I82
sS'walk'
p4149
I75
sS'denise'
p4150
I82
sS'taylor'
p4151
I82
sS'modeling'
p4152
I82
sS'respect'
p4153
I80
sS'mafia'
p4154
I82
sS'cansado'
p4155
I82
sS'tiene'
p4156
I81
sS'pouring'
p4157
I82
sS'aprende'
p4158
I81
sS'johnny'
p4159
I82
sS'birkenstocks'
p4160
I82
sS'\xec\x98\xa4\xed\x94\x88'
p4161
I82
sS"it's"
p4162
I31
sS'own)'
p4163
I82
sS'amiga'
p4164
I82
sS'quiz'
p4165
I82
sS'shops=happy'
p4166
I82
sS'breakfast..my'
p4167
I82
sS'iran'
p4168
I82
sS'treat'
p4169
I79
sS'feliz'
p4170
I66
sS'waste'
p4171
I82
sS'equipo'
p4172
I82
sS'bbq'
p4173
I82
sS'>'
p4174
I81
sS'traveling'
p4175
I82
sS'field'
p4176
I82
sS'mike'
p4177
I81
sS'\xee\x8c\xaa'
p4178
I82
sS'mika'
p4179
I82
sS'painted'
p4180
I82
sS're-up'
p4181
I82
sS'sales'
p4182
I77
sS'psoriasis'
p4183
I82
sS'corner"'
p4184
I82
sS'finished'
p4185
I81
sS'tfti'
p4186
I82
sS'mundo'
p4187
I82
sS'hobby'
p4188
I82
sS'brunch'
p4189
I81
sS'general'
p4190
I81
sS'quemados'
p4191
I82
sS'present'
p4192
I82
sS'even\xe2\x80\xa6'
p4193
I82
sS'wood'
p4194
I82
sS'bye'
p4195
I80
sS'unlike'
p4196
I82
sS'vanilla'
p4197
I81
sS'nd'
p4198
I82
sS'harder'
p4199
I82
sS'as'
p4200
I53
sS'will'
p4201
I54
sS'gucci'
p4202
I81
sS'bookmaker.eu'
p4203
I82
sS'hahaha'
p4204
I79
sS'frustrating'
p4205
I82
sS"them's"
p4206
I82
sS'~'
p4207
I82
sS'\xeb\x9d\xbc\xec\x9d\xb4\xeb\xb8\x8c'
p4208
I82
sS'va'
p4209
I82
sS'stuffing'
p4210
I82
sS'clam'
p4211
I82
sS'mejor'
p4212
I79
sS'eficaz'
p4213
I82
sS'almost'
p4214
I75
sS'demo'
p4215
I82
sS'blood'
p4216
I82
sS'av'
p4217
I82
sS'disapprove'
p4218
I82
sS'vp'
p4219
I80
sS'alejate'
p4220
I82
sS'babbatunde'
p4221
I82
sS'involved'
p4222
I82
sS'error'
p4223
I82
sS'politics'
p4224
I82
sS'ave'
p4225
I72
sS'04:32:28.0,34.1432814,-118.1323653,4636.01,drinkin'
p4226
I82
sS'tattoo'
p4227
I82
sS'speculoos'
p4228
I82
sS'players'
p4229
I82
sS'perhaps'
p4230
I81
sS'due\xc3\xb1os"'
p4231
I82
sS'views'
p4232
I82
sS'funniest'
p4233
I82
sS"labberton's"
p4234
I82
sS'member'
p4235
I82
sS'slammed'
p4236
I82
sS'shuttle'
p4237
I82
sS'party'
p4238
I73
sS'gets'
p4239
I79
sS'tomatoes'
p4240
I82
sS'difficult'
p4241
I82
sS'candelora'
p4242
I82
sS'tiempo'
p4243
I81
sS'ball'
p4244
I82
sS'slave'
p4245
I82
sS'raymond'
p4246
I82
sS'coached'
p4247
I82
sS'4.4'
p4248
I82
sS'earphones'
p4249
I82
sS'diste'
p4250
I82
sS'drink'
p4251
I78
sS'upon'
p4252
I82
sS'coffe'
p4253
I82
sS'tambien'
p4254
I82
sS"sharky's"
p4255
I80
sS'sopa'
p4256
I82
sS'"valiente"'
p4257
I82
sS'student'
p4258
I82
sS'fancy'
p4259
I82
sS'fucked'
p4260
I81
sS'*dramatically'
p4261
I82
sS"obama's"
p4262
I81
sS'estado'
p4263
I81
sS'lobby'
p4264
I82
sS'cuss'
p4265
I82
sS'off'
p4266
I64
sS'center'
p4267
I82
sS'luvya'
p4268
I82
sS'huella'
p4269
I82
sS'i'
p4270
I3
sS'approve'
p4271
I82
sS'well'
p4272
I70
sS'thought'
p4273
I74
sS'them.\xe2\x80\x9d'
p4274
I82
sS'oops'
p4275
I81
sS'sets'
p4276
I82
sS'position'
p4277
I82
sS'uno'
p4278
I81
sS'infarto'
p4279
I82
sS'usual'
p4280
I80
sS'nuzzles*'
p4281
I82
sS'carrie'
p4282
I76
sS'kiss'
p4283
I82
sS'cried'
p4284
I81
sS'less'
p4285
I81
sS"should've"
p4286
I82
sS'angels"'
p4287
I75
sS'necessitate'
p4288
I82
sS'mistaken'
p4289
I81
sS'6am'
p4290
I82
sS'\xe2\x98\xba'
p4291
I82
sS'40'
p4292
I82
sS'rocked'
p4293
I82
sS'seats'
p4294
I80
sS'tough'
p4295
I82
sS'you..its'
p4296
I82
sS'quiero'
p4297
I81
sS'wee'
p4298
I82
sS'zona\xe2\x80\xa6'
p4299
I82
sS'quotable'
p4300
I82
sS'vida'
p4301
I78
sS'point'
p4302
I77
sS'smith'
p4303
I82
sS'lake'
p4304
I76
sS'killed'
p4305
I82
sS'googling'
p4306
I82
sS'cinemas)'
p4307
I82
sS'add'
p4308
I80
sS'other'
p4309
I74
sS'cosmetics'
p4310
I78
sS'18:23:22.0,34.13984149,-118.13338627,4636.01,if'
p4311
I82
sS'yummmm'
p4312
I82
sS'workforce'
p4313
I82
sS'warrant'
p4314
I82
sS'kick'
p4315
I81
sS'divided'
p4316
I82
sS'shushyazh'
p4317
I82
sS"papa's)"
p4318
I82
sS'checking'
p4319
I82
sS"who's"
p4320
I82
sS'haus'
p4321
I82
sS'mockingjay'
p4322
I82
sS"d'antoni"
p4323
I82
sS'"tinder'
p4324
I82
sS'know'
p4325
I52
sS'facial'
p4326
I82
sS'press'
p4327
I82
sS'immediately'
p4328
I82
sS'2nd'
p4329
I82
sS'pier'
p4330
I82
sS'amend'
p4331
I82
sS'immunology'
p4332
I81
sS'like'
p4333
I36
sS'success'
p4334
I80
sS'"and'
p4335
I82
sS'luckily\xe2\x80\xa6'
p4336
I82
sS'future'
p4337
I82
sS'journalism'
p4338
I82
sS'cosas'
p4339
I82
sS'(or'
p4340
I82
sS'lose'
p4341
I80
sS'agents'
p4342
I82
sS'turkeys'
p4343
I82
sS'works'
p4344
I81
sS'page'
p4345
I82
sS'alabama'
p4346
I82
sS'nigga'
p4347
I80
sS'kohuhu'
p4348
I82
sS'sensuntepeque'
p4349
I82
sS'jan'
p4350
I82
sS'dieron'
p4351
I82
sS'twitter'
p4352
I81
sS'analog\xc3\xada'
p4353
I82
sS'alive'
p4354
I82
sS'hair'
p4355
I78
sS'growth'
p4356
I81
sS'\xeb\x8f\x99\xeb\x84\xa4'
p4357
I82
sS'blazing'
p4358
I82
sS"g's"
p4359
I82
sS'proper'
p4360
I82
sS'home'
p4361
I66
sS'liking'
p4362
I81
sS'it..just'
p4363
I82
sS'bienvenidos'
p4364
I82
sS'happens'
p4365
I81
sS'leaf'
p4366
I82
sS'obsessed'
p4367
I82
sS'lead'
p4368
I82
sS'billy'
p4369
I82
sS'literally'
p4370
I81
sS'avoid'
p4371
I81
sS'punditry'
p4372
I82
sS'langham'
p4373
I82
sS'"frozen"'
p4374
I82
sS'otherwise'
p4375
I82
sS'alumnos'
p4376
I82
sS'rewarding'
p4377
I81
sS'does'
p4378
I74
sS'sponsoring'
p4379
I82
sS'esa'
p4380
I81
sS'eso'
p4381
I82
sS'careless'
p4382
I82
sS'cl\xc3\xa1sica'
p4383
I82
sS'\xd0\xb2'
p4384
I82
sS'hijo'
p4385
I82
sS'blowing'
p4386
I82
sS'puedo'
p4387
I82
sS'truth'
p4388
I82
sS'slight'
p4389
I82
sS'pues'
p4390
I82
sS'mais'
p4391
I82
sS'expansion'
p4392
I82
sS'snapped'
p4393
I82
sS'repair'
p4394
I82
sS'stage'
p4395
I79
sS'sister'
p4396
I80
sS':-)'
p4397
I78
sS'rare'
p4398
I81
sS':-/'
p4399
I82
sS'getting'
p4400
I72
sS'freedom'
p4401
I82
sS'dicen'
p4402
I82
sS'angeles'
p4403
I75
sS'monthly'
p4404
I82
sS'perks'
p4405
I81
sS'swear'
p4406
I79
sS'hier'
p4407
I82
sS'sweat'
p4408
I81
sS'rug'
p4409
I82
sS'cameron'
p4410
I82
sS'photogs'
p4411
I82
sS'injusta'
p4412
I82
sS'celebration..newyears'
p4413
I82
sS'own'
p4414
I80
sS'pussy'
p4415
I79
sS'*gives'
p4416
I82
sS'panam\xc3\xa1'
p4417
I81
sS'due'
p4418
I82
sS'tweeting'
p4419
I82
sS'chris'
p4420
I82
sS'doesnt'
p4421
I82
sS'promise'
p4422
I82
sS'tiny'
p4423
I82
sS'female'
p4424
I82
sS'registration'
p4425
I81
sS'austen'
p4426
I81
sS'mera'
p4427
I81
sS'termina'
p4428
I81
sS'paulina'
p4429
I82
sS'hmmmmm'
p4430
I82
sS'.fawnmccool'
p4431
I82
sS'networking'
p4432
I82
sS'bentley'
p4433
I82
sS'crave'
p4434
I82
sS'plaid'
p4435
I82
sS'museum'
p4436
I81
sS'trenches'
p4437
I82
sS'kidding'
p4438
I82
sS'continental'
p4439
I81
sS'laemmle'
p4440
I82
sS'recognised'
p4441
I82
sS'frustration'
p4442
I82
sS'biggest'
p4443
I79
sS'pf'
p4444
I82
sS'gut'
p4445
I82
sS'muerte'
p4446
I82
sS'buy'
p4447
I82
sS'ayeeeeeee'
p4448
I82
sS'tina'
p4449
I82
sS'chatting'
p4450
I81
sS"i've"
p4451
I76
sS'hs'
p4452
I82
sS'brand'
p4453
I80
sS'bitches'
p4454
I80
sS'orar'
p4455
I82
sS'but'
p4456
I45
sS'webinar'
p4457
I82
sS'delivery'
p4458
I82
sS'neutral'
p4459
I82
sS'hi'
p4460
I79
sS'workout..and'
p4461
I82
sS'marge'
p4462
I82
sS'vp\xe2\x80\xa6'
p4463
I81
sS'beat'
p4464
I82
sS'distraction'
p4465
I82
sS'ha'
p4466
I81
sS'eat'
p4467
I75
sS'he'
p4468
I59
sS'count'
p4469
I82
sS'also'
p4470
I80
sS'madd'
p4471
I82
sS'made'
p4472
I70
sS'wise'
p4473
I82
sS'places'
p4474
I81
sS'wish'
p4475
I78
sS"seminary's"
p4476
I82
sS'official'
p4477
I82
sS'flip'
p4478
I82
sS'signed'
p4479
I82
sS'madi'
p4480
I82
sS'record'
p4481
I82
sS"caffe'"
p4482
I82
sS'replay'
p4483
I82
sS'represents'
p4484
I82
sS"chillin'"
p4485
I82
sS'cake'
p4486
I81
sS'(pasadena'
p4487
I17
sS'pm'
p4488
I82
sS'minutes'
p4489
I78
sS'eyes*'
p4490
I82
sS'skating'
p4491
I82
sS'realtors'
p4492
I82
sS'unusual'
p4493
I82
sS'replying'
p4494
I82
sS'bruh'
p4495
I82
sS'redeems'
p4496
I82
sS'pic'
p4497
I82
sS'gtfo'
p4498
I82
sS'pie'
p4499
I80
sS'traders\xee\x84\x87\xee\x84\x87\xee\x84\x87\xee\x90\x85'
p4500
I82
sS'rt\xee\x90\x92'
p4501
I82
sS'romance'
p4502
I82
sS'ajena'
p4503
I81
sS'education'
p4504
I82
sS'ew'
p4505
I82
sS'balcony'
p4506
I82
sS'tick'
p4507
I82
sS'spit'
p4508
I82
sS'48'
p4509
I81
sS'incredible'
p4510
I81
sS'fascinating'
p4511
I82
sS'42'
p4512
I82
sS'oprah'
p4513
I82
sS'promote'
p4514
I82
sS'lately'
p4515
I82
sS'book'
p4516
I79
sS'details'
p4517
I81
sS'sick'
p4518
I76
sS'dose'
p4519
I82
sS'boob'
p4520
I81
sS'wing'
p4521
I82
sS'talkin'
p4522
I82
sS'booze'
p4523
I82
sS'repeat'
p4524
I82
sS'star'
p4525
I80
sS'monday'
p4526
I81
sS'arbitraria'
p4527
I82
sS'class'
p4528
I79
sS'become'
p4529
I82
sS'unscripted"'
p4530
I81
sS'stay'
p4531
I77
sS'vien'
p4532
I82
sS'kinda'
p4533
I82
sS'richardson'
p4534
I81
sS'ingl\xc3\xa9s'
p4535
I82
sS'badass'
p4536
I82
sS"in'"
p4537
I82
sS'friends'
p4538
I72
sS'dolphins'
p4539
I82
sS'\xe2\x80\x93'
p4540
I82
sS'all-nighters'
p4541
I82
sS'\xe2\x80\x94'
p4542
I78
sS'samsung'
p4543
I82
sS'lactose'
p4544
I82
sS'hannin'
p4545
I82
sS'earthquake'
p4546
I82
sS'rule'
p4547
I82
sS'everywhere!!!\xe2\x80\xa6'
p4548
I82
sS'fucker'
p4549
I82
sS'lift'
p4550
I82
sS'lives'
p4551
I81
sS'grimmey'
p4552
I82
sS'commencement'
p4553
I82
sS'simpson'
p4554
I82
sS'8th'
p4555
I80
s.