(dp0
S''
p1
I6
sS'all'
p2
I21
sS'felt'
p3
I24
sS'go'
p4
I19
sS'only'
p5
I24
sS'cherish'
p6
I24
sS'tweet'
p7
I22
sS'thursday'
p8
I24
sS'karaoke'
p9
I24
sS'to'
p10
I2
sS'matchbox'
p11
I24
sS'southwest'
p12
I24
sS'fly'
p13
I24
sS'song'
p14
I24
sS'far'
p15
I24
sS'horror'
p16
I24
sS'"he'
p17
I24
sS'every'
p18
I23
sS'cellular'
p19
I23
sS'fall'
p20
I24
sS'71%'
p21
I24
sS'blast'
p22
I24
sS'cool'
p23
I24
sS'gatta'
p24
I24
sS'entire'
p25
I24
sS'school'
p26
I24
sS'heaven'
p27
I22
sS'level'
p28
I24
sS'did'
p29
I20
sS'issue'
p30
I24
sS'brother'
p31
I24
sS'try'
p32
I24
sS'this'
p33
I7
sS'vibes'
p34
I24
sS'guy'
p35
I23
sS'challenge'
p36
I24
sS'enjoy'
p37
I24
sS'instagram'
p38
I24
sS'"these'
p39
I24
sS'booth'
p40
I24
sS'picked'
p41
I23
sS'download'
p42
I24
sS'estimated'
p43
I24
sS'even'
p44
I22
sS'what'
p45
I19
sS'postman'
p46
I24
sS'ayce'
p47
I24
sS'movies'
p48
I24
sS'giving'
p49
I24
sS'schedule'
p50
I23
sS'anniversary'
p51
I24
sS'addy'
p52
I24
sS'current'
p53
I24
sS'seconds'
p54
I24
sS'goes'
p55
I24
sS'new'
p56
I23
sS'falling'
p57
I24
sS'ever'
p58
I21
sS'full'
p59
I24
sS'lee'
p60
I24
sS'here'
p61
I24
sS'hours'
p62
I24
sS'berkeley'
p63
I24
sS'co-workers...thank'
p64
I24
sS'wait'
p65
I24
sS'boy'
p66
I24
sS'great'
p67
I20
sS'syrah'
p68
I24
sS'30'
p69
I24
sS'lakers'
p70
I24
sS'whiny'
p71
I24
sS'error"'
p72
I24
sS'social'
p73
I24
sS'usually'
p74
I24
sS"i'm"
p75
I15
sS'pillow'
p76
I24
sS'massage'
p77
I24
sS'thats'
p78
I24
sS'love'
p79
I22
sS'family'
p80
I24
sS'extra'
p81
I22
sS'win'
p82
I24
sS'app'
p83
I24
sS'^^,91775\n477508729663807488,itssashleeyy_,2014-06-13'
p84
I24
sS'bloody'
p85
I24
sS'brought'
p86
I23
sS'vip'
p87
I22
sS'lansing'
p88
I24
sS'gateway'
p89
I24
sS'31-1-3'
p90
I24
sS'hahahahaha'
p91
I24
sS'eye'
p92
I23
sS'would'
p93
I23
sS'songs'
p94
I24
sS'positive'
p95
I24
sS'give'
p96
I22
sS'dude'
p97
I22
sS'two'
p98
I24
sS'next'
p99
I23
sS'ca)'
p100
I21
sS'scariest'
p101
I24
sS'iphone'
p102
I23
sS'until'
p103
I24
sS'today'
p104
I19
sS'more'
p105
I22
sS'amped'
p106
I24
sS'commissioner'
p107
I24
sS'babe'
p108
I24
sS'holy'
p109
I23
sS'petsche'
p110
I24
sS'club'
p111
I23
sS'sister'
p112
I24
sS'downtown'
p113
I24
sS'savior'
p114
I24
sS'4am'
p115
I24
sS'hold'
p116
I23
sS'claud'
p117
I24
sS'94'
p118
I24
sS'stafford'
p119
I24
sS'me'
p120
I14
sS'04:29:15.0,34.10919,-118.10316782,4802.02,look'
p121
I24
sS'1993'
p122
I24
sS'word'
p123
I24
sS'hour'
p124
I24
sS'watchu'
p125
I24
sS'gabriel'
p126
I14
sS"ramzi's"
p127
I24
sS'work'
p128
I21
sS'roof'
p129
I24
sS'donut'
p130
I24
sS'anywhere'
p131
I24
sS'del'
p132
I23
sS'can'
p133
I20
sS'elbow'
p134
I24
sS'meet'
p135
I21
sS'my'
p136
I5
sS'could'
p137
I23
sS'beautiful'
p138
I24
sS'heart'
p139
I24
sS'estate'
p140
I22
sS'cowl'
p141
I24
sS'17:52:07.0,34.11463756,-118.09620127,4802.02,thank'
p142
I24
sS'awesome'
p143
I23
sS'share'
p144
I24
sS'fuck'
p145
I22
sS'agent'
p146
I24
sS'terrible'
p147
I24
sS'heard'
p148
I24
sS'dm'
p149
I24
sS'something'
p150
I24
sS'want'
p151
I24
sS'thelolod'
p152
I21
sS'blvd'
p153
I24
sS'offense'
p154
I23
sS'huge'
p155
I24
sS'needs'
p156
I23
sS'burgs'
p157
I24
sS"'cartagena'"
p158
I24
sS'get'
p159
I22
sS'write'
p160
I23
sS'how'
p161
I22
sS'amazing'
p162
I21
sS'playback'
p163
I24
sS'rose'
p164
I24
sS'answer'
p165
I24
sS'iso'
p166
I24
sS'beach'
p167
I23
sS'pizza'
p168
I23
sS'profile'
p169
I24
sS'lol,91775\n500436487767224320,julialopez_11,2014-08-16'
p170
I24
sS'mar'
p171
I23
sS'sir'
p172
I24
sS'bday'
p173
I24
sS'stop'
p174
I24
sS'sacrifice'
p175
I24
sS'after'
p176
I21
sS'weapons"'
p177
I24
sS'birthday'
p178
I24
sS'phillipsfit'
p179
I24
sS'coming'
p180
I24
sS'date'
p181
I24
sS'court'
p182
I24
sS'data'
p183
I23
sS'las'
p184
I23
sS'a'
p185
I3
sS'attempt'
p186
I24
sS'third'
p187
I24
sS'whenever'
p188
I23
sS'appreciate'
p189
I24
sS'robot'
p190
I24
sS'greet'
p191
I22
sS'awkotaco'
p192
I24
sS'owls'
p193
I24
sS'so'
p194
I19
sS'pay'
p195
I24
sS'dream'
p196
I24
sS'talk'
p197
I24
sS"that's"
p198
I24
sS'greats'
p199
I24
sS'exclusive'
p200
I24
sS'help'
p201
I21
sS'office'
p202
I24
sS';)'
p203
I24
sS'over'
p204
I24
sS'move'
p205
I24
sS'committed...i'
p206
I24
sS'including'
p207
I24
sS'looks'
p208
I24
sS'hell'
p209
I23
sS'still'
p210
I24
sS'ticket'
p211
I22
sS'before'
p212
I23
sS'24'
p213
I23
sS'25'
p214
I23
sS'26'
p215
I24
sS'27'
p216
I24
sS'20'
p217
I24
sS'thank'
p218
I23
sS'22'
p219
I24
sS'la'
p220
I17
sS'28'
p221
I24
sS'ozcan'
p222
I24
sS'actually'
p223
I24
sS'better'
p224
I24
sS'window'
p225
I24
sS'bout'
p226
I24
sS'holiday'
p227
I24
sS'disturbingly'
p228
I24
sS'happened'
p229
I23
sS',91775\n477886726833061888,drewfilament,2014-06-14'
p230
I24
sS'coffee'
p231
I23
sS'good'
p232
I20
sS'crash'
p233
I24
sS'ya'
p234
I23
sS'auto'
p235
I24
sS'narduzzi'
p236
I24
sS'they'
p237
I22
sS'not'
p238
I21
sS'rotation'
p239
I24
sS'hearing'
p240
I24
sS'day'
p241
I5
sS'easily'
p242
I24
sS'rocks'
p243
I24
sS'wooden'
p244
I24
sS'japs'
p245
I24
sS'shark!"'
p246
I24
sS'04:07:21.0,34.1093131,-118.0910813,4802.02,also'
p247
I24
sS'meal'
p248
I24
sS"isn't"
p249
I24
sS'signing'
p250
I23
sS'everyone'
p251
I24
sS'mexico'
p252
I24
sS'00:18:51.0,34.10294639,-118.09948001,4802.02,just'
p253
I24
sS'doing'
p254
I23
sS'house'
p255
I23
sS'aida'
p256
I24
sS'books'
p257
I24
sS'year'
p258
I22
sS'our'
p259
I21
sS'girl'
p260
I23
sS'sdcc'
p261
I24
sS'now'
p262
I24
sS'out'
p263
I20
sS'ernie'
p264
I24
sS'god'
p265
I24
sS'since'
p266
I24
sS'looking'
p267
I24
sS'wholeheartedly'
p268
I24
sS'signings'
p269
I24
sS'hilarious'
p270
I24
sS'got'
p271
I23
sS'cause'
p272
I24
sS'hermosa'
p273
I24
sS'ass'
p274
I24
sS'eagle'
p275
I24
sS'yous'
p276
I24
sS"doesn't"
p277
I24
sS'cars'
p278
I24
sS'friday'
p279
I21
sS'story'
p280
I24
sS'free'
p281
I24
sS'reason'
p282
I24
sS'put'
p283
I24
sS'teens,91775\n501218768396091392,itsdezerae_11,2014-08-18'
p284
I24
sS'bowl...but'
p285
I24
sS'whittier'
p286
I22
sS'thrown'
p287
I24
sS'???,91775\n494701297677791232,gabriel_the3rd,2014-07-31'
p288
I24
sS'waiter'
p289
I24
sS'doooodeeee'
p290
I24
sS'inexpensive'
p291
I24
sS'kiss'
p292
I24
sS'days'
p293
I22
sS'keep'
p294
I22
sS'place'
p295
I23
sS'gordon'
p296
I24
sS'w'
p297
I24
sS'leading'
p298
I23
sS'think'
p299
I21
sS'first'
p300
I22
sS'blind'
p301
I24
sS'flick'
p302
I24
sS'already'
p303
I24
sS'dont'
p304
I24
sS'feel'
p305
I23
sS'one'
p306
I18
sS'juncture'
p307
I24
sS'hook'
p308
I24
sS'done'
p309
I24
sS'such'
p310
I24
sS'miss'
p311
I24
sS'tomorrow'
p312
I23
sS"you're"
p313
I22
sS'little'
p314
I24
sS'sweeeet'
p315
I24
sS'service'
p316
I23
sS'los'
p317
I24
sS'ordering'
p318
I24
sS'guys'
p319
I23
sS'girls'
p320
I22
sS'least'
p321
I23
sS'anyone'
p322
I23
sS'their'
p323
I23
sS'2'
p324
I22
sS'too'
p325
I20
sS'ralphgarman'
p326
I24
sS'man'
p327
I24
sS'dogs'
p328
I24
sS'williams'
p329
I24
sS'fumble'
p330
I24
sS'murder'
p331
I24
sS'lot'
p332
I24
sS'that'
p333
I20
sS'season'
p334
I24
sS'gym'
p335
I24
sS'part'
p336
I21
sS'dinner...10:30'
p337
I24
sS'11'
p338
I24
sS'loved'
p339
I24
sS'john'
p340
I24
sS'pusher'
p341
I24
sS'14'
p342
I24
sS'17'
p343
I24
sS'dawg!,91775\n500705290690781184,muybu3no,2014-08-16'
p344
I24
sS'19'
p345
I24
sS'18'
p346
I24
sS'gotta'
p347
I24
sS'mattel'
p348
I24
sS'friend'
p349
I24
sS'were'
p350
I23
sS'benutech'
p351
I24
sS'gives'
p352
I24
sS'and'
p353
I6
sS'robocop'
p354
I24
sS'sees'
p355
I24
sS'san'
p356
I16
sS'premier'
p357
I24
sS'mind'
p358
I24
sS'mine'
p359
I24
sS'tonight'
p360
I22
sS'talking'
p361
I24
sS'say'
p362
I24
sS'buy'
p363
I24
sS'have'
p364
I18
sS'need'
p365
I22
sS'seen'
p366
I22
sS'decide'
p367
I24
sS'surgery'
p368
I24
sS'min'
p369
I24
sS'also'
p370
I24
sS'recommended'
p371
I24
sS'without'
p372
I24
sS'take'
p373
I23
sS'doors'
p374
I24
sS'out."'
p375
I24
sS'1.30'
p376
I24
sS'judas'
p377
I24
sS'special..i'
p378
I24
sS'"connectivity'
p379
I24
sS'who'
p380
I24
sS'netflix'
p381
I24
sS'76'
p382
I23
sS'regular'
p383
I24
sS'nothing'
p384
I24
sS'knee'
p385
I24
sS'cleared'
p386
I24
sS'why'
p387
I22
sS'78'
p388
I24
sS'understands'
p389
I24
sS'irritating,91775\n500710597726851073,muybu3no,2014-08-16'
p390
I24
sS'camping'
p391
I24
sS'devastating'
p392
I24
sS'thanksgiving'
p393
I23
sS'face'
p394
I22
sS'batfan_forever'
p395
I23
sS'wow'
p396
I24
sS'came'
p397
I24
sS'shop'
p398
I23
sS'called'
p399
I24
sS'23:58:41.0,34.11105973,-118.09125448,4802.02,all'
p400
I24
sS'bomb'
p401
I24
sS'\xe2\x9c\xa8'
p402
I24
sS'show'
p403
I22
sS'text'
p404
I24
sS'anyway'
p405
I23
sS'alanis'
p406
I24
sS'bring'
p407
I24
sS'orda'
p408
I24
sS'rough'
p409
I24
sS'longer'
p410
I24
sS'find'
p411
I24
sS'staff'
p412
I24
sS'trying'
p413
I24
sS'91775'
p414
I24
sS'bff'
p415
I24
sS'justice'
p416
I24
sS'nervous'
p417
I24
sS'behind'
p418
I24
sS'should'
p419
I24
sS'moments'
p420
I24
sS'idiots'
p421
I24
sS'going'
p422
I24
sS'pretty'
p423
I24
sS'photo'
p424
I24
sS'8'
p425
I24
sS'b'
p426
I24
sS'hall'
p427
I24
sS'do'
p428
I23
sS'his'
p429
I23
sS'asians'
p430
I24
sS'watching'
p431
I22
sS'familiar'
p432
I24
sS'horrible'
p433
I24
sS'watch'
p434
I23
sS'18:24:03.0,34.11474413,-118.09613211,4802.02,finally'
p435
I24
sS'feels'
p436
I24
sS'12'
p437
I24
sS'watermelon'
p438
I24
sS'closely'
p439
I24
sS'despite'
p440
I23
sS'15'
p441
I24
sS'dr'
p442
I23
sS'him'
p443
I24
sS'restart'
p444
I24
sS'lmao'
p445
I24
sS'smash'
p446
I24
sS'behemoth'
p447
I24
sS'h'
p448
I24
sS'depressed'
p449
I24
sS'bad'
p450
I23
sS'stupid'
p451
I24
sS'she'
p452
I24
sS'shots'
p453
I24
sS'double'
p454
I24
sS'gospel'
p455
I24
sS'vision'
p456
I24
sS'spotted'
p457
I24
sS'set'
p458
I23
sS'art'
p459
I24
sS'concert'
p460
I24
sS'espn'
p461
I24
sS'w/'
p462
I24
sS"i'll"
p463
I24
sS'mom'
p464
I24
sS"hasn't"
p465
I24
sS'see'
p466
I17
sS'are'
p467
I18
sS'progress'
p468
I24
sS'rebo'
p469
I24
sS'arm'
p470
I24
sS'best'
p471
I21
sS'18:28:03.0,34.1050905,-118.0917816,4802.02,lmao'
p472
I24
sS'said'
p473
I24
sS'luv'
p474
I24
sS'nestle'
p475
I23
sS'movie'
p476
I24
sS'away'
p477
I24
sS'please'
p478
I23
sS'3'
p479
I21
sS'03:05:00.0,34.11167627,-118.09106955,4802.02,goodbye'
p480
I24
sS'hopefully'
p481
I24
sS'probably'
p482
I24
sS'tux'
p483
I23
sS'perfect'
p484
I24
sS'we'
p485
I23
sS'terms'
p486
I24
sS'opening'
p487
I24
sS'prettiest'
p488
I24
sS'day.\xe2\x80\xa6'
p489
I24
sS'nightmares'
p490
I24
sS'job'
p491
I23
sS'potluck'
p492
I24
sS'merry'
p493
I24
sS'precious'
p494
I24
sS'come'
p495
I24
sS'legit'
p496
I24
sS'21'
p497
I24
sS'league'
p498
I24
sS'hits'
p499
I24
sS'store'
p500
I24
sS'last'
p501
I21
sS'country'
p502
I21
sS'23'
p503
I23
sS'drug'
p504
I24
sS'wristbands'
p505
I24
sS'etc'
p506
I24
sS'awesome!!!!!!,91775\n494705176347815936,gabriel_the3rd,2014-07-31'
p507
I24
sS'estates'
p508
I13
sS'photographer'
p509
I24
sS"can't"
p510
I23
sS'arceo'
p511
I24
sS'load'
p512
I24
sS'leob'
p513
I24
sS'key'
p514
I24
sS'18:06:58.0,34.1049765,-118.0920858,4802.02,10'
p515
I24
sS'jeff'
p516
I24
sS'within'
p517
I24
sS'phenomenal'
p518
I24
sS'ca'
p519
I23
sS'dudes'
p520
I24
sS'walk'
p521
I24
sS'agents'
p522
I24
sS'3000'
p523
I24
sS'>>>,91775\n482227806193995776,itssashleeyy_,2014-06-26'
p524
I24
sS'respect'
p525
I24
sS'ellsworth'
p526
I24
sS'yoooooo'
p527
I24
sS'most'
p528
I24
sS'union'
p529
I23
sS"it's"
p530
I19
sS'three'
p531
I24
sS'been'
p532
I23
sS'much'
p533
I23
sS'damn'
p534
I20
sS'lovely'
p535
I24
sS'meeting'
p536
I23
sS'location'
p537
I24
sS'life'
p538
I24
sS'proces'
p539
I24
sS"what's"
p540
I23
sS'hashtag'
p541
I24
sS'1yr'
p542
I24
sS'those'
p543
I23
sS'east'
p544
I23
sS'look'
p545
I24
sS'these'
p546
I24
sS'tunas'
p547
I23
sS'single'
p548
I24
sS'value'
p549
I22
sS'n'
p550
I23
sS'trick'
p551
I24
sS'ugly'
p552
I24
sS'while'
p553
I22
sS'melted'
p554
I24
sS'ignition'
p555
I24
sS'(:,91775\n477517639619575808,itssashleeyy_,2014-06-13'
p556
I24
sS'many'
p557
I23
sS'voice'
p558
I24
sS"'66"
p559
I24
sS'fuentes'
p560
I24
sS'played'
p561
I22
sS'almost'
p562
I24
sS'is'
p563
I10
sS'insanely'
p564
I24
sS'it'
p565
I9
sS'ii'
p566
I22
sS'"psst'
p567
I24
sS'lonely'
p568
I24
sS'in'
p569
I8
sS'ready'
p570
I24
sS'ave'
p571
I24
sS'"the"'
p572
I24
sS'ig'
p573
I24
sS'if'
p574
I24
sS'helmet'
p575
I24
sS'deadpool'
p576
I24
sS'hummus'
p577
I24
sS'media'
p578
I23
sS'make'
p579
I24
sS'same'
p580
I24
sS'check'
p581
I24
sS'moms'
p582
I24
sS'harmony'
p583
I24
sS'babies'
p584
I24
sS'party'
p585
I22
sS'yooo,91775\n478372641724575744,amandasimon32,2014-06-16'
p586
I24
sS'week'
p587
I24
sS'keys'
p588
I24
sS'everclear'
p589
I24
sS'weed'
p590
I24
sS'fucked'
p591
I24
sS'posted'
p592
I24
sS'off'
p593
I24
sS'i'
p594
I2
sS'congrats'
p595
I24
sS'well'
p596
I24
sS'fr-s'
p597
I24
sS'1'
p598
I24
sS'flags'
p599
I24
sS'mathews'
p600
I24
sS'consistency'
p601
I24
sS'very'
p602
I24
sS'the'
p603
I1
sS'ily'
p604
I24
sS'spend'
p605
I24
sS'cameramen'
p606
I24
sS'left'
p607
I23
sS'lest'
p608
I24
sS'things'
p609
I24
sS'newest'
p610
I24
sS'\xe2\x98\xba\xef\xb8\x8f'
p611
I24
sS'just'
p612
I18
sS'from'
p613
I21
sS'true'
p614
I24
sS'money'
p615
I24
sS'04:20:12.0,34.10918536,-118.1031958,4802.02,jump'
p616
I24
sS'pissing'
p617
I24
sS'thanks'
p618
I19
sS'age\xe2\x98\xba\xef\xb8\x8f'
p619
I24
sS'yes'
p620
I21
sS'lauren'
p621
I24
sS'yet'
p622
I24
sS'cut'
p623
I24
sS',91775\n416719819161886720,ayala_herbert,2013-12-27'
p624
I24
sS"everyone's"
p625
I24
sS'had'
p626
I21
sS'cuz'
p627
I24
sS'5s'
p628
I24
sS'bullshit'
p629
I24
sS'lets'
p630
I24
sS'spread'
p631
I24
sS'parents'
p632
I24
sS'4'
p633
I24
sS'jazzed'
p634
I24
sS'has'
p635
I20
sS'hat'
p636
I24
sS'excited'
p637
I24
sS'build'
p638
I24
sS'real'
p639
I21
sS'cherry'
p640
I24
sS'big'
p641
I23
sS'somtimes'
p642
I24
sS'gonna'
p643
I24
sS'early'
p644
I24
sS'shitty'
p645
I24
sS'game'
p646
I24
sS'five'
p647
I24
sS'know'
p648
I22
sS'listening'
p649
I24
sS'using'
p650
I24
sS'bit'
p651
I24
sS'priest!\xe2\x80\x9d'
p652
I24
sS'forman'
p653
I24
sS'easily\xe2\x80\xa6'
p654
I24
sS'necessary'
p655
I24
sS'like'
p656
I19
sS'-_-'
p657
I24
sS'brace'
p658
I24
sS'buddies'
p659
I24
sS'garage'
p660
I24
sS'(101'
p661
I23
sS'nose'
p662
I24
sS'night'
p663
I21
sS'friar'
p664
I23
sS'audible'
p665
I24
sS'making'
p666
I24
sS'right'
p667
I21
sS'fucking'
p668
I21
sS'hand"'
p669
I24
sS'successfully'
p670
I23
sS'some'
p671
I22
sS'back'
p672
I24
sS'hush'
p673
I24
sS'streaming'
p674
I24
sS'kings'
p675
I24
sS'side,91775\n460133360396804096,julialopez_11,2014-04-26'
p676
I24
sS'issue/cd'
p677
I24
sS'for'
p678
I6
sS'troub'
p679
I23
sS'stops'
p680
I24
sS'everything'
p681
I24
sS'does'
p682
I24
sS'christmas'
p683
I22
sS'be'
p684
I17
sS'blowing'
p685
I24
sS'run'
p686
I24
sS'asap'
p687
I24
sS'club)'
p688
I23
sS'clay'
p689
I24
sS'ummet'
p690
I24
sS'step'
p691
I24
sS'18:21:38.0,34.1051288,-118.0916866,4802.02,but'
p692
I24
sS'valley)'
p693
I24
sS'vangado\xe2\x80\xa6'
p694
I23
sS'super'
p695
I24
sS'by'
p696
I21
sS'on'
p697
I12
sS'about'
p698
I23
sS'anything'
p699
I24
sS'getting'
p700
I24
sS'of'
p701
I11
sS'favorite'
p702
I23
sS'18:54:09.0,34.1033235,-118.095509,4802.02,i'
p703
I24
sS'side'
p704
I24
sS'angeles'
p705
I24
sS'swear'
p706
I23
sS'bone'
p707
I24
sS'act'
p708
I24
sS'wanna'
p709
I23
sS'or'
p710
I23
sS'block'
p711
I24
sS'seeing'
p712
I23
sS'into'
p713
I23
sS'vangado'
p714
I13
sS'soo'
p715
I24
sS'due'
p716
I24
sS'down'
p717
I22
sS'mayhaps'
p718
I24
sS'spittney'
p719
I24
sS"bradley's"
p720
I24
sS'your'
p721
I20
sS'hahahaha'
p722
I24
sS'brownies'
p723
I24
sS'her'
p724
I19
sS'weekend'
p725
I22
sS'lol'
p726
I23
sS'stuck'
p727
I24
sS'awks'
p728
I24
sS'lions'
p729
I23
sS'futile'
p730
I24
sS'way'
p731
I23
sS'forward'
p732
I24
sS'was'
p733
I20
sS'happy'
p734
I23
sS'questionable'
p735
I24
sS'himself'
p736
I24
sS"i've"
p737
I23
sS'fasho'
p738
I24
sS'batman'
p739
I21
sS'stories'
p740
I24
sS'but'
p741
I24
sS'reminds'
p742
I24
sS'hear'
p743
I23
sS'podcast'
p744
I22
sS'with'
p745
I14
sS'he'
p746
I24
sS"they're"
p747
I24
sS'congratulations'
p748
I24
sS'places'
p749
I24
sS'comics'
p750
I24
sS'wish'
p751
I24
sS'up'
p752
I12
sS'signed'
p753
I23
sS'ur'
p754
I24
sS'record'
p755
I23
sS'adore'
p756
I24
sS'pumped'
p757
I24
sS'hill-centric'
p758
I24
sS'pm'
p759
I24
sS'agree'
p760
I24
sS'swaggy'
p761
I24
sS'model'
p762
I24
sS'gabriel)'
p763
I24
sS'butthole'
p764
I24
sS'videos'
p765
I24
sS'taste'
p766
I24
sS"stafford's"
p767
I24
sS'pic'
p768
I23
sS'am'
p769
I22
sS'an'
p770
I17
sS'as'
p771
I20
sS'at'
p772
I8
sS'goodness'
p773
I24
sS'shopping'
p774
I24
sS'annoying'
p775
I24
sS'trip'
p776
I24
sS'shit'
p777
I22
sS'again'
p778
I23
sS'thugs'
p779
I24
sS'us'
p780
I24
sS'dying'
p781
I24
sS'no'
p782
I21
sS'when'
p783
I24
sS'supra'
p784
I24
sS'til'
p785
I23
sS'interested'
p786
I24
sS'5'
p787
I24
sS'sick'
p788
I23
sS'u'
p789
I24
sS'you'
p790
I4
sS'really'
p791
I24
sS'wishing'
p792
I24
sS'scored'
p793
I24
sS'18:27:31.0,34.11351501,-118.09453567,4802.02,done'
p794
I24
sS'stat'
p795
I24
sS"'s"
p796
I24
sS'games'
p797
I24
sS'welcome'
p798
I24
sS'update'
p799
I22
sS"let's"
p800
I23
sS'trouble'
p801
I24
sS'rolling'
p802
I24
sS'badass'
p803
I24
sS'friends'
p804
I23
sS'senior'
p805
I24
sS'land'
p806
I24
sS'e'
p807
I24
sS'driving'
p808
I24
sS'(san'
p809
I21
sS'wifi'
p810
I23
sS'jewel'
p811
I24
sS'rule'
p812
I24
sS'having'
p813
I24
sS'city'
p814
I24
sS"we're"
p815
I24
sS'time'
p816
I20
sS'fresh'
p817
I24
sS'once'
p818
I24
sS'starting'
p819
I24
sS'original'
p820
I24
sS'bus'
p821
I24
sS'dvr'
p822
I24
s.