(dp0
S''
p1
I1
sS'all'
p2
I23
sS'coach'
p3
I27
sS'jason'
p4
I27
sS'forget'
p5
I26
sS'steve'
p6
I27
sS'gf'
p7
I26
sS':/'
p8
I27
sS'sleep'
p9
I25
sS'flyer'
p10
I27
sS'go'
p11
I13
sS':('
p12
I27
sS'hate'
p13
I25
sS'children'
p14
I27
sS':)'
p15
I27
sS'guerrero'
p16
I27
sS'everything'
p17
I26
sS'imma'
p18
I27
sS'acting'
p19
I27
sS'thursday'
p20
I27
sS'to'
p21
I3
sS'finally'
p22
I26
sS'those'
p23
I27
sS'tf'
p24
I26
sS'smile'
p25
I27
sS'sorry'
p26
I26
sS'through'
p27
I27
sS"shouldn't"
p28
I27
sS'shoot'
p29
I27
sS'nite'
p30
I27
sS'jerk'
p31
I27
sS'sitting'
p32
I27
sS'far'
p33
I27
sS'tacos'
p34
I27
sS'vegas'
p35
I26
sS'worst'
p36
I26
sS'updates'
p37
I27
sS'sert\xc3\x83o'
p38
I27
sS'bringing'
p39
I27
sS'fan'
p40
I27
sS'cool'
p41
I26
sS'school'
p42
I26
sS'did'
p43
I25
sS'having'
p44
I27
sS'michael'
p45
I27
sS'brother'
p46
I27
sS'congrats'
p47
I27
sS'team'
p48
I27
sS'quick'
p49
I27
sS'havent'
p50
I27
sS'evs'
p51
I27
sS'clothes'
p52
I27
sS"i'll"
p53
I27
sS'work'
p54
I10
sS'says'
p55
I27
sS'instagram'
p56
I27
sS'tired'
p57
I26
sS'\xe2\x9d\xa4'
p58
I27
sS'sign'
p59
I27
sS'likely'
p60
I27
sS'fabulous'
p61
I27
sS'video'
p62
I26
sS'pass'
p63
I26
sS'ummm'
p64
I27
sS'automobile'
p65
I27
sS'even'
p66
I25
sS'what'
p67
I20
sS'fucks'
p68
I27
sS'asia'
p69
I27
sS'lmfao'
p70
I27
sS'waiting'
p71
I25
sS'twins'
p72
I27
sS'new'
p73
I26
sS'falling'
p74
I27
sS':3'
p75
I27
sS'ever'
p76
I24
sS'dias'
p77
I27
sS"grandma's"
p78
I27
sS'ayee'
p79
I27
sS"carl's"
p80
I27
sS'shuttle'
p81
I27
sS'never'
p82
I25
sS'alhambra'
p83
I23
sS'here'
p84
I25
sS'\xe2\x9d\xa4\xef\xb8\x8f'
p85
I27
sS'packing'
p86
I27
sS'let'
p87
I27
sS'alone'
p88
I27
sS'november'
p89
I27
sS'coochie'
p90
I27
sS'change'
p91
I25
sS'wait'
p92
I24
sS'boy'
p93
I27
sS'great'
p94
I25
sS'lol'
p95
I16
sS'termite'
p96
I27
sS'iguales'
p97
I27
sS'didnt'
p98
I27
sS'doneeee'
p99
I27
sS'calvin'
p100
I27
sS'reports'
p101
I27
sS'leaving'
p102
I27
sS'base'
p103
I27
sS'smoke'
p104
I27
sS'cousins'
p105
I27
sS'\xe2\x9c\x94\xef\xb8\x8f'
p106
I27
sS'bob'
p107
I26
sS'makes'
p108
I25
sS'thats'
p109
I26
sS'breathtaking'
p110
I27
sS'love'
p111
I23
sS'suddenly'
p112
I27
sS'grandma'
p113
I27
sS'young'
p114
I27
sS'brought'
p115
I27
sS'ask'
p116
I27
sS'raking'
p117
I27
sS'yourself'
p118
I27
sS'starters'
p119
I27
sS'use'
p120
I27
sS'cara'
p121
I27
sS'from'
p122
I27
sS'would'
p123
I27
sS'&'
p124
I18
sS'sweater'
p125
I27
sS'\xe2\x98\x9d\xef\xb8\x8f'
p126
I27
sS'dude'
p127
I27
sS'princess'
p128
I27
sS'dnt'
p129
I27
sS'live'
p130
I27
sS'wood'
p131
I27
sS'6'
p132
I27
sS'taken'
p133
I27
sS'means'
p134
I27
sS'thru'
p135
I26
sS'tell'
p136
I25
sS'today'
p137
I23
sS'more'
p138
I25
sS'starr'
p139
I27
sS'babe'
p140
I27
sS'pretty'
p141
I27
sS'brings'
p142
I27
sS'haha'
p143
I26
sS'jeez'
p144
I27
sS'phone'
p145
I26
sS"ain't"
p146
I26
sS'baby'
p147
I22
sS'glad'
p148
I27
sS'must'
p149
I27
sS'me'
p150
I12
sS'toyota)'
p151
I27
sS'none'
p152
I27
sS'rice'
p153
I27
sS'practicing'
p154
I27
sS'hour'
p155
I26
sS'f'
p156
I27
sS'this'
p157
I14
sS'car'
p158
I26
sS'ride'
p159
I27
sS'getting'
p160
I26
sS'gasoline'
p161
I27
sS'roof'
p162
I27
sS'can'
p163
I21
sS'9th'
p164
I27
sS'mr'
p165
I27
sS'meet'
p166
I27
sS'anybody'
p167
I27
sS'my'
p168
I7
sS'dropped'
p169
I27
sS'beautiful'
p170
I27
sS'wana'
p171
I26
sS'picture'
p172
I27
sS'waaaay'
p173
I27
sS'give'
p174
I27
sS"didn't"
p175
I25
sS'fuck'
p176
I24
sS'days'
p177
I27
sS'high'
p178
I27
sS'something'
p179
I25
sS'want'
p180
I16
sS'handle'
p181
I27
sS'ughhhh'
p182
I27
sS'drama'
p183
I27
sS'needs'
p184
I27
sS'end'
p185
I27
sS'turn'
p186
I27
sS'watching'
p187
I25
sS'itss'
p188
I27
sS'how'
p189
I24
sS'amazing'
p190
I26
sS'buenos'
p191
I27
sS"we're*"
p192
I27
sS"doesn't"
p193
I27
sS'pomona'
p194
I27
sS'pizza'
p195
I27
sS'fuuucckkk'
p196
I27
sS'staying'
p197
I27
sS'mar'
p198
I27
sS'okay'
p199
I27
sS'downstairs'
p200
I27
sS'watch'
p201
I27
sS'after'
p202
I27
sS'3rd'
p203
I27
sS'wrong'
p204
I26
sS'birthday'
p205
I23
sS'aos'
p206
I27
sS'mad'
p207
I27
sS'suck'
p208
I26
sS'guys'
p209
I25
sS'man'
p210
I27
sS'a'
p211
I6
sS'realized'
p212
I27
sS'natural'
p213
I27
sS'remember'
p214
I27
sS'sept'
p215
I27
sS'bugs'
p216
I27
sS'perhaps'
p217
I27
sS'-.-t'
p218
I25
sS'lazzy'
p219
I27
sS'honestly'
p220
I26
sS'vintage'
p221
I27
sS'lmfaooooo'
p222
I27
sS'every'
p223
I27
sS'playing'
p224
I26
sS'talk'
p225
I27
sS"that's"
p226
I25
sS'cute'
p227
I25
sS'breaking'
p228
I27
sS'help'
p229
I27
sS"don't"
p230
I22
sS'over'
p231
I25
sS'move'
p232
I27
sS'sooo'
p233
I27
sS'soon'
p234
I25
sS'professors'
p235
I27
sS'hibernating'
p236
I27
sS"won't"
p237
I27
sS'hell'
p238
I25
sS'itt'
p239
I27
sS'still'
p240
I26
sS'its'
p241
I25
sS'before'
p242
I27
sS'perfect'
p243
I25
sS'style'
p244
I27
sS'californians'
p245
I27
sS'la'
p246
I26
sS'sunday'
p247
I25
sS'actually'
p248
I27
sS'better'
p249
I26
sS'window'
p250
I27
sS'tweets'
p251
I27
sS'mail'
p252
I27
sS'bout'
p253
I27
sS'freaking'
p254
I27
sS'mommy'
p255
I27
sS"haven't"
p256
I27
sS'2012'
p257
I27
sS'dad'
p258
I27
sS'then'
p259
I22
sS'them'
p260
I25
sS'good'
p261
I18
sS'dem'
p262
I27
sS'ya'
p263
I26
sS'weakness'
p264
I27
sS'workout'
p265
I27
sS'witchcraft'
p266
I27
sS'flew'
p267
I27
sS'lunch'
p268
I26
sS'darren'
p269
I27
sS'they'
p270
I22
sS'aldean'
p271
I27
sS'not'
p272
I22
sS'now'
p273
I18
sS'ahaha'
p274
I27
sS'day'
p275
I15
sS'bank'
p276
I27
sS'stunts'
p277
I27
sS'name'
p278
I27
sS'always'
p279
I25
sS'nfl'
p280
I27
sS'pobre'
p281
I27
sS'doesnt'
p282
I27
sS'rock'
p283
I27
sS'mean'
p284
I26
sS'em'
p285
I27
sS'everyone'
p286
I26
sS'lowkey'
p287
I27
sS'doing'
p288
I26
sS'house'
p289
I26
sS'told'
p290
I27
sS'yeah'
p291
I26
sS'gun'
p292
I27
sS'designer'
p293
I27
sS'our'
p294
I27
sS'girl'
p295
I22
sS'calling'
p296
I27
sS'salesman'
p297
I27
sS'saturday'
p298
I26
sS'weirdoo'
p299
I27
sS'really'
p300
I22
sS'sleepless'
p301
I27
sS'jackson'
p302
I27
sS"'"
p303
I26
sS'announces'
p304
I26
sS'robert'
p305
I26
sS'since'
p306
I25
sS'hooked'
p307
I27
sS'w/o'
p308
I27
sS'looking'
p309
I26
sS'cuteeeee'
p310
I27
sS'seriously'
p311
I26
sS'bae'
p312
I27
sS'safety'
p313
I27
sS'hill'
p314
I27
sS'7'
p315
I26
sS'smh'
p316
I26
sS'got'
p317
I23
sS'rn'
p318
I26
sS'managed'
p319
I27
sS'ass'
p320
I23
sS'dodgers'
p321
I27
sS'pryor'
p322
I27
sS'friday'
p323
I26
sS'little'
p324
I27
sS'free'
p325
I27
sS'mmm'
p326
I26
sS'"'
p327
I26
sS'que'
p328
I27
sS"people's"
p329
I27
sS'put'
p330
I27
sS'wanted'
p331
I26
sS'craving'
p332
I27
sS'whittier'
p333
I27
sS'care'
p334
I27
sS'training'
p335
I27
sS'dodger'
p336
I27
sS'reply'
p337
I27
sS'brasil'
p338
I26
sS'lone'
p339
I27
sS'yup'
p340
I27
sS'could'
p341
I26
sS'moment'
p342
I26
sS'keep'
p343
I26
sS'thing'
p344
I27
sS'place'
p345
I26
sS'soda'
p346
I27
sS'3:00'
p347
I27
sS'think'
p348
I24
sS'fuckin'
p349
I27
sS'first'
p350
I27
sS'major'
p351
I27
sS'already'
p352
I22
sS'feel'
p353
I22
sS'fuckers'
p354
I27
sS'welcome'
p355
I27
sS'one'
p356
I23
sS'xx'
p357
I27
sS'done'
p358
I25
sS'bitch'
p359
I26
sS'another'
p360
I23
sS'everrrrrrrrr'
p361
I27
sS'miss'
p362
I24
sS'tomorrow'
p363
I26
sS"you're"
p364
I26
sS'guess'
p365
I24
sS'long'
p366
I26
sS'los'
p367
I27
sS'blossom'
p368
I27
sS'friends\xe2\x80\x9d'
p369
I27
sS'girls'
p370
I27
sS'least'
p371
I27
sS'reppin'
p372
I27
sS'needed'
p373
I26
sS'2'
p374
I26
sS'draft'
p375
I26
sS'too'
p376
I21
sS'saint'
p377
I27
sS'ayeeee'
p378
I27
sS'ton'
p379
I27
sS'kid'
p380
I26
sS'final'
p381
I25
sS'friend'
p382
I27
sS'lease'
p383
I27
sS'//'
p384
I27
sS'relationship'
p385
I27
sS'that'
p386
I9
sS'season'
p387
I26
sS'gym'
p388
I25
sS'exactly'
p389
I27
sS'proving'
p390
I27
sS'took'
p391
I27
sS'immediate'
p392
I27
sS'bieber'
p393
I27
sS'cereal'
p394
I27
sS'doctors'
p395
I27
sS'believe'
p396
I27
sS'than'
p397
I27
sS'begins'
p398
I27
sS'10'
p399
I27
sS'12'
p400
I27
sS'15'
p401
I27
sS'showed'
p402
I27
sS'depressed'
p403
I27
sS'goodnight'
p404
I26
sS'bethany'
p405
I25
sS'pampered'
p406
I27
sS'r'
p407
I27
sS'silly'
p408
I27
sS'were'
p409
I26
sS'feeling'
p410
I25
sS'damned'
p411
I26
sS'powder'
p412
I27
sS'and'
p413
I13
sS'mini'
p414
I27
sS'outta'
p415
I27
sS'runner'
p416
I27
sS'pro'
p417
I27
sS'hashtags'
p418
I27
sS'mind'
p419
I25
sS'sad'
p420
I25
sS'tonight'
p421
I26
sS'talking'
p422
I24
sS'say'
p423
I25
sS'sax'
p424
I27
sS'1:00'
p425
I26
sS'have'
p426
I18
sS'need'
p427
I19
sS'breakfast'
p428
I27
sS'saw'
p429
I27
sS'any'
p430
I27
sS'ray'
p431
I27
sS'thought'
p432
I27
sS'nights'
p433
I27
sS'wcw'
p434
I27
sS'homerun'
p435
I27
sS'-'
p436
I27
sS'sound'
p437
I27
sS'derek'
p438
I27
sS'take'
p439
I25
sS'sleeper'
p440
I27
sS'so'
p441
I12
sS'korean'
p442
I27
sS'lily'
p443
I27
sS'godfather'
p444
I27
sS'^^'
p445
I27
sS'roster'
p446
I27
sS'who'
p447
I23
sS'jst'
p448
I27
sS'most'
p449
I27
sS'germany'
p450
I27
sS'eaten'
p451
I27
sS'nothing'
p452
I26
sS'accepting'
p453
I27
sS'coin'
p454
I27
sS'why'
p455
I15
sS'grave'
p456
I27
sS'"hella"'
p457
I27
sS'forever'
p458
I27
sS'especially'
p459
I27
sS'considered'
p460
I27
sS'medical'
p461
I27
sS'phil'
p462
I27
sS'stronger'
p463
I27
sS'hungry'
p464
I26
sS'ramirez'
p465
I27
sS'aunt'
p466
I27
sS'movie'
p467
I27
sS'\xe2\x98\x80\xef\xb8\x8f'
p468
I27
sS'dos'
p469
I27
sS'skinny'
p470
I27
sS'consumer'
p471
I27
sS'dragged'
p472
I27
sS'saying'
p473
I27
sS'ugh'
p474
I23
sS'shot'
p475
I27
sS'vacancy'
p476
I27
sS'bring'
p477
I27
sS"90's"
p478
I27
sS'telling'
p479
I27
sS'nephew'
p480
I27
sS'aint'
p481
I27
sS'busy'
p482
I26
sS'northern'
p483
I27
sS'nervous'
p484
I26
sS"baby's"
p485
I27
sS'3'
p486
I26
sS'should'
p487
I22
sS'fb'
p488
I27
sS'yea'
p489
I27
sS'only'
p490
I24
sS'going'
p491
I22
sS'hockey'
p492
I27
sS'rich'
p493
I27
sS'factor'
p494
I26
sS'8'
p495
I27
sS'hanley'
p496
I26
sS'hope'
p497
I25
sS'pumpkin'
p498
I27
sS'do'
p499
I12
sS'his'
p500
I25
sS'hit'
p501
I27
sS'get'
p502
I21
sS'luke'
p503
I27
sS'stop'
p504
I23
sS'relationship.\xe2\x80\x9d'
p505
I27
sS'tbh'
p506
I25
sS'feels'
p507
I26
sS'cannot'
p508
I27
sS'lighter'
p509
I27
sS'yvonne'
p510
I27
sS'during'
p511
I27
sS'alexander'
p512
I27
sS'brain'
p513
I27
sS'morning'
p514
I24
sS'bad'
p515
I24
sS'stupid'
p516
I26
sS'she'
p517
I25
sS'wholesale'
p518
I27
sS'x'
p519
I26
sS'vamos'
p520
I27
sS'where'
p521
I24
sS'sho'
p522
I27
sS'ignored'
p523
I27
sS'besties'
p524
I27
sS'fair'
p525
I27
sS'prayers'
p526
I27
sS'w/'
p527
I27
sS'national'
p528
I27
sS'lazy'
p529
I27
sS'see'
p530
I21
sS'computer'
p531
I27
sS'dumb'
p532
I25
sS'are'
p533
I13
sS'estamos'
p534
I27
sS'virar'
p535
I27
sS'best'
p536
I26
sS'wonder'
p537
I27
sS'brazil'
p538
I26
sS'exorcism'
p539
I27
sS'said'
p540
I25
sS'jeter'
p541
I27
sS'wow'
p542
I26
sS'please'
p543
I27
sS'"oh'
p544
I27
sS'fans'
p545
I26
sS"there's"
p546
I27
sS'horrible'
p547
I27
sS'probably'
p548
I26
sS'reading'
p549
I27
sS'midnight'
p550
I27
sS'we'
p551
I15
sS'omg'
p552
I25
sS'exam'
p553
I27
sS'nature'
p554
I27
sS'bruuhh'
p555
I27
sS'vitamin'
p556
I27
sS'jr'
p557
I27
sS'killing'
p558
I27
sS'greinke'
p559
I27
sS'jk'
p560
I27
sS'cus'
p561
I27
sS'come'
p562
I26
sS'league'
p563
I26
sS'c'
p564
I27
sS'last'
p565
I22
sS'cow'
p566
I27
sS'memorized'
p567
I27
sS'country'
p568
I27
sS'ill'
p569
I27
sS"he's"
p570
I27
sS'quiet'
p571
I27
sS'film'
p572
I27
sS'disappointment'
p573
I27
sS'alot'
p574
I27
sS'faces'
p575
I27
sS'china'
p576
I27
sS'seeing'
p577
I27
sS'whole'
p578
I26
sS"can't"
p579
I23
sS"youyou're"
p580
I27
sS"drugs'"
p581
I27
sS'drunk'
p582
I27
sS'naaaah'
p583
I27
sS'ca'
p584
I27
sS'america'
p585
I27
sS'dolla'
p586
I27
sS'running'
p587
I25
sS'gooodnighhttt'
p588
I27
sS'laugh'
p589
I27
sS'church'
p590
I25
sS'springs'
p591
I27
sS'wthafack'
p592
I27
sS'sven'
p593
I27
sS'tomarrow'
p594
I27
sS'late'
p595
I26
sS'awsome'
p596
I27
sS'light'
p597
I27
sS':/\xe2\x80\x9d'
p598
I27
sS"it's"
p599
I21
sS'vacation'
p600
I27
sS'shit!!!!!"'
p601
I27
sS'chimneys'
p602
I27
sS'beer'
p603
I27
sS'much'
p604
I27
sS'damn'
p605
I25
sS'whisper'
p606
I27
sS'woke'
p607
I26
sS'shopping'
p608
I26
sS'sending'
p609
I27
sS'fire'
p610
I27
sS"what's"
p611
I27
sS'sooooo'
p612
I27
sS'search'
p613
I27
sS'else'
p614
I27
sS'photos'
p615
I27
sS'finished'
p616
I26
sS'kids'
p617
I27
sS'wake'
p618
I27
sS'bmw'
p619
I26
sS'catch'
p620
I27
sS'worked'
p621
I27
sS'fsem'
p622
I27
sS'cunt'
p623
I26
sS'case'
p624
I26
sS'myself'
p625
I27
sS'look'
p626
I24
sS'unlike'
p627
I26
sS'these'
p628
I25
sS'straight'
p629
I27
sS'ahah'
p630
I26
sS'beats'
p631
I27
sS'will'
p632
I24
sS'while'
p633
I26
sS'suppose'
p634
I27
sS'hahaha'
p635
I26
sS'fun'
p636
I27
sS'kissing'
p637
I27
sS'pack'
p638
I26
sS'uggh'
p639
I27
sS'force'
p640
I27
sS'..until'
p641
I27
sS'wild'
p642
I27
sS'portugal'
p643
I27
sS'century'
p644
I27
sS'almost'
p645
I27
sS'is'
p646
I11
sS'it'
p647
I9
sS'couples'
p648
I27
sS'cant'
p649
I25
sS'someone'
p650
I27
sS'im'
p651
I18
sS'in'
p652
I14
sS'bucks'
p653
I27
sS'throwing'
p654
I27
sS'shift'
p655
I27
sS'if'
p656
I17
sS'tattoo'
p657
I27
sS'different'
p658
I27
sS'perform'
p659
I27
sS'media'
p660
I27
sS'make'
p661
I26
sS'sproles'
p662
I27
sS'bowl'
p663
I27
sS'same'
p664
I26
sS'check'
p665
I27
sS'shorter'
p666
I27
sS'food'
p667
I23
sS'hahah'
p668
I26
sS'9'
p669
I27
sS'party'
p670
I27
sS'emojis'
p671
I27
sS'atleast'
p672
I27
sS'week'
p673
I25
sS'finish'
p674
I27
sS'kush'
p675
I27
sS'pick'
p676
I27
sS'weed'
p677
I27
sS'fucken'
p678
I25
sS'everybody...wow'
p679
I27
sS'lol\xe2\x80\x9d'
p680
I26
sS'fucked'
p681
I26
sS'whale'
p682
I27
sS"i'm"
p683
I14
sS'wondries'
p684
I26
sS'\xe2\x9c\x8c\xef\xb8\x8f'
p685
I26
sS'wtffffff'
p686
I27
sS'off'
p687
I24
sS'older'
p688
I27
sS'i'
p689
I2
sS'youre'
p690
I27
sS'well'
p691
I23
sS'boxes'
p692
I26
sS'fighting'
p693
I27
sS'tho'
p694
I24
sS'wyd'
p695
I27
sS'bottle'
p696
I27
sS'mother'
p697
I27
sS'the'
p698
I5
sS'spend'
p699
I27
sS'(x'
p700
I27
sS'todaay'
p701
I27
sS'just'
p702
I13
sS'being'
p703
I26
sS'captures'
p704
I27
sS'gunna'
p705
I27
sS'6am'
p706
I27
sS'three-run'
p707
I27
sS'thanks'
p708
I27
sS'touch'
p709
I26
sS'flavor'
p710
I27
sS'clueless'
p711
I27
sS'wed'
p712
I27
sS'had'
p713
I24
sS'cuz'
p714
I26
sS'knew'
p715
I27
sS'shhh'
p716
I27
sS'hitting'
p717
I27
sS'lets'
p718
I26
sS'4'
p719
I27
sS'crack'
p720
I27
sS'has'
p721
I26
sS'ferrari'
p722
I27
sS'excited'
p723
I26
sS'build'
p724
I27
sS'real'
p725
I25
sS'photo'
p726
I27
sS'holding'
p727
I27
sS'big'
p728
I27
sS'gonna'
p729
I25
sS'early'
p730
I27
sS'game'
p731
I26
sS'know'
p732
I24
sS'mom'
p733
I27
sS'world'
p734
I27
sS'bit'
p735
I26
sS'walk'
p736
I27
sS'wings'
p737
I27
sS'sacrilegious'
p738
I27
sS'like'
p739
I16
sS'-_-'
p740
I27
sS'blunt'
p741
I27
sS'toyota'
p742
I27
sS'50'
p743
I27
sS'true'
p744
I27
sS'cx'
p745
I27
sS'nipple'
p746
I27
sS'laughing'
p747
I26
sS'night'
p748
I20
sS'awww...last'
p749
I27
sS'right'
p750
I22
sS'deal'
p751
I27
sS'people'
p752
I27
sS'spring'
p753
I27
sS'scared'
p754
I27
sS'some'
p755
I26
sS'back'
p756
I23
sS'palm'
p757
I27
sS'home'
p758
I19
sS'clinton-dix'
p759
I27
sS'hipsters'
p760
I27
sS'mood'
p761
I25
sS'for'
p762
I10
sS'pues'
p763
I27
sS'ear'
p764
I27
sS'/'
p765
I27
sS'herbalife'
p766
I27
sS'loved'
p767
I27
sS'does'
p768
I27
sS'('
p769
I27
sS'bruhhh'
p770
I27
sS'drink'
p771
I27
sS'either'
p772
I27
sS'be'
p773
I17
sS'bf'
p774
I27
sS'football'
p775
I26
sS'run'
p776
I27
sS'bc'
p777
I27
sS'remembered'
p778
I27
sS'juju'
p779
I27
sS'by'
p780
I27
sS'on'
p781
I21
sS'about'
p782
I21
sS'ok'
p783
I26
sS'working'
p784
I27
sS'oh'
p785
I24
sS'of'
p786
I13
sS'favorite'
p787
I27
sS'o'
p788
I27
sS'hot'
p789
I27
sS'angeles'
p790
I27
sS'dinner'
p791
I27
sS'idk'
p792
I26
sS'yeezy'
p793
I27
sS'ot'
p794
I27
sS'wanna'
p795
I25
sS'or'
p796
I21
sS'heater'
p797
I27
sS'own'
p798
I27
sS'smiled'
p799
I27
sS'burning'
p800
I26
sS'se\xc3\xb1orita'
p801
I27
sS'into'
p802
I24
sS'down'
p803
I27
sS'lies'
p804
I27
sS'because'
p805
I26
sS'been'
p806
I27
sS'your'
p807
I15
sS'chillllll'
p808
I27
sS'mija'
p809
I27
sS'softly'
p810
I27
sS'vai'
p811
I26
sS'you!\xe2\x80\x9d'
p812
I27
sS'her'
p813
I25
sS'sneaky'
p814
I27
sS'transfer'
p815
I26
sS'support'
p816
I27
sS'there'
p817
I26
sS'ahahaa'
p818
I27
sS'yeshhh'
p819
I27
sS'fast'
p820
I26
sS'noticed'
p821
I27
sS'start'
p822
I25
sS"we're"
p823
I27
sS'way'
p824
I24
sS'ed'
p825
I27
sS'forward'
p826
I26
sS'was'
p827
I15
sS'happy'
p828
I20
sS'head'
p829
I27
sS'buy'
p830
I27
sS"i've"
p831
I26
sS'resembles'
p832
I27
sS'7am'
p833
I27
sS'but'
p834
I18
sS'idea'
p835
I27
sS'heat'
p836
I26
sS'hi'
p837
I25
sS'hear'
p838
I26
sS'county'
p839
I27
sS'trying'
p840
I24
sS'with'
p841
I22
sS'eat'
p842
I27
sS'he'
p843
I26
sS'time-lapse'
p844
I27
sS'made'
p845
I25
sS"wasn't"
p846
I27
sS'wish'
p847
I24
sS'up'
p848
I15
sS'us'
p849
I26
sS'prep'
p850
I27
sS'fasho'
p851
I27
sS"tomorrow's"
p852
I27
sS'gymnastics'
p853
I27
sS'minutes'
p854
I26
sS'professor'
p855
I27
sS'asss'
p856
I27
sS')'
p857
I27
sS'gone'
p858
I27
sS'camp'
p859
I27
sS'money'
p860
I27
sS'af'
p861
I27
sS'ah'
p862
I27
sS'am'
p863
I26
sS'proven'
p864
I27
sS'drive'
p865
I27
sS'as'
p866
I25
sS'at'
p867
I8
sS'aw'
p868
I27
sS'kissed'
p869
I27
sS'happen'
p870
I25
sS'shit'
p871
I21
sS'again'
p872
I26
sS'spice'
p873
I27
sS'naa'
p874
I27
sS'dying'
p875
I26
sS'no'
p876
I18
sS'7:10am'
p877
I27
sS'peace'
p878
I25
sS'when'
p879
I18
sS'event'
p880
I27
sS'bartt'
p881
I27
sS'tio'
p882
I27
sS'sick'
p883
I27
sS'digga'
p884
I27
sS'you'
p885
I4
sS'out'
p886
I26
sS'smell'
p887
I27
sS'grumpy'
p888
I27
sS'star'
p889
I27
sS'hey'
p890
I27
sS'monday'
p891
I26
sS'felt'
p892
I27
sS'hahahah'
p893
I27
sS"let's"
p894
I26
sS'chance'
p895
I27
sS'gon'
p896
I27
sS'kinda'
p897
I25
sS'chris'
p898
I27
sS'song'
p899
I27
sS'weekend'
p900
I24
sS'awkwardly'
p901
I27
sS'e'
p902
I27
sS'lead'
p903
I27
sS'gooooooo'
p904
I27
sS'starting'
p905
I27
sS'fridaay'
p906
I27
sS'together'
p907
I27
sS'3-0'
p908
I27
sS'jacket'
p909
I27
sS'depth'
p910
I27
sS'u'
p911
I21
sS'time'
p912
I21
sS'once'
p913
I27
sS'buffalo'
p914
I27
sS'hello'
p915
I26
sS'-.-'
p916
I26
s.