(dp0
S''
p1
I4
sS'raining'
p2
I69
sS"15:57:15.0,34.0948057,-118.1585047,4808.04,it's"
p3
I69
sS'hats'
p4
I69
sS'baus'
p5
I69
sS'denvers'
p6
I69
sS'sleep'
p7
I47
sS'hanging'
p8
I69
sS'conjuring'
p9
I69
sS'hate'
p10
I49
sS'relationships'
p11
I69
sS'allll'
p12
I69
sS'paris'
p13
I69
sS'tweet'
p14
I67
sS'life..6/23/14'
p15
I69
sS'omfg..girls'
p16
I69
sS'presents'
p17
I69
sS'8hr'
p18
I69
sS'under'
p19
I69
sS'sorry'
p20
I67
sS'worth'
p21
I69
sS'caniff'
p22
I69
sS"women's"
p23
I68
sS'crackin'
p24
I69
sS'jack'
p25
I69
sS'bringing'
p26
I68
sS'look'
p27
I64
sS'tickets'
p28
I66
sS'school'
p29
I55
sS'bestfriend'
p30
I68
sS'broiler'
p31
I69
sS'wednesday'
p32
I68
sS'math'
p33
I69
sS'1940s'
p34
I69
sS'simple..no'
p35
I69
sS'clothes'
p36
I68
sS'enjoy'
p37
I68
sS'tired'
p38
I63
sS'phones'
p39
I69
sS'japanese'
p40
I69
sS'nail'
p41
I69
sS'second'
p42
I68
sS'street'
p43
I68
sS'n'
p44
I67
sS'others)'
p45
I69
sS'even'
p46
I47
sS'\xd9\x87\xd9\x86\xd8\xa7\xd9\x83'
p47
I69
sS'\xd8\xa7\xd9\x84\xd8\xb9\xd8\xaf\xd9\x85'
p48
I69
sS'lights'
p49
I69
sS'bipolar'
p50
I69
sS'merican'
p51
I69
sS'new'
p52
I56
sS'tips'
p53
I69
sS'ever'
p54
I59
sS'disney'
p55
I68
sS'told'
p56
I64
sS'never'
p57
I52
sS'meh'
p58
I65
sS'here'
p59
I51
sS'\xe2\x9d\xa4\xef\xb8\x8f'
p60
I62
sS'studio'
p61
I68
sS'dork'
p62
I69
sS'dry'
p63
I69
sS'kids'
p64
I65
sS'leaves'
p65
I67
sS'"why'
p66
I69
sS'widdit'
p67
I69
sS'itunes'
p68
I69
sS'imma'
p69
I68
sS"i'd"
p70
I68
sS'smoke'
p71
I66
sS"i'm"
p72
I15
sS'theres'
p73
I67
sS'golden'
p74
I69
sS'/r/redditlacqueristas'
p75
I69
sS'replace'
p76
I69
sS'bro'
p77
I69
sS'unit'
p78
I69
sS'tn'
p79
I69
sS'would'
p80
I54
sS'army'
p81
I69
sS'catchy'
p82
I69
sS"world's"
p83
I69
sS'chargers'
p84
I69
sS'call'
p85
I60
sS'survive'
p86
I69
sS'tell'
p87
I66
sS'reevaluate'
p88
I69
sS'holy'
p89
I68
sS'haha'
p90
I65
sS'yahoo'
p91
I69
sS'hurt'
p92
I68
sS'99'
p93
I65
sS'tf'
p94
I68
sS'hold'
p95
I68
sS'casualties'
p96
I69
sS'immature'
p97
I69
sS'96'
p98
I69
sS'shoot'
p99
I69
sS'word'
p100
I67
sS'room'
p101
I67
sS'work'
p102
I57
sS"quinn's"
p103
I69
sS'movies'
p104
I69
sS'cuddle'
p105
I69
sS'era'
p106
I69
sS'mr'
p107
I69
sS'my'
p108
I5
sS'wana'
p109
I69
sS'give'
p110
I58
sS'floor'
p111
I69
sS'stressing'
p112
I67
sS'homie'
p113
I69
sS'veggies'
p114
I69
sS'want'
p115
I45
sS'keep'
p116
I67
sS'them!...,91801\n447488932251705344,arrijaybabbyy,2014-03-22'
p117
I69
sS'sats'
p118
I69
sS'end'
p119
I67
sS'turn'
p120
I69
sS'hoo'
p121
I69
sS'sitting'
p122
I66
sS'how'
p123
I41
sS'hot'
p124
I61
sS'drummer'
p125
I69
sS'dangerfield'
p126
I69
sS'hop'
p127
I69
sS'rookie'
p128
I69
sS'interview'
p129
I69
sS'beach'
p130
I68
sS'fever'
p131
I68
sS'after'
p132
I65
sS'dinosaurs'
p133
I69
sS'wrong'
p134
I67
sS'*falls'
p135
I69
sS'salsa'
p136
I69
sS'law'
p137
I69
sS'purchase'
p138
I69
sS'wins'
p139
I67
sS'harley'
p140
I69
sS'cigarettes'
p141
I69
sS'green'
p142
I68
sS'fakkee'
p143
I69
sS'keeps'
p144
I68
sS'every'
p145
I58
sS'wine'
p146
I69
sS'office'
p147
I67
sS'deck'
p148
I69
sS'walgreens'
p149
I68
sS'over'
p150
I62
sS'fam'
p151
I68
sS'babyshower'
p152
I69
sS'london'
p153
I67
sS'fellas'
p154
I69
sS'mayor'
p155
I66
sS'before'
p156
I63
sS'ima'
p157
I68
sS'me?or'
p158
I69
sS'screaming'
p159
I69
sS'writing'
p160
I68
sS'better'
p161
I62
sS'weeks'
p162
I67
sS'then'
p163
I56
sS'them'
p164
I54
sS'thrones'
p165
I68
sS'time.just'
p166
I69
sS'workout'
p167
I69
sS'safe'
p168
I68
sS"we'll"
p169
I68
sS'break'
p170
I67
sS'band'
p171
I55
sS'bang'
p172
I69
sS'\xe2\x98\xba\xef\xb8\x8f'
p173
I68
sS'one'
p174
I43
sS'alex'
p175
I68
sS'bozak'
p176
I69
sS'debut'
p177
I69
sS'arrested'
p178
I69
sS'l'
p179
I68
sS'rocko'
p180
I69
sS'each'
p181
I67
sS'acoustic'
p182
I67
sS'went'
p183
I65
sS'side'
p184
I68
sS'mean'
p185
I65
sS'lifted'
p186
I69
sS'gunna'
p187
I68
sS'series'
p188
I68
sS'carry'
p189
I69
sS'efron'
p190
I68
sS"fuck'em"
p191
I69
sS',91801\n457758457110622208,arrijaybabbyy,2014-04-20'
p192
I69
sS'goo'
p193
I69
sS'gon'
p194
I69
sS'driving'
p195
I65
sS'god'
p196
I63
sS'rx'
p197
I68
sS'vibes'
p198
I69
sS'goc'
p199
I69
sS'mason'
p200
I69
sS'laid'
p201
I69
sS'driving*'
p202
I69
sS'got'
p203
I38
sS'hooker'
p204
I69
sS'band/family'
p205
I69
sS'tingling'
p206
I69
sS'arizona'
p207
I69
sS"doesn't"
p208
I64
sS'revenge'
p209
I69
sS'free'
p210
I66
sS'standard'
p211
I69
sS'returning'
p212
I68
sS'mvp'
p213
I67
sS'enormous'
p214
I69
sS'ate'
p215
I67
sS'starts'
p216
I68
sS'days'
p217
I68
sS'ups'
p218
I69
sS'shipped'
p219
I69
sS"today's"
p220
I69
sS'007'
p221
I69
sS'(at'
p222
I51
sS'\xd8\xa7\xd9\x84\xd8\xaa\xd9\x88\xd9\x83\xd9\x84'
p223
I69
sS'already'
p224
I59
sS'nhl'
p225
I69
sS'puck'
p226
I67
sS'hook'
p227
I68
sS'downside'
p228
I69
sS'another'
p229
I67
sS'basketball'
p230
I66
sS"there's"
p231
I68
sS'top'
p232
I69
sS'hawks'
p233
I68
sS'girls'
p234
I63
sS'needed'
p235
I69
sS'merica'
p236
I68
sS'too'
p237
I55
sS'tom'
p238
I67
sS'tangy'
p239
I69
sS'carrey'
p240
I69
sS'listen'
p241
I69
sS'hangout'
p242
I69
sS'gym'
p243
I61
sS'rejected'
p244
I69
sS'lavender'
p245
I69
sS'nahh'
p246
I69
sS'bebe'
p247
I69
sS'distance'
p248
I69
sS'target'
p249
I68
sS'showed'
p250
I69
sS'orgasm'
p251
I69
sS'alhambra)'
p252
I66
sS"god's"
p253
I69
sS'shower'
p254
I66
sS'matter'
p255
I69
sS'flame'
p256
I69
sS'williams'
p257
I69
sS'knights'
p258
I69
sS'tres'
p259
I69
sS'feeling'
p260
I69
sS'breakroom'
p261
I69
sS'bissh'
p262
I69
sS'palace'
p263
I69
sS'mind'
p264
I65
sS'mine'
p265
I68
sS'talking'
p266
I64
sS'ohhhh'
p267
I69
sS'mins'
p268
I68
sS'mint'
p269
I68
sS'shitlist'
p270
I69
sS'person'
p271
I65
sS'-'
p272
I59
sS'niece'
p273
I69
sS'laughed'
p274
I69
sS'blue'
p275
I66
sS'though'
p276
I68
sS'proving'
p277
I69
sS'victoria'
p278
I69
sS'mario'
p279
I68
sS'regular'
p280
I69
sS'won!-.-'
p281
I69
sS'entry'
p282
I69
sS'glow'
p283
I69
sS'episode'
p284
I67
sS'droving'
p285
I69
sS'professor'
p286
I69
sS'm'
p287
I69
sS'doe'
p288
I68
sS'freeway'
p289
I69
sS'definitely'
p290
I68
sS'plaque'
p291
I69
sS'grandpa'
p292
I69
sS"punk'd"
p293
I69
sS'consumer'
p294
I69
sS'annoyed'
p295
I68
sS'came'
p296
I65
sS'saying'
p297
I63
sS'bomb'
p298
I69
sS'lyrics'
p299
I68
sS'departing'
p300
I69
sS'random'
p301
I69
sS'pops'
p302
I69
sS'forsure'
p303
I68
sS'stepping'
p304
I69
sS'zapia'
p305
I69
sS'explain'
p306
I69
sS'hrs'
p307
I69
sS'athletic'
p308
I69
sS'theme'
p309
I69
sS'rich'
p310
I69
sS'photo'
p311
I69
sS'tropic'
p312
I69
sS'chipotle'
p313
I52
sS'rice'
p314
I69
sS'goalie'
p315
I68
sS'wearing'
p316
I69
sS'23:22:07.0,34.09752173,-118.14920846,4808.04,i'
p317
I69
sS'driyers'
p318
I69
sS'chase)'
p319
I68
sS'stop'
p320
I63
sS'da'
p321
I69
sS'nasty'
p322
I69
sS'dr'
p323
I68
sS'bar'
p324
I69
sS'officially'
p325
I69
sS'bag'
p326
I69
sS'bad'
p327
I64
sS'bae'
p328
I69
sS'quiet.\xe2\x80\x9dty,91801\n448244392843681793,arrijaybabbyy,2014-03-24'
p329
I69
sS'shots'
p330
I69
sS'bam'
p331
I69
sS'me..woke'
p332
I69
sS'>>>>>>'
p333
I69
sS'thanks'
p334
I65
sS'playstation'
p335
I69
sS'blew'
p336
I69
sS'rockstar'
p337
I69
sS'w/'
p338
I47
sS'resist'
p339
I69
sS'goodnight'
p340
I63
sS'fail'
p341
I69
sS'skulls'
p342
I69
sS'best'
p343
I55
sS'k.o'
p344
I69
sS'said'
p345
I61
sS'away'
p346
I68
sS'score'
p347
I68
sS'hopefully'
p348
I68
sS'yogurt'
p349
I69
sS'we'
p350
I23
sS'men'
p351
I68
sS'omg'
p352
I66
sS'however'
p353
I69
sS'boss'
p354
I69
sS'walgreens)'
p355
I68
sS'wear'
p356
I68
sS'wtf'
p357
I68
sS"booty's"
p358
I69
sS'news'
p359
I69
sS'picking'
p360
I66
sS'debt'
p361
I69
sS'roller'
p362
I68
sS'met'
p363
I68
sS'goooaaaaooooohhh'
p364
I69
sS'ill'
p365
I68
sS'compton'
p366
I69
sS'jelly'
p367
I69
sS'players'
p368
I68
sS'games'
p369
I69
sS'10:15:46.0,34.09605523,-118.15656943,4808.04,meh'
p370
I69
sS'asked'
p371
I67
sS'uno'
p372
I69
sS'had'
p373
I48
sS'2nd'
p374
I68
sS'trust'
p375
I65
sS'flatlined'
p376
I69
sS'signals'
p377
I69
sS'bullishit'
p378
I69
sS'beef'
p379
I69
sS'three'
p380
I69
sS'been'
p381
I58
sS'frs'
p382
I68
sS'confident'
p383
I68
sS'beer'
p384
I68
sS'much'
p385
I52
sS'fry'
p386
I69
sS'bishh'
p387
I69
sS'threw'
p388
I69
sS'website'
p389
I69
sS'life'
p390
I47
sS'eastern'
p391
I69
sS'fest'
p392
I69
sS'child'
p393
I69
sS'catch'
p394
I69
sS'chili'
p395
I69
sS'haters'
p396
I68
sS'kiddooo'
p397
I69
sS'chill'
p398
I69
sS'"shhhh'
p399
I69
sS'raspy'
p400
I69
sS'nowa'
p401
I69
sS'air'
p402
I68
sS'near'
p403
I68
sS'ugliest'
p404
I69
sS'hates'
p405
I69
sS'stopping'
p406
I69
sS'voice'
p407
I67
sS'k'
p408
I69
sS'\xd9\x8a\xd9\x88\xd9\x84\xd8\xaf'
p409
I69
sS'played'
p410
I69
sS'is'
p411
I9
sS'sushi'
p412
I69
sS'it'
p413
I13
sS'player'
p414
I69
sS'cant'
p415
I67
sS'im'
p416
I68
sS'in'
p417
I14
sS'if'
p418
I39
sS'credit'
p419
I69
sS'things'
p420
I65
sS'make'
p421
I58
sS'wound'
p422
I68
sS'pick'
p423
I68
sS'tops'
p424
I68
sS'evil'
p425
I68
sS'hand'
p426
I68
sS'kik'
p427
I69
sS'fridays'
p428
I69
sS'lol\xe2\x80\x9d'
p429
I69
sS'jealous'
p430
I69
sS'opportunity'
p431
I69
sS'"who'
p432
I69
sS'thoughts'
p433
I69
sS'kid'
p434
I69
sS'youre'
p435
I69
sS'tho'
p436
I58
sS'contact'
p437
I69
sS'mother'
p438
I68
sS'the'
p439
I2
sS'smoked'
p440
I68
sS'dads'
p441
I69
sS'left'
p442
I66
sS'slutty'
p443
I69
sS'21:44:10.0,34.09835033,-118.15521638,4808.04,seriously'
p444
I69
sS'just'
p445
I16
sS'throttling'
p446
I69
sS'yea'
p447
I64
sS'gods'
p448
I69
sS'||'
p449
I68
sS'yee'
p450
I69
sS'thumbs'
p451
I69
sS'swears'
p452
I69
sS'you\xe2\x9c\x8b'
p453
I69
sS'yes'
p454
I65
sS'yet'
p455
I66
sS'rosebowl,91801\n446014094026342400,arrijaybabbyy,2014-03-18'
p456
I69
sS'handshake'
p457
I69
sS'broncos'
p458
I68
sS'character'
p459
I69
sS'shout'
p460
I68
sS'relearn'
p461
I69
sS'dreams'
p462
I69
sS'easy'
p463
I61
sS'save'
p464
I68
sS'hat'
p465
I68
sS'gave'
p466
I67
sS'babes'
p467
I69
sS'bands'
p468
I66
sS'possibly'
p469
I69
sS'poser'
p470
I69
sS'retreat'
p471
I69
sS'alteast'
p472
I69
sS'time,91801\n444924314895151104,arrijaybabbyy,2014-03-15'
p473
I69
sS'-_-'
p474
I67
sS'gift'
p475
I69
sS'bobby'
p476
I69
sS'='
p477
I69
sS'xbox'
p478
I68
sS'zombies'
p479
I69
sS'7-eleven'
p480
I67
sS'hung'
p481
I69
sS'right'
p482
I47
sS'old'
p483
I64
sS'deal'
p484
I67
sS'people'
p485
I50
sS'dead'
p486
I67
sS'born'
p487
I69
sS'couture'
p488
I69
sS"nothing's"
p489
I69
sS'leanin'
p490
I69
sS'enemies'
p491
I69
sS'19:53:17.0,34.09750756,-118.14899175,4808.04,i'
p492
I69
sS'cooper'
p493
I69
sS'for'
p494
I12
sS'ice'
p495
I64
sS'everything'
p496
I66
sS'asking'
p497
I69
sS'4/20'
p498
I69
sS'umm'
p499
I66
sS'christmas'
p500
I69
sS'hazel'
p501
I69
sS'pls'
p502
I69
sS"bet's"
p503
I69
sS'night'
p504
I61
sS'losing'
p505
I69
sS'super'
p506
I63
sS'cory'
p507
I69
sS'diner'
p508
I68
sS'cowboy'
p509
I68
sS'months'
p510
I69
sS'o'
p511
I68
sS'dinner'
p512
I69
sS'plus'
p513
I68
sS'stoked'
p514
I65
sS'sept'
p515
I68
sS'facetime'
p516
I69
sS'raised'
p517
I69
sS'whats'
p518
I69
sS'subs'
p519
I69
sS"perry's"
p520
I68
sS'bound'
p521
I69
sS'soo'
p522
I65
sS'bath'
p523
I69
sS'down'
p524
I51
sS'lies'
p525
I69
sS'bats'
p526
I69
sS'rant'
p527
I69
sS'dinber'
p528
I69
sS'support'
p529
I66
sS'flying'
p530
I69
sS'fight'
p531
I69
sS'absolutely'
p532
I69
sS'way'
p533
I61
sS'music'
p534
I67
sS'was'
p535
I28
sS'war'
p536
I69
sS'happy'
p537
I54
sS'starve'
p538
I69
sS'head'
p539
I66
sS'\xd8\xa7\xd9\x84\xd8\xa3\xd9\x85\xd9\x84'
p540
I69
sS'fireworks'
p541
I69
sS'heat'
p542
I67
sS'uncle'
p543
I68
sS'hmmmmmmm'
p544
I69
sS'true'
p545
I69
sS'inside'
p546
I66
sS'02:56:23.0,34.09346728,-118.14796426,4808.04,wasted'
p547
I69
sS'watch"'
p548
I69
sS'medication'
p549
I69
sS'disgrace'
p550
I69
sS'pimples'
p551
I69
sS'classic'
p552
I69
sS'tournament'
p553
I67
sS'proven'
p554
I69
sS'drive'
p555
I68
sS'timeee'
p556
I69
sS'awhile'
p557
I69
sS'annoying'
p558
I69
sS'check'
p559
I68
sS'shit'
p560
I62
sS'no'
p561
I43
sS'nd'
p562
I69
sS'tim'
p563
I69
sS'pasadena'
p564
I69
sS'republic'
p565
I69
sS'hangin'
p566
I69
sS'smell'
p567
I68
sS'scored'
p568
I67
sS'picture'
p569
I67
sS"o'clock"
p570
I69
sS'models'
p571
I69
sS'felt'
p572
I67
sS'update'
p573
I68
sS"let's"
p574
I56
sS'scores'
p575
I69
sS'weekend'
p576
I63
sS'died'
p577
I69
sS'jones'
p578
I63
sS'frs86'
p579
I69
sS'shootout'
p580
I69
sS'moved'
p581
I69
sS'together'
p582
I65
sS'time'
p583
I33
sS'boreddd'
p584
I69
sS'updates'
p585
I69
sS'songs'
p586
I68
sS'neighbors'
p587
I69
sS'coach'
p588
I69
sS':('
p589
I69
sS':)'
p590
I68
sS'dance'
p591
I68
sS'skip'
p592
I69
sS'focus'
p593
I69
sS'manager'
p594
I69
sS'mila'
p595
I69
sS'playoffs'
p596
I67
sS'recharge'
p597
I69
sS'vet'
p598
I69
sS'yummy'
p599
I69
sS'hensons'
p600
I69
sS"when's"
p601
I69
sS'father'
p602
I69
sS'nappod'
p603
I69
sS'0'
p604
I69
sS'finally'
p605
I62
sS'must'
p606
I69
sS'me'
p607
I10
sS':o'
p608
I69
sS'3am'
p609
I69
sS'\xe2\x9a\xbe\xef\xb8\x8f'
p610
I69
sS',91801\n455288226261921792,arrijaybabbyy,2014-04-13'
p611
I69
sS'tomorrow..woo'
p612
I69
sS'vegas'
p613
I66
sS'trouble'
p614
I69
sS'minute'
p615
I69
sS'cool'
p616
I63
sS'staples'
p617
I69
sS'level'
p618
I69
sS'did'
p619
I62
sS'turns'
p620
I69
sS'posts'
p621
I69
sS'brother'
p622
I63
sS'soooo'
p623
I68
sS'subway'
p624
I68
sS'team'
p625
I68
sS'quick'
p626
I61
sS'guy'
p627
I61
sS'round'
p628
I67
sS"it'll"
p629
I68
sS'says'
p630
I69
sS'regret'
p631
I69
sS'trend'
p632
I69
sS'sigh'
p633
I68
sS'liquor)'
p634
I69
sS'cyber'
p635
I69
sS'shirts'
p636
I69
sS'aaaaaaand'
p637
I69
sS'run'
p638
I67
sS'bake'
p639
I69
sS'drinks'
p640
I69
sS'bang"'
p641
I69
sS'remembered'
p642
I69
sS'reply'
p643
I68
sS'falling'
p644
I69
sS'freaky'
p645
I69
sS'drafted'
p646
I69
sS'burn'
p647
I69
sS'bandwagon'
p648
I68
sS'makeup'
p649
I68
sS'appetites'
p650
I69
sS'understanding'
p651
I69
sS'water'
p652
I69
sS'baseball'
p653
I65
sS'alone'
p654
I66
sS'suckers'
p655
I69
sS'earthquake'
p656
I67
sS'change'
p657
I67
sS'wait'
p658
I56
sS'box'
p659
I69
sS'boy'
p660
I54
sS'stair'
p661
I69
sS'healthy'
p662
I69
sS'voynov'
p663
I67
sS'bow'
p664
I69
sS'boo'
p665
I69
sS'priceless'
p666
I69
sS'weird'
p667
I69
sS'minecraft'
p668
I69
sS'pillow'
p669
I68
sS'montreal'
p670
I69
sS'love'
p671
I25
sS'mothers"'
p672
I69
sS'prefer'
p673
I69
sS'patriots'
p674
I69
sS"medicine..that's"
p675
I69
sS'fake'
p676
I67
sS'mobil'
p677
I69
sS'market'
p678
I64
sS'working'
p679
I69
sS'dude'
p680
I67
sS'sports'
p681
I68
sS'live'
p682
I62
sS'iphone'
p683
I67
sS'ahhh'
p684
I69
sS'angels'
p685
I69
sS'today'
p686
I36
sS'loving'
p687
I66
sS'gryffindor'
p688
I69
sS'cranked'
p689
I69
sS'chocolate'
p690
I69
sS'ilysonia'
p691
I69
sS'olive'
p692
I69
sS'cases'
p693
I69
sS'home..watching'
p694
I69
sS'niggas'
p695
I69
sS'car'
p696
I65
sS'soul'
p697
I69
sS'hardest'
p698
I69
sS'sour'
p699
I69
sS'can'
p700
I37
sS'cal'
p701
I68
sS'making'
p702
I67
sS'niggah'
p703
I69
sS'heart'
p704
I65
sS'iodine'
p705
I69
sS'figure'
p706
I68
sS'awesome'
p707
I65
sS"didn't"
p708
I57
sS'fuck'
p709
I52
sS'heard'
p710
I69
sS'gabby'
p711
I69
sS'palmsprings'
p712
I69
sS's3'
p713
I69
sS'coyotes'
p714
I69
sS'watching'
p715
I53
sS'1'
p716
I67
sS'till'
p717
I64
sS'sunday'
p718
I69
sS'pure'
p719
I69
sS'swore'
p720
I69
sS'ffhs2322mb'
p721
I69
sS'laundry'
p722
I66
sS'explorer'
p723
I69
sS'may'
p724
I68
sS'dive'
p725
I69
sS'southern'
p726
I69
sS'birthday'
p727
I66
sS'tipped'
p728
I69
sS'mad'
p729
I68
sS'date'
p730
I69
sS'such'
p731
I65
sS'suck'
p732
I68
sS'guys'
p733
I53
sS'grow'
p734
I69
sS'man'
p735
I60
sS'reposition'
p736
I69
sS'stress'
p737
I69
sS'remember'
p738
I69
sS'rn'
p739
I59
sS'whenever'
p740
I69
sS'maybe'
p741
I64
sS'st'
p742
I66
sS'switch'
p743
I69
sS'so'
p744
I11
sS'dead..by'
p745
I69
sS'kurt'
p746
I69
sS'talk'
p747
I60
sS'cute'
p748
I63
sS'shoes'
p749
I69
sS'usc'
p750
I69
sS'haircut'
p751
I69
sS'wishing'
p752
I69
sS'years'
p753
I66
sS'course'
p754
I69
sS'hahahahhahha'
p755
I69
sS'shake'
p756
I68
sS'still'
p757
I48
sS'group'
p758
I69
sS'thank'
p759
I67
sS"he's"
p760
I64
sS'interesting'
p761
I69
sS'jim'
p762
I68
sS'amazing'
p763
I66
sS'tweets'
p764
I69
sS'main'
p765
I66
sS'style'
p766
I69
sS'happened'
p767
I68
sS'nom'
p768
I68
sS'moms'
p769
I68
sS'sooner'
p770
I69
sS'thalia'
p771
I69
sS'lunch'
p772
I62
sS'sphs'
p773
I69
sS'half'
p774
I69
sS'not'
p775
I31
sS'now'
p776
I34
sS'bullshit'
p777
I66
sS'aaaahhhhhhh'
p778
I69
sS'name'
p779
I66
sS'thankful'
p780
I69
sS'appropriate'
p781
I69
sS'wong'
p782
I69
sS'rock'
p783
I65
sS'turtle'
p784
I69
sS'eh'
p785
I69
sS'kane'
p786
I69
sS'yeah'
p787
I69
sS'bradley'
p788
I69
sS'year'
p789
I63
sS'ft'
p790
I69
sS'girl'
p791
I59
sS'keyed'
p792
I69
sS'ep'
p793
I68
sS'amusement'
p794
I69
sS'living'
p795
I69
sS'jonsey'
p796
I69
sS'interference'
p797
I69
sS'looking'
p798
I65
sS'seriously'
p799
I62
sS"shouldn't"
p800
I68
sS'internet'
p801
I69
sS'hufflepuff'
p802
I68
sS'shows'
p803
I69
sS'earlier'
p804
I67
sS'theory'
p805
I69
sS'million'
p806
I69
sS'boobs'
p807
I67
sS'cut'
p808
I69
sS'california'
p809
I69
sS'besides'
p810
I69
sS'grandma'
p811
I66
sS'care'
p812
I64
sS'advance'
p813
I69
sS'underwear'
p814
I69
sS'goest'
p815
I69
sS'yup'
p816
I67
sS'punk'
p817
I69
sS'thing'
p818
I56
sS'place'
p819
I67
sS'\xd9\x87\xd9\x8a'
p820
I69
sS'sho'
p821
I69
sS'yess'
p822
I68
sS'think'
p823
I44
sS'first'
p824
I59
sS'cheese'
p825
I69
sS'henry'
p826
I69
sS'saving'
p827
I69
sS'potter'
p828
I68
sS'zac'
p829
I68
sS'yourself'
p830
I66
sS'xx'
p831
I68
sS'americans'
p832
I69
sS'long'
p833
I64
sS'president'
p834
I69
sS'vote'
p835
I69
sS'sounds'
p836
I68
sS'drove'
p837
I69
sS'pokemon'
p838
I67
sS'tomorrow'
p839
I58
sS'rented'
p840
I69
sS'little'
p841
I61
sS'checked'
p842
I69
sS'caught'
p843
I69
sS'slept'
p844
I69
sS'anyone'
p845
I59
sS'fml'
p846
I67
sS'2'
p847
I59
sS'draft'
p848
I69
sS'white'
p849
I67
sS'friend'
p850
I62
sS'aikanes'
p851
I69
sS'eyes'
p852
I68
sS'hug'
p853
I69
sS'that'
p854
I17
sS'season'
p855
I67
sS'appreciates'
p856
I69
sS'huh'
p857
I69
sS'released'
p858
I69
sS'butt'
p859
I68
sS'copy'
p860
I69
sS'than'
p861
I69
sS'brady'
p862
I69
sS'10'
p863
I67
sS'15'
p864
I69
sS'lmao'
p865
I68
sS'tbh'
p866
I69
sS'depressed'
p867
I69
sS'gotta'
p868
I67
sS'r'
p869
I67
sS'were'
p870
I55
sS'russia'
p871
I69
sS'and'
p872
I8
sS'twinkies'
p873
I69
sS'san'
p874
I68
sS'ahhhhhhhh'
p875
I69
sS'turned'
p876
I69
sS'penner'
p877
I68
sS'sad'
p878
I69
sS'say'
p879
I55
sS'mates'
p880
I69
sS'volleyball'
p881
I69
sS'lurking'
p882
I69
sS'anger'
p883
I69
sS'breakfast'
p884
I68
sS'any'
p885
I63
sS'marathon'
p886
I69
sS'superman'
p887
I69
sS'tweeter\xe2\x9c\x8c\xef\xb8\x8f'
p888
I69
sS'note'
p889
I69
sS'omfg'
p890
I67
sS'take'
p891
I57
sS'online'
p892
I69
sS'destroy'
p893
I69
sS'channel'
p894
I69
sS'sure'
p895
I66
sS'pain'
p896
I68
sS'knew'
p897
I68
sS'importantly'
p898
I69
sS'pair'
p899
I69
sS'woooo'
p900
I63
sS'forever'
p901
I66
sS'especially'
p902
I69
sS'lawd'
p903
I69
sS'proud'
p904
I69
sS'hungry'
p905
I67
sS'senior'
p906
I69
sS'salt'
p907
I68
sS'\xd9\x81\xd8\xb1\xd8\xa7\xd8\xba'
p908
I69
sS'shop'
p909
I68
sS'madison'
p910
I69
sS'shot'
p911
I68
sS'show'
p912
I58
sS'cheap'
p913
I68
sS'keeep'
p914
I69
sS'post-workout'
p915
I69
sS'corner'
p916
I69
sS'ground'
p917
I68
sS'aint'
p918
I69
sS'slow'
p919
I69
sS'\xe2\x9c\x8b'
p920
I69
sS'daily'
p921
I69
sS'outside'
p922
I68
sS'crime'
p923
I69
sS'only'
p924
I56
sS'going'
p925
I45
sS'black'
p926
I69
sS'hockey'
p927
I53
sS'wooo'
p928
I68
sS'boyle'
p929
I69
sS'clank'
p930
I69
sS'pastrami'
p931
I68
sS'bitch.,91801\n474693892739055616,arrijaybabbyy,2014-06-05'
p932
I69
sS'get'
p933
I37
sS'$5'
p934
I69
sS'cannot'
p935
I68
sS'hiller'
p936
I69
sS'justified'
p937
I69
sS'celebrate'
p938
I69
sS'freaking'
p939
I69
sS'morning'
p940
I66
sS'joker'
p941
I69
sS'stupid'
p942
I62
sS'worries'
p943
I68
sS'scott'
p944
I69
sS'where'
p945
I62
sS'xmas'
p946
I69
sS"y'all"
p947
I69
sS'learn'
p948
I69
sS'honesty'
p949
I69
sS'espn'
p950
I69
sS'mom'
p951
I62
sS"hasn't"
p952
I69
sS'asleep'
p953
I66
sS'anyways'
p954
I68
sS'hoes'
p955
I69
sS'sport'
p956
I69
sS'wonder'
p957
I66
sS',91801\n456989591795277824,arrijaybabbyy,2014-04-18'
p958
I69
sS'fails'
p959
I69
sS'forgotten'
p960
I69
sS'3'
p961
I65
sS'gaga'
p962
I69
sS'between'
p963
I69
sS'craaazy'
p964
I69
sS'whispered'
p965
I69
sS'5:30'
p966
I69
sS'notice'
p967
I69
sS'parent'
p968
I69
sS'timmy'
p969
I68
sS'jr'
p970
I68
sS'killing'
p971
I67
sS'guitar'
p972
I68
sS'galore'
p973
I69
sS'awards'
p974
I69
sS'hurts'
p975
I69
sS'coma'
p976
I69
sS'je'
p977
I69
sS'tub'
p978
I69
sS'come'
p979
I55
sS'blame'
p980
I69
sS'mans'
p981
I69
sS'many'
p982
I68
sS'according'
p983
I69
sS'flipped'
p984
I69
sS'comes'
p985
I68
sS'jk'
p986
I69
sS'jeans'
p987
I69
sS'period'
p988
I69
sS'pop'
p989
I67
sS'64'
p990
I69
sS'65'
p991
I69
sS'polo'
p992
I69
sS'sticks'
p993
I66
sS'cramps'
p994
I69
sS'oliver'
p995
I67
sS'capable'
p996
I69
sS'50%'
p997
I69
sS'vacation'
p998
I69
sS'mark'
p999
I69
sS'judging'
p1000
I69
sS'crawford'
p1001
I69
sS'trash\xe2\x9c\x8b'
p1002
I69
sS'wants'
p1003
I66
sS'shopping'
p1004
I68
sS'\xd9\x8a\xd8\xa3\xd8\xaa\xd9\x8a'
p1005
I69
sS'photos'
p1006
I69
sS'wake'
p1007
I68
sS'bmx'
p1008
I69
sS'davielokks'
p1009
I69
sS'spirit'
p1010
I69
sS'those'
p1011
I67
sS'myself'
p1012
I66
sS'folding'
p1013
I69
sS'these'
p1014
I67
sS'mono'
p1015
I69
sS'cancelled'
p1016
I68
sS'invited'
p1017
I69
sS'punches'
p1018
I69
sS'coffee'
p1019
I65
sS'sleeping'
p1020
I68
sS'blah'
p1021
I66
sS'good'
p1022
I30
sS'punched'
p1023
I69
sS'minds'
p1024
I69
sS'technology'
p1025
I69
sS'everyday'
p1026
I69
sS'worry'
p1027
I68
sS'intense'
p1028
I69
sS'doctor'
p1029
I69
sS'pay'
p1030
I68
sS'bowl'
p1031
I68
sS'same'
p1032
I65
sS'trip'
p1033
I66
sS'ya'
p1034
I65
sS'figurine'
p1035
I69
sS'coworkers'
p1036
I69
sS'week'
p1037
I65
sS'closest'
p1038
I69
sS'seagulls'
p1039
I68
sS'woulda'
p1040
I68
sS'favorites'
p1041
I69
sS'changing'
p1042
I69
sS'young_tea'
p1043
I68
sS'\xe2\x9c\x8c\xef\xb8\x8f'
p1044
I69
sS'ranch'
p1045
I69
sS'breezy'
p1046
I69
sS'without'
p1047
I65
sS"can't"
p1048
I33
sS'bumping'
p1049
I69
sS'summer'
p1050
I65
sS'they'
p1051
I53
sS'being'
p1052
I58
sS'money'
p1053
I68
sS'rest'
p1054
I69
sS'sweeping'
p1055
I69
sS'kill'
p1056
I65
sS'wifey'
p1057
I69
sS'touch'
p1058
I69
sS'polish'
p1059
I69
sS'\xd8\xa7\xd9\x84\xd9\x84\xd9\x87'
p1060
I69
sS'blondes'
p1061
I69
sS'blonder'
p1062
I69
sS'hint'
p1063
I69
sS'thinking'
p1064
I66
sS'rose'
p1065
I68
sS'pups'
p1066
I69
sS"everyone's"
p1067
I68
sS'seems'
p1068
I68
sS'wall'
p1069
I68
sS'lets'
p1070
I67
sS'pile'
p1071
I69
sS'4'
p1072
I68
sS'flashing'
p1073
I69
sS'real'
p1074
I64
sS'around'
p1075
I65
sS'read'
p1076
I69
sS'sums'
p1077
I69
sS'gonna'
p1078
I59
sS'early'
p1079
I65
sS'grid'
p1080
I69
sS'poly'
p1081
I69
sS'\xe2\x9d\xa4'
p1082
I68
sS'libras'
p1083
I69
sS'world'
p1084
I61
sS'cd'
p1085
I69
sS'lady'
p1086
I69
sS'in-n-out'
p1087
I69
sS'piece'
p1088
I69
sS'miracle'
p1089
I69
sS'chamber'
p1090
I69
sS'kopitar'
p1091
I68
sS'laughing'
p1092
I69
sS'tart'
p1093
I69
sS'meeeee'
p1094
I68
sS'dolo'
p1095
I69
sS'"omg'
p1096
I69
sS'calling'
p1097
I69
sS'diving'
p1098
I68
sS'stagecoach'
p1099
I69
sS'frigidaire'
p1100
I69
sS'yesss'
p1101
I69
sS'slice'
p1102
I69
sS'mood'
p1103
I67
sS'moon'
p1104
I69
sS'throat'
p1105
I69
sS'willy'
p1106
I69
sS'football'
p1107
I65
sS'power'
p1108
I68
sS'lmfao'
p1109
I68
sS'nails'
p1110
I68
sS'broken'
p1111
I69
sS'on'
p1112
I18
sS'om'
p1113
I69
sS'ok'
p1114
I57
sS'oh'
p1115
I61
sS'of'
p1116
I19
sS'favorite'
p1117
I66
sS'practical'
p1118
I69
sS'stand'
p1119
I68
sS'act'
p1120
I69
sS'or'
p1121
I48
sS'road'
p1122
I69
sS'ladies'
p1123
I69
sS'burning'
p1124
I69
sS'blessed'
p1125
I68
sS'snapchat'
p1126
I67
sS'duarte'
p1127
I69
sS'heated'
p1128
I68
sS'burton'
p1129
I69
sS'freaken'
p1130
I69
sS'snowmen'
p1131
I68
sS'your'
p1132
I25
sS'stare'
p1133
I69
sS'fast'
p1134
I69
sS'her'
p1135
I56
sS'area'
p1136
I69
sS'there'
p1137
I48
sS'hey'
p1138
I62
sS'lol'
p1139
I21
sS'start'
p1140
I65
sS'low'
p1141
I68
sS'stars'
p1142
I68
sS'worst'
p1143
I68
sS'redbull'
p1144
I68
sS'enough'
p1145
I69
sS'you"'
p1146
I69
sS'monks'
p1147
I69
sS'jus'
p1148
I67
sS'trying'
p1149
I55
sS'downstairs'
p1150
I68
sS'buying'
p1151
I69
sS"they're"
p1152
I68
sS'mothafucka'
p1153
I69
sS"wasn't"
p1154
I68
sS'drills'
p1155
I68
sS'dirty'
p1156
I69
sS'he*'
p1157
I69
sS'gone'
p1158
I68
sS'ac'
p1159
I69
sS'taylor'
p1160
I69
sS'af'
p1161
I67
sS'taste'
p1162
I69
sS'forgot'
p1163
I66
sS'am'
p1164
I62
sS'macbeth'
p1165
I69
sS'an'
p1166
I62
sS'as'
p1167
I49
sS'at'
p1168
I22
sS'planets'
p1169
I69
sS'watched'
p1170
I68
sS'cream'
p1171
I68
sS'again'
p1172
I61
sS"top's"
p1173
I69
sS'idiot'
p1174
I69
sS'deserve'
p1175
I69
sS'drivers'
p1176
I69
sS'..called'
p1177
I69
sS'zelda'
p1178
I69
sS'saturday'
p1179
I69
sS'tight'
p1180
I69
sS'doyers'
p1181
I69
sS'5'
p1182
I65
sS'you'
p1183
I6
sS'poor'
p1184
I69
sS'championship'
p1185
I69
sS'wooooooooo'
p1186
I69
sS'jay-dee'
p1187
I69
sS'lovers'
p1188
I69
sS'serious'
p1189
I68
sS'chris'
p1190
I69
sS'sneeze'
p1191
I69
sS'building'
p1192
I69
sS'calls'
p1193
I69
sS'wife'
p1194
I69
sS'controller'
p1195
I69
sS'vines'
p1196
I69
sS'sounded'
p1197
I69
sS'u'
p1198
I69
sS'adam'
p1199
I54
sS'alright'
p1200
I69
sS'starting'
p1201
I69
sS'original'
p1202
I69
sS'all'
p1203
I35
sS'forget'
p1204
I68
sS'hooked'
p1205
I68
sS'worms'
p1206
I69
sS'month'
p1207
I68
sS'follow'
p1208
I61
sS'wash'
p1209
I69
sS'children'
p1210
I69
sS'niacin'
p1211
I69
sS'woooot'
p1212
I69
sS'tv'
p1213
I66
sS'thursday'
p1214
I68
sS'riots'
p1215
I69
sS'to'
p1216
I3
sS'aaron'
p1217
I69
sS'wooooo'
p1218
I63
sS'oleynik'
p1219
I69
sS'died!!!"'
p1220
I69
sS'song'
p1221
I62
sS'very'
p1222
I68
sS'fat'
p1223
I68
sS'sons'
p1224
I69
sS'fan'
p1225
I67
sS'fall'
p1226
I61
sS'difference'
p1227
I69
sS'fag'
p1228
I68
sS'trippin'
p1229
I68
sS'gf'
p1230
I69
sS'angus'
p1231
I69
sS'laying'
p1232
I68
sS'canceled'
p1233
I69
sS'grad'
p1234
I69
sS'sand'
p1235
I69
sS'sane'
p1236
I69
sS'harry'
p1237
I68
sS'dodger'
p1238
I69
sS"i'll"
p1239
I59
sS'open'
p1240
I68
sS'cookies'
p1241
I69
sS'neighborhood'
p1242
I66
sS'instagram'
p1243
I64
sS'ten'
p1244
I68
sS'penalties'
p1245
I68
sS'm_tea'
p1246
I69
sS'grabs'
p1247
I69
sS'..people'
p1248
I69
sS'past'
p1249
I67
sS'burger'
p1250
I69
sS'woooooooo'
p1251
I69
sS'appreciating'
p1252
I69
sS'bully'
p1253
I69
sS'what'
p1254
I41
sS'richard'
p1255
I69
sS'wrecked'
p1256
I69
sS'sellout'
p1257
I69
sS'public'
p1258
I69
sS'full'
p1259
I65
sS"c'mon"
p1260
I68
sS'loose'
p1261
I69
sS'answers'
p1262
I69
sS'surfer'
p1263
I69
sS'hours'
p1264
I66
sS'christy'
p1265
I69
sS'grudges'
p1266
I69
sS'strong'
p1267
I68
sS'shoulda'
p1268
I68
sS'jackie'
p1269
I69
sS'creepy'
p1270
I69
sS'pics'
p1271
I68
sS'social'
p1272
I65
sS'heartbroken'
p1273
I69
sS"fuck'"
p1274
I69
sS'habra'
p1275
I69
sS'\xe2\x9d\xa4\xef\xb8\x8f\xe2\x9d\xa4\xef\xb8\x8f\xe2\x9d\xa4\xef\xb8\x8f\xe2\x9d\xa4\xef\xb8\x8f\xe2\x9d\xa4\xef\xb8\x8f'
p1276
I69
sS'followed'
p1277
I69
sS'family'
p1278
I66
sS'turkey'
p1279
I69
sS'bleeezy'
p1280
I69
sS'put'
p1281
I60
sS'"i\'ve'
p1282
I69
sS"sister's"
p1283
I68
sS'7-eleven)'
p1284
I65
sS'eye'
p1285
I69
sS'two'
p1286
I65
sS'6'
p1287
I68
sS'taken'
p1288
I69
sS'more'
p1289
I62
sS'tryna'
p1290
I69
sS'care.\xe2\x80\x9d'
p1291
I69
sS'diamond'
p1292
I69
sS'door'
p1293
I68
sS'knows'
p1294
I66
sS'dammit'
p1295
I69
sS"ain't"
p1296
I69
sS'stick'
p1297
I66
sS'broke'
p1298
I69
sS'known'
p1299
I68
sS'tees'
p1300
I69
sS'glad'
p1301
I67
sS'town'
p1302
I69
sS'grill'
p1303
I64
sS'hour'
p1304
I68
sS'middle'
p1305
I69
sS'sucks'
p1306
I62
sS'sudden'
p1307
I69
sS'sofritas'
p1308
I69
sS'knocked'
p1309
I69
sS'history'
p1310
I67
sS'beautiful'
p1311
I69
sS'brown'
p1312
I69
sS'share'
p1313
I69
sS'socal'
p1314
I69
sS'thad'
p1315
I69
sS'salty'
p1316
I69
sS'bucks'
p1317
I69
sS'redboxing'
p1318
I68
sS'ughhhh'
p1319
I69
sS'huge'
p1320
I69
sS'needs'
p1321
I62
sS'court'
p1322
I69
sS'goal'
p1323
I61
sS'awkward'
p1324
I66
sS'breaking'
p1325
I69
sS'hugs'
p1326
I69
sS'20bucks'
p1327
I69
sS'creature'
p1328
I69
sS'okay'
p1329
I61
sS'tried'
p1330
I68
sS'rude'
p1331
I69
sS'algebra'
p1332
I69
sS'advice'
p1333
I69
sS'soundtrack'
p1334
I69
sS'fa'
p1335
I69
sS'lighting'
p1336
I69
sS'blood'
p1337
I68
sS'coming'
p1338
I64
sS'backyard'
p1339
I69
sS'sloppy'
p1340
I69
sS'me"'
p1341
I69
sS'a'
p1342
I7
sS'funday'
p1343
I69
sS'tweeting'
p1344
I69
sS'bugs'
p1345
I69
sS'trevor'
p1346
I69
sS'dragon'
p1347
I69
sS'secs'
p1348
I69
sS'media'
p1349
I67
sS'banks'
p1350
I69
sS'facebook'
p1351
I69
sS'rentals'
p1352
I69
sS'dream'
p1353
I67
sS'playing'
p1354
I59
sS"that's"
p1355
I52
sS'bandwagoners'
p1356
I69
sS'mexican'
p1357
I61
sS'help'
p1358
I67
sS"don't"
p1359
I26
sS'september'
p1360
I69
sS'sooo'
p1361
I66
sS'soon'
p1362
I67
sS'auburn'
p1363
I69
sS'radar'
p1364
I69
sS'through'
p1365
I65
sS'replies'
p1366
I69
sS'refried'
p1367
I69
sS'broadway'
p1368
I69
sS'smiling'
p1369
I69
sS'decorating'
p1370
I69
sS'golfing'
p1371
I69
sS'bummed'
p1372
I69
sS'fanning'
p1373
I69
sS'thinkkk'
p1374
I69
sS'23:42:43.0,34.095466,-118.15650155,4808.04,ugh'
p1375
I69
sS'actually'
p1376
I66
sS'late'
p1377
I65
sS'soccer'
p1378
I68
sS'might'
p1379
I65
sS"haven't"
p1380
I66
sS'fool'
p1381
I69
sS'lowell'
p1382
I69
sS'someone'
p1383
I47
sS'return'
p1384
I68
sS'sucking'
p1385
I69
sS'yo'
p1386
I69
sS'food'
p1387
I63
sS'redbox'
p1388
I60
sS'starbucks'
p1389
I69
sS'foot'
p1390
I68
sS'bigger'
p1391
I69
sS'sucked'
p1392
I69
sS'easily'
p1393
I69
sS'fantasy'
p1394
I66
sS'always'
p1395
I53
sS'lmao,91801\n473610695917846528,arrijaybabbyy,2014-06-02'
p1396
I69
sS'drake'
p1397
I69
sS'malone'
p1398
I69
sS"kershaw's"
p1399
I69
sS'appliances)'
p1400
I69
sS'die'
p1401
I69
sS'found'
p1402
I67
sS'button'
p1403
I69
sS"isn't"
p1404
I66
sS'heavy'
p1405
I69
sS'defs'
p1406
I69
sS'everyone'
p1407
I61
sS'house'
p1408
I56
sS'hard'
p1409
I68
sS'idea'
p1410
I69
sS'idec'
p1411
I69
sS'overthinking'
p1412
I69
sS'blues'
p1413
I63
sS'butthurt'
p1414
I68
sS'really'
p1415
I47
sS'gullible'
p1416
I69
sS'embellishment'
p1417
I69
sS'perry'
p1418
I61
sS'"k"'
p1419
I69
sS'since'
p1420
I64
sS'studying'
p1421
I69
sS'hill'
p1422
I69
sS'7'
p1423
I68
sS'ass'
p1424
I64
sS'bass'
p1425
I66
sS'pathetic'
p1426
I69
sS'timeline'
p1427
I69
sS'friday'
p1428
I66
sS'forgive'
p1429
I69
sS'mmm'
p1430
I69
sS'reason'
p1431
I67
sS'disneyland'
p1432
I68
sS'fatass'
p1433
I69
sS'imagine'
p1434
I68
sS'ask'
p1435
I68
sS'teach'
p1436
I69
sS'lag'
p1437
I69
sS'daiso'
p1438
I69
sS'success'
p1439
I69
sS'americas'
p1440
I69
sS'american'
p1441
I69
sS'w'
p1442
I65
sS'castle'
p1443
I69
sS'throws'
p1444
I69
sS'major'
p1445
I69
sS'dont'
p1446
I67
sS'feel'
p1447
I56
sS'redboxes'
p1448
I69
sS'number'
p1449
I68
sS'feet'
p1450
I68
sS'fucked'
p1451
I69
sS'done'
p1452
I61
sS'kobe'
p1453
I69
sS'miss'
p1454
I53
sS'cigaret'
p1455
I69
sS'story'
p1456
I67
sS'"'
p1457
I68
sS'05:51:35.0,34.09524373,-118.15158922,4808.04,these'
p1458
I69
sS'revive'
p1459
I69
sS'least'
p1460
I68
sS'spock'
p1461
I69
sS'sware'
p1462
I68
sS'destruction'
p1463
I69
sS'store'
p1464
I66
sS'headache'
p1465
I67
sS'relationship'
p1466
I68
sS'pump'
p1467
I69
sS'park'
p1468
I64
sS'mmmm'
p1469
I69
sS'mmmh'
p1470
I68
sS'discounted'
p1471
I69
sS'$4'
p1472
I69
sS'believe'
p1473
I65
sS'$3'
p1474
I69
sS'king'
p1475
I63
sS'grocery'
p1476
I69
sS'girliest'
p1477
I69
sS'recording'
p1478
I69
sS'tummy'
p1479
I69
sS'biebers'
p1480
I69
sS'supposed'
p1481
I68
sS'toe'
p1482
I69
sS'ousted'
p1483
I66
sS'mickey'
p1484
I69
sS'juice'
p1485
I69
sS'twiddle'
p1486
I69
sS'cleaned'
p1487
I69
sS'philly'
p1488
I69
sS'sell'
p1489
I69
sS'lie'
p1490
I68
sS'nights'
p1491
I68
sS'mobil)'
p1492
I69
sS'built'
p1493
I69
sS'lil'
p1494
I67
sS'self'
p1495
I69
sS'also'
p1496
I69
sS'build'
p1497
I69
sS'finding'
p1498
I69
sS'play'
p1499
I48
sS"howard's"
p1500
I69
sS'chart'
p1501
I69
sS'most'
p1502
I62
sS'out!,91801\n456988460872527873,arrijaybabbyy,2014-04-18'
p1503
I69
sS'plan'
p1504
I67
sS'eaten'
p1505
I69
sS'nothing'
p1506
I60
sS'anthony\xe2\x9d\xa4\xef\xb8\x8f'
p1507
I69
sS'mack'
p1508
I69
sS'understands'
p1509
I69
sS'sometimes'
p1510
I67
sS'cover'
p1511
I67
sS'storyline'
p1512
I69
sS'ends"'
p1513
I69
sS'clean'
p1514
I68
sS'\xe2\x98\x80\xef\xb8\x8f'
p1515
I69
sS'larisa'
p1516
I69
sS'shoutout'
p1517
I69
sS'stones'
p1518
I69
sS'ugh'
p1519
I62
sS'\xd8\x8c'
p1520
I69
sS'grandmas'
p1521
I69
sS'jared'
p1522
I69
sS'fine'
p1523
I69
sS'find'
p1524
I64
sS'etsy'
p1525
I69
sS'bff'
p1526
I68
sS'justice'
p1527
I69
sS'nervous'
p1528
I66
sS'pretty'
p1529
I63
sS"mom's"
p1530
I69
sS'woooooow'
p1531
I69
sS'korina'
p1532
I69
sS'his'
p1533
I59
sS'hit'
p1534
I62
sS'beyonc\xc3\xa9'
p1535
I68
sS'wooooooy'
p1536
I69
sS'feels'
p1537
I65
sS'longest'
p1538
I69
sS'wooooooo'
p1539
I69
sS'during'
p1540
I69
sS'him'
p1541
I60
sS'dustin'
p1542
I69
sS"beefin'"
p1543
I69
sS'lolly'
p1544
I69
sS'laundrys'
p1545
I69
sS'gloves'
p1546
I68
sS'x'
p1547
I69
sS'tourney'
p1548
I69
sS'wrote'
p1549
I69
sS'set'
p1550
I68
sS'throwing'
p1551
I67
sS'tree'
p1552
I68
sS'legs....are....dead'
p1553
I69
sS'see'
p1554
I56
sS'"whatever"'
p1555
I69
sS'are'
p1556
I30
sS'close'
p1557
I68
sS'2.0'
p1558
I69
sS'retweet'
p1559
I64
sS'2.5'
p1560
I69
sS'learns'
p1561
I69
sS'oldies'
p1562
I69
sS'pictures'
p1563
I68
sS'wow'
p1564
I66
sS'currently'
p1565
I69
sS'please'
p1566
I66
sS'heading'
p1567
I69
sS"cheney's"
p1568
I69
sS'fans'
p1569
I59
sS'won'
p1570
I66
sS'probably'
p1571
I67
sS'clippers'
p1572
I69
sS'wide'
p1573
I69
sS'europe'
p1574
I69
sS'solo'
p1575
I68
sS'missing'
p1576
I68
sS'sold'
p1577
I69
sS'nashville'
p1578
I69
sS'prerelease'
p1579
I69
sS'pepsi'
p1580
I69
sS'pissed'
p1581
I67
sS'both'
p1582
I69
sS'4-pack'
p1583
I69
sS'last'
p1584
I55
sS'secrets'
p1585
I69
sS"wouldn't"
p1586
I68
sS'fags'
p1587
I69
sS"we've"
p1588
I69
sS'whole'
p1589
I64
sS'finds'
p1590
I69
sS'grill)'
p1591
I67
sS'drunk'
p1592
I69
sS'battery'
p1593
I68
sS"todd's"
p1594
I69
sS'whatever'
p1595
I64
sS'likes'
p1596
I67
sS'giiirrrllll'
p1597
I69
sS'bench'
p1598
I69
sS'myself..downstairs'
p1599
I69
sS'expensive'
p1600
I69
sS'headaches'
p1601
I68
sS'devil'
p1602
I69
sS'kimberly'
p1603
I69
sS'mikey'
p1604
I69
sS'teacher'
p1605
I69
sS'secret'
p1606
I68
sS'dropping'
p1607
I68
sS'damn'
p1608
I67
sS'brick'
p1609
I69
sS'meeting'
p1610
I69
sS'woke'
p1611
I67
sS'flight'
p1612
I68
sS'sending'
p1613
I69
sS'fire'
p1614
I65
sS"what's"
p1615
I59
sS'gas'
p1616
I69
sS'else'
p1617
I67
sS'moment'
p1618
I69
sS'yotes'
p1619
I69
sS'awake'
p1620
I64
sS'pilgrim'
p1621
I69
sS'frozen'
p1622
I67
sS'sesame'
p1623
I69
sS'while'
p1624
I65
sS'mimosas'
p1625
I69
sS'32'
p1626
I69
sS'fun'
p1627
I65
sS'biking'
p1628
I69
sS'loop'
p1629
I69
sS'pack'
p1630
I69
sS'swim'
p1631
I69
sS'cents'
p1632
I65
sS'ducks'
p1633
I68
sS'demos'
p1634
I69
sS'ready'
p1635
I68
sS'funny'
p1636
I65
sS'shirt'
p1637
I68
sS'anymore'
p1638
I68
sS'seek'
p1639
I69
sS'puig'
p1640
I69
sS'wierd'
p1641
I69
sS'used'
p1642
I69
sS'mountain'
p1643
I69
sS'keys'
p1644
I69
sS'kemp'
p1645
I69
sS'yesterday'
p1646
I66
sS'attempted'
p1647
I69
sS'alert'
p1648
I69
sS'doan'
p1649
I68
sS'moving'
p1650
I69
sS'louis'
p1651
I69
sS'dark'
p1652
I69
sS'nhl14'
p1653
I69
sS'chickens'
p1654
I69
sS'spent'
p1655
I67
sS'picks'
p1656
I69
sS'portillo'
p1657
I69
sS'y'
p1658
I67
sS'amps'
p1659
I69
sS'loveeee'
p1660
I69
sS'listening'
p1661
I67
sS'4th'
p1662
I68
sS'deadmarsh'
p1663
I69
sS'killl'
p1664
I69
sS'balled'
p1665
I69
sS'cup'
p1666
I66
sS'workers'
p1667
I69
sS'cuz'
p1668
I69
sS'rn\xe2\x98\xba\xef\xb8\x8f'
p1669
I69
sS'rangers'
p1670
I69
sS'cue'
p1671
I69
sS'crying'
p1672
I68
sS'"wake'
p1673
I69
sS'snap'
p1674
I69
sS'excited'
p1675
I68
sS'surprised'
p1676
I68
sS'big'
p1677
I66
sS'fremont'
p1678
I68
sS'shitty'
p1679
I69
sS'game'
p1680
I46
sS'knock'
p1681
I69
sS'vday'
p1682
I69
sS'd'
p1683
I69
sS'flappy'
p1684
I67
sS'marrero'
p1685
I69
sS'capitals'
p1686
I69
sS'ignore'
p1687
I69
sS'google'
p1688
I69
sS'fucking'
p1689
I58
sS'\xd8\xb9\xd9\x84\xd9\x89'
p1690
I69
sS'cheerleader'
p1691
I69
sS'some'
p1692
I47
sS'back'
p1693
I46
sS'bounce'
p1694
I69
sS'palm'
p1695
I67
sS'serves'
p1696
I69
sS'sight'
p1697
I69
sS'mirror'
p1698
I69
sS'"cowboys'
p1699
I69
sS'delivered'
p1700
I68
sS'transactions'
p1701
I69
sS'('
p1702
I69
sS'ticking'
p1703
I69
sS'be'
p1704
I30
sS'bf'
p1705
I66
sS'eating'
p1706
I68
sS'rub'
p1707
I68
sS'jumps'
p1708
I69
sS'uuuggghhhh'
p1709
I69
sS'bs'
p1710
I69
sS'crap'
p1711
I67
sS'by'
p1712
I59
sS'faith'
p1713
I68
sS'anything'
p1714
I61
sS'netflix'
p1715
I69
sS'drama'
p1716
I69
sS'idk'
p1717
I67
sS'hatred'
p1718
I69
sS'wanna'
p1719
I47
sS'seeing'
p1720
I65
sS'happ'
p1721
I69
sS'into'
p1722
I63
sS'within'
p1723
I69
sS'nonsense'
p1724
I69
sS'momma'
p1725
I69
sS'because'
p1726
I66
sS'lesson'
p1727
I69
sS'smells'
p1728
I68
sS'katie'
p1729
I69
sS'gaborik'
p1730
I68
sS'ew'
p1731
I69
sS'ca)'
p1732
I61
sS'life..but'
p1733
I69
sS"we're"
p1734
I67
sS'dodgers'
p1735
I68
sS'blow'
p1736
I69
sS'forward'
p1737
I69
sS'bored'
p1738
I67
sS"ex's"
p1739
I69
sS'twitter'
p1740
I69
sS'opens'
p1741
I69
sS'want\xe2\x99\xa1'
p1742
I69
sS'boys'
p1743
I54
sS'link'
p1744
I69
sS'boyz'
p1745
I69
sS'line'
p1746
I66
sS'nutshell'
p1747
I69
sS'posted'
p1748
I69
sS'fries'
p1749
I69
sS'up'
p1750
I23
sS'us'
p1751
I62
sS"tomorrow's"
p1752
I68
sS'uk'
p1753
I68
sS'called'
p1754
I63
sS'shes'
p1755
I69
sS'sort'
p1756
I69
sS'ordered'
p1757
I69
sS'single'
p1758
I67
sS'chat'
p1759
I69
sS'cafe'
p1760
I69
sS'graham'
p1761
I69
sS'rainy'
p1762
I69
sS'is..but'
p1763
I69
sS'riiiight'
p1764
I69
sS'nah'
p1765
I69
sS'backs'
p1766
I69
sS'nick'
p1767
I69
sS'nap'
p1768
I68
sS'points'
p1769
I69
sS'ellen'
p1770
I69
sS'nice'
p1771
I65
sS'tangerine'
p1772
I69
sS'problems'
p1773
I69
sS'lucic'
p1774
I69
sS'helping'
p1775
I69
sS'outs'
p1776
I69
sS'smiled'
p1777
I69
sS'ago'
p1778
I67
sS'8:10'
p1779
I69
sS'lane'
p1780
I69
sS'e'
p1781
I68
sS'napping'
p1782
I69
sS'fresh'
p1783
I63
sS'weights'
p1784
I69
sS'worn'
p1785
I69
sS'far'
p1786
I68
sS"she's"
p1787
I66
sS'having'
p1788
I63
sS'once'
p1789
I67
sS'edc'
p1790
I69
sS'"beat"'
p1791
I69
sS'baby'
p1792
I65
sS'gang'
p1793
I69
sS'go'
p1794
I15
sS'gn'
p1795
I67
sS'gm'
p1796
I69
sS'chillin'
p1797
I69
sS'graves'
p1798
I69
sS'young'
p1799
I68
sS'send'
p1800
I69
sS'helps'
p1801
I68
sS'dislike'
p1802
I69
sS'jinxed'
p1803
I69
sS'(2121'
p1804
I67
sS'wishes'
p1805
I69
sS'putting'
p1806
I69
sS'underscore'
p1807
I69
sS'drinking'
p1808
I68
sS'magic'
p1809
I61
sS'\xd9\x84\xd8\xa7'
p1810
I69
sS'marry'
p1811
I69
sS'michael'
p1812
I67
sS'eve'
p1813
I69
sS'ryan'
p1814
I67
sS'try'
p1815
I67
sS'havent'
p1816
I69
sS'smaller'
p1817
I68
sS'carter'
p1818
I64
sS'waking'
p1819
I69
sS'fold'
p1820
I69
sS'video'
p1821
I69
sS'dreeeeeeeeeeew'
p1822
I69
sS'ummm'
p1823
I69
sS'twitters'
p1824
I69
sS'chicago'
p1825
I69
sS'giving'
p1826
I68
sS'anthem'
p1827
I69
sS'her\xe2\x9d\xa4\xef\xb8\x8f'
p1828
I69
sS'sweaty'
p1829
I69
sS'internship'
p1830
I69
sS'waiting'
p1831
I68
sS'anywhere'
p1832
I69
sS'sis:why'
p1833
I69
sS'bird'
p1834
I67
sS'body'
p1835
I69
sS'alhambra'
p1836
I64
sS'packing'
p1837
I69
sS'let'
p1838
I59
sS'sink'
p1839
I69
sS'others'
p1840
I67
sS'sexy'
p1841
I69
sS'great'
p1842
I61
sS'cera'
p1843
I69
sS'chant'
p1844
I69
sS'30'
p1845
I69
sS'later'
p1846
I69
sS'derby'
p1847
I68
sS'thatt'
p1848
I69
sS'makes'
p1849
I68
sS'delays'
p1850
I69
sS'thats'
p1851
I67
sS'named'
p1852
I69
sS'apple'
p1853
I67
sS'win'
p1854
I65
sS'app'
p1855
I69
sS'333'
p1856
I69
sS'muzzin'
p1857
I68
sS'wit'
p1858
I69
sS'crosby'
p1859
I69
sS'duck'
p1860
I69
sS'manipulate'
p1861
I69
sS'__________'
p1862
I69
sS'use'
p1863
I65
sS'fee'
p1864
I69
sS'from'
p1865
I54
sS'hippie'
p1866
I69
sS'usa'
p1867
I69
sS'&'
p1868
I57
sS'snacks'
p1869
I69
sS'blehh'
p1870
I69
sS'next'
p1871
I58
sS'few'
p1872
I69
sS'scariest'
p1873
I69
sS'jonathan'
p1874
I69
sS'dallas'
p1875
I69
sS'babe'
p1876
I68
sS'stabbing'
p1877
I69
sS'upcoming'
p1878
I69
sS'started'
p1879
I69
sS'impress'
p1880
I69
sS'about'
p1881
I46
sS'frs_86'
p1882
I68
sS'sore'
p1883
I69
sS'penis'
p1884
I68
sS'women'
p1885
I69
sS'salad'
p1886
I69
sS'this'
p1887
I20
sS'challenge'
p1888
I69
sS'saddle'
p1889
I68
sS'misfits'
p1890
I69
sS'oct'
p1891
I69
sS'unreal'
p1892
I69
sS'obvious'
p1893
I69
sS'meet'
p1894
I67
sS'control'
p1895
I67
sS'yoga>>>>'
p1896
I69
sS'do'
p1897
I24
sS'go!!!!im'
p1898
I69
sS'pieces'
p1899
I69
sS'high'
p1900
I64
sS'something'
p1901
I64
sS'sir'
p1902
I67
sS'sit'
p1903
I68
sS'esper'
p1904
I69
sS'responsibilities'
p1905
I69
sS'animal'
p1906
I68
sS'profile'
p1907
I68
sS'watch'
p1908
I59
sS'tied'
p1909
I69
sS'abuse'
p1910
I69
sS'taco'
p1911
I68
sS'autograph'
p1912
I69
sS'realized'
p1913
I69
sS'light'
p1914
I68
sS'-.-t'
p1915
I69
sS'honestly'
p1916
I61
sS'classy'
p1917
I68
sS'move'
p1918
I68
sS"won't"
p1919
I66
sS'looks'
p1920
I66
sS'galaxy'
p1921
I69
sS'bunch'
p1922
I68
sS'perfect'
p1923
I68
sS'helicopters'
p1924
I69
sS'le'
p1925
I68
sS'la'
p1926
I67
sS'[pic]'
p1927
I51
sS'grahm'
p1928
I69
sS'shy'
p1929
I69
sS'ovechkin'
p1930
I69
sS'holiday'
p1931
I69
sS'2012'
p1932
I69
sS'dad'
p1933
I60
sS'crash'
p1934
I69
sS'meh,91801\n448967651398647808,arrijaybabbyy,2014-03-26'
p1935
I69
sS'dam'
p1936
I65
sS'bitch,91801\n461172368065298432,arrijaybabbyy,2014-04-29'
p1937
I69
sS'practice'
p1938
I64
sS'guess'
p1939
I67
sS'cutting'
p1940
I69
sS'kiss'
p1941
I67
sS'hands'
p1942
I68
sS'hi\xe2\x99\xa1'
p1943
I69
sS'day'
p1944
I52
sS'preschool'
p1945
I69
sS'personally'
p1946
I69
sS'gumdrops'
p1947
I69
sS"night's"
p1948
I69
sS'edit'
p1949
I69
sS'billy'
p1950
I69
sS'truth'
p1951
I69
sS'crossing'
p1952
I69
sS"ya'll"
p1953
I69
sS'bueno'
p1954
I69
sS'doing'
p1955
I65
sS'parties'
p1956
I69
sS'jonesy'
p1957
I67
sS'our'
p1958
I60
sS'86'
p1959
I69
sS'witness'
p1960
I69
sS'out'
p1961
I30
sS'matt'
p1962
I69
sS'armor'
p1963
I69
sS'coutry'
p1964
I69
sS'cause'
p1965
I66
sS'red'
p1966
I67
sS'shut'
p1967
I66
sS'o.o'
p1968
I69
sS'bww'
p1969
I69
sS'frank'
p1970
I69
sS'ipod'
p1971
I69
sS'york'
p1972
I69
sS'embarrass'
p1973
I69
sS'craving'
p1974
I67
sS'scary'
p1975
I69
sS'hunny'
p1976
I69
sS'g'
p1977
I69
sS'could'
p1978
I63
sS'times'
p1979
I68
sS'lundqvist'
p1980
I66
sS'serenity'
p1981
I69
sS'lte'
p1982
I69
sS'ommmfffgggggggg'
p1983
I69
sS'marcela'
p1984
I69
sS'justine'
p1985
I69
sS'jesus'
p1986
I69
sS'bitch'
p1987
I65
sS"you're"
p1988
I61
sS'nerves'
p1989
I69
sS'their'
p1990
I60
sS'attack'
p1991
I68
sS'trending'
p1992
I69
sS'final'
p1993
I69
sS'gummy'
p1994
I69
sS'burgers)'
p1995
I69
sS'stomach'
p1996
I68
sS'lot'
p1997
I68
sS'exactly'
p1998
I69
sS'bassist'
p1999
I68
sS'bieber'
p2000
I69
sS'skyrim'
p2001
I69
sS'july'
p2002
I67
sS'cyn'
p2003
I69
sS'loved'
p2004
I66
sS'boring'
p2005
I69
sS'shampoo'
p2006
I69
sS'bed'
p2007
I62
sS'anaheim'
p2008
I67
sS'loves'
p2009
I68
sS'6th'
p2010
I68
sS'fuuuuuuuuck'
p2011
I69
sS'spurs'
p2012
I69
sS'violets'
p2013
I68
sS'cohen'
p2014
I69
sS'\xd9\x82\xd9\x8a\xd9\x85\xd8\xa9'
p2015
I69
sS'comfortable'
p2016
I69
sS'tonight'
p2017
I54
sS'20:03:41.0,34.0953357,-118.15227035,4808.04,ok'
p2018
I69
sS'have'
p2019
I40
sS'need'
p2020
I46
sS'apparently'
p2021
I69
sS'sh*t'
p2022
I69
sS'smallest'
p2023
I69
sS'min'
p2024
I68
sS'jerseys'
p2025
I69
sS'mid'
p2026
I69
sS'arm'
p2027
I69
sS'cuatro'
p2028
I69
sS'which'
p2029
I67
sS'truck'
p2030
I69
sS'asshole'
p2031
I69
sS'uhh'
p2032
I67
sS'whe'
p2033
I69
sS'kelly'
p2034
I69
sS'who'
p2035
I57
sS'mewtwo'
p2036
I68
sS"where's"
p2037
I69
sS'mean....just'
p2038
I69
sS'future'
p2039
I67
sS'why'
p2040
I42
sS'thanksgiving'
p2041
I68
sS'face'
p2042
I67
sS'looked'
p2043
I67
sS"you'll"
p2044
I65
sS'movie'
p2045
I62
sS'brew'
p2046
I69
sS'fact'
p2047
I68
sS'son'
p2048
I67
sS'atmosphere'
p2049
I69
sS'chances'
p2050
I68
sS'text'
p2051
I63
sS'overwhelmed'
p2052
I69
sS'anyway'
p2053
I68
sS'bring'
p2054
I67
sS'manchester'
p2055
I69
sS'bisshh'
p2056
I69
sS'fear'
p2057
I69
sS'pleasee'
p2058
I69
sS'redirect'
p2059
I69
sS'coloring'
p2060
I69
sS'with'
p2061
I16
sS'misjudge'
p2062
I69
sS'should'
p2063
I61
sS"f'it"
p2064
I69
sS'jam'
p2065
I68
sS'notes'
p2066
I69
sS'subway)'
p2067
I67
sS'hope'
p2068
I64
sS'meant'
p2069
I69
sS'kopi'
p2070
I69
sS'means'
p2071
I67
sS'beat'
p2072
I68
sS'dope'
p2073
I69
sS'unbeatable'
p2074
I69
sS'lucky'
p2075
I68
sS'bear'
p2076
I69
sS'mum'
p2077
I69
sS'woooooo'
p2078
I65
sS'ones'
p2079
I63
sS'words'
p2080
I64
sS'richards'
p2081
I63
sS'slapshot'
p2082
I69
sS'chips'
p2083
I69
sS"collabor8's"
p2084
I69
sS'endless'
p2085
I69
sS'h'
p2086
I68
sS'"balloon"'
p2087
I69
sS'married'
p2088
I69
sS'teams'
p2089
I69
sS'intermission'
p2090
I69
sS'stuff'
p2091
I66
sS'she'
p2092
I58
sS'wish'
p2093
I62
sS'grab'
p2094
I69
sS'piss'
p2095
I69
sS'gibson'
p2096
I69
sS'costume'
p2097
I69
sS'national'
p2098
I69
sS'humans'
p2099
I69
sS'lazy'
p2100
I69
sS'walking'
p2101
I69
sS'statue'
p2102
I69
sS'closet'
p2103
I69
sS'has'
p2104
I63
sS'state'
p2105
I69
sS'horrible'
p2106
I69
sS"wife's"
p2107
I69
sS'email'
p2108
I69
sS'pants'
p2109
I68
sS'exam'
p2110
I68
sS'opening'
p2111
I69
sS'dogging'
p2112
I69
sS'job'
p2113
I67
sS'joe'
p2114
I69
sS'spoil'
p2115
I69
sS'problem'
p2116
I69
sS'wait...junior'
p2117
I69
sS'titties'
p2118
I69
sS'figured'
p2119
I69
sS'drum'
p2120
I69
sS'career'
p2121
I69
sS'joke'
p2122
I67
sS'taking'
p2123
I61
sS'ramp'
p2124
I69
sS'drug'
p2125
I68
sS'darryl'
p2126
I69
sS'atleast'
p2127
I69
sS'rodney'
p2128
I69
sS'jersey'
p2129
I64
sS'comment'
p2130
I69
sS'cc'
p2131
I68
sS'tuesday'
p2132
I66
sS'walk'
p2133
I67
sS'denise'
p2134
I69
sS'm15'
p2135
I69
sS'laugh'
p2136
I69
sS'kings'
p2137
I34
sS'winning'
p2138
I69
sS'blink'
p2139
I68
sS'w|'
p2140
I69
sS"it's"
p2141
I27
sS'\xd8\xa5\xd9\x8a\xd9\x85\xd8\xa7\xd9\x86\xd9\x8a\xd8\xa9'
p2142
I69
sS'exhausted'
p2143
I69
sS'treat'
p2144
I69
sS'yak'
p2145
I69
sS'waste'
p2146
I68
sS'bbq'
p2147
I69
sS'>'
p2148
I69
sS'league'
p2149
I69
sS'hmu'
p2150
I68
sS'c'
p2151
I69
sS'hmm'
p2152
I69
sS'finished'
p2153
I68
sS'bull'
p2154
I69
sS'smoking'
p2155
I68
sS'aubree'
p2156
I69
sS'otw'
p2157
I69
sS'bye'
p2158
I69
sS'choices'
p2159
I69
sS'will'
p2160
I57
sS'monrovia'
p2161
I69
sS'gucci'
p2162
I69
sS'(alhambra'
p2163
I61
sS'hahaha'
p2164
I69
sS'wild'
p2165
I68
sS'ringing'
p2166
I69
sS'almost'
p2167
I66
sS'demo'
p2168
I69
sS'refs'
p2169
I66
sS'hicks'
p2170
I69
sS'vs'
p2171
I69
sS'ave'
p2172
I66
sS"23:37:43.0,34.09757446,-118.14905986,4808.04,it's"
p2173
I69
sS'balloon'
p2174
I69
sS'administration'
p2175
I69
sS'cross'
p2176
I69
sS'when'
p2177
I32
sS'pickin'
p2178
I69
sS'party'
p2179
I65
sS'gets'
p2180
I67
sS'\xd8\xb9\xd9\x85\xd9\x8a\xd9\x82\xd8\xa9'
p2181
I69
sS'slava'
p2182
I68
sS'ball'
p2183
I67
sS'drink'
p2184
I62
sS'effect'
p2185
I69
sS'romeo'
p2186
I69
sS'beast'
p2187
I69
sS'fucken'
p2188
I65
sS'introduce'
p2189
I69
sS'sisters'
p2190
I68
sS'pull'
p2191
I68
sS'//'
p2192
I69
sS'paycheck'
p2193
I69
sS'off'
p2194
I45
sS'center'
p2195
I69
sS'i'
p2196
I1
sS'well'
p2197
I56
sS'thought'
p2198
I65
sS'collin'
p2199
I69
sS'ily'
p2200
I68
sS'soviet'
p2201
I69
sS'coaster'
p2202
I69
sS'lameee'
p2203
I69
sS'angels"'
p2204
I69
sS'futurama'
p2205
I69
sS'40'
p2206
I69
sS'announcers'
p2207
I69
sS'titty'
p2208
I68
sS'field'
p2209
I69
sS'point'
p2210
I69
sS'realize'
p2211
I68
sS'ohhh'
p2212
I69
sS'jars'
p2213
I69
sS'earthquakes'
p2214
I69
sS'kick'
p2215
I69
sS'sonic'
p2216
I69
sS'ampegs'
p2217
I69
sS"who's"
p2218
I68
sS'cashed'
p2219
I69
sS'dryer'
p2220
I69
sS'5am'
p2221
I69
sS'know'
p2222
I41
sS'sephora'
p2223
I69
sS'turbulence'
p2224
I68
sS'store)'
p2225
I67
sS'like'
p2226
I22
sS'lost'
p2227
I68
sS'tryouts'
p2228
I69
sS'loser'
p2229
I69
sS'garage'
p2230
I69
sS'become'
p2231
I68
sS'humans.\xe2\x80\x9d'
p2232
I69
sS'nigga'
p2233
I67
sS'scared'
p2234
I68
sS'hair'
p2235
I67
sS'goaltender'
p2236
I69
sS'home'
p2237
I59
sS'literally'
p2238
I68
sS'does'
p2239
I68
sS'smyth'
p2240
I69
sS'loss\xe2\x9c\x8b'
p2241
I69
sS'conference'
p2242
I69
sS'noise'
p2243
I69
sS'schedule'
p2244
I69
sS'pre-wedding'
p2245
I69
sS'monetary'
p2246
I69
sS'slut'
p2247
I69
sS'worthy'
p2248
I69
sS'oiler'
p2249
I69
sS'\xd9\x85\xd9\x86'
p2250
I68
sS'sister'
p2251
I66
sS'justin'
p2252
I68
sS'getting'
p2253
I55
sS'shaking'
p2254
I69
sS'sakes'
p2255
I69
sS'swear'
p2256
I64
sS'cranberry'
p2257
I69
sS'own'
p2258
I67
sS'screamed'
p2259
I69
sS'playoff'
p2260
I66
sS'now"'
p2261
I69
sS'whos'
p2262
I69
sS'meeee'
p2263
I68
sS'rushed'
p2264
I69
sS'yaaaaaas'
p2265
I69
sS'cinderella'
p2266
I69
sS'overtime'
p2267
I68
sS'maze'
p2268
I69
sS'goin'
p2269
I69
sS'buy'
p2270
I63
sS'north'
p2271
I69
sS"i've"
p2272
I61
sS'shane'
p2273
I68
sS'coke'
p2274
I69
sS'bitches'
p2275
I69
sS'but'
p2276
I29
sS'hi'
p2277
I68
sS'courts'
p2278
I69
sS'bum'
p2279
I69
sS'highest'
p2280
I69
sS'eat'
p2281
I64
sS'he'
p2282
I52
sS'made'
p2283
I66
sS'hitter'
p2284
I69
sS'dangerous'
p2285
I68
sS"friends...they're"
p2286
I69
sS'record'
p2287
I68
sS'..yesss'
p2288
I69
sS'(:<'
p2289
I69
sS'faggot'
p2290
I69
sS'canucks'
p2291
I69
sS'minutes'
p2292
I69
sS'skating'
p2293
I69
sS'pic'
p2294
I68
sS'pie'
p2295
I68
sS',91801\n474696599155638272,arrijaybabbyy,2014-06-05'
p2296
I69
sS'happen'
p2297
I65
sS'diego'
p2298
I68
sS'spell'
p2299
I69
sS'contest'
p2300
I69
sS":'("
p2301
I69
sS'guitarist'
p2302
I67
sS'\xd9\x88\xd9\x84\xd8\xa7'
p2303
I69
sS'arri'
p2304
I69
sS'other'
p2305
I57
sS'special'
p2306
I69
sS'sick'
p2307
I66
sS'7/11'
p2308
I69
sS'cheesiest'
p2309
I69
sS'junk'
p2310
I69
sS'repeat'
p2311
I69
sS'star'
p2312
I69
sS'monday'
p2313
I67
sS'shredded'
p2314
I69
sS'class'
p2315
I69
sS'june'
p2316
I69
sS'stay'
p2317
I66
sS'chance'
p2318
I69
sS'stab'
p2319
I69
sS'kinda'
p2320
I66
sS'nintendo'
p2321
I69
sS'badass'
p2322
I69
sS'friends'
p2323
I63
sS'dolphins'
p2324
I69
sS'laundromat'
p2325
I69
sS'rule'
p2326
I69
sS'guessett'
p2327
I69
sS'amanda'
p2328
I69
sS'write'
p2329
I69
sS'understand'
p2330
I69
sS'"the'
p2331
I69
s.