(dp0
S''
p1
I9
sS'all'
p2
I36
sS':('
p3
I38
sS':)'
p4
I38
sS"he's"
p5
I38
sS"sushi'"
p6
I38
sS'four'
p7
I37
sS'received'
p8
I38
sS'honored'
p9
I38
sS'classic'
p10
I38
sS'asian'
p11
I33
sS'hanging'
p12
I38
sS'go'
p13
I37
sS'lacy'
p14
I38
sS':0'
p15
I38
sS'skid'
p16
I37
sS'row'
p17
I37
sS'votes'
p18
I38
sS'from\xe2\x80\xa6'
p19
I38
sS'everything'
p20
I38
sS'tv'
p21
I38
sS'father'
p22
I37
sS'young'
p23
I38
sS'thursday'
p24
I36
sS'passage'
p25
I38
sS'to'
p26
I5
sS'finally'
p27
I35
sS'program'
p28
I38
sS'those'
p29
I38
sS'lord'
p30
I38
sS'worth'
p31
I38
sS'sent'
p32
I33
sS'(17.9'
p33
I38
sS'woman'
p34
I38
sS'very'
p35
I37
sS'automotive'
p36
I34
sS'checkin'
p37
I38
sS'internet'
p38
I38
sS'frapp'
p39
I38
sS'712'
p40
I38
sS'fat'
p41
I38
sS'every'
p42
I36
sS'fall'
p43
I38
sS'word'
p44
I37
sS'trouble'
p45
I38
sS'noms'
p46
I38
sS'bryant'
p47
I38
sS'room'
p48
I38
sS'bestfriend'
p49
I38
sS'did'
p50
I38
sS'family-work-lunch'
p51
I38
sS'tre'
p52
I38
sS'brother'
p53
I32
sS'try'
p54
I38
sS'(proverbs'
p55
I38
sS'race'
p56
I28
sS'phase'
p57
I38
sS'red'
p58
I38
sS'car'
p59
I38
sS'quick'
p60
I34
sS'fuuuck'
p61
I38
sS'guy'
p62
I37
sS'heading'
p63
I37
sS'joey'
p64
I38
sS'enjoy'
p65
I37
sS'pork'
p66
I38
sS'bed\xe2\x80\xa6'
p67
I38
sS'porn'
p68
I38
sS'corvette'
p69
I38
sS'tea'
p70
I38
sS'freakin'
p71
I38
sS'an\xe2\x80\xa6'
p72
I38
sS'sign'
p73
I38
sS'nail'
p74
I38
sS'street'
p75
I38
sS'video'
p76
I37
sS'booth'
p77
I37
sS'perfect'
p78
I38
sS'nbc'
p79
I38
sS'impersonating'
p80
I38
sS'shining'
p81
I38
sS'even'
p82
I36
sS'cleaning\xe2\x80\xa6'
p83
I38
sS'what'
p84
I30
sS'with\xe2\x80\xa6'
p85
I38
sS'tartare'
p86
I38
sS'heman'
p87
I38
sS'wallet'
p88
I38
sS'decisions'
p89
I38
sS'sum'
p90
I38
sS'brief'
p91
I38
sS'current'
p92
I38
sS'waiting'
p93
I38
sS'new'
p94
I24
sS'ever'
p95
I36
sS'public'
p96
I37
sS'told'
p97
I38
sS'body'
p98
I38
sS'ratchet'
p99
I38
sS'full'
p100
I38
sS'led'
p101
I33
sS'warrior'
p102
I38
sS'never'
p103
I36
sS'commercial'
p104
I37
sS'here'
p105
I32
sS'met'
p106
I38
sS'slow'
p107
I38
sS'let'
p108
I38
sS'healing'
p109
I38
sS'others'
p110
I38
sS'consideration'
p111
I38
sS'weiland'
p112
I38
sS'teacher'
p113
I38
sS'wait'
p114
I36
sS'great'
p115
I35
sS'bible'
p116
I19
sS'metro'
p117
I38
sS'george.one'
p118
I38
sS'study'
p119
I19
sS'lakers'
p120
I38
sS'geno'
p121
I38
sS'airport'
p122
I38
sS"i'd"
p123
I38
sS'heartbreaker'
p124
I38
sS'bob'
p125
I36
sS'king'
p126
I38
sS'via'
p127
I38
sS'love'
p128
I34
sS'although'
p129
I38
sS'family'
p130
I37
sS'"men"'
p131
I38
sS'win'
p132
I38
sS'.\xe2\x80\xa6'
p133
I38
sS'imagine'
p134
I38
sS'awesomeness'
p135
I38
sS'descala'
p136
I38
sS'by\xe2\x80\xa6'
p137
I38
sS'names'
p138
I38
sS'fake'
p139
I38
sS'apply'
p140
I38
sS'total'
p141
I38
sS'singing'
p142
I38
sS'crisis'
p143
I38
sS'market'
p144
I38
sS'from'
p145
I31
sS'takes'
p146
I38
sS'would'
p147
I35
sS'&'
p148
I37
sS'live'
p149
I38
sS'dude'
p150
I37
sS'two'
p151
I38
sS'cho'
p152
I37
sS'few'
p153
I38
sS'ca)'
p154
I32
sS'camera'
p155
I38
sS'call'
p156
I37
sS'6'
p157
I37
sS'tell'
p158
I37
sS'today'
p159
I36
sS'more'
p160
I37
sS'teen'
p161
I38
sS'almost'
p162
I38
sS'sharing'
p163
I36
sS'door'
p164
I38
sS'knows'
p165
I36
sS'relax'
p166
I38
sS'freestyle'
p167
I36
sS"didn't"
p168
I38
sS'haha'
p169
I36
sS'sister'
p170
I37
sS'site'
p171
I38
sS'phone'
p172
I36
sS'ceviche'
p173
I38
sS'94th'
p174
I38
sS'central'
p175
I38
sS'w/george'
p176
I38
sS'podcast'
p177
I38
sS'yelling'
p178
I38
sS'me'
p179
I18
sS'dimas'
p180
I38
sS'join'
p181
I37
sS'edible'
p182
I37
sS'hour'
p183
I37
sS'this'
p184
I17
sS'gabriel'
p185
I7
sS'ride'
p186
I38
sS'work'
p187
I36
sS'soul'
p188
I38
sS'movies'
p189
I37
sS'del'
p190
I37
sS'can'
p191
I34
sS'graceland'
p192
I38
sS'flare'
p193
I38
sS'peteyx'
p194
I38
sS'making'
p195
I38
sS'drops'
p196
I38
sS'my'
p197
I3
sS'could'
p198
I38
sS'dropped'
p199
I38
sS'beautiful'
p200
I38
sS'heart'
p201
I36
sS'engines)'
p202
I10
sS'wana'
p203
I38
sS'reserved'
p204
I38
sS'wang'
p205
I37
sS'give'
p206
I37
sS'process'
p207
I38
sS'lock'
p208
I38
sS'awesome'
p209
I38
sS'jeremy\xe2\x80\xa6'
p210
I38
sS'share'
p211
I37
sS'fuck'
p212
I35
sS'days'
p213
I38
sS'high'
p214
I38
sS'homie'
p215
I38
sS'something'
p216
I36
sS'want'
p217
I37
sS'station'
p218
I38
sS'keep'
p219
I37
sS'skated'
p220
I38
sS'comes'
p221
I38
sS'needs'
p222
I38
sS'united'
p223
I38
sS'end'
p224
I38
sS'ministries'
p225
I38
sS'mens'
p226
I38
sS'bunk'
p227
I38
sS'watching'
p228
I36
sS'stayed'
p229
I38
sS'arrangement'
p230
I38
sS'1'
p231
I32
sS'the\xe2\x80\xa6'
p232
I37
sS'sunday'
p233
I36
sS'interview'
p234
I38
sS'comedy'
p235
I38
sS'stock'
p236
I38
sS'mar'
p237
I37
sS'laundry'
p238
I38
sS'w'
p239
I38
sS'beauty'
p240
I38
sS'capture'
p241
I38
sS'bday'
p242
I38
sS'watch'
p243
I38
sS'after'
p244
I35
sS'different'
p245
I37
sS'collection'
p246
I38
sS'freely'
p247
I38
sS'birthday'
p248
I38
sS'lax'
p249
I38
sS'mad'
p250
I37
sS'taco'
p251
I38
sS'date'
p252
I38
sS'shehawks'
p253
I38
sS'truly'
p254
I38
sS'guys'
p255
I37
sS'..\xe2\x80\xa6'
p256
I38
sS'man'
p257
I37
sS'a'
p258
I12
sS'ireneshoe'
p259
I38
sS'realized'
p260
I38
sS'remember'
p261
I38
sS'grandson'
p262
I38
sS'light'
p263
I37
sS'sit'
p264
I38
sS'appreciate'
p265
I38
sS'st'
p266
I37
sS'mark'
p267
I38
sS'si'
p268
I38
sS'maintain'
p269
I38
sS'so'
p270
I25
sS'jungle'
p271
I37
sS'enter'
p272
I38
sS'putting'
p273
I37
sS'playing'
p274
I35
sS'(518'
p275
I37
sS"that's"
p276
I36
sS'cute'
p277
I38
sS'boxing'
p278
I38
sS'played'
p279
I38
sS"don't"
p280
I37
sS'over'
p281
I36
sS'move'
p282
I38
sS'5:30am'
p283
I38
sS'soon'
p284
I37
sS'years'
p285
I35
sS'brain'
p286
I35
sS'benton\xe2\x80\xa6'
p287
I38
sS'ticket'
p288
I38
sS'count'
p289
I38
sS'left'
p290
I38
sS'hell'
p291
I37
sS'still'
p292
I38
sS'mayor'
p293
I37
sS'before'
p294
I35
sS'industries'
p295
I37
sS'lounge'
p296
I38
sS'thank'
p297
I38
sS'23'
p298
I36
sS'somewhere'
p299
I38
sS'interesting'
p300
I38
sS'fix'
p301
I38
sS'torn'
p302
I38
sS'hot'
p303
I34
sS'crew'
p304
I37
sS'better'
p305
I36
sS'bouquet'
p306
I38
sS'call.\xe2\x80\xa6'
p307
I38
sS'peek.in'
p308
I38
sS'ima'
p309
I38
sS'bout'
p310
I38
sS'cool'
p311
I38
sS'defining'
p312
I37
sS'selfie'
p313
I36
sS'texas'
p314
I38
sS'happened'
p315
I38
sS'dad'
p316
I37
sS'then'
p317
I36
sS'them'
p318
I36
sS'good'
p319
I33
sS'tiffanypersons\xe2\x80\xa6'
p320
I38
sS'food'
p321
I33
sS'auto'
p322
I38
sS'practice'
p323
I38
sS'nation'
p324
I38
sS'bane'
p325
I38
sS'lunch'
p326
I38
sS'.what'
p327
I38
sS'hurting'
p328
I38
sS'diamondtex'
p329
I37
sS'they'
p330
I36
sS'not'
p331
I28
sS'now'
p332
I34
sS'day'
p333
I36
sS'bank'
p334
I36
sS'shopped'
p335
I38
sS'gets'
p336
I38
sS'realist'
p337
I38
sS'sundays'
p338
I36
sS'always'
p339
I35
sS'debut'
p340
I35
sS'filling'
p341
I38
sS'stopped'
p342
I38
sS'25'
p343
I38
sS'roast'
p344
I38
sS'found'
p345
I37
sS'went'
p346
I38
sS'lesson.\xe2\x80\x9d'
p347
I38
sS'side'
p348
I37
sS"isn't"
p349
I35
sS'mean'
p350
I38
sS'haiiiiiiiiiiiii'
p351
I38
sS'ankles'
p352
I38
sS'everyone'
p353
I37
sS'guests'
p354
I38
sS'eh'
p355
I38
sS'doing'
p356
I37
sS'ed'
p357
I37
sS'energy'
p358
I38
sS'yeah'
p359
I37
sS'celebrating'
p360
I38
sS'wattup'
p361
I38
sS'year'
p362
I36
sS'happen'
p363
I38
sS'marley'
p364
I38
sS'saturday'
p365
I37
sS'special'
p366
I38
sS'out'
p367
I35
sS'haircut'
p368
I38
sS'living'
p369
I37
sS'and\xe2\x80\xa6'
p370
I38
sS'missed'
p371
I38
sS'driving'
p372
I38
sS'house'
p373
I38
sS'quality'
p374
I38
sS'since'
p375
I38
sS'truth'
p376
I38
sS'george'
p377
I38
sS'looking'
p378
I36
sS'mess'
p379
I38
sS'seriously'
p380
I38
sS'jooo'
p381
I38
sS'kent'
p382
I38
sS'smh'
p383
I38
sS'got'
p384
I35
sS'rn'
p385
I37
sS'cause'
p386
I37
sS'math'
p387
I38
sS'common'
p388
I37
sS'ass'
p389
I37
sS'website'
p390
I38
sS'granddaughter'
p391
I38
sS'cutest'
p392
I38
sS"doesn't"
p393
I37
sS'scumbag'
p394
I38
sS'friday'
p395
I37
sS'guess'
p396
I38
sS'backer'
p397
I38
sS'sneak'
p398
I38
sS'campaigns'
p399
I38
sS'small'
p400
I38
sS'reason'
p401
I38
sS'jennie'
p402
I38
sS'california'
p403
I37
sS'york'
p404
I38
sS'grapes'
p405
I38
sS'too.\xe2\x80\xa6'
p406
I38
sS'put'
p407
I38
sS'beginning'
p408
I38
sS'craving'
p409
I36
sS'shot'
p410
I38
sS'guest'
p411
I38
sS'repairing'
p412
I38
sS'g'
p413
I38
sS'prophet'
p414
I38
sS'atl'
p415
I36
sS'messages'
p416
I38
sS'sitcom'
p417
I37
sS'times'
p418
I37
sS'chevy'
p419
I38
sS'thing'
p420
I37
sS'mardabarber05'
p421
I38
sS'shred'
p422
I38
sS'place'
p423
I36
sS"today's"
p424
I38
sS'swing'
p425
I38
sS'arrived'
p426
I38
sS'(at'
p427
I37
sS'think'
p428
I38
sS'first'
p429
I30
sS'feed'
p430
I38
sS'sanchez'
p431
I38
sS'major'
p432
I37
sS'already'
p433
I37
sS'changing'
p434
I38
sS'dont'
p435
I37
sS'feel'
p436
I37
sS'powerful'
p437
I38
sS'one'
p438
I29
sS'feet'
p439
I38
sS'fucked'
p440
I38
sS'spinning'
p441
I38
sS'kfc'
p442
I34
sS'another'
p443
I36
sS'copped'
p444
I38
sS'owner'
p445
I38
sS'kobe'
p446
I38
sS'sounds'
p447
I37
sS'miss'
p448
I37
sS'tomorrow'
p449
I37
sS'city'
p450
I37
sS'little'
p451
I36
sS'toy'
p452
I37
sS'boardersarcadia\xe2\x80\xa6'
p453
I38
sS'service'
p454
I37
sS'mccoys\xe2\x80\xa6'
p455
I38
sS'skimped'
p456
I38
sS'tired'
p457
I38
sS'girls'
p458
I37
sS'anyone'
p459
I38
sS'their'
p460
I37
sS'2'
p461
I37
sS'too'
p462
I35
sS'saint'
p463
I38
sS'hollywood'
p464
I38
sS'lol'
p465
I31
sS'bits'
p466
I37
sS'challenge'
p467
I38
sS'friend'
p468
I32
sS'low'
p469
I38
sS'eyes'
p470
I38
sS'mercenary'
p471
I38
sS'passed'
p472
I38
sS'that'
p473
I26
sS'gym'
p474
I36
sS'park'
p475
I37
sS'part'
p476
I33
sS'milbrae'
p477
I38
sS'kept'
p478
I38
sS'twinsis'
p479
I38
sS'copy'
p480
I38
sS'than'
p481
I37
sS'begins'
p482
I38
sS'past'
p483
I38
sS'television'
p484
I38
sS'john'
p485
I34
sS'podcasting'
p486
I38
sS'headahe'
p487
I38
sS'gotta'
p488
I38
sS'aliveeeeee'
p489
I38
sS'dogs'
p490
I38
sS'you\xe2\x80\xa6'
p491
I38
sS'store'
p492
I37
sS'steez'
p493
I38
sS'were'
p494
I38
sS'gives'
p495
I38
sS'ousted'
p496
I37
sS'and'
p497
I14
sS'deciding'
p498
I38
sS'liqour'
p499
I38
sS'san'
p500
I11
sS'stomping'
p501
I38
sS'alongside'
p502
I37
sS'mind'
p503
I38
sS'mine'
p504
I38
sS'tonight'
p505
I36
sS'\xee\x90\x95'
p506
I38
sS'say'
p507
I34
sS'graffiti'
p508
I37
sS'alike'
p509
I38
sS'have'
p510
I27
sS'need'
p511
I34
sS'seen'
p512
I37
sS'mins'
p513
I38
sS'guarding'
p514
I38
sS'venturing'
p515
I38
sS'wcw'
p516
I37
sS'congrats'
p517
I38
sS'trip'
p518
I38
sS'storage'
p519
I38
sS'-'
p520
I35
sS'take'
p521
I36
sS'which'
p522
I38
sS'laughed'
p523
I38
sS'finding'
p524
I38
sS'el_casa'
p525
I38
sS'korean'
p526
I38
sS'completed'
p527
I37
sS'momgoing'
p528
I38
sS'play'
p529
I37
sS'thumb'
p530
I38
sS'though'
p531
I37
sS'who'
p532
I32
sS"where's"
p533
I37
sS'visitors'
p534
I38
sS'cracking'
p535
I38
sS'nothing'
p536
I37
sS'america'
p537
I35
sS'sally'
p538
I38
sS'why'
p539
I36
sS'fair'
p540
I38
sS'icon'
p541
I38
sS'old\xe2\x98\xba\xef\xb8\x8f'
p542
I38
sS'altadena'
p543
I38
sS'especially'
p544
I38
sS'vneck'
p545
I38
sS'gabriel)'
p546
I14
sS'm'
p547
I38
sS'drive'
p548
I38
sS"ballin'"
p549
I38
sS'hallmark\xe2\x80\xa6'
p550
I38
sS'travels\xe2\x80\xa6'
p551
I38
sS'prettier'
p552
I38
sS'carpooling'
p553
I38
sS'hoboken'
p554
I38
sS"i'll\xe2\x80\xa6"
p555
I38
sS'away'
p556
I38
sS'came'
p557
I38
sS'joining'
p558
I38
sS'shop'
p559
I27
sS'stoner'
p560
I38
sS'walking'
p561
I38
sS'bomb'
p562
I38
sS'cruiser'
p563
I38
sS'show'
p564
I33
sS'forward"'
p565
I38
sS'revamping'
p566
I38
sS'session'
p567
I38
sS'sneaking'
p568
I38
sS'jared'
p569
I38
sS'darkest'
p570
I38
sS'duck'
p571
I38
sS'aint'
p572
I38
sS'loo!\xe2\x80\x9d'
p573
I38
sS'busy'
p574
I36
sS'hotrod'
p575
I38
sS'inspiration'
p576
I38
sS'91776'
p577
I37
sS'hills'
p578
I38
sS'true'
p579
I38
sS'ruin'
p580
I38
sS'deck'
p581
I38
sS'bestfriends'
p582
I38
sS'wieland'
p583
I36
sS'to\xe2\x80\xa6'
p584
I37
sS'being'
p585
I38
sS'only'
p586
I35
sS'going'
p587
I30
sS'black'
p588
I38
sS'california)'
p589
I37
sS'riding'
p590
I38
sS'circle'
p591
I38
sS'\xe2\x99\xa1'
p592
I38
sS'local'
p593
I38
sS'do'
p594
I32
sS'his'
p595
I36
sS'hit'
p596
I36
sS'asians'
p597
I38
sS'get'
p598
I32
sS'petco'
p599
I38
sS'dragster'
p600
I38
sS'stop'
p601
I34
sS'coast'
p602
I37
sS'allen'
p603
I38
sS'feels'
p604
I37
sS'ones'
p605
I38
sS'watermelon'
p606
I38
sS'preparing'
p607
I38
sS'hairhc\xe2\x80\xa6'
p608
I38
sS'during'
p609
I37
sS'nasty'
p610
I38
sS'kong'
p611
I38
sS'dr'
p612
I33
sS'him'
p613
I36
sS'freaking'
p614
I38
sS'world\xe2\x80\xa6'
p615
I38
sS'girl'
p616
I38
sS'racing'
p617
I8
sS'cry'
p618
I38
sS'rapper'
p619
I36
sS'morning'
p620
I34
sS'jokes'
p621
I38
sS'bad'
p622
I38
sS'stuff'
p623
I36
sS'she'
p624
I32
sS'quickie'
p625
I38
sS'steak'
p626
I38
sS'where'
p627
I38
sS'xmas'
p628
I38
sS'ears'
p629
I37
sS"y'all"
p630
I38
sS'gout'
p631
I38
sS'set'
p632
I38
sS'art'
p633
I38
sS'espn'
p634
I38
sS'prayers'
p635
I37
sS'w/'
p636
I36
sS"i'll"
p637
I38
sS'testing'
p638
I38
sS'vine'
p639
I38
sS'316'
p640
I38
sS'lot'
p641
I38
sS'gangster'
p642
I38
sS'see'
p643
I36
sS'decided'
p644
I37
sS'asleep'
p645
I38
sS'are'
p646
I35
sS'sea'
p647
I37
sS'barf'
p648
I38
sS'suffers'
p649
I38
sS'best'
p650
I37
sS'definitely'
p651
I38
sS'nickslobin'
p652
I38
sS'papi'
p653
I38
sS'said'
p654
I37
sS'closet'
p655
I38
sS'visiting'
p656
I37
sS'ways'
p657
I38
sS'pictures'
p658
I37
sS'wow'
p659
I38
sS'nbc\xe2\x80\xa6'
p660
I38
sS'please'
p661
I38
sS'whyyyyyyy'
p662
I38
sS'worship'
p663
I38
sS'grandmother'
p664
I38
sS'outside'
p665
I38
sS"there's"
p666
I38
sS'hopefully'
p667
I37
sS'probably'
p668
I38
sS'moving'
p669
I38
sS'mono'
p670
I38
sS'ekop215'
p671
I38
sS'pants'
p672
I38
sS'jarren'
p673
I37
sS'we'
p674
I34
sS'loose'
p675
I38
sS'mom.at'
p676
I38
sS'creating'
p677
I38
sS'era'
p678
I38
sS'..cholo'
p679
I38
sS'supermarket'
p680
I38
sS'jerome\xe2\x80\xa6'
p681
I38
sS'wtf'
p682
I37
sS'effed'
p683
I38
sS'gauntlet'
p684
I38
sS'janeen'
p685
I38
sS'come'
p686
I38
sS'lopez'
p687
I38
sS'pissed'
p688
I38
sS'david'
p689
I38
sS'jaren'
p690
I38
sS'both'
p691
I38
sS'dates'
p692
I37
sS'feeling'
p693
I38
sS'last'
p694
I33
sS'restaurant'
p695
I36
sS'career'
p696
I37
sS'many'
p697
I38
sS'taking'
p698
I38
sS'"guys'
p699
I38
sS'quiet'
p700
I38
sS'players'
p701
I38
sS'games'
p702
I38
sS'ppg)'
p703
I38
sS'drugs'
p704
I38
sS"can't"
p705
I37
sS'grounds'
p706
I38
sS'finallyyy\xee\x90\xa7\xee\x90\x9f\xee\x90\x9f'
p707
I38
sS'childhood'
p708
I38
sS"kute'cousin"
p709
I38
sS'afternoon'
p710
I38
sS'jeff'
p711
I38
sS'ca'
p712
I34
sS'annoucnement'
p713
I37
sS'likes'
p714
I38
sS'sexy'
p715
I38
sS'mom.starting'
p716
I38
sS'sammy'
p717
I21
sS'[pic]'
p718
I10
sS'mission'
p719
I38
sS'picking'
p720
I38
sS'shanking'
p721
I38
sS'now\xe2\x80\x9d'
p722
I38
sS'bathroom'
p723
I38
sS'pt'
p724
I37
sS'stretch'
p725
I38
sS"it's"
p726
I36
sS'tgif'
p727
I38
sS'roossiiee_'
p728
I38
sS'ya'
p729
I38
sS'been'
p730
I37
sS'\xe5\x9b\x9b\xe6\xb5\xb7\xe6\x97\xa9\xe9\xbb\x9e'
p731
I37
sS'dropping'
p732
I37
sS'treat'
p733
I38
sS'las'
p734
I33
sS'tweeeeeeet'
p735
I38
sS'billionaires'
p736
I38
sS'extreme'
p737
I37
sS'engine'
p738
I37
sS'life'
p739
I32
sS'i\xe2\x80\xa6'
p740
I37
sS'flight'
p741
I38
sS'spit'
p742
I38
sS'wyb_magazine'
p743
I38
sS'robbed'
p744
I38
sS'blessing'
p745
I38
sS'else'
p746
I37
sS'finished'
p747
I38
sS'kids'
p748
I38
sS'catch'
p749
I38
sS'*reads'
p750
I38
sS'irrelevant'
p751
I38
sS'weeks'
p752
I38
sS'present'
p753
I38
sS'chill'
p754
I38
sS'dash'
p755
I38
sS'myself'
p756
I38
sS'east'
p757
I37
sS'crizmike'
p758
I38
sS'look'
p759
I36
sS'talking'
p760
I38
sS'these'
p761
I37
sS'straight'
p762
I37
sS'tunas'
p763
I33
sS'times\xe2\x80\xa6'
p764
I38
sS'n'
p765
I37
sS'will'
p766
I36
sS'quiz'
p767
I38
sS'while'
p768
I36
sS'alejandrothegreat123'
p769
I38
sS'cannot'
p770
I38
sS'mmmmhmmmmmmmmm'
p771
I38
sS'fun'
p772
I34
sS'k'
p773
I38
sS'chilling'
p774
I38
sS'~'
p775
I38
sS'ringing'
p776
I38
sS'pickup'
p777
I38
sS'wesss'
p778
I38
sS'is'
p779
I23
sS'it'
p780
I29
sS'tease'
p781
I38
sS'baaatch'
p782
I38
sS'cant'
p783
I38
sS'someone'
p784
I35
sS'im'
p785
I36
sS'in'
p786
I18
sS'ready'
p787
I37
sS'ave'
p788
I35
sS'if'
p789
I35
sS'funny'
p790
I36
sS'hong'
p791
I37
sS'az'
p792
I38
sS'thrones'
p793
I38
sS'anymore'
p794
I38
sS'pay'
p795
I38
sS'make'
p796
I32
sS'10:30'
p797
I38
sS'0'
p798
I38
sS'same'
p799
I37
sS'check'
p800
I38
sS'moms'
p801
I38
sS'stimulated'
p802
I38
sS'stuntman'
p803
I38
sS'party'
p804
I38
sS'several'
p805
I38
sS'week'
p806
I37
sS'updated'
p807
I38
sS'hang'
p808
I36
sS'moment'
p809
I36
sS'fridays'
p810
I37
sS'barber'
p811
I36
sS'still\xe2\x80\xa6'
p812
I38
sS'redneck'
p813
I37
sS'sisters'
p814
I35
sS'maserati'
p815
I38
sS"i'm"
p816
I6
sS'wheres'
p817
I38
sS'frozen'
p818
I38
sS'tracking'
p819
I37
sS'off'
p820
I35
sS"this.it's"
p821
I38
sS'i'
p822
I16
sS'well'
p823
I35
sS'1971'
p824
I38
sS'thought'
p825
I38
sS'without'
p826
I38
sS'youtube\xe2\x80\xa6'
p827
I38
sS'wyb'
p828
I38
sS'traffic'
p829
I38
sS'the'
p830
I1
sS'my\xe2\x80\xa6'
p831
I37
sS'tha'
p832
I38
sS'latest'
p833
I38
sS'yei'
p834
I38
sS'nails)'
p835
I38
sS'newest'
p836
I37
sS'/^0^\\'
p837
I38
sS'just'
p838
I28
sS'moments'
p839
I37
sS'photo'
p840
I37
sS'prompt'
p841
I38
sS'sleepy'
p842
I38
sS'vietnamese-inspired'
p843
I38
sS'thanks'
p844
I34
sS'seats'
p845
I38
sS'gona'
p846
I38
sS'souper'
p847
I36
sS'lacing'
p848
I38
sS'begin'
p849
I36
sS'hai'
p850
I38
sS'cut'
p851
I38
sS'clark'
p852
I38
sS'nick'
p853
I38
sS'disappointed'
p854
I38
sS'ease'
p855
I38
sS'had'
p856
I33
sS'rosa'
p857
I38
sS'bench'
p858
I37
sS'kimberly'
p859
I38
sS'lets'
p860
I38
sS'spread'
p861
I38
sS'parents'
p862
I38
sS'homies'
p863
I36
sS'role'
p864
I37
sS'cum'
p865
I38
sS'has'
p866
I37
sS'hoooooty'
p867
I38
sS'real'
p868
I36
sS'wil'
p869
I38
sS'around'
p870
I38
sS'me\xe2\x80\xa6'
p871
I38
sS'vanessa'
p872
I38
sS'couple'
p873
I38
sS'psa'
p874
I37
sS'mancave'
p875
I38
sS'possible'
p876
I38
sS'game'
p877
I36
sS'five'
p878
I38
sS'know'
p879
I32
sS'mom'
p880
I33
sS'stunt'
p881
I38
sS'bit'
p882
I38
sS'feelings'
p883
I38
sS'lady'
p884
I37
sS'ninjas'
p885
I38
sS'like'
p886
I35
sS'should'
p887
I38
sS'message'
p888
I38
sS'shabu'
p889
I36
sS":'d"
p890
I38
sS"benton's"
p891
I37
sS'gangsters'
p892
I38
sS'\xe2\x9d\x81'
p893
I38
sS't'
p894
I38
sS'night'
p895
I34
sS'moral'
p896
I38
sS'mr'
p897
I38
sS'travie'
p898
I38
sS'ligament'
p899
I38
sS'poor'
p900
I38
sS'right'
p901
I35
sS'old'
p902
I35
sS'people'
p903
I35
sS'fucking'
p904
I37
sS'fathers'
p905
I38
sS'toys'
p906
I38
sS'some'
p907
I37
sS'back'
p908
I36
sS'oh'
p909
I37
sS'hair'
p910
I37
sS'eddie'
p911
I38
sS'hoooooo'
p912
I38
sS'home'
p913
I37
sS'el_casa)'
p914
I38
sS'doorstep'
p915
I38
sS'someone\xe2\x80\xa6'
p916
I38
sS'happens'
p917
I38
sS'congratulate'
p918
I38
sS':-i'
p919
I38
sS'friend(-'
p920
I38
sS'for'
p921
I20
sS'remind'
p922
I38
sS'music\xe2\x80\xa6'
p923
I38
sS'a\xe2\x80\xa6'
p924
I37
sS'mannyezzy'
p925
I37
sS'moon'
p926
I38
sS'rooming'
p927
I38
sS'filming'
p928
I38
sS'does'
p929
I38
sS':-|'
p930
I38
sS'happend'
p931
I38
sS'dating'
p932
I38
sS'quickly)'
p933
I38
sS'either'
p934
I38
sS'be'
p935
I25
sS'poets'
p936
I38
sS'run'
p937
I38
sS'ba'
p938
I37
sS'bb'
p939
I38
sS'lmfao'
p940
I38
sS'(102'
p941
I37
sS'broker'
p942
I38
sS'happening'
p943
I38
sS'speak'
p944
I38
sS'how'
p945
I36
sS'nowhere'
p946
I38
sS'starring'
p947
I37
sS'throwback'
p948
I37
sS'eye'
p949
I38
sS'exciting'
p950
I38
sS'super'
p951
I38
sS'by'
p952
I31
sS'stage'
p953
I36
sS'chapter'
p954
I38
sS'on'
p955
I22
sS'about'
p956
I33
sS'843'
p957
I38
sS'working'
p958
I35
sS'anything'
p959
I37
sS'getting'
p960
I35
sS'of'
p961
I16
sS'completing'
p962
I38
sS'favorite'
p963
I37
sS'shrimp'
p964
I38
sS'chop'
p965
I38
sS'magazine'
p966
I36
sS'idk'
p967
I38
sS'wanna'
p968
I38
sS'or'
p969
I37
sS'ida'
p970
I38
sS'chulo'
p971
I38
sS'seeing'
p972
I37
sS'omgggggggg'
p973
I38
sS'prompt*'
p974
I38
sS'burial'
p975
I38
sS'wasting'
p976
I38
sS'visit'
p977
I37
sS'into'
p978
I36
sS'soo'
p979
I38
sS'neutrality'
p980
I38
sS'because'
p981
I38
sS'rising'
p982
I36
sS'yas'
p983
I38
sS'national'
p984
I38
sS'heated'
p985
I38
sS'magazine.\xe2\x80\xa6'
p986
I38
sS'actually'
p987
I37
sS'blesses'
p988
I38
sS'quickly'
p989
I34
sS'forget'
p990
I38
sS'your'
p991
I29
sS'story'
p992
I38
sS'oc'
p993
I38
sS'her'
p994
I36
sS'area'
p995
I38
sS'spending'
p996
I38
sS'weekend'
p997
I38
sS'there'
p998
I35
sS'hey'
p999
I36
sS'long'
p1000
I37
sS'desert'
p1001
I38
sS'start'
p1002
I38
sS'much'
p1003
I38
sS'winning'
p1004
I38
sS'sheets\xe2\x98\x81\xef\xb8\x8f'
p1005
I38
sS'way'
p1006
I31
sS'blow'
p1007
I38
sS'forward'
p1008
I36
sS'music'
p1009
I38
sS'bored'
p1010
I38
sS'was'
p1011
I31
sS'scared'
p1012
I38
sS'happy'
p1013
I34
sS'buy'
p1014
I38
sS'complete'
p1015
I38
sS"i've"
p1016
I38
sS'bus'
p1017
I38
sS'bitches'
p1018
I38
sS'pastor'
p1019
I38
sS'but'
p1020
I35
sS'volume'
p1021
I36
sS'hi'
p1022
I38
sS'shabu)'
p1023
I38
sS'brownies'
p1024
I38
sS'liquor'
p1025
I38
sS'sick'
p1026
I38
sS'ahhh'
p1027
I38
sS'line'
p1028
I38
sS'trying'
p1029
I38
sS'with'
p1030
I15
sS'he'
p1031
I37
sS'directed'
p1032
I38
sS'atari\xe2\x80\xa6'
p1033
I38
sS'throw'
p1034
I38
sS'made'
p1035
I37
sS'places'
p1036
I38
sS'wish'
p1037
I37
sS'up'
p1038
I31
sS'us'
p1039
I32
sS'freddy'
p1040
I38
sS'dirty'
p1041
I37
sS'boardersarcadia'
p1042
I37
sS'acting'
p1043
I38
sS'similar'
p1044
I38
sS'called'
p1045
I37
sS'penal'
p1046
I38
sS'skating'
p1047
I38
sS'on\xe2\x80\xa6'
p1048
I38
sS'proud'
p1049
I38
sS'ad'
p1050
I34
sS'doppleganger'
p1051
I38
sS'fans'
p1052
I38
sS'exhausted'
p1053
I38
sS'minutes'
p1054
I38
sS'pic'
p1055
I38
sS'am'
p1056
I35
sS'mike'
p1057
I38
sS'an'
p1058
I37
sS'as'
p1059
I29
sS'at'
p1060
I2
sS'watched'
p1061
I38
sS'awhile'
p1062
I38
sS'cafe'
p1063
I37
sS'pit'
p1064
I38
sS'portland'
p1065
I38
sS'shit'
p1066
I36
sS"dungeon's"
p1067
I38
sS'engines'
p1068
I37
sS'yoga'
p1069
I37
sS'fellowship'
p1070
I38
sS'no'
p1071
I33
sS'44'
p1072
I38
sS'when'
p1073
I34
sS'reality'
p1074
I38
sS'maloof'
p1075
I4
sS'started'
p1076
I38
sS'nap'
p1077
I38
sS'//es.pn/1eb7lai'
p1078
I38
sS'5'
p1079
I37
sS'lifestyle'
p1080
I38
sS'tits'
p1081
I38
sS'cevuk00)'
p1082
I38
sS'test'
p1083
I38
sS'you'
p1084
I21
sS'really'
p1085
I37
sS'smell'
p1086
I38
sS"you're"
p1087
I38
sS'22:9'
p1088
I38
sS'lance'
p1089
I38
sS'rt'
p1090
I38
sS'la'
p1091
I38
sS'brothers'
p1092
I35
sS'tfti'
p1093
I38
sS'af'
p1094
I38
sS'crime'
p1095
I38
sS'welcome'
p1096
I38
sS'problems'
p1097
I38
sS'aris1214'
p1098
I38
sS'william'
p1099
I37
sS'alright'
p1100
I38
sS'podcastshow'
p1101
I38
sS'birds'
p1102
I38
sS'friends'
p1103
I35
sS'finals'
p1104
I38
sS'babysitting'
p1105
I37
sS'ago'
p1106
I38
sS'voting'
p1107
I38
sS'e'
p1108
I34
sS'yess'
p1109
I38
sS'values'
p1110
I38
sS'(san'
p1111
I13
sS'percentage'
p1112
I38
sS'youtube'
p1113
I37
sS'earthquake'
p1114
I38
sS'together'
p1115
I38
sS'having'
p1116
I38
sS'seeing\xe2\x80\xa6'
p1117
I38
sS'gorilla'
p1118
I38
sS'fresh'
p1119
I38
sS'u'
p1120
I37
sS"we're"
p1121
I38
sS'time'
p1122
I34
sS'eeewwww'
p1123
I38
sS"ain't"
p1124
I38
sS'hello'
p1125
I36
s.