(dp0
S''
p1
I1
sS'edc'
p2
I26
sS'all'
p3
I16
sS'diss'
p4
I26
sS'jason'
p5
I26
sS':)'
p6
I20
sS'chinese'
p7
I26
sS'beware'
p8
I24
sS"wendy's"
p9
I26
sS'baby'
p10
I25
sS':/'
p11
I26
sS'sleep'
p12
I26
sS'boo'
p13
I26
sS'go'
p14
I22
sS'bomb'
p15
I26
sS'hate'
p16
I20
sS'woooow'
p17
I26
sS'hold'
p18
I26
sS'referring'
p19
I26
sS'tweet'
p20
I26
sS'tu'
p21
I26
sS'obamacare'
p22
I26
sS'to'
p23
I3
sS'finally'
p24
I24
sS'lmaoo'
p25
I26
sS'homosexual/heterosexual'
p26
I26
sS'smile'
p27
I26
sS'sorry'
p28
I25
sS'sent'
p29
I26
sS'chainz'
p30
I26
sS'uploaded'
p31
I26
sS'me'
p32
I10
sS'wished'
p33
I26
sS'hahahah'
p34
I26
sS'far'
p35
I25
sS'smh'
p36
I26
sS'mpk'
p37
I26
sS'selfies'
p38
I26
sS'vegas'
p39
I23
sS'every'
p40
I26
sS'fam'
p41
I26
sS'fab'
p42
I26
sS'bringing'
p43
I26
sS'cool'
p44
I26
sS'school'
p45
I23
sS'heaven'
p46
I26
sS'clouds'
p47
I26
sS'prize'
p48
I26
sS'did'
p49
I25
sS'die'
p50
I26
sS'crab>>>'
p51
I26
sS'hanashima'
p52
I26
sS'try'
p53
I26
sS'sand'
p54
I26
sS'shit"'
p55
I26
sS'quick'
p56
I24
sS'guy'
p57
I26
sS'mo'
p58
I26
sS"it'll"
p59
I26
sS"i'll"
p60
I26
sS'cookies'
p61
I26
sS'talked'
p62
I26
sS'tired'
p63
I25
sS'awake'
p64
I26
sS'murderd'
p65
I26
sS'consistent'
p66
I26
sS'saglit'
p67
I26
sS'bf'
p68
I26
sS'second'
p69
I26
sS'street'
p70
I24
sS'video'
p71
I26
sS'corner'
p72
I26
sS'seshh'
p73
I26
sS'kidnap'
p74
I26
sS'goofyz'
p75
I26
sS'even'
p76
I22
sS'admire'
p77
I26
sS'what'
p78
I16
sS'kus'
p79
I26
sS'fingers'
p80
I26
sS'fuckn'
p81
I26
sS'seconds'
p82
I26
sS'goes'
p83
I26
sS'new'
p84
I24
sS'ever'
p85
I25
sS'cressida'
p86
I26
sS'told'
p87
I25
sS'body'
p88
I26
sS'niiiceee'
p89
I26
sS'consistant'
p90
I26
sS'pancakes'
p91
I26
sS'never'
p92
I23
sS'alhambra'
p93
I25
sS'here'
p94
I25
sS'bldg'
p95
I26
sS'luiz'
p96
I26
sS'met'
p97
I26
sS'unclipped'
p98
I26
sS'redskins'
p99
I26
sS'active'
p100
I26
sS'camrey'
p101
I26
sS'100'
p102
I26
sS'strong'
p103
I26
sS'change'
p104
I25
sS'wait'
p105
I25
sS'boy'
p106
I25
sS'great'
p107
I26
sS'teeth'
p108
I26
sS'brilliant'
p109
I26
sS'spontaneous'
p110
I26
sS'leaves'
p111
I26
sS'usps'
p112
I26
sS'lakers'
p113
I26
sS'pics'
p114
I26
sS'boi'
p115
I26
sS'ako'
p116
I25
sS'fwy'
p117
I26
sS'90%'
p118
I25
sS"would've"
p119
I26
sS"i'm"
p120
I4
sS'makes'
p121
I26
sS'pillow'
p122
I26
sS'thats'
p123
I26
sS'golden'
p124
I25
sS'love'
p125
I17
sS'manderzz'
p126
I26
sS'family'
p127
I25
sS'extra'
p128
I26
sS'win'
p129
I23
sS'grandma'
p130
I26
sS'grubbing'
p131
I26
sS'feelings'
p132
I26
sS'patience'
p133
I26
sS'name\xe2\x80\x9d'
p134
I26
sS'gosh'
p135
I26
sS'yourself'
p136
I26
sS'use'
p137
I25
sS'from'
p138
I22
sS'ridding'
p139
I26
sS'&'
p140
I18
sS'hospital'
p141
I25
sS'played'
p142
I26
sS'cho'
p143
I26
sS'ca)'
p144
I8
sS'jam'
p145
I26
sS'music'
p146
I26
sS'iphone'
p147
I26
sS'joints'
p148
I26
sS'injury'
p149
I26
sS'type'
p150
I26
sS'start'
p151
I26
sS'today'
p152
I22
sS'more'
p153
I26
sS'separated'
p154
I26
sS'clever'
p155
I26
sS'abrams'
p156
I26
sS'started'
p157
I26
sS'haha'
p158
I25
sS'sister'
p159
I25
sS'chocolate'
p160
I26
sS'balesco'
p161
I24
sS'holding'
p162
I26
sS'train'
p163
I26
sS"ain't"
p164
I24
sS'stick'
p165
I26
sS'broke'
p166
I26
sS'sequoia'
p167
I25
sS'saben'
p168
I26
sS'doom'
p169
I26
sS'women'
p170
I26
sS'amazingggggggggggggg'
p171
I26
sS'christmas'
p172
I26
sS'none'
p173
I26
sS'word'
p174
I24
sS'room'
p175
I26
sS'announcing'
p176
I26
sS'niggas'
p177
I26
sS'this'
p178
I13
sS'car'
p179
I24
sS'ride'
p180
I26
sS'work'
p181
I19
sS'sucks'
p182
I26
sS'mall'
p183
I26
sS'can'
p184
I25
sS'v'
p185
I26
sS'my'
p186
I7
sS'fuckinng'
p187
I26
sS'history'
p188
I26
sS'beautiful'
p189
I26
sS'overpass'
p190
I25
sS'crazy'
p191
I25
sS'speciality'
p192
I26
sS'monica'
p193
I26
sS'december'
p194
I26
sS'skype'
p195
I26
sS"didn't"
p196
I26
sS'fuck'
p197
I24
sS'high'
p198
I24
sS'heard'
p199
I26
sS'stroke'
p200
I26
sS'homie'
p201
I26
sS'posing'
p202
I26
sS'something'
p203
I25
sS'want'
p204
I17
sS'wow'
p205
I26
sS'station'
p206
I25
sS'keep'
p207
I26
sS'guarantee'
p208
I26
sS'information'
p209
I26
sS'obamawhen'
p210
I26
sS'awkward'
p211
I26
sS'busy'
p212
I26
sS'hongkong'
p213
I26
sS'watching'
p214
I25
sS'pine'
p215
I26
sS'write'
p216
I26
sS'how'
p217
I25
sS'amazing'
p218
I24
sS'instead'
p219
I26
sS'beach'
p220
I26
sS'staying'
p221
I26
sS'flirting'
p222
I26
sS'w'
p223
I25
sS'begging'
p224
I26
sS'after'
p225
I25
sS'long'
p226
I26
sS'ball'
p227
I26
sS'applications'
p228
I26
sS'wrong'
p229
I26
sS'birthday'
p230
I25
sS'lay'
p231
I26
sS'such'
p232
I26
sS'guys'
p233
I26
sS'excited'
p234
I26
sS'man'
p235
I26
sS'a'
p236
I6
sS'tbh'
p237
I26
sS'6th'
p238
I24
sS'su'
p239
I26
sS'q'
p240
I26
sS'chief'
p241
I26
sS'ego'
p242
I26
sS'pay'
p243
I26
sS'pleasure'
p244
I26
sS'sa'
p245
I26
sS'make'
p246
I25
sS'talk'
p247
I24
sS"that's"
p248
I24
sS'cute'
p249
I24
sS'naman'
p250
I26
sS"don't"
p251
I14
sS'food'
p252
I26
sS'over'
p253
I25
sS'fall'
p254
I26
sS'soon'
p255
I25
sS'idgi'
p256
I26
sS"won't"
p257
I24
sS'looks'
p258
I25
sS'cold'
p259
I26
sS'still'
p260
I26
sS'its'
p261
I25
sS'before'
p262
I26
sS'24'
p263
I23
sS'needa'
p264
I26
sS'26'
p265
I26
sS'la'
p266
I20
sS'chosen'
p267
I26
sS'actually'
p268
I26
sS'late'
p269
I25
sS'what\xe2\x80\xa6'
p270
I26
sS'coaching'
p271
I26
sS'degrees'
p272
I26
sS'skyline'
p273
I26
sS"haven't"
p274
I26
sS'then'
p275
I25
sS'them'
p276
I25
sS'good'
p277
I21
sS'yo'
p278
I25
sS'moms'
p279
I26
sS'workout'
p280
I26
sS'practice'
p281
I26
sS'break'
p282
I26
sS'225lb'
p283
I26
sS'moaning'
p284
I26
sS"you've"
p285
I26
sS'they'
p286
I21
sS'not'
p287
I22
sS'now'
p288
I19
sS'bullshit'
p289
I25
sS'association'
p290
I26
sS'easily'
p291
I26
sS'name'
p292
I25
sS'always'
p293
I22
sS'untuk'
p294
I26
sS'dirty"'
p295
I26
sS'fitness'
p296
I26
sS'found'
p297
I26
sS'pal'
p298
I26
sS"isn't"
p299
I26
sS'reset'
p300
I26
sS'studios'
p301
I26
sS'everyone'
p302
I26
sS'covina'
p303
I26
sS'snakes'
p304
I26
sS'doing'
p305
I26
sS'house'
p306
I26
sS'tiffany'
p307
I26
sS'hard'
p308
I25
sS'yess'
p309
I26
sS'yeah'
p310
I25
sS'vote'
p311
I26
sS'primas'
p312
I26
sS'prabowo'
p313
I26
sS'bruce'
p314
I26
sS'expect'
p315
I26
sS'forgot'
p316
I25
sS'our'
p317
I25
sS'girl'
p318
I25
sS'24\xe2\x80\xa6'
p319
I26
sS'out'
p320
I22
sS'album'
p321
I26
sS'missed'
p322
I26
sS'driving'
p323
I26
sS'god'
p324
I25
sS'vibes'
p325
I26
sS'mason'
p326
I26
sS'bae'
p327
I26
sS'kaguluhan'
p328
I26
sS'got'
p329
I19
sS'rn'
p330
I24
sS'cause'
p331
I23
sS'correct'
p332
I26
sS'gos'
p333
I26
sS'ass'
p334
I23
sS'shut'
p335
I26
sS'city'
p336
I26
sS'hang'
p337
I26
sS'friday'
p338
I26
sS'fave'
p339
I26
sS'little'
p340
I22
sS'free'
p341
I26
sS'quite'
p342
I26
sS'freestyle'
p343
I26
sS'small'
p344
I26
sS'reason'
p345
I26
sS'struggle'
p346
I26
sS'imagine'
p347
I26
sS'put'
p348
I26
sS'wanted'
p349
I25
sS'teknologi'
p350
I26
sS'fcop'
p351
I26
sS'drowning'
p352
I26
sS'steak'
p353
I26
sS'benefits'
p354
I26
sS'g'
p355
I26
sS'yup'
p356
I26
sS'could'
p357
I26
sS"mom's"
p358
I26
sS'cago'
p359
I26
sS'days'
p360
I24
sS'david'
p361
I26
sS'thing'
p362
I26
sS'heck'
p363
I26
sS'place'
p364
I25
sS"today's"
p365
I25
sS'swing'
p366
I26
sS'taha'
p367
I26
sS'dis'
p368
I26
sS'(at'
p369
I25
sS'think'
p370
I25
sS'silver'
p371
I26
sS'first'
p372
I26
sS'already'
p373
I26
sS'dont'
p374
I25
sS'feel'
p375
I25
sS'hoop'
p376
I25
sS'number'
p377
I26
sS'one'
p378
I23
sS'feet'
p379
I26
sS'done'
p380
I24
sS'bitch'
p381
I22
sS'colombia'
p382
I26
sS'gatherings'
p383
I26
sS'kobe'
p384
I26
sS'sounds'
p385
I26
sS'miss'
p386
I22
sS'tomorrow'
p387
I25
sS"you're"
p388
I24
sS'guess'
p389
I25
sS'"0"'
p390
I25
sS'sadly'
p391
I26
sS'silent'
p392
I26
sS'efforts'
p393
I26
sS'caught'
p394
I26
sS'slept'
p395
I26
sS'girls'
p396
I26
sS'least'
p397
I25
sS'euphoria'
p398
I26
sS'anyone'
p399
I26
sS'2'
p400
I25
sS'too'
p401
I24
sS'mama'
p402
I26
sS'john'
p403
I26
sS'williams'
p404
I26
sS'toe'
p405
I26
sS'urban'
p406
I26
sS'eyes'
p407
I26
sS'stars'
p408
I26
sS'relationship'
p409
I25
sS'that'
p410
I15
sS'dtla'
p411
I26
sS'gym'
p412
I26
sS'jamie'
p413
I26
sS'park'
p414
I26
sS'took'
p415
I26
sS'boba'
p416
I25
sS'kurangi'
p417
I26
sS'cops'
p418
I26
sS'part'
p419
I26
sS'grandpa'
p420
I25
sS'"talk'
p421
I26
sS'wardrobe'
p422
I26
sS'believe'
p423
I25
sS'gotchu'
p424
I26
sS'obama'
p425
I25
sS'"good'
p426
I26
sS'10'
p427
I23
sS'kind'
p428
I26
sS'b'
p429
I26
sS'15'
p430
I25
sS'lmao'
p431
I25
sS'gotta'
p432
I25
sS'instruction'
p433
I26
sS'tree'
p434
I26
sS'likely'
p435
I26
sS'roberts'
p436
I26
sS'fitness)'
p437
I25
sS'express'
p438
I26
sS'yoshi'
p439
I26
sS'expo'
p440
I26
sS'supposed'
p441
I26
sS'were'
p442
I26
sS'cards'
p443
I26
sS'werk'
p444
I26
sS'feeling'
p445
I25
sS'and'
p446
I10
sS'bridge'
p447
I24
sS'anisas'
p448
I26
sS'mind'
p449
I25
sS'sad'
p450
I24
sS'tonight'
p451
I23
sS'woah'
p452
I25
sS'say'
p453
I23
sS'comedian'
p454
I26
sS'have'
p455
I17
sS'cleaned'
p456
I26
sS'need'
p457
I25
sS'fuuuckkkk'
p458
I26
sS'saw'
p459
I26
sS'worst'
p460
I26
sS'karl'
p461
I26
sS'sell'
p462
I26
sS'afraid'
p463
I26
sS'mostly'
p464
I26
sS'drunk'
p465
I26
sS'dancing'
p466
I26
sS'-'
p467
I26
sS'ideas'
p468
I26
sS'parks'
p469
I26
sS'bff'
p470
I26
sS'take'
p471
I22
sS'which'
p472
I26
sS'removed'
p473
I26
sS'so'
p474
I12
sS'mis'
p475
I26
sS'='
p476
I26
sS'sirius'
p477
I26
sS'reelection'
p478
I26
sS'klose'
p479
I26
sS'play'
p480
I22
sS'sure'
p481
I26
sS'pain'
p482
I26
sS'wooow'
p483
I26
sS'aww'
p484
I26
sS'eggs'
p485
I26
sS'who'
p486
I25
sS'sadlyi'
p487
I26
sS'2tired2drive'
p488
I26
sS'5am'
p489
I26
sS'boiling'
p490
I26
sS'plan'
p491
I26
sS'nothing'
p492
I24
sS'accepting'
p493
I26
sS'why'
p494
I18
sS'swim-'
p495
I26
sS'grove'
p496
I26
sS'alarm'
p497
I26
sS'sometimes'
p498
I25
sS'hungry'
p499
I26
sS'freeway'
p500
I24
sS"you'll"
p501
I24
sS'se'
p502
I26
sS'hear'
p503
I26
sS'cabrona'
p504
I26
sS'annoyed'
p505
I25
sS'came'
p506
I25
sS'son'
p507
I26
sS'saying'
p508
I26
sS'ugh'
p509
I25
sS'rich/poor'
p510
I26
sS'kaskade'
p511
I26
sS'text'
p512
I25
sS'random'
p513
I25
sS'python'
p514
I26
sS'watch'
p515
I25
sS'bring'
p516
I26
sS'woyyy'
p517
I26
sS'earth'
p518
I26
sS'count'
p519
I26
sS'slow'
p520
I26
sS'noah'
p521
I25
sS'woop'
p522
I26
sS'justice'
p523
I26
sS'with'
p524
I13
sS'wut'
p525
I26
sS'universal'
p526
I26
sS'rihanna'
p527
I26
sS'yea'
p528
I26
sS'going'
p529
I21
sS'black'
p530
I26
sS'pretty'
p531
I26
sS'photo'
p532
I26
sS'he'
p533
I22
sS'hope'
p534
I22
sS'do'
p535
I15
sS'proud'
p536
I26
sS'his'
p537
I26
sS'get'
p538
I15
sS'de'
p539
I25
sS'stop'
p540
I24
sS'grocery'
p541
I26
sS'minority/majority'
p542
I26
sS'pop2k'
p543
I26
sS'feels'
p544
I25
sS'longest'
p545
I26
sS'during'
p546
I25
sS'workouts'
p547
I26
sS'him'
p548
I26
sS'freaking'
p549
I26
sS'round1'
p550
I26
sS'lovaa'
p551
I26
sS'racing'
p552
I26
sS'cry'
p553
I26
sS'ughh'
p554
I26
sS'i-10'
p555
I26
sS'morning'
p556
I26
sS'bad'
p557
I23
sS'stuff'
p558
I26
sS'she'
p559
I26
sS'worries'
p560
I26
sS'through'
p561
I26
sS'gospel'
p562
I26
sS'sux'
p563
I26
sS'where'
p564
I25
sS"y'all"
p565
I25
sS'learn'
p566
I26
sS'mandatory'
p567
I26
sS'w/'
p568
I22
sS'national'
p569
I25
sS'notice'
p570
I26
sS'timeeee'
p571
I26
sS'see'
p572
I23
sS'defense'
p573
I26
sS'asleep'
p574
I26
sS'are'
p575
I24
sS'hoes'
p576
I25
sS'nocturnal'
p577
I26
sS'best'
p578
I23
sS'brazil'
p579
I26
sS'ambie'
p580
I26
sS'said'
p581
I26
sS'golazo'
p582
I26
sS'camping'
p583
I26
sS'matter'
p584
I26
sS'crooked'
p585
I26
sS'movie'
p586
I26
sS'away'
p587
I24
sS'currently'
p588
I26
sS'please'
p589
I26
sS'lachsa'
p590
I26
sS'label'
p591
I26
sS'"oh'
p592
I26
sS'props'
p593
I26
sS'derulo'
p594
I26
sS'frustrated'
p595
I26
sS'perfect'
p596
I25
sS'we'
p597
I24
sS'omg'
p598
I24
sS'rock'
p599
I26
sS'trekking'
p600
I26
sS'killing'
p601
I25
sS'job'
p602
I25
sS'jj'
p603
I26
sS'jk'
p604
I26
sS'deadlift\xe2\x80\xa6'
p605
I26
sS'cousin'
p606
I26
sS'precious'
p607
I26
sS'lyin'
p608
I26
sS'woop!\xe2\x80\x9d'
p609
I26
sS'last'
p610
I24
sS'\xe2\x9d\xa4\xef\xb8\x8f'
p611
I26
sS'fault'
p612
I26
sS'taking'
p613
I25
sS"he's"
p614
I25
sS'oh'
p615
I26
sS'called'
p616
I26
sS'april'
p617
I26
sS'faces'
p618
I26
sS'yeeee'
p619
I26
sS'\xe2\x9c\x8a'
p620
I26
sS'andrewbanuelos'
p621
I26
sS"can't"
p622
I19
sS'faggots'
p623
I26
sS'hehehe'
p624
I26
sS'point'
p625
I26
sS'color'
p626
I26
sS'ganna'
p627
I26
sS'por'
p628
I26
sS'2nd'
p629
I26
sS'running'
p630
I26
sS'canyon'
p631
I24
sS'likes'
p632
I26
sS'laugh'
p633
I26
sS'church'
p634
I26
sS"ano'ng"
p635
I26
sS'kings'
p636
I26
sS'winning'
p637
I26
sS'picking'
p638
I26
sS'gayroom'
p639
I26
sS'better'
p640
I26
sS'most'
p641
I26
sS'family\xe2\x9d\xa4\xef\xb8\x8f'
p642
I26
sS'mikes'
p643
I26
sS"it's"
p644
I20
sS'hoe'
p645
I26
sS'mikey'
p646
I24
sS'cared'
p647
I26
sS'much'
p648
I24
sS'damn'
p649
I25
sS'sesh'
p650
I25
sS'tallest'
p651
I26
sS'bullshittin'
p652
I26
sS'qu\xc3\xa9'
p653
I26
sS'630'
p654
I26
sS'life'
p655
I23
sS'shopping'
p656
I23
sS"what're"
p657
I26
sS'spit'
p658
I26
sS'else'
p659
I26
sS'silences'
p660
I26
sS'illuminate'
p661
I26
sS'lives'
p662
I26
sS'-.-'
p663
I26
sS'limelight'
p664
I26
sS'aqui'
p665
I26
sS'pangan'
p666
I26
sS'east'
p667
I25
sS'look'
p668
I25
sS'these'
p669
I23
sS'straight'
p670
I26
sS'casi'
p671
I26
sS'single'
p672
I26
sS'act'
p673
I26
sS'will'
p674
I21
sS'while'
p675
I25
sS'eaton'
p676
I25
sS'(alhambra'
p677
I8
sS'joke'
p678
I26
sS'fun'
p679
I25
sS'wake'
p680
I26
sS'pack'
p681
I26
sS'1iota'
p682
I26
sS'almost'
p683
I25
sS'is'
p684
I9
sS'it'
p685
I11
sS'helped'
p686
I26
sS'player'
p687
I26
sS'someone'
p688
I24
sS'im'
p689
I24
sS'in'
p690
I10
sS'loosing'
p691
I26
sS'id'
p692
I25
sS'ig'
p693
I26
sS'if'
p694
I18
sS'funny'
p695
I26
sS'different'
p696
I25
sS'denial'
p697
I26
sS'because'
p698
I26
sS'anymore'
p699
I25
sS'nike'
p700
I26
sS'things'
p701
I25
sS'juan'
p702
I25
sS'belong'
p703
I26
sS'cross'
p704
I26
sS'unite'
p705
I26
sS'trip'
p706
I24
sS'ya'
p707
I26
sS'another'
p708
I26
sS'followers'
p709
I26
sS'metrolink'
p710
I26
sS'9'
p711
I26
sS'gets'
p712
I26
sS'dayne'
p713
I26
sS'used'
p714
I26
sS'screenshot'
p715
I26
sS'blue'
p716
I26
sS'ima'
p717
I26
sS'weed'
p718
I26
sS'cheers'
p719
I26
sS'moment'
p720
I25
sS'moving'
p721
I26
sS'nightmare'
p722
I26
sS'pedal'
p723
I26
sS'totally'
p724
I26
sS'understand'
p725
I26
sS'kid'
p726
I26
sS'//'
p727
I26
sS'off'
p728
I23
sS'older'
p729
I26
sS'i'
p730
I2
sS'whole'
p731
I26
sS'youre'
p732
I26
sS'well'
p733
I26
sS'bless\xe2\x9d\xa4'
p734
I26
sS'fever'
p735
I26
sS'tho'
p736
I26
sS'oops'
p737
I26
sS'very'
p738
I26
sS'hahahahahaha'
p739
I26
sS'the'
p740
I5
sS'bumping'
p741
I26
sS'nah'
p742
I26
sS'summer'
p743
I26
sS'\xe2\x98\xba\xef\xb8\x8f'
p744
I25
sS'just'
p745
I14
sS'being'
p746
I21
sS'money'
p747
I26
sS'and.complaints'
p748
I26
sS'sleepy'
p749
I26
sS'disguise'
p750
I26
sS'kill'
p751
I25
sS'thanks'
p752
I26
sS'yes'
p753
I26
sS'yet'
p754
I24
sS'blow'
p755
I26
sS'cup'
p756
I26
sS'buses'
p757
I26
sS'had'
p758
I19
sS'day'
p759
I23
sS'16d'
p760
I26
sS'lets'
p761
I26
sS'n'
p762
I26
sS'parents'
p763
I26
sS'4'
p764
I26
sS'crying'
p765
I25
sS'huhuhuhu'
p766
I26
sS'jars'
p767
I26
sS'has'
p768
I24
sS'hat'
p769
I26
sS'nga'
p770
I26
sS'smart'
p771
I26
sS'real'
p772
I24
sS'manage'
p773
I26
sS'calmate'
p774
I26
sS'around'
p775
I26
sS'casually'
p776
I26
sS'checking'
p777
I26
sS'breaks'
p778
I25
sS'gonna'
p779
I24
sS'game'
p780
I24
sS'boost'
p781
I26
sS'traffic'
p782
I25
sS'know'
p783
I22
sS'mom'
p784
I23
sS'wanting'
p785
I26
sS'judge'
p786
I26
sS'world'
p787
I26
sS'meat'
p788
I26
sS'gifs'
p789
I26
sS'harusnya'
p790
I26
sS'necessary'
p791
I26
sS'like'
p792
I14
sS'-_-'
p793
I26
sS'hahahahah'
p794
I26
sS'honestly'
p795
I26
sS'miracle'
p796
I26
sS'lesgo'
p797
I26
sS'heart'
p798
I25
sS'sissy'
p799
I26
sS'either'
p800
I26
sS'night'
p801
I24
sS'become'
p802
I26
sS'word!!!"'
p803
I26
sS'greenwood'
p804
I26
sS'nigga'
p805
I25
sS'old'
p806
I26
sS'dimitri'
p807
I26
sS'people'
p808
I21
sS'fucking'
p809
I24
sS'twitter'
p810
I25
sS'poi'
p811
I26
sS'some'
p812
I21
sS'back'
p813
I24
sS'greeting'
p814
I26
sS'hair'
p815
I26
sS'0-100'
p816
I26
sS'home'
p817
I21
sS'theyre'
p818
I26
sS'specific'
p819
I26
sS'friend'
p820
I26
sS'phoenix'
p821
I26
sS'for'
p822
I16
sS'frees'
p823
I26
sS'literally'
p824
I25
sS'a\xe2\x80\xa6'
p825
I26
sS'/'
p826
I26
sS'moon'
p827
I25
sS'everything'
p828
I24
sS'does'
p829
I25
sS'('
p830
I26
sS'pee'
p831
I26
sS'kemiskinan'
p832
I26
sS'be'
p833
I15
sS'999k'
p834
I26
sS'eating'
p835
I25
sS'business'
p836
I26
sS'schedule'
p837
I26
sS'lmfao'
p838
I24
sS'itching'
p839
I26
sS'each'
p840
I26
sS'confidence'
p841
I26
sS'carats'
p842
I26
sS'broken'
p843
I26
sS'santa'
p844
I26
sS'pertanian'
p845
I26
sS'losing'
p846
I26
sS';)'
p847
I25
sS'by'
p848
I18
sS'gained'
p849
I26
sS'on'
p850
I13
sS'about'
p851
I24
sS'getting'
p852
I24
sS'of'
p853
I15
sS'mommy'
p854
I26
sS'favorite'
p855
I25
sS'boyfriend'
p856
I26
sS'headed'
p857
I26
sS'shrimp'
p858
I26
sS'dinner'
p859
I26
sS'swear'
p860
I25
sS'idk'
p861
I26
sS'stoked'
p862
I26
sS'west'
p863
I25
sS':-3'
p864
I26
sS'cockblock'
p865
I26
sS'wanna'
p866
I23
sS'or'
p867
I22
sS'block'
p868
I26
sS'seeing'
p869
I26
sS'own'
p870
I26
sS'letters'
p871
I26
sS'lied'
p872
I26
sS'nawala'
p873
I26
sS'selfie'
p874
I25
sS'bound'
p875
I25
sS'three'
p876
I26
sS'down'
p877
I25
sS'freshman'
p878
I26
sS'right'
p879
I25
sS'been'
p880
I20
sS'subtweet'
p881
I26
sS'legitimized'
p882
I26
sS'easy'
p883
I26
sS'lebron'
p884
I26
sS'your'
p885
I16
sS'smells'
p886
I26
sS'annabele'
p887
I26
sS'neymar'
p888
I26
sS'her'
p889
I23
sS'hey'
p890
I25
sS'lol'
p891
I22
sS'kidding'
p892
I26
sS'los'
p893
I26
sS'way'
p894
I24
sS'was'
p895
I16
sS'andalkan'
p896
I26
sS'ehh'
p897
I26
sS'happy'
p898
I25
sS'memory'
p899
I26
sS'shower'
p900
I26
sS'head'
p901
I25
sS'buy'
p902
I25
sS'pagkain'
p903
I26
sS"i've"
p904
I23
sS'hr'
p905
I24
sS'bus'
p906
I26
sS'scionnnn'
p907
I26
sS'bitches'
p908
I26
sS'lane'
p909
I26
sS'but'
p910
I22
sS'hi'
p911
I26
sS'atlantic'
p912
I8
sS'erasers'
p913
I26
sS'podcast'
p914
I26
sS'true'
p915
I25
sS'eat'
p916
I25
sS'posted'
p917
I25
sS'religious/nonreligious'
p918
I26
sS';c'
p919
I26
sS'throw'
p920
I26
sS'made'
p921
I24
sS"wasn't"
p922
I26
sS'inside'
p923
I25
sS'up'
p924
I22
sS'us'
p925
I26
sS'lead'
p926
I26
sS'exploration'
p927
I26
sS'dirty'
p928
I24
sS'faking'
p929
I26
sS'piece'
p930
I26
sS'eachother'
p931
I26
sS'care'
p932
I26
sS'later'
p933
I25
sS'pole'
p934
I26
sS'am'
p935
I23
sS'an'
p936
I26
sS'consumed'
p937
I26
sS'as'
p938
I22
sS'ahha'
p939
I26
sS'at'
p940
I4
sS'aw'
p941
I26
sS'curious'
p942
I26
sS'lifetime'
p943
I26
sS'ew'
p944
I25
sS'shit'
p945
I23
sS'again'
p946
I25
sS'tix'
p947
I25
sS'verizon'
p948
I26
sS'dying'
p949
I26
sS'no'
p950
I20
sS'drivers'
p951
I26
sS'when'
p952
I20
sS'40'
p953
I26
sS'lately'
p954
I26
sS'successful'
p955
I26
sS'other'
p956
I24
sS'5'
p957
I26
sS'sick'
p958
I26
sS'you'
p959
I8
sS'really'
p960
I21
sS'realize'
p961
I26
sS'nice'
p962
I22
sS'picture'
p963
I26
sS'ur'
p964
I26
sS'monday'
p965
I25
sS'boo<33'
p966
I26
sS'class'
p967
I26
sS'rallies'
p968
I26
sS'stay'
p969
I25
sS"let's"
p970
I22
sS'fell'
p971
I26
sS'kinda'
p972
I26
sS'serious'
p973
I26
sS'chris'
p974
I26
sS'badass'
p975
I26
sS'weekend'
p976
I25
sS'lang'
p977
I25
sS'downtown'
p978
I25
sS'max'
p979
I26
sS'\xe2\x80\x94'
p980
I25
sS'wiser'
p981
I26
sS'together'
p982
I26
sS'dragged'
p983
I26
sS'amanda'
p984
I26
sS'u'
p985
I20
sS'fact'
p986
I26
sS'image'
p987
I26
sS'time'
p988
I19
sS'everywhere'
p989
I26
sS'beamer'
p990
I26
sS'once'
p991
I26
s.