(dp0
S''
p1
I2
sS'all'
p2
I21
sS'wagon)'
p3
I28
sS':)'
p4
I25
sS'chinese'
p5
I28
sS'focus'
p6
I28
sS'catch'
p7
I28
sS'\xe7\x99\xbe\xe5\x8a\xa0\xe5\x88\xa9~~\xe5\x90\x89\xe5\x88\x97\xe9\x9b\x9e\xe6\x89\x92'
p8
I28
sS'childs'
p9
I28
sS'be.\xe2\x80\x9d'
p10
I28
sS'gang'
p11
I28
sS'hanging'
p12
I28
sS'go'
p13
I20
sS'follow'
p14
I28
sS'guava'
p15
I28
sS'hate'
p16
I25
sS'chili'
p17
I24
sS'forget'
p18
I28
sS'suicide'
p19
I28
sS'drive-in'
p20
I28
sS'hunger'
p21
I28
sS'father'
p22
I28
sS'seriously'
p23
I28
sS'to'
p24
I3
sS'yeeees'
p25
I28
sS'nite'
p26
I28
sS'dessert'
p27
I23
sS'dessert)'
p28
I27
sS'documentaries'
p29
I28
sS'billie'
p30
I28
sS'hat)'
p31
I24
sS'vegas'
p32
I28
sS'every'
p33
I28
sS'literally'
p34
I28
sS'klout'
p35
I28
sS'trouble'
p36
I28
sS'blast'
p37
I28
sS'minute'
p38
I28
sS'school'
p39
I28
sS'tegra'
p40
I28
sS'die'
p41
I28
sS'brother'
p42
I28
sS'ryan'
p43
I28
sS'saljudessert'
p44
I28
sS'leave'
p45
I28
sS"kirby's"
p46
I28
sS'team'
p47
I28
sS'quick'
p48
I28
sS'lisa'
p49
I28
sS'"don\'t'
p50
I28
sS'dip'
p51
I28
sS'enjoy'
p52
I27
sS'pork'
p53
I28
sS'says'
p54
I28
sS'leaders'
p55
I28
sS'tired'
p56
I28
sS'group)'
p57
I28
sS'getshaved'
p58
I28
sS'chef'
p59
I28
sS'burger'
p60
I27
sS'second'
p61
I28
sS'mia'
p62
I28
sS'summer'
p63
I28
sS'uncomfortable'
p64
I28
sS'eating'
p65
I27
sS'copenhagen'
p66
I28
sS'spaghetti'
p67
I28
sS'others)'
p68
I26
sS'"everything'
p69
I28
sS'decadence'
p70
I28
sS'what'
p71
I24
sS'abc'
p72
I28
sS'+'
p73
I28
sS'debate'
p74
I28
sS'waiting'
p75
I26
sS'new'
p76
I27
sS'ever'
p77
I28
sS'public'
p78
I28
sS'told'
p79
I28
sS'body'
p80
I28
sS'full'
p81
I27
sS'sincere'
p82
I28
sS'never'
p83
I23
sS'alhambra'
p84
I28
sS'here'
p85
I26
sS'let'
p86
I27
sS'others'
p87
I28
sS'alone'
p88
I28
sS'sexy'
p89
I27
sS'change'
p90
I28
sS'wait'
p91
I26
sS'dry'
p92
I28
sS'great'
p93
I25
sS'kids'
p94
I28
sS'through'
p95
I28
sS'd.j'
p96
I28
sS"eric's"
p97
I28
sS'fwy'
p98
I28
sS'action'
p99
I28
sS'opinion'
p100
I28
sS"i'm"
p101
I15
sS'control'
p102
I28
sS'via'
p103
I26
sS'love'
p104
I21
sS'family'
p105
I27
sS'ive'
p106
I28
sS'win'
p107
I28
sS'julie'
p108
I28
sS'siri'
p109
I28
sS'private'
p110
I28
sS'young'
p111
I28
sS'mens'
p112
I28
sS'once'
p113
I28
sS'use'
p114
I28
sS'from'
p115
I26
sS'working'
p116
I25
sS'&'
p117
I10
sS'angry'
p118
I28
sS'texting'
p119
I28
sS'forward..not'
p120
I28
sS'angela'
p121
I28
sS'next'
p122
I26
sS'cali'
p123
I28
sS'ca)'
p124
I24
sS'olympian'
p125
I28
sS'music'
p126
I27
sS'6'
p127
I28
sS'tell'
p128
I28
sS'today'
p129
I27
sS'more'
p130
I25
sS'world.i'
p131
I28
sS'tryna'
p132
I28
sS'salju'
p133
I24
sS'holy'
p134
I28
sS'evening'
p135
I27
sS'kim'
p136
I28
sS'culver'
p137
I28
sS'haha'
p138
I27
sS'subtweet'
p139
I28
sS'phone'
p140
I27
sS'warm'
p141
I28
sS'talks'
p142
I28
sS'baby'
p143
I28
sS'sleep'
p144
I28
sS'yelling'
p145
I28
sS'me'
p146
I12
sS'intake'
p147
I28
sS'balls'
p148
I28
sS'salvador'
p149
I28
sS'this'
p150
I21
sS'car'
p151
I28
sS'ride'
p152
I28
sS'tremendously'
p153
I28
sS'sucks'
p154
I28
sS'movies'
p155
I26
sS'can'
p156
I25
sS'v'
p157
I28
sS'making'
p158
I28
sS'closing'
p159
I27
sS'my'
p160
I8
sS'meep'
p161
I28
sS'fulfillment'
p162
I28
sS'beautiful'
p163
I27
sS'heart'
p164
I28
sS'picture'
p165
I28
sS'awesome'
p166
I28
sS"didn't"
p167
I28
sS'fuck'
p168
I23
sS'something'
p169
I27
sS'want'
p170
I26
sS'times'
p171
I28
sS'rescue'
p172
I28
sS'ceremony'
p173
I26
sS'needs'
p174
I28
sS'rather'
p175
I28
sS'oslo'
p176
I28
sS'watching'
p177
I28
sS'how'
p178
I23
sS'hot'
p179
I26
sS'yaaaaa'
p180
I28
sS'gurl'
p181
I28
sS'pizza'
p182
I28
sS'as\xe2\x80\xa6'
p183
I28
sS'fr'
p184
I27
sS'blocks'
p185
I28
sS'food)'
p186
I27
sS'stop'
p187
I27
sS'after'
p188
I28
sS'spot'
p189
I28
sS'acess'
p190
I28
sS'birthday'
p191
I27
sS'taco'
p192
I28
sS'flows'
p193
I28
sS'such'
p194
I28
sS'dumbo'
p195
I28
sS'guys'
p196
I28
sS'man'
p197
I28
sS'a'
p198
I9
sS'boiling'
p199
I28
sS'short'
p200
I28
sS'funday'
p201
I28
sS'whenever'
p202
I28
sS'awww'
p203
I28
sS'folly"'
p204
I28
sS'jawbreaker'
p205
I28
sS'ones'
p206
I28
sS'so'
p207
I13
sS'goodbye'
p208
I27
sS'nvidia'
p209
I28
sS'sont'
p210
I28
sS'fireball'
p211
I28
sS'pulled'
p212
I28
sS'order'
p213
I28
sS'wine'
p214
I28
sS'cute'
p215
I28
sS'oncology'
p216
I28
sS'serving'
p217
I28
sS'mexican'
p218
I24
sS'help'
p219
I27
sS"don't"
p220
I26
sS'beb\xc3\x83\xc2\xa9'
p221
I28
sS'over'
p222
I25
sS'years'
p223
I28
sS'paper'
p224
I28
sS"won't"
p225
I27
sS'looks'
p226
I25
sS'still'
p227
I26
sS'mayor'
p228
I27
sS'arrogant'
p229
I28
sS'before'
p230
I26
sS'thomas'
p231
I28
sS'le'
p232
I28
sS'21'
p233
I28
sS'carols'
p234
I28
sS'cheerleaders'
p235
I28
sS'sunday'
p236
I28
sS'[pic]'
p237
I27
sS'late'
p238
I25
sS'willing'
p239
I28
sS'orange'
p240
I28
sS'bye'
p241
I28
sS'goodmorning'
p242
I28
sS'dad'
p243
I27
sS'then'
p244
I27
sS'them'
p245
I27
sS'good'
p246
I24
sS'sucking'
p247
I28
sS'food'
p248
I21
sS'workout'
p249
I27
sS'safe'
p250
I28
sS'shatter'
p251
I28
sS'break'
p252
I27
sS'lunch'
p253
I27
sS'bang'
p254
I27
sS'they'
p255
I24
sS'half'
p256
I28
sS'not'
p257
I25
sS'now'
p258
I23
sS'day'
p259
I26
sS'bank'
p260
I28
sS'bread'
p261
I28
sS'term'
p262
I28
sS'always'
p263
I27
sS'loosely'
p264
I28
sS"cezasf's"
p265
I28
sS'bless'
p266
I28
sS'check-in'
p267
I28
sS'truth'
p268
I28
sS'turns'
p269
I28
sS'veins'
p270
I28
sS"blastin'"
p271
I28
sS'yummy'
p272
I28
sS'el'
p273
I28
sS'everyone'
p274
I27
sS'neil'
p275
I28
sS'doing'
p276
I28
sS'house'
p277
I20
sS'itsmevince'
p278
I28
sS'romee1986'
p279
I28
sS'used'
p280
I28
sS'navy'
p281
I28
sS'as*'
p282
I28
sS'busta'
p283
I28
sS'event'
p284
I28
sS'out'
p285
I21
sS'rt'
p286
I18
sS'try'
p287
I28
sS'rey'
p288
I28
sS'missed'
p289
I28
sS'alyssa'
p290
I28
sS'god'
p291
I28
sS'groceries'
p292
I28
sS'ricky'
p293
I28
sS'may'
p294
I28
sS'&\xe2\x80\xa6'
p295
I27
sS'papers'
p296
I28
sS'7'
p297
I28
sS'got'
p298
I26
sS'induced'
p299
I28
sS'red'
p300
I28
sS'ass'
p301
I26
sS'jessica'
p302
I28
sS"doesn't"
p303
I28
sS'cars'
p304
I28
sS'eternal'
p305
I28
sS'free'
p306
I26
sS'reason'
p307
I28
sS'cookie'
p308
I28
sS'imaging'
p309
I28
sS'grapes'
p310
I28
sS'miley'
p311
I28
sS'put'
p312
I27
sS'earliest'
p313
I28
sS'nnnooooooo'
p314
I28
sS'chilli'
p315
I28
sS'ate'
p316
I28
sS'service'
p317
I28
sS'sachie2me'
p318
I28
sS'could'
p319
I28
sS'headphones'
p320
I28
sS'terrible'
p321
I28
sS'british'
p322
I28
sS'keep'
p323
I28
sS'turn'
p324
I28
sS'pudding'
p325
I28
sS"today's"
p326
I28
sS'rotisserie)'
p327
I28
sS'bite'
p328
I28
sS'silver'
p329
I28
sS'cheese'
p330
I25
sS'industrial'
p331
I28
sS'dont'
p332
I28
sS'americana'
p333
I28
sS'feel'
p334
I28
sS'number'
p335
I28
sS'one'
p336
I23
sS'done'
p337
I27
sS'lol'
p338
I23
sS'sober'
p339
I28
sS'drove'
p340
I28
sS'miss'
p341
I27
sS'tomorrow'
p342
I26
sS'hood'
p343
I28
sS"you'd"
p344
I28
sS"you're"
p345
I26
sS'little'
p346
I28
sS'"'
p347
I28
sS"there's"
p348
I28
sS'quality'
p349
I28
sS'together'
p350
I27
sS'top'
p351
I28
sS'05-27-2013'
p352
I27
sS'least'
p353
I28
sS'their'
p354
I27
sS'2'
p355
I26
sS'too'
p356
I25
sS'stuffed'
p357
I28
sS'mama'
p358
I28
sS'hollywood'
p359
I28
sS'kid'
p360
I28
sS'mermaid'
p361
I28
sS'1-5pm'
p362
I28
sS'butter'
p363
I28
sS'that'
p364
I20
sS'gym'
p365
I27
sS"men's"
p366
I28
sS'scurvy'
p367
I28
sS'cops'
p368
I28
sS'butt'
p369
I28
sS'albums'
p370
I28
sS"what's"
p371
I28
sS'than'
p372
I28
sS'obama'
p373
I28
sS'10'
p374
I28
sS'12'
p375
I28
sS'lmao'
p376
I28
sS'18'
p377
I28
sS'gotta'
p378
I27
sS'depends'
p379
I28
sS'halls'
p380
I28
sS'shower'
p381
I28
sS'matter'
p382
I28
sS'williams'
p383
I28
sS'were'
p384
I28
sS'ousted'
p385
I28
sS'desperate'
p386
I28
sS'and'
p387
I5
sS'san'
p388
I28
sS'jadecarlos'
p389
I28
sS'comfortable'
p390
I28
sS'tonight'
p391
I25
sS'talking'
p392
I28
sS'say'
p393
I24
sS'spicy'
p394
I28
sS'have'
p395
I23
sS'need'
p396
I27
sS'seen'
p397
I27
sS'apparently'
p398
I28
sS'any'
p399
I28
sS'thought'
p400
I28
sS'2:30pm'
p401
I28
sS'dancing'
p402
I28
sS'lil'
p403
I28
sS'pain'
p404
I28
sS'-'
p405
I24
sS'snow'
p406
I27
sS'zoo'
p407
I28
sS'chest'
p408
I28
sS'without'
p409
I28
sS'hookah'
p410
I28
sS'take'
p411
I28
sS'green'
p412
I28
sS'glasses'
p413
I28
sS'blunt'
p414
I28
sS';-)'
p415
I28
sS'begin'
p416
I28
sS'fireworks'
p417
I28
sS'picado'
p418
I28
sS'quote'
p419
I28
sS'rappers'
p420
I28
sS'who'
p421
I24
sS'edison'
p422
I28
sS'paid'
p423
I27
sS'most'
p424
I26
sS'regular'
p425
I28
sS'nothing'
p426
I28
sS'tracy'
p427
I27
sS'why'
p428
I27
sS'chunti'
p429
I28
sS'michelle'
p430
I28
sS'forever'
p431
I28
sS'won'
p432
I28
sS'performances'
p433
I27
sS'medical'
p434
I26
sS'hungry'
p435
I28
sS'face'
p436
I27
sS'looked'
p437
I28
sS"you'll"
p438
I28
sS"young's"
p439
I28
sS"that's"
p440
I27
sS'ughhh'
p441
I28
sS'walking'
p442
I28
sS'ugh'
p443
I28
sS'gold'
p444
I27
sS'show'
p445
I28
sS'text'
p446
I28
sS'bring'
p447
I25
sS'stfu'
p448
I28
sS'weho'
p449
I28
sS'wait."'
p450
I28
sS'chicken'
p451
I28
sS'fine'
p452
I28
sS'thai'
p453
I28
sS'haha..ol'
p454
I28
sS'madonnas'
p455
I28
sS'removed'
p456
I28
sS'givin'
p457
I28
sS'cousins'
p458
I28
sS'jar'
p459
I28
sS'3'
p460
I28
sS'should'
p461
I27
sS'being'
p462
I28
sS'only'
p463
I27
sS'going'
p464
I24
sS'pretty'
p465
I28
sS'8'
p466
I28
sS'hope'
p467
I27
sS'\xe2\x80\x9csuccess'
p468
I28
sS'giants'
p469
I28
sS'do'
p470
I21
sS'hit'
p471
I27
sS'pastrami'
p472
I23
sS'get'
p473
I20
sS'watch'
p474
I26
sS'sf'
p475
I28
sS'tbh'
p476
I28
sS'feels'
p477
I26
sS'boathouse'
p478
I26
sS'during'
p479
I28
sS'ghetto'
p480
I28
sS'bar'
p481
I28
sS'denmark'
p482
I28
sS'cry'
p483
I28
sS'(via'
p484
I28
sS'licking'
p485
I28
sS'morning'
p486
I28
sS'naked'
p487
I28
sS'twice'
p488
I28
sS'bad'
p489
I27
sS'pu$$y'
p490
I28
sS'she'
p491
I27
sS'glendale'
p492
I27
sS'london'
p493
I28
sS'steak'
p494
I27
sS"y'all"
p495
I28
sS'enhances'
p496
I28
sS'clogging'
p497
I28
sS'achieved'
p498
I28
sS'w/'
p499
I21
sS'we'
p500
I25
sS'whatevs'
p501
I28
sS'see'
p502
I26
sS'are'
p503
I22
sS'sea'
p504
I28
sS'03-10-2013'
p505
I28
sS'salju...again'
p506
I28
sS'retweet'
p507
I28
sS'best'
p508
I27
sS'wonder'
p509
I28
sS'success'
p510
I28
sS'mangoes'
p511
I28
sS'practice'
p512
I28
sS'said'
p513
I27
sS'don\xe2\x80\x99t'
p514
I28
sS'movie'
p515
I27
sS'solutions."'
p516
I28
sS'shaved'
p517
I27
sS'its'
p518
I28
sS'outside'
p519
I28
sS'score'
p520
I27
sS'olympics'
p521
I27
sS'jacob_holguin'
p522
I28
sS'horrible'
p523
I28
sS"passin'"
p524
I28
sS'cajun'
p525
I25
sS'men'
p526
I27
sS'omg'
p527
I28
sS'opening'
p528
I28
sS'commercial'
p529
I28
sS'weak'
p530
I28
sS'vitamin'
p531
I28
sS'wednesday'
p532
I28
sS'blame'
p533
I28
sS'coffee'
p534
I28
sS'answers'
p535
I28
sS'come'
p536
I27
sS'lopez'
p537
I28
sS';]'
p538
I28
sS'both'
p539
I28
sS'c'
p540
I28
sS'"bring'
p541
I28
sS'influential'
p542
I28
sS'many'
p543
I27
sS'according'
p544
I28
sS'drug'
p545
I28
sS'display'
p546
I28
sS'became'
p547
I28
sS'houston'
p548
I28
sS'lookin'
p549
I27
sS"can't"
p550
I27
sS'diners'
p551
I28
sS'faggots'
p552
I28
sS'03-24-2013'
p553
I28
sS'miracast'
p554
I28
sS'y3llowr3y'
p555
I23
sS'point'
p556
I28
sS'character'
p557
I28
sS'acted'
p558
I28
sS'whatever'
p559
I28
sS'walk'
p560
I28
sS'quinn'
p561
I28
sS'writing'
p562
I28
sS'cokes'
p563
I28
sS'boat'
p564
I20
sS'better'
p565
I27
sS'"you'
p566
I28
sS'west'
p567
I26
sS'due'
p568
I28
sS'been'
p569
I27
sS'beer'
p570
I28
sS'much'
p571
I26
sS'damn'
p572
I28
sS'treat'
p573
I28
sS'bby'
p574
I28
sS'boilingcrab'
p575
I28
sS'mary'
p576
I28
sS'bbq'
p577
I28
sS'>'
p578
I26
sS'life'
p579
I27
sS'i\xe2\x80\xa6'
p580
I28
sS'shave'
p581
I28
sS'michel21'
p582
I28
sS'priced'
p583
I28
sS'awake'
p584
I28
sS'whitney'
p585
I28
sS'demand'
p586
I28
sS'kicks'
p587
I28
sS'last'
p588
I28
sS'brunch'
p589
I25
sS'inconsiderate'
p590
I28
sS'those'
p591
I27
sS'chuy'
p592
I28
sS'sound'
p593
I28
sS'ant'
p594
I28
sS'myself'
p595
I28
sS'stolen'
p596
I28
sS'look'
p597
I27
sS'these'
p598
I28
sS'single'
p599
I28
sS'n'
p600
I28
sS'will'
p601
I24
sS'ugly'
p602
I28
sS'while'
p603
I27
sS'micheal'
p604
I27
sS'(alhambra'
p605
I24
sS'b-day'
p606
I28
sS'fun'
p607
I28
sS'shops'
p608
I28
sS'fool'
p609
I28
sS'would'
p610
I27
sS'88%'
p611
I28
sS'is'
p612
I8
sS'it'
p613
I15
sS'anger'
p614
I28
sS'cant'
p615
I28
sS'someone'
p616
I26
sS'im'
p617
I28
sS'in'
p618
I17
sS'ready'
p619
I26
sS'madonna'
p620
I28
sS'obnoxious'
p621
I28
sS'everyday'
p622
I27
sS'if'
p623
I26
sS'party'
p624
I28
sS'memorial'
p625
I27
sS'quang'
p626
I28
sS'wearing'
p627
I28
sS'things'
p628
I28
sS'make'
p629
I26
sS'buddhist'
p630
I28
sS'reminded'
p631
I28
sS'headlines'
p632
I28
sS'pad'
p633
I28
sS'shit'
p634
I28
sS'games'
p635
I28
sS'boiled'
p636
I25
sS'bbykat'
p637
I28
sS'diego'
p638
I28
sS'khin'
p639
I28
sS'drink'
p640
I28
sS'friends'
p641
I28
sS'rain'
p642
I28
sS'&baby'
p643
I28
sS'thehat'
p644
I28
sS'heathers'
p645
I28
sS'moving'
p646
I28
sS'statue'
p647
I28
sS'jealous'
p648
I28
sS'l.a'
p649
I28
sS'janice'
p650
I28
sS'understand'
p651
I28
sS"cyrus'"
p652
I28
sS'totally'
p653
I28
sS'dat'
p654
I28
sS'off'
p655
I25
sS'center'
p656
I28
sS'i'
p657
I4
sS'congrats'
p658
I28
sS'well'
p659
I26
sS'okc'
p660
I28
sS'baccali'
p661
I14
sS'person'
p662
I27
sS'breeze'
p663
I28
sS'comes'
p664
I28
sS'mother'
p665
I28
sS'the'
p666
I1
sS'cajun\xe2\x80\xa6'
p667
I28
sS'comment'
p668
I28
sS'kale'
p669
I28
sS'just'
p670
I22
sS'orthopaedic'
p671
I28
sS'yea'
p672
I27
sS'photo'
p673
I28
sS'morsel'
p674
I28
sS'49.89'
p675
I28
sS'clinic'
p676
I28
sS'kill'
p677
I28
sS'wifey'
p678
I28
sS'questions'
p679
I28
sS'yet'
p680
I28
sS'gita'
p681
I28
sS'blow'
p682
I28
sS"pepe's"
p683
I24
sS'remember'
p684
I28
sS'had'
p685
I24
sS'cuz'
p686
I28
sS'killed'
p687
I28
sS'lets'
p688
I28
sS'9:30'
p689
I28
sS'4'
p690
I28
sS'easy'
p691
I28
sS'homies'
p692
I28
sS'sangmiolikim'
p693
I28
sS'has'
p694
I27
sS'hat'
p695
I16
sS'tuesday'
p696
I28
sS'homework'
p697
I28
sS'real'
p698
I27
sS'around'
p699
I28
sS'phelps'
p700
I27
sS'rules'
p701
I28
sS'breaks'
p702
I28
sS'baltic'
p703
I28
sS'gonna'
p704
I27
sS'early'
p705
I27
sS'game'
p706
I27
sS'bitch'
p707
I28
sS'know'
p708
I25
sS'like'
p709
I19
sS'lost'
p710
I28
sS'hotel'
p711
I28
sS'facing'
p712
I28
sS'true'
p713
I28
sS'night'
p714
I25
sS'jean'
p715
I28
sS'right'
p716
I26
sS'prostiitute'
p717
I28
sS'people'
p718
I25
sS'fucking'
p719
I27
sS'spring'
p720
I28
sS'some'
p721
I27
sS'somehow'
p722
I28
sS'pacific'
p723
I27
sS'oh'
p724
I27
sS'hair'
p725
I28
sS'lips'
p726
I28
sS'gymnastics'
p727
I27
sS'home'
p728
I26
sS'perfected'
p729
I28
sS'"deck'
p730
I28
sS'for'
p731
I15
sS'steaming'
p732
I28
sS'memories'
p733
I28
sS'noon'
p734
I28
sS'ice'
p735
I26
sS'moon'
p736
I28
sS'does'
p737
I28
sS'adorable'
p738
I28
sS'christmas'
p739
I27
sS'hustle'
p740
I28
sS'be'
p741
I24
sS'run'
p742
I28
sS'energy'
p743
I28
sS'lmfao'
p744
I28
sS'martin'
p745
I28
sS'broken'
p746
I28
sS'step'
p747
I27
sS'by'
p748
I25
sS'on'
p749
I18
sS'about'
p750
I26
sS':-)'
p751
I20
sS'ok'
p752
I28
sS'usa'
p753
I25
sS'getting'
p754
I26
sS'of'
p755
I11
sS'favorite'
p756
I27
sS'truck'
p757
I28
sS'hydroplane'
p758
I28
sS'dinner'
p759
I23
sS'idk'
p760
I27
sS"it's"
p761
I22
sS'mean'
p762
I28
sS'wanna'
p763
I27
sS'or'
p764
I24
sS'swimming'
p765
I28
sS'seeing'
p766
I28
sS'own'
p767
I28
sS'kinda'
p768
I28
sS'burning'
p769
I28
sS'mochi'
p770
I28
sS'selfie'
p771
I27
sS'within'
p772
I28
sS'snapchat'
p773
I28
sS'down'
p774
I27
sS'thankful'
p775
I28
sS'because'
p776
I27
sS'actually'
p777
I28
sS'lockte'
p778
I28
sS'fruits"\xe2\x80\x94bhagavad'
p779
I28
sS'your'
p780
I24
sS'/'
p781
I28
sS'east'
p782
I28
sS'belasco'
p783
I28
sS'sad'
p784
I28
sS'her'
p785
I21
sS'spending'
p786
I28
sS'weekend'
p787
I28
sS'there'
p788
I28
sS'live'
p789
I28
sS'long'
p790
I27
sS'class'
p791
I28
sS'mdna'
p792
I28
sS'board'
p793
I28
sS'way'
p794
I27
sS'forward'
p795
I28
sS'queens'
p796
I28
sS'was'
p797
I27
sS'knowledge'
p798
I28
sS'happy'
p799
I25
sS'function'
p800
I28
sS'bitchez'
p801
I28
sS'buy'
p802
I27
sS'an'
p803
I28
sS'hawaiian'
p804
I28
sS"i've"
p805
I28
sS'bus'
p806
I28
sS'bitches'
p807
I27
sS'but'
p808
I20
sS'wireless'
p809
I28
sS'failure'
p810
I28
sS'heat'
p811
I27
sS'hi'
p812
I28
sS'dead'
p813
I28
sS'trying'
p814
I28
sS'with'
p815
I7
sS'eat'
p816
I26
sS'faster'
p817
I28
sS'nieces'
p818
I28
sS'places'
p819
I28
sS'fries'
p820
I24
sS'up'
p821
I24
sS'us'
p822
I28
sS'r.i.p'
p823
I28
sS'riley'
p824
I28
sS'cassidy'
p825
I27
sS'alcoholic-breana'
p826
I28
sS'(cont)'
p827
I27
sS'loving'
p828
I28
sS'fuss'
p829
I28
sS'seafood'
p830
I25
sS'rotisserie'
p831
I19
sS'ordered'
p832
I28
sS'certain'
p833
I28
sS'am'
p834
I28
sS'general'
p835
I28
sS'n*ggas'
p836
I28
sS'inn'
p837
I28
sS'at'
p838
I13
sS'our'
p839
I28
sS'cafe'
p840
I16
sS'girl'
p841
I28
sS'as'
p842
I28
sS'again'
p843
I28
sS'taro'
p844
I28
sS'48'
p845
I28
sS'no'
p846
I24
sS'nah'
p847
I28
sS'when'
p848
I26
sS'saturday'
p849
I28
sS'setting'
p850
I28
sS'poppins'
p851
I28
sS'brings'
p852
I28
sS'you'
p853
I6
sS'really'
p854
I28
sS'roll'
p855
I28
sS'nice'
p856
I27
sS'smiles'
p857
I28
sS'crushin'
p858
I28
sS'obsessed'
p859
I28
sS'students'
p860
I28
sS'problems'
p861
I28
sS'stay'
p862
I27
sS"let's"
p863
I26
sS'drag'
p864
I28
sS'coverage'
p865
I28
sS'decorated'
p866
I28
sS'unless'
p867
I28
sS'died'
p868
I28
sS'billion'
p869
I28
sS'remix'
p870
I28
sS'srry'
p871
I28
sS'lead'
p872
I28
sS'daily'
p873
I28
sS'u'
p874
I25
sS'nelson'
p875
I28
sS'time'
p876
I19
sS'alright'
p877
I28
sS'fresh'
p878
I28
sS'backward'
p879
I28
sS'songs'
p880
I28
s.