(dp0
S''
p1
I1
sS'monterey'
p2
I28
sS'all'
p3
I23
sS'forget'
p4
I27
sS'chinese'
p5
I28
sS'dance'
p6
I28
sS'lack'
p7
I28
sS'month'
p8
I28
sS'four'
p9
I28
sS'sleep'
p10
I22
sS'asian'
p11
I28
sS'"right"'
p12
I28
sS'go'
p13
I22
sS'gossip'
p14
I27
sS'milk'
p15
I28
sS'supposedly'
p16
I28
sS'zone'
p17
I28
sS'everything'
p18
I28
sS'father'
p19
I28
sS'environment'
p20
I28
sS'to'
p21
I4
sS'finally'
p22
I27
sS'does'
p23
I28
sS'blaze'
p24
I28
sS'tf'
p25
I28
sS'passion'
p26
I28
sS'must'
p27
I28
sS'veterans'
p28
I28
sS'pay'
p29
I28
sS'song'
p30
I28
sS'\xe2\x9a\xbe\xef\xb8\x8f'
p31
I28
sS'vegas'
p32
I26
sS'every'
p33
I27
sS"hangin'"
p34
I28
sS'correctness"'
p35
I28
sS'minute'
p36
I28
sS'school'
p37
I28
sS'did'
p38
I28
sS'laying'
p39
I28
sS'democrat'
p40
I28
sS'try'
p41
I28
sS'p'
p42
I28
sS'guy'
p43
I28
sS'dodger'
p44
I28
sS'democrats'
p45
I28
sS'shave'
p46
I28
sS'someday'
p47
I28
sS'work'
p48
I26
sS'says'
p49
I28
sS'tired'
p50
I26
sS're-paint'
p51
I28
sS'phones'
p52
I28
sS'yourself'
p53
I28
sS'jump'
p54
I19
sS'talks'
p55
I28
sS'cost'
p56
I27
sS'panda'
p57
I28
sS'depression'
p58
I28
sS'creatures'
p59
I28
sS'even'
p60
I28
sS'will'
p61
I21
sS'what'
p62
I21
sS'chicago'
p63
I28
sS'soo'
p64
I28
sS'children'
p65
I28
sS'waiting'
p66
I27
sS'polluting'
p67
I27
sS'goes'
p68
I28
sS'ever'
p69
I25
sS'filled'
p70
I28
sS'told'
p71
I28
sS'lee'
p72
I28
sS'never'
p73
I26
sS'alhambra'
p74
I28
sS'here'
p75
I27
sS'hours'
p76
I25
sS'let'
p77
I28
sS'redskins'
p78
I28
sS'alone'
p79
I28
sS'strong'
p80
I28
sS'tragedy'
p81
I28
sS'wait'
p82
I28
sS'great'
p83
I25
sS'kids'
p84
I28
sS'daughter'
p85
I28
sS'credits'
p86
I28
sS'marijuana'
p87
I28
sS'laughter'
p88
I28
sS'leaving'
p89
I28
sS'social'
p90
I28
sS"i'm"
p91
I13
sS'makes'
p92
I27
sS'thats'
p93
I28
sS'control'
p94
I28
sS'love'
p95
I24
sS'family'
p96
I27
sS'frattiest'
p97
I28
sS'rusnell'
p98
I28
sS'retards'
p99
I28
sS'names'
p100
I28
sS'ape'
p101
I28
sS'2:44'
p102
I28
sS'bulbs'
p103
I27
sS'documentary\xe2\x9b\xb3\xef\xb8\x8f'
p104
I28
sS'from'
p105
I26
sS'working'
p106
I27
sS'illegal'
p107
I28
sS'motivate'
p108
I28
sS'texting'
p109
I28
sS'two'
p110
I28
sS'next'
p111
I25
sS'cali'
p112
I28
sS'eveerrrrrrrrr'
p113
I28
sS'call'
p114
I27
sS'chu'
p115
I28
sS'typical'
p116
I28
sS'sincere'
p117
I28
sS'today'
p118
I24
sS'more'
p119
I24
sS'babe'
p120
I28
sS'knows'
p121
I28
sS'holy'
p122
I28
sS'faith'
p123
I28
sS'successful'
p124
I28
sS'brings'
p125
I28
sS'haha'
p126
I27
sS'phony'
p127
I28
sS'chimpanzee'
p128
I28
sS'loco'
p129
I28
sS'phone'
p130
I26
sS"ain't"
p131
I28
sS'broke'
p132
I28
sS'baby'
p133
I27
sS'women'
p134
I27
sS'me'
p135
I11
sS'grill'
p136
I28
sS'word'
p137
I28
sS'hour'
p138
I27
sS'rights'
p139
I28
sS'this'
p140
I20
sS'car'
p141
I28
sS'getting'
p142
I26
sS'abortion'
p143
I28
sS'values'
p144
I28
sS'can'
p145
I26
sS'freedom'
p146
I28
sS'making'
p147
I28
sS'my'
p148
I5
sS'100%'
p149
I28
sS'pick'
p150
I28
sS'beautiful'
p151
I28
sS'heart'
p152
I27
sS'crazy'
p153
I26
sS'distract'
p154
I28
sS'give'
p155
I28
sS'fuck'
p156
I25
sS'high'
p157
I25
sS'heard'
p158
I28
sS'something'
p159
I26
sS'want'
p160
I17
sS'gallon'
p161
I28
sS'honest'
p162
I28
sS'dress'
p163
I28
sS'native'
p164
I28
sS'needs'
p165
I27
sS'watching'
p166
I24
sS'bolsa'
p167
I28
sS'stayed'
p168
I27
sS'how'
p169
I26
sS'hot'
p170
I27
sS'fourth'
p171
I28
sS'interview'
p172
I28
sS'instead'
p173
I27
sS'fam'
p174
I28
sS'speaks'
p175
I28
sS'beach'
p176
I25
sS'taco'
p177
I28
sS'alternative'
p178
I28
sS'swap.president'
p179
I28
sS'mess'
p180
I28
sS'begging'
p181
I28
sS'after'
p182
I28
sS'kids+22'
p183
I28
sS'dc'
p184
I28
sS'wrong'
p185
I28
sS'birthday'
p186
I27
sS'mad'
p187
I28
sS'coming'
p188
I28
sS'date'
p189
I27
sS'spelling'
p190
I28
sS'guys'
p191
I28
sS'man'
p192
I27
sS'a'
p193
I7
sS'remember'
p194
I28
sS'light'
p195
I27
sS'nonworking'
p196
I28
sS'turnoff.\xe2\x80\x9d'
p197
I28
sS'so'
p198
I9
sS'agenda'
p199
I28
sS'keeps'
p200
I28
sS'worst'
p201
I28
sS'act"'
p202
I28
sS'talk'
p203
I28
sS"that's"
p204
I25
sS'cute'
p205
I26
sS'breaking'
p206
I28
sS'help'
p207
I28
sS"don't"
p208
I24
sS'demand'
p209
I28
sS'over'
p210
I25
sS'fall'
p211
I28
sS'course'
p212
I28
sS'jimmy'
p213
I28
sS'ma\xc3\xb1ana'
p214
I28
sS'hell'
p215
I27
sS'cold'
p216
I28
sS'still'
p217
I25
sS'its'
p218
I27
sS'before'
p219
I28
sS'perfect'
p220
I28
sS'style'
p221
I27
sS'21'
p222
I28
sS'22'
p223
I28
sS"he's"
p224
I28
sS'interesting'
p225
I27
sS'fix'
p226
I28
sS'actually'
p227
I28
sS'better'
p228
I24
sS'millionaires'
p229
I28
sS'degrees'
p230
I28
sS'stephen'
p231
I28
sS'2016'
p232
I28
sS"haven't"
p233
I28
sS'then'
p234
I28
sS'good'
p235
I24
sS'animal'
p236
I28
sS'food'
p237
I27
sS'workout'
p238
I26
sS'spell'
p239
I28
sS"people's"
p240
I28
sS'vomit'
p241
I28
sS'starbucks'
p242
I28
sS'they'
p243
I26
sS'day...who'
p244
I28
sS'not'
p245
I21
sS'now'
p246
I27
sS'day'
p247
I25
sS'down'
p248
I28
sS'relax'
p249
I28
sS'always'
p250
I28
sS'chuck'
p251
I27
sS'swimsuit'
p252
I28
sS'shortage'
p253
I28
sS'found'
p254
I27
sS'went'
p255
I27
sS'gmfu'
p256
I28
sS'referred'
p257
I28
sS'list'
p258
I28
sS'house)'
p259
I28
sS'abuse'
p260
I28
sS'brother'
p261
I28
sS"we'd"
p262
I28
sS'year'
p263
I28
sS'our'
p264
I27
sS'girl'
p265
I26
sS'calling'
p266
I28
sS'saturday'
p267
I27
sS'out'
p268
I23
sS'rt'
p269
I28
sS':\\'
p270
I28
sS'driving'
p271
I28
sS'space'
p272
I28
sS'god'
p273
I24
sS'rep'
p274
I28
sS'koba'
p275
I28
sS'looking'
p276
I27
sS'stupid'
p277
I28
sS'7'
p278
I28
sS'entitlements'
p279
I28
sS'got'
p280
I24
sS'rn'
p281
I24
sS'cause'
p282
I28
sS'gop'
p283
I28
sS"could've"
p284
I28
sS'ass'
p285
I27
sS'arizona'
p286
I28
sS'bass'
p287
I28
sS'carson'
p288
I28
sS'city'
p289
I28
sS'"right'
p290
I27
sS'"'
p291
I28
sS'grandma'
p292
I28
sS'put'
p293
I28
sS'costas'
p294
I28
sS'wanted'
p295
I28
sS'craving'
p296
I28
sS'card'
p297
I27
sS'organic'
p298
I28
sS'dayum'
p299
I28
sS'could'
p300
I26
sS'days'
p301
I26
sS'keep'
p302
I27
sS'turn'
p303
I28
sS'american'
p304
I27
sS'produce'
p305
I28
sS'place'
p306
I28
sS'adrian'
p307
I28
sS'unborn'
p308
I28
sS'austin'
p309
I28
sS'south'
p310
I28
sS'first'
p311
I28
sS'sneezing'
p312
I28
sS'>>'
p313
I28
sS'feel'
p314
I28
sS'rachel'
p315
I27
sS"sperry's"
p316
I28
sS'one'
p317
I22
sS'done'
p318
I27
sS'kfc'
p319
I27
sS'\xc3\x9c'
p320
I28
sS'miss'
p321
I24
sS'tomorrow'
p322
I25
sS'sununu'
p323
I28
sS"you're"
p324
I28
sS'long'
p325
I26
sS'sadly'
p326
I27
sS"there's"
p327
I28
sS'service'
p328
I28
sS'twenty'
p329
I28
sS'top'
p330
I27
sS'deanna'
p331
I27
sS'anyone'
p332
I28
sS'their'
p333
I27
sS'attack'
p334
I28
sS'2'
p335
I28
sS'too'
p336
I27
sS'john'
p337
I28
sS'gives'
p338
I28
sS'benghazi'
p339
I28
sS'x)'
p340
I28
sS'lot'
p341
I28
sS'grandchildren'
p342
I28
sS'that'
p343
I16
sS'on"'
p344
I28
sS'gym'
p345
I28
sS'huh'
p346
I28
sS'took'
p347
I28
sS'environmental'
p348
I28
sS'part'
p349
I28
sS'hazelnut'
p350
I28
sS'$6'
p351
I28
sS'off'
p352
I27
sS'july'
p353
I28
sS'believe'
p354
I27
sS'than'
p355
I25
sS'obama'
p356
I28
sS'past'
p357
I28
sS'hundred'
p358
I28
sS'target'
p359
I28
sS'vines'
p360
I28
sS'gotta'
p361
I28
sS'goodnight'
p362
I28
sS'bed'
p363
I28
sS'bee'
p364
I28
sS'street'
p365
I28
sS'recking'
p366
I28
sS'cravings'
p367
I28
sS'maybe'
p368
I28
sS'marines'
p369
I28
sS'feeling'
p370
I28
sS'and'
p371
I13
sS'outta'
p372
I28
sS'pro'
p373
I28
sS'mind'
p374
I28
sS'mine'
p375
I27
sS'tonight'
p376
I27
sS'say'
p377
I27
sS'hug'
p378
I28
sS"usa's"
p379
I28
sS'have'
p380
I23
sS'need'
p381
I23
sS'take'
p382
I28
sS'breakfast'
p383
I28
sS'tells'
p384
I28
sS'spade'
p385
I27
sS'tho'
p386
I28
sS'nights'
p387
I28
sS'dallas'
p388
I26
sS'self'
p389
I27
sS'imy2'
p390
I28
sS'switch'
p391
I28
sS'also'
p392
I28
sS'matthew'
p393
I28
sS'31%'
p394
I28
sS'destroy'
p395
I27
sS'martha'
p396
I28
sS'channel'
p397
I28
sS'sure'
p398
I27
sS'unless'
p399
I28
sS'quote'
p400
I28
sS'who'
p401
I27
sS'buffet'
p402
I28
sS'most'
p403
I27
sS'regular'
p404
I28
sS'esse'
p405
I28
sS'"0care"'
p406
I28
sS'tract'
p407
I28
sS'prisoner'
p408
I28
sS'why'
p409
I27
sS'singer'
p410
I28
sS'closet'
p411
I28
sS'dom'
p412
I28
sS'considered'
p413
I28
sS'clear'
p414
I28
sS'sometimes'
p415
I28
sS'dog'
p416
I28
sS'destruct'
p417
I28
sS'face'
p418
I27
sS'definitely'
p419
I28
sS'aunt'
p420
I27
sS'left'
p421
I28
sS'away'
p422
I28
sS'came'
p423
I28
sS'standoff'
p424
I28
sS'saying'
p425
I28
sS'ugh'
p426
I27
sS'golf'
p427
I28
sS'stunned'
p428
I28
sS'houston'
p429
I28
sS'charles'
p430
I28
sS'nominated'
p431
I28
sS'pops'
p432
I28
sS'bring'
p433
I28
sS'colors'
p434
I28
sS'serving'
p435
I28
sS'radio'
p436
I28
sS'hyped'
p437
I28
sS'fine'
p438
I28
sS'find'
p439
I28
sS'awake'
p440
I28
sS'woow'
p441
I28
sS'inspiring'
p442
I28
sS'\xe2\x9c\x8a'
p443
I28
sS'cousins'
p444
I27
sS'ruin'
p445
I28
sS'offensive'
p446
I28
sS'colbert'
p447
I28
sS'3'
p448
I27
sS'should'
p449
I23
sS'idiots'
p450
I28
sS'going'
p451
I19
sS'pretty'
p452
I27
sS'fuel'
p453
I27
sS'chipotle'
p454
I28
sS'do'
p455
I23
sS'his'
p456
I27
sS'get'
p457
I21
sS'express'
p458
I28
sS'watch'
p459
I28
sS'lucky'
p460
I28
sS'truly'
p461
I28
sS'tbh'
p462
I28
sS'feels'
p463
I28
sS'ones'
p464
I28
sS'convo*'
p465
I28
sS'report'
p466
I28
sS'celebrate'
p467
I28
sS'lmao'
p468
I28
sS'countries'
p469
I28
sS'marthaand'
p470
I28
sS'winger"'
p471
I28
sS'yield'
p472
I28
sS'morning'
p473
I26
sS'bad'
p474
I28
sS'bae'
p475
I26
sS'she'
p476
I24
sS'miley'
p477
I28
sS'where'
p478
I27
sS'thumbs'
p479
I28
sS'insane'
p480
I28
sS'ignored'
p481
I28
sS'learn'
p482
I28
sS'disaster'
p483
I28
sS'prayers'
p484
I28
sS'w/'
p485
I28
sS'activists'
p486
I28
sS'prowl'
p487
I28
sS'see'
p488
I26
sS'individual'
p489
I28
sS'college'
p490
I28
sS'are'
p491
I19
sS'move...fuck'
p492
I28
sS'yes'
p493
I28
sS'best'
p494
I23
sS'luv'
p495
I28
sS'movie'
p496
I27
sS'wow'
p497
I26
sS'currently'
p498
I28
sS'mayor'
p499
I28
sS'outside'
p500
I27
sS'future'
p501
I28
sS'horrible'
p502
I28
sS'nope'
p503
I28
sS'wouldve'
p504
I28
sS'we'
p505
I24
sS'oomf'
p506
I28
sS'carts...they'
p507
I28
sS'trynna'
p508
I27
sS'mexicans'
p509
I28
sS'weak'
p510
I28
sS'killing'
p511
I28
sS'wtf'
p512
I28
sS'cousin'
p513
I28
sS'come'
p514
I27
sS'thank'
p515
I28
sS'hahaha'
p516
I28
sS'last'
p517
I28
sS'license'
p518
I28
sS'joke'
p519
I28
sS'barely'
p520
I28
sS'minds'
p521
I28
sS'agree'
p522
I28
sS'games'
p523
I28
sS'whole'
p524
I28
sS"can't"
p525
I26
sS'collecting'
p526
I28
sS'bell'
p527
I28
sS'sky'
p528
I27
sS'whatever'
p529
I28
sS'mccain'
p530
I28
sS'fair&balance'
p531
I28
sS'yelling'
p532
I28
sS"couldn't"
p533
I28
sS'church'
p534
I27
sS'respect'
p535
I28
sS'trust'
p536
I28
sS'"scoundrels"'
p537
I28
sS'boat'
p538
I28
sS'headaches'
p539
I28
sS'bingo'
p540
I28
sS"it's"
p541
I21
sS'sara'
p542
I28
sS'political'
p543
I28
sS'been'
p544
I21
sS'shoulda'
p545
I28
sS'breath'
p546
I28
sS'pc'
p547
I28
sS'much'
p548
I21
sS'damn'
p549
I26
sS'muricans'
p550
I28
sS'"class'
p551
I28
sS'life'
p552
I27
sS'shopping'
p553
I27
sS'sore'
p554
I28
sS'hmu'
p555
I28
sS"what's"
p556
I20
sS'republicans'
p557
I28
sS'exposed'
p558
I28
sS'andrew'
p559
I28
sS'disney'
p560
I28
sS'tweets'
p561
I28
sS'wake'
p562
I26
sS'ice'
p563
I28
sS'abortions'
p564
I28
sS'child'
p565
I28
sS'prices'
p566
I28
sS'instant'
p567
I28
sS'those'
p568
I27
sS'chill'
p569
I28
sS'myself'
p570
I27
sS'wins'
p571
I28
sS'look'
p572
I27
sS'leave'
p573
I28
sS'straight'
p574
I28
sS'single'
p575
I28
sS'waba'
p576
I28
sS'strangest'
p577
I28
sS'(alhambra'
p578
I28
sS'fault'
p579
I28
sS'fun'
p580
I28
sS'wmoji'
p581
I28
sS'resident'
p582
I28
sS'is'
p583
I6
sS'sushi'
p584
I28
sS'it'
p585
I12
sS'marcel'
p586
I28
sS'sleeping'
p587
I28
sS'cant'
p588
I28
sS'someone'
p589
I26
sS'punched'
p590
I28
sS'dems'
p591
I27
sS'in'
p592
I15
sS'ready'
p593
I28
sS'everyday'
p594
I28
sS'if'
p595
I21
sS'funny'
p596
I28
sS'memorial'
p597
I28
sS'education'
p598
I28
sS'present'
p599
I28
sS'shirt'
p600
I28
sS'things'
p601
I27
sS'make'
p602
I25
sS'$25'
p603
I28
sS'cross'
p604
I28
sS'same'
p605
I27
sS'moms'
p606
I27
sS'babies'
p607
I28
sS'elders'
p608
I28
sS'9'
p609
I28
sS'party'
p610
I27
sS'amc'
p611
I28
sS'favorited'
p612
I28
sS'applaud'
p613
I28
sS'reporting'
p614
I27
sS'driver'
p615
I28
sS'tmrw'
p616
I28
sS'theater'
p617
I27
sS'i'
p618
I2
sS'dancing'
p619
I28
sS'well'
p620
I28
sS'imysm'
p621
I26
sS'thought'
p622
I28
sS'without'
p623
I27
sS'the'
p624
I3
sS'epa'
p625
I27
sS'summer'
p626
I28
sS'listening'
p627
I28
sS'just'
p628
I18
sS'less'
p629
I28
sS'being'
p630
I27
sS'money'
p631
I27
sS'sleepy'
p632
I28
sS'snow'
p633
I28
sS'pissing'
p634
I28
sS'thanks'
p635
I27
sS'human'
p636
I28
sS'retired'
p637
I28
sS'flavor'
p638
I28
sS'tatro'
p639
I28
sS'move'
p640
I28
sS'amat'
p641
I26
sS'buuutt'
p642
I28
sS'thinking'
p643
I28
sS'point'
p644
I28
sS'had'
p645
I26
sS'burrito'
p646
I28
sS'passionless'
p647
I28
sS'sixflags'
p648
I28
sS'parents'
p649
I28
sS'4'
p650
I27
sS'crying'
p651
I27
sS'sweet'
p652
I28
sS'has'
p653
I28
sS'smart'
p654
I28
sS'gave'
p655
I27
sS'swim'
p656
I27
sS'bio'
p657
I28
sS'demands'
p658
I28
sS'big'
p659
I28
sS'couple'
p660
I28
sS'been?more'
p661
I28
sS'gonna'
p662
I28
sS'early'
p663
I28
sS'game'
p664
I25
sS'mom'
p665
I26
sS'world'
p666
I28
sS'membrane'
p667
I28
sS'outright'
p668
I28
sS'panties'
p669
I28
sS'like'
p670
I19
sS'gift'
p671
I27
sS'performing'
p672
I28
sS'undefended'
p673
I28
sS'chica'
p674
I28
sS'night'
p675
I28
sS'security'
p676
I28
sS'rich'
p677
I28
sS"hero's"
p678
I28
sS'them...i'
p679
I28
sS'right'
p680
I27
sS'old'
p681
I28
sS'laugh'
p682
I28
sS'people'
p683
I25
sS'twitter'
p684
I28
sS'confused'
p685
I28
sS'some'
p686
I26
sS'back'
p687
I26
sS'alive'
p688
I28
sS'hair'
p689
I28
sS'*cat'
p690
I28
sS'wednesday'
p691
I28
sS'shes'
p692
I27
sS'kings'
p693
I28
sS'home'
p694
I27
sS'thinks'
p695
I28
sS"daddy's"
p696
I28
sS'for'
p697
I10
sS'curious'
p698
I28
sS'literally'
p699
I28
sS'per'
p700
I28
sS'conservative'
p701
I27
sS'forever'
p702
I28
sS'when'
p703
I23
sS'asking'
p704
I26
sS'hipster'
p705
I28
sS'wanna'
p706
I28
sS'krizzzzy'
p707
I28
sS'foo'
p708
I28
sS'christmas'
p709
I28
sS'be'
p710
I17
sS'welcome'
p711
I28
sS'pls'
p712
I28
sS'bc'
p713
I27
sS'crooks'
p714
I28
sS'nails'
p715
I28
sS'"oil"because'
p716
I28
sS'pietro'
p717
I28
sS'maybe"cartel"'
p718
I28
sS'gatten'
p719
I28
sS'post'
p720
I28
sS'super'
p721
I28
sS'by'
p722
I27
sS'homemaker'
p723
I28
sS'on'
p724
I12
sS'about'
p725
I23
sS'ok'
p726
I28
sS'would'
p727
I23
sS'oh'
p728
I24
sS'of'
p729
I14
sS'dollars'
p730
I28
sS'plus'
p731
I28
sS'sweat'
p732
I28
sS'outrage'
p733
I28
sS'mean'
p734
I28
sS'hahahah'
p735
I28
sS'or'
p736
I24
sS'plan'
p737
I28
sS'facetime'
p738
I28
sS'nerve'
p739
I28
sS'own'
p740
I27
sS'presence'
p741
I28
sS'wh+sen'
p742
I28
sS'dude'
p743
I28
sS'into'
p744
I27
sS'usa'
p745
I28
sS'son'
p746
I28
sS'stop'
p747
I28
sS'because'
p748
I28
sS'subtweet'
p749
I28
sS'registration'
p750
I28
sS'ayyy'
p751
I28
sS'your'
p752
I19
sS'smells'
p753
I28
sS'her'
p754
I27
sS'daniella'
p755
I28
sS'spending'
p756
I28
sS'friends'
p757
I28
sS'support'
p758
I28
sS'there'
p759
I26
sS'question'
p760
I28
sS'ca)'
p761
I28
sS'lol'
p762
I26
sS'low'
p763
I28
sS'way'
p764
I28
sS'bruh'
p765
I27
sS'was'
p766
I23
sS'war'
p767
I27
sS'happy'
p768
I25
sS'function'
p769
I28
sS'head'
p770
I28
sS"i've"
p771
I25
sS'registered'
p772
I28
sS'converse'
p773
I28
sS'understands'
p774
I28
sS'but'
p775
I24
sS'mhmmm'
p776
I28
sS'5788468543'
p777
I28
sS'goals'
p778
I28
sS'removed'
p779
I28
sS'with'
p780
I16
sS'eat'
p781
I28
sS'he'
p782
I28
sS'info'
p783
I28
sS'made'
p784
I28
sS'happen'
p785
I27
sS"wasn't"
p786
I27
sS'wish'
p787
I26
sS'up'
p788
I13
sS'us'
p789
I25
sS'until'
p790
I28
sS'uh'
p791
I28
sS'problem'
p792
I28
sS'called'
p793
I28
sS'skating'
p794
I28
sS'gone'
p795
I27
sS'cartons'
p796
I28
sS'liberal'
p797
I28
sS'lately'
p798
I28
sS'af'
p799
I28
sS'am'
p800
I28
sS'robben'
p801
I28
sS'an'
p802
I25
sS'as'
p803
I26
sS'at'
p804
I22
sS'aw'
p805
I28
sS'70%'
p806
I28
sS'moves'
p807
I28
sS'huntington'
p808
I28
sS'shit'
p809
I27
sS'champion'
p810
I28
sS'again'
p811
I28
sS'jesus'
p812
I28
sS'no'
p813
I23
sS'midwick'
p814
I28
sS'42'
p815
I28
sS'43'
p816
I28
sS'event'
p817
I28
sS'other'
p818
I28
sS'5'
p819
I28
sS'you'
p820
I8
sS'really'
p821
I27
sS'intend'
p822
I28
sS'hey'
p823
I27
sS'phoenix'
p824
I28
sS'corrected'
p825
I28
sS'felt'
p826
I28
sS'diet'
p827
I28
sS'stay'
p828
I25
sS'dies'
p829
I28
sS'important'
p830
I28
sS'hahahahahah'
p831
I28
sS'else'
p832
I28
sS'weekend'
p833
I28
sS'pool'
p834
I27
sS'building'
p835
I28
sS'fighter'
p836
I28
sS'wife'
p837
I26
sS'lani'
p838
I28
sS'u'
p839
I28
sS'time'
p840
I26
sS'far'
p841
I28
sS"she's"
p842
I28
sS'8th'
p843
I28
s.