(dp0
S''
p1
I1
sS'monterey'
p2
I11
sS'all'
p3
I21
sS':('
p4
I21
sS':)'
p5
I21
sS'four'
p6
I21
sS'asian'
p7
I19
sS'church)'
p8
I21
sS'go'
p9
I17
sS'mom?and'
p10
I21
sS'hate'
p11
I21
sS'everything'
p12
I21
sS'praza'
p13
I21
sS'tweet'
p14
I20
sS'tu'
p15
I21
sS'send'
p16
I21
sS'spirit'
p17
I17
sS'to'
p18
I4
sS'sneakers'
p19
I21
sS'breathing'
p20
I21
sS'very'
p21
I21
sS'mpk'
p22
I18
sS'smack'
p23
I21
sS'appropriation'
p24
I21
sS'telling'
p25
I21
sS'you\xe2\x9d\xa4\xef\xb8\x8f'
p26
I21
sS'cool'
p27
I21
sS'dim'
p28
I20
sS'school'
p29
I21
sS'did'
p30
I21
sS'die'
p31
I20
sS'brother'
p32
I20
sS'ryan'
p33
I21
sS'guy'
p34
I21
sS"i'll"
p35
I18
sS'work'
p36
I21
sS'instagram'
p37
I21
sS'phones'
p38
I21
sS'streets'
p39
I21
sS'steaks'
p40
I21
sS'jump'
p41
I21
sS'burger'
p42
I20
sS'second'
p43
I21
sS'5:59.601st'
p44
I21
sS'pass'
p45
I21
sS'n'
p46
I21
sS'others)'
p47
I21
sS'drinks'
p48
I20
sS'even'
p49
I20
sS'what'
p50
I18
sS't-minus'
p51
I21
sS'sub'
p52
I20
sS'sum'
p53
I20
sS'waiting'
p54
I21
sS'new'
p55
I19
sS'ever'
p56
I21
sS'disney'
p57
I21
sS"grandma's"
p58
I21
sS'offfffffff'
p59
I21
sS'shutup'
p60
I21
sS'pintar'
p61
I21
sS'zach'
p62
I21
sS'never'
p63
I21
sS'here'
p64
I18
sS'hours'
p65
I21
sS'cultural'
p66
I21
sS'others'
p67
I21
sS'sing'
p68
I21
sS'bbq)'
p69
I21
sS'change'
p70
I21
sS'celebration'
p71
I20
sS'great'
p72
I18
sS'lol'
p73
I18
sS'involved'
p74
I21
sS'reports'
p75
I21
sS'airport'
p76
I21
sS"i'm"
p77
I10
sS'changes'
p78
I21
sS'rafael'
p79
I21
sS'king'
p80
I21
sS'love'
p81
I17
sS'win'
p82
I20
sS'hahahahah'
p83
I21
sS'1st'
p84
I21
sS'market'
p85
I18
sS'from'
p86
I21
sS'would'
p87
I20
sS'&'
p88
I20
sS'amazeballs'
p89
I21
sS'donuts'
p90
I21
sS'>:('
p91
I21
sS'dude'
p92
I20
sS'chargers'
p93
I21
sS'live'
p94
I21
sS'ambie'
p95
I21
sS'until'
p96
I21
sS'(monterey'
p97
I15
sS'themselves'
p98
I21
sS'tell'
p99
I19
sS'today'
p100
I21
sS'more'
p101
I21
sS'hotel)'
p102
I21
sS'ramona'
p103
I21
sS'club'
p104
I21
sS'brings'
p105
I21
sS'company'
p106
I21
sS'haha'
p107
I20
sS'sister'
p108
I21
sS'xiao'
p109
I21
sS'california)'
p110
I21
sS"ain't"
p111
I20
sS'adult'
p112
I20
sS'me'
p113
I15
sS'breakdance'
p114
I21
sS'this'
p115
I17
sS'gabriel'
p116
I21
sS'clients'
p117
I21
sS'movies'
p118
I21
sS'can'
p119
I18
sS'learn'
p120
I21
sS'my'
p121
I8
sS"gabriel's"
p122
I21
sS'beautiful'
p123
I21
sS'heart'
p124
I20
sS'(128'
p125
I21
sS'too\xe2\x9d\xa4\xef\xb8\x8f'
p126
I21
sS'awesome'
p127
I21
sS"didn't"
p128
I21
sS'fuck'
p129
I17
sS'topic'
p130
I21
sS'want'
p131
I21
sS'ave'
p132
I20
sS'martyr'
p133
I21
sS'rink-'
p134
I21
sS'vibe'
p135
I21
sS'1'
p136
I21
sS'the\xe2\x80\xa6'
p137
I21
sS'sunday'
p138
I21
sS'vancouver'
p139
I20
sS'fourth'
p140
I21
sS'if'
p141
I19
sS'lam'
p142
I21
sS'after'
p143
I20
sS'memorial'
p144
I21
sS'birthday'
p145
I19
sS'mad'
p146
I21
sS'destined'
p147
I21
sS'coming'
p148
I21
sS'a'
p149
I6
sS'motel)'
p150
I21
sS'attempt'
p151
I21
sS'remember'
p152
I20
sS'occasions'
p153
I21
sS'st'
p154
I20
sS'vegas'
p155
I21
sS'so'
p156
I15
sS'barnes'
p157
I18
sS'playing'
p158
I21
sS'cute'
p159
I21
sS'help'
p160
I21
sS"don't"
p161
I19
sS'valley'
p162
I21
sS'move'
p163
I21
sS'soon'
p164
I21
sS'kong'
p165
I20
sS'ended'
p166
I21
sS'already'
p167
I21
sS'looks'
p168
I21
sS'mrket'
p169
I21
sS'duuhh'
p170
I21
sS'its'
p171
I21
sS'24'
p172
I21
sS'police'
p173
I21
sS'thank'
p174
I21
sS'how'
p175
I19
sS'carols'
p176
I21
sS'jim'
p177
I20
sS'bruggemeyer'
p178
I21
sS'[pic]'
p179
I21
sS'pimpdaddy'
p180
I21
sS'tweets'
p181
I21
sS'weeks'
p182
I21
sS'soccer'
p183
I21
sS'90210'
p184
I21
sS'langly'
p185
I21
sS'them'
p186
I19
sS'good'
p187
I16
sS'moms'
p188
I21
sS'break'
p189
I21
sS'bang'
p190
I21
sS'starbucks'
p191
I21
sS'they'
p192
I20
sS'not'
p193
I20
sS'now'
p194
I19
sS'ahaha'
p195
I21
sS'hall'
p196
I19
sS'usgs'
p197
I21
sS'always'
p198
I18
sS'rhinosruin'
p199
I21
sS'flyers'
p200
I21
sS'went'
p201
I21
sS'luck'
p202
I20
sS'everyone'
p203
I19
sS'(may)'
p204
I21
sS'chung'
p205
I21
sS'house'
p206
I17
sS'hard'
p207
I21
sS'cocary'
p208
I19
sS'year'
p209
I17
sS'girl'
p210
I21
sS'event'
p211
I20
sS'out'
p212
I19
sS'niego'
p213
I21
sS'alcohol'
p214
I21
sS'jokes'
p215
I21
sS'hehe'
p216
I21
sS'since'
p217
I21
sS'garvey'
p218
I21
sS'stupid'
p219
I21
sS'got'
p220
I20
sS'rn'
p221
I21
sS'rostro'
p222
I21
sS'ass'
p223
I21
sS'monster'
p224
I21
sS"you're"
p225
I18
sS'free'
p226
I21
sS'quite'
p227
I21
sS'california'
p228
I21
sS'bao'
p229
I21
sS'bumped'
p230
I21
sS'training'
p231
I21
sS'carnival'
p232
I21
sS'fundraise'
p233
I21
sS'days'
p234
I18
sS'blossom'
p235
I21
sS'place'
p236
I20
sS'w'
p237
I21
sS'taha'
p238
I21
sS'won'
p239
I21
sS'(at'
p240
I20
sS'first'
p241
I20
sS'enjoy'
p242
I21
sS'mr'
p243
I21
sS'kim'
p244
I21
sS'bitch'
p245
I20
sS'chingas'
p246
I21
sS'sounds'
p247
I21
sS'drove'
p248
I21
sS'miss'
p249
I20
sS'utc'
p250
I21
sS'city'
p251
I18
sS'little'
p252
I21
sS'festival'
p253
I20
sS'caught'
p254
I21
sS'girls'
p255
I20
sS'tweeeeeeeetttt'
p256
I21
sS'plastic'
p257
I21
sS'their'
p258
I21
sS'2'
p259
I20
sS'too'
p260
I19
sS'passed'
p261
I21
sS'mama'
p262
I20
sS'white'
p263
I20
sS'speaking'
p264
I21
sS'lease'
p265
I21
sS'2-3'
p266
I21
sS'that'
p267
I18
sS'season'
p268
I21
sS'hotel'
p269
I21
sS'park'
p270
I6
sS'part'
p271
I21
sS'zeppelin'
p272
I21
sS'old.dropped'
p273
I21
sS'july'
p274
I21
sS'than'
p275
I21
sS'$15'
p276
I19
sS'12'
p277
I21
sS'17'
p278
I21
sS'posada'
p279
I21
sS'r'
p280
I21
sS'friend'
p281
I21
sS'loves'
p282
I21
sS'were'
p283
I21
sS'listen'
p284
I21
sS'bet'
p285
I21
sS'and'
p286
I7
sS'coconut'
p287
I21
sS'san'
p288
I21
sS'angel'
p289
I21
sS'slaw'
p290
I21
sS'tonight'
p291
I20
sS'episcopal'
p292
I21
sS'garfield'
p293
I20
sS'rent'
p294
I21
sS'have'
p295
I21
sS'cabron'
p296
I21
sS'need'
p297
I21
sS'any'
p298
I21
sS'encanta'
p299
I21
sS'afraid'
p300
I21
sS'suuuuubbbbb'
p301
I21
sS"lu's"
p302
I20
sS'-'
p303
I21
sS'omfg'
p304
I21
sS'which'
p305
I21
sS'chibi'
p306
I21
sS'honestly'
p307
I21
sS'channel'
p308
I21
sS'play'
p309
I20
sS'sure'
p310
I21
sS'aww'
p311
I21
sS'11/24'
p312
I21
sS'who'
p313
I18
sS'most'
p314
I21
sS'hired'
p315
I21
sS'72'
p316
I21
sS'nothing'
p317
I21
sS'class'
p318
I20
sS'0km'
p319
I21
sS'refreshing'
p320
I21
sS'sichuan'
p321
I21
sS'everything\xe2\x80\x9d'
p322
I21
sS'seafood'
p323
I20
sS'camp'
p324
I21
sS'drive'
p325
I21
sS'park)'
p326
I19
sS'400m'
p327
I21
sS'clean'
p328
I21
sS'<10'
p329
I21
sS'saying'
p330
I21
sS'ugh'
p331
I21
sS'bomb'
p332
I20
sS'show'
p333
I21
sS'marriot'
p334
I21
sS'ending'
p335
I21
sS'bring'
p336
I21
sS'shoe'
p337
I21
sS'chicken'
p338
I21
sS'find'
p339
I21
sS'shoes'
p340
I21
sS'lessons'
p341
I21
sS'woot'
p342
I21
sS'restaurant)'
p343
I20
sS'menu'
p344
I21
sS'should'
p345
I21
sS'only'
p346
I21
sS'going'
p347
I20
sS'lodge'
p348
I21
sS'riding'
p349
I21
sS'rice'
p350
I20
sS'hope'
p351
I20
sS'likes....do'
p352
I21
sS'his'
p353
I21
sS'asians'
p354
I21
sS'get'
p355
I19
sS'beat'
p356
I21
sS'da'
p357
I21
sS'joint'
p358
I21
sS'haunted'
p359
I21
sS'sse'
p360
I21
sS'happiest'
p361
I21
sS'him'
p362
I20
sS'runs'
p363
I21
sS'tobacco'
p364
I21
sS'cry'
p365
I21
sS'calling'
p366
I21
sS'bag'
p367
I21
sS'bad'
p368
I20
sS'gbu'
p369
I21
sS'she'
p370
I19
sS'landlord'
p371
I21
sS'miley'
p372
I21
sS'automatic'
p373
I21
sS'mr.gonzales'
p374
I21
sS'prayers'
p375
I21
sS'w/'
p376
I19
sS'see'
p377
I20
sS'are'
p378
I20
sS'led'
p379
I21
sS'best'
p380
I20
sS'(220'
p381
I21
sS'said'
p382
I21
sS'luv'
p383
I21
sS'3'
p384
I20
sS"there's"
p385
I21
sS'hopefully'
p386
I21
sS'ima'
p387
I21
sS'we'
p388
I19
sS'omg'
p389
I21
sS'kee'
p390
I21
sS'jw'
p391
I21
sS'wear'
p392
I21
sS'como'
p393
I21
sS'younique'
p394
I20
sS'legit'
p395
I21
sS'both'
p396
I21
sS'accident'
p397
I21
sS'last'
p398
I20
sS'restaurant'
p399
I21
sS"he's"
p400
I21
sS'tour'
p401
I21
sS'games'
p402
I21
sS'shots'
p403
I21
sS'evict'
p404
I21
sS'laugh'
p405
I21
sS'church'
p406
I21
sS'kings'
p407
I21
sS'actually'
p408
I21
sS'empty\xe2\x80\xa6'
p409
I21
sS'twerks'
p410
I21
sS"it's"
p411
I16
sS'been'
p412
I20
sS'dropping'
p413
I21
sS'bbq'
p414
I20
sS'nick\xe2\x80\x9d'
p415
I21
sS'life'
p416
I19
sS'league'
p417
I21
sS'housewives'
p418
I21
sS'gas'
p419
I21
sS'm1.14'
p420
I21
sS'2\xe2\x80\x9d'
p421
I21
sS'hmm'
p422
I21
sS'fung'
p423
I21
sS'-.-'
p424
I21
sS'sticky'
p425
I20
sS'former'
p426
I21
sS'those'
p427
I21
sS'50m'
p428
I21
sS'juice'
p429
I21
sS'these'
p430
I21
sS'hat'
p431
I21
sS'straight'
p432
I21
sS'air'
p433
I21
sS'will'
p434
I14
sS'while'
p435
I20
sS'fun'
p436
I20
sS'aid'
p437
I21
sS'voice'
p438
I21
sS'penthouse'
p439
I21
sS'real'
p440
I21
sS'almost'
p441
I21
sS'is'
p442
I15
sS'it'
p443
I13
sS'middle'
p444
I21
sS'someone'
p445
I21
sS'im'
p446
I21
sS'in'
p447
I10
sS'partner'
p448
I21
sS'chase'
p449
I21
sS'funny'
p450
I21
sS'hong'
p451
I20
sS'suite)'
p452
I21
sS'pay'
p453
I21
sS'make'
p454
I17
sS's'
p455
I21
sS'clearly'
p456
I21
sS'party'
p457
I21
sS'ball'
p458
I21
sS'(ros\xc3\xa9'
p459
I21
sS'eam/la'
p460
I21
sS'hang'
p461
I21
sS'purpose'
p462
I21
sS'favorites'
p463
I21
sS'fucked'
p464
I21
sS'l.a'
p465
I20
sS'lacrosse'
p466
I21
sS'off'
p467
I19
sS'center'
p468
I21
sS"mother's"
p469
I21
sS'i'
p470
I2
sS'congrats'
p471
I21
sS'anybody'
p472
I21
sS'asked'
p473
I21
sS'thought'
p474
I21
sS'person'
p475
I20
sS'mixers'
p476
I21
sS'baltimore'
p477
I21
sS'english'
p478
I21
sS'y'
p479
I21
sS'the'
p480
I3
sS'\xe2\x98\xba\xef\xb8\x8f'
p481
I21
sS'just'
p482
I18
sS'less'
p483
I21
sS'front'
p484
I21
sS'kill'
p485
I21
sS'cohn'
p486
I21
sS'lauren'
p487
I21
sS'margherita'
p488
I21
sS'sonrisas'
p489
I21
sS'hills'
p490
I20
sS'stephen'
p491
I21
sS'thinking'
p492
I21
sS'cherry'
p493
I21
sS'had'
p494
I19
sS'day'
p495
I15
sS"can't"
p496
I21
sS'har'
p497
I21
sS'has'
p498
I20
sS'easter'
p499
I21
sS'swim'
p500
I21
sS'jake'
p501
I21
sS'fyi'
p502
I21
sS'gonna'
p503
I21
sS'amy'
p504
I21
sS'game'
p505
I20
sS'know'
p506
I20
sS'listening'
p507
I21
sS'(-'
p508
I21
sS'it.\xe2\x80\x9d'
p509
I21
sS'nvm'
p510
I21
sS'lincoln'
p511
I18
sS'like'
p512
I19
sS'shabu'
p513
I18
sS'50'
p514
I21
sS'night'
p515
I16
sS'beverly'
p516
I21
sS'funniest'
p517
I21
sS'because'
p518
I20
sS'people'
p519
I20
sS'fucking'
p520
I21
sS'some'
p521
I21
sS'back'
p522
I20
sS'dead'
p523
I21
sS'born'
p524
I21
sS'sight'
p525
I21
sS'table'
p526
I21
sS'confusing'
p527
I21
sS'for'
p528
I15
sS'pet'
p529
I21
sS'memories'
p530
I21
sS'8:42:35'
p531
I21
sS'ucsb'
p532
I21
sS'sponsoring'
p533
I21
sS'lunar'
p534
I21
sS'fgfs'
p535
I21
sS'be'
p536
I12
sS'business'
p537
I21
sS'bc'
p538
I21
sS'old\xe2\x80\xa6'
p539
I21
sS'valley)'
p540
I21
sS'josie'
p541
I21
sS'bury'
p542
I21
sS'by'
p543
I19
sS'on'
p544
I15
sS'about'
p545
I17
sS'beef'
p546
I21
sS'oh'
p547
I21
sS'of'
p548
I9
sS'plaza'
p549
I20
sS'favorite'
p550
I21
sS'hot'
p551
I21
sS'rodeo'
p552
I21
sS'transmissions'
p553
I21
sS'west'
p554
I21
sS'glasses'
p555
I21
sS'wanna'
p556
I20
sS'own'
p557
I21
sS'whats'
p558
I21
sS'into'
p559
I21
sS'fooood'
p560
I21
sS'down'
p561
I21
sS'momma'
p562
I21
sS'en'
p563
I21
sS'your'
p564
I19
sS'smells'
p565
I21
sS'impressed'
p566
I21
sS'fast'
p567
I21
sS'her'
p568
I19
sS'few'
p569
I21
sS'weekend'
p570
I21
sS'there'
p571
I17
sS'question'
p572
I21
sS'ca)'
p573
I16
sS'long'
p574
I20
sS'start'
p575
I21
sS'firedbang'
p576
I21
sS'was'
p577
I21
sS'happy'
p578
I19
sS'north'
p579
I21
sS'bus'
p580
I21
sS'fireworks'
p581
I20
sS'fricken'
p582
I20
sS'but'
p583
I19
sS'boys'
p584
I21
sS'hi'
p585
I21
sS'library'
p586
I21
sS'with'
p587
I12
sS'he'
p588
I17
sS'groovy'
p589
I21
sS"aguinaga's"
p590
I21
sS'made'
p591
I21
sS'la'
p592
I21
sS'official'
p593
I21
sS'annoying'
p594
I21
sS'up'
p595
I17
sS'different'
p596
I21
sS'um'
p597
I21
sS'1.if'
p598
I21
sS'ordered'
p599
I21
sS'forgot'
p600
I20
sS'am'
p601
I18
sS'that!ahahha'
p602
I21
sS'an'
p603
I20
sS'as'
p604
I21
sS'right'
p605
I21
sS'at'
p606
I5
sS'aw'
p607
I21
sS'guy^_^'
p608
I21
sS'cafe'
p609
I18
sS'check'
p610
I21
sS'shit'
p611
I19
sS'jesse'
p612
I21
sS'again'
p613
I21
sS'clevskin'
p614
I21
sS'no'
p615
I20
sS'btwn'
p616
I21
sS'drivers'
p617
I21
sS'peace'
p618
I21
sS'when'
p619
I18
sS'started'
p620
I21
sS'test'
p621
I21
sS'you'
p622
I10
sS'roll'
p623
I21
sS'10'
p624
I20
sS'poor'
p625
I21
sS'papi'
p626
I21
sS'10/5/14'
p627
I21
sS'chance'
p628
I21
sS'pizzatube'
p629
I21
sS'kinda'
p630
I21
sS'snitch'
p631
I21
sS'friends'
p632
I21
sS'meals'
p633
I21
sS'inspiration'
p634
I21
sS'ago'
p635
I21
sS'texted'
p636
I21
sS'\xe2\x80\x94'
p637
I18
sS'rule'
p638
I21
sS'having'
p639
I21
sS'u'
p640
I20
sS'time'
p641
I17
sS'serious'
p642
I21
sS'hello'
p643
I21
s.