(dp0
S''
p1
I2
sS'monterey'
p2
I25
sS'all'
p3
I21
sS':/'
p4
I25
sS':('
p5
I25
sS':)'
p6
I25
sS'chinese'
p7
I24
sS'focus'
p8
I25
sS'month'
p9
I25
sS'gg'
p10
I25
sS'"sistah'
p11
I25
sS'sleep'
p12
I23
sS'asian'
p13
I25
sS'go'
p14
I20
sS'hate'
p15
I22
sS'hmmm'
p16
I25
sS'head'
p17
I25
sS'swam'
p18
I25
sS'thursday'
p19
I25
sS'champions'
p20
I25
sS'to'
p21
I7
sS'finally'
p22
I25
sS'now:-)'
p23
I25
sS'tf'
p24
I24
sS'aux'
p25
I25
sS'sorry'
p26
I25
sS'reconsider'
p27
I25
sS'ride'
p28
I25
sS':o'
p29
I25
sS'*swoon*'
p30
I25
sS'song'
p31
I25
sS'very'
p32
I25
sS'kitty'
p33
I24
sS'vegas'
p34
I22
sS'worst'
p35
I25
sS'fam'
p36
I25
sS'mixing'
p37
I25
sS'yourselves'
p38
I25
sS'drinking'
p39
I25
sS"anthony's"
p40
I24
sS'rn'
p41
I24
sS'cool'
p42
I25
sS'school'
p43
I25
sS'mofo!!!=)'
p44
I25
sS'turns'
p45
I25
sS'gettin'
p46
I25
sS'try'
p47
I25
sS'p'
p48
I25
sS'gabriel'
p49
I17
sS'guy'
p50
I25
sS'ups'
p51
I25
sS"i'll"
p52
I21
sS'says'
p53
I25
sS'tired'
p54
I25
sS'tea'
p55
I25
sS'past'
p56
I25
sS'street'
p57
I25
sS'pass'
p58
I25
sS'even'
p59
I22
sS'what'
p60
I22
sS'sum'
p61
I25
sS'525'
p62
I25
sS'fuckk'
p63
I25
sS'goes'
p64
I25
sS'scorpio....i'
p65
I25
sS'luxuries'
p66
I25
sS'booty\xe2\x80\x9d'
p67
I25
sS'body'
p68
I25
sS'leg'
p69
I25
sS'never'
p70
I25
sS'here'
p71
I25
sS'let'
p72
I24
sS'address'
p73
I25
sS'sexy'
p74
I25
sS'strong'
p75
I25
sS'wait'
p76
I25
sS'boy'
p77
I25
sS'great'
p78
I24
sS'buckler'
p79
I25
sS'omar'
p80
I25
sS"would've"
p81
I25
sS"i'm"
p82
I17
sS'makes'
p83
I25
sS'massage'
p84
I25
sS'coo'
p85
I25
sS'love'
p86
I18
sS'crazy'
p87
I25
sS'bro'
p88
I24
sS'duck'
p89
I25
sS"hol'"
p90
I25
sS'fettish'
p91
I25
sS'total'
p92
I24
sS'from'
p93
I23
sS'wrecking'
p94
I24
sS'&'
p95
I23
sS'intense'
p96
I25
sS'dude'
p97
I25
sS'two'
p98
I24
sS'next'
p99
I25
sS'live'
p100
I25
sS'music'
p101
I23
sS'eyw'
p102
I25
sS'6'
p103
I25
sS'shits'
p104
I24
sS'thru'
p105
I25
sS'today'
p106
I23
sS'more'
p107
I24
sS'festival)'
p108
I24
sS'overwelming'
p109
I25
sS'relax'
p110
I25
sS'club'
p111
I25
sS'haha'
p112
I22
sS'charming'
p113
I25
sS"ain't"
p114
I23
sS'yuuuuuum'
p115
I25
sS'me'
p116
I15
sS'helped'
p117
I25
sS'niggas'
p118
I25
sS'this'
p119
I16
sS'car'
p120
I25
sS'looool'
p121
I25
sS'work'
p122
I23
sS'movies'
p123
I25
sS'ikeeeeea'
p124
I25
sS'del'
p125
I24
sS'modas'
p126
I25
sS'closing'
p127
I25
sS'my'
p128
I10
sS'mo'
p129
I25
sS'beautiful'
p130
I25
sS'nxggas'
p131
I25
sS'do'
p132
I23
sS'awesome'
p133
I25
sS"didn't"
p134
I23
sS'fuck'
p135
I20
sS'terrible'
p136
I25
sS'lolol'
p137
I25
sS'cube'
p138
I25
sS'want'
p139
I22
sS'allowed'
p140
I25
sS'asians'
p141
I25
sS'end'
p142
I25
sS'awkward'
p143
I25
sS'thing'
p144
I24
sS'stayed'
p145
I25
sS'zo\xc3\xab'
p146
I25
sS'till'
p147
I24
sS'hot'
p148
I24
sS'pomona'
p149
I25
sS'idk'
p150
I25
sS'fr'
p151
I25
sS'mar'
p152
I24
sS'okay'
p153
I25
sS'613'
p154
I25
sS'suck'
p155
I25
sS'guys'
p156
I25
sS'man'
p157
I24
sS'a'
p158
I3
sS'remember'
p159
I24
sS'crowded'
p160
I25
sS'light'
p161
I23
sS'sit'
p162
I25
sS'st'
p163
I20
sS'so'
p164
I11
sS'sb'
p165
I25
sS'pulled'
p166
I25
sS'playing'
p167
I25
sS"that's"
p168
I24
sS'cute'
p169
I25
sS'mexican'
p170
I25
sS'help'
p171
I25
sS"don't"
p172
I25
sS'over'
p173
I22
sS'ballme'
p174
I24
sS'migos'
p175
I24
sS'awful'
p176
I25
sS"won't"
p177
I25
sS'looks'
p178
I25
sS'cold'
p179
I25
sS'still'
p180
I23
sS'its'
p181
I24
sS'group'
p182
I25
sS'thank'
p183
I22
sS'la'
p184
I24
sS'ayee--'
p185
I25
sS'brows'
p186
I25
sS'sunday'
p187
I24
sS'late'
p188
I25
sS'production'
p189
I25
sS'saxon'
p190
I23
sS'bout'
p191
I25
sS'main'
p192
I25
sS'might'
p193
I25
sS'selfie'
p194
I25
sS'happened'
p195
I25
sS'then'
p196
I22
sS'them'
p197
I25
sS'good'
p198
I17
sS'yo'
p199
I25
sS'food'
p200
I24
sS'doll'
p201
I25
sS'cupcake'
p202
I25
sS'*ice'
p203
I25
sS'they'
p204
I22
sS'not'
p205
I23
sS'now'
p206
I20
sS'day'
p207
I19
sS'alex'
p208
I25
sS'name'
p209
I25
sS'always'
p210
I24
sS'buahaha'
p211
I25
sS'bless'
p212
I25
sS'baylor'
p213
I25
sS'found'
p214
I25
sS'went'
p215
I23
sS'side'
p216
I24
sS'mean'
p217
I24
sS'weirdos'
p218
I25
sS'everyone'
p219
I25
sS'fail'
p220
I25
sS'lowkey'
p221
I25
sS'house'
p222
I25
sS'buena'
p223
I25
sS'hard'
p224
I25
sS'yeah'
p225
I25
sS'40-0'
p226
I25
sS'used'
p227
I25
sS'girl'
p228
I25
sS'out'
p229
I21
sS'album'
p230
I25
sS'nigga'
p231
I25
sS'driving'
p232
I24
sS'coincidentally'
p233
I25
sS'god'
p234
I22
sS'novice'
p235
I25
sS'mpmr'
p236
I25
sS'looking'
p237
I23
sS'got'
p238
I18
sS'darling'
p239
I25
sS'cause'
p240
I23
sS'ass'
p241
I22
sS'shut'
p242
I25
sS'bully'
p243
I25
sS'846-874'
p244
I25
sS'lights'
p245
I25
sS'friday'
p246
I25
sS'guess'
p247
I25
sS'wanted'
p248
I25
sS'toned'
p249
I25
sS'training'
p250
I25
sS'could'
p251
I24
sS'days'
p252
I23
sS'british'
p253
I25
sS'keep'
p254
I25
sS'conversation'
p255
I25
sS'place'
p256
I25
sS'massive'
p257
I25
sS'w'
p258
I23
sS'fuckig'
p259
I25
sS'think'
p260
I25
sS'first'
p261
I23
sS'lol\xe2\x80\x9d'
p262
I25
sS'feel'
p263
I24
sS'one'
p264
I23
sS'whoop'
p265
I25
sS'lettuce'
p266
I25
sS'long'
p267
I24
sS'another'
p268
I25
sS'kobe'
p269
I24
sS'vincley'
p270
I25
sS'miss'
p271
I23
sS'tomorrow'
p272
I24
sS'millions'
p273
I25
sS'iam'
p274
I25
sS"you're"
p275
I22
sS'little'
p276
I25
sS'toy'
p277
I25
sS'222'
p278
I25
sS'festival'
p279
I24
sS'sarcasm'
p280
I25
sS'girls'
p281
I24
sS'their'
p282
I25
sS'2'
p283
I22
sS'too'
p284
I22
sS'saint'
p285
I24
sS'white'
p286
I25
sS'clubbing...success'
p287
I25
sS'bitter'
p288
I25
sS'gives'
p289
I24
sS'\xe2\x9c\x8c\xef\xb8\x8f'
p290
I25
sS'yooooooooooo'
p291
I25
sS'relationship'
p292
I25
sS'that'
p293
I14
sS'park'
p294
I23
sS'part'
p295
I25
sS'jordan'
p296
I25
sS'(rosemead'
p297
I24
sS'than'
p298
I24
sS'boyfriend'
p299
I25
sS'10'
p300
I24
sS'b'
p301
I25
sS'lmao'
p302
I24
sS'ew'
p303
I25
sS'oooooohhhh'
p304
I25
sS'gotta'
p305
I25
sS'lyfe'
p306
I25
sS'packed'
p307
I25
sS'micheala'
p308
I25
sS'were'
p309
I25
sS'dang'
p310
I25
sS'feeling'
p311
I25
sS'allin'
p312
I25
sS'and'
p313
I8
sS'san'
p314
I18
sS'get$'
p315
I25
sS'pro'
p316
I25
sS'mind'
p317
I25
sS'lice'
p318
I25
sS'tonight'
p319
I22
sS'talking'
p320
I24
sS'say'
p321
I23
sS'graffiti'
p322
I20
sS'siiii!!!finde'
p323
I25
sS'have'
p324
I21
sS'need'
p325
I24
sS'saw'
p326
I25
sS'riptide'
p327
I25
sS'catholic'
p328
I24
sS'safe\xe2\x9d\xa4\xef\xb8\x8f'
p329
I25
sS'-'
p330
I25
sS'also'
p331
I25
sS'take'
p332
I24
sS'anthonys'
p333
I22
sS'play'
p334
I23
sS'towards'
p335
I25
sS'mentality'
p336
I25
sS'who'
p337
I25
sS'kao'
p338
I25
sS'voice*'
p339
I25
sS'nothing'
p340
I24
sS'why'
p341
I25
sS'forever'
p342
I25
sS'don'
p343
I25
sS'doc'
p344
I25
sS'into'
p345
I25
sS'gabriel)'
p346
I23
sS'clubbing'
p347
I25
sS'drive'
p348
I25
sS'doe'
p349
I25
sS'freeway'
p350
I25
sS'definitely'
p351
I25
sS'bangarang'
p352
I25
sS'martens\xe2\x99\xa1'
p353
I25
sS'ugh'
p354
I24
sS'shot'
p355
I25
sS'didn\xe2\x80\x99t'
p356
I25
sS'doeeeee'
p357
I25
sS'radio'
p358
I25
sS'cambodian'
p359
I25
sS'fxck'
p360
I25
sS"isn't*"
p361
I25
sS'91776'
p362
I21
sS'should'
p363
I25
sS'only'
p364
I23
sS'going'
p365
I19
sS'pretty'
p366
I24
sS'8'
p367
I24
sS'he'
p368
I25
sS'thousands'
p369
I25
sS'chizzled'
p370
I25
sS'warmers'
p371
I25
sS'f****'
p372
I25
sS'goong'
p373
I25
sS'get'
p374
I22
sS'niiigggggaaaa'
p375
I25
sS'uhhh'
p376
I25
sS'watch'
p377
I24
sS'bear'
p378
I25
sS'feels'
p379
I25
sS'perfection'
p380
I25
sS'during'
p381
I25
sS'whaaat'
p382
I25
sS'him'
p383
I25
sS'gaudino'
p384
I25
sS'devoured'
p385
I25
sS'morning'
p386
I24
sS'she'
p387
I23
sS'worries'
p388
I25
sS'where'
p389
I21
sS'ears'
p390
I25
sS"y'all"
p391
I25
sS'toe'
p392
I25
sS'art'
p393
I24
sS'national'
p394
I25
sS'seat'
p395
I25
sS'see'
p396
I23
sS'are'
p397
I18
sS'racket'
p398
I24
sS'close'
p399
I25
sS'best'
p400
I24
sS'wonder'
p401
I25
sS'ways'
p402
I25
sS'pictures'
p403
I25
sS'away'
p404
I25
sS'heading'
p405
I25
sS'wetsuit'
p406
I25
sS'enough'
p407
I25
sS"there's"
p408
I24
sS'probably'
p409
I25
sS'we'
p410
I17
sS'omg'
p411
I24
sS'killing'
p412
I25
sS'omw'
p413
I25
sS'wtf'
p414
I25
sS'picking'
p415
I25
sS'evo'
p416
I25
sS'come'
p417
I24
sS'accident'
p418
I25
sS'last'
p419
I24
sS'restaurant'
p420
I25
sS'many'
p421
I24
sS'keppel'
p422
I25
sS'carwash'
p423
I25
sS'weirdo'
p424
I25
sS'com'
p425
I25
sS'asked'
p426
I25
sS"can't"
p427
I22
sS'ily'
p428
I25
sS'likesme'
p429
I25
sS'flier'
p430
I25
sS'point'
p431
I25
sS'sweet'
p432
I25
sS'ca'
p433
I20
sS'walk'
p434
I25
sS'3005'
p435
I25
sS"couldn't"
p436
I25
sS'church'
p437
I24
sS'respect'
p438
I25
sS'boat'
p439
I25
sS'brats'
p440
I25
sS'pt'
p441
I24
sS"it's"
p442
I22
sS'vacation'
p443
I25
sS'been'
p444
I24
sS'mark'
p445
I25
sS'cared'
p446
I25
sS'much'
p447
I23
sS'damn'
p448
I25
sS'sesh'
p449
I25
sS'dut'
p450
I25
sS'life'
p451
I25
sS'fire'
p452
I24
sS'hmu'
p453
I25
sS"what's"
p454
I25
sS'asssssssss'
p455
I25
sS'wake'
p456
I25
sS'mom:you'
p457
I25
sS'chatter'
p458
I25
sS'church)'
p459
I25
sS'those'
p460
I25
sS'sound'
p461
I25
sS'look'
p462
I22
sS'these'
p463
I25
sS'cracker'
p464
I25
sS'n'
p465
I25
sS'will'
p466
I23
sS'ugly'
p467
I24
sS'evening'
p468
I25
sS'hahaha'
p469
I24
sS'passes'
p470
I25
sS'<3'
p471
I25
sS'almost'
p472
I25
sS'is'
p473
I9
sS'it'
p474
I12
sS'bros'
p475
I25
sS'pinky'
p476
I25
sS'cant'
p477
I25
sS'someone'
p478
I25
sS'im'
p479
I25
sS'in'
p480
I14
sS'ready'
p481
I25
sS'ave'
p482
I23
sS'mouse'
p483
I25
sS'if'
p484
I21
sS'hxc'
p485
I25
sS'funny'
p486
I25
sS'different'
p487
I25
sS'barney'
p488
I25
sS'make'
p489
I24
sS'1819'
p490
I25
sS'same'
p491
I25
sS'ya'
p492
I25
sS'pad'
p493
I25
sS'hahah'
p494
I24
sS'mindfuck'
p495
I25
sS'party'
p496
I23
sS'twitter\xe2\x80\x9d'
p497
I25
sS'all!!!:-)'
p498
I25
sS'tomatoes'
p499
I25
sS"weren't"
p500
I25
sS'week'
p501
I24
sS'ball'
p502
I25
sS'hang'
p503
I25
sS'hullo'
p504
I25
sS'rain'
p505
I25
sS'sigue'
p506
I25
sS'fridays'
p507
I25
sS'purpose'
p508
I25
sS'student'
p509
I25
sS'supper'
p510
I25
sS'caption'
p511
I25
sS'weird'
p512
I25
sS'kid'
p513
I25
sS'//'
p514
I25
sS'tracking'
p515
I20
sS'off'
p516
I23
sS'i'
p517
I1
sS'whole'
p518
I25
sS'well'
p519
I24
sS'anybody'
p520
I25
sS'thought'
p521
I25
sS'person'
p522
I25
sS'stubbed'
p523
I25
sS'twirl'
p524
I25
sS'the'
p525
I6
sS'sistah"'
p526
I25
sS'spend'
p527
I25
sS'comment'
p528
I25
sS'just'
p529
I21
sS'less'
p530
I24
sS'yea'
p531
I24
sS'money'
p532
I24
sS'sum1'
p533
I25
sS'skincare'
p534
I25
sS'thanks'
p535
I23
sS'plugged'
p536
I25
sS'yet'
p537
I25
sS'(bigger)'
p538
I25
sS'had'
p539
I24
sS'complain'
p540
I25
sS'4'
p541
I24
sS'has'
p542
I25
sS'big'
p543
I24
sS'familiar!:-)'
p544
I25
sS'early'
p545
I25
sS'ashleys'
p546
I25
sS'traffic'
p547
I23
sS'know'
p548
I18
sS'it.\xe2\x80\x9d'
p549
I25
sS'lady'
p550
I25
sS'projects'
p551
I25
sS'furniture'
p552
I25
sS'like'
p553
I22
sS'loser'
p554
I25
sS'night'
p555
I23
sS'roscoes'
p556
I25
sS'tower'
p557
I25
sS'works'
p558
I25
sS'right'
p559
I24
sS'ramkhamhaeng'
p560
I25
sS'people'
p561
I23
sS'fake'
p562
I25
sS'some'
p563
I21
sS'back'
p564
I23
sS'b4'
p565
I25
sS'hahaahaa'
p566
I25
sS'lips'
p567
I25
sS'homo'
p568
I25
sS'home'
p569
I22
sS'gonna'
p570
I25
sS'thinks'
p571
I25
sS'outs'
p572
I25
sS'for'
p573
I15
sS'everything'
p574
I22
sS'what?mom'
p575
I25
sS'bruhhh'
p576
I25
sS'cord'
p577
I25
sS'be'
p578
I22
sS'bold'
p579
I25
sS'power'
p580
I25
sS'seconds'
p581
I25
sS'lose'
p582
I25
sS'how'
p583
I23
sS'bp'
p584
I25
sS'post'
p585
I25
sS'by'
p586
I21
sS'plug'
p587
I25
sS'on'
p588
I5
sS'sister'
p589
I25
sS'fear\xe2\x9d\xa4\xef\xb8\x8f'
p590
I25
sS'would'
p591
I25
sS'oh'
p592
I24
sS'of'
p593
I22
sS'swear'
p594
I25
sS'stand'
p595
I25
sS'tongue'
p596
I25
sS'luck'
p597
I25
sS'seeing'
p598
I24
sS'own'
p599
I25
sS'marshall'
p600
I24
sS'bound'
p601
I25
sS'ppl'
p602
I25
sS'thankful'
p603
I25
sS'because'
p604
I24
sS'mikey'
p605
I25
sS'dreaming'
p606
I25
sS'your'
p607
I21
sS'her'
p608
I25
sS'crunk'
p609
I25
sS'weekend'
p610
I25
sS'support'
p611
I25
sS'there'
p612
I23
sS'ca)'
p613
I23
sS'lol'
p614
I24
sS'class'
p615
I25
sS'mondays'
p616
I25
sS'way'
p617
I25
sS'was'
p618
I13
sS'asfuck'
p619
I25
sS'\xe2\x9c\x88\xe2\x9b\x85'
p620
I25
sS'bitches'
p621
I25
sS'nametag'
p622
I25
sS'younger'
p623
I25
sS'but'
p624
I17
sS'idea'
p625
I25
sS'hear'
p626
I25
sS'228'
p627
I25
sS'lebouf'
p628
I25
sS'line'
p629
I24
sS'with'
p630
I20
sS'eat'
p631
I25
sS'\xe2\x99\xa1'
p632
I25
sS'pull'
p633
I25
sS'places'
p634
I25
sS"wasn't"
p635
I24
sS'j'
p636
I25
sS'up'
p637
I22
sS'us'
p638
I25
sS'perfectness'
p639
I25
sS'moneyyyyyyyyy'
p640
I25
sS'screamo'
p641
I25
sS'dare'
p642
I25
sS'later'
p643
I25
sS'constant'
p644
I25
sS'af'
p645
I24
sS'request'
p646
I25
sS'shia'
p647
I25
sS'am'
p648
I25
sS'hungry'
p649
I25
sS'as'
p650
I22
sS'at'
p651
I15
sS'moves'
p652
I25
sS'happen'
p653
I25
sS'shit'
p654
I22
sS'again'
p655
I25
sS'holy'
p656
I25
sS'no'
p657
I19
sS'when'
p658
I18
sS'dickkkkkkkkkkkkkkkk'
p659
I25
sS'til'
p660
I25
sS'drugs'
p661
I25
sS'other'
p662
I25
sS'test'
p663
I25
sS'you'
p664
I4
sS'vince'
p665
I25
sS'nice'
p666
I25
sS"'s"
p667
I25
sS'separate'
p668
I25
sS'shredded'
p669
I25
sS'felt'
p670
I25
sS"let's"
p671
I25
sS'booboo'
p672
I25
sS'professional'
p673
I25
sS'hair'
p674
I25
sS'friends'
p675
I22
sS'skydive'
p676
I25
sS"someone'"
p677
I25
sS'e'
p678
I24
sS'(san'
p679
I22
sS'ballmom:no'
p680
I25
sS'2000'
p681
I25
sS'hella'
p682
I25
sS'u'
p683
I23
sS'time'
p684
I18
sS'songs'
p685
I25
sS'starting'
p686
I25
sS'hello'
p687
I25
sS'once'
p688
I25
s.