(dp0
S''
p1
I2
sS'all'
p2
I25
sS':/'
p3
I34
sS':('
p4
I34
sS':)'
p5
I35
sS'stay"'
p6
I35
sS'dance'
p7
I35
sS'arbeloa'
p8
I35
sS'sleep'
p9
I28
sS'mooo'
p10
I35
sS'hating'
p11
I35
sS'go'
p12
I22
sS'gn'
p13
I35
sS'flashback'
p14
I35
sS'hate'
p15
I31
sS'sore'
p16
I35
sS'alcatraz'
p17
I35
sS'asada'
p18
I35
sS'21st'
p19
I35
sS'booty'
p20
I35
sS'college'
p21
I35
sS'vietnamese'
p22
I35
sS'tv'
p23
I35
sS'tweet'
p24
I35
sS'seriously'
p25
I35
sS'send'
p26
I35
sS'to'
p27
I3
sS'finally'
p28
I29
sS'347'
p29
I35
sS'bruhh'
p30
I34
sS'spain'
p31
I35
sS'late'
p32
I35
sS'bomb'
p33
I35
sS'must'
p34
I35
sS'worth'
p35
I34
sS'shawtys'
p36
I35
sS'paying'
p37
I35
sS'yr'
p38
I35
sS':o'
p39
I31
sS'wished'
p40
I35
sS'song'
p41
I35
sS'far'
p42
I31
sS'blanket'
p43
I35
sS'caught'
p44
I34
sS'pierce'
p45
I35
sS'vegan'
p46
I35
sS'vegas'
p47
I35
sS'every'
p48
I35
sS'blasters'
p49
I35
sS'fall'
p50
I35
sS'telling'
p51
I35
sS'ma'
p52
I35
sS'difference'
p53
I35
sS'mando'
p54
I35
sS'minute'
p55
I34
sS'cool'
p56
I31
sS'entire'
p57
I35
sS'school'
p58
I33
sS'beating'
p59
I35
sS'alma'
p60
I35
sS'cable'
p61
I35
sS'did'
p62
I32
sS'die'
p63
I34
sS'dig'
p64
I34
sS'laying'
p65
I35
sS'accidentally'
p66
I35
sS'handsome'
p67
I35
sS'leave'
p68
I34
sS'<3"'
p69
I35
sS'congrats'
p70
I35
sS'car'
p71
I33
sS'quick'
p72
I35
sS'guy'
p73
I32
sS'dodger'
p74
I35
sS'barbara'
p75
I35
sS'ride'
p76
I35
sS'bonfire'
p77
I35
sS"i'll"
p78
I35
sS'says'
p79
I35
sS'regret'
p80
I35
sS'tired'
p81
I35
sS'hanging'
p82
I35
sS'ted'
p83
I35
sS'cvs'
p84
I35
sS'past'
p85
I34
sS'talks'
p86
I35
sS'nbl'
p87
I34
sS'run'
p88
I35
sS'semifinals'
p89
I35
sS'blasted...on'
p90
I35
sS'even'
p91
I28
sS'what'
p92
I18
sS'plays'
p93
I34
sS'sub'
p94
I35
sS'pts'
p95
I35
sS'caffeine'
p96
I35
sS'guna'
p97
I33
sS'waiting'
p98
I33
sS'version'
p99
I35
sS'twins'
p100
I35
sS'goes'
p101
I35
sS'moobs'
p102
I35
sS'new'
p103
I34
sS'ever'
p104
I32
sS'filled'
p105
I35
sS'told'
p106
I34
sS'bresciano'
p107
I35
sS'power.\xe2\x80\xa6'
p108
I35
sS'wu-tang'
p109
I35
sS'full'
p110
I35
sS'lee'
p111
I35
sS'never'
p112
I32
sS'commercial'
p113
I35
sS'here'
p114
I34
sS'water'
p115
I35
sS'naww'
p116
I34
sS'let'
p117
I34
sS'making'
p118
I35
sS'alone'
p119
I33
sS're'
p120
I35
sS'strong'
p121
I35
sS'change'
p122
I35
sS'wait'
p123
I30
sS'boy'
p124
I34
sS'great'
p125
I34
sS'ref'
p126
I35
sS'teeth'
p127
I34
sS'healthy'
p128
I35
sS'impacted'
p129
I35
sS'k'
p130
I35
sS'leaving'
p131
I35
sS'stella'
p132
I35
sS'coaktails'
p133
I35
sS"i'd"
p134
I34
sS'bangs'
p135
I35
sS"weren't"
p136
I35
sS'pick'
p137
I33
sS'usually'
p138
I35
sS'california'
p139
I35
sS'weird'
p140
I33
sS'luck'
p141
I35
sS'makes'
p142
I34
sS'35cents'
p143
I35
sS'thats'
p144
I35
sS'julio'
p145
I35
sS'love'
p146
I25
sS'hiking'
p147
I34
sS'claim'
p148
I35
sS'zlatan'
p149
I35
sS'sgv'
p150
I35
sS'bro'
p151
I31
sS'put'
p152
I35
sS'semester'
p153
I34
sS'motor'
p154
I35
sS'game?lmao'
p155
I35
sS'crime'
p156
I35
sS'dosent'
p157
I35
sS'41-22'
p158
I35
sS'penalty'
p159
I35
sS'confidence'
p160
I35
sS'from'
p161
I28
sS'score'
p162
I35
sS'would'
p163
I31
sS'&'
p164
I34
sS'found'
p165
I35
sS'doodle'
p166
I35
sS'hungry'
p167
I34
sS'dude'
p168
I35
sS'two'
p169
I34
sS'by'
p170
I33
sS'rodriguez'
p171
I35
sS'live'
p172
I34
sS'(3366'
p173
I35
sS'call'
p174
I34
sS'until'
p175
I35
sS'roxanne'
p176
I35
sS'6'
p177
I34
sS'strike'
p178
I35
sS'rosemead'
p179
I31
sS'doing.:-)'
p180
I35
sS'today'
p181
I29
sS'more'
p182
I31
sS'teen'
p183
I33
sS'main'
p184
I35
sS'entrance'
p185
I35
sS'lineups'
p186
I35
sS'holy'
p187
I35
sS'club'
p188
I35
sS'calling'
p189
I35
sS'haha'
p190
I28
sS':-('
p191
I32
sS"doesn't..)"
p192
I35
sS'trail'
p193
I34
sS'effect'
p194
I35
sS'warm'
p195
I35
sS'loose'
p196
I35
sS'baby'
p197
I35
sS'hole'
p198
I35
sS'glad'
p199
I35
sS'women'
p200
I35
sS'me'
p201
I9
sS'05...suck'
p202
I35
sS'rice'
p203
I35
sS'word'
p204
I35
sS'room'
p205
I34
sS'niggas'
p206
I35
sS'this'
p207
I18
sS'gabriel'
p208
I34
sS'challenge'
p209
I35
sS'work'
p210
I32
sS'sucks'
p211
I35
sS'vs'
p212
I31
sS'can'
p213
I31
sS'dunno'
p214
I35
sS'knocked'
p215
I35
sS'meet'
p216
I35
sS'procastination'
p217
I35
sS'my'
p218
I5
sS'coulda'
p219
I35
sS'beautiful'
p220
I35
sS'heart'
p221
I33
sS'crazy'
p222
I34
sS'earphone'
p223
I35
sS'give'
p224
I34
sS'ralph_1948'
p225
I34
sS'awesome'
p226
I34
sS"didn't"
p227
I35
sS'fuck'
p228
I26
sS'high'
p229
I35
sS'heard'
p230
I35
sS'csuf'
p231
I35
sS'something'
p232
I32
sS'want'
p233
I20
sS'partner'
p234
I35
sS'blvd'
p235
I35
sS'station'
p236
I35
sS'csun'
p237
I34
sS'valle'
p238
I35
sS'swedish'
p239
I35
sS'needs'
p240
I33
sS'end'
p241
I35
sS'goal'
p242
I32
sS'thing'
p243
I35
sS'rather'
p244
I34
sS'breaking'
p245
I34
sS'finalist'
p246
I35
sS'benched'
p247
I35
sS'1'
p248
I33
sS'how'
p249
I26
sS'hot'
p250
I33
sS'slowliness'
p251
I35
sS'field'
p252
I35
sS'yum'
p253
I34
sS'beach'
p254
I34
sS'nonstop'
p255
I35
sS'stand'
p256
I35
sS'chores'
p257
I35
sS'laundry'
p258
I33
sS'book'
p259
I35
sS'funny'
p260
I35
sS'language'
p261
I35
sS'designated'
p262
I35
sS'insecure'
p263
I35
sS'nawww'
p264
I34
sS'tied'
p265
I35
sS'maite'
p266
I35
sS'crashed'
p267
I35
sS'wrong'
p268
I34
sS'birthday'
p269
I32
sS'4to'
p270
I35
sS'mad'
p271
I35
sS'tidying'
p272
I35
sS'scratchers'
p273
I35
sS'suck'
p274
I35
sS'fuhh'
p275
I34
sS'guys'
p276
I29
sS'man'
p277
I32
sS'a'
p278
I8
sS'dorms'
p279
I35
sS'whenever'
p280
I35
sS'maybe'
p281
I34
sS'lame'
p282
I35
sS'corona'
p283
I35
sS'showers>>>>'
p284
I35
sS'mango'
p285
I35
sS'so'
p286
I17
sS'haterade'
p287
I35
sS'things'
p288
I34
sS'furious'
p289
I34
sS'sg'
p290
I34
sS'playing'
p291
I34
sS"that's"
p292
I33
sS'cute'
p293
I35
sS'salon'
p294
I35
sS'mexican'
p295
I35
sS'help'
p296
I35
sS'burn'
p297
I35
sS"don't"
p298
I27
sS'"if'
p299
I35
sS'fam'
p300
I35
sS'soon'
p301
I33
sS'years'
p302
I35
sS'top'
p303
I35
sS'course'
p304
I35
sS'deducted'
p305
I35
sS'already'
p306
I35
sS'through'
p307
I34
sS'comfortable'
p308
I35
sS'oven'
p309
I35
sS'smart'
p310
I35
sS'hell'
p311
I35
sS'cold'
p312
I35
sS'still'
p313
I29
sS'its'
p314
I19
sS'galaxy'
p315
I35
sS'golfing'
p316
I35
sS'perfect'
p317
I35
sS'spotify'
p318
I35
sS'word..."(he'
p319
I35
sS'group'
p320
I34
sS'thank'
p321
I34
sS'la'
p322
I31
sS'then"'
p323
I35
sS'fix'
p324
I35
sS'birthdays'
p325
I35
sS'clubbing'
p326
I35
sS'actually'
p327
I35
sS'better'
p328
I34
sS'>>>'
p329
I35
sS'asking'
p330
I35
sS'bummer'
p331
I35
sS'tweets'
p332
I35
sS'mail'
p333
I35
sS'bout'
p334
I35
sS'bye'
p335
I34
sS'might'
p336
I35
sS'ahh'
p337
I35
sS'grandma:"what'
p338
I35
sS'dad'
p339
I33
sS'then'
p340
I31
sS'them'
p341
I29
sS'good'
p342
I27
sS'somebody'
p343
I35
sS'yo'
p344
I35
sS'enemy'
p345
I35
sS'moms'
p346
I35
sS'dam'
p347
I34
sS'unreal'
p348
I35
sS'sayyy'
p349
I35
sS'finish'
p350
I35
sS'dat'
p351
I35
sS'shuttle'
p352
I35
sS'hurting'
p353
I35
sS'starbucks'
p354
I33
sS'they'
p355
I29
sS'supposed'
p356
I35
sS'not'
p357
I24
sS'aka'
p358
I35
sS'now'
p359
I27
sS'day'
p360
I34
sS'foos'
p361
I32
sS'wont'
p362
I33
sS'bryan'
p363
I35
sS'algerian'
p364
I35
sS'inconsistencies'
p365
I35
sS'james'
p366
I34
sS'drop'
p367
I35
sS'explode'
p368
I35
sS'25'
p369
I35
sS'olic'
p370
I35
sS'went'
p371
I33
sS'persie'
p372
I35
sS'mater'
p373
I35
sS'bitch'
p374
I34
sS'em'
p375
I35
sS'gettin'
p376
I35
sS'lagging'
p377
I35
sS'house'
p378
I31
sS'energy'
p379
I35
sS'hard'
p380
I31
sS'ft'
p381
I35
sS'yeah'
p382
I33
sS'bamba'
p383
I35
sS'milan'
p384
I35
sS'catching'
p385
I35
sS'year'
p386
I33
sS'aaaaaaaaaaaaa'
p387
I35
sS'okay'
p388
I32
sS'girl'
p389
I33
sS'summary'
p390
I35
sS'frijoles'
p391
I35
sS'special'
p392
I35
sS'really'
p393
I27
sS'rt'
p394
I33
sS'living'
p395
I35
sS'sleepless'
p396
I35
sS'network'
p397
I35
sS'driving'
p398
I35
sS'garcia'
p399
I35
sS'god'
p400
I34
sS'since'
p401
I34
sS'marina'
p402
I35
sS'looking'
p403
I34
sS'cahill'
p404
I35
sS'misses'
p405
I35
sS'ftb'
p406
I35
sS"shouldn't"
p407
I35
sS'rap'
p408
I35
sS'hilarious'
p409
I35
sS'got'
p410
I30
sS'rn'
p411
I34
sS'cause'
p412
I33
sS'red'
p413
I35
sS'fomie'
p414
I33
sS'ass'
p415
I31
sS'makeup'
p416
I35
sS'asleep'
p417
I35
sS'grease'
p418
I35
sS"doesn't"
p419
I35
sS'frank'
p420
I35
sS'friday'
p421
I34
sS'fave'
p422
I35
sS'little'
p423
I34
sS'abdomen'
p424
I35
sS'worries'
p425
I35
sS'reason'
p426
I35
sS'que'
p427
I35
sS'lab'
p428
I35
sS'grandma'
p429
I35
sS'ask'
p430
I34
sS'van'
p431
I35
sS'wanted'
p432
I35
sS'havent'
p433
I34
sS'100+'
p434
I35
sS'dayum'
p435
I35
sS'jozy'
p436
I35
sS'yup'
p437
I35
sS'could'
p438
I31
sS'wah'
p439
I35
sS'running'
p440
I35
sS'keep'
p441
I35
sS'turn'
p442
I34
sS'american'
p443
I35
sS'fc'
p444
I35
sS'place'
p445
I33
sS'w'
p446
I35
sS'target'
p447
I35
sS'subtweeting'
p448
I34
sS'quintorris'
p449
I35
sS'think'
p450
I31
sS'south'
p451
I35
sS'first'
p452
I31
sS'blind'
p453
I35
sS'claudia'
p454
I35
sS'finest'
p455
I35
sS'undie'
p456
I35
sS'dont'
p457
I28
sS'feel'
p458
I28
sS'ibrahimovic'
p459
I35
sS'one'
p460
I27
sS's*'
p461
I35
sS'shout'
p462
I35
sS'done'
p463
I34
sS'fast'
p464
I33
sS'another'
p465
I34
sS'spanish'
p466
I35
sS'vote'
p467
I35
sS'impossible'
p468
I35
sS'message'
p469
I35
sS'sad'
p470
I35
sS'miss'
p471
I32
sS'tomorrow'
p472
I33
sS'pasa'
p473
I35
sS"you're"
p474
I34
sS'guess'
p475
I34
sS'long'
p476
I34
sS'heads'
p477
I35
sS'stuck'
p478
I35
sS'5th'
p479
I34
sS'7-eleven'
p480
I35
sS'girls'
p481
I34
sS'sis'
p482
I35
sS'least'
p483
I35
sS'anyone'
p484
I35
sS'their'
p485
I33
sS'attack'
p486
I35
sS'2'
p487
I33
sS'draft'
p488
I35
sS'too'
p489
I22
sS'passed'
p490
I35
sS'vip'
p491
I35
sS'aver'
p492
I35
sS'legs'
p493
I35
sS'picza'
p494
I35
sS'final'
p495
I35
sS'store'
p496
I35
sS'listen'
p497
I35
sS'meme'
p498
I35
sS"paul's"
p499
I35
sS'hug'
p500
I35
sS'lot'
p501
I35
sS'that'
p502
I16
sS'season'
p503
I33
sS'2am'
p504
I35
sS'took'
p505
I35
sS'boba'
p506
I35
sS'condoleezza'
p507
I35
sS'dentist'
p508
I35
sS'digo'
p509
I35
sS'(rosemead'
p510
I34
sS'doctors'
p511
I35
sS'believe'
p512
I35
sS'than'
p513
I34
sS'3rd'
p514
I35
sS'boyfriend'
p515
I35
sS'"good'
p516
I35
sS'loved'
p517
I35
sS'kind'
p518
I35
sS"feelin'"
p519
I35
sS'lmao'
p520
I31
sS'boring'
p521
I35
sS'gotta'
p522
I34
sS'scenes'
p523
I35
sS'bed'
p524
I32
sS'salvadorian'
p525
I35
sS'matter'
p526
I35
sS'r'
p527
I34
sS'dank'
p528
I35
sS'friend'
p529
I35
sS'wins'
p530
I35
sS'sister'
p531
I33
sS'counselor'
p532
I35
sS'steep'
p533
I35
sS'piggy'
p534
I35
sS'and'
p535
I9
sS'mini'
p536
I35
sS'false'
p537
I35
sS'san'
p538
I34
sS'villein'
p539
I35
sS'lottaa'
p540
I35
sS'ran'
p541
I35
sS'pro'
p542
I35
sS'reunion'
p543
I35
sS'mind'
p544
I35
sS'mine'
p545
I35
sS'glass'
p546
I35
sS'passadena'
p547
I35
sS'tonight'
p548
I32
sS'us:"it'
p549
I35
sS'say'
p550
I33
sS'mornings'
p551
I35
sS'now..when'
p552
I35
sS'have'
p553
I24
sS'need'
p554
I28
sS'seen'
p555
I34
sS'breakfast'
p556
I35
sS'saw'
p557
I35
sS'nights'
p558
I35
sS'min'
p559
I35
sS'allergies'
p560
I34
sS'vertongen'
p561
I34
sS'budlight'
p562
I35
sS'zoo'
p563
I35
sS'also'
p564
I34
sS'squad'
p565
I35
sS'1yr'
p566
I35
sS'take'
p567
I30
sS'predicted'
p568
I35
sS'truck'
p569
I35
sS'grandma:"give'
p570
I35
sS';-)'
p571
I35
sS'ortiz"'
p572
I35
sS'play'
p573
I34
sS'sure'
p574
I32
sS'pain'
p575
I35
sS'though'
p576
I33
sS'doin'
p577
I35
sS'who'
p578
I28
sS'gab_bee25'
p579
I35
sS'germany'
p580
I35
sS'plus'
p581
I35
sS'conceded'
p582
I35
sS'nothing'
p583
I34
sS'alpha'
p584
I35
sS'future'
p585
I35
sS'why'
p586
I27
sS'(efam)'
p587
I35
sS'soo'
p588
I34
sS'stupid'
p589
I35
sS'especially'
p590
I35
sS'bug'
p591
I35
sS'won'
p592
I35
sS'eachother'
p593
I35
sS'sometimes'
p594
I33
sS'flow'
p595
I35
sS'mechiladas'
p596
I34
sS'face'
p597
I33
sS'looked'
p598
I35
sS'labtop'
p599
I35
sS'pictures'
p600
I35
sS'senior'
p601
I35
sS'came'
p602
I35
sS'saying'
p603
I35
sS'ugh'
p604
I34
sS'shot'
p605
I34
sS'show'
p606
I33
sS'text'
p607
I35
sS'agreed'
p608
I35
sS'random'
p609
I33
sS'cheap'
p610
I35
sS'tagged'
p611
I35
sS'carne'
p612
I35
sS'radio'
p613
I35
sS'they*'
p614
I35
sS'fear'
p615
I35
sS'find'
p616
I31
sS'decade'
p617
I35
sS'aint'
p618
I34
sS'busy'
p619
I35
sS'knowledge'
p620
I35
sS'zumba'
p621
I35
sS'sparks'
p622
I35
sS'nervous'
p623
I34
sS'kum'
p624
I35
sS'should'
p625
I28
sS'to\xe2\x80\xa6'
p626
I35
sS'yea'
p627
I35
sS'only'
p628
I33
sS'going'
p629
I29
sS'pretty'
p630
I28
sS'8'
p631
I35
sS'warriorette'
p632
I35
sS'hope'
p633
I30
sS'do'
p634
I20
sS'his'
p635
I34
sS'hit'
p636
I35
sS'dk'
p637
I35
sS'uncles'
p638
I35
sS'get'
p639
I16
sS'halftime'
p640
I35
sS'horrible'
p641
I35
sS'watch'
p642
I34
sS'ahahaha'
p643
I35
sS'listener'
p644
I35
sS'tbh'
p645
I31
sS'cannot'
p646
I34
sS'despite'
p647
I35
sS'du'
p648
I35
sS'him'
p649
I30
sS'holland'
p650
I35
sS'professors'
p651
I35
sS'sunburnt'
p652
I35
sS'rft'
p653
I35
sS'nicely'
p654
I35
sS'rosemead)'
p655
I35
sS'ughh'
p656
I35
sS'craving'
p657
I35
sS'packed'
p658
I35
sS'morning'
p659
I33
sS":'("
p660
I35
sS'bag'
p661
I35
sS'bad'
p662
I33
sS'stuff'
p663
I34
sS'she'
p664
I25
sS'shots'
p665
I35
sS'hike'
p666
I35
sS'yassss'
p667
I35
sS'where'
p668
I32
sS'ears'
p669
I34
sS'nooo'
p670
I35
sS'fair'
p671
I35
sS'habit'
p672
I35
sS'enjoyed'
p673
I35
sS'lazy'
p674
I35
sS'rosarito'
p675
I35
sS'see'
p676
I28
sS'defense'
p677
I35
sS'dumb'
p678
I35
sS'are'
p679
I18
sS'snapchatting'
p680
I35
sS'close'
p681
I34
sS'o_o'
p682
I33
sS'motherfuckerrr'
p683
I35
sS'paul'
p684
I35
sS'best'
p685
I33
sS'wonder'
p686
I30
sS'pete'
p687
I35
sS'said'
p688
I35
sS'pomade'
p689
I35
sS'visiting'
p690
I35
sS'24/7'
p691
I35
sS'movie'
p692
I34
sS'away'
p693
I34
sS'missing'
p694
I35
sS'ups'
p695
I35
sS'refs'
p696
I35
sS'3'
p697
I34
sS"there's"
p698
I33
sS'hopefully'
p699
I35
sS'probably'
p700
I35
sS'nope'
p701
I35
sS'bought'
p702
I34
sS'knowing'
p703
I35
sS'ima'
p704
I35
sS'we'
p705
I26
sS'univision'
p706
I35
sS'omg'
p707
I32
sS'trynna'
p708
I35
sS'opening'
p709
I35
sS'literally'
p710
I35
sS"connie's"
p711
I35
sS'"phoenix."'
p712
I35
sS'disturbance'
p713
I35
sS'coffee'
p714
I35
sS'wtf'
p715
I35
sS'jk'
p716
I32
sS'wth'
p717
I33
sS'cousin'
p718
I35
sS'picking'
p719
I35
sS'come'
p720
I34
sS'emceed'
p721
I35
sS'coaktail'
p722
I35
sS'stages'
p723
I35
sS'last'
p724
I30
sS'mega'
p725
I35
sS'met'
p726
I35
sS'many'
p727
I34
sS'ill'
p728
I33
sS"he's"
p729
I35
sS'hours'
p730
I35
sS'oh'
p731
I35
sS'grandmas'
p732
I35
sS'altidore'
p733
I35
sS'retarded'
p734
I34
sS'<<<<'
p735
I35
sS'whole'
p736
I34
sS'asked'
p737
I35
sS"can't"
p738
I35
sS'ucr'
p739
I33
sS'drunk'
p740
I33
sS'simple'
p741
I35
sS'ganna'
p742
I34
sS'sleepover'
p743
I35
sS'walk'
p744
I35
sS'60'
p745
I35
sS'want"'
p746
I35
sS'yelling'
p747
I35
sS'likes'
p748
I35
sS'shutdown'
p749
I35
sS'freak'
p750
I35
sS'custody'
p751
I35
sS'duh'
p752
I35
sS'save'
p753
I35
sS'light'
p754
I35
sS'yay'
p755
I34
sS'xabi'
p756
I35
sS'chiken'
p757
I35
sS"it's"
p758
I28
sS"meaning>>>today's"
p759
I35
sS'fro'
p760
I35
sS'shitball'
p761
I35
sS'been'
p762
I24
sS'star."'
p763
I35
sS'freeway'
p764
I35
sS'much'
p765
I31
sS'damn'
p766
I34
sS'grade'
p767
I35
sS'parents'
p768
I35
sS'celebration'
p769
I35
sS'woke'
p770
I34
sS'selina'
p771
I35
sS'bgc'
p772
I35
sS'life'
p773
I33
sS'shopping'
p774
I34
sS'deeper'
p775
I34
sS'ihenacho'
p776
I35
sS'with'
p777
I25
sS'hmu'
p778
I34
sS'-"you'
p779
I35
sS'exposed'
p780
I35
sS'else'
p781
I35
sS'hmm'
p782
I32
sS'finished'
p783
I34
sS'understand'
p784
I34
sS'-.-'
p785
I20
sS'chile'
p786
I35
sS'bull'
p787
I35
sS'niece'
p788
I35
sS"cavani's"
p789
I35
sS'an'
p790
I34
sS'tries'
p791
I35
sS'those'
p792
I35
sS'croatians'
p793
I35
sS'sound'
p794
I34
sS'myself'
p795
I35
sS'aaron'
p796
I35
sS'casa'
p797
I35
sS'look'
p798
I33
sS'talking'
p799
I35
sS'these'
p800
I35
sS'2011'
p801
I35
sS'tribal'
p802
I35
sS'hw'
p803
I35
sS'cash'
p804
I35
sS'<'
p805
I35
sS'will'
p806
I29
sS'ugly'
p807
I35
sS'while'
p808
I33
sS'suppose'
p809
I35
sS'seasickness'
p810
I35
sS'shall'
p811
I35
sS'hahaha'
p812
I35
sS'cracked'
p813
I35
sS'taking'
p814
I33
sS'rent'
p815
I35
sS'ive'
p816
I35
sS'stop'
p817
I35
sS'<3'
p818
I31
sS'portugal'
p819
I34
sS'mexico'
p820
I34
sS'almost'
p821
I33
sS'1:30'
p822
I35
sS'is'
p823
I6
sS'walks'
p824
I35
sS'it'
p825
I11
sS'sleeping'
p826
I34
sS'fucken'
p827
I35
sS'shame'
p828
I35
sS'cant'
p829
I23
sS'someone'
p830
I32
sS'im'
p831
I14
sS'in'
p832
I10
sS'bucks'
p833
I35
sS'if'
p834
I24
sS'grown'
p835
I35
sS'helmet'
p836
I35
sS'intense'
p837
I35
sS'excuse'
p838
I35
sS'broke'
p839
I35
sS'shirt'
p840
I35
sS'open'
p841
I35
sS'noooo'
p842
I35
sS'pay'
p843
I33
sS'make'
p844
I30
sS'same'
p845
I34
sS'trip'
p846
I35
sS'furia'
p847
I35
sS'speech'
p848
I35
sS'hahah'
p849
I35
sS'uegh'
p850
I35
sS'9'
p851
I34
sS'gets'
p852
I35
sS'eww'
p853
I34
sS'week'
p854
I33
sS'striker'
p855
I35
sS'spell'
p856
I35
sS'pho'
p857
I35
sS'iker'
p858
I35
sS'drink'
p859
I35
sS'driver'
p860
I35
sS'yesterday'
p861
I35
sS'hand'
p862
I35
sS'popcorn'
p863
I35
sS'moment'
p864
I34
sS'strength'
p865
I35
sS'cleaning'
p866
I35
sS'wallaby'
p867
I35
sS"crossfit's"
p868
I35
sS"i'm"
p869
I24
sS'euro'
p870
I35
sS'\xe2\x9c\x8c\xef\xb8\x8f'
p871
I35
sS'lower'
p872
I35
sS'off'
p873
I30
sS'werewolf'
p874
I35
sS'i'
p875
I1
sS'know..ima'
p876
I35
sS'floor'
p877
I35
sS'well'
p878
I32
sS'spent'
p879
I35
sS'fighting'
p880
I35
sS'mercy'
p881
I35
sS'tho'
p882
I30
sS'without'
p883
I35
sS'mother'
p884
I35
sS'very'
p885
I35
sS'mikaela'
p886
I35
sS'the'
p887
I4
sS'bounced'
p888
I35
sS'canceled'
p889
I35
sS'matter"'
p890
I35
sS'summer'
p891
I35
sS'\xe2\x98\xba\xef\xb8\x8f'
p892
I35
sS'just'
p893
I19
sS'being'
p894
I34
sS'ratchet'
p895
I35
sS'(-'
p896
I35
sS'sleepy'
p897
I35
sS'rule'
p898
I35
sS'mid'
p899
I35
sS'front'
p900
I35
sS'kill'
p901
I33
sS'thanks'
p902
I35
sS'rocked'
p903
I35
sS'yep'
p904
I35
sS'yes'
p905
I33
sS'lol"and'
p906
I35
sS'yet'
p907
I35
sS'ps4'
p908
I35
sS'foreva'
p909
I35
sS'move'
p910
I35
sS'ohh'
p911
I35
sS'cut'
p912
I34
sS'family'
p913
I35
sS'cup'
p914
I34
sS'thinking'
p915
I35
sS'queen'
p916
I35
sS'point'
p917
I35
sS'had'
p918
I30
sS'cuz'
p919
I31
sS'realize'
p920
I35
sS'battery'
p921
I35
sS'add'
p922
I35
sS'interested'
p923
I35
sS'givin'
p924
I35
sS'crying'
p925
I33
sS'starbucks)'
p926
I32
sS'snap'
p927
I34
sS'as'
p928
I35
sS'has'
p929
I33
sS'excited'
p930
I35
sS'surprised'
p931
I35
sS'gave'
p932
I34
sS'real'
p933
I29
sS'wised'
p934
I35
sS'babacakes'
p935
I35
sS'gris'
p936
I35
sS'loss'
p937
I35
sS'checking'
p938
I35
sS'big'
p939
I33
sS'breaks'
p940
I35
sS'gonna'
p941
I34
sS'early'
p942
I35
sS'game'
p943
I31
sS'know'
p944
I21
sS'mom'
p945
I28
sS'performance'
p946
I35
sS'world'
p947
I33
sS'nvm'
p948
I35
sS'cd'
p949
I35
sS'disappointed'
p950
I35
sS'projects'
p951
I35
sS'brought'
p952
I35
sS'"gerardo'
p953
I35
sS'puppy'
p954
I35
sS'like'
p955
I15
sS'sincerely'
p956
I35
sS'sucias'
p957
I35
sS'incorrigible"-"i'
p958
I35
sS'50'
p959
I35
sS'serves'
p960
I35
sS'remind'
p961
I34
sS'popoo'
p962
I35
sS'either'
p963
I35
sS'always'
p964
I29
sS'everyone'
p965
I35
sS'tower'
p966
I35
sS'works'
p967
I35
sS'soccer'
p968
I35
sS'right'
p969
I30
sS'old'
p970
I34
sS'laugh'
p971
I35
sS'people'
p972
I30
sS'madrid'
p973
I35
sS'twitter'
p974
I35
sS'some'
p975
I30
sS'back'
p976
I31
sS'10'
p977
I35
sS'werk'
p978
I35
sS'hair'
p979
I33
sS'manuel'
p980
I35
sS'clubs'
p981
I35
sS'added'
p982
I35
sS'undiscovered"'
p983
I35
sS'goin'
p984
I35
sS'niggu'
p985
I35
sS'sunday'
p986
I35
sS'home'
p987
I26
sS'liking'
p988
I35
sS'classes'
p989
I35
sS'creep'
p990
I35
sS'stiles'
p991
I35
sS'tmr'
p992
I34
sS':-o'
p993
I35
sS'for'
p994
I8
sS'grading'
p995
I35
sS"dolla's"
p996
I35
sS"where'd"
p997
I35
sS':-d'
p998
I34
sS'everything'
p999
I34
sS'does'
p1000
I34
sS'oatmeal'
p1001
I35
sS'23rd'
p1002
I35
sS':-p'
p1003
I32
sS'foo'
p1004
I35
sS'911'
p1005
I35
sS'forgets'
p1006
I35
sS'be'
p1007
I12
sS"sophie's"
p1008
I35
sS'knew'
p1009
I35
sS'eating'
p1010
I35
sS'business'
p1011
I35
sS'bc'
p1012
I32
sS'lmfao'
p1013
I35
sS'night'
p1014
I33
sS'plz'
p1015
I35
sS'feelings'
p1016
I35
sS'x-/'
p1017
I35
sS'arriba'
p1018
I35
sS'consolation'
p1019
I35
sS'nerves'
p1020
I35
sS'lottery'
p1021
I35
sS';)'
p1022
I35
sS'prepared'
p1023
I35
sS'super'
p1024
I35
sS'offside'
p1025
I34
sS'panel'
p1026
I35
sS'on'
p1027
I13
sS'about'
p1028
I30
sS':-)'
p1029
I27
sS'ok'
p1030
I35
sS':-/'
p1031
I25
sS'anything'
p1032
I33
sS'getting'
p1033
I32
sS'of'
p1034
I12
sS'ids'
p1035
I35
sS'graduation'
p1036
I35
sS'shrimp'
p1037
I34
sS'dinner'
p1038
I35
sS'swear'
p1039
I34
sS'wolf'
p1040
I33
sS'idk'
p1041
I27
sS'deserve'
p1042
I35
sS'bucks.good'
p1043
I35
sS'marisela'
p1044
I35
sS'connected'
p1045
I35
sS'mean'
p1046
I35
sS'wanna'
p1047
I30
sS'or'
p1048
I29
sS'plan'
p1049
I35
sS'seeing'
p1050
I31
sS'wyd'
p1051
I35
sS'own'
p1052
I33
sS'letters'
p1053
I35
sS'burning'
p1054
I35
sS'visit'
p1055
I35
sS'into'
p1056
I33
sS'bound'
p1057
I35
sS'snapchat'
p1058
I33
sS'ppl'
p1059
I35
sS'down'
p1060
I30
sS'lies'
p1061
I35
sS'because'
p1062
I32
sS'concede'
p1063
I35
sS'parties'
p1064
I35
sS'next'
p1065
I28
sS'your'
p1066
I25
sS'negotiable'
p1067
I35
sS'wack'
p1068
I35
sS'story'
p1069
I35
sS'her'
p1070
I28
sS'area'
p1071
I35
sS'friends'
p1072
I34
sS'there'
p1073
I32
sS'ca)'
p1074
I34
sS'lol'
p1075
I10
sS'fight'
p1076
I35
sS'start'
p1077
I35
sS'awks'
p1078
I35
sS'low'
p1079
I35
sS'way'
p1080
I34
sS'bruh'
p1081
I35
sS'forward'
p1082
I34
sS'music'
p1083
I35
sS'bored'
p1084
I34
sS'was'
p1085
I16
sS'pasadena'
p1086
I35
sS'happy'
p1087
I28
sS'...there'
p1088
I35
sS'head'
p1089
I35
sS'things."'
p1090
I35
sS'northridge'
p1091
I35
sS'0-1'
p1092
I35
sS'form'
p1093
I35
sS'hs'
p1094
I34
sS'layed'
p1095
I35
sS'bitches'
p1096
I35
sS'forever'
p1097
I35
sS'but'
p1098
I20
sS'crys'
p1099
I35
sS'taken'
p1100
I35
sS'heat'
p1101
I35
sS'/_\xe2\x80\xa2'
p1102
I35
sS'hear'
p1103
I34
sS'mikey'
p1104
I35
sS'straight'
p1105
I35
sS'didnt'
p1106
I35
sS'line'
p1107
I35
sS'trying'
p1108
I35
sS'true'
p1109
I34
sS'eat'
p1110
I34
sS'buying'
p1111
I35
sS'he'
p1112
I25
sS'info'
p1113
I35
sS"they're"
p1114
I35
sS'made'
p1115
I34
sS'jonas'
p1116
I35
sS'places'
p1117
I35
sS'siren'
p1118
I35
sS'wish'
p1119
I33
sS'shhhhhh'
p1120
I35
sS'up'
p1121
I19
sS'us'
p1122
I34
sS'ur'
p1123
I30
sS'freddy'
p1124
I35
sS'ul'
p1125
I35
sS'un'
p1126
I35
sS'facetimed'
p1127
I35
sS'played'
p1128
I35
sS'acting'
p1129
I35
sS'cake'
p1130
I34
sS'problem'
p1131
I35
sS'piece'
p1132
I32
sS'overall'
p1133
I35
sS'called'
p1134
I35
sS'shes'
p1135
I35
sS'bell'
p1136
I35
sS'later'
p1137
I35
sS'hellman'
p1138
I35
sS'videos'
p1139
I35
sS'af'
p1140
I34
sS'pic'
p1141
I35
sS'am'
p1142
I32
sS'mike'
p1143
I35
sS'guzman'
p1144
I35
sS'drive'
p1145
I34
sS'deprive'
p1146
I35
sS'single'
p1147
I34
sS'sharing'
p1148
I35
sS'at'
p1149
I15
sS'chat'
p1150
I34
sS'our'
p1151
I35
sS'payy'
p1152
I35
sS'who?i'
p1153
I35
sS'mrs'
p1154
I35
sS'happen'
p1155
I35
sS'shit'
p1156
I26
sS'ice'
p1157
I35
sS'again'
p1158
I31
sS'shit/who'
p1159
I35
sS'aunts'
p1160
I35
sS'no'
p1161
I25
sS'hint'
p1162
I35
sS'when'
p1163
I24
sS'40'
p1164
I35
sS'graduate'
p1165
I35
sS'til'
p1166
I34
sS'fire'
p1167
I35
sS'nap'
p1168
I34
sS'other'
p1169
I35
sS'5'
p1170
I34
sS'sick'
p1171
I35
sS'someones'
p1172
I35
sS'you'
p1173
I7
sS'out'
p1174
I24
sS"'11"
p1175
I35
sS'nice'
p1176
I32
sS'picture'
p1177
I32
sS'sunshine'
p1178
I35
sS'brothers'
p1179
I35
sS'flaws'
p1180
I35
sS'class'
p1181
I35
sS'football'
p1182
I34
sS'june'
p1183
I35
sS'update'
p1184
I35
sS'visits'
p1185
I35
sS'stay'
p1186
I34
sS'meaning'
p1187
I35
sS';p'
p1188
I35
sS'kinda'
p1189
I33
sS'fresh'
p1190
I35
sS'spenca'
p1191
I35
sS'hurt'
p1192
I35
sS'weekend'
p1193
I33
sS'tottenham'
p1194
I35
sS'died'
p1195
I35
sS'missed'
p1196
I35
sS'workin'
p1197
I35
sS'carbs'
p1198
I35
sS'land'
p1199
I34
sS'longer'
p1200
I35
sS'phone'
p1201
I33
sS'puts'
p1202
I35
sS'space'
p1203
I35
sS'working'
p1204
I35
sS'fest'
p1205
I35
sS'together'
p1206
I35
sS'u'
p1207
I19
sS'time'
p1208
I19
sS'walker'
p1209
I35
sS'wake'
p1210
I35
sS'playlists'
p1211
I35
sS'once'
p1212
I35
sS'having'
p1213
I32
sS'reminds'
p1214
I35
s.