(dp0
S''
p1
I3
sS'monterey'
p2
I32
sS'all'
p3
I12
sS':('
p4
I31
sS':)'
p5
I30
sS'cynthia'
p6
I29
sS'neigh'
p7
I32
sS'go...if'
p8
I32
sS'month'
p9
I31
sS'sleep'
p10
I29
sS'ice'
p11
I32
sS'hahahahahahahahahaaha'
p12
I32
sS'hating'
p13
I32
sS'go'
p14
I20
sS'gn'
p15
I32
sS'hate'
p16
I20
sS'issues'
p17
I32
sS'forget'
p18
I32
sS'apartment'
p19
I32
sS'tv'
p20
I32
sS'to'
p21
I2
sS'finally'
p22
I32
sS'weather'
p23
I32
sS'sorry'
p24
I31
sS'ilysm'
p25
I32
sS'brown'
p26
I32
sS'woman'
p27
I31
sS'sitting'
p28
I32
sS'hannah'
p29
I32
sS'horror'
p30
I32
sS'\xec\x9e\x98\xec\x9e\x90\xec\x9a\x94~~~~'
p31
I32
sS'eyelashes'
p32
I31
sS'gimmie'
p33
I32
sS'facebook'
p34
I31
sS'jack'
p35
I32
sS'fall'
p36
I32
sS'cook'
p37
I32
sS'drinking'
p38
I32
sS'fuckkkk'
p39
I32
sS'condition'
p40
I32
sS'cool'
p41
I32
sS'school'
p42
I27
sS'washing'
p43
I32
sS'staples'
p44
I32
sS'did'
p45
I31
sS'die'
p46
I32
sS'wednesday'
p47
I31
sS'finalllllly'
p48
I32
sS'leave'
p49
I32
sS'this'
p50
I16
sS'soooo'
p51
I31
sS'settle'
p52
I32
sS'team'
p53
I32
sS'groceries'
p54
I32
sS'clothes'
p55
I31
sS"i'll"
p56
I28
sS'\xee\x90\x8f'
p57
I32
sS'work'
p58
I31
sS'tired'
p59
I21
sS'books'
p60
I32
sS'sigh'
p61
I32
sS'...anyways...to'
p62
I32
sS'...for'
p63
I32
sS'bake'
p64
I32
sS'honors'
p65
I32
sS'even'
p66
I26
sS'what'
p67
I24
sS'chillin'
p68
I32
sS'near'
p69
I32
sS'crush'
p70
I31
sS'twins'
p71
I32
sS'dimsum'
p72
I32
sS'goes'
p73
I31
sS'new'
p74
I30
sS'learned'
p75
I32
sS'emily'
p76
I32
sS'ever'
p77
I31
sS'bird'
p78
I32
sS'told'
p79
I32
sS'np(-'
p80
I32
sS'full'
p81
I30
sS"c'mon"
p82
I32
sS'mel'
p83
I32
sS'never'
p84
I28
sS'diamondddss'
p85
I32
sS'here'
p86
I30
sS'water'
p87
I31
sS'slow'
p88
I32
sS'let'
p89
I31
sS'alone'
p90
I30
sS'goodmorning'
p91
I32
sS'earthquake'
p92
I32
sS'wait'
p93
I32
sS'great'
p94
I28
sS'kids'
p95
I32
sS'yessss'
p96
I32
sS'didnt'
p97
I32
sS'changed'
p98
I32
sS'reason'
p99
I32
sS'bitchhhhh'
p100
I32
sS'accomplished'
p101
I31
sS"i'd"
p102
I30
sS'pick'
p103
I32
sS'heartbroken'
p104
I32
sS'california'
p105
I32
sS"i'm"
p106
I10
sS'theres'
p107
I32
sS'makes'
p108
I30
sS'montreal'
p109
I32
sS'soulmate"\xe2\x80\x9d'
p110
I32
sS'teenage'
p111
I32
sS'love'
p112
I13
sS'family'
p113
I31
sS'nooooooooo'
p114
I32
sS'graders'
p115
I32
sS'loi'
p116
I32
sS'marina'
p117
I32
sS'todayyyy'
p118
I32
sS'dumbest'
p119
I32
sS'gosh'
p120
I32
sS'yourself'
p121
I32
sS'...lots'
p122
I32
sS'use'
p123
I32
sS'embarassing'
p124
I32
sS'from'
p125
I30
sS'would'
p126
I30
sS'&'
p127
I32
sS'dude'
p128
I28
sS'two'
p129
I31
sS'next'
p130
I31
sS'procrastinate'
p131
I32
sS'live'
p132
I30
sS'music'
p133
I31
sS'calm'
p134
I31
sS'gorgeous'
p135
I32
sS'strike'
p136
I32
sS'means'
p137
I32
sS'albertsons'
p138
I32
sS'until'
p139
I31
sS'today'
p140
I25
sS'more'
p141
I31
sS'diamond'
p142
I32
sS'replaced'
p143
I32
sS'haha'
p144
I30
sS'occurred'
p145
I32
sS'award'
p146
I32
sS'stressing'
p147
I32
sS'phone'
p148
I32
sS'train'
p149
I32
sS"ain't"
p150
I32
sS'stick'
p151
I32
sS'baby'
p152
I31
sS'hold'
p153
I32
sS'glad'
p154
I32
sS'justin'
p155
I31
sS'me'
p156
I11
sS'account'
p157
I32
sS'mf'
p158
I32
sS'room'
p159
I31
sS'hour'
p160
I32
sS'lolol'
p161
I32
sS'damien'
p162
I31
sS'car'
p163
I32
sS'ride'
p164
I32
sS'getting'
p165
I31
sS'flu'
p166
I32
sS'cant'
p167
I32
sS'happiest'
p168
I32
sS'worth'
p169
I32
sS'movies'
p170
I32
sS'sudden'
p171
I32
sS'can'
p172
I22
sS'learn'
p173
I32
sS'following'
p174
I32
sS':-('
p175
I32
sS'isabellas'
p176
I32
sS'my'
p177
I6
sS'alyssa'
p178
I32
sS'def'
p179
I32
sS'hip'
p180
I32
sS'snacks'
p181
I32
sS'skype'
p182
I32
sS"didn't"
p183
I32
sS'fuck'
p184
I19
sS'terrible'
p185
I32
sS'heard'
p186
I32
sS'p&r'
p187
I32
sS'something'
p188
I32
sS'want'
p189
I17
sS'voice'
p190
I32
sS'stole'
p191
I32
sS'pink'
p192
I32
sS'huge'
p193
I32
sS'needs'
p194
I32
sS'end'
p195
I30
sS'goal'
p196
I32
sS'final??!!!!:-((('
p197
I32
sS'country'
p198
I32
sS'get'
p199
I19
sS'freezer'
p200
I32
sS'1'
p201
I31
sS'how'
p202
I22
sS'hot'
p203
I29
sS'hop'
p204
I32
sS'beach'
p205
I32
sS'dope'
p206
I32
sS'map'
p207
I32
sS'okay'
p208
I32
sS'tried'
p209
I32
sS'beauty'
p210
I30
sS'algebra'
p211
I32
sS'bday'
p212
I28
sS'watch'
p213
I32
sS'after'
p214
I30
sS'is!"'
p215
I32
sS'islamic'
p216
I32
sS'wrong'
p217
I32
sS'birthday'
p218
I29
sS'retweets*'
p219
I32
sS'lay'
p220
I31
sS'hahahaha'
p221
I31
sS'such'
p222
I31
sS'man'
p223
I30
sS'a'
p224
I5
sS'realized'
p225
I31
sS'-___-'
p226
I32
sS'johnson'
p227
I32
sS'whenever'
p228
I32
sS'maybe'
p229
I32
sS'augh..so'
p230
I32
sS'dragon'
p231
I32
sS'cannot'
p232
I32
sS'honestly'
p233
I31
sS'shade'
p234
I32
sS'pay'
p235
I32
sS'putting'
p236
I32
sS'anhyounghaseyo'
p237
I32
sS'dream'
p238
I30
sS'playing'
p239
I32
sS'talk'
p240
I30
sS"that's"
p241
I27
sS'cute'
p242
I32
sS'help'
p243
I30
sS"don't"
p244
I18
sS'well.\xe2\x80\x9dyyyaaaaaaassss'
p245
I32
sS'over'
p246
I27
sS'sooo'
p247
I29
sS'years'
p248
I31
sS'course'
p249
I32
sS'sick...fuckkkkkk'
p250
I32
sS'ihy'
p251
I32
sS'through'
p252
I31
sS'looks'
p253
I32
sS'still'
p254
I29
sS'its'
p255
I31
sS'arrogant'
p256
I32
sS'before'
p257
I31
sS'perfect'
p258
I32
sS'0.62mi'
p259
I32
sS'20'
p260
I32
sS'thank'
p261
I30
sS'wtffff'
p262
I32
sS'somewhere'
p263
I31
sS'since....a'
p264
I32
sS'beyonce'
p265
I32
sS'sunday'
p266
I32
sS'actually'
p267
I30
sS'better'
p268
I31
sS'grade'
p269
I32
sS'unhealthy'
p270
I32
sS'porno....lol'
p271
I32
sS'linings'
p272
I32
sS'bye'
p273
I30
sS'mommy'
p274
I32
sS"haven't"
p275
I31
sS'then'
p276
I30
sS'them'
p277
I31
sS'good'
p278
I26
sS'remedy'
p279
I32
sS'drama'
p280
I32
sS'practice'
p281
I31
sS'\xe2\x98\x94\xef\xb8\x8f'
p282
I32
sS'thea'
p283
I32
sS'break'
p284
I31
sS'hurting'
p285
I32
sS'snapchat'
p286
I32
sS'they'
p287
I30
sS'half'
p288
I32
sS'not'
p289
I23
sS'now'
p290
I29
sS'day'
p291
I24
sS'easily'
p292
I32
sS'always'
p293
I29
sS'nothingg'
p294
I32
sS'magnitude'
p295
I32
sS"nicole's"
p296
I32
sS'went'
p297
I32
sS"isn't"
p298
I32
sS'glasses'
p299
I31
sS'flicks..and'
p300
I32
sS'showering'
p301
I32
sS'weeknd'
p302
I32
sS'doing'
p303
I30
sS'house'
p304
I31
sS'energy'
p305
I32
sS'hard'
p306
I32
sS'yeah'
p307
I30
sS'eve'
p308
I32
sS'frankenweenie'
p309
I32
sS'in\xe2\x80\xa6'
p310
I32
sS'dawg'
p311
I31
sS'year'
p312
I30
sS'girl'
p313
I29
sS'tampons'
p314
I32
sS'saturday'
p315
I31
sS'out'
p316
I25
sS'sleepless'
p317
I32
sS'missed'
p318
I32
sS'god'
p319
I31
sS'4pm'
p320
I32
sS'since'
p321
I31
sS'seriously'
p322
I32
sS'bae'
p323
I31
sS"shouldn't"
p324
I32
sS'7'
p325
I32
sS'hilarious'
p326
I32
sS'got'
p327
I26
sS'rn'
p328
I30
sS'cause'
p329
I31
sS'tecate'
p330
I32
sS'shows'
p331
I32
sS'ass'
p332
I30
sS'shut'
p333
I32
sS"doesn't"
p334
I32
sS'rude'
p335
I32
sS'friday'
p336
I30
sS'seventh'
p337
I32
sS'horse'
p338
I32
sS'reanna\xe2\x80\x9d'
p339
I32
sS'completely'
p340
I32
sS'please'
p341
I32
sS'complicated'
p342
I32
sS'imagine'
p343
I32
sS'put'
p344
I31
sS'wanted'
p345
I32
sS'princess'
p346
I32
sS'scary'
p347
I31
sS'awake....going'
p348
I32
sS'fray...now'
p349
I32
sS'gibson'
p350
I32
sS'could'
p351
I31
sS'ask'
p352
I32
sS'days'
p353
I31
sS'times'
p354
I32
sS'thing'
p355
I32
sS'lindsey'
p356
I32
sS'w'
p357
I31
sS'dec'
p358
I32
sS'loud'
p359
I32
sS'think'
p360
I31
sS'silver'
p361
I32
sS'first'
p362
I31
sS'enjoy'
p363
I32
sS'already'
p364
I29
sS'dont'
p365
I30
sS'feel'
p366
I25
sS'xa'
p367
I32
sS'welcome'
p368
I32
sS'one'
p369
I29
sS'done'
p370
I31
sS'long'
p371
I30
sS'mah'
p372
I31
sS'thick'
p373
I32
sS'miss'
p374
I20
sS'tomorrow'
p375
I20
sS'concert'
p376
I32
sS"you're"
p377
I28
sS'little'
p378
I27
sS'grimm'
p379
I32
sS'sadly'
p380
I32
sS'their'
p381
I32
sS'boring'
p382
I32
sS'girls'
p383
I32
sS'least'
p384
I32
sS'anyone'
p385
I31
sS'needed'
p386
I32
sS'2'
p387
I31
sS'too'
p388
I27
sS'\xea\xb7\x80\xec\x9a\x94\xeb\xaf\xb8'
p389
I32
sS'friend'
p390
I30
sS'listen'
p391
I32
sS'eyes'
p392
I32
sS'murder'
p393
I32
sS'decked'
p394
I32
sS'relationship'
p395
I32
sS'that'
p396
I18
sS'park'
p397
I32
sS'took'
p398
I31
sS'crap*'
p399
I32
sS'dentist'
p400
I32
sS'part'
p401
I30
sS'nigga'
p402
I32
sS'(rosemead'
p403
I32
sS'mrs.nakano'
p404
I31
sS'believe'
p405
I31
sS'than'
p406
I30
sS'boyfriend'
p407
I27
sS'11'
p408
I31
sS'wide'
p409
I32
sS'b'
p410
I30
sS'lmao'
p411
I26
sS'martens'
p412
I32
sS'gotten'
p413
I32
sS'gotta'
p414
I32
sS'full..i'
p415
I32
sS'goodnight'
p416
I32
sS'bed'
p417
I28
sS'project'
p418
I32
sS'nervous'
p419
I32
sS'lover'
p420
I30
sS'surprisingly'
p421
I32
sS'chillin..hahaaha'
p422
I32
sS'outcome'
p423
I32
sS'bravery'
p424
I32
sS'sublime'
p425
I31
sS'and'
p426
I9
sS'1.5'
p427
I32
sS'suffocating'
p428
I32
sS'glasses....didnt'
p429
I32
sS'turned'
p430
I32
sS'notebook'
p431
I32
sS'sad'
p432
I31
sS'talking'
p433
I32
sS'say'
p434
I32
sS'buy'
p435
I32
sS'mongolian'
p436
I32
sS'have'
p437
I22
sS'need'
p438
I25
sS'seen'
p439
I32
sS'seem'
p440
I32
sS'waken'
p441
I32
sS'saw'
p442
I32
sS'any'
p443
I32
sS'nights'
p444
I31
sS'wcw'
p445
I32
sS'once'
p446
I32
sS'arm'
p447
I32
sS'omfg'
p448
I31
sS'so'
p449
I8
sS'reals'
p450
I32
sS'butterfly'
p451
I30
sS'urge'
p452
I32
sS'unless'
p453
I32
sS'though'
p454
I32
sS'eater'
p455
I32
sS'hosanna'
p456
I32
sS'guitar'
p457
I32
sS'most'
p458
I31
sS'x'
p459
I32
sS'nothing'
p460
I28
sS'highschool'
p461
I32
sS'why'
p462
I28
sS'4'
p463
I32
sS'death'
p464
I32
sS'jesuschrist'
p465
I32
sS'doc'
p466
I32
sS'camp'
p467
I31
sS'hungry'
p468
I30
sS'aunt'
p469
I32
sS'fowler'
p470
I31
sS'professional'
p471
I32
sS'sd'
p472
I32
sS'wow'
p473
I31
sS'lying'
p474
I32
sS'bullshit'
p475
I32
sS'bomb'
p476
I29
sS'show'
p477
I32
sS'text'
p478
I31
sS'queen'
p479
I32
sS'anyway'
p480
I32
sS'chapters'
p481
I32
sS'ending'
p482
I32
sS'wins'
p483
I32
sS'bring'
p484
I32
sS'stfu'
p485
I32
sS'playbook'
p486
I32
sS'fear'
p487
I32
sS'fine'
p488
I30
sS'grandmother'
p489
I32
sS'trying'
p490
I32
sS'front'
p491
I32
sS'cousins'
p492
I32
sS'should'
p493
I31
sS'ovulating'
p494
I32
sS'only'
p495
I29
sS'going'
p496
I25
sS'pretty'
p497
I31
sS'photo'
p498
I32
sS'8'
p499
I31
sS'piano'
p500
I32
sS'he'
p501
I32
sS'laaame'
p502
I32
sS"should've"
p503
I32
sS'hope'
p504
I31
sS'loved'
p505
I32
sS'meant'
p506
I32
sS'do'
p507
I20
sS"abel's"
p508
I32
sS'watching'
p509
I30
sS'wishing'
p510
I32
sS'pandemic'
p511
I32
sS'hopefully'
p512
I32
sS'stop'
p513
I30
sS'da'
p514
I32
sS'tbh'
p515
I31
sS'feels'
p516
I31
sS'ones'
p517
I32
sS'watermelon'
p518
I32
sS'spicy'
p519
I32
sS'him'
p520
I32
sS'freaking'
p521
I31
sS'greeeenn'
p522
I32
sS'nope'
p523
I32
sS'cry'
p524
I31
sS'worried'
p525
I32
sS'bad'
p526
I31
sS'stupid'
p527
I31
sS'she'
p528
I30
sS'nominate'
p529
I32
sS"won't"
p530
I32
sS'piss'
p531
I32
sS'where'
p532
I31
sS'beettterrr'
p533
I32
sS'ignored'
p534
I32
sS'honesty'
p535
I31
sS'w/'
p536
I32
sS'winterbreak'
p537
I32
sS'lazy'
p538
I32
sS'see'
p539
I29
sS'college'
p540
I32
sS'are'
p541
I22
sS'sleeping'
p542
I32
sS'stfu!!!!!she'
p543
I32
sS'deserve'
p544
I32
sS'retweet'
p545
I31
sS'best'
p546
I29
sS'listening'
p547
I32
sS'peta'
p548
I32
sS'movie'
p549
I30
sS'away'
p550
I30
sS'rings'
p551
I31
sS'2:45'
p552
I32
sS'yet'
p553
I32
sS'meeeeee'
p554
I32
sS'state'
p555
I31
sS"there's"
p556
I31
sS'horrible'
p557
I30
sS'reading'
p558
I32
sS'frustrated'
p559
I32
sS'unappealing'
p560
I32
sS'ps'
p561
I32
sS'we'
p562
I26
sS'omg'
p563
I28
sS'august'
p564
I32
sS'missing'
p565
I32
sS'were'
p566
I32
sS'post...seriously'
p567
I32
sS'killing'
p568
I32
sS'blame'
p569
I32
sS'job'
p570
I32
sS'concentrate'
p571
I32
sS'wtf'
p572
I30
sS'wth'
p573
I32
sS'cousin'
p574
I32
sS'precious'
p575
I32
sS'come'
p576
I32
sS'pissed'
p577
I32
sS'both'
p578
I31
sS'accident'
p579
I32
sS'last'
p580
I30
sS'daria'
p581
I32
sS'restaurant'
p582
I32
sS'many'
p583
I32
sS'stupidest'
p584
I32
sS'23'
p585
I32
sS's'
p586
I32
sS'china'
p587
I32
sS'feeeeel'
p588
I32
sS'niggaaa'
p589
I32
sS'whole'
p590
I31
sS"can't"
p591
I26
sS'ily'
p592
I31
sS'merry'
p593
I32
sS'darlena'
p594
I32
sS'tuesday'
p595
I32
sS'whatever'
p596
I32
sS'except'
p597
I32
sS'bizarro'
p598
I32
sS'yelling'
p599
I32
sS'anti'
p600
I32
sS'likes'
p601
I32
sS'church'
p602
I32
sS'bizarre'
p603
I32
sS'trust'
p604
I31
sS'nicole'
p605
I31
sS'late'
p606
I32
sS"aren't"
p607
I32
sS'yay'
p608
I32
sS'cares'
p609
I31
sS"it's"
p610
I27
sS'been'
p611
I25
sS'"just'
p612
I32
sS'much'
p613
I17
sS'damn'
p614
I28
sS'basic'
p615
I32
sS'waste'
p616
I32
sS'meeting'
p617
I32
sS'mary'
p618
I32
sS'woke'
p619
I31
sS'attractive'
p620
I32
sS'life'
p621
I29
sS'wish'
p622
I32
sS'brother'
p623
I32
sS'chua'
p624
I32
sS'mind'
p625
I32
sS"what's"
p626
I32
sS'sooooo'
p627
I31
sS'else'
p628
I31
sS'hmm'
p629
I32
sS'was.....well'
p630
I32
sS'wake'
p631
I32
sS'reason.....earliest'
p632
I32
sS'ayeeeee'
p633
I32
sS'hannah\xe2\x9d\xa4\xef\xb8\x8f'
p634
I32
sS'those'
p635
I32
sS'myself'
p636
I31
sS'isabella'
p637
I32
sS'look'
p638
I31
sS'these'
p639
I32
sS'offgonna'
p640
I32
sS'harder'
p641
I31
sS"grandma's"
p642
I32
sS'air'
p643
I32
sS'will'
p644
I28
sS'while'
p645
I32
sS'parched'
p646
I32
sS'kick'
p647
I30
sS'hahaha'
p648
I31
sS'antony'
p649
I30
sS'pack'
p650
I32
sS'ive'
p651
I32
sS'30'
p652
I32
sS'is'
p653
I9
sS'it'
p654
I11
sS'rip'
p655
I32
sS'ducks'
p656
I32
sS'anger'
p657
I32
sS':-(\xe2\x80\x9d'
p658
I32
sS'someone'
p659
I28
sS'im'
p660
I28
sS'in'
p661
I15
sS'ready'
p662
I31
sS'somebody'
p663
I32
sS'throwing'
p664
I32
sS'id'
p665
I32
sS'worry'
p666
I32
sS'if'
p667
I29
sS'funny'
p668
I30
sS'shirt'
p669
I31
sS'open'
p670
I31
sS'things'
p671
I28
sS'make'
p672
I29
sS'same'
p673
I30
sS'hey'
p674
I32
sS'party'
p675
I32
sS'gets'
p676
I32
sS'week'
p677
I28
sS'ily2'
p678
I32
sS'used'
p679
I32
sS'drink'
p680
I32
sS'hang'
p681
I32
sS'holidays'
p682
I32
sS'moment'
p683
I31
sS'holesssss:-)'
p684
I32
sS'redbox'
p685
I32
sS"would've"
p686
I32
sS'fucked'
p687
I32
sS'understand'
p688
I32
sS'//'
p689
I32
sS'dat'
p690
I32
sS'posted'
p691
I32
sS'off'
p692
I31
sS'center'
p693
I32
sS'management'
p694
I32
sS'i'
p695
I1
sS'changes'
p696
I32
sS'colour'
p697
I32
sS'youre'
p698
I30
sS'well'
p699
I28
sS'person'
p700
I31
sS'cheer'
p701
I32
sS'without'
p702
I31
sS'(+'
p703
I32
sS'mother'
p704
I32
sS'the'
p705
I4
sS'otherwise'
p706
I32
sS'drawing'
p707
I32
sS'left'
p708
I31
sS'\xe2\x98\xba\xef\xb8\x8f'
p709
I32
sS'just'
p710
I15
sS'being'
p711
I26
sS'money'
p712
I32
sS'unfollow'
p713
I32
sS'sleepy'
p714
I32
sS'adri'
p715
I32
sS'mistakes'
p716
I32
sS'kill'
p717
I32
sS'thanks'
p718
I28
sS'swears'
p719
I32
sS'touch'
p720
I32
sS'yes'
p721
I32
sS'reality'
p722
I32
sS'rushing'
p723
I32
sS"could've"
p724
I32
sS'flashlight'
p725
I32
sS'cut'
p726
I32
sS'thinking'
p727
I32
sS'marrying'
p728
I32
sS'remember'
p729
I32
sS'had'
p730
I24
sS'-the'
p731
I32
sS'sometimes'
p732
I30
sS'aw\xe2\x9d\xa4\xef\xb8\x8f\xe2\x9d\xa4\xef\xb8\x8f\xe2\x9d\xa4\xef\xb8\x8f\xe2\x9d\xa4\xef\xb8\x8f\xe2\x9d\xa4\xef\xb8\x8f'
p733
I32
sS'board'
p734
I32
sS'crying'
p735
I30
sS'tell'
p736
I32
sS'has'
p737
I32
sS'city'
p738
I32
sS'homework'
p739
I29
sS'gave'
p740
I32
sS'around'
p741
I31
sS'read'
p742
I32
sS'big'
p743
I30
sS'fridge'
p744
I31
sS'gonna'
p745
I30
sS'alseep'
p746
I32
sS'early'
p747
I31
sS'shitty'
p748
I32
sS'bitch'
p749
I32
sS'know'
p750
I24
sS'mom'
p751
I31
sS'(-'
p752
I31
sS'nvm'
p753
I32
sS'dreams'
p754
I32
sS'moody'
p755
I32
sS'kdrama'
p756
I32
sS'like'
p757
I15
sS'lost'
p758
I31
sS"justin's"
p759
I32
sS'long....startin'
p760
I32
sS'omgggg'
p761
I32
sS'favoriting'
p762
I32
sS'anymore'
p763
I32
sS'omg..just'
p764
I32
sS'grinch'
p765
I32
sS'lose'
p766
I30
sS'bunch'
p767
I32
sS')-'
p768
I32
sS'fuckkk'
p769
I32
sS'right'
p770
I29
sS'old'
p771
I31
sS'lashes'
p772
I32
sS'people'
p773
I23
sS'fucking'
p774
I22
sS'twitter'
p775
I32
sS'some'
p776
I27
sS'back'
p777
I23
sS'10'
p778
I32
sS'hair'
p779
I30
sS"why'd"
p780
I32
sS'home'
p781
I25
sS'powerade'
p782
I32
sS'palms'
p783
I32
sS'yesss'
p784
I32
sS'gross'
p785
I32
sS'mood'
p786
I32
sS'for'
p787
I16
sS'decision'
p788
I32
sS'/'
p789
I31
sS'rio'
p790
I32
sS'everything'
p791
I26
sS'4/27'
p792
I32
sS'wendy'
p793
I32
sS'bizz'
p794
I32
sS'christmas'
p795
I32
sS'knife'
p796
I32
sS'uhhhh'
p797
I32
sS'be'
p798
I14
sS'bf'
p799
I32
sS'who'
p800
I32
sS'run'
p801
I32
sS'wtfffffffff\xe2\x80\x9d'
p802
I32
sS'business'
p803
I32
sS'bc'
p804
I32
sS'seconds'
p805
I32
sS'night'
p806
I30
sS'sprung'
p807
I32
sS'flawless'
p808
I32
sS'pressure'
p809
I32
sS'chick'
p810
I32
sS'\xe2\x80\xa2cinderella\xe2\x80\xa2"just'
p811
I32
sS'prepared'
p812
I32
sS'super'
p813
I32
sS'by'
p814
I27
sS'on'
p815
I17
sS'about'
p816
I25
sS':-)'
p817
I30
sS'ok'
p818
I29
sS'usa'
p819
I30
sS'wouldnt'
p820
I32
sS'oh'
p821
I28
sS'of'
p822
I13
sS'dollars'
p823
I32
sS'months'
p824
I31
sS'favorite'
p825
I32
sS'surround'
p826
I32
sS'awwww'
p827
I31
sS'dinner'
p828
I32
sS'reanna'
p829
I32
sS'idk'
p830
I31
sS'pockets'
p831
I32
sS'act'
p832
I32
sS'mean'
p833
I32
sS'wanna'
p834
I28
sS'or'
p835
I30
sS'own'
p836
I32
sS'into'
p837
I32
sS'socks'
p838
I31
sS'down'
p839
I32
sS'presenters'
p840
I32
sS'because'
p841
I30
sS'promise'
p842
I31
sS'yas'
p843
I32
sS'gardening'
p844
I32
sS'abel'
p845
I32
sS'your'
p846
I26
sS'idiots'
p847
I32
sS'her'
p848
I29
sS'shat'
p849
I32
sS'weekend'
p850
I32
sS'there'
p851
I29
sS'vh1'
p852
I32
sS'ca)'
p853
I32
sS'lol'
p854
I21
sS'kidding'
p855
I32
sS'start'
p856
I32
sS'lot'
p857
I31
sS'ed'
p858
I32
sS'mofuggahs'
p859
I32
sS'breeding'
p860
I32
sS'bored'
p861
I31
sS'was'
p862
I19
sS'happy'
p863
I23
sS'memory'
p864
I32
sS'wellness)'
p865
I30
sS'neighbors'
p866
I32
sS"i've"
p867
I27
sS'yayy'
p868
I32
sS'bitches'
p869
I31
sS'forever'
p870
I32
sS'but'
p871
I21
sS'spider'
p872
I32
sS'delivery'
p873
I32
sS'hi'
p874
I32
sS'looovve'
p875
I32
sS'sick'
p876
I32
sS'hopes'
p877
I32
sS'ha'
p878
I31
sS'with'
p879
I21
sS'eat'
p880
I31
sS'buying'
p881
I31
sS'longer'
p882
I32
sS'rush'
p883
I32
sS'confessions'
p884
I32
sS'hardly'
p885
I32
sS'morning'
p886
I32
sS'attached'
p887
I32
sS'up'
p888
I21
sS'ur'
p889
I32
sS'yyyaaaaaaaaaaass'
p890
I32
sS"tomorrow's"
p891
I32
sS'taught'
p892
I32
sS'turnover'
p893
I32
sS'delete'
p894
I32
sS'gone'
p895
I31
sS'proud'
p896
I31
sS'exhausted'
p897
I32
sS'am'
p898
I29
sS'starbucks'
p899
I32
sS'sale'
p900
I32
sS'foundddd'
p901
I32
sS'as'
p902
I27
sS'at'
p903
I16
sS'aw'
p904
I31
sS'girlfriend'
p905
I32
sS'himself'
p906
I32
sS'annoying'
p907
I32
sS'check'
p908
I31
sS'shit'
p909
I19
sS'cream'
p910
I32
sS'again'
p911
I30
sS'rainy'
p912
I32
sS'no'
p913
I22
sS'way'
p914
I32
sS'nah'
p915
I32
sS'attacked'
p916
I32
sS'when'
p917
I23
sS'lately'
p918
I32
sS'til'
p919
I32
sS'nap'
p920
I31
sS'book'
p921
I31
sS'5'
p922
I31
sS'details'
p923
I32
sS'holding'
p924
I32
sS'you'
p925
I7
sS'really'
p926
I27
sS'smell'
p927
I31
sS'realize'
p928
I32
sS'nice'
p929
I30
sS'brothers'
p930
I32
sS'monday'
p931
I32
sS'felt'
p932
I32
sS'weirdest'
p933
I32
sS'stay'
p934
I31
sS"let's"
p935
I32
sS'important'
p936
I32
sS'kinda'
p937
I32
sS'serious'
p938
I32
sS'*turns'
p939
I32
sS'song'
p940
I32
sS'chocolate'
p941
I32
sS'friends'
p942
I30
sS'finals'
p943
I31
sS'miles'
p944
I32
sS'e'
p945
I32
sS'faster'
p946
I32
sS'\xe2\x80\x9d'
p947
I32
sS'save'
p948
I32
sS'together'
p949
I29
sS'hella'
p950
I32
sS'u'
p951
I31
sS'time'
p952
I24
sS'alright'
p953
I30
sS"she's"
p954
I31
sS'8th'
p955
I32
sS'hello'
p956
I32
sS':))'
p957
I32
s.