(dp0
S''
p1
I14
sS'happen'
p2
I34
sS'all'
p3
I34
sS'looped'
p4
I34
sS':('
p5
I34
sS'forget'
p6
I34
sS'month'
p7
I34
sS':/'
p8
I34
sS'sleep'
p9
I33
sS'go'
p10
I26
sS'tonight\xe2\x9d\xa4\xef\xb8\x8f'
p11
I34
sS'hate'
p12
I33
sS':3'
p13
I34
sS"when's"
p14
I34
sS'young'
p15
I33
sS'to'
p16
I8
sS'finally'
p17
I33
sS'lord'
p18
I34
sS'town'
p19
I34
sS'"menopause'
p20
I34
sS'7'
p21
I33
sS'lakewood'
p22
I34
sS'very'
p23
I34
sS'"little'
p24
I34
sS'fat'
p25
I34
sS'simpsons'
p26
I33
sS'"are'
p27
I34
sS'cool'
p28
I34
sS'"i\'m'
p29
I34
sS'school'
p30
I33
sS'bestfriend'
p31
I34
sS'--'
p32
I34
sS'gettin'
p33
I34
sS'brother'
p34
I34
sS'leave'
p35
I34
sS'diz'
p36
I34
sS'guy'
p37
I33
sS'ride'
p38
I32
sS'"cats"'
p39
I29
sS"i'll"
p40
I34
sS'says'
p41
I34
sS'instagram'
p42
I34
sS'tea'
p43
I34
sS'midsummer'
p44
I33
sS'past'
p45
I34
sS'awesome...start'
p46
I34
sS'odd'
p47
I34
sS'even'
p48
I32
sS'"machomer'
p49
I33
sS'what'
p50
I29
sS'elton'
p51
I34
sS'stressful'
p52
I34
sS'giving'
p53
I34
sS'springsteen'
p54
I34
sS'lights'
p55
I34
sS'goes'
p56
I34
sS'garth'
p57
I32
sS'new'
p58
I11
sS'tribute'
p59
I32
sS'hmmm'
p60
I34
sS'officially'
p61
I34
sS"bourne's"
p62
I34
sS'body'
p63
I34
sS'led'
p64
I34
sS'chose'
p65
I34
sS'never'
p66
I34
sS'jasmine'
p67
I34
sS'here'
p68
I32
sS'hours'
p69
I32
sS'brooks'
p70
I34
sS'"next'
p71
I20
sS'earthquake'
p72
I34
sS'light"'
p73
I34
sS'hell'
p74
I34
sS'39'
p75
I32
sS'kids'
p76
I34
sS'k'
p77
I34
sS"marco's"
p78
I34
sS'joel"'
p79
I34
sS'experience'
p80
I34
sS'cinnamon'
p81
I34
sS"i'm"
p82
I28
sS'makes'
p83
I34
sS'whatnot'
p84
I34
sS'wid'
p85
I34
sS'love'
p86
I30
sS'punks"'
p87
I34
sS'family'
p88
I34
sS'win'
p89
I34
sS'company"'
p90
I34
sS'bro'
p91
I34
sS'till'
p92
I33
sS'post'
p93
I34
sS'yourself'
p94
I34
sS'use'
p95
I34
sS'from'
p96
I34
sS'would'
p97
I34
sS'&'
p98
I29
sS'aye'
p99
I34
sS'donuts'
p100
I34
sS'tan/burn'
p101
I34
sS'two'
p102
I34
sS'angela'
p103
I34
sS'next'
p104
I33
sS'live'
p105
I32
sS'california"'
p106
I34
sS'6'
p107
I34
sS'8:20'
p108
I34
sS'inflatable'
p109
I34
sS'today'
p110
I10
sS'more'
p111
I33
sS'started'
p112
I34
sS'sister'
p113
I34
sS'floyd'
p114
I32
sS'cinema'
p115
I34
sS'adult'
p116
I34
sS'baby'
p117
I34
sS'hurry'
p118
I34
sS"eagles'"
p119
I34
sS'women'
p120
I34
sS'me'
p121
I26
sS'hour'
p122
I34
sS'this'
p123
I31
sS'car'
p124
I34
sS'originally'
p125
I34
sS'work'
p126
I32
sS'sucks'
p127
I34
sS'2:30am'
p128
I34
sS'anywhere'
p129
I34
sS'can'
p130
I32
sS'"spring'
p131
I34
sS'"miss'
p132
I28
sS'following'
p133
I34
sS'making'
p134
I34
sS'parkway'
p135
I34
sS'my'
p136
I16
sS'figure'
p137
I34
sS'give'
p138
I34
sS"mcdonald's"
p139
I34
sS'hyde"'
p140
I34
sS"didn't"
p141
I34
sS'fuck'
p142
I33
sS'states'
p143
I34
sS'lolol'
p144
I34
sS'want'
p145
I30
sS'hit'
p146
I34
sS'pink'
p147
I34
sS'huge'
p148
I34
sS'needs'
p149
I34
sS'3am'
p150
I34
sS'thing'
p151
I34
sS'watching'
p152
I34
sS'funky'
p153
I34
sS'1'
p154
I33
sS'how'
p155
I33
sS'hot'
p156
I9
sS'steps"'
p157
I32
sS'nyc'
p158
I34
sS'comedy'
p159
I34
sS'fever'
p160
I33
sS'okay'
p161
I33
sS'tried'
p162
I34
sS'sir'
p163
I34
sS'kickstarter'
p164
I34
sS'after'
p165
I34
sS'wrong'
p166
I32
sS'birthday'
p167
I34
sS'taco'
p168
I34
sS'hahahaha'
p169
I33
sS'filthy'
p170
I34
sS'a'
p171
I17
sS'remember'
p172
I34
sS'jayjay'
p173
I33
sS'ss'
p174
I34
sS'element'
p175
I34
sS'kind.\xe2\x80\x9d'
p176
I34
sS'so'
p177
I22
sS'egg'
p178
I34
sS'talk'
p179
I34
sS"that's"
p180
I34
sS'boeing"'
p181
I18
sS'mexican'
p182
I34
sS"don't"
p183
I32
sS'over'
p184
I33
sS'sooo'
p185
I33
sS'soon'
p186
I34
sS'outage'
p187
I34
sS'beignet'
p188
I34
sS'hugged'
p189
I34
sS'looks'
p190
I34
sS'broadway'
p191
I34
sS'still'
p192
I33
sS'its'
p193
I34
sS'ima'
p194
I34
sS'22'
p195
I34
sS'la'
p196
I4
sS'smoothie'
p197
I34
sS'highlights'
p198
I34
sS'better'
p199
I32
sS'holiday'
p200
I34
sS'might'
p201
I34
sS'into'
p202
I34
sS'"winter'
p203
I19
sS'koreans'
p204
I34
sS'then'
p205
I32
sS'them'
p206
I33
sS'good'
p207
I32
sS'boots"'
p208
I34
sS'yo'
p209
I34
sS'ya'
p210
I34
sS'propose'
p211
I34
sS'cooks'
p212
I34
sS'pan"'
p213
I24
sS'roommate'
p214
I34
sS'starbucks'
p215
I34
sS'they'
p216
I32
sS'awakening"'
p217
I34
sS'not'
p218
I31
sS'magic'
p219
I34
sS'now'
p220
I30
sS'day'
p221
I32
sS'pottermore'
p222
I34
sS'"reflections'
p223
I34
sS'everytime'
p224
I33
sS'opera'
p225
I34
sS'always'
p226
I33
sS'drop'
p227
I34
sS'dionne'
p228
I34
sS'billy'
p229
I34
sS'did'
p230
I34
sS'bong'
p231
I34
sS'idek'
p232
I34
sS'house'
p233
I33
sS'ft'
p234
I34
sS'celebrating'
p235
I34
sS'sandwich'
p236
I34
sS'year'
p237
I33
sS'our'
p238
I33
sS'mis\xc3\xa9rables"'
p239
I32
sS'saturday'
p240
I33
sS'out'
p241
I29
sS'screenshot'
p242
I34
sS'god'
p243
I34
sS'mandy'
p244
I34
sS'forty'
p245
I34
sS'rolls'
p246
I34
sS'dehydrated'
p247
I34
sS'"travelling'
p248
I34
sS'performs'
p249
I33
sS'got'
p250
I31
sS'day"'
p251
I34
sS'\xee\x90\x86\xee\x90\x86\xee\x90\x93'
p252
I34
sS'theory'
p253
I34
sS'city'
p254
I34
sS'hang'
p255
I34
sS'story'
p256
I33
sS'free'
p257
I34
sS'"seven'
p258
I22
sS'bumps'
p259
I34
sS'besides'
p260
I34
sS'ask'
p261
I33
sS'teach'
p262
I34
sS'whittier'
p263
I34
sS'care'
p264
I34
sS'tv\xe2\x80\x9d'
p265
I34
sS'miss'
p266
I34
sS'debby'
p267
I34
sS'could'
p268
I34
sS'put'
p269
I34
sS'9th-13th'
p270
I34
sS'david'
p271
I34
sS'turn'
p272
I34
sS'american'
p273
I34
sS'place'
p274
I34
sS'chills'
p275
I34
sS'think'
p276
I33
sS'first'
p277
I34
sS'already'
p278
I34
sS'dont'
p279
I34
sS'forwards'
p280
I34
sS'feel'
p281
I34
sS'coming'
p282
I34
sS'tributes'
p283
I34
sS'one'
p284
I31
sS'wash'
p285
I34
sS'featured'
p286
I28
sS'done'
p287
I34
sS'chubby'
p288
I34
sS'message'
p289
I34
sS'open'
p290
I34
sS'tomorrow'
p291
I32
sS"you're"
p292
I33
sS'guess'
p293
I33
sS'castaneda'
p294
I34
sS"two'"
p295
I34
sS'slept'
p296
I34
sS'girls'
p297
I34
sS'least'
p298
I34
sS'anyone'
p299
I34
sS'checker'
p300
I34
sS'too'
p301
I34
sS'john'
p302
I34
sS'banana'
p303
I34
sS'listen'
p304
I34
sS'"swan'
p305
I34
sS'"les'
p306
I32
sS'that'
p307
I25
sS'tooo'
p308
I34
sS'gotcha'
p309
I34
sS'hotel'
p310
I34
sS'surprised'
p311
I34
sS'broadcast'
p312
I34
sS'"led'
p313
I34
sS'zeppelin'
p314
I33
sS'off'
p315
I32
sS'albums'
p316
I33
sS'believe'
p317
I34
sS'than'
p318
I34
sS'neck'
p319
I34
sS'double'
p320
I34
sS'gotta'
p321
I34
sS'bed'
p322
I33
sS'were'
p323
I34
sS'asleep'
p324
I34
sS'lolololol'
p325
I34
sS'and'
p326
I23
sS'twinkies'
p327
I34
sS'san'
p328
I34
sS'tonight'
p329
I33
sS'have'
p330
I27
sS'need'
p331
I32
sS'any'
p332
I34
sS'u.s'
p333
I34
sS'warriors'
p334
I34
sS'shorts'
p335
I34
sS'-'
p336
I34
sS'mother?"'
p337
I34
sS'also'
p338
I33
sS'take'
p339
I33
sS'conscience'
p340
I34
sS'moonrocks'
p341
I34
sS'bitches'
p342
I34
sS'theatre'
p343
I5
sS'bruce'
p344
I34
sS'who'
p345
I34
sS'freshmen'
p346
I34
sS'landing'
p347
I34
sS'spartans'
p348
I34
sS'why'
p349
I33
sS'kb'
p350
I34
sS'forever'
p351
I34
sS'"jekyll'
p352
I34
sS"night's"
p353
I33
sS'"hotel'
p354
I34
sS'"abbamemnon"'
p355
I34
sS'madison'
p356
I32
sS'text'
p357
I33
sS'random'
p358
I34
sS'"celebration'
p359
I34
sS'lessons'
p360
I34
sS'chaos'
p361
I34
sS'busy'
p362
I34
sS'('
p363
I34
sS'"samson'
p364
I34
sS'should'
p365
I34
sS'only'
p366
I13
sS'going'
p367
I32
sS'pretty'
p368
I34
sS'"fred'
p369
I34
sS'up.miracles'
p370
I34
sS'do'
p371
I31
sS'musical"'
p372
I33
sS'get'
p373
I27
sS'beat'
p374
I34
sS'\xe2\x80\x9cif'
p375
I34
sS'stop'
p376
I34
sS'lucky'
p377
I34
sS'7-11'
p378
I34
sS'feels'
p379
I34
sS'cannot'
p380
I34
sS'dream"'
p381
I33
sS'dr'
p382
I34
sS'sabrina'
p383
I34
sS'avenger'
p384
I34
sS'girl'
p385
I34
sS'artist'
p386
I33
sS'ever'
p387
I34
sS'married'
p388
I34
sS'disco'
p389
I34
sS'sha'
p390
I34
sS'bad'
p391
I33
sS'she'
p392
I33
sS'rosemary"'
p393
I34
sS'where'
p394
I33
sS'frosties'
p395
I34
sS"y'all"
p396
I34
sS'w/'
p397
I34
sS'national'
p398
I34
sS'brothers"'
p399
I22
sS'flip'
p400
I34
sS'see'
p401
I32
sS'leslie'
p402
I34
sS'are'
p403
I32
sS'unsweetened'
p404
I34
sS'hoes'
p405
I34
sS'hero'
p406
I34
sS'mike!!!"'
p407
I34
sS'jerseys'
p408
I34
sS'delilah"'
p409
I34
sS'wow'
p410
I34
sS'freeze'
p411
I34
sS'whyyyyyyy'
p412
I34
sS'enough'
p413
I34
sS'won'
p414
I34
sS'correctly'
p415
I34
sS'probably'
p416
I34
sS'5:30'
p417
I34
sS'we'
p418
I30
sS'omg'
p419
I33
sS'omw'
p420
I34
sS'wear'
p421
I33
sS'jk'
p422
I34
sS"haven't"
p423
I34
sS':)'
p424
I34
sS'lookbook'
p425
I34
sS'figured'
p426
I34
sS'conch'
p427
I34
sS'many'
p428
I33
sS'taking'
p429
I34
sS'agree'
p430
I34
sS'somewhere'
p431
I34
sS'tour'
p432
I34
sS'today...instead'
p433
I34
sS'aeromyth'
p434
I34
sS"can't"
p435
I33
sS'motherfuckers'
p436
I34
sS'drunk'
p437
I33
sS'elf'
p438
I34
sS'errors"'
p439
I34
sS'theater'
p440
I34
sS'cd'
p441
I34
sS'non'
p442
I34
sS'65'
p443
I34
sS'waaaa'
p444
I34
sS'trust'
p445
I34
sS'ether'
p446
I34
sS'speak'
p447
I34
sS'arts'
p448
I6
sS"it's"
p449
I32
sS'binge'
p450
I34
sS'overlook'
p451
I34
sS'confident'
p452
I34
sS'macbeth"'
p453
I33
sS'stadium'
p454
I34
sS'warwick'
p455
I34
sS'privilege'
p456
I34
sS'godamm'
p457
I34
sS'\xe2\x98\x85'
p458
I34
sS'woke'
p459
I33
sS'>'
p460
I34
sS'life'
p461
I32
sS'liverpool'
p462
I34
sS'with'
p463
I30
sS'great'
p464
I34
sS'davy'
p465
I34
sS'else'
p466
I34
sS'wake'
p467
I32
sS'boone'
p468
I34
sS'those'
p469
I31
sS'chill'
p470
I34
sS'casa'
p471
I34
sS'convo'
p472
I34
sS'will'
p473
I34
sS'2013'
p474
I34
sS'hahaha'
p475
I34
sS'fun'
p476
I34
sS'frustrating'
p477
I34
sS"wouldn't"
p478
I34
sS'skirts'
p479
I34
sS'seven'
p480
I22
sS'changed'
p481
I34
sS'"a'
p482
I33
sS'is'
p483
I22
sS'it'
p484
I22
sS'sleeping'
p485
I34
sS'someone'
p486
I34
sS'im'
p487
I33
sS'in'
p488
I21
sS'ready'
p489
I33
sS'ave'
p490
I32
sS'everyday'
p491
I34
sS'if'
p492
I32
sS'funny'
p493
I33
sS'different'
p494
I34
sS'shirt'
p495
I34
sS'normal"'
p496
I20
sS'iv"'
p497
I34
sS'things'
p498
I33
sS'check'
p499
I33
sS'matthew'
p500
I34
sS'grand'
p501
I34
sS'9'
p502
I34
sS'party'
p503
I34
sS'week'
p504
I33
sS'used'
p505
I34
sS'"peter'
p506
I24
sS'diego'
p507
I34
sS'.got'
p508
I34
sS'driver'
p509
I33
sS'moment'
p510
I34
sS'sunburn'
p511
I34
sS'ashley'
p512
I33
sS'i'
p513
I10
sS'youre'
p514
I34
sS'well'
p515
I34
sS'eps'
p516
I34
sS'thought'
p517
I34
sS'regretting'
p518
I34
sS':(i'
p519
I34
sS'the'
p520
I2
sS'taxi'
p521
I34
sS'summer'
p522
I33
sS'just'
p523
I30
sS'anti-social'
p524
I34
sS'competitive'
p525
I34
sS'project"'
p526
I33
sS'saigon"'
p527
I28
sS'foot'
p528
I34
sS'questions'
p529
I34
sS'"roots'
p530
I34
sS'yes'
p531
I34
sS'cabaret'
p532
I34
sS'speed'
p533
I34
sS'yet'
p534
I33
sS'captured'
p535
I34
sS'mix'
p536
I34
sS'thinking'
p537
I34
sS'bell'
p538
I34
sS'had'
p539
I33
sS'except'
p540
I33
sS'yaaaa'
p541
I34
sS'lets'
p542
I34
sS'parents'
p543
I34
sS'courtney'
p544
I34
sS'5'
p545
I34
sS'has'
p546
I34
sS'excited'
p547
I34
sS'momentum'
p548
I34
sS'real'
p549
I34
sS'ight'
p550
I34
sS'around'
p551
I34
sS'big'
p552
I34
sS'joanna'
p553
I34
sS'gonna'
p554
I34
sS'early'
p555
I34
sS'game'
p556
I34
sS'know'
p557
I32
sS'mom'
p558
I34
sS'burns'
p559
I34
sS'd'
p560
I34
sS'county'
p561
I34
sS'necessary'
p562
I34
sS'like'
p563
I26
sS'lost'
p564
I34
sS'cracker...:('
p565
I34
sS'performing'
p566
I6
sS'french'
p567
I34
sS'wildcats'
p568
I34
sS'7-eleven'
p569
I34
sS'tower'
p570
I34
sS'"boeing'
p571
I18
sS'fuckkk'
p572
I34
sS'frosty'
p573
I34
sS'jean'
p574
I34
sS'because'
p575
I33
sS'-my'
p576
I34
sS'people'
p577
I33
sS'fucking'
p578
I34
sS'mauve'
p579
I34
sS"who've"
p580
I34
sS'home'
p581
I32
sS'lake"'
p582
I34
sS'bbbbbbb'
p583
I34
sS'mood'
p584
I34
sS'for'
p585
I3
sS'bottom'
p586
I34
sS'closest'
p587
I34
sS'delaware'
p588
I34
sS'sharlene'
p589
I34
sS'seller'
p590
I9
sS'track'
p591
I34
sS'does'
p592
I34
sS'buddha'
p593
I34
sS'weird...my'
p594
I34
sS'adorable'
p595
I34
sS'be'
p596
I29
sS'pepper'
p597
I34
sS'knew'
p598
I34
sS'eating'
p599
I34
sS'power'
p600
I34
sS'pp'
p601
I34
sS'aerosmith'
p602
I34
sS';)'
p603
I34
sS'super'
p604
I34
sS'by'
p605
I34
sS'shmoke'
p606
I34
sS'on'
p607
I30
sS'about'
p608
I31
sS'pussy\xe2\x80\x9d'
p609
I34
sS'working'
p610
I34
sS'package'
p611
I34
sS'of'
p612
I24
sS'favorite'
p613
I34
sS'distinct'
p614
I34
sS'wonderettes"'
p615
I19
sS'drive:('
p616
I34
sS'wanna'
p617
I34
sS'or'
p618
I30
sS'road'
p619
I34
sS'hometown'
p620
I34
sS'selfie'
p621
I34
sS'usa'
p622
I34
sS'bath'
p623
I34
sS'right'
p624
I34
sS'rising'
p625
I34
sS'your'
p626
I32
sS'legends'
p627
I34
sS'her'
p628
I34
sS'area'
p629
I34
sS'brides'
p630
I22
sS'tennis'
p631
I33
sS'ca)'
p632
I7
sS'lol'
p633
I30
sS'class'
p634
I34
sS'doubt'
p635
I34
sS'downey'
p636
I34
sS'lot'
p637
I34
sS'series'
p638
I34
sS'damn'
p639
I33
sS'was'
p640
I31
sS'happy'
p641
I33
sS'bert'
p642
I34
sS'you('
p643
I34
sS'bus'
p644
I33
sS'laping'
p645
I34
sS'but'
p646
I32
sS'back'
p647
I34
sS'upright'
p648
I34
sS'mirada'
p649
I1
sS'true'
p650
I32
sS'(la'
p651
I5
sS'he'
p652
I32
sS'made'
p653
I34
sS'places'
p654
I34
sS"wasn't"
p655
I34
sS'wish'
p656
I34
sS'sounds'
p657
I34
sS'fries'
p658
I34
sS'up'
p659
I25
sS'us'
p660
I34
sS'garbo'
p661
I34
sS'catching'
p662
I34
sS'called'
p663
I33
sS'uber'
p664
I34
sS'sometimes'
p665
I34
sS'moore'
p666
I34
sS'classic'
p667
I33
sS'toss'
p668
I34
sS'forgot'
p669
I34
sS'am'
p670
I33
sS'an'
p671
I33
sS'60%'
p672
I34
sS'as'
p673
I34
sS'at'
p674
I26
sS'sleeeeppppy'
p675
I34
sS'annoying'
p676
I34
sS'trip'
p677
I33
sS'shit'
p678
I34
sS'again'
p679
I34
sS'jesus'
p680
I34
sS'no'
p681
I34
sS'na'
p682
I33
sS'nah'
p683
I34
sS'when'
p684
I32
sS'event'
p685
I12
sS'nap'
p686
I34
sS'twerk'
p687
I34
sS'you'
p688
I15
sS'really'
p689
I34
sS'picture'
p690
I34
sS'hey'
p691
I34
sS'-betto'
p692
I34
sS'fell'
p693
I34
sS'jadea'
p694
I34
sS'friends'
p695
I33
sS'gautama'
p696
I34
sS'jones'
p697
I34
sS'happening'
p698
I34
sS'calls'
p699
I34
sS'potato'
p700
I34
sS'u'
p701
I33
sS'doubted'
p702
I34
sS'time'
p703
I31
sS"she's"
p704
I34
sS'"the'
p705
I27
s.