(dp0
S''
p1
I1
sS'raining'
p2
I92
sS'ever)'
p3
I92
sS'limited'
p4
I92
sS'hats'
p5
I92
sS'monte'
p6
I89
sS'yellow'
p7
I92
sS'four'
p8
I92
sS'sleep'
p9
I83
sS'asian'
p10
I92
sS'hating'
p11
I91
sS'dere'
p12
I92
sS'ricky'
p13
I92
sS'hate'
p14
I69
sS'16:56:12.0,34.0170988,-118.1210479,5301.02,holly'
p15
I92
sS'otro'
p16
I92
sS'pedro'
p17
I92
sS'buddy'
p18
I92
sS'tweet'
p19
I90
sS'79%'
p20
I92
sS'(said'
p21
I92
sS'lameass'
p22
I92
sS'under'
p23
I89
sS'lord'
p24
I91
sS'sorry'
p25
I85
sS'worth'
p26
I92
sS'pact'
p27
I92
sS'updated'
p28
I92
sS'rescue'
p29
I92
sS'compassion'
p30
I92
sS'lurk'
p31
I92
sS'lifeson'
p32
I92
sS"driver's"
p33
I92
sS'shoot'
p34
I92
sS'gracias'
p35
I92
sS'every'
p36
I83
sS'jack'
p37
I88
sS'affect'
p38
I92
sS'stabbed'
p39
I92
sS'screaming'
p40
I92
sS'tickets'
p41
I89
sS'mw2'
p42
I92
sS'school'
p43
I51
sS'internally'
p44
I92
sS'sherlock'
p45
I92
sS'bugging'
p46
I92
sS'humidity'
p47
I92
sS'samurai'
p48
I92
sS'refreshing'
p49
I92
sS'math'
p50
I90
sS"yesterday's"
p51
I91
sS'*wedding'
p52
I92
sS'clothes'
p53
I90
sS'jeff'
p54
I92
sS'chew'
p55
I91
sS',90640\n461268306905673728,adamluevano,2014-04-29'
p56
I92
sS'force'
p57
I92
sS'tired'
p58
I84
sS'miller'
p59
I91
sS'liverpool-'
p60
I92
sS"rosicky's"
p61
I92
sS'direct'
p62
I91
sS'second'
p63
I85
sS'street'
p64
I92
sS'even'
p65
I55
sS'errors'
p66
I92
sS'hide'
p67
I91
sS'ruben'
p68
I92
sS'zig'
p69
I92
sS'beaten'
p70
I92
sS'(job'
p71
I92
sS'beater'
p72
I92
sS'new'
p73
I73
sS'*sobs*'
p74
I92
sS'ever'
p75
I81
sS'disintegrate'
p76
I92
sS'told'
p77
I85
sS'10+'
p78
I92
sS'culo'
p79
I92
sS'massington'
p80
I91
sS'boesch'
p81
I92
sS'pancakes'
p82
I92
sS'never'
p83
I67
sS"chonchos.('"
p84
I92
sS'here'
p85
I72
sS'10%'
p86
I92
sS'\xe2\x9d\xa4\xef\xb8\x8f'
p87
I85
sS'apartment'
p88
I92
sS'&&'
p89
I91
sS'102'
p90
I92
sS'affiliated'
p91
I92
sS'100'
p92
I92
sS"aren't"
p93
I90
sS'$140'
p94
I92
sS'celebration'
p95
I91
sS'kids'
p96
I85
sS'daughter'
p97
I92
sS'vhere'
p98
I92
sS'k'
p99
I91
sS'economics'
p100
I92
sS'piercing'
p101
I92
sS'07:05:59.0,34.0133467,-118.1203743,5301.02,watching'
p102
I92
sS'tv'
p103
I91
sS"i'd"
p104
I85
sS'smoke'
p105
I90
sS'stressed'
p106
I92
sS"i'm"
p107
I8
sS'theres'
p108
I92
sS'hundley'
p109
I84
sS'york'
p110
I92
sS'eyebrows'
p111
I90
sS'golden'
p112
I89
sS'fantastic'
p113
I92
sS'tu'
p114
I92
sS'strict.?/.\\'
p115
I92
sS'magically'
p116
I91
sS'vanderdoes'
p117
I92
sS'feelings'
p118
I90
sS'bro'
p119
I90
sS'unis'
p120
I91
sS'uuppppp'
p121
I92
sS'braids"'
p122
I92
sS'sarah'
p123
I92
sS'plot'
p124
I92
sS'charge'
p125
I92
sS'dna'
p126
I92
sS'spoke'
p127
I92
sS'would'
p128
I79
sS'army'
p129
I92
sS'sweater'
p130
I92
sS'motivate'
p131
I92
sS'aaron'
p132
I92
sS'princess'
p133
I92
sS'cali'
p134
I91
sS'music'
p135
I83
sS'calm'
p136
I91
sS'17:00:06.0,34.01953436,-118.11909855,5301.02,my'
p137
I92
sS'survive'
p138
I92
sS'tryin'
p139
I90
sS'type'
p140
I91
sS'until'
p141
I90
sS'nyquil'
p142
I92
sS'posting'
p143
I92
sS'holy'
p144
I88
sS'chilli'
p145
I92
sS'haha'
p146
I60
sS'subtweet'
p147
I92
sS'nigda'
p148
I92
sS'hurt'
p149
I90
sS'phone'
p150
I79
sS'championships'
p151
I92
sS'adult'
p152
I92
sS'scdcfc'
p153
I92
sS'teaching'
p154
I92
sS'90'
p155
I92
sS'ware'
p156
I91
sS'lmao\xe2\x80\x9di'
p157
I92
sS'must'
p158
I88
sS'me'
p159
I10
sS'room'
p160
I89
sS'lifejacket'
p161
I92
sS'work'
p162
I76
sS'mi'
p163
I92
sS'"side'
p164
I92
sS'hizo'
p165
I92
sS'movies'
p166
I88
sS'tinder'
p167
I91
sS'era'
p168
I90
sS'mr'
p169
I91
sS'8-1am'
p170
I92
sS'my'
p171
I7
sS'example'
p172
I92
sS'cone'
p173
I92
sS'vodka'
p174
I90
sS'kgzhjkyetmeiduk'
p175
I92
sS'be!,90640\n479170453185904641,luiibravo,2014-06-18'
p176
I92
sS'give'
p177
I88
sS'laughs'
p178
I92
sS'stressing'
p179
I92
sS',90640\n461259788278460416,adamluevano,2014-04-29'
p180
I92
sS'homie'
p181
I90
sS'want'
p182
I34
sS'keep'
p183
I83
sS'montebello'
p184
I48
sS'risk'
p185
I92
sS'yaaaay'
p186
I92
sS'hoe'
p187
I87
sS'end'
p188
I84
sS'thing'
p189
I82
sS'bunk'
p190
I92
sS'sitting'
p191
I92
sS'feature'
p192
I92
sS'fungry'
p193
I92
sS'far'
p194
I89
sS'hot'
p195
I85
sS'hitman'
p196
I92
sS'disappear'
p197
I92
sS'hop'
p198
I92
sS'answer'
p199
I91
sS'"we\'re'
p200
I92
sS'beach'
p201
I86
sS'pizza'
p202
I88
sS'description'
p203
I92
sS'ignacio'
p204
I92
sS'bday'
p205
I88
sS"try's"
p206
I92
sS'after'
p207
I82
sS'vicious'
p208
I91
sS'pimps'
p209
I91
sS'wrong'
p210
I87
sS'lay'
p211
I91
sS'destined'
p212
I92
sS'"mines"'
p213
I91
sS'sippn'
p214
I92
sS'meaningful'
p215
I92
sS'lesbian'
p216
I92
sS'tamborazo'
p217
I92
sS'horchata'
p218
I92
sS'danny'
p219
I90
sS'third'
p220
I91
sS'innout'
p221
I92
sS'(scdcfc)'
p222
I91
sS'"heyyyyyy"'
p223
I92
sS'appreciate'
p224
I92
sS'21:44:37.0,34.01586814,-118.12335338,5301.02,dammmm'
p225
I92
sS'greet'
p226
I92
sS'motherfuckers'
p227
I91
sS"stomach's"
p228
I92
sS'18th'
p229
I92
sS'green'
p230
I90
sS'teammates'
p231
I92
sS'goodbye'
p232
I92
sS'keeps'
p233
I90
sS'tomorrow"'
p234
I92
sS'order'
p235
I91
sS'\xe2\x99\x88\xef\xb8\x8f\xe2\x99\x8f\xef\xb8\x8f'
p236
I92
sS'fifa'
p237
I92
sS'banger'
p238
I91
sS'school)'
p239
I92
sS'naman'
p240
I92
sS'office'
p241
I90
sS'deck'
p242
I92
sS'sprout'
p243
I92
sS'over'
p244
I75
sS'fall'
p245
I91
sS'kickoff'
p246
I92
sS"heart'"
p247
I92
sS"tyga's"
p248
I92
sS'diddy'
p249
I92
sS'1-10'
p250
I92
sS'some..."history"'
p251
I92
sS'youngi'
p252
I92
sS'whattt'
p253
I92
sS',90640\n479165911237009408,luiibravo,2014-06-18'
p254
I92
sS'before'
p255
I87
sS'ima'
p256
I89
sS'chihuahua'
p257
I92
sS'fit'
p258
I92
sS'somewhere'
p259
I91
sS'bringing'
p260
I92
sS'denver'
p261
I92
sS'crew'
p262
I90
sS'better'
p263
I75
sS'msela'
p264
I92
sS'fade'
p265
I92
sS'3:15'
p266
I92
sS'weeks'
p267
I91
sS'fin'
p268
I92
sS'then'
p269
I70
sS'them'
p270
I64
sS'tourist'
p271
I92
sS'thrones'
p272
I91
sS'workout'
p273
I91
sS'safe'
p274
I91
sS'ideas/thoughts/opinions'
p275
I92
sS'1836."'
p276
I92
sS'bang'
p277
I89
sS'wayyy'
p278
I92
sS'they'
p279
I47
sS'bestfriend'
p280
I92
sS'one'
p281
I49
sS'bank'
p282
I90
sS'netherlands'
p283
I92
sS'alex'
p284
I92
sS'meat'
p285
I92
sS'l'
p286
I92
sS'detroit'
p287
I91
sS'filling'
p288
I92
sS'"happy'
p289
I92
sS'fitness'
p290
I92
sS'addicted'
p291
I91
sS'whoot'
p292
I92
sS'went'
p293
I81
sS'payton'
p294
I91
sS'side'
p295
I86
sS'carlos'
p296
I91
sS'mean'
p297
I85
sS'nava'
p298
I92
sS'calderon'
p299
I92
sS'independent'
p300
I92
sS'gunna'
p301
I92
sS'gerrard'
p302
I92
sS'turnin'
p303
I92
sS'spider'
p304
I92
sS'celebrating'
p305
I92
sS'arede'
p306
I92
sS'taught'
p307
I92
sS'yvette'
p308
I92
sS'forgot'
p309
I89
sS'saturday'
p310
I90
sS'rt'
p311
I86
sS'gon'
p312
I91
sS'driving'
p313
I89
sS'god'
p314
I79
sS'diesel'
p315
I92
sS'cheesy'
p316
I92
sS'content'
p317
I92
sS'smh'
p318
I81
sS'smg'
p319
I92
sS'rm'
p320
I91
sS'rn'
p321
I77
sS'size'
p322
I92
sS'day"'
p323
I91
sS'hermosa'
p324
I92
sS'robles'
p325
I92
sS'gate'
p326
I92
sS'arizona'
p327
I92
sS'cutest'
p328
I92
sS"doesn't"
p329
I90
sS'cantkt'
p330
I92
sS'eternal'
p331
I92
sS'given'
p332
I92
sS'free'
p333
I83
sS'standard'
p334
I92
sS'ramos'
p335
I92
sS'struggle'
p336
I92
sS"people's"
p337
I91
sS'estimate'
p338
I90
sS'wanted'
p339
I89
sS'westside'
p340
I92
sS'mvp'
p341
I92
sS'dammit'
p342
I88
sS'ate'
p343
I92
sS'atb'
p344
I92
sS'15:39:47.0,34.01862782,-118.12307413,5301.02,even'
p345
I92
sS'starts'
p346
I90
sS'atm'
p347
I92
sS'days'
p348
I84
sS'priorities'
p349
I92
sS'heck'
p350
I91
sS'"no'
p351
I92
sS"today's"
p352
I91
sS'soda'
p353
I92
sS'b:-'
p354
I92
sS'loud'
p355
I91
sS"ilene's"
p356
I92
sS'fuckin'
p357
I92
sS'already'
p358
I69
sS'kim'
p359
I92
sS'champs'
p360
I92
sS'unfollowed'
p361
I92
sS'f\xc3\xa1cil'
p362
I92
sS'rank'
p363
I92
sS'perkins'
p364
I91
sS'hamstring'
p365
I92
sS'fantasy'
p366
I91
sS'haha,90640\n469679897053757441,chrispiliguian,2014-05-23'
p367
I92
sS'another'
p368
I81
sS'comin'
p369
I91
sS'sober'
p370
I91
sS'hood'
p371
I92
sS'anyone'
p372
I85
sS'basketball'
p373
I90
sS'girly'
p374
I91
sS'lego'
p375
I92
sS'sarcasm'
p376
I92
sS'top'
p377
I88
sS'girls'
p378
I89
sS'attack'
p379
I92
sS'elevator'
p380
I92
sS'*cries*'
p381
I92
sS'needed'
p382
I86
sS'dumbass'
p383
I91
sS'fumble'
p384
I91
sS'tom'
p385
I92
sS'legs'
p386
I91
sS'xd,90640\n505411241481760768,danielbreakdown,2014-08-29'
p387
I92
sS'damaging'
p388
I92
sS'listen'
p389
I88
sS'urban'
p390
I92
sS'ceiling'
p391
I92
sS'illiterate'
p392
I92
sS'toon'
p393
I92
sS'gym'
p394
I83
sS'16:07:46.0,34.01613419,-118.12333872,5301.02,hopefully'
p395
I92
sS'took'
p396
I90
sS'trippy'
p397
I92
sS'wisdom'
p398
I91
sS'predictable'
p399
I92
sS'cereal'
p400
I92
sS'suuuucks'
p401
I92
sS'showed'
p402
I91
sS'tree'
p403
I92
sS'likely'
p404
I91
sS'spending'
p405
I92
sS'matter'
p406
I91
sS'demarcus'
p407
I92
sS'classes'
p408
I90
sS'speaking'
p409
I91
sS'hottie'
p410
I92
sS'feeling'
p411
I88
sS'mini'
p412
I92
sS'cowboy)'
p413
I92
sS'lulz'
p414
I92
sS'sees'
p415
I92
sS'rewrite'
p416
I92
sS'ilene'
p417
I90
sS'mind'
p418
I91
sS'mine'
p419
I91
sS'anybody'
p420
I89
sS'talking'
p421
I79
sS'rat'
p422
I92
sS'seed'
p423
I92
sS'infront'
p424
I92
sS'rap'
p425
I92
sS'seen'
p426
I82
sS'seem'
p427
I91
sS'regulate'
p428
I92
sS'tells'
p429
I92
sS'ray'
p430
I91
sS'nights\xe2\x80\x9d'
p431
I92
sS'\xee\x84\x86\xe2\x80\x9dit'
p432
I92
sS'hispanic'
p433
I92
sS'maaaaaan'
p434
I92
sS'-'
p435
I54
sS'snow'
p436
I92
sS'sound'
p437
I92
sS'chest'
p438
I91
sS'laughed'
p439
I92
sS'soup"'
p440
I92
sS'rhcp'
p441
I92
sS'menudo'
p442
I92
sS'blue'
p443
I92
sS'dickkkkkk'
p444
I92
sS'though'
p445
I68
sS'nuevos'
p446
I92
sS'humbly'
p447
I92
sS'wells'
p448
I92
sS'victoria'
p449
I91
sS'germany'
p450
I91
sS'letter'
p451
I92
sS'jean'
p452
I92
sS'hut'
p453
I92
sS'clearance'
p454
I92
sS'episode'
p455
I92
sS'walang'
p456
I92
sS'texts'
p457
I92
sS'grove'
p458
I92
sS'm'
p459
I92
sS'dog'
p460
I90
sS'sores'
p461
I92
sS'doe'
p462
I92
sS'freeway'
p463
I92
sS'definitely'
p464
I89
sS'aunt'
p465
I92
sS',90640\n461174120474898432,adamluevano,2014-04-29'
p466
I92
sS'annoyed'
p467
I92
sS'came'
p468
I86
sS'saying'
p469
I91
sS'bomb'
p470
I90
sS'bakit'
p471
I92
sS'random'
p472
I90
sS'ending'
p473
I92
sS'radio'
p474
I92
sS'x3'
p475
I92
sS'earth'
p476
I92
sS'probs'
p477
I92
sS'fresita'
p478
I92
sS'busy'
p479
I92
sS'creeping'
p480
I92
sS'cousins'
p481
I91
sS'explain'
p482
I91
sS'riverbed'
p483
I92
sS'sugar'
p484
I92
sS'rebeldes'
p485
I92
sS'hrl'
p486
I92
sS'theme'
p487
I92
sS'n\xc3\xbamero'
p488
I91
sS'rich'
p489
I91
sS'rice'
p490
I91
sS'(cover)'
p491
I92
sS'wearing'
p492
I89
sS'do'
p493
I45
sS'purks'
p494
I92
sS'dm'
p495
I88
sS'dj'
p496
I91
sS'10'
p497
I89
sS'sleepy'
p498
I89
sS'ohdighizuwa'
p499
I92
sS'de'
p500
I92
sS'watch'
p501
I72
sS'cardinals'
p502
I91
sS'da'
p503
I92
sS'12'
p504
I92
sS'watermelon'
p505
I92
sS'spirit'
p506
I92
sS'wedding'
p507
I91
sS'report'
p508
I92
sS'nasty'
p509
I91
sS'dr'
p510
I92
sS'peyton'
p511
I92
sS'(hopefully)'
p512
I92
sS'earn'
p513
I92
sS'bar'
p514
I91
sS'.........,90640\n440608597475471360,adamluevano,2014-03-03'
p515
I92
sS'officially'
p516
I92
sS'kickback'
p517
I92
sS'bay'
p518
I92
sS'bad'
p519
I77
sS'bae'
p520
I86
sS'troop'
p521
I92
sS'shots'
p522
I91
sS'wannabe'
p523
I92
sS'bam'
p524
I92
sS'she.randomly'
p525
I92
sS'mandatory'
p526
I92
sS'fair'
p527
I91
sS'w/'
p528
I89
sS'liquor'
p529
I92
sS'testing'
p530
I91
sS'goodnight'
p531
I91
sS'shutup'
p532
I92
sS'(montebello'
p533
I39
sS'discussions'
p534
I92
sS'jerseys'
p535
I92
sS'"fuck'
p536
I92
sS'best'
p537
I74
sS'brazil'
p538
I90
sS'said'
p539
I76
sS'draws'
p540
I92
sS'youget'
p541
I92
sS'away'
p542
I82
sS'face*'
p543
I91
sS'bien'
p544
I92
sS'score'
p545
I90
sS'finger'
p546
I92
sS'hopefully'
p547
I89
sS'$65'
p548
I90
sS'bleach'
p549
I91
sS'empower'
p550
I92
sS'l.a.wonders'
p551
I92
sS'bighead'
p552
I92
sS'lazy'
p553
I90
sS'oomf'
p554
I92
sS'omg'
p555
I86
sS'wears'
p556
I92
sS'lupe'
p557
I92
sS'weak'
p558
I89
sS'boss'
p559
I92
sS'wu'
p560
I91
sS'nikka'
p561
I92
sS'omw'
p562
I92
sS'wear'
p563
I91
sS'wtf'
p564
I84
sS'cousin'
p565
I87
sS'picking'
p566
I92
sS'improve'
p567
I90
sS'protect'
p568
I92
sS'tfti'
p569
I85
sS'met'
p570
I90
sS'ill'
p571
I92
sS'adventures'
p572
I92
sS'against'
p573
I90
sS'players'
p574
I91
sS'games'
p575
I88
sS'cod'
p576
I92
sS'lookin'
p577
I92
sS'logic'
p578
I92
sS'carwash'
p579
I92
sS'hault...that'
p580
I92
sS'asked'
p581
I92
sS'con'
p582
I91
sS'16:50:18.0,34.0151083,-118.1219915,5301.02,they'
p583
I92
sS'tough'
p584
I92
sS'them?(x,90640\n499704634013790209,adamluevano,2014-08-13'
p585
I92
sS'chris_geezy93'
p586
I91
sS'shaaaaare'
p587
I92
sS'unicorns'
p588
I92
sS'ayeee'
p589
I91
sS'matty'
p590
I92
sS'2nd'
p591
I91
sS'jayy'
p592
I92
sS'karen'
p593
I91
sS'written'
p594
I92
sS'formally...like'
p595
I92
sS'springs'
p596
I92
sS'blonde'
p597
I92
sS'trust'
p598
I85
sS'speak'
p599
I91
sS'now('
p600
I92
sS'wakes'
p601
I92
sS'beef'
p602
I92
sS'"you'
p603
I92
sS'fri'
p604
I92
sS'three'
p605
I90
sS'been'
p606
I68
sS'beer'
p607
I83
sS'much'
p608
I78
sS'noel'
p609
I92
sS'puto'
p610
I92
sS'lovely'
p611
I92
sS'21:53:32.0,34.01674556,-118.12376962,5301.02,fml'
p612
I92
sS'pro'
p613
I92
sS'threw'
p614
I90
sS'website'
p615
I92
sS'life'
p616
I76
sS'\xe2\x9a\xab\xef\xb8\x8f'
p617
I92
sS'fairey'
p618
I92
sS'drugs'
p619
I88
sS'**new'
p620
I92
sS'irving'
p621
I92
sS'cobijada'
p622
I92
sS'lift'
p623
I91
sS'slap'
p624
I92
sS'child'
p625
I92
sS'catch'
p626
I80
sS'garcia'
p627
I92
sS'chili'
p628
I90
sS'haters'
p629
I92
sS'church)'
p630
I92
sS'retweeting'
p631
I92
sS'chill'
p632
I82
sS'has'
p633
I69
sS'tank'
p634
I92
sS'car...and'
p635
I92
sS'tang'
p636
I92
sS'husband...oh'
p637
I92
sS'bargers'
p638
I92
sS'tastes'
p639
I92
sS'n'
p640
I90
sS'ugly'
p641
I89
sS'suppose'
p642
I92
sS'teachers'
p643
I92
sS'stopping'
p644
I92
sS'voice'
p645
I92
sS'smoky'
p646
I92
sS'chilling'
p647
I90
sS'veronica'
p648
I92
sS'seven'
p649
I92
sS'changed'
p650
I92
sS'song**'
p651
I92
sS'mexico'
p652
I90
sS'thursdays'
p653
I92
sS'is'
p654
I11
sS'sushi'
p655
I90
sS'it'
p656
I15
sS'15:47:07.0,34.01587435,-118.12284485,5301.02,i'
p657
I92
sS'tease'
p658
I92
sS'player'
p659
I92
sS'cant'
p660
I91
sS'australia'
p661
I92
sS'im'
p662
I81
sS'piercings'
p663
I92
sS'in'
p664
I12
sS'seattle'
p665
I90
sS'mouse'
p666
I92
sS'id'
p667
I91
sS',90640\n489815846420611072,sammydz_nuts,2014-07-17'
p668
I92
sS'if'
p669
I44
sS'mowing'
p670
I92
sS'nike'
p671
I92
sS'perform'
p672
I92
sS'things'
p673
I85
sS'make'
p674
I75
sS'burger)'
p675
I91
sS"everybody's"
p676
I92
sS'jerry'
p677
I92
sS'plated'
p678
I92
sS'manchen'
p679
I92
sS',90640\n432103350038196224,oscarkalikid86,2014-02-08'
p680
I92
sS'hahah'
p681
I90
sS'babies'
p682
I92
sS"youngin'"
p683
I92
sS'success'
p684
I92
sS'shawty'
p685
I91
sS'several'
p686
I92
sS'showing'
p687
I92
sS'meets'
p688
I91
sS'raid'
p689
I92
sS'screw'
p690
I92
sS'pick'
p691
I81
sS'hang'
p692
I88
sS'rain'
p693
I92
sS'hand'
p694
I91
sS'o-line'
p695
I91
sS'garlic'
p696
I92
sS'lol\xe2\x80\x9d'
p697
I92
sS'deaum'
p698
I92
sS'jealous'
p699
I92
sS'cracks!xd'
p700
I92
sS'thoughts'
p701
I92
sS'kid'
p702
I88
sS'butter'
p703
I92
sS'kept'
p704
I87
sS'23:01:27.0,34.01572379,-118.12372315,5301.02,cutie'
p705
I92
sS'matters'
p706
I92
sS'youre'
p707
I91
sS'17:46:44.0,34.0199759,-118.1225383,5301.02,uuuuggggghhhhhhhhhhh,90640\n505400899062099968,danielbreakdown,2014-08-29'
p708
I92
sS'80%'
p709
I92
sS'ocean'
p710
I92
sS'tho'
p711
I86
sS'burgers'
p712
I92
sS'contact'
p713
I92
sS'greatest'
p714
I91
sS'mother'
p715
I91
sS'romo'
p716
I92
sS'the'
p717
I3
sS'smoked'
p718
I92
sS'yours'
p719
I91
sS'dads'
p720
I92
sS'left'
p721
I84
sS'friendzone'
p722
I92
sS'boyhood'
p723
I92
sS'manfro'
p724
I92
sS'just'
p725
I26
sS'yea'
p726
I72
sS'photo'
p727
I92
sS'bruise'
p728
I91
sS'unfair'
p729
I92
sS'pujols'
p730
I90
sS'grades'
p731
I92
sS'spoiled'
p732
I92
sS'psych'
p733
I92
sS'thanks'
p734
I81
sS'human'
p735
I92
sS'swears'
p736
I92
sS'shuffle'
p737
I92
sS'yes'
p738
I79
sS'waffles'
p739
I92
sS'yet'
p740
I85
sS"break'"
p741
I92
sS'previous'
p742
I92
sS'hah'
p743
I92
sS'broncos'
p744
I86
sS'\xe2\x98\xba\xe2\x98\xba'
p745
I92
sS'cherry'
p746
I92
sS'had'
p747
I74
sS'pharmacy'
p748
I85
sS'hay'
p749
I92
sS'shout'
p750
I90
sS'potential'
p751
I92
sS'rumor'
p752
I92
sS'easy'
p753
I91
sS'save'
p754
I90
sS'hat'
p755
I92
sS'behind-the-scenes'
p756
I92
sS'gave'
p757
I92
sS'104\xe2\x80\x9d'
p758
I92
sS'vehicles)'
p759
I91
sS'credit'
p760
I92
sS'possible'
p761
I92
sS'lcd'
p762
I91
sS'performance'
p763
I92
sS'dreamt'
p764
I92
sS'strap'
p765
I92
sS'savagely'
p766
I92
sS'dreams'
p767
I91
sS'culturaaaaa'
p768
I92
sS'brought'
p769
I90
sS'nevermind'
p770
I92
sS'gift'
p771
I92
sS'-_-'
p772
I90
sS'bobby'
p773
I91
sS'"lolol"'
p774
I92
sS'bpl'
p775
I92
sS'tebow'
p776
I92
sS'favoriting'
p777
I92
sS'22:18:28.0,34.01589899,-118.12187465,5301.02,making'
p778
I92
sS'officer'
p779
I92
sS'night'
p780
I61
sS'amor'
p781
I92
sS',90640\n460838006320922626,adamluevano,2014-04-28'
p782
I92
sS'draw'
p783
I92
sS'16:43:25.0,34.0151083,-118.1219915,5301.02,omg'
p784
I92
sS'attorney'
p785
I92
sS'right'
p786
I60
sS'old'
p787
I80
sS';(,90640\n343267521102761984,roxiebeauregard,2013-06-08'
p788
I92
sS'people'
p789
I70
sS',90640\n500069047665721345,malenee11,2014-08-14'
p790
I92
sS'successfully'
p791
I92
sS'idgaf'
p792
I89
sS'jennifer'
p793
I91
sS'born'
p794
I92
sS'clubs'
p795
I92
sS'paragraphs'
p796
I92
sS'dear'
p797
I91
sS'finna'
p798
I90
sS'creep'
p799
I92
sS'growling'
p800
I92
sS'wooow'
p801
I92
sS'for'
p802
I19
sS'notification'
p803
I92
sS'ear'
p804
I92
sS'ice'
p805
I91
sS'everything'
p806
I79
sS'asking'
p807
I92
sS'umm'
p808
I92
sS'3:30'
p809
I92
sS'foo'
p810
I84
sS'christmas'
p811
I91
sS'hazel'
p812
I92
sS'pls'
p813
I92
sS'bold'
p814
I91
sS'deleted'
p815
I91
sS'burn'
p816
I92
sS'disappeared'
p817
I92
sS'deadly'
p818
I92
sS'criminals'
p819
I92
sS'defensive'
p820
I92
sS'freese'
p821
I92
sS'post'
p822
I90
sS'super'
p823
I87
sS'shuck'
p824
I92
sS',90640\n446401880982581248,adamluevano,2014-03-19'
p825
I92
sS'chapter'
p826
I92
sS'dunking'
p827
I92
sS"me...i'm"
p828
I92
sS'_____'
p829
I92
sS'$75'
p830
I91
sS'attacks'
p831
I92
sS'ribs'
p832
I92
sS'months'
p833
I92
sS'o'
p834
I90
sS'dinner'
p835
I90
sS'remember?(x'
p836
I92
sS'plus'
p837
I91
sS'importantly'
p838
I92
sS'match'
p839
I92
sS'nerve'
p840
I92
sS'summer!,90640\n520619797193584640,samanthareee,2014-10-10'
p841
I92
sS'aha'
p842
I80
sS'whats'
p843
I90
sS'cracking'
p844
I92
sS'lied'
p845
I91
sS'twitcon'
p846
I92
sS'rafa'
p847
I91
sS'selfie'
p848
I92
sS'soo'
p849
I91
sS'puke'
p850
I91
sS'down'
p851
I50
sS'pair'
p852
I92
sS'honored'
p853
I92
sS'mhdc'
p854
I92
sS'existed'
p855
I91
sS'deal'
p856
I92
sS'whooping'
p857
I92
sS'chargers'
p858
I92
sS'wag'
p859
I92
sS'support'
p860
I92
sS'constantly'
p861
I92
sS'jealousy'
p862
I92
sS'fight'
p863
I91
sS'gig'
p864
I92
sS'way'
p865
I71
sS'greatness'
p866
I92
sS'call'
p867
I86
sS'was'
p868
I29
sS'war'
p869
I91
sS'happy'
p870
I81
sS"you'd"
p871
I92
sS'head'
p872
I87
sS'yolo'
p873
I92
sS'form'
p874
I92
sS'sonthat'
p875
I92
sS'magnificent'
p876
I92
sS'$200'
p877
I91
sS'fireworks'
p878
I92
sS'lawn'
p879
I92
sS'bengals'
p880
I92
sS'shits'
p881
I92
sS'hurrrrr'
p882
I92
sS'needles'
p883
I92
sS'hear'
p884
I90
sS'dead'
p885
I91
sS'robertson'
p886
I92
sS'jenaekitaguchi'
p887
I92
sS'true'
p888
I87
sS'16:48:06.0,34.0151083,-118.1219915,5301.02,i'
p889
I92
sS'din-din'
p890
I92
sS"shah's"
p891
I92
sS'though,90640\n489813807871426560,sammydz_nuts,2014-07-17'
p892
I92
sS'builds'
p893
I92
sS'happen'
p894
I86
sS"else's"
p895
I91
sS'undefeated'
p896
I92
sS'inside'
p897
I91
sS'strongest'
p898
I92
sS'tell'
p899
I74
sS'r.i.p'
p900
I92
sS'adore'
p901
I92
sS'smashed'
p902
I92
sS'emotional'
p903
I92
sS'lates'
p904
I92
sS'penal'
p905
I91
sS'moora'
p906
I92
sS'phil'
p907
I92
sS'proved'
p908
I92
sS'moore'
p909
I91
sS'tryna'
p910
I92
sS'stronger'
p911
I92
sS'escape'
p912
I92
sS'????,90640\n411543506704818176,adamluevano,2013-12-13'
p913
I92
sS'drive'
p914
I84
sS'somebody'
p915
I92
sS'sometime'
p916
I92
sS'15%'
p917
I92
sS'starbucks!\xe2\x98\x95'
p918
I92
sS'prayer'
p919
I92
sS'"alissaaaaaaaa'
p920
I92
sS'annoying'
p921
I88
sS'check'
p922
I87
sS'shit'
p923
I54
sS'pipe'
p924
I91
sS'floor'
p925
I91
sS'na'
p926
I87
sS'commercials'
p927
I92
sS'when'
p928
I44
sS'actor'
p929
I90
sS'ng'
p930
I92
sS'til'
p931
I89
sS'tim'
p932
I92
sS'tio'
p933
I92
sS'republic'
p934
I92
sS'holding'
p935
I92
sS'test'
p936
I85
sS'chentes'
p937
I92
sS'smell'
p938
I92
sS'roll'
p939
I92
sS'realize'
p940
I91
sS'scored'
p941
I92
sS'picture'
p942
I90
sS"'s"
p943
I90
sS"o'clock"
p944
I92
sS'surprise'
p945
I92
sS'why'
p946
I57
sS'football'
p947
I84
sS'yardage'
p948
I92
sS"let's"
p949
I80
sS'musty'
p950
I92
sS'fell'
p951
I90
sS'miranda'
p952
I92
sS'rolling'
p953
I92
sS'weekend'
p954
I87
sS'died'
p955
I90
sS'babysitting'
p956
I91
sS'billion'
p957
I92
sS'faaaaaaaakk'
p958
I92
sS'longer'
p959
I91
sS'bullet'
p960
I92
sS'excuse'
p961
I92
sS'assume'
p962
I92
sS'comfortable'
p963
I92
sS'daily'
p964
I90
sS'loyal'
p965
I92
sS'warm'
p966
I92
sS'time'
p967
I47
sS'serious'
p968
I89
sS'crazyyy'
p969
I92
sS'$$$'
p970
I92
sS'basically'
p971
I90
sS':/'
p972
I87
sS':('
p973
I84
sS':)'
p974
I78
sS'chain'
p975
I90
sS'drained'
p976
I92
sS'dance'
p977
I89
sS'excellent'
p978
I92
sS'focus'
p979
I92
sS'snip'
p980
I91
sS'grateful'
p981
I92
sS'indians'
p982
I92
sS'milk'
p983
I92
sS'devoted'
p984
I92
sS'21st'
p985
I92
sS'hold'
p986
I92
sS'yummy'
p987
I92
sS'beckham'
p988
I92
sS"when's"
p989
I92
sS'hump'
p990
I92
sS'contemplating'
p991
I92
sS'0'
p992
I91
sS'finally'
p993
I78
sS'vee'
p994
I92
sS'!!,90640\n451027349497454593,adamluevano,2014-04-01'
p995
I92
sS'marks'
p996
I92
sS'discovering'
p997
I92
sS"5'4"
p998
I92
sS"a's"
p999
I92
sS'jogged'
p1000
I92
sS'^.^'
p1001
I91
sS':o'
p1002
I91
sS':i'
p1003
I92
sS'3am'
p1004
I91
sS':d'
p1005
I92
sS'iggy'
p1006
I92
sS'keeping'
p1007
I92
sS'choice'
p1008
I91
sS'oyyy'
p1009
I92
sS'vegas'
p1010
I92
sS'cook'
p1011
I92
sS'trouble'
p1012
I92
sS'blast'
p1013
I91
sS'exact'
p1014
I92
sS'minute'
p1015
I92
sS'cool'
p1016
I80
sS'mexicans'
p1017
I92
sS'level'
p1018
I91
sS'did'
p1019
I72
sS'cleaners'
p1020
I73
sS'accidentally'
p1021
I92
sS'turnt'
p1022
I92
sS"'pitch"
p1023
I92
sS'leave'
p1024
I85
sS'isaved'
p1025
I92
sS'subway'
p1026
I92
sS'team'
p1027
I85
sS'quick'
p1028
I89
sS'guy'
p1029
I79
sS'dip'
p1030
I92
sS'round'
p1031
I90
sS'retweeted'
p1032
I92
sS"it'll"
p1033
I91
sS'application'
p1034
I92
sS'something"you'
p1035
I92
sS'talked'
p1036
I91
sS'says'
p1037
I89
sS"we'll"
p1038
I92
sS'porn'
p1039
I92
sS'cyber'
p1040
I92
sS'sign'
p1041
I92
sS'cost'
p1042
I92
sS'shirts'
p1043
I91
sS'shalke04'
p1044
I92
sS'anaconda'
p1045
I92
sS'trent'
p1046
I92
sS'run'
p1047
I87
sS'bake'
p1048
I91
sS'pedi'
p1049
I92
sS'fear'
p1050
I92
sS'swishers'
p1051
I92
sS'drinks'
p1052
I91
sS'gotchuuuuu'
p1053
I92
sS'uniform'
p1054
I92
sS'goes'
p1055
I88
sS'reply'
p1056
I87
sS'falling'
p1057
I89
sS'elac'
p1058
I91
sS'ummmm'
p1059
I92
sS"dentists'"
p1060
I92
sS'filled'
p1061
I92
sS'azusa'
p1062
I92
sS'proclaiming'
p1063
I92
sS'03:23:08.0,34.01148839,-118.10861447,5301.02,loaded'
p1064
I92
sS'makeup'
p1065
I91
sS'french'
p1066
I92
sS'water'
p1067
I88
sS'downloaded'
p1068
I92
sS'detest'
p1069
I92
sS'baseball'
p1070
I91
sS'yards'
p1071
I92
sS'alone'
p1072
I90
sS'04:30:30.0,34.01016,-118.10832,5301.02,this'
p1073
I92
sS'teacher'
p1074
I91
sS'change'
p1075
I90
sS'wait'
p1076
I82
sS'boy'
p1077
I90
sS'incoming'
p1078
I92
sS'\xe2\x9c\x8b'
p1079
I88
sS'shove'
p1080
I92
sS'canadian'
p1081
I92
sS'rethink'
p1082
I92
sS'20:21:50.0,34.01674904,-118.12365646,5301.02,,90640\n452512872745033728,adamluevano,2014-04-05'
p1083
I92
sS'wherever'
p1084
I92
sS'tams'
p1085
I92
sS'lakers'
p1086
I92
sS'husband'
p1087
I92
sS'boi'
p1088
I91
sS'maclin'
p1089
I92
sS'boo'
p1090
I92
sS'usually'
p1091
I90
sS'weird'
p1092
I86
sS'shook'
p1093
I92
sS'studies'
p1094
I92
sS'massage'
p1095
I90
sS'motherfucking'
p1096
I91
sS'love'
p1097
I58
sS'starring'
p1098
I92
sS'cheeseburger'
p1099
I92
sS'elixir'
p1100
I92
sS'16:29:28.0,34.01689275,-118.12399593,5301.02,that'
p1101
I92
sS'1st'
p1102
I83
sS'touchdown'
p1103
I88
sS'embarrassing'
p1104
I92
sS'benalan'
p1105
I92
sS'crime'
p1106
I92
sS'"groove"'
p1107
I92
sS'everybody'
p1108
I91
sS'retarded'
p1109
I92
sS'comps'
p1110
I92
sS'bayern'
p1111
I92
sS'troops'
p1112
I92
sS'working'
p1113
I89
sS'prove'
p1114
I92
sS'aye'
p1115
I83
sS'angry'
p1116
I92
sS'dude'
p1117
I80
sS'only'
p1118
I75
sS'butts'
p1119
I92
sS'by'
p1120
I57
sS'parties'
p1121
I92
sS'soundsystem'
p1122
I91
sS'live'
p1123
I84
sS'jam'
p1124
I91
sS'j.colewho'
p1125
I92
sS'iphone'
p1126
I92
sS'wondering'
p1127
I92
sS'ahhh'
p1128
I91
sS'ludogorets\xe2\x80\x9dwhat'
p1129
I92
sS'thru'
p1130
I92
sS'angels'
p1131
I85
sS'prep'
p1132
I92
sS'today'
p1133
I58
sS'loving'
p1134
I91
sS'club'
p1135
I92
sS'ooooooo'
p1136
I92
sS'bs'
p1137
I92
sS'bowlwinkle'
p1138
I92
sS'chocolate'
p1139
I92
sS'downtown'
p1140
I92
sS'wooo'
p1141
I92
sS'drown'
p1142
I92
sS'everywhere'
p1143
I91
sS'"main"'
p1144
I91
sS'effort'
p1145
I92
sS'borutsia'
p1146
I92
sS'fly'
p1147
I92
sS'honey'
p1148
I92
sS'wanda'
p1149
I92
sS'subed'
p1150
I92
sS'niggas'
p1151
I78
sS'julius'
p1152
I85
sS'car'
p1153
I88
sS'soul'
p1154
I91
sS'cat'
p1155
I92
sS'purge'
p1156
I91
sS'wallet'
p1157
I92
sS'can'
p1158
I53
sS'kendrick'
p1159
I88
sS'growing'
p1160
I92
sS'making'
p1161
I86
sS'and1'
p1162
I92
sS'dollars'
p1163
I92
sS'heart'
p1164
I89
sS'crazy'
p1165
I85
sS'awesome'
p1166
I92
sS"didn't"
p1167
I75
sS'fuck'
p1168
I25
sS'off,90640\n512747490991292416,savieeguurl,2014-09-18'
p1169
I92
sS'topic'
p1170
I92
sS'heard'
p1171
I89
sS'abort'
p1172
I92
sS'dropped'
p1173
I91
sS'dying....help'
p1174
I92
sS'offense'
p1175
I87
sS'wayyyy'
p1176
I92
sS'winter'
p1177
I89
sS'leaked'
p1178
I92
sS'discussion'
p1179
I92
sS'watching'
p1180
I84
sS'sudden'
p1181
I92
sS'usf'
p1182
I92
sS'trophies'
p1183
I91
sS'1'
p1184
I85
sS'till'
p1185
I86
sS'pura'
p1186
I92
sS'fourth'
p1187
I92
sS'nighters'
p1188
I92
sS'dope'
p1189
I92
sS'ballgame'
p1190
I92
sS'preferably'
p1191
I92
sS'staying'
p1192
I90
sS'laundry'
p1193
I91
sS'may'
p1194
I89
sS'max'
p1195
I91
sS'blasting'
p1196
I89
sS'spot'
p1197
I90
sS'applications'
p1198
I92
sS'jaguars'
p1199
I92
sS'birthday'
p1200
I80
sS'tonite'
p1201
I92
sS'mad'
p1202
I86
sS'date'
p1203
I91
sS'such'
p1204
I86
sS'suck'
p1205
I88
sS'guys'
p1206
I80
sS'grow'
p1207
I90
sS'lifting'
p1208
I92
sS'man'
p1209
I71
sS'remember'
p1210
I90
sS'johnson'
p1211
I92
sS'whenever'
p1212
I92
sS'maybe'
p1213
I89
sS'st'
p1214
I90
sS'si'
p1215
I90
sS'mango'
p1216
I92
sS'so'
p1217
I23
sS'est\xc3\xa9s'
p1218
I92
sS'kicked'
p1219
I92
sS'sc'
p1220
I92
sS'tall'
p1221
I92
sS'sa'
p1222
I92
sS'unaired'
p1223
I92
sS'talk'
p1224
I83
sS'sd'
p1225
I92
sS'21:11:32.0,34.01572787,-118.12222978,5301.02,some'
p1226
I92
sS'cute'
p1227
I81
sS'serving'
p1228
I92
sS'shoes'
p1229
I90
sS'east'
p1230
I92
sS'night<3'
p1231
I92
sS'haircut'
p1232
I85
sS'years'
p1233
I85
sS'course'
p1234
I92
sS'ing'
p1235
I92
sS'idgi'
p1236
I92
sS'cuts'
p1237
I90
sS'managers'
p1238
I92
sS'cold'
p1239
I89
sS'still'
p1240
I65
sS'clans'
p1241
I92
sS'blocked'
p1242
I92
sS'rosetta'
p1243
I92
sS'swank'
p1244
I92
sS'group'
p1245
I91
sS'thank'
p1246
I75
sS'how'
p1247
I46
sS'club:d'
p1248
I92
sS'troubles'
p1249
I92
sS'louisville'
p1250
I92
sS'93%'
p1251
I92
sS'parmesean'
p1252
I92
sS'gatorade'
p1253
I92
sS',90640\n472470189963874304,pinkkboots,2014-05-30'
p1254
I92
sS'tweets'
p1255
I88
sS'main'
p1256
I90
sS'home\xe2\x80\xa6'
p1257
I92
sS'marshall'
p1258
I92
sS'nom'
p1259
I90
sS'lonely'
p1260
I92
sS'3'
p1261
I84
sS'moms'
p1262
I90
sS'devastated'
p1263
I92
sS'sarcastic'
p1264
I92
sS'feelin'
p1265
I91
sS'lunch'
p1266
I86
sS'half'
p1267
I88
sS'not'
p1268
I40
sS'now'
p1269
I53
sS'ahaha'
p1270
I92
sS'bullshit'
p1271
I90
sS'halo'
p1272
I92
sS'josh'
p1273
I92
sS'argentina'
p1274
I92
sS'name'
p1275
I87
sS'clutch'
p1276
I91
sS'early,90640\n489813090733543425,sammydz_nuts,2014-07-17'
p1277
I92
sS'drop'
p1278
I91
sS'dilfer'
p1279
I92
sS'boosties'
p1280
I92
sS'debating'
p1281
I92
sS"playin'"
p1282
I92
sS'espns'
p1283
I92
sS'bowling'
p1284
I91
sS'veins'
p1285
I92
sS'ohmaigaah'
p1286
I92
sS'concerts'
p1287
I92
sS'em'
p1288
I88
sS'el'
p1289
I91
sS'en'
p1290
I92
sS'wings.\xe2\x80\x9d'
p1291
I92
sS'lowkey'
p1292
I89
sS'ee'
p1293
I92
sS'ughh'
p1294
I92
sS'yeah'
p1295
I73
sS'boosie'
p1296
I92
sS'bradley'
p1297
I92
sS'dudeeeeeeeeeeeeeeeeeee'
p1298
I92
sS'ex'
p1299
I90
sS'year'
p1300
I86
sS'girl'
p1301
I79
sS'tuned'
p1302
I92
sS'obsession'
p1303
I92
sS'tried'
p1304
I88
sS'album'
p1305
I87
sS'living'
p1306
I92
sS'space'
p1307
I92
sS'coincidentally'
p1308
I92
sS'fu'
p1309
I92
sS'looking'
p1310
I90
sS'mess'
p1311
I90
sS'seriously'
p1312
I81
sS'miles'
p1313
I92
sS'pamela'
p1314
I92
sS"shouldn't"
p1315
I91
sS'interception'
p1316
I92
sS'suggesting'
p1317
I92
sS'bless'
p1318
I92
sS'emilys'
p1319
I92
sS'nudes'
p1320
I89
sS'pussssayyy'
p1321
I92
sS'rebuilding'
p1322
I92
sS'dodgers'
p1323
I90
sS'huevos'
p1324
I92
sS'million'
p1325
I92
sS'material'
p1326
I92
sS'ajax'
p1327
I92
sS'california'
p1328
I92
sS'crazier'
p1329
I92
sS'grandma'
p1330
I91
sS'chavo'
p1331
I92
sS'whittier'
p1332
I90
sS'care'
p1333
I86
sS'you,90640\n489814805725716481,sammydz_nuts,2014-07-17'
p1334
I92
sS'block.\xe2\x80\x9d'
p1335
I92
sS'yup'
p1336
I91
sS'headphones'
p1337
I92
sS'punk'
p1338
I92
sS'placa'
p1339
I92
sS'turn'
p1340
I87
sS'place'
p1341
I85
sS'vision'
p1342
I92
sS',90640\n512748059210444800,savieeguurl,2014-09-18'
p1343
I92
sS'socking'
p1344
I92
sS'turf'
p1345
I92
sS'dinero'
p1346
I92
sS'think'
p1347
I64
sS'creatine'
p1348
I92
sS'first'
p1349
I81
sS'cheese'
p1350
I89
sS'joshvc21'
p1351
I92
sS'>>>>'
p1352
I92
sS'ftball'
p1353
I92
sS'potter'
p1354
I92
sS'rockabilly\xe2\x80\xa6'
p1355
I92
sS'xd'
p1356
I91
sS'yourself'
p1357
I89
sS'company'
p1358
I92
sS'americans'
p1359
I92
sS'long'
p1360
I81
sS'spanish'
p1361
I87
sS'day\xe2\x80\xa6'
p1362
I92
sS'compared'
p1363
I92
sS'sounds'
p1364
I85
sS"stage'"
p1365
I92
sS'open'
p1366
I92
sS'tomorrow'
p1367
I74
sS'guitarists'
p1368
I92
sS'city'
p1369
I83
sS'little'
p1370
I82
sS'ian'
p1371
I92
sS'silent'
p1372
I92
sS'district'
p1373
I92
sS"valentine's"
p1374
I92
sS'caught'
p1375
I91
sS'slept'
p1376
I90
sS'carson'
p1377
I91
sS'fml'
p1378
I92
sS'2'
p1379
I76
sS'draft'
p1380
I92
sS'white'
p1381
I89
sS'16:04:34.0,34.01685149,-118.12175341,5301.02,sending'
p1382
I92
sS'friend'
p1383
I89
sS'gives'
p1384
I88
sS'yrself'
p1385
I92
sS'eyes'
p1386
I89
sS'copa'
p1387
I92
sS'gia'
p1388
I92
sS'that'
p1389
I16
sS'season'
p1390
I90
sS'huh'
p1391
I91
sS'cerebro'
p1392
I92
sS'boba'
p1393
I92
sS'$\\/\\/4g'
p1394
I92
sS'released'
p1395
I91
sS'ridiculous'
p1396
I92
sS'butt'
p1397
I92
sS'fooled'
p1398
I91
sS'copy'
p1399
I92
sS'than'
p1400
I79
sS'boyfriend'
p1401
I91
sS'widd'
p1402
I92
sS'wide'
p1403
I90
sS'13'
p1404
I91
sS'gurrly_ayleen'
p1405
I92
sS'lmao'
p1406
I62
sS'broun'
p1407
I92
sS'19'
p1408
I92
sS'18'
p1409
I89
sS'gotta'
p1410
I86
sS'"300"'
p1411
I92
sS'rehab'
p1412
I92
sS'dissed'
p1413
I92
sS'r'
p1414
I90
sS'1%'
p1415
I92
sS'were'
p1416
I76
sS'asleep'
p1417
I88
sS'sublime'
p1418
I92
sS'sean'
p1419
I92
sS'and'
p1420
I9
sS'mountain'
p1421
I92
sS'hairline'
p1422
I92
sS'tasted'
p1423
I92
sS'nicer'
p1424
I92
sS'topics'
p1425
I92
sS'premier'
p1426
I92
sS'turned'
p1427
I91
sS'argument'
p1428
I92
sS'have/want'
p1429
I92
sS'sad'
p1430
I90
sS'woah'
p1431
I92
sS'say'
p1432
I74
sS'lurking'
p1433
I92
sS'10-year'
p1434
I92
sS'creepin'
p1435
I92
sS'breakfast'
p1436
I91
sS'saw'
p1437
I89
sS'any'
p1438
I88
sS'kevin'
p1439
I92
sS'invite'
p1440
I92
sS'speakers'
p1441
I92
sS'nots'
p1442
I92
sS'waddles'
p1443
I92
sS'note'
p1444
I92
sS'omfg'
p1445
I92
sS'squad'
p1446
I83
sS'hookah'
p1447
I91
sS'take'
p1448
I79
sS'online'
p1449
I90
sS'wanting'
p1450
I91
sS'concern'
p1451
I92
sS'suotin'
p1452
I92
sS'200'
p1453
I92
sS'sure'
p1454
I81
sS'pain'
p1455
I91
sS'theatre'
p1456
I92
sS'arguing'
p1457
I92
sS'cheesecake'
p1458
I92
sS'knew'
p1459
I87
sS'paid'
p1460
I91
sS'rehearsal'
p1461
I92
sS'20%'
p1462
I91
sS'up...a'
p1463
I92
sS'freshman'
p1464
I90
sS'america'
p1465
I91
sS'beto'
p1466
I92
sS'pages'
p1467
I92
sS'icon'
p1468
I91
sS'forever'
p1469
I87
sS'girl?me'
p1470
I92
sS'especially'
p1471
I90
sS'considered'
p1472
I92
sS'egg'
p1473
I92
sS'seafood'
p1474
I92
sS'later'
p1475
I89
sS'omaha'
p1476
I92
sS'hungry'
p1477
I82
sS'wing'
p1478
I92
sS'<3\xe2\x80\x9d'
p1479
I92
sS'senior'
p1480
I92
sS'wine'
p1481
I92
sS'shop'
p1482
I69
sS'walking'
p1483
I90
sS'shot'
p1484
I92
sS'<3,90640\n283079999425224705,happystephyxoxo,2012-12-24'
p1485
I92
sS'show'
p1486
I86
sS'german'
p1487
I89
sS'to\xe2\x80\x9d'
p1488
I92
sS'cheap'
p1489
I92
sS'discovered'
p1490
I92
sS'nate'
p1491
I92
sS'bright'
p1492
I91
sS'shoe'
p1493
I92
sS'data'
p1494
I92
sS'injection'
p1495
I92
sS'ground'
p1496
I91
sS'"who\'s'
p1497
I92
sS'\xe2\x99\xa5'
p1498
I92
sS'dice'
p1499
I92
sS'roby'
p1500
I91
sS'dick'
p1501
I91
sS'saints'
p1502
I92
sS'enough'
p1503
I89
sS'shimmer'
p1504
I92
sS'fairbairn'
p1505
I92
sS'tears'
p1506
I90
sS'going'
p1507
I52
sS'black'
p1508
I87
sS'ceremonies'
p1509
I92
sS'only.imagine'
p1510
I92
sS'posted'
p1511
I92
sS'get'
p1512
I33
sS'goodluck'
p1513
I92
sS'revolutionized'
p1514
I92
sS'diamonds'
p1515
I92
sS'seen^'
p1516
I92
sS'truly'
p1517
I92
sS'upgrade'
p1518
I92
sS'nearly'
p1519
I92
sS',90640\n446400566793895936,adamluevano,2014-03-19'
p1520
I92
sS'21:39:23.0,34.01591042,-118.12334805,5301.02,dammmmmm'
p1521
I92
sS'whaaat'
p1522
I91
sS'05:21:45.0,34.0111228,-118.1083623,5301.02,geting'
p1523
I92
sS'freaking'
p1524
I92
sS'20:10:46.0,34.01087199,-118.11091235,5301.02,i'
p1525
I92
sS'swim'
p1526
I92
sS'hellooooo'
p1527
I92
sS'rosecrans'
p1528
I92
sS'way"\xe2\x80\x9d>>'
p1529
I92
sS'morning'
p1530
I79
sS":')"
p1531
I92
sS'stupid'
p1532
I75
sS"could've"
p1533
I92
sS'amused'
p1534
I92
sS'where'
p1535
I74
sS'fridge'
p1536
I92
sS"y'all"
p1537
I88
sS'concert'
p1538
I92
sS'espn'
p1539
I92
sS'physically'
p1540
I92
sS'fe'
p1541
I92
sS'up'
p1542
I22
sS'dragonball'
p1543
I92
sS'foul'
p1544
I92
sS'college'
p1545
I88
sS'anyways'
p1546
I92
sS'hoes'
p1547
I91
sS'whatt'
p1548
I92
sS'stigma'
p1549
I92
sS'smiling'
p1550
I92
sS'wonder'
p1551
I91
sS'fails'
p1552
I92
sS'ways'
p1553
I92
sS'outside'
p1554
I90
sS'morales'
p1555
I87
sS'between'
p1556
I91
sS'across'
p1557
I91
sS'fuuuuuuuuuh'
p1558
I92
sS'notice'
p1559
I90
sS'august'
p1560
I91
sS'receivers'
p1561
I91
sS'plndr'
p1562
I91
sS'dome'
p1563
I92
sS'jr'
p1564
I92
sS'killing'
p1565
I91
sS'blame'
p1566
I92
sS'concentrate'
p1567
I92
sS'armenian'
p1568
I92
sS'como'
p1569
I92
sS'jk'
p1570
I86
sS'jets'
p1571
I91
sS'comeback'
p1572
I92
sS'js'
p1573
I92
sS'come'
p1574
I69
sS'jb'
p1575
I92
sS'fried'
p1576
I92
sS'missions'
p1577
I92
sS'jfc'
p1578
I92
sS'many'
p1579
I89
sS'quiet'
p1580
I91
sS'restroom'
p1581
I92
sS'pronto'
p1582
I92
sS'tour'
p1583
I90
sS'sacked'
p1584
I92
sS'disappointment'
p1585
I92
sS'kaepernick'
p1586
I92
sS'senator'
p1587
I92
sS'17:09:52.0,34.01602643,-118.12337648,5301.02,my'
p1588
I92
sS'comes'
p1589
I90
sS'color'
p1590
I92
sS'pow'
p1591
I89
sS'pot'
p1592
I92
sS'hurts'
p1593
I88
sS'!!,90640\n411579964425637888,adamluevano,2013-12-13'
p1594
I92
sS'period'
p1595
I90
sS'coma'
p1596
I92
sS'medication'
p1597
I92
sS"couldn't"
p1598
I89
sS'writing'
p1599
I92
sS'now\xe2\x80\x9d'
p1600
I92
sS'unusual'
p1601
I92
sS'lifes'
p1602
I92
sS'cares'
p1603
I92
sS'stretch'
p1604
I92
sS'toothpaste'
p1605
I92
sS'undershirt'
p1606
I92
sS'ucla'
p1607
I87
sS'mark'
p1608
I91
sS'today,90640\n513122394009903104,alvaradomay35,2014-09-20'
p1609
I92
sS'mars'
p1610
I92
sS'staring'
p1611
I92
sS'hardly'
p1612
I92
sS'tyga'
p1613
I92
sS'thruuuuu'
p1614
I92
sS'schoolboy'
p1615
I91
sS'wants'
p1616
I90
sS'direction'
p1617
I92
sS'lanes'
p1618
I72
sS'madrid-'
p1619
I92
sS'thousand'
p1620
I92
sS'blessing'
p1621
I91
sS'andrew'
p1622
I91
sS'waka'
p1623
I92
sS'dramatic'
p1624
I92
sS'wake'
p1625
I91
sS'comming'
p1626
I92
sS'champions'
p1627
I90
sS'those'
p1628
I85
sS'wanders'
p1629
I92
sS'4-0'
p1630
I92
sS'myself'
p1631
I81
sS'casa'
p1632
I92
sS'16:52:04.0,34.0151083,-118.1219915,5301.02,a'
p1633
I92
sS'these'
p1634
I63
sS'maliyah'
p1635
I92
sS'trick'
p1636
I92
sS'ratchet'
p1637
I92
sS'mono'
p1638
I92
sS'situation'
p1639
I91
sS'ktla'
p1640
I92
sS'orientation'
p1641
I91
sS'shepard'
p1642
I91
sS'"jesse"'
p1643
I92
sS'mixtape'
p1644
I91
sS'sleeping'
p1645
I89
sS'couples'
p1646
I92
sS'strain'
p1647
I92
sS'someone'
p1648
I68
sS'compenhagen'
p1649
I92
sS'12th'
p1650
I92
sS'ironic'
p1651
I92
sS'enjoy.epic'
p1652
I92
sS'autocorrect'
p1653
I92
sS'technology'
p1654
I92
sS'everyday'
p1655
I90
sS'worry'
p1656
I91
sS'different'
p1657
I87
sS'williams'
p1658
I92
sS'heygoodbyeeee'
p1659
I92
sS'doctor'
p1660
I90
sS'pay'
p1661
I91
sS'10:30'
p1662
I92
sS'bowl'
p1663
I91
sS's'
p1664
I92
sS'same'
p1665
I82
sS'trip'
p1666
I92
sS'ya'
p1667
I90
sS'followers'
p1668
I92
sS'manila'
p1669
I92
sS'pag'
p1670
I92
sS'"i'
p1671
I92
sS'struggling'
p1672
I92
sS'pal'
p1673
I91
sS'events'
p1674
I91
sS'week'
p1675
I73
sS'19:15:24.0,34.01849491,-118.11417025,5301.02,i'
p1676
I92
sS'finish'
p1677
I91
sS'assist'
p1678
I92
sS'valladolid'
p1679
I92
sS'duh,90640\n512747811708747776,savieeguurl,2014-09-18'
p1680
I92
sS'running'
p1681
I90
sS'harris'
p1682
I92
sS'barber'
p1683
I73
sS'deff'
p1684
I92
sS'-p.s'
p1685
I92
sS'mani'
p1686
I92
sS'tradition'
p1687
I92
sS'\xe2\x9c\x8c\xef\xb8\x8f'
p1688
I92
sS'emoji*'
p1689
I92
sS'burrito'
p1690
I90
sS'no'
p1691
I42
sS'stfu*'
p1692
I92
sS'nothin'
p1693
I92
sS'aboooout'
p1694
I92
sS'without'
p1695
I91
sS'oklahoma-oklahoma'
p1696
I92
sS"can't"
p1697
I55
sS'bottle'
p1698
I92
sS'morninggggg'
p1699
I92
sS'genie'
p1700
I92
sS'flocka'
p1701
I92
sS'bumping'
p1702
I91
sS'confident^'
p1703
I92
sS'bodies'
p1704
I91
sS'starbucks'
p1705
I91
sS'gdp'
p1706
I92
sS'summer'
p1707
I84
sS'(x'
p1708
I90
sS'\xe2\x98\xba\xef\xb8\x8f'
p1709
I90
sS'being'
p1710
I86
sS'money'
p1711
I78
sS'neon'
p1712
I91
sS'rest'
p1713
I92
sS'(i'
p1714
I91
sS'kill'
p1715
I90
sS'touch'
p1716
I91
sS'cuh'
p1717
I92
sS'flavor'
p1718
I92
sS'speed'
p1719
I91
sS'ps4'
p1720
I92
sS'"special'
p1721
I92
sS'alimony'
p1722
I92
sS'*lets'
p1723
I92
sS'death'
p1724
I92
sS'yeeaaah'
p1725
I92
sS'upton'
p1726
I92
sS'thinking'
p1727
I90
sS'rose'
p1728
I92
sS'robyn'
p1729
I92
sS'improvement'
p1730
I92
sS'instrument'
p1731
I92
sS'lets'
p1732
I90
sS'interested'
p1733
I92
sS'9:30'
p1734
I92
sS'4'
p1735
I83
sS'halftime'
p1736
I92
sS'actors'
p1737
I92
sS'sucked'
p1738
I92
sS'ca'
p1739
I91
sS'real'
p1740
I73
sS'starving'
p1741
I92
sS'thugonometry'
p1742
I92
sS'around'
p1743
I82
sS'kills'
p1744
I92
sS'blowout'
p1745
I92
sS'read'
p1746
I91
sS'virginia'
p1747
I91
sS'gonna'
p1748
I58
sS'amf'
p1749
I70
sS'dark'
p1750
I91
sS'seahawks'
p1751
I92
sS'mom'
p1752
I85
sS'world'
p1753
I85
sS'dito'
p1754
I92
sS'accepted'
p1755
I92
sS'disappointed'
p1756
I91
sS'dare'
p1757
I91
sS'all"'
p1758
I92
sS'whatchu'
p1759
I92
sS'adams'
p1760
I89
sS'stranger'
p1761
I92
sS'homegirl'
p1762
I91
sS'either'
p1763
I91
sS'beverly'
p1764
I69
sS'diez'
p1765
I92
sS';p'
p1766
I92
sS'noo'
p1767
I92
sS'joking'
p1768
I92
sS'madrid'
p1769
I92
sS'envidia'
p1770
I92
sS'grimmy'
p1771
I92
sS'lucy'
p1772
I92
sS'eddie'
p1773
I91
sS'cowboys'
p1774
I91
sS';o'
p1775
I92
sS'thinks'
p1776
I91
sS'yesss'
p1777
I92
sS'gross'
p1778
I90
sS'slice'
p1779
I92
sS'peppermint'
p1780
I92
sS"o'"
p1781
I92
sS'memories'
p1782
I92
sS'nooo'
p1783
I92
sS'legal'
p1784
I92
sS'babysitter'
p1785
I92
sS'kms'
p1786
I92
sS'ig'
p1787
I92
sS'hustle'
p1788
I91
sS'16:04:13.0,34.01598633,-118.12339677,5301.02,my'
p1789
I92
sS'erased'
p1790
I92
sS'welcome'
p1791
I92
sS'power'
p1792
I91
sS'asap'
p1793
I91
sS'lmfao'
p1794
I83
sS'papa'
p1795
I92
sS'nails'
p1796
I91
sS'shmurda'
p1797
I91
sS'broken'
p1798
I91
sS'drums'
p1799
I92
sS';)'
p1800
I89
sS'throw'
p1801
I88
sS'earlier'
p1802
I89
sS'on'
p1803
I24
sS'stone'
p1804
I91
sS'ol'
p1805
I92
sS'ok'
p1806
I84
sS'oh'
p1807
I81
sS'og'
p1808
I92
sS'of'
p1809
I13
sS'violence'
p1810
I92
sS'favorite'
p1811
I86
sS'inviting'
p1812
I92
sS'acl'
p1813
I92
sS'pistachio'
p1814
I92
sS"isn't"
p1815
I87
sS'neighbor'
p1816
I91
sS'ox'
p1817
I90
sS'mixed'
p1818
I92
sS'luck'
p1819
I86
sS'backup'
p1820
I92
sS'or'
p1821
I60
sS'confidence'
p1822
I91
sS'illene'
p1823
I92
sS'ladies'
p1824
I90
sS'burning'
p1825
I92
sS'muchacho'
p1826
I92
sS'scores'
p1827
I92
sS'snapchat'
p1828
I89
sS'accounts'
p1829
I92
sS'determine'
p1830
I92
sS'strip'
p1831
I91
sS'weeknd'
p1832
I92
sS'annoys'
p1833
I92
sS'your'
p1834
I36
sS'technically'
p1835
I92
sS'performing'
p1836
I92
sS"how's"
p1837
I92
sS'her'
p1838
I70
sS'area'
p1839
I91
sS'there'
p1840
I68
sS'(revved-up'
p1841
I92
sS'hey'
p1842
I89
sS'lol'
p1843
I17
sS'los'
p1844
I91
sS"how'd"
p1845
I92
sS'low'
p1846
I91
sS'lot'
p1847
I88
sS'worst'
p1848
I92
sS'alameda'
p1849
I92
sS'media'
p1850
I91
sS'adidas'
p1851
I92
sS'mornings'
p1852
I92
sS'complete'
p1853
I91
sS'monie'
p1854
I92
sS'awwwwww'
p1855
I92
sS'you"'
p1856
I90
sS'yaya'
p1857
I92
sS'bookstore'
p1858
I91
sS'ended'
p1859
I92
sS'gore'
p1860
I89
sS'gardunos'
p1861
I92
sS'trying'
p1862
I79
sS'with'
p1863
I20
sS"dmv's"
p1864
I92
sS'happening'
p1865
I92
sS"they're"
p1866
I91
sS'october'
p1867
I92
sS'dominican'
p1868
I92
sS"wasn't"
p1869
I89
sS'ronaldo'
p1870
I91
sS'bucket'
p1871
I90
sS'quiznos'
p1872
I92
sS'boyfriend\xe2\x80\x9d'
p1873
I92
sS'"it\'s'
p1874
I92
sS'dawg'
p1875
I92
sS'offsides'
p1876
I91
sS'agree'
p1877
I91
sS'expect'
p1878
I92
sS'reffin'
p1879
I92
sS'toilet'
p1880
I90
sS'vehicles'
p1881
I87
sS'ohh'
p1882
I82
sS'hated'
p1883
I92
sS'videos'
p1884
I91
sS'af'
p1885
I81
sS'taste'
p1886
I90
sS'ah'
p1887
I92
sS'doug'
p1888
I92
sS'am'
p1889
I77
sS'an'
p1890
I74
sS'ap'
p1891
I92
sS'as'
p1892
I61
sS'helicase'
p1893
I92
sS'at'
p1894
I14
sS'pushing'
p1895
I92
sS"garduno's)"
p1896
I90
sS'watched'
p1897
I92
sS'hound'
p1898
I92
sS'bishop'
p1899
I92
sS'fill'
p1900
I92
sS'again'
p1901
I76
sS'hart'
p1902
I92
sS'yoh'
p1903
I92
sS'deserve'
p1904
I92
sS'drivers'
p1905
I92
sS'fun,90640\n408813823559081984,shehookdon_e,2013-12-06'
p1906
I92
sS'flavio'
p1907
I92
sS'field'
p1908
I91
sS'cheater'
p1909
I92
sS'5'
p1910
I79
sS'stop?,90640\n505400228103471104,danielbreakdown,2014-08-29'
p1911
I92
sS'party/luncheon'
p1912
I92
sS'you'
p1913
I5
sS'puppy'
p1914
I90
sS'poor'
p1915
I90
sS'obsessed'
p1916
I92
sS',90640\n436603423144693761,adamluevano,2014-02-20'
p1917
I92
sS',90640\n407728527916937216,jeremyxx182,2013-12-03'
p1918
I92
sS'waving'
p1919
I92
sS'miki'
p1920
I92
sS"she's"
p1921
I88
sS'chris'
p1922
I91
sS'grupo'
p1923
I92
sS'finals'
p1924
I92
sS'pool'
p1925
I90
sS'alcohol'
p1926
I92
sS'19:41:54.0,34.01632726,-118.1226938,5301.02,julia'
p1927
I92
sS'applause'
p1928
I92
sS'calls'
p1929
I89
sS'wife'
p1930
I91
sS'vines'
p1931
I92
sS'hello'
p1932
I92
sS'bad,90640\n389888711200354304,adamluevano,2013-10-14'
p1933
I92
sS'derrick'
p1934
I92
sS'u'
p1935
I81
sS'adam'
p1936
I92
sS'sure?!,90640\n489812974756851712,sammydz_nuts,2014-07-17'
p1937
I92
sS'alright'
p1938
I77
sS'husky'
p1939
I92
sS'starting'
p1940
I90
sS'original'
p1941
I92
sS'cheetos'
p1942
I92
sS'all'
p1943
I32
sS'liar'
p1944
I91
sS'forget'
p1945
I91
sS'stooop'
p1946
I92
sS'caused'
p1947
I92
sS'beware'
p1948
I92
sS'lack'
p1949
I92
sS'dollar'
p1950
I92
sS'month'
p1951
I89
sS'coach'
p1952
I92
sS'rosales'
p1953
I92
sS'follow'
p1954
I89
sS'meditation'
p1955
I92
sS'everyones'
p1956
I92
sS'decisions'
p1957
I92
sS"upit's"
p1958
I92
sS'woooow'
p1959
I92
sS'careful'
p1960
I92
sS'fits'
p1961
I92
sS'ron'
p1962
I92
sS'niner'
p1963
I92
sS'imma'
p1964
I90
sS'wassup'
p1965
I88
sS'misses'
p1966
I91
sS'thursday'
p1967
I90
sS'dribble'
p1968
I92
sS'to'
p1969
I4
sS'tl'
p1970
I91
sS'program'
p1971
I91
sS'spain'
p1972
I92
sS'dirty'
p1973
I92
sS'tf'
p1974
I85
sS'smile'
p1975
I92
sS'td'
p1976
I88
sS'paying'
p1977
I92
sS'woman'
p1978
I92
sS'appointment'
p1979
I92
sS'worse'
p1980
I91
sS'lakewood'
p1981
I92
sS'song'
p1982
I84
sS'very'
p1983
I87
sS'horror'
p1984
I92
sS'fav'
p1985
I92
sS'fat'
p1986
I86
sS'souls'
p1987
I92
sS'fak'
p1988
I91
sS'witten'
p1989
I90
sS'fan'
p1990
I91
sS'17'
p1991
I92
sS'fam'
p1992
I89
sS'winning'
p1993
I92
sS'ticket'
p1994
I92
sS'condition'
p1995
I92
sS'trippin'
p1996
I92
sS'k\xe2\x9c\x8c\xef\xb8\x8f'
p1997
I92
sS'mothers'
p1998
I90
sS'arts'
p1999
I92
sS'list'
p2000
I91
sS'joined'
p2001
I92
sS'dtla'
p2002
I92
sS'reminding'
p2003
I92
sS'boozer'
p2004
I92
sS'vibes'
p2005
I92
sS'harry'
p2006
I92
sS'small'
p2007
I92
sS'dodger'
p2008
I92
sS"i'll"
p2009
I64
sS'instagram'
p2010
I92
sS'appearance'
p2011
I92
sS'grasshopper'
p2012
I92
sS'sync'
p2013
I91
sS'past'
p2014
I88
sS'burger'
p2015
I91
sS'titles'
p2016
I92
sS'perspective'
p2017
I92
sS'pass'
p2018
I90
sS'conscience'
p2019
I92
sS'chalk'
p2020
I92
sS'what'
p2021
I47
sS'17:02:58.0,34.0199748,-118.1225528,5301.02,dmv'
p2022
I92
sS'clock'
p2023
I92
sS'sun'
p2024
I92
sS'dirt'
p2025
I92
sS'fucks'
p2026
I91
sS'emotions'
p2027
I92
sS'fuckn'
p2028
I92
sS'sooooooo'
p2029
I92
sS'much.\xe2\x80\x9dthat'
p2030
I92
sS'sup'
p2031
I92
sS'learned'
p2032
I92
sS'handy'
p2033
I92
sS'tattoos'
p2034
I91
sS'full'
p2035
I90
sS"c'mon"
p2036
I89
sS'17:11:19.0,34.01606939,-118.12335192,5301.02,on'
p2037
I92
sS'hungover'
p2038
I91
sS'loose'
p2039
I92
sS'answers'
p2040
I92
sS'revenge'
p2041
I92
sS'hours'
p2042
I89
sS'rigged'
p2043
I92
sS'shoes...most'
p2044
I92
sS'*sunglass'
p2045
I92
sS'21:44:36.0,34.01578981,-118.12331462,5301.02,sure'
p2046
I92
sS'depend'
p2047
I92
sS'november'
p2048
I92
sS'strong'
p2049
I92
sS'table'
p2050
I92
sS'fatter'
p2051
I92
sS'teeth'
p2052
I92
sS'ahead'
p2053
I92
sS'inspired'
p2054
I92
sS'stretching'
p2055
I92
sS'pics'
p2056
I89
sS'caldwell'
p2057
I92
sS'amount'
p2058
I92
sS'lasagna'
p2059
I92
sS'social'
p2060
I91
sS'action'
p2061
I91
sS"would've"
p2062
I90
sS'sunburned'
p2063
I92
sS'followed'
p2064
I92
sS'family'
p2065
I85
sS'threading'
p2066
I92
sS'clique'
p2067
I92
sS'uglyyyyyy\xe2\x80\x9d'
p2068
I92
sS'ask'
p2069
I88
sS'semester'
p2070
I92
sS'lol,90640\n448545327721615360,adamluevano,2014-03-25'
p2071
I92
sS'gosh'
p2072
I92
sS'bruins'
p2073
I88
sS'madres'
p2074
I92
sS'twc'
p2075
I92
sS'attendance'
p2076
I91
sS'eye'
p2077
I90
sS'takes'
p2078
I91
sS'nehru'
p2079
I92
sS',90640\n479169536101343232,luiibravo,2014-06-18'
p2080
I92
sS'contains'
p2081
I92
sS'texting'
p2082
I88
sS'two'
p2083
I87
sS'branden'
p2084
I92
sS'6'
p2085
I88
sS'taken'
p2086
I90
sS'mora'
p2087
I92
sS'more'
p2088
I64
sS'flat'
p2089
I91
sS'knows'
p2090
I91
sS'grabbing'
p2091
I92
sS'division'
p2092
I92
sS'hoffman'
p2093
I91
sS'fredo'
p2094
I92
sS'speedo'
p2095
I92
sS'permit'
p2096
I92
sS'tested'
p2097
I92
sS"ain't"
p2098
I81
sS'stick'
p2099
I91
sS'broke'
p2100
I89
sS'hours!d'
p2101
I92
sS"who'll"
p2102
I92
sS'hurry'
p2103
I90
sS'glad'
p2104
I90
sS'town'
p2105
I92
sS'grill'
p2106
I92
sS'none'
p2107
I92
sS'plagiarism'
p2108
I92
sS'hour'
p2109
I89
sS'middle'
p2110
I92
sS'quick\xe2\x80\x9d'
p2111
I92
sS'phillip'
p2112
I92
sS'sucks'
p2113
I91
sS'sweeps'
p2114
I92
sS'guards'
p2115
I92
sS'paragraph'
p2116
I92
sS'del'
p2117
I91
sS'learn'
p2118
I92
sS'male'
p2119
I92
sS'history'
p2120
I91
sS'beautiful'
p2121
I87
sS"23:58:46.0,34.013153,-118.1202346,5301.02,i'm"
p2122
I92
sS'heat'
p2123
I92
sS'brown'
p2124
I91
sS'nigggas'
p2125
I92
sS'share'
p2126
I92
sS'lolol'
p2127
I92
sS'myles'
p2128
I91
sS'numbers'
p2129
I89
sS'sense'
p2130
I91
sS'dress'
p2131
I92
sS'ughhhh'
p2132
I92
sS'huge'
p2133
I90
sS'needs'
p2134
I85
sS'scratchers'
p2135
I92
sS'goal'
p2136
I91
sS'awkward'
p2137
I91
sS'rather'
p2138
I89
sS'acts'
p2139
I92
sS'stayed'
p2140
I92
sS'needa'
p2141
I92
sS'quesadilla'
p2142
I92
sS'stir'
p2143
I92
sS'goat'
p2144
I88
sS'sandwich'
p2145
I92
sS'okay'
p2146
I79
sS'plans'
p2147
I91
sS'nom-nom'
p2148
I92
sS'seahwaks'
p2149
I92
sS'tries'
p2150
I92
sS'freestyle'
p2151
I92
sS'100degree'
p2152
I92
sS'jajaja'
p2153
I91
sS'pendejo'
p2154
I92
sS'coming'
p2155
I81
sS'rudy'
p2156
I92
sS'tacos'
p2157
I91
sS'20:44:17.0,34.01615587,-118.12271721,5301.02,at'
p2158
I92
sS'boyfriend\xe2\x9d\xa4'
p2159
I92
sS'a'
p2160
I6
sS'barba'
p2161
I92
sS'refuse'
p2162
I92
sS'short'
p2163
I90
sS'following'
p2164
I92
sS'tweeting'
p2165
I90
sS'shady'
p2166
I92
sS'rooting'
p2167
I92
sS'dance...like'
p2168
I92
sS'"yaaaaaaas"'
p2169
I92
sS'ego'
p2170
I92
sS'$20'
p2171
I91
sS'banks'
p2172
I92
sS'putting'
p2173
I91
sS'hates'
p2174
I92
sS'dream'
p2175
I86
sS'playing'
p2176
I86
sS"that's"
p2177
I51
sS'replied'
p2178
I92
sS'chicks'
p2179
I92
sS'mexican'
p2180
I89
sS'help'
p2181
I83
sS'"pictures'
p2182
I92
sS"don't"
p2183
I28
sS'john'
p2184
I92
sS'sooo'
p2185
I91
sS'soon'
p2186
I89
sS'oxycontin'
p2187
I92
sS'passin'
p2188
I92
sS'wiener'
p2189
I90
sS'paper'
p2190
I92
sS'through'
p2191
I82
sS'lava'
p2192
I92
sS'shit\xe2\x80\x9d'
p2193
I92
sS'hell'
p2194
I84
sS'mcdonalds'
p2195
I90
sS'its'
p2196
I80
sS'24'
p2197
I92
sS'leanne'
p2198
I92
sS'style'
p2199
I92
sS'eat\xe2\x80\x9d'
p2200
I92
sS'20'
p2201
I88
sS'pray'
p2202
I91
sS':p'
p2203
I92
sS'synecdoche'
p2204
I92
sS'beyonce'
p2205
I92
sS'actually'
p2206
I86
sS'late'
p2207
I86
sS'dammm'
p2208
I92
sS'dammn'
p2209
I92
sS"2'"
p2210
I92
sS'whaaaaa'
p2211
I92
sS'pad'
p2212
I92
sS'bout'
p2213
I84
sS'soccer'
p2214
I87
sS'might'
p2215
I87
sS"haven't"
p2216
I85
sS'fool'
p2217
I91
sS'good'
p2218
I53
sS'return'
p2219
I90
sS'yo'
p2220
I83
sS'food'
p2221
I84
sS'yessir'
p2222
I92
sS'yg'
p2223
I92
sS'borrow'
p2224
I92
sS'hahahahahaha'
p2225
I92
sS"you've"
p2226
I90
sS'foot'
p2227
I92
sS'foos'
p2228
I90
sS'23:38:22.0,34.0150356,-118.1236655,5301.02,why'
p2229
I92
sS'robbie'
p2230
I92
sS'hook'
p2231
I90
sS'always'
p2232
I71
sS'curvin'
p2233
I92
sS'drake'
p2234
I91
sS',90640\n411614891309428736,adamluevano,2013-12-13'
p2235
I92
sS'ashes'
p2236
I92
sS'stopped'
p2237
I92
sS'die'
p2238
I89
sS'found'
p2239
I91
sS'trailer'
p2240
I91
sS'2k'
p2241
I91
sS'penske'
p2242
I92
sS'everyone'
p2243
I81
sS'neil'
p2244
I92
sS'delicious'
p2245
I91
sS'weight'
p2246
I91
sS'idek'
p2247
I92
sS',90640\n460804370053869569,adamluevano,2014-04-28'
p2248
I92
sS'house'
p2249
I77
sS'fish'
p2250
I90
sS'hard'
p2251
I83
sS'idea'
p2252
I89
sS'homegirls'
p2253
I92
sS'oil'
p2254
I92
sS'minnie'
p2255
I92
sS'hanging'
p2256
I92
sS'beyond'
p2257
I91
sS'butthurt'
p2258
I91
sS'event'
p2259
I92
sS'really'
p2260
I57
sS'schurr'
p2261
I91
sS'saenz'
p2262
I92
sS'missed'
p2263
I90
sS'childish'
p2264
I90
sS'since'
p2265
I90
sS'acting'
p2266
I88
sS'krispy'
p2267
I92
sS'hill'
p2268
I92
sS'7'
p2269
I89
sS'6+'
p2270
I92
sS'san'
p2271
I92
sS'ass'
p2272
I67
sS'textin'
p2273
I92
sS'bass'
p2274
I92
sS'lawrence'
p2275
I91
sS'quicky'
p2276
I92
sS'timeline'
p2277
I92
sS'friday'
p2278
I88
sS'story'
p2279
I90
sS'pleasant'
p2280
I92
sS'houses'
p2281
I91
sS'reason'
p2282
I92
sS'toy'
p2283
I92
sS'3hrs'
p2284
I92
sS'disneyland'
p2285
I92
sS'imagine'
p2286
I91
sS'put'
p2287
I86
sS'randall'
p2288
I92
sS'teach'
p2289
I91
sS'beginning'
p2290
I91
sS'miiiine'
p2291
I92
sS'lag'
p2292
I91
sS'acura'
p2293
I92
sS"boss's"
p2294
I92
sS'lamar'
p2295
I92
sS'deleting'
p2296
I92
sS'wooooooooooooow'
p2297
I92
sS'terrible'
p2298
I91
sS'terribly'
p2299
I92
sS'american'
p2300
I89
sS'expecting'
p2301
I92
sS'w'
p2302
I88
sS'dis'
p2303
I91
sS'dont'
p2304
I88
sS'feel'
p2305
I70
sS'garra'
p2306
I92
sS'album"'
p2307
I92
sS'number'
p2308
I90
sS'fancy'
p2309
I92
sS'myself,90640\n442034318555099136,adamluevano,2014-03-07'
p2310
I92
sS'done'
p2311
I86
sS'oscar-winning'
p2312
I92
sS'miss'
p2313
I85
sS'gooo'
p2314
I92
sS'regret'
p2315
I92
sS'guess'
p2316
I80
sS'"'
p2317
I89
sS'heads'
p2318
I92
sS'guest'
p2319
I92
sS'18%'
p2320
I92
sS'benedict'
p2321
I89
sS'together'
p2322
I89
sS'5th'
p2323
I92
sS'mechanic/technician'
p2324
I92
sS'least'
p2325
I87
sS'07:25:29.0,34.01789821,-118.11115057,5301.02,this'
p2326
I92
sS'passed'
p2327
I91
sS'"wtf'
p2328
I92
sS'ballistic'
p2329
I92
sS'southern'
p2330
I92
sS'ketchup'
p2331
I92
sS'too'
p2332
I63
sS'cleaners)'
p2333
I91
sS'saint'
p2334
I91
sS'relationship'
p2335
I91
sS'behind'
p2336
I92
sS'park'
p2337
I91
sS'paycheck'
p2338
I92
sS'dentist'
p2339
I91
sS'part'
p2340
I90
sS'ovation'
p2341
I92
sS'focusing'
p2342
I92
sS'off'
p2343
I66
sS'believe'
p2344
I87
sS'$1'
p2345
I92
sS'karon'
p2346
I90
sS'king'
p2347
I91
sS'kind'
p2348
I90
sS'b'
p2349
I91
sS'jokes'
p2350
I92
sS'pickups'
p2351
I92
sS'double'
p2352
I92
sS'kreme'
p2353
I92
sS'carla'
p2354
I92
sS'tummy'
p2355
I92
sS'dank'
p2356
I92
sS'store'
p2357
I92
sS'doublz'
p2358
I87
sS'estupis'
p2359
I92
sS'headache'
p2360
I92
sS'treated'
p2361
I92
sS'silence'
p2362
I92
sS'swerve'
p2363
I91
sS'outta'
p2364
I91
sS'texans'
p2365
I92
sS'wasnt'
p2366
I92
sS'beforehand'
p2367
I92
sS'16:06:44.0,34.01613419,-118.12333872,5301.02,ugh'
p2368
I92
sS'randomly'
p2369
I92
sS'garfield'
p2370
I92
sS'murder'
p2371
I92
sS'ahahah'
p2372
I92
sS'squaad'
p2373
I92
sS'option'
p2374
I92
sS'lie'
p2375
I88
sS'breathing'
p2376
I92
sS'nights'
p2377
I92
sS'lil'
p2378
I90
sS'spaghetti'
p2379
I92
sS'self'
p2380
I91
sS'trapped'
p2381
I92
sS'murked'
p2382
I92
sS'rivera'
p2383
I92
sS'also'
p2384
I90
sS'lip'
p2385
I92
sS'finding'
p2386
I92
sS'99.9%'
p2387
I92
sS"angel's"
p2388
I71
sS'play'
p2389
I79
sS'added'
p2390
I92
sS',90640\n395023616103829505,kings_mind2,2013-10-29'
p2391
I92
sS'singles'
p2392
I92
sS"x'd"
p2393
I92
sS'21:53:38.0,34.0158171,-118.12341901,5301.02,on'
p2394
I92
sS'most'
p2395
I84
sS'significant'
p2396
I92
sS'assist\xe2\x80\x9d'
p2397
I92
sS'nothing'
p2398
I87
sS'refrigerator'
p2399
I92
sS'chunti'
p2400
I92
sS'kc'
p2401
I92
sS'kb'
p2402
I92
sS'understands'
p2403
I92
sS'chested'
p2404
I92
sS'5-0'
p2405
I92
sS'viciously'
p2406
I92
sS'kd'
p2407
I92
sS'time\xe2\x9c\xa8'
p2408
I92
sS'sometimes'
p2409
I88
sS'cover'
p2410
I92
sS'bustin'
p2411
I92
sS'concepts'
p2412
I92
sS'amazed'
p2413
I92
sS'clean'
p2414
I91
sS'alondra'
p2415
I92
sS'3...and'
p2416
I92
sS'lying'
p2417
I91
sS'stoner'
p2418
I92
sS'thomas'
p2419
I92
sS'ugh'
p2420
I83
sS'somewhat'
p2421
I92
sS'gold'
p2422
I88
sS'cdl'
p2423
I92
sS'grandmas'
p2424
I92
sS'stfu'
p2425
I89
sS'rts'
p2426
I92
sS'melody'
p2427
I92
sS'fine'
p2428
I92
sS'find'
p2429
I86
sS'bananas'
p2430
I92
sS'$5'
p2431
I91
sS'cried'
p2432
I92
sS'justice'
p2433
I91
sS'nervous'
p2434
I92
sS'poppin'
p2435
I92
sS'67.5%'
p2436
I92
sS'"thank'
p2437
I92
sS'idiots'
p2438
I92
sS'pretty'
p2439
I83
sS'8'
p2440
I89
sS'circle'
p2441
I92
sS"mom's"
p2442
I92
sS'boarding'
p2443
I92
sS'his'
p2444
I81
sS'hit'
p2445
I77
sS'therefore'
p2446
I92
sS'beyonc\xc3\xa9'
p2447
I92
sS'permission'
p2448
I92
sS'sunny'
p2449
I91
sS'275$'
p2450
I92
sS'eggs'
p2451
I92
sS'famous'
p2452
I92
sS'feels'
p2453
I91
sS'listed'
p2454
I92
sS'during'
p2455
I87
sS'beards'
p2456
I92
sS'him'
p2457
I78
sS'streets'
p2458
I92
sS'catches'
p2459
I92
sS'sleeve'
p2460
I88
sS'freaky'
p2461
I92
sS'suarez'
p2462
I90
sS'cry'
p2463
I92
sS'texting&'
p2464
I92
sS'thots'
p2465
I92
sS'croatia'
p2466
I92
sS'x'
p2467
I91
sS'wheeling'
p2468
I92
sS'wrote'
p2469
I91
sS'insane'
p2470
I91
sS'chasers'
p2471
I92
sS'corrido'
p2472
I92
sS'art'
p2473
I91
sS'cynical'
p2474
I92
sS'throwing'
p2475
I92
sS'vine'
p2476
I91
sS'sex'
p2477
I90
sS'manning'
p2478
I91
sS'see'
p2479
I71
sS'defense'
p2480
I85
sS'dumb'
p2481
I90
sS'are'
p2482
I41
sS'close'
p2483
I86
sS'cheerios'
p2484
I91
sS'arm'
p2485
I91
sS'juega'
p2486
I92
sS'visiting'
p2487
I91
sS'movie'
p2488
I91
sS'wow'
p2489
I83
sS'currently'
p2490
I91
sS'please'
p2491
I84
sS'fans'
p2492
I89
sS'won'
p2493
I88
sS'pist'
p2494
I92
sS'probably'
p2495
I88
sS'burned'
p2496
I91
sS'rlly'
p2497
I92
sS'nope'
p2498
I92
sS'piss'
p2499
I89
sS'blow'
p2500
I92
sS'genes'
p2501
I92
sS'recently'
p2502
I92
sS'missing'
p2503
I90
sS'spm'
p2504
I92
sS'pisses'
p2505
I92
sS'hahahhahahahahhah'
p2506
I92
sS'attention'
p2507
I91
sS'yaaas'
p2508
I92
sS'"school'
p2509
I92
sS'coffee'
p2510
I88
sS'pissed'
p2511
I91
sS'kneeled'
p2512
I92
sS'league'
p2513
I88
sS'c'
p2514
I89
sS'last'
p2515
I66
sS'license'
p2516
I90
sS'2:30'
p2517
I92
sS'thot'
p2518
I92
sS"wouldn't"
p2519
I86
sS'barely'
p2520
I92
sS'roman'
p2521
I91
sS'alot'
p2522
I92
sS'buzz'
p2523
I92
sS'witch'
p2524
I92
sS'hangout'
p2525
I92
sS'whole'
p2526
I83
sS'blaze'
p2527
I92
sS'liked'
p2528
I91
sS'\xe2\x98\xba'
p2529
I92
sS'groups'
p2530
I92
sS'point'
p2531
I88
sS'simple'
p2532
I92
sS'sweet'
p2533
I91
sS'sweep'
p2534
I92
sS'whatever'
p2535
I92
sS'whateves'
p2536
I92
sS"hadn't"
p2537
I92
sS'mink'
p2538
I92
sS'agents'
p2539
I92
sS'frosty'
p2540
I92
sS'church'
p2541
I87
sS'mission'
p2542
I92
sS'beats'
p2543
I92
sS'duh'
p2544
I91
sS'raise'
p2545
I92
sS'duo'
p2546
I92
sS'create'
p2547
I92
sS'due'
p2548
I92
sS'hitting'
p2549
I90
sS'dropping'
p2550
I89
sS'damn'
p2551
I82
sS'6-0'
p2552
I92
sS'pe'
p2553
I90
sS'peppers'
p2554
I91
sS'brick'
p2555
I92
sS'yogurtland'
p2556
I92
sS'woke'
p2557
I90
sS'ifhy'
p2558
I92
sS'sanders'
p2559
I90
sS'gay'
p2560
I90
sS'fire'
p2561
I88
sS'yeee'
p2562
I92
sS"what's"
p2563
I85
sS'rainbows'
p2564
I92
sS'else'
p2565
I87
sS'35mm'
p2566
I92
sS'awake'
p2567
I91
sS'specifically'
p2568
I92
sS'demand'
p2569
I92
sS'packers'
p2570
I92
sS'(2100'
p2571
I92
sS'look'
p2572
I68
sS'fleek'
p2573
I91
sS'solid'
p2574
I91
sS'straight'
p2575
I91
sS'bomb.\xe2\x80\x9d'
p2576
I92
sS'rope'
p2577
I92
sS'forgetting'
p2578
I92
sS'while'
p2579
I83
sS'kick'
p2580
I88
sS'tweaker'
p2581
I92
sS'5:00'
p2582
I92
sS'fun'
p2583
I87
sS'luis'
p2584
I92
sS'robin'
p2585
I92
sS"polly's"
p2586
I92
sS'[free'
p2587
I92
sS'bruiser'
p2588
I92
sS'hoping'
p2589
I91
sS'von'
p2590
I91
sS'rip'
p2591
I86
sS'ducks'
p2592
I92
sS'owes'
p2593
I92
sS'ready'
p2594
I89
sS'this"'
p2595
I92
sS'ohhhh'
p2596
I92
sS'chase'
p2597
I92
sS'funny'
p2598
I87
sS'raiders'
p2599
I92
sS'shirt'
p2600
I88
sS'anymore'
p2601
I87
sS'25/100'
p2602
I92
sS',90640\n451385346325221376,adamluevano,2014-04-02'
p2603
I92
sS'rules'
p2604
I92
sS'emphasize'
p2605
I92
sS'chicken)'
p2606
I91
sS'grand'
p2607
I92
sS'9'
p2608
I92
sS'yogurt'
p2609
I92
sS'eww'
p2610
I92
sS'shorts'
p2611
I92
sS'used'
p2612
I91
sS'itch'
p2613
I92
sS'dime'
p2614
I92
sS'yesterday'
p2615
I88
sS'holidays'
p2616
I91
sS'moment'
p2617
I89
sS'flown'
p2618
I92
sS'cleaning'
p2619
I92
sS"18:27:30.0,34.01192475,-118.11357812,5301.02,denny's"
p2620
I92
sS'plugs'
p2621
I92
sS'you...so'
p2622
I92
sS'434'
p2623
I92
sS'31-10'
p2624
I92
sS'plate'
p2625
I92
sS'early'
p2626
I86
sS'picky'
p2627
I92
sS'older'
p2628
I92
sS'omggggg'
p2629
I92
sS'miguels'
p2630
I92
sS'spent'
p2631
I91
sS'obviously'
p2632
I92
sS'person'
p2633
I85
sS'flags'
p2634
I92
sS'rapper.\xe2\x80\x9d'
p2635
I92
sS'juventus'
p2636
I92
sS'y'
p2637
I89
sS'entry'
p2638
I92
sS'chemistry'
p2639
I92
sS'>.<'
p2640
I92
sS'\xe2\x9d\xa4'
p2641
I92
sS',90640\n493074153230974977,malenee11,2014-07-26'
p2642
I92
sS'db'
p2643
I92
sS'distracting'
p2644
I92
sS'questions'
p2645
I91
sS'regardless'
p2646
I92
sS'couch'
p2647
I92
sS'bouta'
p2648
I92
sS'doughnut'
p2649
I92
sS'lebowski'
p2650
I92
sS'letting'
p2651
I92
sS'cut'
p2652
I87
sS'cus'
p2653
I92
sS'$'
p2654
I92
sS'cup'
p2655
I91
sS'lady'
p2656
I91
sS'queen'
p2657
I92
sS'cuz'
p2658
I89
sS'bww'
p2659
I92
sS'pies'
p2660
I92
sS'pillars'
p2661
I92
sS'parents'
p2662
I92
sS'crying'
p2663
I89
sS'homies'
p2664
I88
sS'snap'
p2665
I92
sS'easter'
p2666
I92
sS'excited'
p2667
I91
sS'surprised'
p2668
I91
sS'(you)'
p2669
I92
sS'bio'
p2670
I92
sS'rahim'
p2671
I91
sS'15:34:57.0,34.01649954,-118.12286717,5301.02,whoot'
p2672
I92
sS'big'
p2673
I83
sS'couple'
p2674
I89
sS',90640\n477489038144729088,pinkkboots,2014-06-13'
p2675
I92
sS'shitty'
p2676
I90
sS'game'
p2677
I58
sS'kasi'
p2678
I92
sS'bit'
p2679
I88
sS'wings'
p2680
I91
sS'flannel'
p2681
I92
sS'knock'
p2682
I89
sS'd'
p2683
I91
sS'spine'
p2684
I92
sS'message'
p2685
I91
sS'reasons'
p2686
I92
sS'nipple'
p2687
I92
sS'google'
p2688
I90
sS'composer'
p2689
I92
sS'fucking'
p2690
I57
sS'fake'
p2691
I89
sS'some'
p2692
I53
sS'back'
p2693
I62
sS'bounce'
p2694
I92
sS"you're*"
p2695
I92
sS'trends'
p2696
I92
sS'martian'
p2697
I92
sS'palm'
p2698
I92
sS'isnt'
p2699
I92
sS'savage'
p2700
I91
sS'scale'
p2701
I91
sS'weirdo'
p2702
I92
sS'decision'
p2703
I91
sS'shall'
p2704
I92
sS'pros'
p2705
I92
sS'debra'
p2706
I92
sS'02:47:02.0,34.0130391,-118.11906635,5301.02,stop'
p2707
I92
sS'rivers'
p2708
I92
sS'pee'
p2709
I91
sS'forgets'
p2710
I92
sS'anna'
p2711
I92
sS'laughing'
p2712
I92
sS'be'
p2713
I37
sS'bf'
p2714
I89
sS'eating'
p2715
I89
sS'ba'
p2716
I92
sS'bb'
p2717
I92
sS'bc'
p2718
I89
sS'remembered'
p2719
I92
sS'hahahahahahaha'
p2720
I92
sS'palmer'
p2721
I92
sS'continuing'
p2722
I92
sS'fed'
p2723
I91
sS'sauce"'
p2724
I92
sS'question...obviously'
p2725
I92
sS'cholo'
p2726
I92
sS'bp'
p2727
I91
sS'santa'
p2728
I91
sS'chick'
p2729
I90
sS'yaaassss'
p2730
I92
sS'ache'
p2731
I92
sS'raider'
p2732
I91
sS'tripping'
p2733
I89
sS"crabby's"
p2734
I92
sS'anything'
p2735
I89
sS'netflix'
p2736
I92
sS'graduation'
p2737
I92
sS'page'
p2738
I92
sS'drama'
p2739
I92
sS'idk'
p2740
I79
sS'alert'
p2741
I92
sS',90640\n461175014725648384,adamluevano,2014-04-29'
p2742
I92
sS'mouth'
p2743
I92
sS'classics'
p2744
I92
sS'wanna'
p2745
I82
sS'idc'
p2746
I92
sS'urine'
p2747
I92
sS'pollution'
p2748
I92
sS'seeing'
p2749
I91
sS'jimmy'
p2750
I91
sS'garbage'
p2751
I92
sS'visit'
p2752
I90
sS'into'
p2753
I85
sS'johns'
p2754
I92
sS'starlight?\xe2\x99\xa1'
p2755
I92
sS'144'
p2756
I92
sS'services'
p2757
I92
sS'momma'
p2758
I91
sS'because'
p2759
I68
sS'clack'
p2760
I92
sS'steven'
p2761
I92
sS'16:33:52.0,34.01082938,-118.11075911,5301.02,happy'
p2762
I92
sS'lesson'
p2763
I92
sS'cho'
p2764
I92
sS'smells'
p2765
I92
sS'stitches'
p2766
I92
sS'ontario'
p2767
I92
sS'computer'
p2768
I92
sS'.-'
p2769
I92
sS'tasting'
p2770
I92
sS'beers'
p2771
I92
sS'bruv'
p2772
I92
sS'question'
p2773
I92
sS'ca)'
p2774
I38
sS'fast'
p2775
I88
sS"we're"
p2776
I90
sS'bruh'
p2777
I80
sS'ayy'
p2778
I92
sS'bored'
p2779
I76
sS'scared'
p2780
I92
sS'ludogorets'
p2781
I92
sS'himself'
p2782
I92
sS'jacks'
p2783
I91
sS'psyclone'
p2784
I92
sS'polio'
p2785
I91
sS"schurr's"
p2786
I92
sS'girlfriends'
p2787
I91
sS'tate'
p2788
I92
sS'!!,90640\n446766540310847488,adamluevano,2014-03-20'
p2789
I92
sS'link'
p2790
I91
sS'repeatedly'
p2791
I92
sS'hopes'
p2792
I92
sS'don'
p2793
I92
sS'line'
p2794
I85
sS'serio'
p2795
I90
sS'reel'
p2796
I92
sS'themselves'
p2797
I92
sS'raising'
p2798
I92
sS'\xe2\x99\xa1'
p2799
I91
sS'lifeguard'
p2800
I92
sS'fdb'
p2801
I92
sS'uu'
p2802
I92
sS'fries'
p2803
I90
sS"hasn't"
p2804
I90
sS'us'
p2805
I78
sS'ur'
p2806
I88
sS'um'
p2807
I92
sS'kk'
p2808
I92
sS'beaties'
p2809
I92
sS'un'
p2810
I91
sS'uh'
p2811
I91
sS'uk'
p2812
I92
sS'faded'
p2813
I90
sS'z'
p2814
I91
sS'called'
p2815
I91
sS'you...always'
p2816
I92
sS'yelled'
p2817
I91
sS'uber'
p2818
I92
sS'nachos'
p2819
I92
sS'buses?!?!?"'
p2820
I92
sS'16:44:48.0,34.0151083,-118.1219915,5301.02,what'
p2821
I92
sS'ordered'
p2822
I91
sS'sickass'
p2823
I92
sS'3-0'
p2824
I92
sS"chan's"
p2825
I92
sS'zayumm'
p2826
I92
sS'cleveland'
p2827
I92
sS'esco'
p2828
I92
sS'gravitas'
p2829
I92
sS'warning'
p2830
I92
sS'chat'
p2831
I92
sS'stripper'
p2832
I90
sS'%'
p2833
I92
sS'insomniac'
p2834
I92
sS'collection,90640\n499008768944779264,ashleyyvette3,2014-08-12'
p2835
I92
sS'nah'
p2836
I88
sS'peace'
p2837
I92
sS'backs'
p2838
I92
sS'stuffy'
p2839
I92
sS'9th!live'
p2840
I92
sS'sucks...maybe'
p2841
I92
sS'points'
p2842
I89
sS'statement'
p2843
I92
sS'naw'
p2844
I90
sS'tits'
p2845
I92
sS'department'
p2846
I85
sS'19:02:45.0,34.01654086,-118.1227461,5301.02,damnmmm'
p2847
I92
sS'bleached'
p2848
I92
sS'nice'
p2849
I70
sS'raped'
p2850
I92
sS',90640\n435813324207312897,adamluevano,2014-02-18'
p2851
I92
sS'diiiiick'
p2852
I92
sS'deedontluvum'
p2853
I92
sS'sided'
p2854
I92
sS'problems'
p2855
I92
sS'helping'
p2856
I92
sS'dos'
p2857
I92
sS'pretender'
p2858
I92
sS'earphones'
p2859
I92
sS'mood'
p2860
I92
sS'lang'
p2861
I91
sS'hells'
p2862
I92
sS'\xe2\x9c\x82\xef\xb8\x8f'
p2863
I90
sS'texted'
p2864
I92
sS'lead'
p2865
I92
sS'practically'
p2866
I92
sS'zags'
p2867
I92
sS'age'
p2868
I91
sS'required'
p2869
I90
sS'holes'
p2870
I92
sS'walked'
p2871
I90
sS'jusko'
p2872
I92
sS'seriouesly'
p2873
I92
sS'weights'
p2874
I92
sS'fresh'
p2875
I90
sS'underrated'
p2876
I92
sS'buffalo'
p2877
I91
sS'having'
p2878
I87
sS'once'
p2879
I91
sS'essay'
p2880
I89
sS'code'
p2881
I91
sS'dogged'
p2882
I92
sS'scratch'
p2883
I92
sS'feggit'
p2884
I91
sS'results'
p2885
I92
sS'steve'
p2886
I92
sS'gang'
p2887
I91
sS'go'
p2888
I27
sS'chillin'
p2889
I90
sS'kate'
p2890
I92
sS'issues'
p2891
I92
sS'^_^<3'
p2892
I92
sS'young'
p2893
I90
sS'send'
p2894
I90
sS'nose'
p2895
I92
sS'ditch"'
p2896
I92
sS"garduno's"
p2897
I91
sS'!!,90640\n461892746634985472,adamluevano,2014-05-01'
p2898
I92
sS'exit'
p2899
I92
sS'sent'
p2900
I92
sS'brigade'
p2901
I92
sS'unzip'
p2902
I92
sS'wished'
p2903
I92
sS'expressing'
p2904
I92
sS'facebook'
p2905
I91
sS'homework'
p2906
I92
sS'telling'
p2907
I91
sS'gettin'
p2908
I90
sS"they've"
p2909
I92
sS'ryan'
p2910
I92
sS'try'
p2911
I88
sS'avoiding'
p2912
I92
sS'havent'
p2913
I92
sS'tru'
p2914
I92
sS'14'
p2915
I92
sS'slow'
p2916
I92
sS'booty'
p2917
I90
sS'carter'
p2918
I91
sS'bleeding'
p2919
I92
sS'ze'
p2920
I92
sS'17:48:23.0,34.01462746,-118.12392371,5301.02,ouat'
p2921
I92
sS'ham'
p2922
I92
sS'waking'
p2923
I89
sS"you's"
p2924
I92
sS'video'
p2925
I87
sS'picked'
p2926
I90
sS'cinnabon'
p2927
I92
sS'click'
p2928
I91
sS'stds'
p2929
I92
sS'cupcakes'
p2930
I92
sS'business'
p2931
I92
sS'paintings'
p2932
I92
sS'montebello)'
p2933
I91
sS'giving'
p2934
I92
sS'dissapointing'
p2935
I92
sS'somberos'
p2936
I92
sS'waiting'
p2937
I88
sS'bird'
p2938
I92
sS'bowled'
p2939
I91
sS'body'
p2940
I89
sS'leg'
p2941
I91
sS'got'
p2942
I35
sS'cal'
p2943
I91
sS'commercial'
p2944
I89
sS'eminem'
p2945
I89
sS'desiree'
p2946
I92
sS',90640\n461174755723210753,adamluevano,2014-04-29'
p2947
I92
sS'let'
p2948
I78
sS'sink'
p2949
I92
sS'sing'
p2950
I92
sS'n****'
p2951
I92
sS'another?2'
p2952
I92
sS'bloopers'
p2953
I91
sS'\xe2\x9c\x8c\xef\xb8\x8f\xe2\x9d\xa4\xef\xb8\x8f'
p2954
I92
sS'great'
p2955
I80
sS'rds'
p2956
I92
sS'pressure'
p2957
I92
sS'involved'
p2958
I92
sS'31'
p2959
I91
sS'casino'
p2960
I92
sS'calvin'
p2961
I90
sS'leaving'
p2962
I87
sS'eatin'
p2963
I92
sS"weren't"
p2964
I91
sS'makes'
p2965
I83
sS'life\xe2\x80\x9d'
p2966
I92
sS'thats'
p2967
I88
sS'girllll'
p2968
I92
sS'panicked'
p2969
I92
sS'ago'
p2970
I87
sS'claim'
p2971
I92
sS'win'
p2972
I84
sS'app'
p2973
I92
sS'siri'
p2974
I92
sS'wit'
p2975
I89
sS'names'
p2976
I92
sS'motor'
p2977
I85
sS'dumbest'
p2978
I91
sS'apply'
p2979
I92
sS'singing'
p2980
I92
sS'wiz'
p2981
I92
sS'predicted'
p2982
I92
sS'standing'
p2983
I92
sS'cha'
p2984
I91
sS'use'
p2985
I88
sS'from'
p2986
I56
sS'usa'
p2987
I92
sS'&'
p2988
I58
sS'$300'
p2989
I92
sS'hudson'
p2990
I92
sS'mamba'
p2991
I92
sS'enzyme'
p2992
I92
sS'frog'
p2993
I92
sS'next'
p2994
I79
sS'few'
p2995
I92
sS'death.\xe2\x80\x9d'
p2996
I92
sS'camera'
p2997
I92
sS'showering'
p2998
I92
sS'beaches'
p2999
I92
sS'typical'
p3000
I92
sS'cabrones!"'
p3001
I92
sS'eagles'
p3002
I92
sS'hug'
p3003
I92
sS'stage'
p3004
I92
sS'download]'
p3005
I92
sS'judged'
p3006
I92
sS'xoxo,90640\n509950746318471168,malenee11,2014-09-11'
p3007
I92
sS'started'
p3008
I88
sS'calling'
p3009
I92
sS'&read'
p3010
I92
sS'about'
p3011
I56
sS'confused'
p3012
I91
sS'sore'
p3013
I91
sS'train'
p3014
I91
sS'baby'
p3015
I83
sS'santana'
p3016
I92
sS'tearing'
p3017
I92
sS'iii'
p3018
I92
sS'women'
p3019
I92
sS'account'
p3020
I92
sS'balls'
p3021
I92
sS'pug'
p3022
I92
sS'f'
p3023
I91
sS'this'
p3024
I18
sS'sounded'
p3025
I92
sS'haaat'
p3026
I92
sS'baaaaack'
p3027
I92
sS'donut'
p3028
I92
sS'tag'
p3029
I92
sS'crossed'
p3030
I92
sS"freak'in"
p3031
I92
sS'meet'
p3032
I90
sS'didnt'
p3033
I92
sS'performed'
p3034
I92
sS'control'
p3035
I92
sS'howieeeeeeeeee'
p3036
I92
sS'thirsty'
p3037
I91
sS'geez'
p3038
I91
sS'beny'
p3039
I92
sS'oc'
p3040
I92
sS'pieces'
p3041
I92
sS'high'
p3042
I72
sS"01:43:57.0,34.01291139,-118.12100074,5301.02,i've"
p3043
I92
sS'you!<3'
p3044
I92
sS'pulling'
p3045
I92
sS'something'
p3046
I75
sS'blvd'
p3047
I92
sS'sunglasses'
p3048
I91
sS'tan'
p3049
I91
sS'csun'
p3050
I92
sS'*kissy'
p3051
I92
sS'llewyn'
p3052
I92
sS'lame'
p3053
I88
sS'vibe'
p3054
I92
sS'monery'
p3055
I92
sS'six'
p3056
I91
sS'class"'
p3057
I92
sS'poetry'
p3058
I92
sS'yayyyyy'
p3059
I92
sS'reeking'
p3060
I92
sS'tamme'
p3061
I92
sS'instead'
p3062
I92
sS'comedy'
p3063
I91
sS'cuffed'
p3064
I92
sS'stand'
p3065
I92
sS'pockets'
p3066
I92
sS'rihanna'
p3067
I92
sS'series'
p3068
I92
sS'stop'
p3069
I71
sS'act'
p3070
I89
sS'tied'
p3071
I90
sS'bothered'
p3072
I92
sS'ow'
p3073
I92
sS'notebook'
p3074
I92
sS'wrist'
p3075
I92
sS'taco'
p3076
I91
sS'hahahaha'
p3077
I91
sS'fuhh'
p3078
I92
sS'terrier'
p3079
I92
sS'colassus'
p3080
I92
sS'realized'
p3081
I92
sS'20:29:43.0,34.01616614,-118.12271355,5301.02,table'
p3082
I92
sS'00:28:06.0,34.01146894,-118.10810304,5301.02,i'
p3083
I92
sS"nene's"
p3084
I92
sS'cosco'
p3085
I92
sS'sit'
p3086
I89
sS'bompton'
p3087
I92
sS'cudi'
p3088
I92
sS'-.-t'
p3089
I92
sS'honestly'
p3090
I90
sS'road'
p3091
I92
sS'crawling'
p3092
I92
sS'addiction'
p3093
I92
sS'wahoooo'
p3094
I92
sS'fuckup'
p3095
I92
sS'breast'
p3096
I92
sS'*takes'
p3097
I92
sS'baddie'
p3098
I92
sS'encouraged'
p3099
I92
sS'cadet'
p3100
I92
sS'12-6'
p3101
I92
sS'hugged'
p3102
I92
sS'130'
p3103
I92
sS"won't"
p3104
I84
sS'looks'
p3105
I88
sS'11:30-2:30'
p3106
I92
sS'bunch'
p3107
I87
sS'perfect'
p3108
I88
sS'write'
p3109
I90
sS'la'
p3110
I85
sS'notebooks'
p3111
I92
sS'lanes)'
p3112
I91
sS'sunday'
p3113
I92
sS'woodson'
p3114
I92
sS'li'
p3115
I90
sS'kindergarten'
p3116
I92
sS'choose'
p3117
I92
sS'tsx'
p3118
I92
sS'orange'
p3119
I90
sS'2014'
p3120
I91
sS'bye'
p3121
I92
sS'dad'
p3122
I86
sS'theyrapingeverybody'
p3123
I92
sS'python'
p3124
I91
sS'dam'
p3125
I88
sS'practice'
p3126
I90
sS'versace'
p3127
I91
sS'runs'
p3128
I92
sS'puente'
p3129
I92
sS'dat'
p3130
I91
sS'dougie'
p3131
I92
sS'snake'
p3132
I91
sS'kiss'
p3133
I92
sS'hands'
p3134
I91
sS'front'
p3135
I90
sS'day'
p3136
I58
sS'nfl'
p3137
I92
sS'://'
p3138
I92
sS'lifetime'
p3139
I92
sS'morris'
p3140
I80
sS'weather'
p3141
I92
sS'swaggie'
p3142
I92
sS'trap'
p3143
I92
sS'crossing'
p3144
I92
sS'champ'
p3145
I92
sS'flavored'
p3146
I92
sS"ya'll"
p3147
I92
sS'glasses'
p3148
I92
sS'seniors'
p3149
I92
sS'2900'
p3150
I92
sS'bueno'
p3151
I92
sS'doing'
p3152
I85
sS'horse'
p3153
I92
sS'adventure'
p3154
I92
sS'heated'
p3155
I92
sS'bubbas'
p3156
I92
sS'mas'
p3157
I92
sS'related'
p3158
I92
sS'books'
p3159
I90
sS'blood'
p3160
I92
sS'our'
p3161
I84
sS',90640\n475106631567810560,pinkkboots,2014-06-07'
p3162
I92
sS'special'
p3163
I91
sS'out'
p3164
I37
sS'matt'
p3165
I91
sS'rey'
p3166
I92
sS'mats'
p3167
I92
sS"'"
p3168
I91
sS'torta'
p3169
I92
sS'rep'
p3170
I91
sS'whoopee'
p3171
I92
sS'cuhh...you'
p3172
I92
sS'barley'
p3173
I92
sS'fran'
p3174
I92
sS'sushiiiiiii!"'
p3175
I92
sS"time'"
p3176
I92
sS'cause'
p3177
I79
sS'red'
p3178
I90
sS'torres'
p3179
I92
sS'shut'
p3180
I85
sS'jessica'
p3181
I92
sS'trolley'
p3182
I92
sS'frank'
p3183
I92
sS'molly'
p3184
I92
sS'attending'
p3185
I92
sS'que'
p3186
I92
sS'license...and'
p3187
I92
sS'doubles'
p3188
I92
sS'philip'
p3189
I92
sS'goforth'
p3190
I92
sS'craving'
p3191
I91
sS'basilea-'
p3192
I92
sS'scary'
p3193
I91
sS'steak'
p3194
I92
sS'wby.\xe2\x80\x9d'
p3195
I92
sS'snapchats'
p3196
I91
sS'could'
p3197
I80
sS'hes'
p3198
I92
sS'florida'
p3199
I92
sS'membership'
p3200
I92
sS'times'
p3201
I88
sS'conversation'
p3202
I91
sS'49ers'
p3203
I92
sS'4th'
p3204
I92
sS'timei'
p3205
I92
sS'davis'
p3206
I92
sS'retail'
p3207
I92
sS'stimulate'
p3208
I92
sS'guyz'
p3209
I92
sS'job...and'
p3210
I92
sS'frozen'
p3211
I92
sS'jewls'
p3212
I92
sS'scene'
p3213
I92
sS'sack'
p3214
I88
sS'jesus'
p3215
I91
sS'whoop'
p3216
I91
sS'cuhh'
p3217
I92
sS'iannetta'
p3218
I91
sS'bitch'
p3219
I61
sS'lagging'
p3220
I92
sS'noticed'
p3221
I92
sS'kid"so'
p3222
I92
sS'braces'
p3223
I91
sS"you're"
p3224
I56
sS'coast.\xe2\x98\x80'
p3225
I92
sS'ms.lopez'
p3226
I92
sS'10x'
p3227
I92
sS'start'
p3228
I79
sS'hunt'
p3229
I92
sS'fuckers'
p3230
I92
sS'chasee'
p3231
I92
sS'?"'
p3232
I92
sS'their'
p3233
I86
sS'vagina'
p3234
I92
sS'noooooo'
p3235
I92
sS'leta'
p3236
I92
sS'final'
p3237
I91
sS'beard'
p3238
I92
sS'2-0'
p3239
I92
sS'stomach'
p3240
I88
sS'stars'
p3241
I92
sS'seymour'
p3242
I91
sS'montbello'
p3243
I92
sS'exactly'
p3244
I92
sS'grandpa'
p3245
I91
sS'neck'
p3246
I92
sS'loved'
p3247
I89
sS'irregularly'
p3248
I92
sS'roulette'
p3249
I92
sS'boring'
p3250
I91
sS'bother'
p3251
I91
sS'elizabeth'
p3252
I92
sS'depends'
p3253
I92
sS'bed'
p3254
I89
sS'decided'
p3255
I92
sS'loves'
p3256
I92
sS'6th'
p3257
I90
sS',90640\n430745243491655680,deathwish_lizar,2014-02-04'
p3258
I92
sS'"be'
p3259
I92
sS'bet'
p3260
I92
sS'inlove'
p3261
I91
sS'drunk'
p3262
I91
sS'false'
p3263
I92
sS',90640\n446361149060034561,adamluevano,2014-03-19'
p3264
I92
sS'\\m/'
p3265
I92
sS'jerk'
p3266
I92
sS'liner'
p3267
I92
sS'tonight'
p3268
I76
sS'yellin'
p3269
I92
sS'have'
p3270
I31
sS'need'
p3271
I51
sS'5:40'
p3272
I92
sS'is!!,90640\n500176558632763392,malenee11,2014-08-15'
p3273
I92
sS'apparently'
p3274
I92
sS'counselors'
p3275
I92
sS'patience.\xe2\x80\xa6'
p3276
I92
sS'catholic'
p3277
I91
sS'mil'
p3278
I92
sS'min'
p3279
I91
sS'studying'
p3280
I92
sS'mills'
p3281
I92
sS'mid'
p3282
I92
sS'hangover'
p3283
I92
sS'retweet'
p3284
I92
sS're-live'
p3285
I92
sS'which'
p3286
I90
sS'dyke???\xe2\x80\x9d'
p3287
I92
sS'truck'
p3288
I92
sS'asshole'
p3289
I90
sS'='
p3290
I92
sS'23:50:43.0,34.01025722,-118.10866938,5301.02,,90640\n461976238219730944,adamluevano,2014-05-01'
p3291
I92
sS'deposit'
p3292
I92
sS'now...i'
p3293
I92
sS'pete'
p3294
I92
sS'bitches'
p3295
I80
sS'clash'
p3296
I92
sS'aww'
p3297
I89
sS'who'
p3298
I59
sS'jorge'
p3299
I91
sS'dumbasses'
p3300
I91
sS'lmaooo'
p3301
I92
sS"where's"
p3302
I88
sS'halos'
p3303
I92
sS'sfm'
p3304
I92
sS'awk'
p3305
I91
sS'forreal'
p3306
I91
sS'**'
p3307
I92
sS'highschool'
p3308
I92
sS'future'
p3309
I91
sS'class'
p3310
I68
sS'ishmael'
p3311
I92
sS'lames'
p3312
I91
sS'pre-ejaculation'
p3313
I92
sS'quotations'
p3314
I92
sS'19:34:44.0,34.0165724,-118.12299778,5301.02,imprave'
p3315
I92
sS';-p'
p3316
I92
sS'bree'
p3317
I91
sS'upset'
p3318
I92
sS'thanksgiving'
p3319
I92
sS'face'
p3320
I85
sS'looked'
p3321
I90
sS"you'll"
p3322
I90
sS'catchin'
p3323
I92
sS'main"'
p3324
I92
sS'se'
p3325
I92
sS'pictures'
p3326
I90
sS'brew'
p3327
I91
sS'xavier'
p3328
I92
sS'energy.\xe2\x80\x9dfor'
p3329
I92
sS'painting'
p3330
I91
sS'goals'
p3331
I91
sS'son'
p3332
I91
sS'sells'
p3333
I92
sS',90640\n442034381809389568,adamluevano,2014-03-07'
p3334
I92
sS',90640\n510506986241138688,_mirandaloveee,2014-09-12'
p3335
I92
sS'text'
p3336
I80
sS'assholes'
p3337
I92
sS'anyway'
p3338
I92
sS'chapters'
p3339
I92
sS'brother'
p3340
I92
sS'wins'
p3341
I92
sS'bring'
p3342
I82
sS'planning'
p3343
I92
sS'parked'
p3344
I92
sS'chicken'
p3345
I89
sS'seal'
p3346
I92
sS'staff'
p3347
I92
sS'ayee'
p3348
I92
sS'envy'
p3349
I92
sS'costco'
p3350
I92
sS'based'
p3351
I91
sS'102sat'
p3352
I92
sS'22:04:10.0,34.01580706,-118.12343981,5301.02,subs'
p3353
I92
sS'('
p3354
I88
sS'should'
p3355
I75
sS'terminal'
p3356
I92
sS"there's"
p3357
I84
sS'satan'
p3358
I92
sS'combo'
p3359
I92
sS'shockingly'
p3360
I92
sS'spice'
p3361
I92
sS'hope'
p3362
I83
sS'brat'
p3363
I92
sS'meant'
p3364
I89
sS'listened'
p3365
I92
sS'means'
p3366
I91
sS'beat'
p3367
I89
sS'michigan'
p3368
I92
sS'overall'
p3369
I91
sS'lucky'
p3370
I88
sS'99%'
p3371
I92
sS'tbh'
p3372
I84
sS'awww'
p3373
I92
sS'ones'
p3374
I91
sS'words'
p3375
I91
sS'$160'
p3376
I92
sS'kong'
p3377
I92
sS'styrofoam'
p3378
I92
sS'smash'
p3379
I92
sS'ever!"fairest'
p3380
I92
sS'brain'
p3381
I92
sS'shopping'
p3382
I92
sS'(1322'
p3383
I92
sS'hills'
p3384
I92
sS'rapper'
p3385
I91
sS'eyebrow'
p3386
I92
sS'teams'
p3387
I91
sS'reffing'
p3388
I92
sS'stuff'
p3389
I86
sS'23:27:40.0,34.01328251,-118.12292896,5301.02,welcome'
p3390
I92
sS'she'
p3391
I60
sS'dangerous'
p3392
I91
sS'craziness'
p3393
I92
sS'grab'
p3394
I92
sS'motorcycle'
p3395
I92
sS'buzzer'
p3396
I92
sS'btw'
p3397
I92
sS'representative'
p3398
I92
sS'spamming'
p3399
I91
sS'national'
p3400
I91
sS'cruise'
p3401
I92
sS'tour\xc3\xa9'
p3402
I92
sS'we'
p3403
I57
sS'packet'
p3404
I92
sS'wieners'
p3405
I92
sS'edition'
p3406
I92
sS'up!*golf'
p3407
I92
sS'latin'
p3408
I92
sS'snapchatting'
p3409
I92
sS'kanye'
p3410
I92
sS'packed'
p3411
I92
sS'38%'
p3412
I92
sS'asks'
p3413
I92
sS'luv'
p3414
I92
sS'horribly'
p3415
I91
sS'calhoun'
p3416
I90
sS'state'
p3417
I90
sS'bruni'
p3418
I92
sS'bruno'
p3419
I92
sS'closed'
p3420
I92
sS'horrible'
p3421
I90
sS'badger'
p3422
I92
sS'frustrated'
p3423
I92
sS'email'
p3424
I92
sS'bought'
p3425
I90
sS'ends'
p3426
I92
sS'cristiano'
p3427
I92
sS'amaaazing'
p3428
I92
sS'trynna'
p3429
I91
sS'opening'
p3430
I91
sS'gambino'
p3431
I90
sS'gametime'
p3432
I92
sS'jesus_dominguez_8'
p3433
I92
sS'abraham'
p3434
I92
sS'kicking'
p3435
I92
sS'job'
p3436
I75
sS',90640\n459789403343167488,adamluevano,2014-04-25'
p3437
I92
sS'shittiest'
p3438
I92
sS'key'
p3439
I91
sS'police'
p3440
I92
sS'problem'
p3441
I92
sS'david'
p3442
I92
sS'titties'
p3443
I92
sS'hits'
p3444
I91
sS'taking'
p3445
I91
sS"he's"
p3446
I77
sS'minds'
p3447
I92
sS'twitching'
p3448
I92
sS'april'
p3449
I91
sS'busted'
p3450
I92
sS'atleast'
p3451
I92
sS'bronx'
p3452
I92
sS'passing'
p3453
I91
sS'jersey'
p3454
I89
sS'comment'
p3455
I92
sS'gooood'
p3456
I92
sS'gone'
p3457
I91
sS'wall'
p3458
I90
sS'tuesday'
p3459
I89
sS'walk'
p3460
I84
sS'dulceperez1'
p3461
I92
sS'cx'
p3462
I92
sS'escudo'
p3463
I92
sS'laugh'
p3464
I91
sS'worksheets'
p3465
I92
sS'kings'
p3466
I91
sS'oakland'
p3467
I90
sS'flexin'
p3468
I92
sS'blink'
p3469
I92
sS'quit'
p3470
I91
sS'10:47:21.0,34.0115604,-118.11112771,5301.02,,90640\n174348631447568384,evanny50,2012-02-28'
p3471
I92
sS'remix'
p3472
I92
sS'yay'
p3473
I87
sS'call.<3'
p3474
I92
sS'zankou'
p3475
I89
sS"it's"
p3476
I43
sS'yas'
p3477
I92
sS'exhausted'
p3478
I92
sS'poured'
p3479
I92
sS'slowly'
p3480
I91
sS'treat'
p3481
I92
sS'certain'
p3482
I92
sS"lady's"
p3483
I92
sS'feather'
p3484
I92
sS'waste'
p3485
I90
sS'bbq'
p3486
I92
sS'>'
p3487
I88
sS'"hood'
p3488
I92
sS'shoulders'
p3489
I92
sS'liverpool'
p3490
I92
sS'wut\xe2\x80\x9d'
p3491
I92
sS'both'
p3492
I91
sS'hmu'
p3493
I90
sS'otf'
p3494
I92
sS'2015'
p3495
I92
sS'finished'
p3496
I89
sS'ofmontebello'
p3497
I88
sS'-.-'
p3498
I88
sS'angles'
p3499
I92
sS'bull'
p3500
I91
sS'smoking'
p3501
I91
sS'haaaaappy'
p3502
I92
sS'present'
p3503
I92
sS'volunteer'
p3504
I92
sS'eyelashes'
p3505
I92
sS'album?!thank'
p3506
I92
sS'?:p'
p3507
I92
sS'7-0'
p3508
I91
sS'\xe2\x98\x80\xef\xb8\x8f\xe2\x98\x80\xef\xb8\x8f\xe2\x98\x80\xef\xb8\x8f'
p3509
I92
sS'cvs'
p3510
I85
sS'waba'
p3511
I92
sS'will'
p3512
I77
sS'gucci'
p3513
I90
sS'hahaha'
p3514
I87
sS'wild'
p3515
I90
sS'jay'
p3516
I92
sS"cousin's"
p3517
I92
sS'supply'
p3518
I92
sS'mutant'
p3519
I92
sS'almost'
p3520
I84
sS'refs'
p3521
I92
sS'walks'
p3522
I91
sS'rome-'
p3523
I92
sS'duhh'
p3524
I92
sS'helped'
p3525
I92
sS'vs'
p3526
I90
sS'avi'
p3527
I92
sS'plaka'
p3528
I91
sS'turns'
p3529
I90
sS'thug'
p3530
I92
sS'partner'
p3531
I89
sS'ava'
p3532
I92
sS'pissin'
p3533
I92
sS'tattoo'
p3534
I91
sS'education'
p3535
I92
sS'"warm'
p3536
I92
sS'pauly'
p3537
I92
sS')'
p3538
I92
sS'juan'
p3539
I92
sS'waitresses'
p3540
I92
sS'funniest'
p3541
I92
sS'friday.\xe2\x9d\xa4\xef\xb8\x8f'
p3542
I92
sS'strange'
p3543
I92
sS'party'
p3544
I83
sS'gets'
p3545
I92
sS'difficult'
p3546
I92
sS'elbows'
p3547
I92
sS'ball'
p3548
I79
sS'raymond'
p3549
I92
sS'selfish'
p3550
I92
sS'1-0'
p3551
I92
sS'drink'
p3552
I87
sS'ios'
p3553
I92
sS'greeeaaatt'
p3554
I92
sS'beast'
p3555
I89
sS'fucken'
p3556
I82
sS'hasnt'
p3557
I92
sS'fucked'
p3558
I77
sS'whale'
p3559
I92
sS'busline'
p3560
I92
sS'l.a'
p3561
I92
sS'tighter'
p3562
I92
sS'pull'
p3563
I92
sS'//'
p3564
I91
sS'35%'
p3565
I92
sS'argue'
p3566
I92
sS'ashley'
p3567
I91
sS'center'
p3568
I91
sS'nahey'
p3569
I92
sS'records'
p3570
I92
sS'i'
p3571
I2
sS'well'
p3572
I79
sS'fighting'
p3573
I92
sS'rodgers'
p3574
I92
sS'thought'
p3575
I79
sS'laaame'
p3576
I92
sS'wyd'
p3577
I92
sS'oops'
p3578
I92
sS'wya'
p3579
I91
sS'english'
p3580
I89
sS'position'
p3581
I91
sS'soviet'
p3582
I92
sS'usual'
p3583
I92
sS'stores'
p3584
I91
sS'27th'
p3585
I92
sS'rocket'
p3586
I91
sS'less'
p3587
I92
sS"should've"
p3588
I90
sS'das'
p3589
I92
sS'flies'
p3590
I92
sS'yupppppp'
p3591
I92
sS'gun'
p3592
I92
sS'unproductive\xe2\x80\x9d'
p3593
I92
sS'soulja'
p3594
I92
sS'paul'
p3595
I92
sS'happiness'
p3596
I92
sS'wether'
p3597
I92
sS'tight'
p3598
I92
sS'bell'
p3599
I90
sS'sky'
p3600
I90
sS'gum'
p3601
I92
sS'killed'
p3602
I91
sS'battery'
p3603
I92
sS'add'
p3604
I92
sS'book'
p3605
I92
sS'attractive'
p3606
I91
sS'wet'
p3607
I92
sS'twerk'
p3608
I92
sS'smart'
p3609
I90
sS'details'
p3610
I92
sS'tests'
p3611
I92
sS'myth'
p3612
I92
sS'government'
p3613
I92
sS'checking'
p3614
I92
sS'all-american'
p3615
I92
sS"who's"
p3616
I90
sS'crushed'
p3617
I92
sS'klos'
p3618
I92
sS'dryer'
p3619
I92
sS'five'
p3620
I92
sS'know'
p3621
I40
sS'facial'
p3622
I92
sS'desk'
p3623
I92
sS'fushigi'
p3624
I92
sS'nvm'
p3625
I92
sS'fools'
p3626
I92
sS'loss'
p3627
I92
sS'lincoln'
p3628
I92
sS'trash'
p3629
I89
sS'like'
p3630
I21
sS'lost'
p3631
I84
sS'sizes'
p3632
I92
sS'ring'
p3633
I92
sS'tons'
p3634
I92
sS'loser'
p3635
I92
sS'become'
p3636
I91
sS'works'
p3637
I91
sS'soft'
p3638
I92
sS'mhs'
p3639
I91
sS'virginity'
p3640
I92
sS'nigga'
p3641
I70
sS'twitter'
p3642
I82
sS'alive'
p3643
I91
sS'haim'
p3644
I92
sS'hair'
p3645
I85
sS'sunderland'
p3646
I92
sS"why'd"
p3647
I92
sS'recommendation'
p3648
I92
sS'racking'
p3649
I92
sS'home'
p3650
I71
sS'lykke'
p3651
I91
sS'shakira'
p3652
I92
sS'happens'
p3653
I90
sS'cancer,90640\n489812628051472385,sammydz_nuts,2014-07-17'
p3654
I92
sS'22:04:51.0,34.0158808,-118.12325975,5301.02,looks'
p3655
I92
sS'literally'
p3656
I88
sS'does'
p3657
I86
sS'passion'
p3658
I92
sS'ugly\xe2\x80\x9d'
p3659
I92
sS'm\xc3\xa1s'
p3660
I92
sS':-p'
p3661
I92
sS'trout'
p3662
I89
sS'lags'
p3663
I92
sS'blowing'
p3664
I92
sS'\xe3\x80\xbd'
p3665
I92
sS'stuff"'
p3666
I92
sS'schedule'
p3667
I89
sS'trjst'
p3668
I92
sS'triceps'
p3669
I92
sS'likewise'
p3670
I92
sS'jamaica'
p3671
I92
sS'strugglin'
p3672
I92
sS'woe'
p3673
I92
sS'worthy'
p3674
I92
sS'amy'
p3675
I92
sS'choked'
p3676
I91
sS'raiding'
p3677
I92
sS'sister'
p3678
I91
sS':-)'
p3679
I90
sS'lifestyle'
p3680
I92
sS'carried'
p3681
I91
sS"akiyama's"
p3682
I92
sS'getting'
p3683
I73
sS'gourmet'
p3684
I92
sS'shaking'
p3685
I92
sS'spilled'
p3686
I92
sS'jibberish'
p3687
I92
sS'up.?('
p3688
I92
sS'happen"'
p3689
I92
sS'swear'
p3690
I86
sS'evoke'
p3691
I92
sS'documentary'
p3692
I92
sS'tgif'
p3693
I92
sS'swimming'
p3694
I90
sS'h8'
p3695
I92
sS'own'
p3696
I88
sS'bombaa'
p3697
I92
sS'owe'
p3698
I89
sS'pussy'
p3699
I86
sS'millington'
p3700
I92
sS'screamed'
p3701
I92
sS'tackle'
p3702
I91
sS'doesnt'
p3703
I92
sS'promise'
p3704
I92
sS'brush'
p3705
I92
sS'female'
p3706
I92
sS'pointless'
p3707
I91
sS'brass'
p3708
I92
sS'wack'
p3709
I91
sS'crashed)'
p3710
I92
sS'van'
p3711
I92
sS'transfer'
p3712
I92
sS'*'
p3713
I91
sS'wakeeee'
p3714
I92
sS'sleepover'
p3715
I92
sS'kidding'
p3716
I86
sS'kyrif'
p3717
I92
sS'bump'
p3718
I92
sS'pa'
p3719
I92
sS'biggest'
p3720
I92
sS'maze'
p3721
I92
sS'jannete'
p3722
I92
sS'function'
p3723
I92
sS'buy'
p3724
I82
sS'gluten'
p3725
I92
sS"i've"
p3726
I79
sS'hr'
p3727
I92
sS'bus'
p3728
I91
sS'coke'
p3729
I92
sS'damm'
p3730
I86
sS'but'
p3731
I30
sS'hu'
p3732
I92
sS'reminds'
p3733
I92
sS'hi'
p3734
I91
sS'ughhh'
p3735
I91
sS'complimenting'
p3736
I92
sS'grate'
p3737
I92
sS'ha'
p3738
I92
sS'eat'
p3739
I88
sS'he'
p3740
I45
sS'count'
p3741
I91
sS'made'
p3742
I82
sS'places'
p3743
I92
sS'whether'
p3744
I92
sS'wish'
p3745
I82
sS'cells'
p3746
I92
sS'official'
p3747
I92
sS'signed'
p3748
I91
sS'record'
p3749
I91
sS'dmv'
p3750
I81
sS'kaisy'
p3751
I91
sS'lvl'
p3752
I92
sS'faggot'
p3753
I91
sS'minutes'
p3754
I90
sS'cmon'
p3755
I92
sS'replying'
p3756
I92
sS'pin'
p3757
I92
sS'03:05:43.0,34.0160569,-118.107459,5301.02,i'
p3758
I92
sS'int'
p3759
I91
sS'kisses'
p3760
I90
sS'pig'
p3761
I92
sS'twist'
p3762
I92
sS'band...1'
p3763
I92
sS'periods'
p3764
I90
sS'b110'
p3765
I92
sS'aybar'
p3766
I91
sS'shooting'
p3767
I92
sS'pit'
p3768
I92
sS'ew'
p3769
I88
sS'jesse'
p3770
I92
sS'yorself'
p3771
I92
sS'latina'
p3772
I92
sS'46'
p3773
I92
sS'dressed'
p3774
I92
sS'automotive)'
p3775
I92
sS'40'
p3776
I92
sS'lately'
p3777
I89
sS'other'
p3778
I91
sS'popping'
p3779
I92
sS'sick'
p3780
I85
sS'liar/faker'
p3781
I92
sS'~'
p3782
I92
sS'sunshine'
p3783
I92
sS'kinds'
p3784
I92
sS'monday'
p3785
I86
sS'june'
p3786
I92
sS'stay'
p3787
I89
sS'semis'
p3788
I92
sS'kinda'
p3789
I85
sS'richardson'
p3790
I91
sS'stan'
p3791
I92
sS'badass'
p3792
I92
sS'friends'
p3793
I84
sS'howie'
p3794
I92
sS'"late"'
p3795
I92
sS'goin'
p3796
I92
sS'ave'
p3797
I92
sS'simon'
p3798
I92
sS'haaaaaaaaay;)'
p3799
I92
sS'campeon'
p3800
I92
sS'all,90640\n489815260816080897,sammydz_nuts,2014-07-17'
p3801
I92
sS'gooooool'
p3802
I92
sS'lasted'
p3803
I92
sS'nigga....he'
p3804
I92
sS'portion'
p3805
I92
sS'hellllooo'
p3806
I92
sS"baba's"
p3807
I92
sS'searched'
p3808
I92
sS'understand'
p3809
I91
sS'"the'
p3810
I92
sS'8th'
p3811
I91
s.