(dp0
S''
p1
I2
sS'neighbors'
p2
I18
sS'all'
p3
I14
sS':('
p4
I18
sS':)'
p5
I18
sS'manager'
p6
I18
sS'go'
p7
I14
sS'follow'
p8
I18
sS'smh,90063\n500868539511607297,twinkynhurley,2014-08-17'
p9
I18
sS'everything'
p10
I18
sS'tv'
p11
I18
sS'tweet'
p12
I18
sS'alone.,90063\n362443217477697536,ggerardo_,2013-07-31'
p13
I18
sS'to'
p14
I4
sS'stupid.,90063\n363869383627517952,ggerardo_,2013-08-04'
p15
I18
sS'ti'
p16
I18
sS':o'
p17
I17
sS':d'
p18
I18
sS'at&t,90063\n362033494412640258,ggerardo_,2013-07-30'
p19
I18
sS'fav'
p20
I18
sS'tacos'
p21
I17
sS'05:16:47.0,34.0447675,-118.1885758,5309.01,still'
p22
I18
sS'vegas'
p23
I17
sS'06:34:52.0,34.0448085,-118.1885756,5309.01,if'
p24
I18
sS'room'
p25
I16
sS'school'
p26
I14
sS'restaurant.the'
p27
I18
sS'did'
p28
I18
sS'joel'
p29
I18
sS'brother'
p30
I14
sS'this'
p31
I14
sS'team'
p32
I18
sS'lol,90063\n360696353501880320,ggerardo_,2013-07-26'
p33
I18
sS'rusty'
p34
I18
sS'street'
p35
I18
sS'cesarchavezav'
p36
I18
sS'!,90063\n360697044131782656,ggerardo_,2013-07-26'
p37
I18
sS'compa\xe2\x80\xa6'
p38
I18
sS'even'
p39
I14
sS'what'
p40
I18
sS'18:37:38.0,34.0447638,-118.1885928,5309.01,thats'
p41
I18
sS'thunder'
p42
I18
sS'waiting'
p43
I18
sS'521'
p44
I18
sS'sup'
p45
I18
sS'new'
p46
I17
sS'ever'
p47
I16
sS'okay.....and'
p48
I18
sS'03:11:15.0,34.0447812,-118.1885414,5309.01,never'
p49
I18
sS'ever,90063\n493583562126290944,alonnddrraaaaa,2014-07-28'
p50
I18
sS'makeup'
p51
I18
sS'here'
p52
I15
sS'met'
p53
I18
sS'sing'
p54
I17
sS'lol'
p55
I18
sS'talent'
p56
I18
sS'my'
p57
I4
sS'experience'
p58
I18
sS'xd,90063\n361957338506203136,ggerardo_,2013-07-29'
p59
I18
sS'04:55:40.0,34.04485721,-118.18713362,5309.01,fuckfuckfuck,90063\n498377090895323136,twinkynhurley,2014-08-10'
p60
I18
sS'21:12:09.0,34.0448185,-118.188592,5309.01,my'
p61
I18
sS'436'
p62
I17
sS"i'm"
p63
I12
sS'makes'
p64
I18
sS'thats'
p65
I18
sS'love'
p66
I16
sS'annoying,90063\n363852777140666368,ggerardo_,2013-08-04'
p67
I18
sS'family'
p68
I16
sS"thanks!i'll"
p69
I18
sS'app'
p70
I18
sS'siri'
p71
I18
sS'mariners'
p72
I18
sS'dumbest'
p73
I18
sS'singing'
p74
I18
sS'market'
p75
I18
sS'from'
p76
I15
sS'would'
p77
I17
sS'super'
p78
I18
sS'dude'
p79
I18
sS'arms'
p80
I18
sS'ca)'
p81
I18
sS'06:22:51.0,34.0447561,-118.1885498,5309.01,this'
p82
I18
sS'music'
p83
I18
sS'calm'
p84
I18
sS'!!!!!,90063\n361291502942556160,ggerardo_,2013-07-28'
p85
I18
sS'sexy'
p86
I18
sS'dalia'
p87
I18
sS'start'
p88
I18
sS'today'
p89
I17
sS'more'
p90
I16
sS'!,90063\n363171770469072896,ggerardo_,2013-08-02'
p91
I18
sS'started'
p92
I18
sS'22:57:49.0,34.0447905,-118.1885341,5309.01,nothing'
p93
I18
sS'haha'
p94
I17
sS'about'
p95
I17
sS'08:27:32.0,34.04479456,-118.18530542,5309.01,the'
p96
I18
sS'orgullosa'
p97
I18
sS'saben'
p98
I18
sS'karaoke'
p99
I18
sS'glad'
p100
I18
sS'02:53:58.0,34.0447387,-118.1885652,5309.01,home'
p101
I18
sS'me'
p102
I15
sS'21:18:14.0,34.0447536,-118.1886283,5309.01,my'
p103
I18
sS'hour'
p104
I18
sS'cheapest'
p105
I18
sS'?,90063\n360698290456637441,ggerardo_,2013-07-26'
p106
I18
sS'party....the'
p107
I18
sS'mo'
p108
I18
sS'work'
p109
I16
sS'01:21:15.0,34.0447626,-118.1886048,5309.01,aint'
p110
I18
sS'!!!!!,90063\n363573588034461696,ggerardo_,2013-08-03'
p111
I18
sS'can'
p112
I18
sS'growing'
p113
I18
sS'01:40:17.0,34.0448013,-118.188581,5309.01,we'
p114
I18
sS'didnt'
p115
I17
sS'09:17:55.0,34.0447918,-118.1885572,5309.01,haha'
p116
I18
sS'!,90063\n362088732234489856,ggerardo_,2013-07-30'
p117
I18
sS'figure'
p118
I18
sS'fuck'
p119
I18
sS'heard'
p120
I18
sS'homie'
p121
I18
sS'want'
p122
I18
sS'tan'
p123
I18
sS'answers'
p124
I18
sS't.v'
p125
I18
sS'awkward'
p126
I18
sS'turn'
p127
I18
sS'holds'
p128
I18
sS'stayed'
p129
I18
sS'05:22:51.0,34.0448192,-118.1885109,5309.01,wild'
p130
I18
sS'how'
p131
I15
sS'hot'
p132
I18
sS'buzzin'
p133
I18
sS'llego'
p134
I18
sS'mess'
p135
I18
sS'frapp'
p136
I18
sS'\xc3\x81nimo'
p137
I18
sS'wrong'
p138
I18
sS'birthday'
p139
I17
sS'-estoy'
p140
I18
sS'coming'
p141
I18
sS'such'
p142
I18
sS'arco'
p143
I18
sS'05:33:37.0,34.0447977,-118.1885485,5309.01,my'
p144
I18
sS'a'
p145
I5
sS'natural'
p146
I18
sS'remember'
p147
I18
sS'counter'
p148
I18
sS'lost'
p149
I18
sS'9am'
p150
I18
sS'so'
p151
I12
sS'now,90063\n360690435783540738,ggerardo_,2013-07-26'
p152
I18
sS'03:49:56.0,34.0448449,-118.1885529,5309.01,fuck'
p153
I18
sS'03:19:13.0,34.04382471,-118.19155723,5309.01,i'
p154
I18
sS"that's"
p155
I18
sS'00:13:12.0,34.0448213,-118.1885537,5309.01,my'
p156
I18
sS"don't"
p157
I18
sS'years'
p158
I18
sS'school!,90063\n493596510710284289,twinkynhurley,2014-07-28'
p159
I18
sS'hell'
p160
I18
sS'its'
p161
I15
sS'ima'
p162
I18
sS'21'
p163
I18
sS'la'
p164
I13
sS'interesting'
p165
I18
sS'backpack'
p166
I18
sS'[pic]'
p167
I18
sS'madre'
p168
I18
sS"haven't"
p169
I18
sS'ted,90063\n362772486523326464,ggerardo_,2013-08-01'
p170
I18
sS'them'
p171
I18
sS'good'
p172
I16
sS'food'
p173
I18
sS'02:43:56.0,34.0448298,-118.1885232,5309.01,my'
p174
I18
sS'longest,90063\n362083536804659201,ggerardo_,2013-07-30'
p175
I18
sS'band'
p176
I18
sS'starbucks'
p177
I18
sS'they'
p178
I16
sS'flea'
p179
I18
sS'now'
p180
I15
sS'day'
p181
I14
sS'3563'
p182
I18
sS'indianast'
p183
I18
sS'always'
p184
I17
sS'choir'
p185
I18
sS'billy'
p186
I18
sS'stopped'
p187
I18
sS'each'
p188
I18
sS'went'
p189
I17
sS'!,90063\n361333075927515138,ggerardo_,2013-07-28'
p190
I18
sS'el'
p191
I18
sS'vegas,90063\n360574807416381441,ggerardo_,2013-07-26'
p192
I18
sS'en'
p193
I18
sS'lowkey'
p194
I18
sS'day,90063\n362098953589764098,ggerardo_,2013-07-30'
p195
I18
sS'diana'
p196
I18
sS'brother.,90063\n362059627988402176,ggerardo_,2013-07-30'
p197
I18
sS'yeah'
p198
I18
sS'01:01:27.0,34.04597945,-118.18655412,5309.01,that'
p199
I18
sS'blacklight'
p200
I18
sS'year'
p201
I17
sS'girl'
p202
I18
sS'out'
p203
I15
sS'naked'
p204
I18
sS'guy,90063\n363871690742173697,ggerardo_,2013-08-04'
p205
I18
sS'since'
p206
I18
sS'mu\xc3\xb1oz'
p207
I18
sS'got'
p208
I18
sS'cause'
p209
I17
sS'411'
p210
I18
sS'ass'
p211
I18
sS'attended'
p212
I18
sS'que'
p213
I18
sS'ask'
p214
I18
sS'wanted'
p215
I17
sS'01:02:44.0,34.0447581,-118.1885178,5309.01,my'
p216
I18
sS'scary'
p217
I18
sS'could'
p218
I17
sS'ganadora'
p219
I18
sS'moment'
p220
I18
sS'thing'
p221
I18
sS'horas'
p222
I18
sS'first'
p223
I18
sS'dont'
p224
I16
sS'451'
p225
I18
sS'!,90063\n360717818272038914,ggerardo_,2013-07-26'
p226
I18
sS'one'
p227
I17
sS'sisters'
p228
I16
sS'felicidades'
p229
I18
sS'shakes'
p230
I18
sS'tomorrow'
p231
I16
sS'!,90063\n362377757977612292,ggerardo_,2013-07-31'
p232
I18
sS'little'
p233
I13
sS'02:45:59.0,34.0448079,-118.188544,5309.01,its'
p234
I18
sS'her.,90063\n361389529086701568,ggerardo_,2013-07-28'
p235
I18
sS'me,90063\n321801873831120897,erickmunoz4,2013-04-10'
p236
I18
sS'least'
p237
I18
sS'cocinando'
p238
I18
sS'too'
p239
I18
sS'passed'
p240
I18
sS'02:24:06.0,34.0447823,-118.1885544,5309.01,in'
p241
I18
sS'03:59:06.0,34.0448573,-118.1885382,5309.01,i'
p242
I18
sS'outa'
p243
I18
sS'white'
p244
I17
sS'messing'
p245
I18
sS'final'
p246
I18
sS'store'
p247
I18
sS'eyes'
p248
I18
sS'para'
p249
I18
sS'that'
p250
I10
sS'took'
p251
I17
sS'part'
p252
I18
sS'because'
p253
I17
sS'hazelnut'
p254
I18
sS'than'
p255
I18
sS'boyfriend'
p256
I18
sS'grocery'
p257
I18
sS'15'
p258
I18
sS'lmao'
p259
I18
sS'08:15:09.0,34.0447722,-118.1886011,5309.01,like'
p260
I18
sS'bed'
p261
I18
sS'were'
p262
I14
sS'us,90063\n362097355929030656,ggerardo_,2013-07-30'
p263
I18
sS'07:35:52.0,34.0448646,-118.1885252,5309.01,when'
p264
I18
sS'and'
p265
I6
sS'do.,90063\n361958873239793665,ggerardo_,2013-07-29'
p266
I18
sS'tonight'
p267
I18
sS'say'
p268
I18
sS'graffiti'
p269
I9
sS'have'
p270
I15
sS'need'
p271
I17
sS'seen'
p272
I18
sS'breakfast'
p273
I18
sS'saw'
p274
I18
sS'bored,90063\n362058781779177474,ggerardo_,2013-07-30'
p275
I18
sS'car'
p276
I18
sS'shit,90063\n363871325292478465,ggerardo_,2013-08-04'
p277
I18
sS'17:46:56.0,34.04218421,-118.1914346,5309.01,fuck'
p278
I18
sS'-'
p279
I18
sS'honestly'
p280
I18
sS'panties'
p281
I18
sS'05:54:15.0,34.0448154,-118.1886255,5309.01,havent'
p282
I18
sS'channel'
p283
I18
sS'brazil'
p284
I18
sS'sure'
p285
I18
sS'gageav'
p286
I18
sS"06:28:31.0,34.0448065,-118.1885945,5309.01,i'm"
p287
I18
sS'eggs'
p288
I18
sS'who'
p289
I17
sS'06:41:58.0,34.04575623,-118.18651653,5309.01,amazing'
p290
I18
sS'mouth'
p291
I18
sS'america'
p292
I18
sS'why'
p293
I18
sS'maria'
p294
I17
sS'forever'
p295
I18
sS',90063\n475725479270309888,lipsticksnob1,2014-06-08'
p296
I18
sS'youtube,90063\n362110136287891456,ggerardo_,2013-07-30'
p297
I18
sS'02:28:38.0,34.04053782,-118.19033627,5309.01,best'
p298
I18
sS'freeway'
p299
I18
sS'se'
p300
I18
sS'09:22:45.0,34.0447959,-118.1885426,5309.01,its'
p301
I18
sS'07:08:28.0,34.0448231,-118.1885478,5309.01,except'
p302
I18
sS'boyfriends'
p303
I18
sS'came'
p304
I18
sS'lay'
p305
I18
sS'00:03:35.0,34.0448148,-118.1885442,5309.01,it'
p306
I18
sS'!,90063\n360708894651195393,ggerardo_,2013-07-26'
p307
I18
sS':(,90063\n500879628915834880,twinkynhurley,2014-08-17'
p308
I18
sS'cielos'
p309
I18
sS'should'
p310
I18
sS'01:45:00.0,34.0448049,-118.1885708,5309.01,supposedly'
p311
I18
sS'only'
p312
I17
sS'going'
p313
I17
sS'00:41:10.0,34.0447602,-118.1885257,5309.01,wow'
p314
I18
sS'pretty'
p315
I17
sS'gangsta'
p316
I18
sS"mom's"
p317
I18
sS'!,90063\n363853290812874752,ggerardo_,2013-08-04'
p318
I18
sS'do'
p319
I15
sS'xdd'
p320
I17
sS'get'
p321
I16
sS'de'
p322
I15
sS'watch'
p323
I17
sS'!,90063\n360695491027152897,ggerardo_,2013-07-26'
p324
I18
sS'feels'
p325
I17
sS'now,90063\n362768136895873027,ggerardo_,2013-08-01'
p326
I18
sS'him'
p327
I18
sS'08:14:32.0,34.0447722,-118.1886011,5309.01,my'
p328
I18
sS'morning'
p329
I18
sS'02:56:30.0,34.0447387,-118.1885652,5309.01,at'
p330
I18
sS'bag'
p331
I18
sS'she'
p332
I17
sS'419'
p333
I18
sS'single"'
p334
I18
sS'see'
p335
I16
sS':/,90063\n363863331632709632,ggerardo_,2013-08-04'
p336
I18
sS'are'
p337
I15
sS'time,90063\n363574669317644289,ggerardo_,2013-08-03'
p338
I18
sS':d,90063\n361382634493972480,ggerardo_,2013-07-28'
p339
I18
sS'best'
p340
I18
sS'instagram.,90063\n360550930283892736,ggerardo_,2013-07-26'
p341
I18
sS'wow'
p342
I18
sS'please'
p343
I18
sS'forecast'
p344
I18
sS'outside'
p345
I18
sS'descanse'
p346
I18
sS'between'
p347
I18
sS'probably'
p348
I18
sS';),90063\n363165465515798529,ggerardo_,2013-08-02'
p349
I18
sS'across'
p350
I18
sS'07:55:32.0,34.04599433,-118.18894883,5309.01,i'
p351
I18
sS's\xc3\xad'
p352
I18
sS'we'
p353
I15
sS'never'
p354
I17
sS'07:07:00.0,34.0448231,-118.1885478,5309.01,my'
p355
I18
sS'omw'
p356
I18
sS'(los'
p357
I18
sS'cousin'
p358
I18
sS'come'
p359
I18
sS'both'
p360
I18
sS'nap!!!i'
p361
I18
sS'stupidest'
p362
I18
sS'games'
p363
I18
sS'planned'
p364
I18
sS'passing'
p365
I18
sS'whole'
p366
I18
sS'asked'
p367
I18
sS'xd'
p368
I18
sS'03:55:14.0,34.0447816,-118.1885507,5309.01,facetiming'
p369
I18
sS'drunk'
p370
I18
sS'cx'
p371
I17
sS'luis'
p372
I18
sS'better'
p373
I18
sS'asks'
p374
I18
sS"it's"
p375
I16
sS'create'
p376
I18
sS'been'
p377
I17
sS'anoying'
p378
I18
sS'06:54:29.0,34.0448016,-118.1885805,5309.01,todays'
p379
I18
sS'puta'
p380
I18
sS'now,90063\n361983930481651712,ggerardo_,2013-07-29'
p381
I18
sS'waste'
p382
I18
sS'qu\xc3\xa9'
p383
I17
sS'shopping'
p384
I18
sS'fire'
p385
I18
sS'hmu'
p386
I18
sS"what's"
p387
I18
sS'gas'
p388
I18
sS'has'
p389
I18
sS'dozietyrowanav'
p390
I18
sS'rowanav'
p391
I14
sS'avatar?,90063\n502298625423073280,twinkynhurley,2014-08-21'
p392
I18
sS':/,90063\n360575268244561921,ggerardo_,2013-07-26'
p393
I18
sS'teachers'
p394
I18
sS'mom,90063\n490040162743623680,twinkynhurley,2014-07-18'
p395
I18
sS'fun'
p396
I18
sS'night,90063\n360691649040486400,ggerardo_,2013-07-26'
p397
I18
sS'coolest'
p398
I17
sS'03:51:33.0,34.0447861,-118.1885474,5309.01,fuck'
p399
I18
sS'lol,90063\n362089233466392576,ggerardo_,2013-07-30'
p400
I18
sS',90063\n482077687985352705,coco_marie23,2014-06-26'
p401
I18
sS'is'
p402
I6
sS'thus'
p403
I18
sS'it'
p404
I8
sS'im'
p405
I17
sS'in'
p406
I7
sS'09:38:01.0,34.0447941,-118.1885395,5309.01,wow'
p407
I18
sS'if'
p408
I17
sS'funny'
p409
I16
sS'parte'
p410
I18
sS'doctor'
p411
I18
sS'things'
p412
I18
sS'paz'
p413
I18
sS'same'
p414
I18
sS'!,90063\n362103890923110400,ggerardo_,2013-07-30'
p415
I18
sS'party'
p416
I18
sS'gets'
p417
I18
sS'01:06:21.0,34.0448439,-118.1885256,5309.01,jesus'
p418
I18
sS'used'
p419
I18
sS'bald'
p420
I18
sS'rain'
p421
I18
sS'corruption'
p422
I18
sS'fucken'
p423
I17
sS'!,90063\n360553351114539010,ggerardo_,2013-07-26'
p424
I18
sS'fucked'
p425
I18
sS'opportunity'
p426
I18
sS'xd,90063\n360576453877837824,ggerardo_,2013-07-26'
p427
I18
sS'kid'
p428
I18
sS'03:25:53.0,34.0448653,-118.1886024,5309.01,today'
p429
I18
sS'tracking'
p430
I9
sS'off'
p431
I18
sS'reffs'
p432
I18
sS'i'
p433
I3
sS'work!i'
p434
I18
sS'tho'
p435
I17
sS'person'
p436
I17
sS'02:14:45.0,34.0448167,-118.1885476,5309.01,everybody'
p437
I18
sS'pandora'
p438
I18
sS'mother'
p439
I18
sS':/,90063\n361304051163471873,ggerardo_,2013-07-28'
p440
I18
sS'the'
p441
I1
sS'just'
p442
I12
sS'02:27:46.0,34.04065427,-118.19074924,5309.01,street'
p443
I18
sS'money'
p444
I18
sS'life,90063\n362768775440908288,ggerardo_,2013-08-01'
p445
I18
sS'not'
p446
I16
sS'roasted'
p447
I18
sS'dozieryrowanav'
p448
I18
sS'05:55:44.0,34.04180756,-118.19044007,5309.01,,90063\n509624140089683969,twinkynhurley,2014-09-10'
p449
I18
sS'lol,90063\n493583781614198786,alonnddrraaaaa,2014-07-28'
p450
I18
sS'cut'
p451
I18
sS's\xc3\xa9ptima'
p452
I18
sS'realize'
p453
I18
sS'4'
p454
I18
sS'crying'
p455
I18
sS'east'
p456
I17
sS'real'
p457
I18
sS'formar'
p458
I18
sS'crusty'
p459
I18
sS'around'
p460
I18
sS'big'
p461
I17
sS'gonna'
p462
I16
sS'game'
p463
I18
sS'bitch'
p464
I17
sS'know'
p465
I16
sS'listening'
p466
I18
sS'banda'
p467
I18
sS'03:57:39.0,34.0448573,-118.1885382,5309.01,disney'
p468
I18
sS'like'
p469
I12
sS'-_-'
p470
I18
sS'fernando'
p471
I18
sS'marias'
p472
I18
sS'stars.,90063\n512117681919516672,twinkynhurley,2014-09-17'
p473
I18
sS'!,90063\n361733541677105152,ggerardo_,2013-07-29'
p474
I18
sS'right'
p475
I15
sS'parade'
p476
I18
sS'habitat'
p477
I18
sS'05:37:52.0,34.0447771,-118.1886126,5309.01,we'
p478
I18
sS'fucking'
p479
I13
sS'tambi\xc3\xa9n'
p480
I18
sS'scared'
p481
I16
sS'yolo'
p482
I18
sS'some'
p483
I18
sS'back'
p484
I16
sS'hair'
p485
I18
sS'escape'
p486
I18
sS'dear'
p487
I18
sS'man,90063\n482077358069800960,coco_marie23,2014-06-26'
p488
I18
sS'for'
p489
I13
sS'literally'
p490
I18
sS'shiting'
p491
I18
sS'ese'
p492
I18
sS'hipster'
p493
I18
sS'01:56:13.0,34.0447691,-118.1885818,5309.01,everything'
p494
I18
sS'umm'
p495
I18
sS'420'
p496
I18
sS'be'
p497
I14
sS'knew'
p498
I18
sS'reaching'
p499
I18
sS'chola'
p500
I18
sS'by'
p501
I17
sS'on'
p502
I11
sS'sister'
p503
I18
sS'xd,90063\n363166464619982848,ggerardo_,2013-08-02'
p504
I18
sS'anything'
p505
I18
sS'getting'
p506
I17
sS'of'
p507
I14
sS'lumineers,90063\n362091191845658628,ggerardo_,2013-07-30'
p508
I18
sS'angeles'
p509
I17
sS'xd,90063\n363821881037557760,ggerardo_,2013-08-04'
p510
I18
sS',90063\n492847971092795393,iamgabs93,2014-07-26'
p511
I18
sS'seeing'
p512
I17
sS'03:58:36.0,34.0447698,-118.1885814,5309.01,the'
p513
I18
sS'own'
p514
I18
sS'03:38:19.0,34.04578009,-118.18918225,5309.01,i'
p515
I18
sS'09:34:27.0,34.0448329,-118.1885624,5309.01,it'
p516
I18
sS'into'
p517
I18
sS'05:39:44.0,34.04478194,-118.18706498,5309.01,nobody'
p518
I18
sS'down'
p519
I17
sS'!,90063\n363573743399874560,ggerardo_,2013-08-03'
p520
I18
sS'promise'
p521
I18
sS'amiga'
p522
I18
sS'03:07:09.0,34.0458691,-118.18664788,5309.01,watching'
p523
I18
sS'ayuda'
p524
I18
sS'your'
p525
I15
sS'smells'
p526
I18
sS'mugrosin'
p527
I18
sS'her'
p528
I17
sS'hes'
p529
I18
sS'there'
p530
I17
sS'long'
p531
I18
sS'good!,90063\n363895572740063232,ggerardo_,2013-08-04'
p532
I18
sS'los'
p533
I17
sS'awks'
p534
I18
sS':d,90063\n360706643350126592,ggerardo_,2013-07-26'
p535
I18
sS'call'
p536
I18
sS'bored'
p537
I18
sS'was'
p538
I13
sS'twitter'
p539
I18
sS'happy'
p540
I16
sS'head'
p541
I18
sS'buy'
p542
I17
sS'bus'
p543
I18
sS'but'
p544
I17
sS'line'
p545
I18
sS'with'
p546
I14
sS'he'
p547
I16
sS'humbled'
p548
I18
sS'erick'
p549
I18
sS'up'
p550
I17
sS'us'
p551
I18
sS'ur'
p552
I18
sS'planet'
p553
I18
sS'crap,90063\n502308239573147648,twinkynhurley,2014-08-21'
p554
I18
sS'problem'
p555
I18
sS'called'
p556
I18
sS'!,90063\n361918453193506816,ggerardo_,2013-07-29'
p557
I18
sS'his'
p558
I17
sS'iphone'
p559
I18
sS'09:41:26.0,34.044821,-118.1885573,5309.01,its'
p560
I18
sS'taste'
p561
I18
sS'feliz'
p562
I15
sS'am'
p563
I18
sS'se\xc3\xb1or'
p564
I18
sS'watches'
p565
I18
sS'an'
p566
I18
sS'as'
p567
I18
sS'at'
p568
I11
sS'before,90063\n360694595174146049,ggerardo_,2013-07-26'
p569
I18
sS'annoying'
p570
I16
sS'check'
p571
I18
sS'shit'
p572
I13
sS'resonating'
p573
I18
sS'no'
p574
I17
sS'nah'
p575
I18
sS'when'
p576
I13
sS'other'
p577
I17
sS'08:18:50.0,34.0447722,-118.1886011,5309.01,fuck'
p578
I18
sS'you'
p579
I11
sS'really'
p580
I18
sS'x),90063\n362035844011393026,ggerardo_,2013-07-30'
p581
I18
sS'picture'
p582
I18
sS'brothers'
p583
I18
sS'living'
p584
I18
sS'01:38:27.0,34.0448013,-118.188581,5309.01,we'
p585
I18
sS'stay'
p586
I18
sS'(323)9474232'
p587
I18
sS"she's"
p588
I18
sS"'n"
p589
I18
sS'19:46:07.0,34.0459361,-118.1856347,5309.01,he'
p590
I18
sS'ago'
p591
I18
sS'practically'
p592
I18
sS'here,90063\n363831968204460033,ggerardo_,2013-08-04'
p593
I18
sS';),90063\n361382264275337218,ggerardo_,2013-07-28'
p594
I18
sS'01:44:47.0,34.0410531,-118.188684,5309.01,everytime'
p595
I18
sS'mass'
p596
I18
sS'time'
p597
I18
sS'serious'
p598
I18
sS'starting'
p599
I18
sS'hope'
p600
I18
s.