(dp0
S''
p1
I2
sS'pls,90063\n492557780897632258,wh0rehey_,2014-07-25'
p2
I41
sS'pido'
p3
I41
sS'sleep'
p4
I38
sS'hanging'
p5
I41
sS'hate'
p6
I37
sS'tweet'
p7
I41
sS'sorry'
p8
I40
sS'348'
p9
I41
sS'rise'
p10
I41
sS'every'
p11
I40
sS'poppa'
p12
I41
sS'school'
p13
I34
sS'bestfriend'
p14
I41
sS'07:38:37.0,34.0360297,-118.18384693,5311.02,y'
p15
I41
sS'eh-heh\xe2\x80\x9d'
p16
I41
sS'hora'
p17
I41
sS'rusty'
p18
I41
sS'street'
p19
I40
sS'cesarchavezav'
p20
I40
sS'friendships'
p21
I41
sS'cesar'
p22
I41
sS'even'
p23
I38
sS'lights'
p24
I41
sS'new'
p25
I37
sS'ever'
p26
I38
sS'told'
p27
I40
sS'never'
p28
I37
sS'here'
p29
I35
sS'\xe2\x9d\xa4\xef\xb8\x8f'
p30
I39
sS'dorm'
p31
I41
sS"aren't"
p32
I40
sS'kids'
p33
I40
sS'forum'
p34
I41
sS'k'
p35
I41
sS"i'd"
p36
I41
sS"i'm"
p37
I12
sS'eyebrows'
p38
I41
sS'lateeeee'
p39
I41
sS',90063\n496534049427443712,clarisayoo_,2014-08-05'
p40
I41
sS'tp'
p41
I41
sS'06:39:04.0,34.0348347,-118.1794506,5311.02,can'
p42
I41
sS'08:12:14.0,34.0349509,-118.1793045,5311.02,i'
p43
I41
sS'rancho'
p44
I41
sS'would'
p45
I35
sS'craving'
p46
I40
sS'call'
p47
I38
sS'passport'
p48
I41
sS'type'
p49
I40
sS'tell'
p50
I37
sS'1:45pm'
p51
I41
sS'cx,90063\n495093978103308288,wh0rehey_,2014-08-01'
p52
I41
sS'619-633-9937'
p53
I41
sS'haha'
p54
I41
sS'subtweet'
p55
I40
sS'it'
p56
I13
sS'phone'
p57
I40
sS'varsity'
p58
I41
sS'hold'
p59
I40
sS'me'
p60
I8
sS'word'
p61
I41
sS'palomar'
p62
I41
sS'work'
p63
I36
sS'mi'
p64
I41
sS'hizo'
p65
I41
sS'my'
p66
I7
sS'09:31:39.0,34.035143,-118.1791138,5311.02,but'
p67
I41
sS'give'
p68
I39
sS'homie'
p69
I40
sS'want'
p70
I29
sS'david'
p71
I41
sS'sitting'
p72
I41
sS'how'
p73
I34
sS'hot'
p74
I38
sS'traigo'
p75
I41
sS'answer'
p76
I41
sS'beach'
p77
I41
sS'horoscope'
p78
I41
sS'mess'
p79
I41
sS'after'
p80
I38
sS'04:26:50.0,34.03316642,-118.18385043,5311.02,whose'
p81
I41
sS'wrong'
p82
I39
sS'(:\xe2\x80\x9d'
p83
I41
sS'horchata'
p84
I41
sS'exciting!\xe2\x80\x9d'
p85
I41
sS'?smfh'
p86
I41
sS'order'
p87
I41
sS'greed'
p88
I41
sS'school)'
p89
I41
sS'wut'
p90
I41
sS'over'
p91
I37
sS'fam'
p92
I41
sS'neta'
p93
I40
sS'drink.\xe2\x98\x95\xef\xb8\x8f\xe2\x80\xa6'
p94
I41
sS'before'
p95
I38
sS'ima'
p96
I40
sS'venti'
p97
I41
sS'somewhere'
p98
I39
sS'better'
p99
I38
sS'weeks'
p100
I41
sS'then'
p101
I38
sS'them'
p102
I37
sS'3832'
p103
I41
sS'yells'
p104
I41
sS'workout'
p105
I41
sS'bang'
p106
I41
sS'they'
p107
I36
sS'one'
p108
I34
sS'explode'
p109
I41
sS'each'
p110
I41
sS'went'
p111
I40
sS'side'
p112
I41
sS'bitch'
p113
I41
sS'signing'
p114
I41
sS'gunna'
p115
I41
sS',90063\n494401311962431488,servechubbs,2014-07-30'
p116
I41
sS'respiraci\xc3\xb3n<3'
p117
I41
sS'rt'
p118
I39
sS'driving'
p119
I41
sS'god'
p120
I39
sS'washed'
p121
I41
sS'laid'
p122
I41
sS'ihop'
p123
I41
sS'smh'
p124
I39
sS'got'
p125
I32
sS'rn'
p126
I41
sS'childrenhow'
p127
I41
sS':(,90063\n495857716968316928,wh0rehey_,2014-08-03'
p128
I41
sS"you're"
p129
I32
sS'favd'
p130
I41
sS'free'
p131
I41
sS'wanted'
p132
I39
sS'ate'
p133
I41
sS'starts'
p134
I40
sS'days'
p135
I40
sS'loud'
p136
I41
sS'bite'
p137
I41
sS'fuckin'
p138
I40
sS'already'
p139
I40
sS'veggie'
p140
I41
sS'hood'
p141
I41
sS'service'
p142
I41
sS'girls'
p143
I39
sS"he'll"
p144
I40
sS'needed'
p145
I41
sS'dumbass'
p146
I41
sS'too'
p147
I37
sS'hustlin'
p148
I41
sS'dogs'
p149
I40
sS'listen'
p150
I41
sS'ceiling'
p151
I41
sS'gym'
p152
I41
sS'serve'
p153
I41
sS'took'
p154
I39
sS'anxiety'
p155
I41
sS'handcuffs'
p156
I41
sS'10x'
p157
I41
sS'shower'
p158
I41
sS'matter'
p159
I41
sS'feeling'
p160
I38
sS'minus'
p161
I41
sS'este'
p162
I41
sS'lulz'
p163
I40
sS'sees'
p164
I41
sS'ran'
p165
I41
sS'mind'
p166
I41
sS',90063\n495496425393119232,wh0rehey_,2014-08-02'
p167
I41
sS'talking'
p168
I39
sS'tosh.o>>>>>>ridiculousness'
p169
I41
sS'10:18:05.0,34.0349657,-118.1790862,5311.02,i'
p170
I41
sS'seem'
p171
I39
sS'mins'
p172
I41
sS'tells'
p173
I40
sS',90063\n511220029556523008,wh0rehey_,2014-09-14'
p174
I41
sS'-'
p175
I41
sS'08:20:12.0,34.0363037,-118.1815247,5311.02,*'
p176
I41
sS'blue'
p177
I41
sS'shall'
p178
I41
sS'camp'
p179
I41
sS'dog'
p180
I40
sS'boyfriends'
p181
I41
sS'came'
p182
I39
sS'saying'
p183
I40
sS'bomb'
p184
I40
sS'abouta'
p185
I41
sS'qubo'
p186
I40
sS'make'
p187
I40
sS'fizzio'
p188
I41
sS'busy'
p189
I41
sS'peasants'
p190
I41
sS'ayyyy'
p191
I41
sS'life\xe2\x80\x9d'
p192
I41
sS'hrs'
p193
I41
sS'sugar'
p194
I41
sS'announce'
p195
I41
sS'do'
p196
I34
sS'dm'
p197
I40
sS'uhhh'
p198
I41
sS'watch'
p199
I39
sS'coast'
p200
I41
sS'watermelon'
p201
I41
sS'twice'
p202
I41
sS'bad'
p203
I41
sS'bae'
p204
I40
sS'fomie'
p205
I41
sS'ruins'
p206
I41
sS'goodnight'
p207
I41
sS'fail'
p208
I41
sS'o_o'
p209
I41
sS'jabari'
p210
I40
sS'best'
p211
I37
sS'said'
p212
I39
sS'hambre'
p213
I41
sS"me?i'm"
p214
I41
sS'away'
p215
I37
sS'muy'
p216
I41
sS'bien'
p217
I41
sS"there's"
p218
I39
sS'penalties'
p219
I41
sS'hopefully'
p220
I40
sS'360'
p221
I41
sS'lamar'
p222
I41
sS'omg'
p223
I38
sS'weak'
p224
I41
sS'wi'
p225
I41
sS'boss'
p226
I41
sS'omw'
p227
I41
sS'wear'
p228
I40
sS'wtf'
p229
I39
sS'tfti'
p230
I41
sS'reported'
p231
I41
sS':),90063\n493595532435021825,wh0rehey_,2014-07-28'
p232
I41
sS'players'
p233
I41
sS'games'
p234
I41
sS"odalis'"
p235
I41
sS'uno'
p236
I41
sS'leave!,90063\n495076888885604352,wh0rehey_,2014-08-01'
p237
I41
sS'p.,90063\n490394930716475394,prettypinto,2014-07-19'
p238
I41
sS'karen'
p239
I41
sS'speak'
p240
I40
sS'been'
p241
I33
sS'much'
p242
I37
sS'puto'
p243
I41
sS'bishh'
p244
I41
sS'life'
p245
I40
sS'together\xe2\x80\x9d'
p246
I41
sS'servechubbs'
p247
I40
sS'catch'
p248
I41
sS'chili'
p249
I41
sS'remy'
p250
I41
sS'east'
p251
I38
sS'hot,90063\n492604486855032835,wh0rehey_,2014-07-25'
p252
I41
sS'mater'
p253
I41
sS'ugly'
p254
I39
sS'suppose'
p255
I41
sS'voice'
p256
I40
sS'launched'
p257
I41
sS'loooove'
p258
I41
sS'veronica'
p259
I41
sS'unos'
p260
I41
sS'played'
p261
I41
sS'is'
p262
I11
sS'ir'
p263
I41
sS'"i'
p264
I39
sS'shame'
p265
I40
sS'cant'
p266
I40
sS'im'
p267
I31
sS'in'
p268
I10
sS'if'
p269
I23
sS'thingy'
p270
I41
sS'realizing'
p271
I41
sS':(('
p272
I41
sS'hahaa'
p273
I41
sS'*silence*'
p274
I41
sS'hang'
p275
I41
sS'rain'
p276
I41
sS'hand'
p277
I41
sS'kik'
p278
I41
sS'lol\xe2\x80\x9d'
p279
I41
sS'jealous'
p280
I41
sS'aka'
p281
I41
sS'thoughts'
p282
I41
sS'kid'
p283
I41
sS'youre'
p284
I41
sS'tho'
p285
I41
sS'burgers'
p286
I41
sS'contact'
p287
I41
sS'the'
p288
I6
sS'cool('
p289
I41
sS',90063\n499377899086942208,ashleyyvette3,2014-08-13'
p290
I41
sS'opinions'
p291
I41
sS'just'
p292
I16
sS'yea'
p293
I41
sS'sleepy'
p294
I41
sS'seen'
p295
I38
sS'thanks'
p296
I41
sS'facts'
p297
I41
sS'yes'
p298
I40
sS'24/7'
p299
I41
sS'yet'
p300
I40
sS'had'
p301
I36
sS'(los'
p302
I37
sS'starbucks)'
p303
I40
sS'has'
p304
I40
sS'gave'
p305
I41
sS'appreciated'
p306
I41
sS'gustas'
p307
I41
sS'vin'
p308
I41
sS'banda'
p309
I41
sS'50'
p310
I41
sS'specific'
p311
I41
sS'7-eleven'
p312
I41
sS'right'
p313
I33
sS'old'
p314
I41
sS'people'
p315
I30
sS'crown'
p316
I40
sS'dead'
p317
I40
sS'bartista'
p318
I41
sS'escape'
p319
I41
sS'finna'
p320
I41
sS'for'
p321
I14
sS'/'
p322
I41
sS'everything'
p323
I39
sS'adorable'
p324
I41
sS'night'
p325
I40
sS'post'
p326
I41
sS'super'
p327
I40
sS'05:21:43.0,34.0348249,-118.1794517,5311.02,my'
p328
I41
sS'dollars'
p329
I40
sS'months'
p330
I41
sS'repellent'
p331
I41
sS'lomeli'
p332
I41
sS'selfie'
p333
I41
sS'ppl'
p334
I41
sS'down'
p335
I39
sS'lies'
p336
I41
sS'wussup'
p337
I41
sS'tennis'
p338
I41
sS'homo'
p339
I41
sS'editor'
p340
I41
sS'way'
p341
I36
sS'music'
p342
I41
sS'was'
p343
I26
sS'happy'
p344
I35
sS'head'
p345
I41
sS'northridge'
p346
I41
sS'hear'
p347
I41
sS'elderly'
p348
I41
sS'segundast'
p349
I41
sS'inside'
p350
I41
sS'emotional'
p351
I41
sS'proud'
p352
I40
sS'sticky'
p353
I41
sS'sometime'
p354
I41
sS'\xe2\x98\xba\xef\xb8\x8f,90063\n494405478449827842,servechubbs,2014-07-30'
p355
I41
sS'shit'
p356
I37
sS'physical'
p357
I41
sS'holla'
p358
I41
sS'no'
p359
I24
sS'when'
p360
I19
sS'reality'
p361
I41
sS'<<<<<<<'
p362
I41
sS'realize'
p363
I41
sS'scored'
p364
I41
sS'picture'
p365
I38
sS'piece?!?,90063\n495859571198808064,wh0rehey_,2014-08-03'
p366
I41
sS'phoenix'
p367
I41
sS'surprise'
p368
I41
sS'welcome'
p369
I41
sS"let's"
p370
I41
sS'fell'
p371
I39
sS'scores'
p372
I41
sS'pierced'
p373
I41
sS'22:54:55.0,34.0363892,-118.1814844,5311.02,no'
p374
I41
sS'died'
p375
I41
sS'dulce'
p376
I41
sS'longer'
p377
I41
sS'together'
p378
I41
sS'alert-'
p379
I41
sS'time'
p380
I35
sS'push'
p381
I41
sS'serious'
p382
I40
sS'stick'
p383
I41
sS'neighbors'
p384
I41
sS'coach'
p385
I39
sS':('
p386
I37
sS':)'
p387
I32
sS':*'
p388
I39
sS'dance'
p389
I39
sS'rob'
p390
I41
sS'ice'
p391
I40
sS',90063\n506665200758439936,jvogvng,2014-09-02'
p392
I41
sS'depend'
p393
I41
sS'(:,90063\n494034065431871488,servechubbs,2014-07-29'
p394
I41
sS'"chains"'
p395
I41
sS'finally'
p396
I38
sS'a-list'
p397
I41
sS'text'
p398
I37
sS':o'
p399
I40
sS'paychecks'
p400
I41
sS':d'
p401
I40
sS'tacos'
p402
I36
sS'vampire"'
p403
I41
sS':t'
p404
I41
sS'trouble'
p405
I41
sS'exact'
p406
I41
sS'cool'
p407
I37
sS'nectar'
p408
I41
sS'did'
p409
I40
sS'die'
p410
I39
sS'team'
p411
I40
sS'quick'
p412
I41
sS'guy'
p413
I38
sS'round'
p414
I41
sS'talked'
p415
I41
sS'regret'
p416
I40
sS'boca'
p417
I41
sS'ever:)'
p418
I41
sS'wondering'
p419
I41
sS'bang"'
p420
I41
sS'face,90063\n490394110621417472,prettypinto,2014-07-19'
p421
I41
sS'goes'
p422
I41
sS'reply'
p423
I40
sS'satisfy'
p424
I41
sS'jury'
p425
I41
sS'water'
p426
I41
sS'practice.i'
p427
I41
sS'address'
p428
I41
sS'alone'
p429
I41
sS'gorge'
p430
I41
sS'teacher'
p431
I41
sS'wait'
p432
I41
sS'boy'
p433
I37
sS'usually'
p434
I41
sS'weird'
p435
I40
sS'love'
p436
I32
sS'extra'
p437
I41
sS'myself"'
p438
I41
sS'prefer'
p439
I40
sS'tosh.o'
p440
I41
sS'1st'
p441
I40
sS'tuesday'
p442
I41
sS'market'
p443
I41
sS'06:22:33.0,34.0347814,-118.1794515,5311.02,does'
p444
I41
sS'ando'
p445
I41
sS'sore?!?!?,90063\n495094941786591232,wh0rehey_,2014-08-01'
p446
I41
sS'positive'
p447
I41
sS'pero'
p448
I38
sS'ca)'
p449
I37
sS'ayy'
p450
I41
sS'07:14:01.0,34.03395527,-118.18454809,5311.02,my'
p451
I41
sS'nigga"'
p452
I41
sS'today'
p453
I36
sS'clue'
p454
I41
sS'effort'
p455
I41
sS'douche'
p456
I41
sS'niggas'
p457
I41
sS'julius'
p458
I41
sS'car'
p459
I41
sS'pretend'
p460
I41
sS'soul'
p461
I41
sS'cat'
p462
I41
sS'can'
p463
I30
sS'making'
p464
I39
sS'arrive'
p465
I41
sS'heart'
p466
I40
sS'18:58:16.0,34.0349153,-118.1791738,5311.02,chains'
p467
I41
sS'figure'
p468
I41
sS"didn't"
p469
I36
sS'confused'
p470
I40
sS'heard'
p471
I41
sS'tinted'
p472
I41
sS'03:42:58.0,34.0349352,-118.179093,5311.02,hey'
p473
I41
sS'b.i.g'
p474
I40
sS'lorde'
p475
I41
sS'till'
p476
I39
sS'nye'
p477
I41
sS'snaps'
p478
I41
sS'spot'
p479
I41
sS'birthday'
p480
I39
sS'mad'
p481
I39
sS'such'
p482
I38
sS'guys'
p483
I41
sS'sunoldr'
p484
I41
sS'man'
p485
I41
sS'remember'
p486
I41
sS'obergon'
p487
I41
sS'maybe'
p488
I41
sS'corona'
p489
I41
sS'q'
p490
I41
sS'si'
p491
I41
sS'so'
p492
I18
sS'talk'
p493
I38
sS'sd'
p494
I41
sS'cute'
p495
I38
sS'09:46:59.0,34.03610398,-118.18155032,5311.02,*my,90063\n520148043568410624,servechubbs,2014-10-09'
p496
I41
sS'brain'
p497
I41
sS'hacia'
p498
I41
sS'kanye'
p499
I40
sS'still'
p500
I30
sS'rooftop'
p501
I41
sS'thank'
p502
I41
sS'amazing'
p503
I41
sS'them,90063\n495518937275432960,wh0rehey_,2014-08-02'
p504
I41
sS'lunch'
p505
I41
sS'half'
p506
I41
sS'not'
p507
I35
sS'now'
p508
I35
sS'bullshit'
p509
I38
sS'pasastes'
p510
I41
sS'name'
p511
I40
sS"ex's"
p512
I41
sS'jalisco'
p513
I41
sS'rock'
p514
I40
sS'el'
p515
I41
sS'en'
p516
I40
sS'yeah'
p517
I40
sS'year'
p518
I41
sS'girl'
p519
I39
sS'cumberbatch'
p520
I41
sS'es'
p521
I41
sS'tried'
p522
I41
sS'album'
p523
I41
sS'opened'
p524
I41
sS'3rd'
p525
I41
sS'-grandma'
p526
I41
sS'frlmfaooo'
p527
I41
sS'seriously'
p528
I39
sS"shouldn't"
p529
I41
sS'mealways'
p530
I41
sS'boobs'
p531
I41
sS'besides'
p532
I41
sS'training'
p533
I41
sS'51-'
p534
I41
sS'bruh.,90063\n495095740025552896,wh0rehey_,2014-08-01'
p535
I41
sS'100%'
p536
I41
sS'punk'
p537
I41
sS'thing'
p538
I37
sS'place'
p539
I41
sS'yess'
p540
I41
sS'think'
p541
I32
sS'first'
p542
I38
sS'cheese'
p543
I40
sS'bae,90063\n492559640685576192,wh0rehey_,2014-07-25'
p544
I41
sS'zac'
p545
I41
sS'xd'
p546
I38
sS'yourself'
p547
I41
sS'fast'
p548
I41
sS'spanish'
p549
I40
sS'odalis'
p550
I41
sS'message'
p551
I40
sS'open'
p552
I38
sS'tomorrow'
p553
I38
sS'little'
p554
I36
sS'caught'
p555
I40
sS'anyone'
p556
I38
sS'fml'
p557
I41
sS'2'
p558
I40
sS'draft'
p559
I41
sS'chivas:)'
p560
I41
sS'white'
p561
I40
sS'friend'
p562
I37
sS'"carol'
p563
I41
sS'eyes'
p564
I41
sS'that'
p565
I23
sS'randle'
p566
I41
sS'boba'
p567
I41
sS'butt'
p568
I41
sS'thai'
p569
I41
sS'than'
p570
I39
sS'10'
p571
I41
sS'15'
p572
I41
sS'lmao'
p573
I27
sS'xd,90063\n493939427383582722,servechubbs,2014-07-29'
p574
I41
sS'gotta'
p575
I41
sS':(:,90063\n492569880227356672,wh0rehey_,2014-07-25'
p576
I41
sS'r'
p577
I40
sS'were'
p578
I41
sS'and'
p579
I9
sS'lick'
p580
I41
sS'sad'
p581
I38
sS'say'
p582
I38
sS'breakfast'
p583
I40
sS'saw'
p584
I40
sS'any'
p585
I41
sS'10:38:15.0,34.0348438,-118.1791312,5311.02,oops'
p586
I41
sS'take'
p587
I37
sS'blunt'
p588
I41
sS'channel'
p589
I41
sS'sure'
p590
I41
sS'knew'
p591
I39
sS'america'
p592
I39
sS'especially'
p593
I41
sS'later'
p594
I41
sS'drive'
p595
I40
sS'emputado'
p596
I41
sS'shop'
p597
I40
sS'walking'
p598
I40
sS'shot'
p599
I40
sS'show'
p600
I39
sS'02:12:23.0,34.03353247,-118.18382875,5311.02,not'
p601
I41
sS'estoy'
p602
I41
sS'bruh,90063\n493832830669946880,wh0rehey_,2014-07-28'
p603
I41
sS'hace'
p604
I41
sS'flaco'
p605
I41
sS',90063\n492876770865987584,wh0rehey_,2014-07-26'
p606
I41
sS'dick'
p607
I39
sS'tomorrow:)'
p608
I41
sS'enough'
p609
I41
sS',90063\n496120245908566016,jvogvng,2014-08-04'
p610
I41
sS'only'
p611
I34
sS'going'
p612
I33
sS'black'
p613
I41
sS'get'
p614
I21
sS'mission'
p615
I41
sS'tbh,90063\n493307861988945920,wh0rehey_,2014-07-27'
p616
I41
sS'hey:-)'
p617
I41
sS'already,90063\n494402874353266688,servechubbs,2014-07-30'
p618
I41
sS'borrow'
p619
I41
sS'morning'
p620
I39
sS'!,90063\n494404487981707264,servechubbs,2014-07-30'
p621
I41
sS'stupid'
p622
I40
sS'tent'
p623
I41
sS'where'
p624
I40
sS'worrying'
p625
I40
sS'"hot'
p626
I41
sS'concert'
p627
I41
sS'18:28:47.0,34.0349423,-118.17916688,5311.02,fave'
p628
I41
sS'bye"'
p629
I41
sS'asleep'
p630
I41
sS'anyways'
p631
I41
sS'ur'
p632
I41
sS'wonder'
p633
I41
sS'smhx10'
p634
I41
sS'camping'
p635
I41
sS'federal'
p636
I41
sS'gage'
p637
I41
sS'3'
p638
I41
sS'screen'
p639
I41
sS':),90063\n493853050239348738,wh0rehey_,2014-07-28'
p640
I41
sS'comi'
p641
I41
sS'07:12:37.0,34.03588301,-118.18173096,5311.02,oh'
p642
I41
sS'como'
p643
I41
sS'jk'
p644
I40
sS'coma'
p645
I41
sS'advised"'
p646
I41
sS'come'
p647
I35
sS'd;,90063\n494409124302442498,wh0rehey_,2014-07-30'
p648
I41
sS'03:56:54.0,34.03322757,-118.18383065,5311.02,does'
p649
I41
sS'comes'
p650
I41
sS'comer'
p651
I41
sS'duty'
p652
I41
sS'60'
p653
I41
sS'hard2find'
p654
I41
sS'07:05:41.0,34.03351084,-118.18450496,5311.02,hehehe'
p655
I41
sS'west'
p656
I40
sS'crawford'
p657
I41
sS'wants'
p658
I37
sS'shopping'
p659
I40
sS'2cool2turn'
p660
I41
sS'wake'
p661
I41
sS'3:16'
p662
I41
sS'those'
p663
I41
sS'\xe2\x80\x9cdo'
p664
I41
sS'myself'
p665
I41
sS'developing'
p666
I41
sS'these'
p667
I39
sS'goodmorning'
p668
I41
sS'cass'
p669
I41
sS'<3,90063\n493310746176933889,wh0rehey_,2014-07-27'
p670
I41
sS'purse'
p671
I41
sS'coffee'
p672
I40
sS'sleeping'
p673
I41
sS'middle'
p674
I37
sS'someone'
p675
I35
sS'happyyet'
p676
I41
sS'everyday'
p677
I40
sS'worry'
p678
I41
sS'bowl'
p679
I41
sS'awake,90063\n495513862767378433,wh0rehey_,2014-08-02'
p680
I41
sS'same'
p681
I37
sS'ya'
p682
I38
sS'poetic'
p683
I41
sS'followers'
p684
I41
sS'emojis'
p685
I41
sS'pan'
p686
I41
sS'week'
p687
I40
sS'3914'
p688
I41
sS'persong'
p689
I41
sS'see'
p690
I34
sS'11-12pm'
p691
I41
sS'running'
p692
I41
sS'totally'
p693
I41
sS'18:52:48.0,34.0347717,-118.1794287,5311.02,throwback'
p694
I41
sS'tracking'
p695
I34
sS'floor'
p696
I40
sS'festival,90063\n479691164199575552,samanthareee,2014-06-19'
p697
I41
sS'without'
p698
I40
sS"can't"
p699
I33
sS'grumpy'
p700
I41
sS'summer'
p701
I40
sS'(x'
p702
I40
sS'212'
p703
I41
sS'\xe2\x98\xba\xef\xb8\x8f'
p704
I40
sS'being'
p705
I38
sS'fatties'
p706
I41
sS'rest'
p707
I41
sS'touch'
p708
I41
sS'thinking'
p709
I41
sS'4'
p710
I38
sS'flashing'
p711
I41
sS'pill'
p712
I41
sS'real'
p713
I40
sS'around'
p714
I39
sS'read'
p715
I40
sS'2014-2015'
p716
I41
sS'gonna'
p717
I34
sS'mom'
p718
I36
sS'using'
p719
I41
sS'lady'
p720
I41
sS"('"
p721
I41
sS'oreos>>>>>>>>>>chips'
p722
I41
sS'pounds'
p723
I41
sS'homegirl'
p724
I41
sS'joking'
p725
I41
sS'apartments'
p726
I41
sS'playin'
p727
I41
sS'wiggins'
p728
I41
sS'mood'
p729
I39
sS'nooo'
p730
I41
sS'asap'
p731
I41
sS'lmfao'
p732
I40
sS'oloy'
p733
I41
sS';/'
p734
I41
sS'on'
p735
I15
sS'this....wut'
p736
I41
sS'ok'
p737
I40
sS'oh'
p738
I39
sS'of'
p739
I20
sS'favorite'
p740
I41
sS'wolf'
p741
I41
sS'left,90063\n511380964472541184,vanessa_darlinn,2014-09-15'
p742
I41
sS'act'
p743
I41
sS'bond'
p744
I41
sS'or'
p745
I34
sS'ladies'
p746
I41
sS'07:17:17.0,34.0335395,-118.18457676,5311.02,caca'
p747
I41
sS'22:57:19.0,34.0350588,-118.1791646,5311.02,fav'
p748
I41
sS'snapchat'
p749
I37
sS'wade'
p750
I41
sS'your'
p751
I27
sS'her'
p752
I34
sS'there'
p753
I38
sS'lol'
p754
I17
sS'los'
p755
I39
sS'missy'
p756
I41
sS'lot'
p757
I39
sS'energy'
p758
I41
sS'lmaooo'
p759
I41
sS'trying'
p760
I41
sS'with'
p761
I22
sS"rt'd"
p762
I41
sS'monopoly'
p763
I41
sS"wasn't"
p764
I40
sS'af'
p765
I41
sS'am'
p766
I40
sS'lb,90063\n495093536761847808,wh0rehey_,2014-08-01'
p767
I41
sS'an'
p768
I39
sS'ap'
p769
I41
sS'as'
p770
I40
sS'at'
p771
I20
sS'w/lemonade'
p772
I41
sS'you'
p773
I4
sS'poor'
p774
I41
sS'obsessed'
p775
I41
sS'lmao,90063\n493986517212471296,servechubbs,2014-07-29'
p776
I41
sS'grupo'
p777
I41
sS'sneeze'
p778
I41
sS'slang'
p779
I41
sS'lipstick'
p780
I41
sS'u'
p781
I34
sS'all'
p782
I27
sS'hhdhfjgkfjdja'
p783
I41
sS':/'
p784
I39
sS'follow'
p785
I41
sS'ty'
p786
I41
sS'tu'
p787
I40
sS'thursday'
p788
I41
sS'to'
p789
I3
sS'tl'
p790
I41
sS'program'
p791
I41
sS'te'
p792
I39
sS'song'
p793
I39
sS'fav'
p794
I41
sS'fat'
p795
I41
sS'selfies'
p796
I40
sS'tatted'
p797
I41
sS'fall'
p798
I41
sS'frankenstein'
p799
I41
sS'treating'
p800
I41
sS'laying'
p801
I41
sS"i'll"
p802
I39
sS'instagram'
p803
I41
sS'tea'
p804
I40
sS'chocking'
p805
I41
sS'verga,90063\n493939659144048642,servechubbs,2014-07-29'
p806
I41
sS'sivan'
p807
I41
sS'rato'
p808
I41
sS'nba'
p809
I41
sS'what'
p810
I32
sS'run'
p811
I41
sS'tribute'
p812
I41
sS'public'
p813
I39
sS'vamos'
p814
I41
sS'good?,90063\n495095185807015936,wh0rehey_,2014-08-01'
p815
I41
sS'loose'
p816
I41
sS'hours'
p817
I40
sS'jonas'
p818
I41
sS'strong'
p819
I41
sS'creepy'
p820
I41
sS'pick'
p821
I41
sS'smoke?\xe2\x80\x9d'
p822
I41
sS'family'
p823
I41
sS'escuchar'
p824
I41
sS'texts'
p825
I41
sS'eye'
p826
I41
sS'takes'
p827
I40
sS'two'
p828
I40
sS'6'
p829
I41
sS'more'
p830
I41
sS'tryna'
p831
I40
sS'knows'
p832
I41
sS'm80'
p833
I41
sS"ain't"
p834
I41
sS'excusa'
p835
I41
sS'broke'
p836
I39
sS'hour'
p837
I40
sS'science'
p838
I41
sS'sucks'
p839
I41
sS'dei'
p840
I41
sS'learn'
p841
I41
sS'dec'
p842
I41
sS'nino'
p843
I41
sS'beautiful'
p844
I36
sS'uploaded'
p845
I41
sS'rodriguez'
p846
I41
sS'share'
p847
I41
sS'8:45am'
p848
I41
sS'borrachar'
p849
I41
sS'needs'
p850
I41
sS'mothafucking'
p851
I41
sS'awkward'
p852
I41
sS'rather'
p853
I40
sS'hugo'
p854
I41
sS'fr'
p855
I41
sS'sandwich'
p856
I41
sS'okay'
p857
I41
sS'plans'
p858
I41
sS'rude'
p859
I41
sS'tries'
p860
I41
sS'blood'
p861
I41
sS'coming'
p862
I41
sS'a'
p863
I5
sS'anytime'
p864
I41
sS')'
p865
I39
sS'02:27:38.0,34.0333594,-118.182139,5311.02,i'
p866
I41
sS"that's"
p867
I41
sS'help'
p868
I37
sS"don't"
p869
I24
sS'soon'
p870
I40
sS'through'
p871
I41
sS'hell'
p872
I39
sS'mcdonalds'
p873
I40
sS'its'
p874
I39
sS'dont'
p875
I35
sS'bummed'
p876
I41
sS'style'
p877
I41
sS'20'
p878
I41
sS'22'
p879
I41
sS':p'
p880
I41
sS'scully'
p881
I41
sS'actually'
p882
I41
sS'late'
p883
I39
sS'pad'
p884
I41
sS'cutie'
p885
I41
sS'might'
p886
I41
sS"haven't"
p887
I39
sS'good'
p888
I32
sS'fooh'
p889
I41
sS'yo'
p890
I41
sS'food'
p891
I41
sS'not,90063\n493307562763120641,wh0rehey_,2014-07-27'
p892
I41
sS'work\xe2\x98\xba\xef\xb8\x8f'
p893
I41
sS'starbucks'
p894
I31
sS':(,90063\n495090191309479936,wh0rehey_,2014-08-01'
p895
I41
sS'grubbin'
p896
I41
sS'always'
p897
I37
sS'bless'
p898
I41
sS'turns'
p899
I41
sS'repeating'
p900
I41
sS'friendship'
p901
I40
sS'everyone'
p902
I39
sS'generation'
p903
I41
sS'house'
p904
I39
sS'tody'
p905
I41
sS'hard'
p906
I41
sS'idea'
p907
I40
sS'5-12:30am'
p908
I41
sS'really'
p909
I29
sS'flower'
p910
I41
sS'missed'
p911
I41
sS'walked'
p912
I40
sS'acting'
p913
I41
sS'perro'
p914
I41
sS'perra'
p915
I41
sS'humble'
p916
I41
sS'ass'
p917
I34
sS'pathetic'
p918
I40
sS'dirt'
p919
I41
sS'motherfucker'
p920
I41
sS'disneyland'
p921
I41
sS'imagine'
p922
I41
sS'put'
p923
I40
sS'beginning'
p924
I41
sS'benefits'
p925
I41
sS'021-'
p926
I41
sS'a$ap'
p927
I41
sS'humboldt'
p928
I41
sS'feel'
p929
I40
sS'08:23:41.0,34.0348187,-118.1794599,5311.02,it'
p930
I41
sS'sisters'
p931
I41
sS'done'
p932
I40
sS'09:08:15.0,34.0347839,-118.179427,5311.02,im'
p933
I41
sS'miss'
p934
I35
sS'story'
p935
I41
sS'-notorious'
p936
I40
sS'benedict'
p937
I41
sS"wolf's>>>"
p938
I41
sS'least'
p939
I40
sS'wonderful'
p940
I41
sS'statement'
p941
I41
sS'aver'
p942
I41
sS'master'
p943
I41
sS'scary'
p944
I41
sS'store'
p945
I41
sS'muscles'
p946
I41
sS'relationship'
p947
I40
sS'michiganav'
p948
I41
sS'park'
p949
I41
sS'believe'
p950
I39
sS'$2'
p951
I41
sS'king'
p952
I41
sS'grew'
p953
I41
sS'gotten'
p954
I41
sS'wasnt'
p955
I41
sS'efronfav'
p956
I41
sS'graffiti'
p957
I34
sS'sell'
p958
I41
sS'6:41am'
p959
I41
sS'nights'
p960
I41
sS'para'
p961
I41
sS'flaming'
p962
I41
sS'also'
p963
I40
sS'caesar'
p964
I41
sS'lip'
p965
I41
sS'05:08:00.0,34.0363607,-118.1815143,5311.02,ya'
p966
I41
sS'cavs'
p967
I38
sS'play'
p968
I40
sS'quote'
p969
I41
sS'most'
p970
I40
sS'seasons'
p971
I41
sS'extremely'
p972
I41
sS'kb'
p973
I41
sS'windows'
p974
I41
sS'clear'
p975
I41
sS'sometimes'
p976
I39
sS'joining'
p977
I41
sS'ugh'
p978
I41
sS'rts'
p979
I41
sS'fine'
p980
I38
sS'find'
p981
I40
sS'gradma'
p982
I41
sS'scooter'
p983
I40
sS'pretty'
p984
I40
sS"mom's"
p985
I41
sS'his'
p986
I38
sS'hit'
p987
I38
sS'feels'
p988
I41
sS'longest'
p989
I41
sS'during'
p990
I41
sS'him'
p991
I37
sS'fluff'
p992
I41
sS'tanked'
p993
I41
sS'guy,90063\n493986275322384384,servechubbs,2014-07-29'
p994
I41
sS'set'
p995
I41
sS'art'
p996
I41
sS'kylie'
p997
I41
sS'awhhhh'
p998
I41
sS'dumb'
p999
I41
sS'are'
p1000
I35
sS'sea'
p1001
I41
sS'close'
p1002
I41
sS'mrs.faulhammer'
p1003
I41
sS'it?,90063\n511329848808448000,wh0rehey_,2014-09-15'
p1004
I41
sS'retweet'
p1005
I40
sS'muted'
p1006
I41
sS'movie'
p1007
I41
sS'wow'
p1008
I41
sS'currently'
p1009
I41
sS'please'
p1010
I39
sS'probably'
p1011
I40
sS'jasmin'
p1012
I41
sS'rita'
p1013
I41
sS'knowing'
p1014
I41
sS'ikr'
p1015
I41
sS'ahoy'
p1016
I41
sS'marilyn'
p1017
I41
sS'league'
p1018
I41
sS'c'
p1019
I36
sS'last'
p1020
I41
sS'thoo'
p1021
I41
sS'alot'
p1022
I41
sS'boxers'
p1023
I41
sS',90063\n493860285619261441,wh0rehey_,2014-07-28'
p1024
I41
sS'instante'
p1025
I41
sS'point'
p1026
I40
sS'celeste'
p1027
I41
sS'recycling'
p1028
I41
sS'rofl'
p1029
I41
sS'bitch"'
p1030
I41
sS'likes'
p1031
I41
sS'patiently'
p1032
I41
sS'-kendrick'
p1033
I41
sS'dun'
p1034
I41
sS'\xe2\x98\x95'
p1035
I41
sS'aunque'
p1036
I41
sS"melanie's"
p1037
I41
sS'damn'
p1038
I38
sS'meeting'
p1039
I40
sS'gas'
p1040
I41
sS'444-'
p1041
I41
sS'else'
p1042
I40
sS'lives'
p1043
I41
sS'look'
p1044
I40
sS'straight'
p1045
I41
sS'bill'
p1046
I41
sS'while'
p1047
I40
sS'homework'
p1048
I41
sS'fun'
p1049
I41
sS'<3'
p1050
I35
sS'xtra'
p1051
I41
sS'ready'
p1052
I40
sS'rid'
p1053
I41
sS'voy'
p1054
I41
sS'chase'
p1055
I41
sS'funny'
p1056
I38
sS'troye'
p1057
I41
sS'shirt'
p1058
I41
sS'anymore'
p1059
I41
sS'punking'
p1060
I41
sS'17:33:31.0,34.0348101,-118.1794534,5311.02,mcm'
p1061
I41
sS"be?mommy's"
p1062
I41
sS'moment'
p1063
I41
sS'moving'
p1064
I41
sS':(,90063\n494408073012731904,wh0rehey_,2014-07-30'
p1065
I41
sS'person'
p1066
I40
sS'flags'
p1067
I41
sS'y'
p1068
I41
sS'jbl'
p1069
I41
sS'listening'
p1070
I40
sS'db'
p1071
I41
sS'world'
p1072
I41
sS'praying'
p1073
I41
sS'letting'
p1074
I41
sS'9:25am'
p1075
I41
sS'$'
p1076
I41
sS'cup'
p1077
I41
sS'cuz'
p1078
I41
sS'crying'
p1079
I41
sS'excited'
p1080
I41
sS'big'
p1081
I40
sS'game'
p1082
I38
sS'nose.,90063\n495105268406312960,wh0rehey_,2014-08-01'
p1083
I41
sS'*nsync'
p1084
I41
sS'inviting'
p1085
I41
sS'wingstop'
p1086
I41
sS'ivan'
p1087
I41
sS'fucking'
p1088
I39
sS'fake'
p1089
I41
sS'some'
p1090
I36
sS'back'
p1091
I36
sS':/,90063\n495511753338662912,wh0rehey_,2014-08-02'
p1092
I41
sS"trippin'"
p1093
I41
sS'pet'
p1094
I41
sS'though'
p1095
I38
sS'09:11:49.0,34.0348476,-118.1793904,5311.02,i'
p1096
I41
sS'be'
p1097
I23
sS'eating'
p1098
I41
sS'bc'
p1099
I37
sS's/o'
p1100
I41
sS'nuevo'
p1101
I41
sS'santa'
p1102
I41
sS'*was'
p1103
I41
sS'by'
p1104
I39
sS'netflix'
p1105
I41
sS'marilynn:)'
p1106
I41
sS'ariel'
p1107
I41
sS'idk'
p1108
I38
sS'wanna'
p1109
I34
sS',90063\n494403422343270400,servechubbs,2014-07-30'
p1110
I41
sS'visit'
p1111
I41
sS'into'
p1112
I40
sS'because'
p1113
I35
sS'smells'
p1114
I41
sS'.-'
p1115
I41
sS'pretty!,90063\n495139788711026688,wh0rehey_,2014-08-01'
p1116
I41
sS'question'
p1117
I41
sS'live'
p1118
I40
sS'long'
p1119
I40
sS'awks'
p1120
I41
sS'addicting'
p1121
I40
sS"we're"
p1122
I40
sS'bruh'
p1123
I38
sS'bored'
p1124
I40
sS'opens'
p1125
I41
sS'invite'
p1126
I41
sS'wooooooooooooooooooiioii'
p1127
I41
sS'\xe2\x99\xa5'
p1128
I41
sS'posted'
p1129
I41
sS'fries'
p1130
I40
sS'up'
p1131
I36
sS'us'
p1132
I40
sS'shawn,90063\n493602487169843200,wh0rehey_,2014-07-28'
p1133
I41
sS'un'
p1134
I41
sS'single'
p1135
I40
sS'yearbook'
p1136
I41
sS'nick'
p1137
I41
sS'nap'
p1138
I40
sS'nice'
p1139
I41
sS'llamando'
p1140
I41
sS'develops'
p1141
I41
sS'ago'
p1142
I40
sS'furthest'
p1143
I41
sS'remix'
p1144
I41
sS'e'
p1145
I41
sS'gr8'
p1146
I41
sS'amused'
p1147
I41
sS'2000'
p1148
I41
sS'hella'
p1149
I41
sS'hallways'
p1150
I41
sS"she's"
p1151
I41
sS'having'
p1152
I41
sS'4am'
p1153
I41
sS'go'
p1154
I27
sS'gn'
p1155
I41
sS'kate'
p1156
I41
sS'issues'
p1157
I40
sS'send'
p1158
I40
sS'bruhh'
p1159
I41
sS',90063\n495103053146517504,prettypinto,2014-08-01'
p1160
I41
sS'discretion'
p1161
I41
sS'ridiculousness'
p1162
I41
sS'sent'
p1163
I39
sS'11:30'
p1164
I41
sS'center)'
p1165
I41
sS'agua'
p1166
I41
sS'first.,90063\n495139747862695936,wh0rehey_,2014-08-01'
p1167
I41
sS'meant'
p1168
I41
sS'miras'
p1169
I41
sS'try'
p1170
I39
sS'congrats'
p1171
I41
sS'ride'
p1172
I41
sS'bruh"'
p1173
I41
sS'booty'
p1174
I41
sS'05:08:17.0,34.03401183,-118.17988559,5311.02,,90063\n486372280847831040,itoantrax,2014-07-08'
p1175
I41
sS'09:45:32.0,34.03610392,-118.1815174,5311.02,almost'
p1176
I41
sS'download'
p1177
I40
sS'vampire'
p1178
I41
sS'waiting'
p1179
I36
sS'body'
p1180
I39
sS'let'
p1181
I40
sS'others'
p1182
I40
sS'bestfriend"'
p1183
I41
sS'justice'
p1184
I41
sS'makes'
p1185
I41
sS'explain'
p1186
I41
sS'win'
p1187
I41
sS'20:47:22.0,34.0348749,-118.1793575,5311.02,all'
p1188
I41
sS'use'
p1189
I41
sS'from'
p1190
I39
sS'clocking'
p1191
I41
sS'&'
p1192
I30
sS'next'
p1193
I41
sS'few'
p1194
I41
sS'babe'
p1195
I41
sS'started'
p1196
I40
sS'hard"'
p1197
I41
sS'sister'
p1198
I41
sS'fuck'
p1199
I31
sS'!\xe2\x80\x9d'
p1200
I41
sS'sore'
p1201
I41
sS'baby'
p1202
I41
sS'gladly'
p1203
I41
sS'unfaithful'
p1204
I41
sS'us"'
p1205
I41
sS'this'
p1206
I17
sS'challenge'
p1207
I41
sS'3962'
p1208
I41
sS'meet'
p1209
I41
sS'something'
p1210
I39
sS'blvd'
p1211
I40
sS'boner'
p1212
I41
sS'six'
p1213
I41
sS'hormones'
p1214
I41
sS'gallo'
p1215
I41
sS',90063\n494615887903600641,servechubbs,2014-07-30'
p1216
I41
sS'de'
p1217
I40
sS'falta'
p1218
I41
sS'stop'
p1219
I37
sS'fart'
p1220
I41
sS'wrist'
p1221
I41
sS'taco'
p1222
I39
sS'hahahaha'
p1223
I41
sS'*gretchen'
p1224
I41
sS'chief'
p1225
I41
sS'honestly'
p1226
I40
sS'move'
p1227
I40
sS'looks'
p1228
I40
sS'glen'
p1229
I41
sS'la'
p1230
I35
sS'me?"'
p1231
I41
sS'[pic]'
p1232
I41
sS"slippin'"
p1233
I41
sS'turban'
p1234
I41
sS'2014'
p1235
I41
sS'pending'
p1236
I41
sS'dad'
p1237
I41
sS'designs'
p1238
I41
sS'nada'
p1239
I41
sS'practice'
p1240
I40
sS'dat'
p1241
I41
sS'kiss'
p1242
I41
sS'hands'
p1243
I41
sS'front'
p1244
I41
sS'day'
p1245
I36
sS',90063\n494034642253512704,servechubbs,2014-07-29'
p1246
I41
sS'sneezed'
p1247
I41
sS'mami666-'
p1248
I41
sS'weather'
p1249
I41
sS'09:04:04.0,34.0347839,-118.179427,5311.02,i'
p1250
I41
sS'carol"'
p1251
I41
sS'|'
p1252
I41
sS'doing'
p1253
I39
sS'met'
p1254
I41
sS'unbelievable'
p1255
I41
sS':d<3'
p1256
I41
sS'poor,90063\n495090483618914305,wh0rehey_,2014-08-01'
p1257
I41
sS'our'
p1258
I34
sS'out'
p1259
I30
sS'grita'
p1260
I41
sS'ricks'
p1261
I41
sS'rep'
p1262
I41
sS'cause'
p1263
I39
sS'bww'
p1264
I41
sS'attending'
p1265
I41
sS'que'
p1266
I40
sS',90063\n490393758836334592,prettypinto,2014-07-19'
p1267
I41
sS'58-'
p1268
I41
sS'princess'
p1269
I41
sS'chilli'
p1270
I41
sS'firstst'
p1271
I41
sS'could'
p1272
I39
sS'ask'
p1273
I41
sS'keep'
p1274
I40
sS'4th'
p1275
I41
sS'07:19:45.0,34.0348247,-118.1794589,5311.02,nobody'
p1276
I41
sS'frap'
p1277
I41
sS'powerful'
p1278
I41
sS'embarrassed'
p1279
I41
sS'45-'
p1280
I41
sS'lagging'
p1281
I41
sS"doesn't"
p1282
I40
sS'playlist'
p1283
I41
sS"dreamdon't"
p1284
I41
sS'fuckers'
p1285
I41
sS'their'
p1286
I41
sS'jingle'
p1287
I41
sS'lol,90063\n520148409009729536,servechubbs,2014-10-09'
p1288
I41
sS'beard'
p1289
I41
sS'headbands'
p1290
I41
sS'stomach'
p1291
I41
sS"that'll"
p1292
I41
sS'shescreamschubbs'
p1293
I41
sS'mayweather'
p1294
I41
sS"kanye's"
p1295
I41
sS'bed'
p1296
I41
sS'loves'
p1297
I41
sS'6th'
p1298
I41
sS'tonight'
p1299
I38
sS'have'
p1300
I25
sS'need'
p1301
I34
sS'babee'
p1302
I41
sS'min'
p1303
I41
sS'4003'
p1304
I41
sS'able'
p1305
I41
sS'arm'
p1306
I41
sS'jersey'
p1307
I41
sS'truck'
p1308
I40
sS'22:49:51.0,34.0363493,-118.181523,5311.02,she'
p1309
I41
sS'^^'
p1310
I41
sS'who'
p1311
I35
sS'jorge'
p1312
I40
sS'-kanye'
p1313
I41
sS'perdona'
p1314
I41
sS'nevaaaaas'
p1315
I40
sS'"tweeter'
p1316
I41
sS'why'
p1317
I33
sS'deny'
p1318
I41
sS'game/'
p1319
I41
sS"you'll"
p1320
I40
sS'se'
p1321
I41
sS'skinny'
p1322
I41
sS'normally'
p1323
I41
sS'fact'
p1324
I41
sS'parker'
p1325
I39
sS'09:37:16.0,34.0348088,-118.1794293,5311.02,mood'
p1326
I41
sS'd00d'
p1327
I41
sS'lmaoo'
p1328
I41
sS':),90063\n495838157473329152,wh0rehey_,2014-08-03'
p1329
I41
sS'bring'
p1330
I40
sS'chicken'
p1331
I40
sS'earned'
p1332
I41
sS'('
p1333
I36
sS'kindasorta,90063\n495092201178009600,wh0rehey_,2014-08-01'
p1334
I41
sS'should'
p1335
I38
sS"18:24:20.0,34.03221197,-118.18377977,5311.02,i've"
p1336
I41
sS'7/11!,90063\n494748953724715010,prettypinto,2014-07-31'
p1337
I41
sS'regularly'
p1338
I41
sS'lmao"'
p1339
I41
sS'beat'
p1340
I41
sS'coworker'
p1341
I41
sS'bear'
p1342
I41
sS'likely'
p1343
I41
sS'tbh'
p1344
I38
sS'chips'
p1345
I40
sS'endless'
p1346
I41
sS'course'
p1347
I41
sS'calling'
p1348
I40
sS'stuff'
p1349
I41
sS'she'
p1350
I38
sS'grab'
p1351
I41
sS'fixed'
p1352
I41
sS'dnndsncfndm'
p1353
I41
sS'we'
p1354
I28
sS'packed'
p1355
I41
sS'blunts'
p1356
I41
sS'state'
p1357
I41
sS'horrible'
p1358
I41
sS'flickr'
p1359
I41
sS'amazeballs'
p1360
I41
sS'pants'
p1361
I41
sS'perfect'
p1362
I41
sS'ends'
p1363
I41
sS'trynna'
p1364
I41
sS'job'
p1365
I39
sS'limits'
p1366
I41
sS'joke'
p1367
I40
sS'taking'
p1368
I40
sS'antisocial'
p1369
I41
sS'bosh'
p1370
I41
sS'mames,90063\n493892046189387777,servechubbs,2014-07-28'
p1371
I41
sS'07:07:29.0,34.03351664,-118.1845088,5311.02,yaaas'
p1372
I41
sS'extent'
p1373
I41
sS'ca'
p1374
I41
sS'cx'
p1375
I40
sS'laugh'
p1376
I41
sS'respect'
p1377
I41
sS'quit'
p1378
I41
sS"it's"
p1379
I30
sS'yas'
p1380
I41
sS'killed'
p1381
I41
sS'both'
p1382
I39
sS'moved'
p1383
I41
sS're-up'
p1384
I41
sS'kisser'
p1385
I41
sS'belvedere'
p1386
I38
sS'-.-'
p1387
I41
sS'chivas'
p1388
I39
sS'volunteer'
p1389
I41
sS'will'
p1390
I37
sS'dude'
p1391
I41
sS'wild'
p1392
I41
sS'almost'
p1393
I41
sS'surprisingly'
p1394
I41
sS'bucks'
p1395
I41
sS'bicken'
p1396
I41
sS'jenner'
p1397
I41
sS'-___-'
p1398
I41
sS'una'
p1399
I41
sS',90063\n397210820540522496,joey_ducks22,2013-11-04'
p1400
I41
sS'party'
p1401
I39
sS'gets'
p1402
I41
sS'ball'
p1403
I41
sS'drink'
p1404
I40
sS'collab'
p1405
I41
sS'fucked'
p1406
I41
sS'l.a'
p1407
I41
sS'//'
p1408
I39
sS'off'
p1409
I38
sS'center'
p1410
I41
sS'i'
p1411
I1
sS'well'
p1412
I38
sS'thought'
p1413
I38
sS'wya'
p1414
I41
sS'english'
p1415
I40
sS'3984'
p1416
I41
sS'!,90063\n493892384451604480,servechubbs,2014-07-28'
p1417
I41
sS'momento'
p1418
I41
sS'>>>>>,90063\n493831453642215425,wh0rehey_,2014-07-28'
p1419
I41
sS'!,90063\n494403089370066944,servechubbs,2014-07-30'
p1420
I41
sS'ok,90063\n508109041663348736,thatguynamdgage,2014-09-06'
p1421
I41
sS'discuss'
p1422
I41
sS'attractive'
p1423
I41
sS'crack'
p1424
I41
sS'kick'
p1425
I40
sS'know'
p1426
I36
sS'roty'
p1427
I41
sS'like'
p1428
I17
sS'lost'
p1429
I39
sS'psychodaddy'
p1430
I41
sS'become'
p1431
I41
sS'euforia'
p1432
I41
sS'nigga'
p1433
I40
sS'sequence'
p1434
I41
sS'twitter'
p1435
I39
sS'alive'
p1436
I41
sS'chavez'
p1437
I40
sS'shes'
p1438
I41
sS'home'
p1439
I37
sS'literally'
p1440
I41
sS'ese'
p1441
I41
sS'passion'
p1442
I40
sS'chains'
p1443
I41
sS'06:27:52.0,34.0348409,-118.1793922,5311.02,its'
p1444
I41
sS'blowing'
p1445
I41
sS'mochomera'
p1446
I41
sS'slut'
p1447
I41
sS'stage'
p1448
I41
sS'gained'
p1449
I41
sS'about'
p1450
I27
sS'm\xc3\xa9'
p1451
I41
sS'getting'
p1452
I35
sS'angeles'
p1453
I35
sS'swear'
p1454
I39
sS"monroe's"
p1455
I41
sS'tongue'
p1456
I41
sS'09:31:29.0,34.035143,-118.1791138,5311.02,i'
p1457
I41
sS'own'
p1458
I41
sS'pussy'
p1459
I41
sS'chula'
p1460
I41
sS'luna'
p1461
I41
sS"wolf's>>>\xe2\x80\x9d"
p1462
I41
sS'mera'
p1463
I40
sS'bit,90063\n495103731789488128,wh0rehey_,2014-08-01'
p1464
I41
sS'wack'
p1465
I41
sS'van'
p1466
I41
sS'kidding'
p1467
I41
sS'pool'
p1468
I41
sS'buena'
p1469
I41
sS'buy'
p1470
I41
sS"i've"
p1471
I40
sS'bus'
p1472
I41
sS'bitches'
p1473
I41
sS'but'
p1474
I24
sS'reminds'
p1475
I41
sS'firstygageav'
p1476
I41
sS'hi'
p1477
I37
sS'bun'
p1478
I41
sS'bud'
p1479
I41
sS'he'
p1480
I29
sS'made'
p1481
I40
sS'mixtapes'
p1482
I41
sS'j'
p1483
I41
sS'subtweets'
p1484
I41
sS'piece'
p1485
I41
sS'replying'
p1486
I41
sS'06:33:27.0,34.0347283,-118.1793245,5311.02,bae'
p1487
I41
sS'pic'
p1488
I41
sS'kisses'
p1489
I41
sS'mcm'
p1490
I41
sS'beats'
p1491
I41
sS'no\xe2\x80\xa6'
p1492
I41
sS'lately'
p1493
I41
sS'other'
p1494
I41
sS'bool'
p1495
I41
sS'coffees'
p1496
I41
sS'repeat'
p1497
I41
sS'07:14:29.0,34.0348577,-118.1791009,5311.02,kinda'
p1498
I41
sS'stay'
p1499
I40
sS'kinda'
p1500
I39
sS'friends'
p1501
I40
sS'\xe2\x80\x94'
p1502
I41
sS'09:04:26.0,34.0348023,-118.1794249,5311.02,loving'
p1503
I41
sS'ohhhh'
p1504
I41
s.