(dp0
S''
p1
I1
sS'raining'
p2
I44
sS'catch'
p3
I46
sS'sleep'
p4
I40
sS'hanging'
p5
I45
sS'hate'
p6
I34
sS'swag'
p7
I46
sS'tweet'
p8
I45
sS'under'
p9
I46
sS'lord'
p10
I44
sS'sorry'
p11
I43
sS'rise'
p12
I46
sS'every'
p13
I44
sS'month'
p14
I46
sS'chapel'
p15
I38
sS'school'
p16
I38
sS'pants...no'
p17
I46
sS'bestfriend'
p18
I43
sS'cmd'
p19
I46
sS'wednesday'
p20
I45
sS'clothes'
p21
I46
sS'enjoy'
p22
I46
sS'tired'
p23
I41
sS'phones'
p24
I45
sS'weeerrk'
p25
I46
sS'gator'
p26
I46
sS'friendships'
p27
I46
sS'shining'
p28
I46
sS'even'
p29
I41
sS'christ'
p30
I46
sS'cooking'
p31
I46
sS'fingers'
p32
I46
sS'hazy'
p33
I46
sS'new'
p34
I43
sS'ever'
p35
I45
sS'told'
p36
I41
sS'never'
p37
I40
sS'here'
p38
I37
sS'\xe2\x9d\xa4\xef\xb8\x8f'
p39
I44
sS'studio'
p40
I46
sS"aren't"
p41
I46
sS'kids'
p42
I44
sS'leaves'
p43
I46
sS'iloveyou'
p44
I46
sS"i'd"
p45
I45
sS'kidd'
p46
I46
sS'smoke'
p47
I45
sS"i'm"
p48
I9
sS"someone's"
p49
I46
sS'eyebrows'
p50
I46
sS'julie'
p51
I46
sS'feelings'
p52
I43
sS'brought'
p53
I46
sS'txt'
p54
I46
sS'<3'
p55
I43
sS'would'
p56
I39
sS'hospital'
p57
I46
sS'cali'
p58
I46
sS'asses'
p59
I46
sS'music'
p60
I42
sS'until'
p61
I46
sS'typa'
p62
I46
sS'sexy'
p63
I46
sS'type'
p64
I46
sS'tell'
p65
I43
sS'basye'
p66
I46
sS'sushi'
p67
I45
sS'posting'
p68
I46
sS'holy'
p69
I46
sS'brings'
p70
I46
sS'haha'
p71
I44
sS'hurt'
p72
I46
sS'phone'
p73
I37
sS'"lost"'
p74
I46
sS'hold'
p75
I46
sS'must'
p76
I45
sS'me'
p77
I8
sS'ma'
p78
I46
sS'room'
p79
I43
sS'work'
p80
I35
sS'mi'
p81
I44
sS'mr'
p82
I45
sS'my'
p83
I3
sS'orpretend'
p84
I46
sS'wana'
p85
I45
sS'give'
p86
I46
sS'honey'
p87
I46
sS'homie'
p88
I45
sS'want'
p89
I32
sS'keep'
p90
I40
sS'montebello'
p91
I36
sS'hoe'
p92
I45
sS'end'
p93
I45
sS'thing'
p94
I43
sS'sitting'
p95
I46
sS'how'
p96
I42
sS'amazing'
p97
I44
sS'interview'
p98
I46
sS'pizza'
p99
I45
sS'funny'
p100
I45
sS'mess'
p101
I46
sS'turing'
p102
I46
sS'after'
p103
I42
sS'wrong'
p104
I45
sS'lay'
p105
I46
sS'5-8:30'
p106
I46
sS'danny'
p107
I46
sS'anymore'
p108
I45
sS'third'
p109
I46
sS'chillen'
p110
I46
sS'appreciate'
p111
I46
sS'keeps'
p112
I46
sS'wine'
p113
I45
sS'over'
p114
I36
sS'satisfied'
p115
I46
sS'y\xc3\xa8'
p116
I46
sS'oven'
p117
I46
sS'guyyys'
p118
I46
sS'before'
p119
I42
sS'ima'
p120
I40
sS'0.62mi'
p121
I46
sS'fix'
p122
I45
sS'better'
p123
I42
sS'1370'
p124
I46
sS'then'
p125
I40
sS'them'
p126
I43
sS'workout'
p127
I46
sS'break'
p128
I46
sS'"anxiety"'
p129
I46
sS'therapy'
p130
I46
sS'\xe2\x98\xba\xef\xb8\x8f'
p131
I45
sS'bread'
p132
I46
sS'hehehe('
p133
I46
sS'rocks'
p134
I46
sS'good'
p135
I30
sS'each'
p136
I46
sS'went'
p137
I45
sS'meal'
p138
I46
sS'steong'
p139
I46
sS'mean'
p140
I41
sS"we'd"
p141
I46
sS'forgot'
p142
I46
sS'saturday'
p143
I43
sS'rt'
p144
I45
sS'driving'
p145
I46
sS'god'
p146
I41
sS'\xe2\x98\x80\xef\xb8\x8fthe'
p147
I46
sS'manda'
p148
I46
sS'smh'
p149
I45
sS'got'
p150
I31
sS'washer'
p151
I46
sS'turning'
p152
I46
sS'cutest'
p153
I46
sS"you're"
p154
I27
sS'pepeto'
p155
I46
sS'free'
p156
I46
sS'\xe2\x80\x9choes'
p157
I46
sS'hoodie'
p158
I45
sS'mistress'
p159
I46
sS'wanted'
p160
I46
sS'dayum'
p161
I46
sS'visitarme'
p162
I46
sS'messages'
p163
I46
sS'days'
p164
I42
sS'outfits'
p165
I46
sS'loooooooong'
p166
I46
sS'onto'
p167
I46
sS'already'
p168
I41
sS'wash'
p169
I46
sS'another'
p170
I43
sS'comin'
p171
I46
sS'sober'
p172
I46
sS'girls'
p173
I43
sS'needed'
p174
I46
sS'master'
p175
I46
sS'too'
p176
I36
sS'listen'
p177
I45
sS'murder'
p178
I46
sS'gym'
p179
I44
sS'doont'
p180
I46
sS'tios'
p181
I46
sS'second'
p182
I46
sS'shower'
p183
I46
sS'matter'
p184
I46
sS'cmdelux'
p185
I46
sS'feeling'
p186
I42
sS'anahi'
p187
I46
sS'fashion'
p188
I46
sS'alone.\xe2\x80\x9d'
p189
I46
sS'mind'
p190
I42
sS'mine'
p191
I44
sS"f's"
p192
I46
sS'talking'
p193
I43
sS'tske'
p194
I46
sS'seen'
p195
I45
sS'sounding'
p196
I46
sS'it\xe2\x80\x9d'
p197
I46
sS'likepeople'
p198
I46
sS'-'
p199
I40
sS'chest'
p200
I45
sS'niece'
p201
I46
sS'menudo'
p202
I46
sS'though'
p203
I45
sS'deploys'
p204
I46
sS'y'
p205
I42
sS'mysel'
p206
I46
sS'pointe'
p207
I46
sS'annoyed'
p208
I44
sS'came'
p209
I44
sS'saying'
p210
I44
sS'meetings'
p211
I46
sS'bimbo'
p212
I46
sS'..\xe2\x9c\xa8'
p213
I46
sS'v.v'
p214
I38
sS'radio'
p215
I46
sS'solutions'
p216
I46
sS'littoh'
p217
I44
sS'nephew'
p218
I46
sS'busy'
p219
I43
sS'cousins'
p220
I46
sS'me\xe2\x98\x8e\xef\xb8\x8f'
p221
I46
sS'ti-tea'
p222
I46
sS'quieres'
p223
I46
sS'rice'
p224
I46
sS'wearing'
p225
I45
sS'do'
p226
I25
sS'dm'
p227
I45
sS'de'
p228
I45
sS'watch'
p229
I44
sS'ratchets'
p230
I46
sS'thanksgiving/christmas'
p231
I46
sS'da'
p232
I46
sS'wedding'
p233
I46
sS'nasty'
p234
I46
sS'dr'
p235
I46
sS'14'
p236
I45
sS'bar'
p237
I45
sS'officially'
p238
I46
sS'bay'
p239
I45
sS'19'
p240
I46
sS'bad'
p241
I40
sS'bae'
p242
I42
sS'steal'
p243
I46
sS'effing'
p244
I46
sS'habit'
p245
I46
sS'w/'
p246
I42
sS'churching'
p247
I46
sS"d's"
p248
I46
sS'goodnight'
p249
I43
sS'toes'
p250
I46
sS'(montebello'
p251
I43
sS'corrupt'
p252
I46
sS'guys>>'
p253
I46
sS'nocturnal'
p254
I46
sS'best'
p255
I42
sS'linley'
p256
I46
sS'brazil'
p257
I46
sS'eres'
p258
I46
sS'said'
p259
I44
sS'sorta'
p260
I46
sS'away'
p261
I46
sS"there's"
p262
I42
sS'hopefully'
p263
I46
sS'lazy'
p264
I45
sS'men'
p265
I46
sS'omg'
p266
I37
sS'nahhh'
p267
I46
sS'wear'
p268
I44
sS'wtf'
p269
I43
sS'cousin'
p270
I46
sS'nahhhh'
p271
I46
sS'refferal'
p272
I46
sS'cow'
p273
I46
sS'fault'
p274
I46
sS'ill'
p275
I43
sS'edgar'
p276
I45
sS'games'
p277
I43
sS'argue'
p278
I46
sS'con'
p279
I46
sS'calvary\xe2\x80\xa6'
p280
I46
sS'ayeee'
p281
I46
sS'yaaa'
p282
I46
sS'strong'
p283
I45
sS'been'
p284
I35
sS'quickly'
p285
I46
sS'\xe2\x9d\x84\xef\xb8\x8f'
p286
I46
sS'much'
p287
I38
sS'idol'
p288
I46
sS'life'
p289
I37
sS'crying'
p290
I45
sS'spit'
p291
I46
sS'lift'
p292
I46
sS'child'
p293
I46
sS'reallllllllly'
p294
I46
sS'chill'
p295
I45
sS'n'
p296
I45
sS'sll'
p297
I46
sS'ugly'
p298
I43
sS'fallow'
p299
I46
sS'b-day'
p300
I46
sS'voice'
p301
I46
sS'k'
p302
I46
sS'chilling'
p303
I46
sS'dream\xe2\x80\x9d'
p304
I46
sS'thursdays'
p305
I46
sS'is'
p306
I15
sS'ilikeu'
p307
I46
sS'it'
p308
I14
sS'skipping'
p309
I46
sS'im'
p310
I41
sS'in'
p311
I11
sS'id'
p312
I46
sS'if'
p313
I31
sS'grown'
p314
I46
sS'perform'
p315
I46
sS'things'
p316
I43
sS'make'
p317
I37
sS'beside'
p318
I46
sS'hahah'
p319
I45
sS'babies'
p320
I45
sS'thingd'
p321
I46
sS'cindy'
p322
I46
sS'issac'
p323
I46
sS'hang'
p324
I45
sS'rain'
p325
I45
sS'hand'
p326
I46
sS'jealous'
p327
I46
sS'kid'
p328
I45
sS'invitas'
p329
I46
sS'youre'
p330
I46
sS'tho'
p331
I46
sS'pandora'
p332
I46
sS'mother'
p333
I46
sS'hearts'
p334
I46
sS'the'
p335
I7
sS'left'
p336
I45
sS'just'
p337
I18
sS'yea'
p338
I46
sS'photo'
p339
I46
sS'nuvo'
p340
I46
sS'sleepy'
p341
I46
sS'grades'
p342
I44
sS'thanks'
p343
I44
sS'human'
p344
I46
sS'yes'
p345
I44
sS'yet'
p346
I46
sS'furry'
p347
I46
sS'had'
p348
I38
sS'bubbas'
p349
I46
sS'\xe2\x80\x9cas'
p350
I46
sS'has'
p351
I40
sS'tmrw'
p352
I46
sS'background'
p353
I46
sS'judge'
p354
I45
sS'burns'
p355
I46
sS'dreams'
p356
I46
sS'bro'
p357
I46
sS'nevermind'
p358
I46
sS'follower'
p359
I46
sS'night'
p360
I38
sS'amor'
p361
I46
sS'lwdess'
p362
I46
sS'right'
p363
I33
sS'old'
p364
I44
sS'deal'
p365
I46
sS'people'
p366
I42
sS'weeeeerk'
p367
I46
sS'\xe2\x8f\xb3'
p368
I46
sS'somehow'
p369
I46
sS'idgaf'
p370
I46
sS'trippen'
p371
I46
sS'helpin'
p372
I46
sS'escape'
p373
I46
sS'rereading'
p374
I46
sS'finna'
p375
I46
sS'cnt'
p376
I46
sS'for'
p377
I10
sS'/'
p378
I46
sS'everything'
p379
I36
sS'ruffles'
p380
I46
sS'asking'
p381
I45
sS"sergio's"
p382
I46
sS'christmas'
p383
I46
sS'tht'
p384
I42
sS'post'
p385
I46
sS'months'
p386
I43
sS'choke'
p387
I46
sS'o'
p388
I46
sS'dinner'
p389
I45
sS'plus'
p390
I46
sS'pays'
p391
I46
sS'selfie'
p392
I46
sS'soo'
p393
I46
sS'ppl'
p394
I46
sS'down'
p395
I43
sS'lies'
p396
I46
sS"c's"
p397
I46
sS'there:the'
p398
I46
sS'>>>>'
p399
I46
sS'lags'
p400
I46
sS'way'
p401
I40
sS'call'
p402
I43
sS'was'
p403
I27
sS'happy'
p404
I41
sS'head'
p405
I45
sS'offer'
p406
I46
sS'latley'
p407
I46
sS'back'
p408
I35
sS'hear'
p409
I46
sS'cheeck'
p410
I46
sS'congratulations'
p411
I46
sS'ruined'
p412
I46
sS'r.i.p'
p413
I46
sS'supa'
p414
I46
sS'promises'
p415
I46
sS'later'
p416
I45
sS'disgrace'
p417
I46
sS'tryna'
p418
I46
sS'muscular'
p419
I46
sS'drive'
p420
I46
sS'annoying'
p421
I45
sS'trip'
p422
I46
sS'shit'
p423
I38
sS'dying'
p424
I46
sS'floor'
p425
I46
sS'when'
p426
I27
sS'anyday'
p427
I46
sS'til'
p428
I45
sS'tio'
p429
I46
sS'meeeee'
p430
I46
sS'picture'
p431
I45
sS"'s"
p432
I46
sS'dies'
p433
I46
sS'football'
p434
I44
sS'update'
p435
I46
sS"let's"
p436
I45
sS'fell'
p437
I46
sS'faster'
p438
I46
sS'faze'
p439
I46
sS'together'
p440
I46
sS'bambi'
p441
I46
sS'time'
p442
I29
sS'serious'
p443
I42
sS':))'
p444
I46
sS'/:ir'
p445
I46
sS':/'
p446
I45
sS':('
p447
I42
sS':)'
p448
I46
sS'chain'
p449
I46
sS'dance'
p450
I45
sS'focus'
p451
I45
sS'mile'
p452
I46
sS'ice'
p453
I45
sS':3'
p454
I46
sS'rhat'
p455
I46
sS'baller'
p456
I46
sS'zone'
p457
I46
sS'hump'
p458
I46
sS'disgusting'
p459
I45
sS'finally'
p460
I44
sS'ven'
p461
I46
sS'yeserday'
p462
I46
sS':l'
p463
I46
sS':c'
p464
I43
sS'vestida'
p465
I46
sS'blast'
p466
I46
sS':p'
p467
I46
sS'cool'
p468
I45
sS'gatta'
p469
I44
sS'did'
p470
I46
sS'brothet'
p471
I46
sS'brother'
p472
I45
sS'leave'
p473
I39
sS'soooo'
p474
I43
sS'guy'
p475
I44
sS"it'll"
p476
I45
sS'says'
p477
I45
sS'olds\xe2\x80\x9d'
p478
I46
sS'abiut'
p479
I46
sS'shirts'
p480
I46
sS'eating'
p481
I45
sS'irritated'
p482
I46
sS'stands'
p483
I46
sS'hapoy'
p484
I46
sS'maaaaan'
p485
I46
sS'fallkng'
p486
I46
sS'goes'
p487
I46
sS'falling'
p488
I45
sS'randeeeeee'
p489
I46
sS'french'
p490
I46
sS'alone'
p491
I44
sS'earthquake'
p492
I46
sS'change'
p493
I44
sS'wait'
p494
I45
sS'boy'
p495
I46
sS'cinnamon'
p496
I46
sS'weird'
p497
I44
sS'pillow'
p498
I46
sS'love'
p499
I25
sS'uzi'
p500
I46
sS'rtlove'
p501
I46
sS'candy*'
p502
I46
sS'1st'
p503
I44
sS'stingy'
p504
I46
sS'everybody'
p505
I45
sS'perf'
p506
I46
sS'working'
p507
I46
sS'dude'
p508
I45
sS'only'
p509
I42
sS'live'
p510
I44
sS'iphone'
p511
I45
sS'today'
p512
I33
sS'club'
p513
I46
sS'chocolate'
p514
I46
sS'beers'
p515
I46
sS'suckaa'
p516
I46
sS'sickkk'
p517
I46
sS'effort'
p518
I46
sS'niggas'
p519
I45
sS'car'
p520
I46
sS'soul'
p521
I46
sS'can'
p522
I34
sS'cam'
p523
I46
sS'growing'
p524
I46
sS'making'
p525
I44
sS'biter'
p526
I46
sS'heart'
p527
I44
sS'crazy'
p528
I45
sS'awesome'
p529
I46
sS"didn't"
p530
I42
sS'fuck'
p531
I33
sS'heard'
p532
I46
sS'burbank'
p533
I46
sS'listens'
p534
I46
sS'pink'
p535
I45
sS'1'
p536
I46
sS'till'
p537
I45
sS'sunday'
p538
I44
sS'map'
p539
I46
sS'laundry'
p540
I45
sS'spot'
p541
I45
sS'birthday'
p542
I42
sS'suck'
p543
I45
sS'guys'
p544
I43
sS'man'
p545
I45
sS'classroom'
p546
I46
sS'stress'
p547
I46
sS'remember'
p548
I46
sS'rn'
p549
I36
sS'wanna'
p550
I37
sS'st'
p551
I46
sS'so'
p552
I17
sS'sm'
p553
I46
sS'talk'
p554
I44
sS'cute'
p555
I41
sS'shoes'
p556
I46
sS'wishing'
p557
I45
sS'years'
p558
I46
sS'cnady'
p559
I46
sS'kanye'
p560
I46
sS'cold'
p561
I46
sS'still'
p562
I37
sS'worship'
p563
I46
sS'blocked'
p564
I46
sS'thank'
p565
I40
sS'curly'
p566
I45
sS"he's"
p567
I44
sS'hot'
p568
I45
sS'tweets'
p569
I46
sS'ours'
p570
I46
sS'main'
p571
I46
sS'happened'
p572
I46
sS'lonely'
p573
I46
sS'nation'
p574
I46
sS'lunch'
p575
I45
sS'not'
p576
I24
sS'nov'
p577
I44
sS'now'
p578
I21
sS'nor'
p579
I46
sS'"ref"'
p580
I46
sS'name'
p581
I43
sS'january'
p582
I46
sS'veing'
p583
I46
sS'boo>>>'
p584
I46
sS'rock'
p585
I21
sS'stahp'
p586
I45
sS'el'
p587
I45
sS'en'
p588
I46
sS'crushing'
p589
I45
sS"party's"
p590
I46
sS'pupuseria'
p591
I46
sS'ex'
p592
I46
sS'year'
p593
I42
sS'girl'
p594
I40
sS'relive'
p595
I45
sS'looking'
p596
I45
sS'seriously'
p597
I45
sS'blanky'
p598
I46
sS'bugging'
p599
I45
sS'correct'
p600
I46
sS'shows'
p601
I46
sS'dodgers'
p602
I46
sS'autozone)'
p603
I46
sS'million'
p604
I46
sS'boobs'
p605
I46
sS'punks'
p606
I46
sS'california'
p607
I46
sS'grandma'
p608
I46
sS'keith'
p609
I46
sS'care'
p610
I46
sS'underwear'
p611
I46
sS'100+'
p612
I46
sS'goodnightt'
p613
I46
sS'turn'
p614
I45
sS'place'
p615
I42
sS'think'
p616
I41
sS'first'
p617
I46
sS'pistear'
p618
I46
sS'xd'
p619
I44
sS'one'
p620
I35
sS'long'
p621
I46
sS'message'
p622
I46
sS'drove'
p623
I46
sS'tomorrow'
p624
I38
sS'city'
p625
I46
sS'little'
p626
I45
sS'greaat'
p627
I46
sS'caught'
p628
I46
sS'anyone'
p629
I44
sS'2'
p630
I42
sS'draft'
p631
I46
sS'white'
p632
I45
sS'las'
p633
I46
sS'friend'
p634
I46
sS'eyes'
p635
I44
sS'hug'
p636
I46
sS'that'
p637
I23
sS'cops'
p638
I46
sS'butt'
p639
I46
sS'x-treme'
p640
I46
sS'peck'
p641
I45
sS'than'
p642
I43
sS'noz\xe2\x80\x9d'
p643
I46
sS'boyfriend'
p644
I45
sS'13'
p645
I46
sS'15'
p646
I44
sS'lmao'
p647
I38
sS'depressed'
p648
I45
sS'18'
p649
I46
sS'r'
p650
I46
sS'were'
p651
I43
sS'dissapointed'
p652
I46
sS'and'
p653
I13
sS'twinkies'
p654
I46
sS'ily\xe2\x99\xa5\xe2\x99\xa5'
p655
I46
sS'sad'
p656
I45
sS'say'
p657
I42
sS'rent'
p658
I46
sS'breakfast'
p659
I46
sS'saw'
p660
I45
sS'any'
p661
I45
sS'sat'
p662
I46
sS'zoo'
p663
I46
sS'omfg'
p664
I46
sS'take'
p665
I40
sS'channel'
p666
I46
sS'sure'
p667
I42
sS'pain'
p668
I46
sS'knew'
p669
I46
sS'paid'
p670
I46
sS'pastor'
p671
I46
sS'freshmen'
p672
I46
sS'forever'
p673
I44
sS'proud'
p674
I46
sS'hungry'
p675
I44
sS'dolor'
p676
I46
sS'senior'
p677
I46
sS"that's"
p678
I42
sS'walking'
p679
I46
sS'shot'
p680
I46
sS'\xe2\x9c\xa8'
p681
I44
sS'show'
p682
I46
sS'year...god'
p683
I46
sS'curled'
p684
I45
sS'aint'
p685
I45
sS'\xe2\x9c\x8b'
p686
I46
sS'dick'
p687
I44
sS'pump'
p688
I46
sS'daay'
p689
I46
sS'tears'
p690
I46
sS'going'
p691
I37
sS'black'
p692
I45
sS'posted'
p693
I46
sS'get'
p694
I24
sS'toca'
p695
I46
sS'cannot'
p696
I46
sS'outlet'
p697
I46
sS'celebrate'
p698
I46
sS'borrow'
p699
I46
sS'morning'
p700
I45
sS":'("
p701
I46
sS'jokes'
p702
I46
sS'stupid'
p703
I43
sS'pants'
p704
I46
sS'where'
p705
I43
sS"y'all"
p706
I46
sS'concert'
p707
I45
sS'*kanye'
p708
I46
sS'asleep'
p709
I45
sS'ways'
p710
I46
sS'3'
p711
I46
sS'estar'
p712
I46
sS'8:44'
p713
I46
sS'between'
p714
I46
sS'earlymorningrun'
p715
I46
sS'wouldve'
p716
I46
sS'corridors'
p717
I46
sS'jobs'
p718
I46
sS'jk'
p719
I44
sS'come'
p720
I37
sS'many'
p721
I46
sS'quien'
p722
I46
sS"can't"
p723
I38
sS'color'
p724
I46
sS'pot'
p725
I46
sS'hurts'
p726
I44
sS'por'
p727
I46
sS'pop'
p728
I46
sS"couldn't"
p729
I46
sS'howard'
p730
I45
sS'carey'
p731
I46
sS'bluffside'
p732
I46
sS'beer**'
p733
I46
sS'tyga'
p734
I46
sS'shopping'
p735
I46
sS'ala'
p736
I46
sS'dramatic'
p737
I46
sS'wake'
p738
I46
sS'foggy'
p739
I46
sS'goesss.\xe2\x99\xa1'
p740
I46
sS'those'
p741
I45
sS'sound'
p742
I46
sS'myself'
p743
I36
sS'these'
p744
I37
sS"haven't"
p745
I46
sS'\xe2\x99\xa5\xe2\x99\xa5\xe2\x99\xa5\xe2\x99\xa5\xe2\x99\xa5'
p746
I46
sS'situation'
p747
I46
sS'ive'
p748
I46
sS'someone'
p749
I34
sS'curtis'
p750
I46
sS'everyday'
p751
I45
sS'pap'
p752
I46
sS'pay'
p753
I46
sS'same'
p754
I42
sS'check'
p755
I46
sS'food'
p756
I42
sS'week'
p757
I45
sS'oil'
p758
I46
sS'munch'
p759
I45
sS'running'
p760
I42
sS'gottavkeep'
p761
I46
sS'totally'
p762
I46
sS'\xe2\x9c\x8c\xef\xb8\x8f'
p763
I46
sS'fasting'
p764
I46
sS'youtubers'
p765
I46
sS'band'
p766
I46
sS'charger'
p767
I46
sS'no'
p768
I24
sS'halarious'
p769
I46
sS'killled'
p770
I46
sS'without'
p771
I46
sS'comes'
p772
I44
sS'"friends"'
p773
I46
sS'fiest'
p774
I46
sS'charged'
p775
I46
sS'summer'
p776
I45
sS'(x'
p777
I46
sS'they'
p778
I36
sS'being'
p779
I39
sS'money'
p780
I43
sS'posole'
p781
I46
sS'rest'
p782
I46
sS'blow'
p783
I45
sS'prostituci\xc3\xb3n'
p784
I46
sS'grounded'
p785
I46
sS'yaaay'
p786
I46
sS'seems'
p787
I46
sS'except'
p788
I46
sS'lets'
p789
I46
sS'4'
p790
I45
sS'pill'
p791
I46
sS'skies'
p792
I46
sS'scheduled'
p793
I46
sS'starving'
p794
I46
sS'around'
p795
I45
sS'gonna'
p796
I42
sS'early'
p797
I45
sS'\xe2\x9d\xa4'
p798
I46
sS'\xe2\x9d\x84\xef\xb8\x8f\xe2\x9d\x84\xef\xb8\x8f'
p799
I46
sS'world'
p800
I46
sS'correcting'
p801
I46
sS"('"
p802
I46
sS'16yrs'
p803
I46
sS'either'
p804
I46
sS'nephews'
p805
I46
sS'creeped'
p806
I46
sS'montebello!!***'
p807
I46
sS'naaaaaaaaada'
p808
I46
sS"broguiere's"
p809
I46
sS'mood'
p810
I46
sS'kamen'
p811
I46
sS'mwan'
p812
I46
sS'power'
p813
I45
sS'asap'
p814
I45
sS'lmfao'
p815
I45
sS'nails'
p816
I40
sS'fitness'
p817
I46
sS'broken'
p818
I46
sS'^_^'
p819
I46
sS';)'
p820
I45
sS'roaminf'
p821
I46
sS'throw'
p822
I46
sS'earlier'
p823
I46
sS'on'
p824
I12
sS'ok'
p825
I46
sS'oi'
p826
I46
sS'oh'
p827
I43
sS'of'
p828
I25
sS'me\xc3\xb1os'
p829
I46
sS'carlos'
p830
I46
sS'act'
p831
I46
sS'luck'
p832
I45
sS'or'
p833
I36
sS'ladies'
p834
I45
sS'burning'
p835
I46
sS'snapchat'
p836
I46
sS'youu'
p837
I43
sS'your'
p838
I22
sS'her'
p839
I46
sS'there'
p840
I42
sS'hey'
p841
I43
sS'lol'
p842
I32
sS'ass"'
p843
I46
sS'los'
p844
I46
sS'lot'
p845
I44
sS'alameda'
p846
I46
sS'misss'
p847
I46
sS'>>>>>'
p848
I46
sS'enough'
p849
I44
sS'you"'
p850
I46
sS'trying'
p851
I38
sS'with'
p852
I19
sS'buying'
p853
I45
sS"they're"
p854
I42
sS'october'
p855
I46
sS'romantic'
p856
I46
sS"wasn't"
p857
I45
sS'dirty'
p858
I46
sS'creeping'
p859
I46
sS'shrug*\xe2\x80\x9d'
p860
I46
sS'ohh'
p861
I46
sS'videos'
p862
I45
sS'af'
p863
I43
sS'am'
p864
I36
sS'an'
p865
I40
sS'as'
p866
I37
sS'at'
p867
I25
sS'aw'
p868
I45
sS'ay'
p869
I46
sS'film'
p870
I46
sS'cream'
p871
I45
sS'yoo'
p872
I46
sS'again'
p873
I45
sS'yoga'
p874
I46
sS'faggets'
p875
I46
sS'priveldge'
p876
I46
sS'maloof'
p877
I46
sS'field'
p878
I46
sS'hella'
p879
I46
sS'5'
p880
I46
sS'you'
p881
I5
sS'barato'
p882
I46
sS"she's"
p883
I46
sS'chris'
p884
I46
sS'calls'
p885
I45
sS'hello'
p886
I46
sS'u'
p887
I38
sS'alright'
p888
I46
sS'starting'
p889
I46
sS'all'
p890
I28
sS'since'
p891
I44
sS'consider'
p892
I46
sS'remeber'
p893
I46
sS'smoking'
p894
I46
sS'follow'
p895
I46
sS'decisions'
p896
I45
sS'hmmm'
p897
I46
sS'asada'
p898
I46
sS'referring'
p899
I46
sS'hunting'
p900
I46
sS'irrelevant'
p901
I46
sS'tu'
p902
I44
sS'to'
p903
I4
sS'thnx\xe2\x80\x9d'
p904
I46
sS'dairy'
p905
I46
sS'tk'
p906
I46
sS'ti'
p907
I46
sS'tf'
p908
I45
sS'uniform?\xe2\x80\x9d'
p909
I46
sS'te'
p910
I46
sS'worse'
p911
I46
sS'song'
p912
I43
sS'very'
p913
I46
sS'fat'
p914
I46
sS'ticket'
p915
I44
sS'fag'
p916
I46
sS'upppp'
p917
I46
sS'heaven'
p918
I46
sS'list'
p919
I46
sS'sang'
p920
I46
sS'wsw'
p921
I46
sS'20th'
p922
I46
sS"i'll"
p923
I37
sS'twinn\xe2\x9d\xa4\xef\xb8\x8f'
p924
I46
sS'streets'
p925
I46
sS'nbd'
p926
I46
sS'what'
p927
I36
sS'sub'
p928
I46
sS'sun'
p929
I44
sS'youuu'
p930
I46
sS'fuckn'
p931
I46
sS'ignition'
p932
I46
sS'full'
p933
I45
sS'loose'
p934
I46
sS'hours'
p935
I46
sS'epitome'
p936
I46
sS'shleepy'
p937
I45
sS'bakeries'
p938
I46
sS'struggle'
p939
I46
sS'via'
p940
I45
sS'family'
p941
I45
sS'\xe2\x99\xa1early'
p942
I46
sS'vip'
p943
I46
sS'mijos'
p944
I46
sS'show\xe2\x80\xa6'
p945
I46
sS'asta'
p946
I45
sS'baaaaaaaaaaaabbbbyyyyyy'
p947
I46
sS'londonand'
p948
I46
sS'two'
p949
I43
sS'6'
p950
I46
sS'shits'
p951
I46
sS'more'
p952
I35
sS'knoww'
p953
I46
sS'knows'
p954
I44
sS'ramona'
p955
I46
sS"ain't"
p956
I40
sS'broke'
p957
I46
sS'hurry'
p958
I46
sS'hour'
p959
I45
sS'nono'
p960
I46
sS'subway....and'
p961
I46
sS'beautiful'
p962
I42
sS'hamburger'
p963
I46
sS'suggestions'
p964
I46
sS'accept'
p965
I46
sS'protects'
p966
I46
sS'that.\xe2\x80\x9d'
p967
I46
sS'dress'
p968
I46
sS'hugg'
p969
I46
sS'rather'
p970
I46
sS'posadas'
p971
I46
sS'okay'
p972
I41
sS'tried'
p973
I45
sS'viene'
p974
I46
sS'coming'
p975
I44
sS'rudy'
p976
I46
sS'tacos'
p977
I46
sS'pambasos'
p978
I46
sS'a'
p979
I6
sS'short'
p980
I44
sS'loud'
p981
I46
sS'volleyball'
p982
I46
sS'dream'
p983
I46
sS'playing'
p984
I42
sS'\xe2\x9c\xa8i'
p985
I46
sS'mexican'
p986
I46
sS'help'
p987
I45
sS"don't"
p988
I20
sS'sooo'
p989
I46
sS'soon'
p990
I44
sS'held'
p991
I46
sS'hell'
p992
I45
sS'smiling'
p993
I46
sS'its'
p994
I43
sS'suertuda'
p995
I46
sS'23'
p996
I46
sS'actually'
p997
I45
sS'late'
p998
I45
sS'>>>'
p999
I45
sS'bout'
p1000
I46
sS'might'
p1001
I45
sS'goodmorning'
p1002
I46
sS'hurting'
p1003
I46
sS'evening'
p1004
I46
sS'return'
p1005
I46
sS'sucking'
p1006
I46
sS'yo'
p1007
I45
sS'ya'
p1008
I41
sS'uhm'
p1009
I45
sS'starbucks'
p1010
I46
sS'icymi'
p1011
I46
sS'lmtv'
p1012
I46
sS'always'
p1013
I42
sS'chuuucccchhhhh'
p1014
I46
sS'gorditas'
p1015
I46
sS'm\xc3\xa1s'
p1016
I46
sS'found'
p1017
I46
sS"isn't"
p1018
I45
sS'reactions'
p1019
I46
sS'everyone'
p1020
I45
sS'house'
p1021
I43
sS'accidentally'
p1022
I46
sS'expect'
p1023
I46
sS'event'
p1024
I46
sS'really'
p1025
I35
sS'anxious'
p1026
I46
sS'flower'
p1027
I46
sS'<<<'
p1028
I46
sS'childish'
p1029
I45
sS'surrounded'
p1030
I46
sS'****'
p1031
I46
sS'pobrete'
p1032
I46
sS'bubba'
p1033
I46
sS'ass'
p1034
I45
sS'pathetic'
p1035
I46
sS'squished'
p1036
I46
sS'friday'
p1037
I46
sS'guess'
p1038
I45
sS'mmm'
p1039
I46
sS'asf'
p1040
I45
sS'imagine'
p1041
I46
sS'put'
p1042
I44
sS'teach'
p1043
I46
sS'pup'
p1044
I46
sS'ladyyy'
p1045
I46
sS'terrible'
p1046
I46
sS'w'
p1047
I36
sS'heartbeat'
p1048
I46
sS'feed'
p1049
I46
sS'dont'
p1050
I42
sS'feel'
p1051
I41
sS'doughnuts'
p1052
I46
sS'fancy'
p1053
I46
sS'done'
p1054
I41
sS'miss'
p1055
I38
sS'story'
p1056
I44
sS'jet'
p1057
I46
sS'comfy'
p1058
I46
sS'least'
p1059
I45
sS'station'
p1060
I38
sS'mama'
p1061
I44
sS'sware'
p1062
I45
sS'relationship'
p1063
I46
sS'behind'
p1064
I46
sS'godmorningg'
p1065
I46
sS'baby\xe2\x9d\xa4\xef\xb8\x8f\xe2\x9d\xa4\xef\xb8\x8f\xe2\x9d\xa4\xef\xb8\x8f'
p1066
I46
sS'part'
p1067
I46
sS'believe'
p1068
I44
sS'treated'
p1069
I46
sS'outta'
p1070
I45
sS'showerr'
p1071
I45
sS'friends..i'
p1072
I46
sS'lie'
p1073
I45
sS'self'
p1074
I46
sS'henna'
p1075
I46
sS'couch'
p1076
I45
sS'also'
p1077
I46
sS'waitin'
p1078
I46
sS'play'
p1079
I46
sS'eewwww'
p1080
I46
sS'most'
p1081
I46
sS'charm'
p1082
I46
sS'services'
p1083
I46
sS'11:11'
p1084
I46
sS'kk'
p1085
I46
sS'sometimes'
p1086
I45
sS'cover'
p1087
I46
sS'\xe2\x98\x80\xef\xb8\x8f'
p1088
I46
sS'ugh'
p1089
I45
sS'carne'
p1090
I46
sS'freight'
p1091
I46
sS'hopped'
p1092
I46
sS'fine'
p1093
I45
sS'find'
p1094
I46
sS'bff'
p1095
I46
sS'nervous'
p1096
I46
sS'fullerton'
p1097
I46
sS'pretty'
p1098
I45
sS'8'
p1099
I45
sS'his'
p1100
I46
sS'hit'
p1101
I45
sS'sopes'
p1102
I46
sS'$$$$$'
p1103
I46
sS'feels'
p1104
I45
sS'11-2'
p1105
I45
sS'him'
p1106
I43
sS'cry'
p1107
I45
sS'doublez'
p1108
I46
sS'gloves'
p1109
I46
sS'shietttt'
p1110
I46
sS'see'
p1111
I36
sS'are'
p1112
I26
sS'close'
p1113
I45
sS'angie'
p1114
I46
sS'retweet'
p1115
I45
sS'nap'
p1116
I45
sS'knees'
p1117
I46
sS"maggie's"
p1118
I46
sS'movie'
p1119
I46
sS'wow'
p1120
I46
sS'currently'
p1121
I46
sS'please'
p1122
I41
sS'smallest'
p1123
I46
sS'asleeping'
p1124
I46
sS'chapstick'
p1125
I46
sS'outfit'
p1126
I46
sS'oldddddd'
p1127
I46
sS'both'
p1128
I46
sS'c'
p1129
I46
sS'last'
p1130
I40
sS'license'
p1131
I46
sS'secrets'
p1132
I46
sS'foreign'
p1133
I46
sS'thinking'
p1134
I46
sS'boxers'
p1135
I46
sS'thoe'
p1136
I45
sS'whole'
p1137
I44
sS'9:00'
p1138
I46
sS'sweet'
p1139
I44
sS'likes'
p1140
I45
sS'sing'
p1141
I46
sS'sammy'
p1142
I46
sS")'"
p1143
I46
sS'raise'
p1144
I46
sS'hitting'
p1145
I44
sS'secret'
p1146
I46
sS'damn'
p1147
I45
sS'siting'
p1148
I46
sS'gay'
p1149
I45
sS"what's"
p1150
I46
sS'awake'
p1151
I46
sS'rocking'
p1152
I46
sS"what'd"
p1153
I46
sS'buhh-byeeeee'
p1154
I46
sS'look'
p1155
I44
sS'straight'
p1156
I45
sS'while'
p1157
I43
sS'fun'
p1158
I45
sS'real'
p1159
I44
sS'30'
p1160
I46
sS'hoping'
p1161
I46
sS'bummy'
p1162
I46
sS'ready'
p1163
I42
sS'voy'
p1164
I45
sS'\xe2\x99\xa5\xe2\x99\xa5\xe2\x99\xa5'
p1165
I46
sS'shirt'
p1166
I45
sS'beachhh'
p1167
I46
sS'belong'
p1168
I46
sS'metrolink'
p1169
I38
sS'hallway'
p1170
I46
sS'yesterday'
p1171
I45
sS'flows'
p1172
I46
sS'moment'
p1173
I45
sS'homeworklivin'
p1174
I46
sS'cheek'
p1175
I45
sS'obviously'
p1176
I46
sS'cheer'
p1177
I46
sS'flags'
p1178
I46
sS'kelly'
p1179
I46
sS'mom'
p1180
I39
sS'praying'
p1181
I46
sS'jumpsuit'
p1182
I46
sS'cus'
p1183
I46
sS'"cute"'
p1184
I46
sS'lady'
p1185
I45
sS'cuz'
p1186
I46
sS'parents'
p1187
I46
sS'soooooo'
p1188
I46
sS'homies'
p1189
I46
sS'snap'
p1190
I46
sS'excited'
p1191
I46
sS'surprised'
p1192
I46
sS'march'
p1193
I44
sS'big'
p1194
I45
sS'game'
p1195
I41
sS'bit'
p1196
I45
sS'wings'
p1197
I46
sS'mariah'
p1198
I46
sS'd'
p1199
I45
sS'spine'
p1200
I46
sS'fucking'
p1201
I39
sS'fake'
p1202
I46
sS'some'
p1203
I38
sS'buchona'
p1204
I46
sS'ibiley'
p1205
I46
sS'wonderland'
p1206
I46
sS'classes'
p1207
I46
sS'yooou'
p1208
I46
sS'hoeszzz'
p1209
I46
sS'pen'
p1210
I46
sS'anyrhing'
p1211
I46
sS'be'
p1212
I17
sS'bf'
p1213
I46
sS'run'
p1214
I46
sS'bc'
p1215
I45
sS'word'
p1216
I46
sS's/o'
p1217
I46
sS'ache'
p1218
I45
sS'by'
p1219
I37
sS'anything'
p1220
I46
sS'drama'
p1221
I46
sS'beans'
p1222
I46
sS'idk'
p1223
I44
sS'bish'
p1224
I46
sS'hahahah'
p1225
I45
sS'seeing'
p1226
I46
sS'jimmy'
p1227
I46
sS'visit'
p1228
I46
sS'into'
p1229
I45
sS'nothing'
p1230
I42
sS'nigga'
p1231
I43
sS'.-'
p1232
I46
sS'tasting'
p1233
I46
sS'ca)'
p1234
I43
sS'fast'
p1235
I46
sS"we're"
p1236
I45
sS'bruh'
p1237
I46
sS'bored'
p1238
I46
sS'twitter'
p1239
I46
sS'fase'
p1240
I46
sS'jacks'
p1241
I46
sS'toooo'
p1242
I46
sS'boys'
p1243
I46
sS'._'
p1244
I46
sS'\xe2\x99\xa5'
p1245
I42
sS'\xe2\x99\xa1'
p1246
I39
sS'up'
p1247
I25
sS'us'
p1248
I43
sS'uh'
p1249
I45
sS'\xe2\x80\x9c6'
p1250
I46
sS'called'
p1251
I45
sS'peace'
p1252
I46
sS'backs'
p1253
I46
sS'sleeeeeeep'
p1254
I46
sS'carrera'
p1255
I46
sS'grind'
p1256
I46
sS'nice'
p1257
I43
sS'smiles'
p1258
I46
sS'goooooood'
p1259
I46
sS'paisas'
p1260
I46
sS'meals'
p1261
I46
sS'ago'
p1262
I42
sS'remix'
p1263
I46
sS'walked'
p1264
I46
sS'2000'
p1265
I46
sS'nasa'
p1266
I46
sS'fresh'
p1267
I45
sS'having'
p1268
I43
sS'once'
p1269
I43
sS'morning>>>>>'
p1270
I46
sS'jason'
p1271
I46
sS'totes'
p1272
I46
sS'gf'
p1273
I46
sS'gana'
p1274
I44
sS'\xe2\x99\xa5\xe2\x99\xa5'
p1275
I46
sS'freakin'
p1276
I46
sS'go'
p1277
I21
sS'gn'
p1278
I44
sS'seemed'
p1279
I46
sS'young'
p1280
I46
sS'blaze'
p1281
I46
sS'weather'
p1282
I46
sS'breathing'
p1283
I46
sS'outside'
p1284
I45
sS'continues'
p1285
I46
sS'jist'
p1286
I46
sS'telling'
p1287
I44
sS'drinking'
p1288
I46
sS'marry'
p1289
I46
sS'try'
p1290
I44
sS'this'
p1291
I16
sS'havent'
p1292
I46
sS'deleting'
p1293
I46
sS'smaller'
p1294
I46
sS"you'd"
p1295
I46
sS'waking'
p1296
I45
sS'video'
p1297
I46
sS'sweats'
p1298
I46
sS'that*'
p1299
I46
sS'montebello)'
p1300
I46
sS'waiting'
p1301
I44
sS'twins'
p1302
I46
sS'body'
p1303
I44
sS'degree'
p1304
I46
sS'let'
p1305
I43
sS'luis'
p1306
I45
sS'safer'
p1307
I46
sS'great'
p1308
I39
sS'saturfay'
p1309
I46
sS'shades'
p1310
I46
sS'esque'
p1311
I46
sS'5:06'
p1312
I46
sS'makes'
p1313
I42
sS'3%'
p1314
I46
sS'thats'
p1315
I45
sS'apple'
p1316
I46
sS'\xe2\x99\xa1\xe2\x99\xa1\xe2\x99\xa1'
p1317
I46
sS'wil'
p1318
I46
sS'wit'
p1319
I46
sS'bust'
p1320
I46
sS'use'
p1321
I46
sS'from'
p1322
I39
sS'&'
p1323
I29
sS'illegal'
p1324
I46
sS'next'
p1325
I45
sS'montebello/commerce'
p1326
I38
sS'babe'
p1327
I44
sS'bendito'
p1328
I46
sS'tax'
p1329
I46
sS'occurred'
p1330
I46
sS'confused'
p1331
I46
sS'!\xe2\x80\x9d'
p1332
I46
sS'soooooooo'
p1333
I46
sS'train'
p1334
I45
sS'baby'
p1335
I38
sS'ricans'
p1336
I46
sS'meed'
p1337
I46
sS'drill'
p1338
I46
sS'aight'
p1339
I46
sS'meet'
p1340
I45
sS'cliente'
p1341
I46
sS'control'
p1342
I46
sS'extranjero'
p1343
I46
sS'geez'
p1344
I46
sS'meeeeeee'
p1345
I46
sS'halloween'
p1346
I43
sS'high'
p1347
I45
sS'something'
p1348
I43
sS'bones'
p1349
I46
sS'tan'
p1350
I45
sS'sir'
p1351
I46
sS'lame'
p1352
I46
sS'six'
p1353
I45
sS'burgandy'
p1354
I45
sS'sin'
p1355
I46
sS'dunamis'
p1356
I46
sS'farm'
p1357
I46
sS'stop'
p1358
I39
sS'\xe2\x80\x9cmcm'
p1359
I46
sS'"be'
p1360
I46
sS'sit'
p1361
I46
sS'honestly'
p1362
I41
sS'.goodbye'
p1363
I46
sS'move'
p1364
I46
sS'hugged'
p1365
I46
sS"won't"
p1366
I43
sS'looks'
p1367
I46
sS'perfect'
p1368
I44
sS'write'
p1369
I46
sS'la'
p1370
I39
sS'responsibilities'
p1371
I46
sS'[pic]'
p1372
I45
sS'orange'
p1373
I46
sS'puerto'
p1374
I46
sS'bye'
p1375
I45
sS'dad'
p1376
I43
sS'auto'
p1377
I46
sS'practice'
p1378
I46
sS'flew'
p1379
I46
sS'kiss'
p1380
I43
sS'day'
p1381
I29
sS'shushhhhhhhh'
p1382
I46
sS'moda'
p1383
I46
sS'magnitude'
p1384
I46
sS'shaking'
p1385
I45
sS'studios'
p1386
I46
sS'2900'
p1387
I46
sS'mija'
p1388
I46
sS'doing'
p1389
I42
sS'\xe2\x80\x9cbe'
p1390
I46
sS'our'
p1391
I45
sS'special'
p1392
I44
sS'out'
p1393
I20
sS'w/o'
p1394
I46
sS'wich'
p1395
I46
sS'cause'
p1396
I46
sS'red'
p1397
I46
sS'shut'
p1398
I44
sS'\xe2\x99\xa5god'
p1399
I46
sS'shleeeeeepy'
p1400
I46
sS'princess'
p1401
I46
sS'prepare'
p1402
I46
sS'could'
p1403
I44
sS'times'
p1404
I44
sS'calvary'
p1405
I38
sS'chills'
p1406
I46
sS'cristian'
p1407
I45
sS'shittttt'
p1408
I46
sS'scene'
p1409
I46
sS'jesus'
p1410
I43
sS'damit'
p1411
I46
sS'bitch'
p1412
I41
sS"doesn't"
p1413
I46
sS'monkey'
p1414
I46
sS'start'
p1415
I43
sS'ordering'
p1416
I46
sS'..but'
p1417
I46
sS'system'
p1418
I46
sS'priority'
p1419
I46
sS'their'
p1420
I41
sS'misunderstood'
p1421
I46
sS'malibu'
p1422
I46
sS'stomach'
p1423
I45
sS'stars'
p1424
I46
sS'vegas...2'
p1425
I46
sS'depressing'
p1426
I46
sS'45k'
p1427
I46
sS'babys'
p1428
I46
sS'beg'
p1429
I46
sS'bed'
p1430
I45
sS'llevas'
p1431
I46
sS'ehh'
p1432
I46
sS'loves'
p1433
I46
sS'maybe'
p1434
I46
sS'lolololol'
p1435
I46
sS'1.4'
p1436
I46
sS'teenagers'
p1437
I46
sS'comfortable'
p1438
I46
sS'tonight'
p1439
I41
sS'have'
p1440
I28
sS'need'
p1441
I32
sS'bad.\xe2\x80\xa6'
p1442
I46
sS'she'
p1443
I43
sS'sayings'
p1444
I46
sS'ejercer'
p1445
I46
sS'skittles'
p1446
I46
sS'best..\xe2\x99\xa1'
p1447
I46
sS'able'
p1448
I46
sS'mid'
p1449
I46
sS'bourne'
p1450
I46
sS'luisa'
p1451
I46
sS'bus'
p1452
I46
sS'='
p1453
I46
sS'who'
p1454
I43
sS"where's"
p1455
I46
sS'intentions'
p1456
I46
sS'**'
p1457
I45
sS'awe'
p1458
I46
sS'why'
p1459
I37
sS'barista'
p1460
I46
sS'breh'
p1461
I46
sS'fuckkkkk'
p1462
I46
sS'face'
p1463
I46
sS"you'll"
p1464
I44
sS'fuuuuuuuuuuck'
p1465
I46
sS'birthday.\xe2\x99\xa1the'
p1466
I46
sS'skinny'
p1467
I45
sS'painting'
p1468
I46
sS'meekins'
p1469
I46
sS'son'
p1470
I46
sS'text'
p1471
I44
sS'bring'
p1472
I45
sS'guey'
p1473
I46
sS'planning'
p1474
I46
sS'pleased'
p1475
I46
sS'sheriff'
p1476
I46
sS'('
p1477
I43
sS'should'
p1478
I44
sS'91505'
p1479
I46
sS'hope'
p1480
I45
sS'watching'
p1481
I42
sS'bear'
p1482
I46
sS'tbh'
p1483
I44
sS'ones'
p1484
I46
sS'words'
p1485
I46
sS'calling'
p1486
I46
sS'stuff'
p1487
I44
sS'atenttion'
p1488
I46
sS'fixed'
p1489
I46
sS'prayers'
p1490
I46
sS'eveeer'
p1491
I46
sS'we'
p1492
I40
sS'buzzed'
p1493
I46
sS'closet'
p1494
I46
sS'twitaaaa'
p1495
I46
sS'genius'
p1496
I46
sS'carolla'
p1497
I46
sS'bought'
p1498
I46
sS'trynna'
p1499
I44
sS'amen'
p1500
I46
sS'job'
p1501
I41
sS'spoil'
p1502
I46
sS'figured'
p1503
I46
sS'wilbur'
p1504
I46
sS'wiggle'
p1505
I44
sS'joke'
p1506
I46
sS'taking'
p1507
I46
sS':*'
p1508
I46
sS'.\xe2\x99\xa5'
p1509
I46
sS'co'
p1510
I46
sS'wall'
p1511
I45
sS'tuesday'
p1512
I46
sS'teasing'
p1513
I46
sS'cx'
p1514
I46
sS'laugh'
p1515
I46
sS'news'
p1516
I46
sS'respect'
p1517
I46
sS'labor'
p1518
I46
sS'yay'
p1519
I45
sS'rarley'
p1520
I45
sS"it's"
p1521
I27
sS'slowly'
p1522
I46
sS'bby'
p1523
I44
sS'bbq'
p1524
I46
sS'>'
p1525
I46
sS'-.-'
p1526
I45
sS'-./'
p1527
I46
sS'stuoid'
p1528
I46
sS'birthday.i'
p1529
I46
sS'mega'
p1530
I46
sS'value'
p1531
I46
sS'pshh'
p1532
I46
sS'will'
p1533
I42
sS'ohkay'
p1534
I46
sS'ounk'
p1535
I46
sS'evelyn'
p1536
I46
sS'lust'
p1537
I46
sS'ministries)'
p1538
I46
sS'ave'
p1539
I46
sS'blissful'
p1540
I46
sS'dam'
p1541
I46
sS'party'
p1542
I46
sS'gets'
p1543
I44
sS'tomatoes'
p1544
I46
sS'upon'
p1545
I46
sS'beast'
p1546
I46
sS'fucken'
p1547
I40
sS'fucked'
p1548
I45
sS'//'
p1549
I46
sS'off'
p1550
I43
sS'i'
p1551
I2
sS'well'
p1552
I45
sS'thought'
p1553
I43
sS'usual'
p1554
I46
sS'cried'
p1555
I46
sS'moments'
p1556
I46
sS'boyfrieend'
p1557
I46
sS'wed'
p1558
I46
sS'realize'
p1559
I46
sS'book'
p1560
I46
sS'kick'
p1561
I45
sS'depends'
p1562
I46
sS'presa'
p1563
I46
sS"who's"
p1564
I42
sS'know'
p1565
I32
sS'.but'
p1566
I46
sS'like'
p1567
I21
sS'lost'
p1568
I45
sS'candy'
p1569
I46
sS'clutch'
p1570
I46
sS'mhs'
p1571
I45
sS'chocolatemilk'
p1572
I46
sS'because'
p1573
I39
sS'classical'
p1574
I46
sS'tumble'
p1575
I46
sS'scared'
p1576
I46
sS'searching'
p1577
I46
sS'hair'
p1578
I42
sS'choosing'
p1579
I46
sS'home'
p1580
I41
sS'twitaaa'
p1581
I46
sS'10600'
p1582
I46
sS'does'
p1583
I44
sS'happend'
p1584
I46
sS'earrings'
p1585
I46
sS'leader'
p1586
I46
sS'dcc'
p1587
I46
sS'about'
p1588
I37
sS'getting'
p1589
I41
sS'swear'
p1590
I46
sS'sweat'
p1591
I45
sS'own'
p1592
I46
sS'chula'
p1593
I46
sS'haha\xe2\x80\x9d'
p1594
I46
sS'doesnt'
p1595
I46
sS'roads'
p1596
I46
sS'173363636'
p1597
I46
sS'kidding'
p1598
I44
sS'illuminati'
p1599
I46
sS'naturally'
p1600
I46
sS'buy'
p1601
I44
sS'ohhhhhhhh'
p1602
I46
sS"i've"
p1603
I41
sS'hs'
p1604
I45
sS'bitches'
p1605
I43
sS'but'
p1606
I25
sS'reminds'
p1607
I46
sS'hi'
p1608
I46
sS'ughhh'
p1609
I46
sS'eat'
p1610
I42
sS'he'
p1611
I39
sS'made'
p1612
I44
sS'wish'
p1613
I41
sS'j'
p1614
I46
sS'dmx'
p1615
I45
sS'problem'
p1616
I45
sS'jenny'
p1617
I46
sS'recognize'
p1618
I46
sS'universal'
p1619
I46
sS'kisses'
p1620
I45
sS'"glaucoma"'
p1621
I46
sS'ew'
p1622
I45
sS'inc'
p1623
I46
sS'twinkieee'
p1624
I46
sS'smears'
p1625
I46
sS'other'
p1626
I45
sS'details'
p1627
I46
sS'junk'
p1628
I46
sS'repeat'
p1629
I46
sS'class'
p1630
I46
sS'stay'
p1631
I43
sS'sandwhich'
p1632
I46
sS'kinda'
p1633
I43
sS'friends'
p1634
I44
sS'sass'
p1635
I46
sS'nervoussss'
p1636
I46
sS'yeaar'
p1637
I46
sS'lives'
p1638
I46
s.