(dp0
S''
p1
I1
sS'four'
p2
I132
sS'hunnydrip'
p3
I132
sS"friend's"
p4
I131
sS'jahaja'
p5
I132
sS'18:27:21.0,33.98542599,-118.25375768,5328,boutta'
p6
I132
sS'picky.\xe2\x80\x9d'
p7
I132
sS'do!,90001\n417103625756749824,bobbyy0809,2013-12-29'
p8
I132
sS'breakfest,90001\n456328149513404416,thatonenigga13,2014-04-16'
p9
I132
sS'hahhahaha'
p10
I132
sS'bitchh'
p11
I131
sS'lord'
p12
I131
sS'callin'
p13
I131
sS'goalieee'
p14
I132
sS'crackin'
p15
I132
sS'screaming'
p16
I131
sS'wednesday'
p17
I131
sS'oooo'
p18
I131
sS'straight'
p19
I123
sS'01:58:49.0,33.986286,-118.2494305,5328,why'
p20
I132
sS'bill'
p21
I132
sS'tired'
p22
I102
sS'second'
p23
I128
sS'shmob'
p24
I132
sS'errors'
p25
I132
sS'hicistes'
p26
I132
sS'fingers'
p27
I131
sS'me,90001\n455618599667785728,thatonenigga13,2014-04-14'
p28
I132
sS'groupie'
p29
I131
sS'05:42:36.0,33.98539714,-118.25376788,5328,lmfao'
p30
I132
sS'donalds'
p31
I132
sS'suga'
p32
I131
sS'here'
p33
I85
sS'\xe2\x9d\xa4\xef\xb8\x8f'
p34
I125
sS'nawt'
p35
I132
sS'china'
p36
I132
sS'chino'
p37
I132
sS'kids'
p38
I129
sS'k'
p39
I125
sS'08:35:19.0,33.98527451,-118.25369526,5328,man'
p40
I132
sS"i'd"
p41
I122
sS'karim'
p42
I132
sS'\xe2\x9c\x94\xef\xb8\x8f'
p43
I132
sS'military'
p44
I132
sS"i'm"
p45
I10
sS'10:00:31.0,33.98528014,-118.25370514,5328,no'
p46
I132
sS'replace'
p47
I132
sS'dna'
p48
I132
sS'hoe,90001\n456697013996777473,thatonenigga13,2014-04-17'
p49
I132
sS'music'
p50
I123
sS'strike'
p51
I132
sS'roshes'
p52
I132
sS'until'
p53
I126
sS'nyquil'
p54
I132
sS'females'
p55
I125
sS'holy'
p56
I132
sS'relax'
p57
I132
sS'successful'
p58
I130
sS'subtweet'
p59
I132
sS'hurt'
p60
I121
sS'glass'
p61
I132
sS'hole'
p62
I132
sS'hold'
p63
I128
sS'hola'
p64
I131
sS'listenin'
p65
I131
sS'locked'
p66
I131
sS'ya,90001\n456668425968824320,thatonenigga13,2014-04-17'
p67
I132
sS'best,90001\n457642318850318337,thatonenigga13,2014-04-19'
p68
I132
sS'table'
p69
I127
sS'want'
p70
I43
sS'night,90001\n457431972193640448,thatonenigga13,2014-04-19'
p71
I132
sS'09:19:57.0,33.98525688,-118.25384828,5328,feel'
p72
I132
sS'preferably'
p73
I132
sS'hoe'
p74
I117
sS'cry,90001\n454677579048300545,thatonenigga13,2014-04-11'
p75
I132
sS'complaining'
p76
I132
sS'hol'
p77
I131
sS'?"....no'
p78
I132
sS'how'
p79
I64
sS'hot'
p80
I85
sS'hop'
p81
I131
sS',90001\n455166192416587777,thatonenigga13,2014-04-13'
p82
I132
sS'cheetah'
p83
I132
sS'hi'
p84
I120
sS'footloose'
p85
I132
sS'hoy'
p86
I132
sS'goober'
p87
I132
sS'me,90001\n454639427994669056,thatonenigga13,2014-04-11'
p88
I132
sS'cervezas'
p89
I132
sS'lebnen'
p90
I131
sS'06:04:51.0,33.98535184,-118.25377343,5328,yesssss'
p91
I132
sS'wrong'
p92
I124
sS'destinee'
p93
I131
sS"16:47:04.0,33.98539796,-118.25378794,5328,didn't"
p94
I132
sS'types'
p95
I132
sS'09:07:53.0,33.98556773,-118.25348603,5328,dam'
p96
I132
sS'calves'
p97
I132
sS'wins'
p98
I131
sS'cigarettes'
p99
I132
sS'keeps'
p100
I131
sS'distance,90001\n456592208452284417,thatonenigga13,2014-04-17'
p101
I132
sS'wine'
p102
I132
sS'blind'
p103
I132
sS'15:54:34.0,33.98539846,-118.2538291,5328,3'
p104
I132
sS'dreamed'
p105
I132
sS'imfao'
p106
I132
sS'fit'
p107
I132
sS'7elwen'
p108
I132
sS'fix'
p109
I131
sS'diffrent'
p110
I132
sS'uon'
p111
I132
sS'nopeee'
p112
I132
sS"08:41:09.0,33.98515481,-118.2535941,5328,i'm"
p113
I132
sS'addicted'
p114
I132
sS'cuffin'
p115
I132
sS'snakes'
p116
I132
sS'turnin'
p117
I132
sS'bowls'
p118
I126
sS'thugs,90001\n455623666827399168,thatonenigga13,2014-04-14'
p119
I132
sS',90001\n455997425144967168,thatonenigga13,2014-04-15'
p120
I132
sS'ring'
p121
I132
sS'rt'
p122
I126
sS'neff'
p123
I131
sS'ride,90001\n456679426676109313,thatonenigga13,2014-04-17'
p124
I132
sS'smo'
p125
I132
sS'ra'
p126
I131
sS'smh'
p127
I73
sS'rn'
p128
I88
sS'lmao,90001\n455270767555399680,thatonenigga13,2014-04-13'
p129
I132
sS'niggas,90001\n457636058243416064,thatonenigga13,2014-04-19'
p130
I132
sS'metallica'
p131
I132
sS'tricks"'
p132
I132
sS'ate'
p133
I122
sS'atb'
p134
I128
sS'dayum'
p135
I132
sS'mines,90001\n457037075649294336,thatonenigga13,2014-04-18'
p136
I132
sS'heading'
p137
I132
sS'10:17:35.0,33.98540847,-118.25379347,5328,i'
p138
I132
sS"today's"
p139
I129
sS'creepin'
p140
I132
sS'17%'
p141
I132
sS'canelo'
p142
I132
sS'weekdays'
p143
I132
sS'channels'
p144
I132
sS'kfc'
p145
I130
sS'basketball'
p146
I132
sS'service'
p147
I127
sS'lawsuits'
p148
I132
sS'diieeee'
p149
I132
sS'needed'
p150
I132
sS"06:21:40.0,33.98526234,-118.25366194,5328,don't"
p151
I132
sS'legs'
p152
I132
sS'easy-'
p153
I132
sS'listen'
p154
I129
sS'miller-'
p155
I131
sS'wisdom'
p156
I132
sS'06:41:16.0,33.98544435,-118.25374855,5328,if'
p157
I132
sS'shower'
p158
I126
sS'feeling'
p159
I130
sS'esta'
p160
I131
sS'21:39:38.0,33.98526415,-118.2535617,5328,daaaam'
p161
I132
sS'wash,90001\n454507298627407872,thatonenigga13,2014-04-11'
p162
I132
sS'head,90001\n458535636606017536,thatonenigga13,2014-04-22'
p163
I132
sS'person'
p164
I114
sS'maaaaaan'
p165
I132
sS'committing'
p166
I132
sS'doin'
p167
I114
sS'08:34:51.0,33.98532363,-118.25371419,5328,i'
p168
I132
sS'mouth'
p169
I132
sS"u's"
p170
I132
sS"jackson's"
p171
I132
sS'episode'
p172
I131
sS'ruthless'
p173
I132
sS'tech'
p174
I132
sS'scream'
p175
I132
sS'came'
p176
I111
sS'wtf,90001\n458518423845076992,thatonenigga13,2014-04-22'
p177
I132
sS'saying'
p178
I123
sS'bomb'
p179
I82
sS'20/10'
p180
I132
sS'forsure'
p181
I132
sS'simp'
p182
I130
sS'erday'
p183
I132
sS'bomp'
p184
I132
sS'park,90001\n456032995900547072,thatonenigga13,2014-04-15'
p185
I132
sS'subway.\xe2\x80\x9d'
p186
I132
sS'cousins'
p187
I130
sS'bust'
p188
I132
sS'cole-'
p189
I132
sS'rich'
p190
I127
sS',90001\n454519124714991616,thatonenigga13,2014-04-11'
p191
I132
sS'180'
p192
I132
sS'plate'
p193
I132
sS'18:52:58.0,33.98539844,-118.25346787,5328,,90001\n454330550002536448,thatonenigga13,2014-04-10'
p194
I132
sS'pocket'
p195
I132
sS'sniping'
p196
I132
sS'slidin'
p197
I131
sS'do?\xe2\x80\x9d'
p198
I132
sS'tweetcam'
p199
I132
sS'*cross'
p200
I132
sS'greenz'
p201
I132
sS'04:46:14.0,33.98514964,-118.25388033,5328,i'
p202
I132
sS'bashar'
p203
I132
sS'own,90001\n455823244222660609,thatonenigga13,2014-04-14'
p204
I132
sS'fair'
p205
I132
sS'surprise,90001\n455999514034176000,thatonenigga13,2014-04-15'
p206
I132
sS'goodnight'
p207
I102
sS'thelexy_'
p208
I132
sS'lalito'
p209
I128
sS'erika'
p210
I132
sS'fail'
p211
I132
sS'best'
p212
I102
sS'k.o'
p213
I117
sS'yogurt'
p214
I129
sS'hurt,90001\n455930589208530945,thatonenigga13,2014-04-15'
p215
I132
sS'oomf'
p216
I128
sS'tbh!\xe2\x80\x9d'
p217
I132
sS'nature'
p218
I131
sS'rolled'
p219
I132
sS'felony'
p220
I132
sS'cut'
p221
I130
sS'wtf'
p222
I94
sS'wth'
p223
I131
sS'nahhhh'
p224
I132
sS'roller'
p225
I132
sS'accident'
p226
I132
sS'planned'
p227
I132
sS'lookin'
p228
I119
sS'argue'
p229
I132
sS'asked'
p230
I132
sS'and'
p231
I9
sS'thelouie'
p232
I127
sS'ayeee'
p233
I131
sS'2nd'
p234
I132
sS'active'
p235
I132
sS'lock,90001\n455622232216064001,thatonenigga13,2014-04-14'
p236
I132
sS'blonde'
p237
I129
sS'skatepark'
p238
I131
sS'much'
p239
I93
sS'stadium'
p240
I132
sS'privilege'
p241
I132
sS'parents'
p242
I122
sS',90001\n456013457297395714,thatonenigga13,2014-04-15'
p243
I132
sS'location'
p244
I132
sS'life'
p245
I76
sS'spit'
p246
I131
sS'21:18:58.0,33.98517546,-118.25372178,5328,lmao'
p247
I132
sS'milfs'
p248
I132
sS'snap'
p249
I125
sS'slap'
p250
I130
sS'chile'
p251
I128
sS'worked'
p252
I132
sS'haters'
p253
I130
sS'candycane'
p254
I132
sS'chill'
p255
I121
sS'wwwoooooooooooooh'
p256
I132
sS'day,90001\n456259291146489857,thatonenigga13,2014-04-16'
p257
I132
sS'lately,90001\n454486388784644096,thatonenigga13,2014-04-11'
p258
I132
sS'droppin'
p259
I132
sS'unos'
p260
I132
sS'much,90001\n455613993692844032,thatonenigga13,2014-04-14'
p261
I132
sS'played'
p262
I130
sS'hatfield'
p263
I131
sS'09:06:10.0,33.98527385,-118.25371714,5328,yikessss,90001\n455266338173235200,thatonenigga13,2014-04-13'
p264
I132
sS'player'
p265
I131
sS'thought,90001\n456559659625635841,thatonenigga13,2014-04-16'
p266
I132
sS'piercings'
p267
I132
sS'17:16:15.0,33.98536296,-118.25389992,5328,my'
p268
I132
sS'things'
p269
I122
sS'split'
p270
I132
sS'04:38:24.0,33.98525351,-118.25356997,5328,buy'
p271
I132
sS'fairly'
p272
I132
sS'fool,90001\n455815657410404352,thatonenigga13,2014-04-14'
p273
I132
sS'tops'
p274
I131
sS'tuna'
p275
I132
sS'pullin'
p276
I132
sS'08:10:32.0,33.98545038,-118.25381208,5328,chuck'
p277
I132
sS'burgers'
p278
I132
sS'nomore'
p279
I132
sS'corporate'
p280
I132
sS'sleeps'
p281
I130
sS'prometo'
p282
I132
sS'sleepy'
p283
I102
sS'08:44:29.0,33.9854226,-118.25379138,5328,finna'
p284
I132
sS'previous'
p285
I132
sS'hah'
p286
I132
sS'tweetin,90001\n455622789454516224,thatonenigga13,2014-04-14'
p287
I132
sS'ease'
p288
I131
sS'had'
p289
I80
sS'innocent'
p290
I132
sS'has'
p291
I109
sS'hat'
p292
I132
sS'knock'
p293
I127
sS'possible'
p294
I130
sS'06:52:02.0,33.98563403,-118.25370966,5328,ando'
p295
I132
sS'possibly'
p296
I132
sS'rocket'
p297
I132
sS'birth'
p298
I131
sS'sleep"'
p299
I132
sS'd'
p300
I124
sS'loooool'
p301
I132
sS'remind'
p302
I132
sS'bookoo'
p303
I132
sS'beneficial'
p304
I132
sS'right'
p305
I84
sS'old'
p306
I123
sS'people'
p307
I67
sS"19:16:34.0,33.98521218,-118.25353672,5328,don't"
p308
I132
sS'fuuuuck'
p309
I132
sS'creep'
p310
I130
sS'for'
p311
I20
sS'bottom'
p312
I131
sS'khalesna'
p313
I132
sS',90001\n454284786421334017,thatonenigga13,2014-04-10'
p314
I132
sS'fox'
p315
I132
sS'09:34:06.0,33.9851541,-118.25377481,5328,i'
p316
I132
sS'umm'
p317
I130
sS'foo'
p318
I124
sS'06:32:38.0,33.98514735,-118.25363527,5328,he'
p319
I132
sS'agust\xc3\xadn'
p320
I132
sS'shaker'
p321
I132
sS'shakes'
p322
I132
sS'lol,90001\n417102131103928321,bobbyy0809,2013-12-29'
p323
I132
sS'dyin'
p324
I132
sS'dollars'
p325
I131
sS'o'
p326
I129
sS'twitter*\xe2\x80\x9d'
p327
I132
sS'lakais'
p328
I132
sS'17:19:30.0,33.98517192,-118.25361829,5328,you'
p329
I132
sS'virgo,90001\n458491635307778048,thatonenigga13,2014-04-22'
p330
I132
sS'trueeeeeeeee'
p331
I132
sS'soo'
p332
I132
sS'son'
p333
I125
sS'soy'
p334
I132
sS'mamba'
p335
I132
sS'waaaaaaaaaaay'
p336
I132
sS'50s.,90001\n454642686213910530,thatonenigga13,2014-04-11'
p337
I132
sS'support'
p338
I132
sS'tams'
p339
I119
sS'happy'
p340
I117
sS'08:32:31.0,33.98528919,-118.25366912,5328,tss'
p341
I132
sS'09:09:00.0,33.98526752,-118.2537431,5328,you'
p342
I132
sS'ratito'
p343
I132
sS'melanie'
p344
I132
sS'inside'
p345
I130
sS'nicest'
p346
I131
sS'later'
p347
I123
sS'tournament'
p348
I132
sS'gemini'
p349
I132
sS'exist'
p350
I131
sS'02:58:01.0,33.98551177,-118.25360652,5328,dam'
p351
I132
sS'hollas'
p352
I132
sS'18:34:04.0,33.9850644,-118.25405943,5328,carla'
p353
I132
sS'posting'
p354
I132
sS'mariscos'
p355
I131
sS'00:41:41.0,33.98516956,-118.25353428,5328,got'
p356
I132
sS'floor'
p357
I131
sS'duende'
p358
I132
sS'smell'
p359
I130
sS'roll'
p360
I132
sS'man,90001\n455550691163906048,thatonenigga13,2014-04-14'
p361
I132
sS'reggae'
p362
I130
sS"'s"
p363
I132
sS'models'
p364
I132
sS'tastes,90001\n456693777042653184,thatonenigga13,2014-04-17'
p365
I132
sS'snooze'
p366
I132
sS'sendin'
p367
I132
sS'grubbing'
p368
I131
sS'time'
p369
I71
sS'push'
p370
I132
sS':/'
p371
I123
sS':('
p372
I107
sS':)'
p373
I122
sS'chain'
p374
I132
sS'whoever'
p375
I130
sS'burritos'
p376
I132
sS'skate'
p377
I115
sS'chair'
p378
I132
sS'venice'
p379
I132
sS'vez'
p380
I131
sS'97'
p381
I132
sS'followin'
p382
I132
sS'06:35:30.0,33.98509239,-118.25390238,5328,my'
p383
I132
sS':l'
p384
I132
sS':o'
p385
I131
sS'inshala'
p386
I132
sS':x'
p387
I132
sS'lrt'
p388
I132
sS'stays'
p389
I131
sS'exact'
p390
I131
sS'minute'
p391
I130
sS'cooks'
p392
I132
sS'tear'
p393
I129
sS'leave'
p394
I125
sS'subway'
p395
I128
sS'hittin'
p396
I130
sS'team'
p397
I127
sS'bonfire'
p398
I132
sS'19:12:38.0,33.98535201,-118.253655,5328,yo'
p399
I132
sS'tams,90001\n456298007521017856,thatonenigga13,2014-04-16'
p400
I132
sS',90001\n457776399554600960,thatonenigga13,2014-04-20'
p401
I132
sS'01:05:27.0,33.98551853,-118.25380018,5328,full'
p402
I132
sS'sign'
p403
I131
sS'lol,90001\n454691261341921281,thatonenigga13,2014-04-11'
p404
I132
sS'shirts'
p405
I131
sS'current'
p406
I132
sS'remembered'
p407
I131
sS'03:31:10.0,33.9854358,-118.25382642,5328,ima'
p408
I132
sS'freaks'
p409
I132
sS'falling'
p410
I129
sS'freaky'
p411
I130
sS'happens,90001\n456259655711223808,thatonenigga13,2014-04-16'
p412
I132
sS'lates,90001\n457772994505355266,thatonenigga13,2014-04-20'
p413
I132
sS'reliable,90001\n456624054623944706,thatonenigga13,2014-04-17'
p414
I132
sS'contemplate'
p415
I131
sS'fuck,90001\n457619068883697664,thatonenigga13,2014-04-19'
p416
I132
sS'address'
p417
I130
sS'alone'
p418
I128
sS'08:34:14.0,33.98536464,-118.25382616,5328,i'
p419
I132
sS'brilliant'
p420
I132
sS'kcal'
p421
I132
sS'love'
p422
I41
sS'bloods'
p423
I131
sS'bruh\xe2\x80\x9d'
p424
I132
sS'prefer'
p425
I129
sS'bloody'
p426
I132
sS'fake'
p427
I128
sS'working'
p428
I124
sS'angry'
p429
I132
sS'waterand'
p430
I132
sS'wondering'
p431
I132
sS'ignorant'
p432
I132
sS'scratches'
p433
I132
sS'duhhhh'
p434
I132
sS'kendrick'
p435
I132
sS'following'
p436
I130
sS'whaaaaa'
p437
I132
sS'21:01:41.0,33.98522143,-118.2535045,5328,ha'
p438
I132
sS'concepto.,90001\n492545665495359488,r__y__c__h__,2014-07-25'
p439
I132
sS'awesome'
p440
I130
sS'voces'
p441
I132
sS'06:48:44.0,33.98546887,-118.25383756,5328,only'
p442
I132
sS'winter'
p443
I131
sS'realllyy'
p444
I132
sS'08:23:54.0,33.98541962,-118.25377302,5328,getting'
p445
I132
sS'22:38:21.0,33.98549343,-118.25383354,5328,hey'
p446
I132
sS'snaps'
p447
I131
sS'spot'
p448
I130
sS'lock-'
p449
I132
sS'applications'
p450
I132
sS'cielo'
p451
I132
sS'date'
p452
I129
sS'such'
p453
I131
sS'suck'
p454
I127
sS'dove'
p455
I132
sS'stress'
p456
I131
sS'natural'
p457
I132
sS'whyyyyy'
p458
I132
sS'sr'
p459
I130
sS'st'
p460
I132
sS'sk'
p461
I132
sS'so'
p462
I30
sS'haterade'
p463
I132
sS'god,90001\n457436726957314048,thatonenigga13,2014-04-19'
p464
I132
sS'sc'
p465
I130
sS'pulled'
p466
I131
sS'travel'
p467
I132
sS'se'
p468
I131
sS'years'
p469
I121
sS'course'
p470
I131
sS'kanye'
p471
I131
sS'jaiva'
p472
I132
sS'clubbing'
p473
I132
sS'tory'
p474
I132
sS'smarter'
p475
I131
sS'feelin'
p476
I117
sS'ahaha'
p477
I132
sS'shhh'
p478
I132
sS'pesados'
p479
I132
sS'ysscrolling'
p480
I132
sS'08:32:48.0,33.98536413,-118.25384209,5328,pain'
p481
I132
sS'bowling'
p482
I130
sS'square'
p483
I132
sS'honduras'
p484
I132
sS'lowkey'
p485
I126
sS'females,90001\n457419585633804288,thatonenigga13,2014-04-19'
p486
I132
sS'crushing'
p487
I131
sS'feeeet'
p488
I132
sS'boosie'
p489
I131
sS'sexually'
p490
I131
sS'hermano.,90001\n493563947375525888,r__y__c__h__,2014-07-28'
p491
I132
sS'02:10:18.0,33.98544066,-118.25358901,5328,my'
p492
I132
sS'beauty'
p493
I132
sS'free,90001\n455201381356298240,thatonenigga13,2014-04-13'
p494
I132
sS'seriously'
p495
I126
sS'herbabuena'
p496
I128
sS'smalls'
p497
I132
sS'million'
p498
I130
sS'disrespect'
p499
I131
sS'complicated'
p500
I132
sS'gta5'
p501
I132
sS'bit,90001\n457778262929051648,thatonenigga13,2014-04-20'
p502
I132
sS'artistes'
p503
I132
sS'bombest'
p504
I131
sS'punk'
p505
I131
sS'benching'
p506
I132
sS'mucha'
p507
I132
sS'brother-antonio'
p508
I132
sS'ona'
p509
I126
sS"girlfriend's"
p510
I132
sS'jajajajaja,90001\n493564760844038145,r__y__c__h__,2014-07-28'
p511
I132
sS'mucho'
p512
I132
sS'05:39:20.0,33.98526591,-118.25349329,5328,she'
p513
I132
sS'spanish'
p514
I129
sS'open'
p515
I128
sS'city'
p516
I132
sS'sayed'
p517
I132
sS'bite'
p518
I132
sS'bf,90001\n455955777711112192,thatonenigga13,2014-04-15'
p519
I132
sS'guadalupe'
p520
I132
sS'fml'
p521
I129
sS'2'
p522
I89
sS'draft'
p523
I132
sS'sayer'
p524
I132
sS'williams'
p525
I132
sS'06:41:39.0,33.98537017,-118.25383974,5328,chillin'
p526
I132
sS'fashoo'
p527
I132
sS'fooled'
p528
I132
sS'boyfriend'
p529
I131
sS'boxin'
p530
I132
sS'rehab'
p531
I132
sS'future'
p532
I129
sS"02:44:17.0,33.98529694,-118.25360056,5328,i'm"
p533
I132
sS'russia'
p534
I131
sS'tasted'
p535
I131
sS'sam'
p536
I129
sS'turned'
p537
I129
sS'sad'
p538
I117
sS'tastes'
p539
I131
sS'turner'
p540
I132
sS'saw'
p541
I127
sS'uuuuup'
p542
I132
sS'lately,90001\n456688645546586112,thatonenigga13,2014-04-17'
p543
I132
sS'*bomb'
p544
I132
sS'take'
p545
I85
sS'wanting'
p546
I126
sS'friends,90001\n456679566728118273,thatonenigga13,2014-04-17'
p547
I132
sS'pimple'
p548
I132
sS'fuckkin'
p549
I132
sS'knew'
p550
I126
sS'nice"'
p551
I132
sS'islitas)'
p552
I132
sS'knee'
p553
I128
sS'horngry'
p554
I132
sS'lawd'
p555
I132
sS'sale'
p556
I132
sS'salt'
p557
I131
sS'walking'
p558
I130
sS'\xe2\x9c\xa8'
p559
I132
sS'21:22:17.0,33.9854044,-118.25372495,5328,iggy'
p560
I132
sS'peaches'
p561
I132
sS'imagined'
p562
I132
sS'slow'
p563
I128
sS'sativa'
p564
I132
sS'\xe2\x9c\x8b'
p565
I132
sS'crazaaaay'
p566
I132
sS'wut'
p567
I132
sS'robo'
p568
I131
sS'tears'
p569
I132
sS'going'
p570
I74
sS'actin'
p571
I126
sS'carolina'
p572
I132
sS'\xe2\x80\x9cyou\xe2\x80\x99re.\xe2\x80\x9d\xe2\x80\x9d'
p573
I132
sS'assistant'
p574
I132
sS'whaaat'
p575
I132
sS"02:31:50.0,33.98544146,-118.25422958,5328,i'm"
p576
I132
sS'borrow'
p577
I130
sS'awwwww'
p578
I132
sS'worried'
p579
I131
sS"could've"
p580
I132
sS'where'
p581
I97
sS'snapback'
p582
I132
sS'here!-.-'
p583
I132
sS'notice'
p584
I125
sS'gangster'
p585
I132
sS'anyways'
p586
I132
sS'babe\xe2\x80\x9d'
p587
I132
sS'jumped'
p588
I131
sS'hurts,90001\n458672585610637312,thatonenigga13,2014-04-22'
p589
I132
sS'fiffa'
p590
I131
sS'gozatelo'
p591
I132
sS'yesterday,90001\n458763017736318977,thatonenigga13,2014-04-23'
p592
I132
sS'fyna'
p593
I132
sS'screen'
p594
I131
sS'dome'
p595
I130
sS'lmao,90001\n455994508455321600,thatonenigga13,2014-04-15'
p596
I132
sS'busting'
p597
I132
sS'manu'
p598
I132
sS'many'
p599
I115
sS'06:43:34.0,33.98536497,-118.2538234,5328,smoked'
p600
I132
sS"15:04:02.0,33.98531363,-118.25368384,5328,i'm"
p601
I132
sS'chorizo'
p602
I132
sS"can't"
p603
I65
sS'ohhhtay'
p604
I132
sS'5jointes'
p605
I132
sS'nooooo'
p606
I132
sS'twin'
p607
I130
sS'face,90001\n455551050137616385,thatonenigga13,2014-04-14'
p608
I132
sS'ante'
p609
I132
sS'cramps'
p610
I131
sS'stretch'
p611
I132
sS'west'
p612
I132
sS'04:06:40.0,33.98531125,-118.25369376,5328,gunnuh'
p613
I132
sS'wess'
p614
I130
sS',90001\n454717648643710976,thatonenigga13,2014-04-11'
p615
I132
sS'pesos,90001\n455084152883130369,thatonenigga13,2014-04-12'
p616
I132
sS'wants'
p617
I125
sS'thousand'
p618
I132
sS'snitching'
p619
I132
sS'tightened'
p620
I128
sS'bonjour'
p621
I132
sS'runnin'
p622
I129
sS'straighten'
p623
I132
sS'happens,90001\n457412113355378689,thatonenigga13,2014-04-19'
p624
I132
sS'situation'
p625
I131
sS'purse'
p626
I132
sS'bros'
p627
I132
sS'blah'
p628
I130
sS'05:59:16.0,33.98538966,-118.25387335,5328,been'
p629
I132
sS'fame'
p630
I132
sS'02:39:36.0,33.98538113,-118.25373973,5328,buying'
p631
I132
sS'thinkin'
p632
I124
sS'rakasja'
p633
I132
sS'ryda,90001\n455620699936153600,thatonenigga13,2014-04-14'
p634
I132
sS'downs'
p635
I132
sS'wires'
p636
I132
sS'07:42:22.0,33.98540768,-118.25379398,5328,this'
p637
I132
sS'cheers'
p638
I132
sS'barber'
p639
I132
sS'advertisement'
p640
I132
sS'idont'
p641
I132
sS'nothin'
p642
I121
sS'22:10:28.0,33.98545571,-118.25373212,5328,just'
p643
I132
sS'flocka'
p644
I132
sS'summer'
p645
I124
sS'(x'
p646
I131
sS'05:16:53.0,33.98533589,-118.25390923,5328,high'
p647
I132
sS'wannna'
p648
I132
sS'being'
p649
I101
sS'rest'
p650
I128
sS'munchies,90001\n457773600968151040,thatonenigga13,2014-04-20'
p651
I132
sS'afterwards'
p652
I132
sS'khalas'
p653
I132
sS',90001\n458456830100795393,thatonenigga13,2014-04-22'
p654
I132
sS'grounded'
p655
I132
sS'09:00:09.0,33.98529913,-118.25380831,5328,yo'
p656
I132
sS'color'
p657
I132
sS'lamar-'
p658
I132
sS'around'
p659
I105
sS'sums'
p660
I132
sS'dark'
p661
I117
sS',90001\n457709554944323584,thatonenigga13,2014-04-20'
p662
I132
sS'sabritas'
p663
I132
sS'traffic'
p664
I132
sS'world'
p665
I120
sS'vague'
p666
I132
sS'dick"'
p667
I132
sS'dayuuuuuum'
p668
I132
sS'learning'
p669
I132
sS'lebanon'
p670
I132
sS'varsity\xe2\x80\xa6'
p671
I132
sS'playin'
p672
I123
sS';o'
p673
I132
sS'thinks'
p674
I130
sS'scholarships'
p675
I132
sS'memories'
p676
I131
sS'exit'
p677
I132
sS'flockin'
p678
I132
sS'transformers'
p679
I132
sS'power'
p680
I130
sS'booooo'
p681
I132
sS'17:15:51.0,33.98527937,-118.25357656,5328,my'
p682
I132
sS'throwback'
p683
I130
sS'hollands'
p684
I132
sS'trueeeee'
p685
I132
sS'favorite'
p686
I125
sS'neighbor'
p687
I130
sS'act'
p688
I121
sS'luck'
p689
I131
sS'iphone\xe2\x80\x9d'
p690
I132
sS'parties'
p691
I126
sS'wadsworth'
p692
I132
sS'15:30:37.0,33.98538978,-118.25383907,5328,actin'
p693
I132
sS'you,90001\n456702037644673024,thatonenigga13,2014-04-17'
p694
I132
sS'her'
p695
I66
sS'hes'
p696
I132
sS'hey'
p697
I119
sS'lmfaooo'
p698
I132
sS'cops"\xe2\x80\x9d'
p699
I132
sS'hem'
p700
I132
sS'hen'
p701
I132
sS'bubble'
p702
I132
sS'rft,90001\n455579448700452864,thatonenigga13,2014-04-14'
p703
I132
sS'hek'
p704
I129
sS'furthest'
p705
I132
sS'yayy'
p706
I130
sS'with'
p707
I27
sS'08:08:33.0,33.98546895,-118.25378501,5328,ima'
p708
I132
sS'pull'
p709
I127
sS'october'
p710
I130
sS'darlah'
p711
I130
sS'rage'
p712
I132
sS"09:01:52.0,33.98524674,-118.25376024,5328,won't"
p713
I132
sS'taught'
p714
I132
sS'jamaican'
p715
I130
sS'dirty'
p716
I129
sS'agree'
p717
I132
sS'asss'
p718
I132
sS'gone'
p719
I128
sS'ac'
p720
I131
sS'ab'
p721
I132
sS'brotherly'
p722
I132
sS'af'
p723
I102
sS'exhausted'
p724
I132
sS'ah'
p725
I131
sS'stealing'
p726
I131
sS'am'
p727
I103
sS'al'
p728
I131
sS'watches'
p729
I132
sS'bs.,90001\n455188916757229568,thatonenigga13,2014-04-13'
p730
I132
sS'ckhkillink'
p731
I132
sS'ap'
p732
I128
sS'yall,90001\n455548629088874496,thatonenigga13,2014-04-14'
p733
I132
sS'at'
p734
I34
sS'aw'
p735
I128
sS'ay'
p736
I132
sS'watched'
p737
I129
sS'20:22:29.0,33.98586839,-118.2532893,5328,i'
p738
I132
sS'no?,90001\n455732442024792064,thatonenigga13,2014-04-14'
p739
I132
sS'graduate'
p740
I130
sS'tight'
p741
I129
sS'summit'
p742
I130
sS'someones'
p743
I132
sS'puppy'
p744
I132
sS'pedir'
p745
I132
sS'07:35:51.0,33.98534653,-118.25383949,5328,these'
p746
I132
sS'a1'
p747
I132
sS'trending'
p748
I132
sS',90001\n458760885717438464,thatonenigga13,2014-04-23'
p749
I132
sS'snitch'
p750
I130
sS'08:37:15.0,33.98510249,-118.25399311,5328,you'
p751
I132
sS'friends,90001\n454363612644012032,thatonenigga13,2014-04-10'
p752
I132
sS'masa'
p753
I123
sS'pfft,90001\n455581048147943425,thatonenigga13,2014-04-14'
p754
I132
sS'tricks'
p755
I129
sS'hello'
p756
I132
sS'999999999999'
p757
I132
sS'gay\xe2\x98\xba\xef\xb8\x8f'
p758
I132
sS'hunting'
p759
I132
sS'tv'
p760
I129
sS'baddest'
p761
I131
sS'tu'
p762
I124
sS'02:10:19.0,33.9854231,-118.25384335,5328,bendita'
p763
I132
sS'riots'
p764
I132
sS'to'
p765
I3
sS'tl'
p766
I132
sS'me,90001\n456693672898473985,thatonenigga13,2014-04-17'
p767
I132
sS'dressing'
p768
I132
sS'tf'
p769
I113
sS'smile'
p770
I115
sS'te'
p771
I127
sS'tb'
p772
I130
sS'case'
p773
I132
sS'appointment'
p774
I132
sS'checkin'
p775
I132
sS'19:18:54.0,33.9853162,-118.25350944,5328,some'
p776
I132
sS'tatted'
p777
I125
sS'laying'
p778
I131
sS'pbb'
p779
I131
sS'small'
p780
I129
sS'dodger'
p781
I132
sS'dms,90001\n456733940003241984,thatonenigga13,2014-04-17'
p782
I132
sS'06:25:08.0,33.98530655,-118.25383136,5328,need'
p783
I132
sS'past'
p784
I128
sS'easter,90001\n457929316664221696,thatonenigga13,2014-04-20'
p785
I132
sS'pass'
p786
I127
sS'trick'
p787
I132
sS'fucks'
p788
I124
sS'burgundy'
p789
I132
sS'though,90001\n455622163110699008,thatonenigga13,2014-04-14'
p790
I132
sS'lol,90001\n454669269322563584,thatonenigga13,2014-04-11'
p791
I132
sS'full'
p792
I121
sS'hash'
p793
I132
sS'fave'
p794
I132
sS'hours'
p795
I121
sS'bloggers'
p796
I132
sS"hol'up"
p797
I132
sS'november'
p798
I132
sS'wainoooo'
p799
I132
sS'pics'
p800
I120
sS'pico'
p801
I132
sS'pick'
p802
I114
sS'action'
p803
I132
sS"would've"
p804
I132
sS'fuck"'
p805
I132
sS'followed'
p806
I130
sS'*shrek'
p807
I132
sS'vid'
p808
I132
sS'escuchar'
p809
I132
sS'traumatized'
p810
I132
sS'follower'
p811
I132
sS'5aloni'
p812
I132
sS'parties"'
p813
I132
sS'gosh'
p814
I132
sS'07:25:50.0,33.98522701,-118.25371561,5328,got'
p815
I132
sS'iglesias'
p816
I132
sS'that,90001\n457641666828967936,thatonenigga13,2014-04-19'
p817
I132
sS',90001\n455995365997555712,thatonenigga13,2014-04-15'
p818
I132
sS'pearl'
p819
I132
sS'fattys'
p820
I132
sS'6'
p821
I128
sS'03:54:55.0,33.9854689,-118.25358308,5328,ina'
p822
I132
sS'more'
p823
I81
sS'nomas'
p824
I132
sS'door'
p825
I129
sS'chucky'
p826
I132
sS"10:16:21.0,33.98517302,-118.2538246,5328,haven't"
p827
I132
sS'company'
p828
I132
sS'l.e.s'
p829
I132
sS'chucks'
p830
I132
sS'bitin'
p831
I132
sS'keeping'
p832
I130
sS'science'
p833
I132
sS'1:10'
p834
I132
sS'mall'
p835
I131
sS'learn'
p836
I129
sS'knocked'
p837
I128
sS'male'
p838
I132
sS'bajam'
p839
I132
sS'mala'
p840
I132
sS'beautiful'
p841
I131
sS'accept'
p842
I131
sS'sike'
p843
I126
sS'sense'
p844
I130
sS'guess?,90001\n454465261442064384,thatonenigga13,2014-04-11'
p845
I132
sS'hugo'
p846
I132
sS'hugs'
p847
I132
sS'20:28:30.0,33.98539184,-118.25381485,5328,gunnuh'
p848
I132
sS'plans'
p849
I131
sS'waves'
p850
I132
sS'backyard'
p851
I132
sS'09:51:39.0,33.98535079,-118.25367102,5328,some'
p852
I132
sS'-50'
p853
I132
sS'rowdy'
p854
I132
sS'volleyball'
p855
I119
sS'mexican'
p856
I131
sS'reminded'
p857
I132
sS'paper'
p858
I130
sS'signs'
p859
I131
sS'smiling'
p860
I131
sS'its'
p861
I102
sS'laced'
p862
I129
sS'licks'
p863
I132
sS'ruining'
p864
I132
sS'tiempos'
p865
I132
sS'intentions.\xe2\x80\x9d'
p866
I132
sS'03:04:38.0,33.98550684,-118.25379892,5328,i'
p867
I132
sS'mood,90001\n454466647512715267,thatonenigga13,2014-04-11'
p868
I132
sS'sucked'
p869
I131
sS'everytime'
p870
I130
sS'always'
p871
I85
sS'21:29:47.0,33.98540068,-118.25377269,5328,got'
p872
I132
sS'subie'
p873
I132
sS'gwiyomi'
p874
I132
sS'found'
p875
I125
sS'19:35:52.0,33.98556015,-118.25358669,5328,this'
p876
I132
sS'gettin'
p877
I121
sS'begged'
p878
I132
sS'throwin'
p879
I132
sS'02:25:05.0,33.98517757,-118.25374808,5328,about'
p880
I132
sS'doses'
p881
I132
sS'really'
p882
I63
sS'missed'
p883
I130
sS'boreeeeeed'
p884
I132
sS'06:37:15.0,33.98536082,-118.25373153,5328,the'
p885
I132
sS'misses'
p886
I131
sS':)\xe2\x80\x9d'
p887
I132
sS'tbh'
p888
I42
sS'23:04:23.0,33.9840039,-118.2506225,5328,sestanpeliande!,90001\n493522088930459648,r__y__c__h__,2014-07-27'
p889
I132
sS'fungsua'
p890
I132
sS'fatass'
p891
I132
sS'clique'
p892
I131
sS',90001\n458467592609357824,thatonenigga13,2014-04-22'
p893
I132
sS'06:00:04.0,33.9853897,-118.25380504,5328,life'
p894
I132
sS'w'
p895
I122
sS'hitting,90001\n454814684814651393,thatonenigga13,2014-04-12'
p896
I132
sS'major'
p897
I130
sS'hopin'
p898
I132
sS'number'
p899
I124
sS'celeb'
p900
I132
sS'guat'
p901
I132
sS'guess'
p902
I111
sS'hott'
p903
I131
sS'become'
p904
I129
sS'a$ap'
p905
I129
sS'essays'
p906
I132
sS'06:05:04.0,33.9852972,-118.2536738,5328,no'
p907
I132
sS'relationship'
p908
I125
sS'3rds'
p909
I132
sS'endlessly'
p910
I132
sS'snupe'
p911
I131
sS'outche'
p912
I132
sS'back,90001\n455566673144082432,thatonenigga13,2014-04-14'
p913
I132
sS'fights'
p914
I132
sS'antarctica'
p915
I132
sS'gooooo\xe2\x80\x9d'
p916
I132
sS'09:05:04.0,33.98534997,-118.25386908,5328,hopefully'
p917
I132
sS'04:20:40.0,33.98536493,-118.2538871,5328,omfg'
p918
I132
sS'self'
p919
I127
sS'06:23:54.0,33.9853128,-118.25375942,5328,ooooooooooooooooo'
p920
I132
sS'sex.when'
p921
I132
sS'pasar'
p922
I131
sS'play'
p923
I110
sS"08:48:48.0,33.98522034,-118.25385951,5328,it's"
p924
I132
sS'unused'
p925
I132
sS'plan'
p926
I132
sS'then,90001\n457771781823025152,thatonenigga13,2014-04-20'
p927
I132
sS'incase'
p928
I132
sS'music,90001\n456719472762449920,thatonenigga13,2014-04-17'
p929
I132
sS'sometimes'
p930
I120
sS'cover'
p931
I132
sS'09:26:53.0,33.98539527,-118.25387729,5328,drip'
p932
I132
sS'charged'
p933
I132
sS'ugh'
p934
I130
sS'gold'
p935
I131
sS'gols'
p936
I132
sS'18:12:09.0,33.98532189,-118.25370047,5328,she'
p937
I132
sS'session'
p938
I129
sS'ojo'
p939
I132
sS'bands,90001\n456727558545891329,thatonenigga13,2014-04-17'
p940
I132
sS'wrapp'
p941
I132
sS'sayin'
p942
I131
sS'wayne'
p943
I132
sS'factor'
p944
I132
sS'08:01:44.0,33.98530751,-118.25382625,5328,wow'
p945
I132
sS'preparing'
p946
I132
sS'3a'
p947
I130
sS'(anthony)-'
p948
I132
sS'rft'
p949
I129
sS'cry'
p950
I130
sS'ahhhhh'
p951
I132
sS'eyeliner,90001\n454280027270430720,thatonenigga13,2014-04-10'
p952
I132
sS'thots'
p953
I132
sS'croatia'
p954
I130
sS'lmfaoooooo'
p955
I131
sS'03:13:22.0,33.98538677,-118.25388894,5328,got'
p956
I132
sS'insane'
p957
I132
sS'set'
p958
I129
sS'ser'
p959
I132
sS'nibble'
p960
I132
sS'sex'
p961
I124
sS'17:23:34.0,33.98529365,-118.25355218,5328,take'
p962
I132
sS'see'
p963
I71
sS'sec'
p964
I132
sS'sea'
p965
I131
sS'sips'
p966
I132
sS'movin'
p967
I132
sS'movie'
p968
I119
sS'currently'
p969
I129
sS'guides'
p970
I132
sS'rite'
p971
I116
sS'nope'
p972
I129
sS'compliment'
p973
I131
sS'knowing'
p974
I131
sS'yeahs-'
p975
I132
sS'leo'
p976
I131
sS'last'
p977
I112
sS'thot'
p978
I122
sS'barely'
p979
I124
sS'day.\xe2\x80\x9d'
p980
I132
sS'retarded'
p981
I131
sS'thoe'
p982
I132
sS'whole'
p983
I117
sS'mini'
p984
I132
sS'naaaah'
p985
I132
sS'everything,90001\n455573146318295040,thatonenigga13,2014-04-14'
p986
I132
sS'leon'
p987
I132
sS'rosa'
p988
I132
sS'sing'
p989
I130
sS'devil'
p990
I132
sS'\xe2\x98\x95'
p991
I132
sS'hitting'
p992
I132
sS'08:20:03.0,33.98527384,-118.25367707,5328,stay'
p993
I132
sS'15:40:55.0,33.98520216,-118.25365452,5328,hunnids'
p994
I132
sS'champion'
p995
I132
sS'fire'
p996
I125
sS"what's"
p997
I125
sS'awake'
p998
I118
sS'daumne'
p999
I132
sS'crenshaw'
p1000
I132
sS'skrilla'
p1001
I132
sS'"do'
p1002
I132
sS'tip'
p1003
I131
sS'robin'
p1004
I132
sS'son/dog'
p1005
I132
sS'ami'
p1006
I132
sS'pound'
p1007
I130
sS'hoping'
p1008
I131
sS'backing'
p1009
I132
sS'triple'
p1010
I129
sS'ya3ni'
p1011
I132
sS'funny'
p1012
I113
sS'memake'
p1013
I132
sS'raiders'
p1014
I130
sS'06:33:20.0,33.98532346,-118.25373673,5328,darlin'
p1015
I132
sS'shorter'
p1016
I132
sS"06:17:41.0,33.98521112,-118.25374874,5328,don't"
p1017
I132
sS'suckaaaa'
p1018
I132
sS'caer'
p1019
I132
sS'guess,90001\n455264758766108672,thatonenigga13,2014-04-13'
p1020
I132
sS'fuck..,90001\n454373006106562560,thatonenigga13,2014-04-10'
p1021
I132
sS'bluhhh'
p1022
I132
sS'home,90001\n457045136266891264,thatonenigga13,2014-04-18'
p1023
I132
sS'redlands'
p1024
I130
sS'08:25:12.0,33.9854278,-118.2538032,5328,caught'
p1025
I132
sS'popeyes'
p1026
I132
sS'regretting'
p1027
I132
sS'on,90001\n454687162395406336,thatonenigga13,2014-04-11'
p1028
I132
sS'01:00:50.0,33.98754579,-118.25221221,5328,i'
p1029
I132
sS'06:35:03.0,33.985135,-118.25396513,5328,where'
p1030
I132
sS'09:06:04.0,33.98536149,-118.25386154,5328,i'
p1031
I132
sS'hercules'
p1032
I132
sS'09:21:25.0,33.98528419,-118.25363957,5328,lights'
p1033
I132
sS'surprises'
p1034
I132
sS'danky'
p1035
I131
sS'lb,90001\n457427525140881408,thatonenigga13,2014-04-19'
p1036
I132
sS'rangers'
p1037
I132
sS'08:37:29.0,33.98518006,-118.2536589,5328,smokin>'
p1038
I132
sS'it,90001\n455627448596459520,thatonenigga13,2014-04-14'
p1039
I132
sS'crying'
p1040
I130
sS'mcdoubles'
p1041
I132
sS'tomar'
p1042
I132
sS'09:10:36.0,33.98520077,-118.25391014,5328,just'
p1043
I132
sS'australia'
p1044
I131
sS'couple'
p1045
I126
sS'hitters'
p1046
I132
sS'aerospace'
p1047
I132
sS'projects'
p1048
I132
sS'stylist'
p1049
I132
sS'quiet:o'
p1050
I132
sS'loud,90001\n455619189462429696,thatonenigga13,2014-04-14'
p1051
I132
sS'porfas'
p1052
I132
sS'?,90001\n455224044476850176,thatonenigga13,2014-04-13'
p1053
I132
sS'8ths'
p1054
I132
sS'07:12:11.0,33.98518951,-118.25382316,5328,gunnuh'
p1055
I132
sS'spring'
p1056
I130
sS'09:45:39.0,33.98525611,-118.25361035,5328,chambiando,90001\n456004597262192640,thatonenigga13,2014-04-15'
p1057
I132
sS'08:22:43.0,33.9854081,-118.25384838,5328,wake'
p1058
I132
sS'b4'
p1059
I132
sS'sight'
p1060
I131
sS'wesson'
p1061
I132
sS'sheesh'
p1062
I132
sS'goaaaaaaaaaaaaaaaaal'
p1063
I132
sS'e3ed'
p1064
I132
sS'vendiendo'
p1065
I132
sS'dating'
p1066
I131
sS'shooters'
p1067
I132
sS'be'
p1068
I14
sS'bf'
p1069
I125
sS'bg'
p1070
I132
sS'bb'
p1071
I131
sS'bc'
p1072
I92
sS'bl'
p1073
I132
sS'03:48:58.0,33.9853861,-118.2538348,5328,you'
p1074
I132
sS'bk'
p1075
I132
sS'cholo'
p1076
I132
sS'08:31:29.0,33.98540634,-118.25395223,5328,man'
p1077
I132
sS'bp'
p1078
I126
sS'nowhere'
p1079
I131
sS'santa'
p1080
I132
sS'bs'
p1081
I122
sS'tidal'
p1082
I132
sS'chola'
p1083
I132
sS'by'
p1084
I91
sS'hamra'
p1085
I132
sS'anything'
p1086
I118
sS'netflix'
p1087
I128
sS'deserves'
p1088
I131
sS'03:19:00.0,33.9851508,-118.25347586,5328,gunnuh'
p1089
I132
sS'forgave'
p1090
I132
sS'country\xe2\x80\x9d'
p1091
I132
sS'garbage'
p1092
I132
sS'into'
p1093
I108
sS'recreate'
p1094
I132
sS'much\xe2\x80\x9d'
p1095
I132
sS'sneaky'
p1096
I132
sS'spending'
p1097
I130
sS'custom'
p1098
I132
sS'addicting'
p1099
I132
sS'jacks'
p1100
I131
sS'inches'
p1101
I132
sS'incher'
p1102
I132
sS'poster'
p1103
I132
sS'cudahy'
p1104
I132
sS'link'
p1105
I131
sS'ling'
p1106
I127
sS'03:30:31.0,33.98519805,-118.25370242,5328,anti'
p1107
I132
sS'line'
p1108
I130
sS'posted'
p1109
I128
sS'up'
p1110
I19
sS'us'
p1111
I112
sS'ur'
p1112
I119
sS'uo'
p1113
I131
sS'un'
p1114
I129
sS'uh'
p1115
I131
sS'faded'
p1116
I123
sS'medical'
p1117
I132
sS'young\xe2\x80\x9d'
p1118
I132
sS'tu,90001\n454322280261107712,thatonenigga13,2014-04-10'
p1119
I132
sS'likewise'
p1120
I132
sS'starbucks'
p1121
I123
sS'comming'
p1122
I131
sS'chat'
p1123
I131
sS'thugs'
p1124
I132
sS'realest'
p1125
I131
sS'thugg'
p1126
I132
sS'7az'
p1127
I132
sS'goooooool'
p1128
I132
sS'flatbush'
p1129
I132
sS'okayyyyu'
p1130
I132
sS'paisas'
p1131
I132
sS'ago'
p1132
I121
sS'hells'
p1133
I132
sS'lane'
p1134
I132
sS'land'
p1135
I132
sS'lana'
p1136
I131
sS'age'
p1137
I129
sS'walked'
p1138
I129
sS'it,90001\n454304275569442816,thatonenigga13,2014-04-10'
p1139
I132
sS'hella'
p1140
I125
sS'fresh'
p1141
I122
sS'02:42:36.0,33.9855096,-118.25384033,5328,my'
p1142
I132
sS'me,90001\n455619488357314561,thatonenigga13,2014-04-14'
p1143
I132
sS'noooooooo'
p1144
I132
sS'cheetos'
p1145
I130
sS'code'
p1146
I132
sS'scooped'
p1147
I132
sS'kamen'
p1148
I132
sS'flashback'
p1149
I132
sS'chillin'
p1150
I122
sS'inside.\xe2\x80\x9d'
p1151
I132
sS'young'
p1152
I125
sS'send'
p1153
I116
sS'fuck,90001\n454811038118969344,thatonenigga13,2014-04-12'
p1154
I132
sS'dislike'
p1155
I132
sS'sent'
p1156
I127
sS'fuuu'
p1157
I132
sS'mixing'
p1158
I132
sS'continued'
p1159
I132
sS'bonitas'
p1160
I131
sS'22:45:31.0,33.98520404,-118.25368467,5328,just'
p1161
I132
sS'evo'
p1162
I132
sS'harbor'
p1163
I132
sS'eva'
p1164
I129
sS'marry'
p1165
I132
sS'having'
p1166
I123
sS'19:35:43.0,33.9854013,-118.25384445,5328,i'
p1167
I132
sS'try'
p1168
I116
sS'sare3'
p1169
I132
sS'video'
p1170
I131
sS'her,90001\n454335196293115905,thatonenigga13,2014-04-10'
p1171
I132
sS'odd'
p1172
I132
sS'befajmo'
p1173
I132
sS'sweaty'
p1174
I132
sS'bestfriends'
p1175
I132
sS'1400'
p1176
I132
sS'bird'
p1177
I132
sS'led'
p1178
I132
sS'lee'
p1179
I132
sS'leg'
p1180
I132
sS'punch'
p1181
I132
sS'delivering'
p1182
I132
sS'strips,90001\n455970774575116288,thatonenigga13,2014-04-15'
p1183
I132
sS'let'
p1184
I101
sS'tbh,90001\n455626583823245312,thatonenigga13,2014-04-14'
p1185
I132
sS'secs,90001\n455951868032589825,thatonenigga13,2014-04-15'
p1186
I132
sS'bridgett'
p1187
I131
sS'great'
p1188
I123
sS'whoopyfuckendoo'
p1189
I132
sS'22:36:00.0,33.98537729,-118.25375383,5328,you'
p1190
I132
sS'eatin'
p1191
I121
sS'08:21:58.0,33.98541644,-118.25383396,5328,i'
p1192
I132
sS'popcorn'
p1193
I132
sS'opinion'
p1194
I132
sS'eatig'
p1195
I132
sS'stephanie'
p1196
I132
sS'explain'
p1197
I132
sS'thats'
p1198
I126
sS'siri'
p1199
I132
sS'dumbest'
p1200
I132
sS'03:38:43.0,33.98533195,-118.25368341,5328,neva'
p1201
I132
sS'standing'
p1202
I132
sS'<--'
p1203
I132
sS'chocolates'
p1204
I132
sS'next'
p1205
I110
sS'babe'
p1206
I120
sS"03:04:31.0,33.98546572,-118.25379725,5328,don't"
p1207
I132
sS'soooooooo'
p1208
I132
sS'baby'
p1209
I91
sS'09:15:30.0,33.98516955,-118.25376001,5328,kik'
p1210
I132
sS'balls'
p1211
I132
sS'this'
p1212
I23
sS'challenge'
p1213
I132
sS'09:02:17.0,33.98533585,-118.2538669,5328,i'
p1214
I132
sS'mommas'
p1215
I129
sS'dodgin'
p1216
I132
sS'thin'
p1217
I132
sS'for?\xe2\x80\x9d'
p1218
I132
sS'sabe'
p1219
I132
sS'bens'
p1220
I132
sS'process'
p1221
I132
sS'lock'
p1222
I130
sS'loco'
p1223
I131
sS'pieces'
p1224
I132
sS'high'
p1225
I82
sS'slip'
p1226
I132
sS'lol,90001\n455632412102230016,thatonenigga13,2014-04-14'
p1227
I132
sS'usernames'
p1228
I132
sS'squaaaaaaaaad'
p1229
I132
sS'though(x'
p1230
I132
sS'btfu'
p1231
I132
sS'mames'
p1232
I131
sS'wallpaper'
p1233
I131
sS'dominos'
p1234
I132
sS'fitz'
p1235
I132
sS'mannnnn'
p1236
I132
sS'know,90001\n455624630682648576,thatonenigga13,2014-04-14'
p1237
I132
sS'fuhh'
p1238
I132
sS'solito'
p1239
I132
sS'realized'
p1240
I132
sS'cudi'
p1241
I132
sS'hunnid'
p1242
I130
sS'05:42:50.0,33.9892171,-118.2564053,5328,bachateyaaaameeee'
p1243
I132
sS'move'
p1244
I123
sS'01:19:16.0,33.98530014,-118.253784,5328,talkin'
p1245
I132
sS'motorcycle'
p1246
I132
sS'god,90001\n456733502277304320,thatonenigga13,2014-04-17'
p1247
I132
sS'perfect'
p1248
I124
sS'fosters)'
p1249
I132
sS'degrees'
p1250
I132
sS'lol,90001\n454518840374734848,thatonenigga13,2014-04-11'
p1251
I132
sS'puerto'
p1252
I132
sS'08:15:03.0,33.98530915,-118.25370212,5328,i'
p1253
I132
sS'bake\xe2\x9d\xa4\xef\xb8\x8f\xe2\x9d\xa4\xef\xb8\x8f'
p1254
I132
sS'workout,90001\n455270710101827584,thatonenigga13,2014-04-13'
p1255
I132
sS'nada'
p1256
I132
sS'dock'
p1257
I132
sS'bothering'
p1258
I132
sS'kiss'
p1259
I127
sS'friend.\xe2\x80\x9d'
p1260
I132
sS'dark,90001\n455534055233056768,thatonenigga13,2014-04-14'
p1261
I132
sS'betta'
p1262
I128
sS'truth'
p1263
I128
sS'rising'
p1264
I132
sS'persie'
p1265
I132
sS'glasses'
p1266
I132
sS'doing'
p1267
I119
sS'moon.,90001\n455957570285359104,thatonenigga13,2014-04-15'
p1268
I132
sS'alejandro'
p1269
I132
sS'books'
p1270
I132
sS'goalkeeper'
p1271
I132
sS'witness'
p1272
I132
sS'badon'
p1273
I132
sS'lol,90001\n456007255184261122,thatonenigga13,2014-04-15'
p1274
I132
sS'females)'
p1275
I132
sS',90001\n455625642134888448,thatonenigga13,2014-04-14'
p1276
I132
sS'fumigado'
p1277
I132
sS'hilarious'
p1278
I132
sS'sober,90001\n455548266503884802,thatonenigga13,2014-04-14'
p1279
I132
sS'shut'
p1280
I124
sS'craving'
p1281
I131
sS'chilli'
p1282
I132
sS'dawg,90001\n456583847224672256,thatonenigga13,2014-04-17'
p1283
I132
sS'provoked,90001\n455960712905379840,thatonenigga13,2014-04-15'
p1284
I132
sS'could'
p1285
I114
sS'vida.,90001\n493532379378483200,r__y__c__h__,2014-07-27'
p1286
I132
sS'pigs'
p1287
I132
sS'ears'
p1288
I132
sS'scare'
p1289
I129
sS'08:07:30.0,33.98546895,-118.25378501,5328,nigga'
p1290
I132
sS'ihy'
p1291
I129
sS'poquito'
p1292
I132
sS'blown'
p1293
I129
sS'scene'
p1294
I132
sS'jesus'
p1295
I128
sS'milagro'
p1296
I131
sS'spaghetti'
p1297
I129
sS'18:48:21.0,33.98527153,-118.25357231,5328,i'
p1298
I132
sS'cuh\xe2\x80\x9d'
p1299
I132
sS"07:47:34.0,33.98539615,-118.25383413,5328,i'm"
p1300
I132
sS'bad,90001\n454308723180064769,thatonenigga13,2014-04-10'
p1301
I132
sS'start'
p1302
I100
sS'sharod'
p1303
I131
sS'system'
p1304
I132
sS'erja3'
p1305
I132
sS'stomach'
p1306
I127
sS'02:16:25.0,33.98543035,-118.25389188,5328,finally'
p1307
I132
sS'shorts'
p1308
I131
sS'putos'
p1309
I132
sS'grandpa'
p1310
I132
sS'haved'
p1311
I132
sS'is,90001\n454384810044043264,thatonenigga13,2014-04-10'
p1312
I132
sS'bother'
p1313
I130
sS'06:52:20.0,33.98521556,-118.25372586,5328,baby'
p1314
I132
sS'hahahahahahahaha'
p1315
I132
sS'problems.\xe2\x80\x9d'
p1316
I132
sS'booooooo'
p1317
I132
sS'okkay'
p1318
I131
sS'false'
p1319
I131
sS'tonight'
p1320
I120
sS'babee'
p1321
I131
sS'05:40:24.0,33.98531978,-118.25368998,5328,ayeeeeee'
p1322
I132
sS'dishes'
p1323
I132
sS'400+'
p1324
I132
sS'latina'
p1325
I132
sS'babes'
p1326
I130
sS'linda'
p1327
I132
sS'korean'
p1328
I132
sS'latino'
p1329
I132
sS';-)'
p1330
I132
sS'calculus'
p1331
I132
sS'fidel'
p1332
I132
sS'tonight,90001\n455956845245370368,thatonenigga13,2014-04-15'
p1333
I132
sS'leooooooo'
p1334
I132
sS'onhere'
p1335
I132
sS'niggga'
p1336
I132
sS'finessin'
p1337
I131
sS'face'
p1338
I104
sS"you'll"
p1339
I124
sS'04:14:22.0,33.98533845,-118.25373439,5328,i'
p1340
I132
sS',90001\n454518901255049216,thatonenigga13,2014-04-11'
p1341
I132
sS'.\xe2\x9c\x8c\xef\xb8\x8f'
p1342
I132
sS'fuck,90001\n455271357060612096,thatonenigga13,2014-04-13'
p1343
I132
sS'fact'
p1344
I130
sS'clarissa'
p1345
I131
sS'out,90001\n457716411549233152,thatonenigga13,2014-04-20'
p1346
I132
sS'answered'
p1347
I131
sS'lmaoo'
p1348
I131
sS'20:12:49.0,33.98529161,-118.25366185,5328,on'
p1349
I132
sS'02:24:01.0,33.98524912,-118.25385051,5328,got'
p1350
I132
sS'bring'
p1351
I122
sS'ass.\xe2\x80\x9d'
p1352
I132
sS'bedroom'
p1353
I132
sS'slippin'
p1354
I126
sS'asylum'
p1355
I132
sS'taps'
p1356
I132
sS'shit,90001\n456013148026200064,thatonenigga13,2014-04-15'
p1357
I132
sS'song,90001\n457929049596121088,thatonenigga13,2014-04-20'
p1358
I132
sS'should'
p1359
I92
sS'riding'
p1360
I132
sS'hope'
p1361
I115
sS'meant'
p1362
I127
sS'handle'
p1363
I132
sS'means'
p1364
I129
sS'familiar'
p1365
I132
sS'lucky'
p1366
I125
sS'meann'
p1367
I132
sS'simpin'
p1368
I132
sS'09:19:49.0,33.98538299,-118.25382868,5328,earlier'
p1369
I132
sS'lalo'
p1370
I132
sS'h'
p1371
I132
sS'infejarat'
p1372
I132
sS'rapper'
p1373
I132
sS'stuff'
p1374
I132
sS'btw'
p1375
I130
sS'packed'
p1376
I130
sS'bad,90001\n455632634601672705,thatonenigga13,2014-04-14'
p1377
I132
sS'injustice'
p1378
I132
sS'pistol'
p1379
I132
sS'email'
p1380
I132
sS"06:00:15.0,33.98526427,-118.25366901,5328,ain't"
p1381
I132
sS'butts'
p1382
I131
sS'mexicannnnnnnn'
p1383
I132
sS'invited'
p1384
I129
sS'smilin'
p1385
I132
sS'20:51:10.0,33.98513654,-118.25359889,5328,small'
p1386
I132
sS'invites'
p1387
I132
sS'indica'
p1388
I132
sS'toilet'
p1389
I132
sS'cc'
p1390
I132
sS'gooool'
p1391
I131
sS'cx'
p1392
I127
sS'cr'
p1393
I132
sS'alrigghttttttttt'
p1394
I132
sS'hawkins'
p1395
I132
sS"whatever's"
p1396
I132
sS'chillllllin'
p1397
I132
sS'drank'
p1398
I129
sS'waste'
p1399
I132
sS'blastin'
p1400
I132
sS'>'
p1401
I131
sS'snupe-'
p1402
I132
sS'non-gay'
p1403
I132
sS'c9'
p1404
I132
sS'2014'
p1405
I132
sS'spain'
p1406
I128
sS'05:09:53.0,33.98523887,-118.2536169,5328,why'
p1407
I132
sS'09:49:49.0,33.98538618,-118.25380194,5328,con'
p1408
I132
sS'<'
p1409
I132
sS'hahaha'
p1410
I123
sS'va'
p1411
I129
sS',90001\n458516892043337728,thatonenigga13,2014-04-22'
p1412
I132
sS'surprisingly'
p1413
I131
sS'lust'
p1414
I130
sS'vs'
p1415
I127
sS'vu'
p1416
I132
sS'uggs'
p1417
I132
sS'jenner'
p1418
I132
sS'tattoo'
p1419
I132
sS'tupac'
p1420
I132
sS'juan'
p1421
I132
sS'argelia'
p1422
I132
sS'06:11:39.0,33.98526085,-118.25365805,5328,happy'
p1423
I132
sS'ball'
p1424
I131
sS'drink'
p1425
I115
sS'upon'
p1426
I131
sS'budlight'
p1427
I132
sS'me,90001\n454635993157480449,thatonenigga13,2014-04-11'
p1428
I132
sS'off'
p1429
I95
sS'dissing'
p1430
I132
sS'08:01:37.0,33.98538718,-118.25380269,5328,yo'
p1431
I132
sS'xd,90001\n508397817274986496,thelouie_,2014-09-06'
p1432
I132
sS"21:53:15.0,33.98537549,-118.25375383,5328,i'm"
p1433
I132
sS'less'
p1434
I129
sS',90001\n457656839367163904,thatonenigga13,2014-04-19'
p1435
I132
sS'rooms'
p1436
I129
sS'needin'
p1437
I132
sS'wee'
p1438
I132
sS'gum'
p1439
I132
sS'reproducciones'
p1440
I132
sS'07:50:15.0,33.98528495,-118.25378882,5328,i'
p1441
I132
sS'arrest'
p1442
I132
sS'08:26:09.0,33.98522775,-118.25370389,5328,go'
p1443
I132
sS'10:43:39.0,33.98509188,-118.25375383,5328,turnt'
p1444
I132
sS'wet'
p1445
I132
sS'aww\xe2\x9c\x8c..no'
p1446
I132
sS'10pm'
p1447
I132
sS'12more'
p1448
I132
sS'belgium'
p1449
I132
sS'nvm'
p1450
I126
sS'chairs'
p1451
I132
sS'(or'
p1452
I132
sS'nerves'
p1453
I132
sS'footage'
p1454
I132
sS'changers\xe2\x80\x9d'
p1455
I132
sS'04:23:17.0,33.9853392,-118.25386229,5328,been'
p1456
I132
sS'08:45:55.0,33.985377,-118.25382164,5328,my'
p1457
I132
sS'08:57:34.0,33.98506033,-118.25350963,5328,i'
p1458
I132
sS'lykke'
p1459
I131
sS'tu,90001\n456253220575121409,thatonenigga13,2014-04-16'
p1460
I132
sS'there,90001\n455615485040545792,thatonenigga13,2014-04-14'
p1461
I132
sS'literally'
p1462
I123
sS'avoid'
p1463
I132
sS',90001\n454332196141023232,thatonenigga13,2014-04-10'
p1464
I132
sS'does'
p1465
I124
sS'06:44:32.0,33.98534724,-118.2538172,5328,i'
p1466
I132
sS'*peach'
p1467
I132
sS'bromance'
p1468
I132
sS'uhhhh'
p1469
I132
sS'hooligan'
p1470
I132
sS'bigdaddy'
p1471
I132
sS'zips'
p1472
I132
sS'lastnight'
p1473
I132
sS'hiding'
p1474
I132
sS'puts'
p1475
I132
sS"donald's"
p1476
I130
sS'kourtney'
p1477
I132
sS'angeles'
p1478
I131
sS'chambiar,90001\n458520247809478656,thatonenigga13,2014-04-22'
p1479
I132
sS'05:24:40.0,33.98537239,-118.25377193,5328,yo'
p1480
I132
sS'05:56:36.0,33.98534679,-118.25365983,5328,gunnuh'
p1481
I132
sS'pussy'
p1482
I120
sS'07:56:35.0,33.9852719,-118.2537245,5328,i'
p1483
I132
sS'05:32:59.0,33.98519555,-118.25367807,5328,this'
p1484
I132
sS',90001\n455534708709797888,thatonenigga13,2014-04-14'
p1485
I132
sS'spots'
p1486
I132
sS'bump'
p1487
I131
sS'interest'
p1488
I132
sS'fasho'
p1489
I131
sS'delivers'
p1490
I132
sS'04:00:26.0,33.98550261,-118.25348497,5328,i'
p1491
I132
sS'count'
p1492
I127
sS'places'
p1493
I132
sS'official'
p1494
I132
sS'shhhhhh'
p1495
I132
sS'3la2o'
p1496
I132
sS'subtweets'
p1497
I132
sS'15:34:47.0,33.98527604,-118.25366803,5328,song'
p1498
I132
sS'whateva'
p1499
I132
sS'worryin'
p1500
I130
sS'recognize'
p1501
I132
sS'21:27:39.0,33.9851542,-118.25344321,5328,osea'
p1502
I132
sS'ina'
p1503
I86
sS'compared'
p1504
I132
sS'lately'
p1505
I127
sS'happiest'
p1506
I132
sS'ponytail'
p1507
I132
sS'repeat'
p1508
I132
sS'rn,90001\n458515987269025792,thatonenigga13,2014-04-22'
p1509
I132
sS'monday'
p1510
I128
sS'08:02:46.0,33.98536196,-118.25384167,5328,i'
p1511
I132
sS'chance'
p1512
I126
sS'ghost'
p1513
I131
sS'cover,90001\n457772340793712640,thatonenigga13,2014-04-20'
p1514
I132
sS'macchiato'
p1515
I132
sS'burks'
p1516
I132
sS'compete'
p1517
I132
sS'tryout'
p1518
I132
sS'diss'
p1519
I132
sS'chili'
p1520
I129
sS'drinkin'
p1521
I129
sS'pedro'
p1522
I132
sS'stinky'
p1523
I132
sS'bike'
p1524
I130
sS'work,90001\n458538794904322048,thatonenigga13,2014-04-22'
p1525
I132
sS'booties'
p1526
I132
sS'heda'
p1527
I132
sS'worth'
p1528
I128
sS'lack'
p1529
I132
sS'blanket'
p1530
I131
sS'tamborazo'
p1531
I132
sS'blanked'
p1532
I132
sS'06:53:13.0,33.98538266,-118.25384192,5328,are'
p1533
I132
sS'tickets'
p1534
I131
sS"we'll"
p1535
I129
sS'upload'
p1536
I132
sS'shit,90001\n455622890205880320,thatonenigga13,2014-04-14'
p1537
I132
sS'red'
p1538
I125
sS'reinvent'
p1539
I132
sS"y'all,90001\n455567682805702657,thatonenigga13,2014-04-14"
p1540
I132
sS'!,90001\n458761356301185024,thatonenigga13,2014-04-23'
p1541
I132
sS'29th'
p1542
I132
sS'phones'
p1543
I130
sS'panda'
p1544
I131
sS'+'
p1545
I132
sS'above'
p1546
I132
sS'6ft'
p1547
I132
sS'officially'
p1548
I132
sS'told'
p1549
I117
sS'crunch'
p1550
I131
sS'habla'
p1551
I132
sS'07:56:12.0,33.98530374,-118.25377646,5328,my'
p1552
I132
sS'metaphorically'
p1553
I132
sS'daughter'
p1554
I132
sS'study'
p1555
I132
sS'walkin'
p1556
I130
sS'smoke'
p1557
I79
sS'me:('
p1558
I132
sS'bro'
p1559
I111
sS'insta'
p1560
I132
sS'andy13'
p1561
I132
sS'local,90001\n455213187432845312,thatonenigga13,2014-04-13'
p1562
I132
sS'glance'
p1563
I132
sS'plot'
p1564
I132
sS'sweater'
p1565
I132
sS'scary'
p1566
I129
sS'haha'
p1567
I81
sS'pierced'
p1568
I132
sS'nkw'
p1569
I132
sS'beckerman'
p1570
I132
sS'blocking'
p1571
I132
sS'word'
p1572
I132
sS'jamas'
p1573
I132
sS'work'
p1574
I95
sS'permite'
p1575
I132
sS'elbow'
p1576
I129
sS'goool'
p1577
I132
sS'heartless'
p1578
I131
sS'provide'
p1579
I132
sS'koolin'
p1580
I124
sS'shakin'
p1581
I132
sS'06:17:58.0,33.98542021,-118.25376472,5328,gunnuh'
p1582
I132
sS'disappoint'
p1583
I132
sS'beach'
p1584
I118
sS'pizza'
p1585
I122
sS'bday'
p1586
I126
sS'after'
p1587
I108
sS'jales'
p1588
I132
sS'lay'
p1589
I127
sS'bottles'
p1590
I130
sS'lap'
p1591
I131
sS'las'
p1592
I129
sS'chillen'
p1593
I130
sS'tammmmmssss'
p1594
I132
sS'appreciate'
p1595
I130
sS'green'
p1596
I130
sS'fan'
p1597
I125
sS'lol,90001\n417103844745547776,bobbyy0809,2013-12-29'
p1598
I132
sS'order'
p1599
I132
sS'salon'
p1600
I132
sS'office'
p1601
I127
sS'ramadan'
p1602
I130
sS'migos'
p1603
I132
sS'bombing'
p1604
I132
sS'somewhere'
p1605
I130
sS'09:02:27.0,33.98540244,-118.25388299,5328,i'
p1606
I132
sS'22:27:59.0,33.98532581,-118.25368409,5328,i'
p1607
I132
sS'then'
p1608
I62
sS'them'
p1609
I93
sS'thee'
p1610
I132
sS'break'
p1611
I123
sS'band'
p1612
I132
sS'bang'
p1613
I128
sS'mommas,90001\n455621491141271552,thatonenigga13,2014-04-14'
p1614
I132
sS'they'
p1615
I44
sS'cold,90001\n456697911590416384,thatonenigga13,2014-04-17'
p1616
I132
sS'bank'
p1617
I130
sS'embarrassed'
p1618
I131
sS'knockerz-'
p1619
I131
sS'l'
p1620
I129
sS'alexis'
p1621
I132
sS'rocks'
p1622
I131
sS'whaaaaaaaat'
p1623
I131
sS'nobody,90001\n454644287242637312,thatonenigga13,2014-04-11'
p1624
I132
sS'shows&'
p1625
I132
sS'02:37:52.0,33.98529234,-118.25368917,5328,lmfao'
p1626
I132
sS'flock'
p1627
I132
sS'network'
p1628
I132
sS'strangers'
p1629
I132
sS'19:22:07.0,33.98534571,-118.25372831,5328,fuck'
p1630
I132
sS'daniel'
p1631
I132
sS'medicine'
p1632
I132
sS'vets'
p1633
I132
sS"people's"
p1634
I132
sS'dammit'
p1635
I132
sS'more,90001\n457772532674740224,thatonenigga13,2014-04-20'
p1636
I132
sS'"no'
p1637
I132
sS'16:11:18.0,33.98532847,-118.25375601,5328,o'
p1638
I132
sS'can\xe2\x80\x99t'
p1639
I132
sS"07:18:51.0,33.9852754,-118.253766,5328,it's"
p1640
I132
sS'huuuuuuh'
p1641
I132
sS',90001\n455914234409283584,thatonenigga13,2014-04-15'
p1642
I132
sS'another'
p1643
I121
sS'comin'
p1644
I132
sS'thick'
p1645
I132
sS'opportunity'
p1646
I131
sS',90001\n455977720812277760,thatonenigga13,2014-04-15'
p1647
I132
sS'thoughts'
p1648
I132
sS'ayeeee'
p1649
I131
sS'dogs'
p1650
I131
sS'cereal'
p1651
I132
sS'nahh'
p1652
I132
sS'mercy'
p1653
I132
sS'asssss'
p1654
I132
sS'hike'
p1655
I131
sS'chileeeeeeee'
p1656
I132
sS'infront'
p1657
I130
sS'08:05:53.0,33.98539343,-118.25382533,5328,gotta'
p1658
I132
sS'up!"'
p1659
I132
sS'reall'
p1660
I132
sS"07:00:32.0,33.98510417,-118.25391036,5328,i'm"
p1661
I132
sS'subjects'
p1662
I132
sS"me's"
p1663
I132
sS'say?:)'
p1664
I132
sS'reals'
p1665
I123
sS'cool"'
p1666
I132
sS'germany'
p1667
I130
sS't3alam'
p1668
I132
sS'homework,90001\n458511110639849472,thatonenigga13,2014-04-22'
p1669
I132
sS'alumni'
p1670
I132
sS'06:37:03.0,33.98531625,-118.25365554,5328,they'
p1671
I132
sS'descargas.,90001\n492545490714492928,r__y__c__h__,2014-07-25'
p1672
I132
sS'*tries'
p1673
I132
sS'mexico/usa/honduras'
p1674
I132
sS'bombbbbbbbbb'
p1675
I132
sS'off,90001\n456192860279160832,thatonenigga13,2014-04-15'
p1676
I132
sS'04:17:39.0,33.98539867,-118.25384871,5328,has'
p1677
I132
sS'bailando'
p1678
I132
sS'personality'
p1679
I131
sS'do'
p1680
I36
sS'dm'
p1681
I122
sS'05:17:35.0,33.98542939,-118.25383781,5328,nottttt,90001\n455213063575060480,thatonenigga13,2014-04-13'
p1682
I132
sS'de'
p1683
I114
sS'da'
p1684
I121
sS'09:11:29.0,33.9850646,-118.25351112,5328,come'
p1685
I132
sS'jslv'
p1686
I132
sS'haunted'
p1687
I132
sS'17:45:15.0,33.98538475,-118.2537296,5328,had'
p1688
I132
sS'nasty'
p1689
I125
sS'dp'
p1690
I132
sS'runs'
p1691
I132
sS'10:53:02.0,33.98529039,-118.25379189,5328,wish'
p1692
I132
sS'ahhhhhhh'
p1693
I132
sS'09:46:18.0,33.98519565,-118.25363158,5328,wide'
p1694
I132
sS'stupid,90001\n454371064693264384,thatonenigga13,2014-04-10'
p1695
I132
sS'fomie'
p1696
I131
sS'steal'
p1697
I130
sS'chihuahuas'
p1698
I132
sS'sorrryy'
p1699
I132
sS'one-hundred'
p1700
I132
sS'eres'
p1701
I131
sS"2's"
p1702
I132
sS"16:57:57.0,33.98520197,-118.25356805,5328,ain't"
p1703
I132
sS'away'
p1704
I117
sS'gentleman'
p1705
I132
sS'bien'
p1706
I131
sS'09:49:32.0,33.98536338,-118.25382139,5328,my'
p1707
I132
sS'pfft'
p1708
I132
sS'whaaa'
p1709
I132
sS'we'
p1710
I57
sS'09:05:41.0,33.9853586,-118.25384695,5328,aww'
p1711
I132
sS'terms'
p1712
I132
sS'wa'
p1713
I132
sS'08:09:59.0,33.985189,-118.25379846,5328,me'
p1714
I132
sS'muthafucka'
p1715
I128
sS'ws'
p1716
I132
sS'cop'
p1717
I132
sS'cos'
p1718
I132
sS'tfti'
p1719
I125
sS'ill'
p1720
I128
sS'fags'
p1721
I131
sS'brah'
p1722
I132
sS'coo'
p1723
I132
sS'ily'
p1724
I128
sS'jays'
p1725
I132
sS'speak'
p1726
I131
sS'06:25:10.0,33.98530408,-118.25381473,5328,sometimes'
p1727
I132
sS'sleepover'
p1728
I131
sS'faaaaashoooooo'
p1729
I132
sS'07:35:02.0,33.98520812,-118.25379129,5328,when'
p1730
I132
sS'22:02:42.0,33.98536384,-118.25380337,5328,sleepy'
p1731
I132
sS'sunday,90001\n456697325524504576,thatonenigga13,2014-04-17'
p1732
I132
sS'easy'
p1733
I129
sS'relaxing'
p1734
I132
sS'boo,90001\n458363864115994624,thatonenigga13,2014-04-21'
p1735
I132
sS'remy'
p1736
I132
sS'east'
p1737
I132
sS'launcher'
p1738
I132
sS'air'
p1739
I131
sS'aim'
p1740
I132
sS'out,90001\n455824151928774656,thatonenigga13,2014-04-14'
p1741
I132
sS'aid'
p1742
I131
sS'voice'
p1743
I130
sS'04:14:37.0,33.98530517,-118.25370588,5328,i'
p1744
I132
sS'mistake'
p1745
I130
sS'loooove'
p1746
I132
sS'faith"'
p1747
I132
sS'brake'
p1748
I132
sS'promise,90001\n455082183229595648,thatonenigga13,2014-04-12'
p1749
I132
sS'ops'
p1750
I132
sS'jerry'
p1751
I131
sS'7:30pm'
p1752
I132
sS'09:53:20.0,33.98537046,-118.25380663,5328,still'
p1753
I132
sS':(('
p1754
I131
sS'arent'
p1755
I132
sS'ily2'
p1756
I131
sS'04:51:02.0,33.98520611,-118.25365264,5328,when'
p1757
I132
sS'alittle'
p1758
I128
sS'hang'
p1759
I126
sS'evil'
p1760
I132
sS'hand'
p1761
I131
sS'lol\xe2\x80\x9d'
p1762
I131
sS'nip'
p1763
I132
sS'blamed'
p1764
I132
sS'thy'
p1765
I132
sS'thx'
p1766
I132
sS'tht'
p1767
I130
sS'tho'
p1768
I129
sS'hispanic'
p1769
I132
sS'contact'
p1770
I132
sS'enzal'
p1771
I131
sS'dumb,90001\n455624095367852032,thatonenigga13,2014-04-14'
p1772
I132
sS'the'
p1773
I5
sS'juegos'
p1774
I132
sS'rn"'
p1775
I132
sS'thanks'
p1776
I106
sS'08:52:24.0,33.98526978,-118.25378635,5328,my'
p1777
I132
sS'antes'
p1778
I132
sS'hills'
p1779
I131
sS'eyes\xe2\x80\x9d'
p1780
I132
sS'josh'
p1781
I132
sS'shout'
p1782
I131
sS'laid?"'
p1783
I132
sS'board'
p1784
I129
sS'nalgas'
p1785
I132
sS'braces,90001\n456261052817084417,thatonenigga13,2014-04-16'
p1786
I132
sS'boxed'
p1787
I132
sS'mayb'
p1788
I129
sS'caps'
p1789
I132
sS'mays'
p1790
I132
sS'shakeys'
p1791
I132
sS'nigha'
p1792
I131
sS'yall\xe2\x80\x9d'
p1793
I132
sS'night'
p1794
I85
sS'fashoooo'
p1795
I132
sS'honored'
p1796
I132
sS'idgaf'
p1797
I131
sS'born'
p1798
I130
sS'neva'
p1799
I123
sS'leanin'
p1800
I131
sS'kit-kat'
p1801
I132
sS'purple'
p1802
I131
sS'/'
p1803
I132
sS'asking'
p1804
I130
sS'ohhhhhhhhhhhhhhhhh'
p1805
I132
sS'beating'
p1806
I132
sS'pls'
p1807
I128
sS'19:02:50.0,33.98537495,-118.25390437,5328,feel'
p1808
I132
sS'sadie'
p1809
I132
sS'blawwwwd'
p1810
I132
sS'post'
p1811
I131
sS'no,90001\n456912190172184576,thatonenigga13,2014-04-17'
p1812
I132
sS'trophy'
p1813
I129
sS"where's"
p1814
I124
sS'hyna'
p1815
I132
sS'_____'
p1816
I132
sS'theirs'
p1817
I128
sS'months'
p1818
I122
sS'weather,90001\n457727601134411777,thatonenigga13,2014-04-20'
p1819
I132
sS'banker'
p1820
I132
sS'wasting'
p1821
I132
sS'bound'
p1822
I132
sS'02:42:20.0,33.98531125,-118.25379134,5328,these'
p1823
I132
sS'life\xe2\x80\x9d'
p1824
I132
sS'yanni'
p1825
I130
sS'erkle'
p1826
I132
sS'holanda'
p1827
I131
sS'fight'
p1828
I131
sS'desire\xc3\xa9'
p1829
I132
sS'way'
p1830
I98
sS'wax'
p1831
I131
sS'was'
p1832
I26
sS'war'
p1833
I129
sS'you,90001\n455993713051721728,thatonenigga13,2014-04-15'
p1834
I132
sS'21:28:47.0,33.98532935,-118.25379507,5328,rn'
p1835
I132
sS'07:40:29.0,33.98519555,-118.25364929,5328,need'
p1836
I132
sS'mamaaaaaa,90001\n244978200185294849,fabianxroxx,2012-09-10'
p1837
I132
sS'true'
p1838
I101
sS'say,90001\n455573635797774336,thatonenigga13,2014-04-14'
p1839
I132
sS'fuck,90001\n458160201288278016,thatonenigga13,2014-04-21'
p1840
I132
sS'r.i.p'
p1841
I132
sS'"la'
p1842
I132
sS'moly'
p1843
I132
sS'scandalous'
p1844
I132
sS'request'
p1845
I132
sS'cleats'
p1846
I132
sS'dying'
p1847
I127
sS'reality'
p1848
I132
sS'interested'
p1849
I130
sS'holding'
p1850
I131
sS'test'
p1851
I131
sS'brothers'
p1852
I130
sS"o'clock"
p1853
I132
sS'welcome'
p1854
I117
sS'update'
p1855
I131
sS"let's"
p1856
I120
sS'northgate'
p1857
I132
sS'scores'
p1858
I132
sS'dulce'
p1859
I130
sS'angel,90001\n455204622081089536,thatonenigga13,2014-04-13'
p1860
I132
sS'together'
p1861
I132
sS'beds'
p1862
I132
sS'loyal'
p1863
I130
sS'05:13:06.0,33.9852749,-118.25368252,5328,wow'
p1864
I132
sS'songs'
p1865
I124
sS'dance'
p1866
I125
sS'not,90001\n456669034549739520,thatonenigga13,2014-04-17'
p1867
I132
sS'hermosas'
p1868
I131
sS'battle'
p1869
I132
sS'up,90001\n455994327789887488,thatonenigga13,2014-04-15'
p1870
I132
sS'06:17:55.0,33.98530232,-118.25383321,5328,nice'
p1871
I132
sS'drake-'
p1872
I132
sS'glad'
p1873
I128
sS'brown'
p1874
I130
sS'3am'
p1875
I132
sS'3al'
p1876
I132
sS'hannah'
p1877
I132
sS'vegas'
p1878
I131
sS'turns'
p1879
I132
sS'might,90001\n456674087742365698,thatonenigga13,2014-04-17'
p1880
I132
sS'gun'
p1881
I132
sS'turnt'
p1882
I131
sS'drakes'
p1883
I132
sS'guy'
p1884
I120
sS'upper'
p1885
I131
sS'regret'
p1886
I129
sS'me,90001\n454370616989077504,thatonenigga13,2014-04-10'
p1887
I132
sS'08:59:07.0,33.98532792,-118.25385014,5328,ydna,90001\n455981450819428352,thatonenigga13,2014-04-15'
p1888
I132
sS'come,90001\n454373201867317248,thatonenigga13,2014-04-10'
p1889
I132
sS'muslim'
p1890
I132
sS'teacher'
p1891
I130
sS'change'
p1892
I126
sS'sending'
p1893
I131
sS'incoming'
p1894
I132
sS'lakers'
p1895
I131
sS'swear,90001\n455627235756478464,thatonenigga13,2014-04-14'
p1896
I132
sS'huh,90001\n455571729872461824,thatonenigga13,2014-04-14'
p1897
I132
sS'usually'
p1898
I131
sS'homecoming'
p1899
I132
sS'lmfaoooo'
p1900
I130
sS'cien'
p1901
I131
sS'boly'
p1902
I132
sS'ridaz'
p1903
I131
sS'metros'
p1904
I132
sS'market'
p1905
I132
sS'03:41:15.0,33.98542754,-118.25383572,5328,round'
p1906
I132
sS'prove'
p1907
I132
sS'21:57:15.0,33.98541515,-118.25369708,5328,happy'
p1908
I132
sS'>:('
p1909
I132
sS'retweeted'
p1910
I130
sS'live'
p1911
I125
sS'cuter'
p1912
I132
sS'22:25:55.0,33.98542331,-118.25376648,5328,i'
p1913
I132
sS'club'
p1914
I130
sS'trueeeeeee'
p1915
I132
sS'douche'
p1916
I132
sS'niggas'
p1917
I76
sS'car'
p1918
I117
sS'niggaz'
p1919
I130
sS'cat'
p1920
I132
sS'purge'
p1921
I131
sS'hardest'
p1922
I132
sS'can'
p1923
I47
sS'panamera'
p1924
I132
sS'heart'
p1925
I116
sS'3235925805'
p1926
I132
sS"didn't"
p1927
I94
sS'heard'
p1928
I127
sS'chin'
p1929
I132
sS'productive'
p1930
I132
sS'write'
p1931
I132
sS'nonstop'
p1932
I132
sS'09:52:56.0,33.98521451,-118.25370291,5328,varios'
p1933
I132
sS'dive'
p1934
I131
sS'me,90001\n455958442209861632,thatonenigga13,2014-04-15'
p1935
I132
sS'bawm'
p1936
I130
sS'09:12:29.0,33.98540671,-118.25380781,5328,girl'
p1937
I132
sS'21:54:06.0,33.98521017,-118.25353995,5328,need'
p1938
I132
sS'real.,90001\n454850619967160320,thatonenigga13,2014-04-12'
p1939
I132
sS'remember'
p1940
I126
sS'sprayin'
p1941
I131
sS'corona'
p1942
I131
sS'nozzing'
p1943
I132
sS"04:02:07.0,33.98534682,-118.25361214,5328,ain't"
p1944
I132
sS'haircut'
p1945
I132
sS'brain'
p1946
I132
sS'birdy'
p1947
I132
sS'"which'
p1948
I132
sS'cold'
p1949
I116
sS'still'
p1950
I74
sS'song,90001\n456681800358572032,thatonenigga13,2014-04-17'
p1951
I132
sS'curly'
p1952
I132
sS'lyin'
p1953
I130
sS'window'
p1954
I132
sS'suffocate'
p1955
I132
sS'10:31:32.0,33.98535332,-118.25371904,5328,yea'
p1956
I132
sS'showered'
p1957
I132
sS'cocainepizza'
p1958
I131
sS'noo'
p1959
I132
sS'*opens'
p1960
I131
sS'*said'
p1961
I132
sS'07:36:56.0,33.98530224,-118.25371092,5328,really'
p1962
I132
sS'half'
p1963
I126
sS'not'
p1964
I33
sS'now'
p1965
I50
sS'nor'
p1966
I132
sS'pictures\xe2\x80\x9d'
p1967
I132
sS'wont'
p1968
I132
sS'james'
p1969
I132
sS'drop'
p1970
I130
sS'04:15:22.0,33.9853625,-118.25382206,5328,no'
p1971
I132
sS'confrence'
p1972
I132
sS'tu,90001\n456254242005606400,thatonenigga13,2014-04-16'
p1973
I132
sS'em'
p1974
I121
sS'el'
p1975
I124
sS'en'
p1976
I124
sS'man,90001\n456602761157566464,thatonenigga13,2014-04-17'
p1977
I132
sS'ed'
p1978
I131
sS'yeah'
p1979
I96
sS'bradley'
p1980
I132
sS'replay'
p1981
I132
sS'ex'
p1982
I119
sS'year'
p1983
I120
sS'01:59:59.0,33.98535598,-118.25361858,5328,ina'
p1984
I132
sS'happen'
p1985
I130
sS'calling'
p1986
I130
sS'pills'
p1987
I132
sS'es'
p1988
I130
sS'tried'
p1989
I127
sS'album'
p1990
I131
sS'side,90001\n455630933303914496,thatonenigga13,2014-04-14'
p1991
I132
sS'opened'
p1992
I132
sS'space'
p1993
I131
sS'looking'
p1994
I121
sS'04:37:22.0,33.98543655,-118.25375441,5328,wess'
p1995
I132
sS'worshiper'
p1996
I132
sS'receiving'
p1997
I132
sS'shows'
p1998
I130
sS'smfh'
p1999
I131
sS'cars'
p2000
I132
sS'lmk'
p2001
I132
sS'anymore,90001\n454481982852845568,thatonenigga13,2014-04-11'
p2002
I132
sS'card'
p2003
I131
sS'care'
p2004
I125
sS'\xe2\x80\x9cnice'
p2005
I132
sS'51%'
p2006
I132
sS'tries'
p2007
I131
sS'redbone'
p2008
I132
sS'today!!!!,90001\n457436372635111424,thatonenigga13,2014-04-19'
p2009
I132
sS'sarcastically'
p2010
I132
sS'mucho,90001\n455247871160250368,thatonenigga13,2014-04-13'
p2011
I132
sS'girlfriend,90001\n458516819846782976,thatonenigga13,2014-04-22'
p2012
I132
sS'zac'
p2013
I132
sS'xd'
p2014
I105
sS'02:14:22.0,33.98518825,-118.25384044,5328,eres'
p2015
I132
sS'xs'
p2016
I132
sS'message'
p2017
I131
sS'tomorrow'
p2018
I115
sS"'em"
p2019
I132
sS'size'
p2020
I131
sS'silent'
p2021
I130
sS'caught'
p2022
I126
sS'22:32:37.0,33.98540969,-118.2537726,5328,chili'
p2023
I132
sS'friend'
p2024
I116
sS'thas'
p2025
I132
sS'x)'
p2026
I129
sS'that'
p2027
I13
sS'brains'
p2028
I131
sS'in,90001\n456000701437448192,thatonenigga13,2014-04-15'
p2029
I132
sS'cleaned'
p2030
I132
sS'than'
p2031
I114
sS'apples'
p2032
I131
sS'text-.-'
p2033
I132
sS'\xe2\x9c\x8c\xe2\x80\x9d'
p2034
I132
sS'hairline'
p2035
I132
sS'angel'
p2036
I131
sS'yallaaa'
p2037
I132
sS',90001\n454358322469040128,thatonenigga13,2014-04-10'
p2038
I132
sS'room,90001\n455632015593713665,thatonenigga13,2014-04-14'
p2039
I132
sS'breakfast'
p2040
I129
sS'boners'
p2041
I132
sS'nooooo,90001\n455817788272029696,thatonenigga13,2014-04-14'
p2042
I132
sS'wcw'
p2043
I130
sS'tyytyayyyyayayyaayataattabknsnvsnsgsgavw'
p2044
I132
sS'yampppppps'
p2045
I132
sS'veteran'
p2046
I132
sS'hookah'
p2047
I131
sS'begin'
p2048
I132
sS'soon,90001\n455626801167884288,thatonenigga13,2014-04-14'
p2049
I132
sS'america'
p2050
I131
sS'michelle'
p2051
I132
sS'forever'
p2052
I127
sS'steady'
p2053
I132
sS'tooth'
p2054
I132
sS'professional'
p2055
I131
sS'02:04:02.0,33.98546631,-118.25386154,5328,that'
p2056
I132
sS'01:08:33.0,33.98544087,-118.25382415,5328,turnin'
p2057
I132
sS'17:46:47.0,33.98538596,-118.25372122,5328,,90001\n454313145691930624,thatonenigga13,2014-04-10'
p2058
I132
sS'realizing'
p2059
I132
sS'aint'
p2060
I131
sS'02:53:15.0,33.98531116,-118.25370144,5328,she'
p2061
I132
sS'ilysm'
p2062
I132
sS'games...,90001\n456667841823928320,thatonenigga13,2014-04-17'
p2063
I132
sS'thelouie_'
p2064
I130
sS'only'
p2065
I77
sS'ugh,90001\n455619099184226304,thatonenigga13,2014-04-14'
p2066
I132
sS'pastrami'
p2067
I132
sS'cannot'
p2068
I130
sS'icarly'
p2069
I132
sS'befo'
p2070
I130
sS'closer,90001\n455633528986669056,thatonenigga13,2014-04-14'
p2071
I132
sS'fries,90001\n455620552040792065,thatonenigga13,2014-04-14'
p2072
I132
sS'layin'
p2073
I132
sS'concert'
p2074
I132
sS'"come'
p2075
I132
sS'21:39:01.0,33.98525201,-118.25341598,5328,eating'
p2076
I132
sS'21:20:04.0,33.9857681,-118.25376766,5328,lowkey,90001\n455817729975390208,thatonenigga13,2014-04-14'
p2077
I132
sS'asleep'
p2078
I123
sS'hoes'
p2079
I111
sS'11:55:09.0,33.98538542,-118.25381493,5328,,90001\n457786031857614848,thatonenigga13,2014-04-20'
p2080
I132
sS'sport'
p2081
I132
sS'estan'
p2082
I132
sS'started.,90001\n332298419358007296,sampezy,2013-05-09'
p2083
I132
sS'lol,90001\n457481439068430337,thatonenigga13,2014-04-19'
p2084
I132
sS'3'
p2085
I111
sS'between'
p2086
I131
sS'fake,90001\n454484322485932032,thatonenigga13,2014-04-11'
p2087
I132
sS'huggy'
p2088
I132
sS'blame'
p2089
I132
sS'17:10:31.0,33.98546996,-118.25377294,5328,my'
p2090
I132
sS'hurts'
p2091
I117
sS'peanutbutterk,90001\n457424667322490881,thatonenigga13,2014-04-19'
p2092
I132
sS'comeback'
p2093
I132
sS'4pounds'
p2094
I132
sS'beltran'
p2095
I132
sS'hahhhhhahahahaha'
p2096
I132
sS'wheels'
p2097
I132
sS'comes'
p2098
I128
sS'shit,90001\n455532164256239616,thatonenigga13,2014-04-14'
p2099
I132
sS'jeans'
p2100
I130
sS'11:35:13.0,33.98535454,-118.25387335,5328,goodnight'
p2101
I132
sS"couldn't"
p2102
I131
sS'good,90001\n455974993214464000,thatonenigga13,2014-04-15'
p2103
I132
sS'20:39:22.0,33.98503382,-118.25363683,5328,all'
p2104
I132
sS'cares'
p2105
I131
sS'porsche'
p2106
I132
sS'04:15:41.0,33.98535227,-118.25374058,5328,my'
p2107
I132
sS'dangers'
p2108
I132
sS'sesh'
p2109
I127
sS'kenebli'
p2110
I132
sS'09:17:52.0,33.98530647,-118.25379909,5328,these'
p2111
I132
sS'jugadores'
p2112
I132
sS'ruby'
p2113
I132
sS'argentina'
p2114
I132
sS'out.,90001\n455633073120350209,thatonenigga13,2014-04-14'
p2115
I132
sS'these'
p2116
I86
sS'09:34:31.0,33.98540856,-118.25383916,5328,how'
p2117
I132
sS'cummmmmm'
p2118
I132
sS'joke'
p2119
I132
sS'eventually,90001\n455914129572626433,thatonenigga13,2014-04-15'
p2120
I132
sS'08:53:12.0,33.98538165,-118.25386992,5328,this'
p2121
I132
sS'cigs'
p2122
I132
sS'assfuck'
p2123
I132
sS'sprouts'
p2124
I132
sS'heels'
p2125
I128
sS'beaver'
p2126
I131
sS'worry'
p2127
I132
sS'media'
p2128
I129
sS'ya'
p2129
I104
sS'followers'
p2130
I129
sS'numerals'
p2131
I132
sS'finish'
p2132
I130
sS',90001\n455622323798687745,thatonenigga13,2014-04-14'
p2133
I132
sS'alrighty'
p2134
I132
sS'bumpin'
p2135
I131
sS'\xe2\x9c\x8c\xef\xb8\x8f'
p2136
I129
sS'charger'
p2137
I124
sS'08:22:59.0,33.9854107,-118.25385123,5328,this'
p2138
I132
sS'milicia-'
p2139
I132
sS'asap,90001\n457742862935793665,thatonenigga13,2014-04-20'
p2140
I132
sS'03:04:20.0,33.98538257,-118.25372321,5328,routed'
p2141
I132
sS'noah'
p2142
I132
sS'edemo'
p2143
I132
sS'shouts'
p2144
I132
sS'touch'
p2145
I131
sS'death'
p2146
I129
sS'thinking'
p2147
I126
sS'iphones'
p2148
I132
sS'mirrored'
p2149
I132
sS'sportin'
p2150
I132
sS'treatment'
p2151
I132
sS'complements'
p2152
I132
sS'real'
p2153
I105
sS'duhh'
p2154
I129
sS'amo'
p2155
I132
sS'read'
p2156
I130
sS'late,90001\n457379980133933056,thatonenigga13,2014-04-19'
p2157
I132
sS'gonna'
p2158
I114
sS'early'
p2159
I118
sS'quickness'
p2160
I132
sS'makes'
p2161
I123
sS'listening'
p2162
I128
sS'using'
p2163
I131
sS'lady'
p2164
I129
sS'pounds'
p2165
I132
sS'miracle'
p2166
I132
sS'rubberbands'
p2167
I132
sS't'
p2168
I130
sS'tooooooo'
p2169
I132
sS'apartments'
p2170
I132
sS'ewww'
p2171
I132
sS'chedda'
p2172
I132
sS'08:40:17.0,33.9852938,-118.25366525,5328,oh'
p2173
I132
sS'01:09:49.0,33.983947,-118.2506608,5328,esa'
p2174
I132
sS'her,90001\n455976848422232064,thatonenigga13,2014-04-15'
p2175
I132
sS'eminem-'
p2176
I131
sS'h.w'
p2177
I132
sS'piiiiizaaaaa'
p2178
I132
sS'hopeee'
p2179
I132
sS'business'
p2180
I129
sS'asap'
p2181
I125
sS'credits'
p2182
I131
sS'throw'
p2183
I129
sS'02:53:52.0,33.98541455,-118.25380479,5328,haha'
p2184
I132
sS'central'
p2185
I126
sS'friendship'
p2186
I132
sS'today,90001\n456554736930402304,thatonenigga13,2014-04-16'
p2187
I132
sS'6feet'
p2188
I132
sS'17:52:45.0,33.98544075,-118.25379222,5328,after'
p2189
I132
sS'pobresito,90001\n457391023409205248,thatonenigga13,2014-04-19'
p2190
I132
sS'gump'
p2191
I132
sS'chow'
p2192
I132
sS'toastsk'
p2193
I132
sS'wildin'
p2194
I132
sS'snapchat'
p2195
I120
sS'rolling'
p2196
I132
sS'heated'
p2197
I127
sS'elementary'
p2198
I131
sS'youu'
p2199
I131
sS'yous'
p2200
I132
sS'your'
p2201
I49
sS'stare'
p2202
I132
sS'neymar'
p2203
I131
sS'log'
p2204
I132
sS'area'
p2205
I132
sS'lol'
p2206
I45
sS'los'
p2207
I128
sS'low'
p2208
I129
sS'lot'
p2209
I102
sS'15:29:40.0,33.9854182,-118.25379431,5328,ha,90001\n454642435168026624,thatonenigga13,2014-04-11'
p2210
I132
sS'arguin'
p2211
I132
sS'allergic'
p2212
I132
sS'anapchat'
p2213
I132
sS'>>>>>'
p2214
I132
sS'03:41:54.0,33.98527782,-118.25377531,5328,left'
p2215
I132
sS'you*'
p2216
I131
sS'gaza'
p2217
I132
sS'underewater'
p2218
I132
sS'trying'
p2219
I127
sS'pharrell'
p2220
I132
sS'bucket'
p2221
I131
sS'tellin'
p2222
I131
sS'scoliosis'
p2223
I131
sS'freddy'
p2224
I131
sS'sadness'
p2225
I132
sS'fu,90001\n454373901666361344,thatonenigga13,2014-04-10'
p2226
I132
sS'lol,90001\n417101078094553089,bobbyy0809,2013-12-29'
p2227
I132
sS'08:47:07.0,33.98537767,-118.25383555,5328,i'
p2228
I132
sS'smh!:/'
p2229
I132
sS'tengo'
p2230
I130
sS'hyfr'
p2231
I132
sS'dassss'
p2232
I132
sS'you'
p2233
I4
sS'ultratumba'
p2234
I132
sS'poor'
p2235
I132
sS'night,90001\n457606491764039680,thatonenigga13,2014-04-19'
p2236
I132
sS'pool'
p2237
I124
sS'building'
p2238
I130
sS'3-5'
p2239
I132
sS'vines'
p2240
I131
sS'selfie"'
p2241
I132
sS'month'
p2242
I130
sS'messy'
p2243
I132
sS'gucciiiiiiiiii'
p2244
I132
sS'asada'
p2245
I132
sS'hable'
p2246
I132
sS'21:29:31.0,33.9853251,-118.25362267,5328,you'
p2247
I132
sS'very'
p2248
I126
sS'bit,90001\n454286322224873472,thatonenigga13,2014-04-10'
p2249
I132
sS'selfies'
p2250
I130
sS'07:32:59.0,33.98522999,-118.25368644,5328,lowkey'
p2251
I132
sS'heaven'
p2252
I130
sS'--'
p2253
I129
sS'broads\xe2\x80\x9d'
p2254
I132
sS'yazz'
p2255
I132
sS'dankest'
p2256
I132
sS'louie'
p2257
I128
sS"i'll"
p2258
I92
sS'cookies'
p2259
I132
sS'instagram'
p2260
I130
sS'fence'
p2261
I132
sS'streets'
p2262
I129
sS'waba'
p2263
I132
sS'05:18:43.0,33.9854656,-118.25369806,5328,gunnuh'
p2264
I132
sS'addition'
p2265
I132
sS'cocaineniggaroach'
p2266
I132
sS'labels'
p2267
I132
sS'housee'
p2268
I132
sS'emotions'
p2269
I132
sS'iran'
p2270
I132
sS'loose'
p2271
I131
sS'bitchin'
p2272
I132
sS'kimk'
p2273
I132
sS'tracks'
p2274
I131
sS'tfti\xe2\x80\x9d'
p2275
I132
sS'strong'
p2276
I129
sS'creeps'
p2277
I132
sS'colored'
p2278
I129
sS'ahead'
p2279
I131
sS'bruh,90001\n455628001179234304,thatonenigga13,2014-04-14'
p2280
I132
sS'creepy'
p2281
I132
sS'advertising'
p2282
I132
sS'brolly'
p2283
I132
sS'stop,90001\n455961985402679296,thatonenigga13,2014-04-15'
p2284
I132
sS'virgins'
p2285
I132
sS'limon'
p2286
I130
sS'datin'
p2287
I132
sS'takes'
p2288
I130
sS'05:37:52.0,33.98540101,-118.25376023,5328,my'
p2289
I132
sS'pscs'
p2290
I132
sS'\xe2\x99\x8f\xef\xb8\x8f'
p2291
I131
sS'1train'
p2292
I132
sS'uhhhhhhh,90001\n455874447266676736,thatonenigga13,2014-04-15'
p2293
I132
sS'turbo'
p2294
I132
sS'remixes'
p2295
I132
sS'05:21:36.0,33.98554767,-118.25362341,5328,i'
p2296
I132
sS'me,90001\n454642482291019776,thatonenigga13,2014-04-11'
p2297
I132
sS'dion'
p2298
I130
sS'fredo'
p2299
I132
sS'excuse'
p2300
I129
sS'3eb'
p2301
I132
sS'broke'
p2302
I117
sS'dios'
p2303
I132
sS'me>>>'
p2304
I132
sS'hurry'
p2305
I125
sS'grill'
p2306
I132
sS'offended'
p2307
I132
sS'nine'
p2308
I132
sS'07:08:03.0,33.985348,-118.25381661,5328,just'
p2309
I132
sS'history'
p2310
I131
sS'nahhhhhh'
p2311
I132
sS'19:16:17.0,33.98522598,-118.25357824,5328,yulll,90001\n456476600972738561,thatonenigga13,2014-04-16'
p2312
I132
sS'\xe2\x98\x95\xef\xb8\x8f'
p2313
I131
sS"virgo's"
p2314
I132
sS'calms'
p2315
I132
sS'stayed'
p2316
I131
sS'me,90001\n454326461420171264,thatonenigga13,2014-04-10'
p2317
I132
sS'plottin'
p2318
I131
sS'fr'
p2319
I127
sS'ft'
p2320
I125
sS'fu'
p2321
I130
sS'rude'
p2322
I131
sS'sneak'
p2323
I132
sS'fb'
p2324
I132
sS'justin'
p2325
I111
sS'homie,90001\n457439579339890689,thatonenigga13,2014-04-19'
p2326
I132
sS'fe'
p2327
I132
sS'argele'
p2328
I132
sS'pendeja'
p2329
I132
sS'fo'
p2330
I119
sS'a'
p2331
I6
sS'blush'
p2332
I132
sS'cheeeetoos'
p2333
I132
sS'bugs'
p2334
I132
sS'anytime'
p2335
I132
sS'lifestraws'
p2336
I131
sS'08:36:29.0,33.98542599,-118.25382574,5328,i'
p2337
I132
sS'dream'
p2338
I124
sS'up\xe2\x80\x9d'
p2339
I132
sS'chicks'
p2340
I130
sS'help'
p2341
I128
sS'comiendo'
p2342
I132
sS'sooo'
p2343
I129
sS'soon'
p2344
I126
sS'held'
p2345
I132
sS'committed'
p2346
I132
sS'hell'
p2347
I114
sS'mcdonalds'
p2348
I130
sS'me,90001\n456697534019149824,thatonenigga13,2014-04-17'
p2349
I132
sS'ewwwwwwwwww'
p2350
I132
sS'actually'
p2351
I125
sS'cutie'
p2352
I132
sS"haven't"
p2353
I119
sS'fool'
p2354
I129
sS'yo'
p2355
I60
sS'food'
p2356
I115
sS'house,90001\n457444409559089153,thatonenigga13,2014-04-19'
p2357
I132
sS'yg'
p2358
I129
sS'hahahahahaha'
p2359
I132
sS"you've"
p2360
I131
sS'foot'
p2361
I130
sS'bruhhhhh'
p2362
I132
sS'bless'
p2363
I129
sS'blawddddddd'
p2364
I132
sS'stopped'
p2365
I126
sS'negro,90001\n456006533482950656,thatonenigga13,2014-04-15'
p2366
I132
sS'03:10:45.0,33.9840107,-118.2506499,5328,a'
p2367
I132
sS"isn't"
p2368
I129
sS'flashbacks'
p2369
I132
sS"enemy's"
p2370
I131
sS'son,90001\n456927294217814016,thatonenigga13,2014-04-17'
p2371
I132
sS'06:00:44.0,33.98544749,-118.25361955,5328,my'
p2372
I132
sS'beyond'
p2373
I132
sS'todo'
p2374
I132
sS'marcie'
p2375
I132
sS'juniors'
p2376
I130
sS'since'
p2377
I103
sS'08:17:24.0,33.98520592,-118.25377402,5328,iggy'
p2378
I132
sS'09:27:36.0,33.98538245,-118.25385458,5328,let'
p2379
I132
sS'7'
p2380
I129
sS'ass'
p2381
I20
sS'slow,90001\n455226428343078914,thatonenigga13,2014-04-13'
p2382
I132
sS'timeline'
p2383
I129
sS'23:47:22.0,33.98502305,-118.25377995,5328,my'
p2384
I132
sS'darius'
p2385
I132
sS'houses'
p2386
I132
sS'reason'
p2387
I124
sS'asf'
p2388
I125
sS'put'
p2389
I116
sS'asi'
p2390
I132
sS'ash'
p2391
I130
sS'fire,90001\n455621457523929088,thatonenigga13,2014-04-14'
p2392
I132
sS'me?,90001\n456686580909244416,thatonenigga13,2014-04-17'
p2393
I132
sS'opps'
p2394
I132
sS'terrible'
p2395
I132
sS'teeflii'
p2396
I131
sS'caption'
p2397
I132
sS'american'
p2398
I132
sS'expecting'
p2399
I132
sS'dis'
p2400
I132
sS'raw"'
p2401
I132
sS'cerveza'
p2402
I132
sS'miss'
p2403
I113
sS'06:47:11.0,33.98536434,-118.25373421,5328,lol,90001\n455228370788171776,thatonenigga13,2014-04-13'
p2404
I132
sS'4loko'
p2405
I132
sS'\xee\x90\x8a'
p2406
I132
sS'______'
p2407
I132
sS'oldies,90001\n456476303328157698,thatonenigga13,2014-04-16'
p2408
I132
sS'station'
p2409
I130
sS'hundred'
p2410
I132
sS'selling'
p2411
I130
sS'mode2a'
p2412
I132
sS'09:31:58.0,33.98524619,-118.25372968,5328,wide'
p2413
I132
sS'03:14:15.0,33.98535358,-118.25370045,5328,,90001\n455544313561108480,thatonenigga13,2014-04-14'
p2414
I132
sS"marcie's"
p2415
I132
sS'daddy,90001\n455562777185091584,thatonenigga13,2014-04-14'
p2416
I132
sS'dta'
p2417
I132
sS'tssss'
p2418
I132
sS'ecuador'
p2419
I132
sS"06:24:58.0,33.9853537,-118.25383983,5328,leo's"
p2420
I132
sS'wasnt'
p2421
I130
sS'chipmunk'
p2422
I132
sS'bff\xe2\x80\x9d'
p2423
I132
sS'lmaooooo'
p2424
I132
sS'randomly'
p2425
I132
sS'juice'
p2426
I132
sS'kara'
p2427
I132
sS'04:16:57.0,33.98533583,-118.25359457,5328,,90001\n454469418680999936,thatonenigga13,2014-04-11'
p2428
I132
sS'bags,90001\n454314563517689856,thatonenigga13,2014-04-10'
p2429
I132
sS'lie'
p2430
I119
sS'nerve,90001\n455614862828138496,thatonenigga13,2014-04-14'
p2431
I132
sS'lil'
p2432
I105
sS'lin'
p2433
I131
sS'lik'
p2434
I132
sS'lit'
p2435
I129
sS'lip'
p2436
I131
sS'towards'
p2437
I130
sS'quote'
p2438
I125
sS'sponsored'
p2439
I132
sS'eaten'
p2440
I131
sS'ye7ki'
p2441
I132
sS'kay'
p2442
I132
sS'22:17:43.0,33.98539657,-118.25369199,5328,high'
p2443
I132
sS'5-1'
p2444
I132
sS'mobile'
p2445
I132
sS'li-'
p2446
I131
sS'noone'
p2447
I132
sS'eighty4'
p2448
I132
sS'rules,90001\n455615140344254464,thatonenigga13,2014-04-14'
p2449
I132
sS'clean'
p2450
I125
sS'shoutout'
p2451
I132
sS'commas'
p2452
I131
sS'cowgirl'
p2453
I132
sS'tener'
p2454
I131
sS'stalker'
p2455
I132
sS'09:05:45.0,33.98529247,-118.25380362,5328,still'
p2456
I132
sS'referencia'
p2457
I132
sS'pretty'
p2458
I110
sS'circle'
p2459
I131
sS'06:36:22.0,33.98540269,-118.25379817,5328,i'
p2460
I132
sS'trees'
p2461
I132
sS'famous'
p2462
I127
sS'feels'
p2463
I120
sS'cuervo'
p2464
I132
sS'during'
p2465
I132
sS'catches'
p2466
I130
sS'07:35:25.0,33.98537608,-118.25383128,5328,u'
p2467
I132
sS'x'
p2468
I131
sS'cramp'
p2469
I132
sS'it,90001\n455551493332946944,thatonenigga13,2014-04-14'
p2470
I132
sS'morder...(8),90001\n503378851318071296,r__y__c__h__,2014-08-24'
p2471
I132
sS'sti'
p2472
I132
sS'close'
p2473
I121
sS'07:49:36.0,33.98506054,-118.25373331,5328,lmfao'
p2474
I132
sS'angie'
p2475
I132
sS'it,90001\n455621859275317248,thatonenigga13,2014-04-14'
p2476
I132
sS'hibiscus'
p2477
I132
sS'oldies'
p2478
I132
sS'pictures'
p2479
I129
sS'wow'
p2480
I111
sS'won'
p2481
I128
sS'dank'
p2482
I122
sS'piss'
p2483
I131
sS'missing'
p2484
I127
sS'ybalsho'
p2485
I132
sS'both'
p2486
I123
sS"wouldn't"
p2487
I130
sS"rally's"
p2488
I132
sS'sensitive'
p2489
I132
sS'boxers'
p2490
I130
sS',90001\n456712984941707265,thatonenigga13,2014-04-17'
p2491
I132
sS'liked'
p2492
I131
sS'likee'
p2493
I132
sS'headed'
p2494
I132
sS'battery'
p2495
I131
sS'ashleep'
p2496
I132
sS'whatever'
p2497
I131
sS'"no!"..."can'
p2498
I132
sS'skips'
p2499
I131
sS'likes'
p2500
I125
sS'wel'
p2501
I130
sS"04:28:37.0,33.98526506,-118.25374134,5328,can't"
p2502
I132
sS'about,90001\n455958010846654464,thatonenigga13,2014-04-15'
p2503
I132
sS'naps'
p2504
I132
sS'damn'
p2505
I113
sS'napk'
p2506
I132
sS'packs'
p2507
I132
sS'crack'
p2508
I128
sS'else'
p2509
I122
sS'nastyyyyyyyyyyy'
p2510
I132
sS'lives'
p2511
I130
sS'ayeeeee'
p2512
I132
sS'look'
p2513
I90
sS'phora'
p2514
I132
sS'while'
p2515
I107
sS'hooters'
p2516
I132
sS'pack'
p2517
I128
sS'smacked'
p2518
I132
sS'bookoo,90001\n455580309086429184,thatonenigga13,2014-04-14'
p2519
I132
sS'20days'
p2520
I132
sS'pornos'
p2521
I132
sS'man,90001\n458486090693742592,thatonenigga13,2014-04-22'
p2522
I132
sS'way,90001\n457641167127977984,thatonenigga13,2014-04-19'
p2523
I132
sS'ready'
p2524
I114
sS'anymore'
p2525
I120
sS'bootylicious'
p2526
I132
sS'03:34:31.0,33.9852887,-118.25368292,5328,i'
p2527
I132
sS'plan,90001\n455617144709869568,thatonenigga13,2014-04-14'
p2528
I132
sS'you.,90001\n455564824420696064,thatonenigga13,2014-04-14'
p2529
I132
sS'used'
p2530
I125
sS'classmates'
p2531
I132
sS'fatty'
p2532
I132
sS'dime'
p2533
I132
sS'fedk'
p2534
I132
sS'dream,90001\n454464753155313664,thatonenigga13,2014-04-11'
p2535
I132
sS'feds'
p2536
I131
sS'cleaning'
p2537
I128
sS'plugs'
p2538
I132
sS'brussels'
p2539
I132
sS'older'
p2540
I130
sS'grind'
p2541
I131
sS'gsc'
p2542
I131
sS'07:08:43.0,33.98519123,-118.25378364,5328,ima'
p2543
I132
sS'lol,90001\n455952014719991808,thatonenigga13,2014-04-15'
p2544
I132
sS'mahone'
p2545
I132
sS'cocky'
p2546
I131
sS'07:10:17.0,33.98527157,-118.25363192,5328,eating'
p2547
I132
sS'praying'
p2548
I132
sS'omhaagod'
p2549
I132
sS'calor'
p2550
I132
sS'havin'
p2551
I130
sS'19:42:47.0,33.9853824,-118.25374788,5328,yo'
p2552
I132
sS'soooooo'
p2553
I132
sS'reply,90001\n455621293933481984,thatonenigga13,2014-04-14'
p2554
I132
sS'lacking'
p2555
I132
sS'showing'
p2556
I132
sS'talk,90001\n455617417490599937,thatonenigga13,2014-04-14'
p2557
I132
sS'ruff'
p2558
I132
sS'game'
p2559
I98
sS'laggin'
p2560
I131
sS'wings'
p2561
I132
sS'05:31:25.0,33.98553747,-118.25384418,5328,caught'
p2562
I132
sS'yolo'
p2563
I131
sS'some'
p2564
I40
sS'lips'
p2565
I128
sS'added'
p2566
I132
sS'mmmmm'
p2567
I132
sS'alone,90001\n457776056473100288,thatonenigga13,2014-04-20'
p2568
I132
sS'savage'
p2569
I132
sS'finga'
p2570
I132
sS'07:13:08.0,33.98541769,-118.25389716,5328,wow'
p2571
I132
sS'goooool'
p2572
I132
sS'eating'
p2573
I115
sS'rub'
p2574
I132
sS'gmas'
p2575
I132
sS'jazzy'
p2576
I132
sS'step'
p2577
I131
sS'lasts'
p2578
I132
sS'chick'
p2579
I130
sS'ache'
p2580
I132
sS'thun,90001\n456012050846593024,thatonenigga13,2014-04-15'
p2581
I132
sS'shine'
p2582
I132
sS'fosho'
p2583
I132
sS'17:13:15.0,33.98543618,-118.2538213,5328,went'
p2584
I132
sS'awwww'
p2585
I130
sS'idk'
p2586
I115
sS'idc'
p2587
I129
sS'silence'
p2588
I132
sS'seeing'
p2589
I127
sS'04:49:26.0,33.9854617,-118.25386858,5328,i'
p2590
I132
sS'dude'
p2591
I125
sS'yrs,90001\n455629234451390464,thatonenigga13,2014-04-14'
p2592
I132
sS'smells'
p2593
I130
sS'02:43:52.0,33.98546799,-118.25383706,5328,wow'
p2594
I132
sS'wcw/wce'
p2595
I132
sS'nigga,90001\n457418696894316544,thatonenigga13,2014-04-19'
p2596
I132
sS'good.\xe2\x80\x9d'
p2597
I132
sS'himself'
p2598
I132
sS'dips'
p2599
I131
sS'info'
p2600
I132
sS'hair'
p2601
I117
sS'fdb'
p2602
I131
sS'it,90001\n457434090061316096,thatonenigga13,2014-04-19'
p2603
I132
sS'restarted'
p2604
I132
sS'clear'
p2605
I130
sS'necesito'
p2606
I132
sS'yuck,90001\n457411282237280257,thatonenigga13,2014-04-19'
p2607
I132
sS'08:25:36.0,33.98536032,-118.25387134,5328,dam'
p2608
I132
sS'not?:/'
p2609
I132
sS'creeper'
p2610
I132
sS'nah'
p2611
I88
sS'nar'
p2612
I132
sS'application'
p2613
I132
sS'nap'
p2614
I120
sS'nat'
p2615
I132
sS'nah?,90001\n457423476073062400,thatonenigga13,2014-04-19'
p2616
I132
sS'invitin'
p2617
I132
sS'right,90001\n455619261516365824,thatonenigga13,2014-04-14'
p2618
I132
sS'\xe2\x98\xba\xef\xb8\x8f\xe2\x98\xba\xef\xb8\x8f'
p2619
I131
sS'16:47:55.0,33.98539909,-118.25381946,5328,eating'
p2620
I132
sS'bruh,90001\n456994051099607040,thatonenigga13,2014-04-18'
p2621
I132
sS'structure'
p2622
I132
sS'school:('
p2623
I132
sS'e'
p2624
I132
sS'complicating'
p2625
I132
sS'youtube'
p2626
I132
sS'mentira'
p2627
I132
sS'gs'
p2628
I132
sS'v-cuts'
p2629
I132
sS'gf'
p2630
I130
sS'go'
p2631
I32
sS'gn'
p2632
I126
sS'blood,90001\n454338100412436480,thatonenigga13,2014-04-10'
p2633
I132
sS'nose'
p2634
I129
sS'biach'
p2635
I132
sS'wave'
p2636
I132
sS'facebook'
p2637
I132
sS'telling'
p2638
I131
sS'rn,90001\n456721375579754496,thatonenigga13,2014-04-17'
p2639
I132
sS'lie,90001\n454307785702768640,thatonenigga13,2014-04-10'
p2640
I132
sS'button'
p2641
I131
sS'michael'
p2642
I132
sS'assignments'
p2643
I132
sS'08:02:08.0,33.98536196,-118.25384167,5328,you'
p2644
I132
sS'exito'
p2645
I132
sS'deleting'
p2646
I132
sS'booty'
p2647
I96
sS'carter'
p2648
I131
sS'waking'
p2649
I130
sS'jump'
p2650
I129
sS'booth'
p2651
I132
sS'picked'
p2652
I131
sS'.,90001\n454523241516658688,thatonenigga13,2014-04-11'
p2653
I132
sS'download'
p2654
I130
sS'sausage'
p2655
I132
sS'tight,90001\n454338554760425472,thatonenigga13,2014-04-10'
p2656
I132
sS'vales'
p2657
I132
sS'playa'
p2658
I132
sS'21:44:41.0,33.98516303,-118.25367364,5328,today'
p2659
I132
sS'flo'
p2660
I132
sS'commercial'
p2661
I132
sS'eminem'
p2662
I131
sS'weirdo'
p2663
I130
sS'feens'
p2664
I132
sS"weren't"
p2665
I132
sS'18:49:39.0,33.98541677,-118.25388526,5328,hearin'
p2666
I132
sS'hike,90001\n455146235192565760,thatonenigga13,2014-04-13'
p2667
I132
sS'win'
p2668
I127
sS'ma3'
p2669
I132
sS'wit'
p2670
I84
sS'us,90001\n455635577149194241,thatonenigga13,2014-04-14'
p2671
I132
sS'singing'
p2672
I129
sS'hoochie'
p2673
I132
sS'cray'
p2674
I132
sS'coldplay'
p2675
I132
sS'vehicle'
p2676
I132
sS'cheeks'
p2677
I132
sS'1/2'
p2678
I132
sS'bendita'
p2679
I132
sS'becomes'
p2680
I131
sS'about'
p2681
I55
sS'confused'
p2682
I131
sS':-/'
p2683
I132
sS'ride'
p2684
I120
sS'donut'
p2685
I132
sS'meet'
p2686
I127
sS'drops'
p2687
I132
sS'porque'
p2688
I132
sS'halloween'
p2689
I132
sS'escaped'
p2690
I132
sS'pulling'
p2691
I130
sS'06:29:06.0,33.98556585,-118.25376037,5328,and'
p2692
I132
sS'hesitate'
p2693
I132
sS'vibe'
p2694
I132
sS'meanwhile'
p2695
I132
sS'located'
p2696
I132
sS'08:01:45.0,33.98529476,-118.25366964,5328,and'
p2697
I132
sS'bandana'
p2698
I132
sS"03:43:18.0,33.98539636,-118.25383471,5328,don't"
p2699
I132
sS'chiefs'
p2700
I132
sS'fart'
p2701
I132
sS'spelling'
p2702
I132
sS'narcocorridos'
p2703
I132
sS'07:37:21.0,33.9850945,-118.253894,5328,she'
p2704
I132
sS'scoop'
p2705
I131
sS'15:17:41.0,33.98531591,-118.25371885,5328,one'
p2706
I132
sS'bakers'
p2707
I132
sS'shytown'
p2708
I132
sS'emotions\xe2\x80\x9d'
p2709
I132
sS'cielos'
p2710
I132
sS"won't"
p2711
I116
sS'cruise'
p2712
I132
sS'low,90001\n457723964123398144,thatonenigga13,2014-04-20'
p2713
I132
sS'dancin'
p2714
I129
sS'22:16:16.0,33.98538238,-118.25373675,5328,caught'
p2715
I132
sS'madre'
p2716
I132
sS'haha,90001\n456254596671762432,thatonenigga13,2014-04-16'
p2717
I132
sS'cakin'
p2718
I132
sS'koreans'
p2719
I132
sS'skater'
p2720
I132
sS'twerkin'
p2721
I131
sS'auto'
p2722
I132
sS'tru\xe2\x80\x9d'
p2723
I132
sS'socks'
p2724
I130
sS'hands'
p2725
I126
sS'front'
p2726
I129
sS'07:57:32.0,33.98545173,-118.25380362,5328,washington'
p2727
I132
sS'pops,90001\n458356698726416384,thatonenigga13,2014-04-21'
p2728
I132
sS'university'
p2729
I130
sS'slide'
p2730
I127
sS'crossing'
p2731
I132
sS'seniors'
p2732
I132
sS'08:51:08.0,33.98540227,-118.2538778,5328,pussy'
p2733
I132
sS'illuminate'
p2734
I132
sS'(the'
p2735
I132
sS'mijo'
p2736
I132
sS'special'
p2737
I129
sS'ghabeye'
p2738
I132
sS'secretly'
p2739
I132
sS'entertainment'
p2740
I131
sS'last,90001\n455625216492720128,thatonenigga13,2014-04-14'
p2741
I132
sS'strokes'
p2742
I132
sS'cause'
p2743
I65
sS'maryjane'
p2744
I132
sS'fly-'
p2745
I132
sS'caramel'
p2746
I132
sS'06:28:23.0,33.98511654,-118.25366579,5328,shout'
p2747
I132
sS'04:45:30.0,33.98535804,-118.2536882,5328,drinkin'
p2748
I132
sS'latte'
p2749
I132
sS'ask'
p2750
I121
sS'it:/'
p2751
I132
sS'keep'
p2752
I112
sS'08:55:31.0,33.98535578,-118.2537344,5328,i'
p2753
I132
sS'keef'
p2754
I131
sS'austin'
p2755
I132
sS'hot,90001\n455265874450980864,thatonenigga13,2014-04-13'
p2756
I132
sS'sns'
p2757
I132
sS',90001\n455560490878369792,thatonenigga13,2014-04-14'
p2758
I132
sS'problems.\xe2\x80\x9d\xe2\x80\x9daww'
p2759
I132
sS'bitch'
p2760
I58
sS'mah'
p2761
I103
sS'"break'
p2762
I132
sS"you're"
p2763
I90
sS'ya,90001\n456511413976981504,thatonenigga13,2014-04-16'
p2764
I132
sS',90001\n455917970993082368,thatonenigga13,2014-04-15'
p2765
I132
sS'nahhhhhhh'
p2766
I132
sS'craving*'
p2767
I132
sS'ankle'
p2768
I130
sS'perfectly'
p2769
I132
sS'2-3'
p2770
I131
sS'2-1'
p2771
I131
sS'craziest'
p2772
I132
sS'dtla'
p2773
I127
sS'exactly'
p2774
I132
sS'lol,90001\n455623211355361280,thatonenigga13,2014-04-14'
p2775
I132
sS'07:58:46.0,33.9853436,-118.25382968,5328,i'
p2776
I132
sS'bishhh'
p2777
I132
sS'bieber'
p2778
I115
sS"that'll"
p2779
I131
sS'herself'
p2780
I131
sS'04:12:34.0,33.9852731,-118.25359485,5328,you'
p2781
I132
sS'beg'
p2782
I132
sS'bed'
p2783
I117
sS'light,90001\n454333895945633792,thatonenigga13,2014-04-10'
p2784
I132
sS'bet'
p2785
I127
sS',90001\n456592399104368640,thatonenigga13,2014-04-17'
p2786
I132
sS'drunk'
p2787
I111
sS'09:53:58.0,33.98521451,-118.25370291,5328,puro'
p2788
I132
sS'already,90001\n454302037102977025,thatonenigga13,2014-04-10'
p2789
I132
sS'it,90001\n455624702686281728,thatonenigga13,2014-04-14'
p2790
I132
sS'tabi'
p2791
I132
sS'need'
p2792
I53
sS'06:24:28.0,33.9853107,-118.25382181,5328,she'
p2793
I132
sS'itlay'
p2794
I131
sS'babosa'
p2795
I132
sS'screw'
p2796
I132
sS'able'
p2797
I127
sS'00:51:33.0,33.98525414,-118.25368738,5328,juggin'
p2798
I132
sS'06:37:06.0,33.98527758,-118.25376596,5328,that'
p2799
I132
sS'truck'
p2800
I132
sS'homies,90001\n455808550506205184,thatonenigga13,2014-04-14'
p2801
I132
sS'brand'
p2802
I131
sS'motha'
p2803
I132
sS'"through'
p2804
I132
sS'aww'
p2805
I123
sS'swollen'
p2806
I131
sS'duele'
p2807
I132
sS'awk'
p2808
I132
sS'awh'
p2809
I130
sS'coronitas'
p2810
I131
sS'$500'
p2811
I132
sS'08:22:40.0,33.98543773,-118.25387436,5328,lovers'
p2812
I132
sS'anyway'
p2813
I132
sS'rn,90001\n457427942696448000,thatonenigga13,2014-04-19'
p2814
I132
sS'lmao\xe2\x80\x9d'
p2815
I132
sS'choosin'
p2816
I132
sS'nose,90001\n457640829805273089,thatonenigga13,2014-04-19'
p2817
I132
sS'hondas'
p2818
I132
sS'envy'
p2819
I132
sS'earthquick'
p2820
I130
sS'ngl'
p2821
I132
sS'virgo'
p2822
I132
sS'hector'
p2823
I132
sS'sloppy,90001\n455617752380604416,thatonenigga13,2014-04-14'
p2824
I132
sS'overall'
p2825
I132
sS'121'
p2826
I132
sS'probably'
p2827
I116
sS'kops'
p2828
I132
sS'06:13:26.0,33.98529065,-118.25371811,5328,wow'
p2829
I132
sS'scrolling'
p2830
I132
sS'endless'
p2831
I132
sS'08:49:58.0,33.98539532,-118.25379163,5328,running'
p2832
I132
sS'same\xe2\x80\x9d'
p2833
I132
sS'shy'
p2834
I130
sS'aguites'
p2835
I132
sS"02:32:10.0,33.9853372,-118.25373149,5328,it's"
p2836
I132
sS'she'
p2837
I48
sS'wish'
p2838
I103
sS'shh'
p2839
I131
sS'grab'
p2840
I131
sS'gustaaaaaaa,90001\n455258437404725248,thatonenigga13,2014-04-13'
p2841
I132
sS'preach'
p2842
I131
sS'07:40:58.0,33.98544682,-118.25377294,5328,you'
p2843
I132
sS'uncomfortable\xe2\x80\x9d'
p2844
I132
sS'prayers'
p2845
I131
sS'humans'
p2846
I132
sS'legacy'
p2847
I132
sS"muchwe're"
p2848
I132
sS'blawwd'
p2849
I132
sS'17:54:39.0,33.98544075,-118.25379222,5328,my'
p2850
I132
sS'luv'
p2851
I130
sS'luz'
p2852
I131
sS'tene'
p2853
I131
sS'correctly'
p2854
I132
sS'nutritious'
p2855
I132
sS'06:03:50.0,33.98538626,-118.25379666,5328,got'
p2856
I132
sS'munching'
p2857
I127
sS'kicking'
p2858
I131
sS'blinked'
p2859
I132
sS'thadi'
p2860
I132
sS'hits'
p2861
I118
sS'aqui'
p2862
I132
sS'career'
p2863
I132
sS'minds'
p2864
I131
sS'admit'
p2865
I132
sS'interesting'
p2866
I132
sS'jersey'
p2867
I129
sS'skating'
p2868
I121
sS'cudi-'
p2869
I132
sS'03:47:31.0,33.98525987,-118.25377338,5328,i'
p2870
I132
sS'tuesday'
p2871
I129
sS'kings'
p2872
I132
sS'yay'
p2873
I130
sS'shogol'
p2874
I132
sS'17:09:28.0,33.9854666,-118.25380521,5328,gunnuh'
p2875
I132
sS'yas'
p2876
I130
sS',90001\n455257668513325056,thatonenigga13,2014-04-13'
p2877
I132
sS'slowly'
p2878
I132
sS'treat'
p2879
I131
sS'yak'
p2880
I132
sS'username'
p2881
I131
sS'diversity'
p2882
I132
sS'bedar'
p2883
I132
sS'league'
p2884
I132
sS'30mins'
p2885
I132
sS'-.-'
p2886
I115
sS'kicks'
p2887
I132
sS'smoking'
p2888
I124
sS'digger'
p2889
I132
sS'harder'
p2890
I132
sS'sleepy,90001\n455629021804384256,thatonenigga13,2014-04-14'
p2891
I132
sS'evelyn'
p2892
I132
sS'whatsssssssssss'
p2893
I132
sS'07:20:56.0,33.98522883,-118.25375638,5328,i'
p2894
I132
sS'hearted'
p2895
I132
sS'oppaz'
p2896
I132
sS'roman'
p2897
I132
sS'strange'
p2898
I132
sS'speaker'
p2899
I131
sS'party'
p2900
I116
sS'06:21:13.0,33.98538031,-118.25377713,5328,need'
p2901
I132
sS'09:33:29.0,33.9851541,-118.25377481,5328,i'
p2902
I132
sS'1-1'
p2903
I132
sS'1-0'
p2904
I132
sS'byeeeee'
p2905
I132
sS'spree'
p2906
I132
sS'nation'
p2907
I132
sS'//'
p2908
I132
sS'ashley'
p2909
I130
sS'reflection'
p2910
I131
sS'i'
p2911
I2
sS'bigdaddyandy13'
p2912
I131
sS'well'
p2913
I112
sS'welp'
p2914
I132
sS'pense'
p2915
I132
sS'mo,90001\n455631584238911488,thatonenigga13,2014-04-14'
p2916
I132
sS'taller'
p2917
I128
sS'you!:)'
p2918
I132
sS'accurate'
p2919
I132
sS'stopes'
p2920
I132
sS'01:54:37.0,33.98524794,-118.25369488,5328,got'
p2921
I132
sS'will,90001\n458669600365113344,thatonenigga13,2014-04-22'
p2922
I132
sS'extendo'
p2923
I132
sS'titts'
p2924
I132
sS'vida'
p2925
I131
sS'drive'
p2926
I127
sS'bullshit'
p2927
I123
sS',90001\n456007513851179008,thatonenigga13,2014-04-15'
p2928
I132
sS'homework'
p2929
I125
sS'ledge'
p2930
I132
sS'yompssssssssss'
p2931
I132
sS'lost'
p2932
I125
sS'ok,90001\n455977300308135936,thatonenigga13,2014-04-15'
p2933
I132
sS'candy'
p2934
I130
sS'martin'
p2935
I132
sS'tirrrrreeeeed'
p2936
I132
sS'smoke,90001\n457419785773383680,thatonenigga13,2014-04-19'
p2937
I132
sS'shed'
p2938
I132
sS'private,90001\n457007407797784577,thatonenigga13,2014-04-18'
p2939
I132
sS'twitter'
p2940
I117
sS'day,90001\n454645097313746944,thatonenigga13,2014-04-11'
p2941
I132
sS'00:44:46.0,33.98520964,-118.25377154,5328,everytime'
p2942
I132
sS'homo'
p2943
I132
sS'shes'
p2944
I132
sS'home'
p2945
I76
sS'liking'
p2946
I132
sS'daaayyyyyyy'
p2947
I132
sS'twerking'
p2948
I131
sS'crackheads'
p2949
I132
sS'18:48:18.0,33.98577611,-118.25386824,5328,you'
p2950
I132
sS'jumpstreet'
p2951
I132
sS'bombbbbbbb'
p2952
I132
sS'fugazi'
p2953
I131
sS'09:04:19.0,33.98513065,-118.25388122,5328,i'
p2954
I132
sS'puppies'
p2955
I132
sS'tongue'
p2956
I132
sS'chulo'
p2957
I132
sS'rocky-'
p2958
I130
sS'washington'
p2959
I132
sS'03:12:43.0,33.98548974,-118.25379523,5328,i'
p2960
I132
sS'lyoum'
p2961
I132
sS'lagged'
p2962
I130
sS'stop,90001\n456543122017644544,thatonenigga13,2014-04-16'
p2963
I132
sS'noticed'
p2964
I131
sS',90001\n458474960889995264,thatonenigga13,2014-04-22'
p2965
I132
sS'netherland'
p2966
I132
sS'north'
p2967
I131
sS'hs'
p2968
I132
sS'hp'
p2969
I130
sS'hw'
p2970
I129
sS'da5el'
p2971
I132
sS'go,90001\n455623581506863104,thatonenigga13,2014-04-14'
p2972
I132
sS'strawberries'
p2973
I132
sS'goals'
p2974
I113
sS'sprinkling'
p2975
I132
sS'ha'
p2976
I130
sS'goalz'
p2977
I132
sS'eat'
p2978
I106
sS'he'
p2979
I78
sS'eyes='
p2980
I131
sS'09:26:07.0,33.98531367,-118.25367564,5328,what'
p2981
I132
sS'22:00:37.0,33.98533212,-118.25375039,5328,who'
p2982
I132
sS'dms'
p2983
I124
sS'stories'
p2984
I130
sS'xolos'
p2985
I132
sS'piece'
p2986
I127
sS'humpin'
p2987
I131
sS',90001\n458768408331309056,thatonenigga13,2014-04-23'
p2988
I132
sS'kisses'
p2989
I132
sS'twist'
p2990
I132
sS'though,90001\n456727395597160448,thatonenigga13,2014-04-17'
p2991
I132
sS'kissed'
p2992
I132
sS'balcony'
p2993
I132
sS'7/11'
p2994
I132
sS'talkin'
p2995
I124
sS'star'
p2996
I129
sS'dumb,90001\n456000879615672320,thatonenigga13,2014-04-15'
p2997
I132
sS'09:18:08.0,33.98540395,-118.2539244,5328,she'
p2998
I132
sS'stan'
p2999
I132
sS'friends'
p3000
I111
sS'08:28:41.0,33.98521345,-118.25354269,5328,if'
p3001
I132
sS'funny,90001\n455913301252116480,thatonenigga13,2014-04-15'
p3002
I132
sS'protest'
p3003
I132
sS"08:13:30.0,33.98543685,-118.25383035,5328,i'm"
p3004
I132
sS'6pm'
p3005
I132
sS'captain'
p3006
I131
sS'(which'
p3007
I132
sS'swag'
p3008
I128
sS'buddy'
p3009
I130
sS'aug'
p3010
I132
sS'tryyyy'
p3011
I132
sS'sorry'
p3012
I119
sS'07:17:32.0,33.98527558,-118.25377068,5328,8'
p3013
I132
sS'today='
p3014
I132
sS'connects'
p3015
I132
sS'affect'
p3016
I132
sS'skills'
p3017
I131
sS'zucaritas'
p3018
I132
sS'mopped'
p3019
I132
sS'ups'
p3020
I130
sS'clothes'
p3021
I128
sS'once>>>'
p3022
I132
sS'10k'
p3023
I132
sS'babygirl'
p3024
I131
sS'japanese'
p3025
I132
sS'even'
p3026
I72
sS"19:07:02.0,33.98527486,-118.25362434,5328,you'll"
p3027
I132
sS'cake,90001\n455622090226282496,thatonenigga13,2014-04-14'
p3028
I132
sS'lights'
p3029
I131
sS'espana\xe2\x80\x9d'
p3030
I132
sS'new'
p3031
I90
sS'ever'
p3032
I91
sS'lol,90001\n417103946520350721,bobbyy0809,2013-12-29'
p3033
I132
sS'mee'
p3034
I132
sS'relationships'
p3035
I131
sS'never'
p3036
I79
sS'(los'
p3037
I132
sS'10%'
p3038
I132
sS'met'
p3039
I124
sS'109'
p3040
I130
sS'102'
p3041
I132
sS'100'
p3042
I131
sS"aren't"
p3043
I129
sS'dry'
p3044
I131
sS"!\xe2\x80\x9di'm"
p3045
I132
sS'wainoooooo'
p3046
I132
sS'piercing'
p3047
I132
sS'guide'
p3048
I132
sS'21:45:13.0,33.98536258,-118.25373361,5328,you'
p3049
I132
sS'eyebrows'
p3050
I132
sS'rip,90001\n454466116878741504,thatonenigga13,2014-04-11'
p3051
I132
sS'grandma'
p3052
I128
sS'county'
p3053
I132
sS'kimmys'
p3054
I131
sS'costly'
p3055
I132
sS'skkkkrt'
p3056
I132
sS'ya3mlo'
p3057
I132
sS'22:23:29.0,33.9839497,-118.2507979,5328,pelote'
p3058
I132
sS'arms'
p3059
I132
sS'07:54:49.0,33.98539934,-118.25381041,5328,you'
p3060
I132
sS'call'
p3061
I111
sS'calm'
p3062
I132
sS'07:02:53.0,33.9855301,-118.25379473,5328,hate'
p3063
I132
sS'typa'
p3064
I125
sS'type'
p3065
I119
sS'tell'
p3066
I102
sS'supporters'
p3067
I132
sS'lungs'
p3068
I132
sS'expose'
p3069
I132
sS'pelear'
p3070
I132
sS"5'9"
p3071
I132
sS'adult'
p3072
I132
sS'room'
p3073
I104
sS'08:13:09.0,33.98529714,-118.25372627,5328,who'
p3074
I132
sS'whack'
p3075
I132
sS'movies'
p3076
I127
sS'up,90001\n458070660149833728,thatonenigga13,2014-04-21'
p3077
I132
sS'righti'
p3078
I132
sS'give'
p3079
I89
sS'stressing'
p3080
I132
sS'honey'
p3081
I131
sS'homie'
p3082
I117
sS'montebello'
p3083
I132
sS'sats'
p3084
I132
sS'amazing'
p3085
I128
sS'07:53:45.0,33.98526136,-118.25363059,5328,hmu,90001\n456698345264648192,thatonenigga13,2014-04-17'
p3086
I132
sS'15:29:49.0,33.9854182,-118.25379431,5328,off'
p3087
I132
sS'in,90001\n456688783350448128,thatonenigga13,2014-04-17'
p3088
I132
sS'answer'
p3089
I131
sS'rise'
p3090
I132
sS'reaction,90001\n455913747396042752,thatonenigga13,2014-04-15'
p3091
I132
sS'replacing'
p3092
I132
sS'02:32:36.0,33.98555457,-118.25376824,5328,this'
p3093
I132
sS'ova'
p3094
I130
sS'president'
p3095
I132
sS'lesbian'
p3096
I131
sS'thanksssss'
p3097
I132
sS'horchata'
p3098
I130
sS'biiiiitch'
p3099
I132
sS'duuuuh'
p3100
I132
sS'okay,90001\n455913993626869760,thatonenigga13,2014-04-15'
p3101
I132
sS'chill,90001\n454817341566484480,thatonenigga13,2014-04-12'
p3102
I132
sS'me,90001\n455996727888072705,thatonenigga13,2014-04-15'
p3103
I132
sS'justinbieber'
p3104
I132
sS'thangs'
p3105
I129
sS'maintain'
p3106
I132
sS'deck'
p3107
I131
sS'banged'
p3108
I132
sS'before'
p3109
I115
sS"ah's,90001\n455999322723598336,thatonenigga13,2014-04-15"
p3110
I132
sS'10.3'
p3111
I132
sS'personal'
p3112
I132
sS'gente'
p3113
I132
sS'zombies,90001\n457761794459586561,thatonenigga13,2014-04-20'
p3114
I132
sS'crew'
p3115
I132
sS'better'
p3116
I86
sS',90001\n455634436596305921,thatonenigga13,2014-04-14'
p3117
I132
sS'differently'
p3118
I132
sS'itthe'
p3119
I132
sS'weeks'
p3120
I126
sS'aston'
p3121
I131
sS'weakness'
p3122
I132
sS'workout'
p3123
I123
sS'peoples'
p3124
I130
sS'\xe2\x98\xba\xef\xb8\x8f'
p3125
I112
sS'04:50:34.0,33.98541489,-118.25389749,5328,need'
p3126
I132
sS'one'
p3127
I59
sS'grammar'
p3128
I132
sS'meat'
p3129
I132
sS'15:56:29.0,33.98536539,-118.25381594,5328,,90001\n458543647080718336,thatonenigga13,2014-04-22'
p3130
I132
sS'ewwww'
p3131
I132
sS'nigga,90001\n455618908192395265,thatonenigga13,2014-04-14'
p3132
I132
sS'04:30:27.0,33.9853564,-118.25371509,5328,lmao'
p3133
I132
sS'leaned'
p3134
I131
sS'acoustic'
p3135
I132
sS'went'
p3136
I119
sS'bong'
p3137
I116
sS'side'
p3138
I125
sS'bone'
p3139
I132
sS'mean'
p3140
I110
sS'tatts'
p3141
I132
sS'20:22:49.0,33.98547067,-118.25382851,5328,my'
p3142
I132
sS'\xe2\x98\xba\xef\xb8\x8f,90001\n508388271504629760,thelouie_,2014-09-06'
p3143
I132
sS'lol,90001\n417101685354274816,bobbyy0809,2013-12-29'
p3144
I132
sS'gunna'
p3145
I124
sS'19:22:33.0,33.98531171,-118.25381652,5328,i'
p3146
I132
sS'dawg'
p3147
I128
sS'forgot'
p3148
I120
sS'temporary'
p3149
I127
sS'mstrkrft-'
p3150
I132
sS'sluts'
p3151
I132
sS'02:35:12.0,33.98541032,-118.25373233,5328,love'
p3152
I132
sS'kief'
p3153
I132
sS'ihop'
p3154
I132
sS'surprise'
p3155
I131
sS'02:15:00.0,33.98557808,-118.25381183,5328,wow'
p3156
I132
sS'perfect,90001\n454476084889653248,thatonenigga13,2014-04-11'
p3157
I132
sS'grease'
p3158
I132
sS'turning'
p3159
I130
sS'cutest'
p3160
I128
sS'throwbacks'
p3161
I132
sS'03:40:25.0,33.98542834,-118.25383052,5328,is'
p3162
I132
sS'tfeh'
p3163
I132
sS'ramos'
p3164
I129
sS'struggle'
p3165
I131
sS'favs'
p3166
I131
sS'starts'
p3167
I131
sS'messages'
p3168
I128
sS'15:48:27.0,33.98536916,-118.25385273,5328,females'
p3169
I132
sS'liquids'
p3170
I132
sS'loud'
p3171
I128
sS'fuckin'
p3172
I102
sS'either,90001\n457423780445298689,thatonenigga13,2014-04-19'
p3173
I132
sS'brazils'
p3174
I132
sS'unfollowed'
p3175
I131
sS'grade'
p3176
I131
sS'hoop'
p3177
I131
sS'hook'
p3178
I132
sS'05:30:25.0,33.98530052,-118.25406823,5328,i'
p3179
I132
sS'hood'
p3180
I116
sS'girls'
p3181
I93
sS'songs,90001\n455959019954270208,thatonenigga13,2014-04-15'
p3182
I132
sS'hollywood'
p3183
I132
sS'05:31:32.0,33.98557356,-118.25381158,5328,why'
p3184
I132
sS'rasak'
p3185
I132
sS'gym'
p3186
I132
sS'2am'
p3187
I129
sS'trippy'
p3188
I131
sS'"compact"'
p3189
I132
sS'mlrt'
p3190
I132
sS'wtf,90001\n456732050955829248,thatonenigga13,2014-04-17'
p3191
I132
sS'matter'
p3192
I127
sS'fabulous'
p3193
I132
sS'speaking'
p3194
I132
sS'hottie'
p3195
I132
sS'07:33:47.0,33.98534188,-118.25383815,5328,i'
p3196
I132
sS'\xe2\x80\x9cwhen'
p3197
I131
sS'mind'
p3198
I121
sS'mine'
p3199
I129
sS'seen'
p3200
I107
sS'seem'
p3201
I130
sS'mins'
p3202
I121
sS'tells'
p3203
I130
sS'08:58:13.0,33.98520658,-118.2538013,5328,put'
p3204
I132
sS'fuck,90001\n455968148429082624,thatonenigga13,2014-04-15'
p3205
I132
sS'nights\xe2\x80\x9d'
p3206
I132
sS'do)'
p3207
I132
sS'chest'
p3208
I131
sS'panties'
p3209
I132
sS'lowball'
p3210
I132
sS'don'
p3211
I132
sS'alarm'
p3212
I132
sS'dog'
p3213
I124
sS'doe'
p3214
I124
sS'jackies'
p3215
I132
sS'annoyed'
p3216
I127
sS'crazy.\xe2\x80\x9d'
p3217
I132
sS'ending'
p3218
I130
sS'kruger'
p3219
I132
sS'though,90001\n456310169773699072,thatonenigga13,2014-04-16'
p3220
I132
sS'08:16:54.0,33.98523418,-118.25373714,5328,wish'
p3221
I132
sS'"thelouie"'
p3222
I132
sS'naked,90001\n458531491509567489,thatonenigga13,2014-04-22'
p3223
I132
sS'you:)'
p3224
I132
sS'\xe2\x9d\xa4\xef\xb8\x8f\xe2\x9d\xa4\xef\xb8\x8f\xe2\x9d\xa4\xef\xb8\x8f\xe2\x9d\xa4\xef\xb8\x8f\xe2\x9d\xa4\xef\xb8\x8f\xe2\x9d\xa4\xef\xb8\x8f\xe2\x9d\xa4\xef\xb8\x8f\xe2\x9d\xa4\xef\xb8\x8f'
p3225
I132
sS'weekends'
p3226
I132
sS'favoritos'
p3227
I132
sS'quieres'
p3228
I131
sS'gangsta'
p3229
I130
sS'wearing'
p3230
I129
sS'stop'
p3231
I104
sS'tsssss'
p3232
I132
sS'watermelon'
p3233
I132
sS'09:08:44.0,33.98522966,-118.25375949,5328,went'
p3234
I132
sS'foreveralone'
p3235
I132
sS'01:17:40.0,33.98541749,-118.25372508,5328,lmfao'
p3236
I132
sS'driversif'
p3237
I132
sS'bag'
p3238
I132
sS'bad'
p3239
I87
sS'bae'
p3240
I99
sS'bab'
p3241
I132
sS'study*mocha'
p3242
I132
sS'decides'
p3243
I132
sS'testing'
p3244
I132
sS'08:23:07.0,33.98540428,-118.25374739,5328,6%,90001\n458156469444038657,thatonenigga13,2014-04-21'
p3245
I132
sS'juliet'
p3246
I132
sS'brazil'
p3247
I124
sS'said'
p3248
I107
sS'05'
p3249
I132
sS'smacks'
p3250
I132
sS"there's"
p3251
I121
sS'09:20:24.0,33.98546694,-118.25378442,5328,pandora'
p3252
I132
sS'lazy'
p3253
I127
sS'omg'
p3254
I120
sS'harvard'
p3255
I132
sS'orthodontist'
p3256
I132
sS'duckin'
p3257
I132
sS'cousin'
p3258
I119
sS'flexin'
p3259
I132
sS'"thelouie_"'
p3260
I132
sS'compton'
p3261
I132
sS'against'
p3262
I132
sS'tonight,90001\n456678864505155585,thatonenigga13,2014-04-17'
p3263
I132
sS'uno'
p3264
I132
sS'winnin'
p3265
I129
sS'height'
p3266
I131
sS'poppin,90001\n455632164369879041,thatonenigga13,2014-04-14'
p3267
I132
sS'booty,90001\n455530525562634240,thatonenigga13,2014-04-14'
p3268
I132
sS'san'
p3269
I132
sS'copycat'
p3270
I132
sS'asks'
p3271
I130
sS'02:20:25.0,33.98543634,-118.25385525,5328,ya'
p3272
I132
sS'youuuuuu'
p3273
I132
sS'three'
p3274
I130
sS'cyrus'
p3275
I132
sS'tina'
p3276
I132
sS'basic'
p3277
I131
sS'puto'
p3278
I132
sS'best"bitches'
p3279
I132
sS'idol'
p3280
I131
sS'threw'
p3281
I119
sS'website'
p3282
I130
sS'mcm'
p3283
I131
sS'yessssss'
p3284
I131
sS'sunshine'
p3285
I132
sS'20:27:50.0,33.98531723,-118.25366871,5328,when'
p3286
I132
sS'gracias'
p3287
I131
sS'say'
p3288
I104
sS'ugly'
p3289
I115
sS'near'
p3290
I132
sS'suppose'
p3291
I131
sS'chilling'
p3292
I132
sS'put*'
p3293
I132
sS'iz'
p3294
I132
sS'mexico'
p3295
I125
sS'02:44:09.0,33.98546799,-118.25383706,5328,iphone5'
p3296
I132
sS'is'
p3297
I18
sS'sushi'
p3298
I132
sS'it'
p3299
I11
sS'22:08:26.0,33.98535822,-118.25376067,5328,why'
p3300
I132
sS'shame'
p3301
I132
sS'cant'
p3302
I127
sS'.you'
p3303
I132
sS'im'
p3304
I83
sS'okay,90001\n455243746842406912,thatonenigga13,2014-04-13'
p3305
I132
sS'in'
p3306
I16
sS'nutted'
p3307
I131
sS'id'
p3308
I129
sS'ig'
p3309
I119
sS'if'
p3310
I41
sS'grown'
p3311
I132
sS'wtf,90001\n457689524689055745,thatonenigga13,2014-04-20'
p3312
I132
sS'bullshit,90001\n458158979957288960,thatonenigga13,2014-04-21'
p3313
I132
sS'make'
p3314
I71
sS'your"'
p3315
I132
sS'grows'
p3316
I132
sS'slapped,90001\n455548791546859521,thatonenigga13,2014-04-14'
p3317
I132
sS'kik'
p3318
I116
sS'kim'
p3319
I131
sS'jealous'
p3320
I126
sS'overs'
p3321
I132
sS"he'll"
p3322
I132
sS'xxtra'
p3323
I132
sS'kid'
p3324
I127
sS'butter'
p3325
I132
sS'practicee'
p3326
I132
sS'youre'
p3327
I130
sS'smokes'
p3328
I132
sS'pandora'
p3329
I123
sS'17:06:36.0,33.98538748,-118.25376305,5328,who'
p3330
I132
sS'smoked'
p3331
I125
sS'left'
p3332
I114
sS'slutty'
p3333
I132
sS'just'
p3334
I24
sS'yea'
p3335
I125
sS'unfollow'
p3336
I131
sS'21:01:06.0,33.98535642,-118.25381326,5328,hmm,90001\n454359745680248832,thatonenigga13,2014-04-10'
p3337
I132
sS'human'
p3338
I132
sS'yes'
p3339
I112
sS'tattooed'
p3340
I132
sS'yet'
p3341
I128
sS'facebut'
p3342
I132
sS'tbh\xe2\x80\x9d'
p3343
I132
sS'potential'
p3344
I132
sS'07:41:09.0,33.98541049,-118.25385097,5328,eating'
p3345
I132
sS'save'
p3346
I132
sS'gustas'
p3347
I131
sS'07:39:05.0,33.98522121,-118.25392907,5328,my'
p3348
I132
sS'03:29:05.0,33.98528188,-118.25370651,5328,everytime'
p3349
I132
sS'strap'
p3350
I132
sS'07:17:12.0,33.98534117,-118.25381929,5328,gunnuh'
p3351
I132
sS'dreams'
p3352
I130
sS'shoulder'
p3353
I132
sS'-_-'
p3354
I132
sS'unnecessary'
p3355
I131
sS'09:06:40.0,33.9853324,-118.25374502,5328,why'
p3356
I132
sS'zombies'
p3357
I130
sS'07:33:56.0,33.98511577,-118.25383715,5328,ayeeeee'
p3358
I132
sS'me,90001\n457379439924363264,thatonenigga13,2014-04-19'
p3359
I132
sS'deal'
p3360
I129
sS'masra3o'
p3361
I132
sS'noooo,90001\n455966935067287552,thatonenigga13,2014-04-15'
p3362
I132
sS'dead'
p3363
I124
sS'in..\xe2\x80\x9d'
p3364
I132
sS"nothing's"
p3365
I131
sS'trippen'
p3366
I132
sS'dear'
p3367
I132
sS'08:36:32.0,33.98541589,-118.25377797,5328,still'
p3368
I132
sS'*punches'
p3369
I131
sS'tripped'
p3370
I132
sS'loosin'
p3371
I132
sS'track'
p3372
I130
sS'ww3'
p3373
I132
sS'spider-man'
p3374
I132
sS'burn'
p3375
I128
sS'keeper'
p3376
I132
sS'super'
p3377
I125
sS"something's"
p3378
I132
sS'commin'
p3379
I132
sS'around,90001\n455616558568443904,thatonenigga13,2014-04-14'
p3380
I132
sS'meor'
p3381
I132
sS'09:13:33.0,33.98541602,-118.25379523,5328,my'
p3382
I132
sS'automatically'
p3383
I131
sS'daddy,90001\n455995613012697089,thatonenigga13,2014-04-15'
p3384
I132
sS'whats'
p3385
I131
sS'lied'
p3386
I132
sS'selfie'
p3387
I124
sS'down'
p3388
I75
sS'daum'
p3389
I132
sS'sabado'
p3390
I131
sS'05:01:16.0,33.985023,-118.25339798,5328,on'
p3391
I132
sS'01:13:03.0,33.9840183,-118.2508181,5328,y'
p3392
I132
sS'clappin'
p3393
I131
sS'stalk'
p3394
I132
sS'im2fuckedup'
p3395
I132
sS'fireworks'
p3396
I131
sS'work,90001\n455994013430988800,thatonenigga13,2014-04-15'
p3397
I132
sS'fakest'
p3398
I132
sS'daddy'
p3399
I125
sS'delete'
p3400
I130
sS'youuuuuu,90001\n456726753936158720,thatonenigga13,2014-04-17'
p3401
I132
sS'pimples'
p3402
I131
sS'sticky'
p3403
I132
sS',90001\n455561249623789568,thatonenigga13,2014-04-14'
p3404
I132
sS'mediocre'
p3405
I132
sS'lmfaooooooook'
p3406
I132
sS'shit'
p3407
I31
sS'holla'
p3408
I132
sS'clingy'
p3409
I132
sS'fosters'
p3410
I131
sS',90001\n455922302740209664,thatonenigga13,2014-04-15'
p3411
I132
sS'03:40:25.0,33.98516645,-118.25364082,5328,who'
p3412
I132
sS'hangin'
p3413
I132
sS'sling'
p3414
I132
sS'dies'
p3415
I131
sS'felt'
p3416
I131
sS'coronas'
p3417
I131
sS'fell'
p3418
I128
sS'brightens'
p3419
I131
sS'weekend'
p3420
I128
sS'died'
p3421
I128
sS'happening'
p3422
I131
sS'assume'
p3423
I132
sS'07:19:01.0,33.98521248,-118.25378625,5328,how'
p3424
I132
sS'teeth'
p3425
I128
sS'15:32:00.0,33.98529964,-118.25385715,5328,you'
p3426
I132
sS'bombed'
p3427
I131
sS'laura'
p3428
I132
sS'manager'
p3429
I132
sS'ceasars'
p3430
I132
sS'skin'
p3431
I131
sS'bomber'
p3432
I128
sS'milk'
p3433
I132
sS'suicide'
p3434
I132
sS'yummy'
p3435
I132
sS'king,90001\n457703950892793856,thatonenigga13,2014-04-20'
p3436
I132
sS'father'
p3437
I132
sS'disgusting'
p3438
I132
sS'hurtin'
p3439
I131
sS'0'
p3440
I131
sS'finally'
p3441
I106
sS'me'
p3442
I8
sS'string'
p3443
I132
sS'lieeeeeesssss'
p3444
I132
sS'tacos'
p3445
I128
sS'did'
p3446
I96
sS'die'
p3447
I124
sS'lmfao,90001\n455603541386604545,thatonenigga13,2014-04-14'
p3448
I132
sS'20:37:42.0,33.98545181,-118.2538317,5328,goin'
p3449
I132
sS'dip'
p3450
I132
sS'round'
p3451
I126
sS"it'll"
p3452
I132
sS'olympic'
p3453
I132
sS'pig,90001\n456117002348666880,thatonenigga13,2014-04-15'
p3454
I132
sS',90001\n456691816536875008,thatonenigga13,2014-04-17'
p3455
I132
sS'whaaaaat'
p3456
I132
sS'run'
p3457
I128
sS'bo2'
p3458
I132
sS'international'
p3459
I132
sS'makeup'
p3460
I129
sS'ridin'
p3461
I130
sS'laughin'
p3462
I131
sS'earthquake'
p3463
I132
sS'wait'
p3464
I118
sS'box'
p3465
I129
sS'boy'
p3466
I106
sS'yessss'
p3467
I132
sS'hbk'
p3468
I131
sS'canadian'
p3469
I131
sS'shift'
p3470
I129
sS'boi'
p3471
I132
sS'boo'
p3472
I110
sS'02:37:54.0,33.98538755,-118.25371619,5328,i'
p3473
I132
sS'massage'
p3474
I131
sS'08:19:11.0,33.98526266,-118.25366174,5328,tengo'
p3475
I132
sS'enorme'
p3476
I132
sS'08:16:19.0,33.98528018,-118.2537066,5328,do'
p3477
I132
sS'verga'
p3478
I131
sS'everybody'
p3479
I128
sS'perf'
p3480
I132
sS'baes'
p3481
I128
sS'aye'
p3482
I132
sS'stoopp'
p3483
I132
sS'09:58:47.0,33.98514168,-118.25363435,5328,so'
p3484
I132
sS'visit'
p3485
I132
sS'*closes'
p3486
I131
sS'06:17:15.0,33.98517021,-118.25379793,5328,i'
p3487
I132
sS'ayy'
p3488
I132
sS'ahhh'
p3489
I132
sS'thru'
p3490
I126
sS'oooooooo'
p3491
I132
sS'morrison-'
p3492
I130
sS'acceptable'
p3493
I132
sS'workout,90001\n455628866313150464,thatonenigga13,2014-04-14'
p3494
I132
sS'05:29:48.0,33.98529622,-118.25373931,5328,caught'
p3495
I132
sS'downtown'
p3496
I131
sS'fly'
p3497
I129
sS'avoiding'
p3498
I132
sS'soul'
p3499
I131
sS'09:22:10.0,33.98543266,-118.25377453,5328,them'
p3500
I132
sS'randomness,90001\n508392243707645952,thelouie_,2014-09-06'
p3501
I132
sS'sour'
p3502
I132
sS'sout'
p3503
I132
sS'9th'
p3504
I132
sS'making'
p3505
I125
sS'septum'
p3506
I130
sS'claim'
p3507
I132
sS'crazy'
p3508
I112
sS'fucj'
p3509
I132
sS'fuck'
p3510
I17
sS'pink'
p3511
I131
sS'purp'
p3512
I132
sS'till'
p3513
I115
sS'sunday'
p3514
I127
sS'pure'
p3515
I132
sS'mas'
p3516
I131
sS'may'
p3517
I131
sS'max'
p3518
I130
sS'mac'
p3519
I130
sS'mad'
p3520
I99
sS'b-ball'
p3521
I132
sS'iggy'
p3522
I131
sS'guys'
p3523
I115
sS'grow'
p3524
I131
sS'man'
p3525
I73
sS'neck'
p3526
I131
sS'maybe'
p3527
I130
sS'q'
p3528
I132
sS'switch'
p3529
I131
sS'jail'
p3530
I131
sS'block'
p3531
I122
sS'talk'
p3532
I90
sS'cute'
p3533
I106
sS'shoes'
p3534
I127
sS'19:22:54.0,33.98528235,-118.25379424,5328,i'
p3535
I132
sS'wishing'
p3536
I132
sS"o's"
p3537
I132
sS'laughs.\xe2\x80\x9d'
p3538
I132
sS'shake'
p3539
I130
sS'hoe,90001\n455625059730595840,thatonenigga13,2014-04-14'
p3540
I132
sS'police'
p3541
I132
sS'thank'
p3542
I115
sS'it,90001\n455998955965251584,thatonenigga13,2014-04-15'
p3543
I132
sS'thang'
p3544
I127
sS'ha,90001\n454363463872045056,thatonenigga13,2014-04-10'
p3545
I132
sS'daaaaaaaaaam'
p3546
I132
sS'tweets'
p3547
I121
sS'tomorow'
p3548
I132
sS'main'
p3549
I125
sS'killer'
p3550
I131
sS'lunch'
p3551
I129
sS'kkk'
p3552
I131
sS'killed'
p3553
I124
sS'02:22:26.0,33.9851459,-118.25381329,5328,i'
p3554
I132
sS'alex?,90001\n454690146315558912,thatonenigga13,2014-04-11'
p3555
I132
sS'pimp'
p3556
I130
sS'beach,90001\n455531496120397824,thatonenigga13,2014-04-14'
p3557
I132
sS'rock'
p3558
I131
sS'liberating'
p3559
I132
sS'girl'
p3560
I69
sS'living'
p3561
I129
sS'jackson'
p3562
I132
sS'3rd'
p3563
I132
sS'hayda'
p3564
I132
sS'stupid'
p3565
I111
sS'"you\'ll'
p3566
I132
sS'haydi'
p3567
I132
sS'nudes'
p3568
I131
sS'correct'
p3569
I132
sS'earlier'
p3570
I124
sS'monster'
p3571
I132
sS'california'
p3572
I132
sS'15:40:12.0,33.98530966,-118.25363854,5328,lmao'
p3573
I132
sS'underwear'
p3574
I132
sS'thing'
p3575
I113
sS'yuyoe'
p3576
I132
sS'yess'
p3577
I130
sS'think'
p3578
I71
sS'first'
p3579
I111
sS'exotic'
p3580
I132
sS'cheese'
p3581
I127
sS'03:45:36.0,33.98543802,-118.25384611,5328,wishin'
p3582
I132
sS'question'
p3583
I131
sS'crib'
p3584
I132
sS'islitas'
p3585
I131
sS'long'
p3586
I109
sS'sounds'
p3587
I131
sS'1s'
p3588
I132
sS'slept'
p3589
I132
sS'anyone'
p3590
I120
sS'1k'
p3591
I130
sS'lol,90001\n417097844810477569,bobbyy0809,2013-12-29'
p3592
I132
sS'eyes'
p3593
I116
sS'boba'
p3594
I132
sS'butt'
p3595
I129
sS'lately,90001\n455559725518573568,thatonenigga13,2014-04-14'
p3596
I132
sS'drugs,90001\n455636007145046016,thatonenigga13,2014-04-14'
p3597
I132
sS'11'
p3598
I127
sS'10'
p3599
I117
sS'mouth?\xe2\x80\x9d'
p3600
I132
sS'12'
p3601
I125
sS'15'
p3602
I128
sS'14'
p3603
I132
sS'17'
p3604
I131
sS'16'
p3605
I129
sS'19'
p3606
I128
sS'18'
p3607
I131
sS'gotta'
p3608
I91
sS'plague//'
p3609
I132
sS'05:08:17.0,33.98543396,-118.2538964,5328,close'
p3610
I132
sS'1%'
p3611
I132
sS'were'
p3612
I111
sS'"huh"'
p3613
I132
sS'garantiza'
p3614
I132
sS'lick'
p3615
I130
sS'yalla'
p3616
I131
sS'briefs'
p3617
I132
sS'conspiracy'
p3618
I132
sS'booty.\xe2\x80\x9d'
p3619
I132
sS'occupied'
p3620
I132
sS'kevin'
p3621
I132
sS'me,90001\n454306779946434560,thatonenigga13,2014-04-10'
p3622
I132
sS'burnin'
p3623
I131
sS'squad'
p3624
I128
sS'personalized'
p3625
I132
sS'wonder'
p3626
I120
sS'up,90001\n457426193029935104,thatonenigga13,2014-04-19'
p3627
I132
sS'skinned'
p3628
I128
sS'pain'
p3629
I126
sS'normal'
p3630
I132
sS'arguing'
p3631
I130
sS'paid'
p3632
I130
sS'morder'
p3633
I131
sS'voice*'
p3634
I132
sS'especially'
p3635
I130
sS'shop'
p3636
I129
sS'beaner'
p3637
I131
sS'shot'
p3638
I126
sS'show'
p3639
I117
sS'15:40:43.0,33.98529716,-118.25361196,5328,same'
p3640
I132
sS'corner'
p3641
I130
sS'takin'
p3642
I122
sS'06:51:46.0,33.98526569,-118.25372048,5328,osea'
p3643
I132
sS'stormy'
p3644
I131
sS'00:04:06.0,33.98529657,-118.25366693,5328,bullets'
p3645
I132
sS'dick'
p3646
I121
sS'behind'
p3647
I128
sS'either'
p3648
I125
sS'partying'
p3649
I132
sS'black'
p3650
I116
sS'03:40:08.0,33.98539899,-118.2537232,5328,i'
p3651
I132
sS'awareness'
p3652
I132
sS'get'
p3653
I29
sS'frontin'
p3654
I132
sS'nearly'
p3655
I132
sS'$005'
p3656
I132
sS'reading'
p3657
I130
sS'thanksss'
p3658
I132
sS'morning'
p3659
I106
sS'miles'
p3660
I132
sS'miley'
p3661
I130
sS'instagram*'
p3662
I131
sS'shit.,90001\n454692444261470208,thatonenigga13,2014-04-11'
p3663
I132
sS'me,90001\n456266816315084800,thatonenigga13,2014-04-16'
p3664
I132
sS'seat'
p3665
I130
sS'sean'
p3666
I132
sS'kermit'
p3667
I132
sS'09:06:24.0,33.98527385,-118.25371714,5328,beach'
p3668
I132
sS'rn,90001\n456600063699976196,thatonenigga13,2014-04-17'
p3669
I132
sS'life,90001\n455614645491863552,thatonenigga13,2014-04-14'
p3670
I132
sS'parent'
p3671
I131
sS'sleepin'
p3672
I130
sS'24/7'
p3673
I131
sS'enough'
p3674
I129
sS'llorar'
p3675
I132
sS'kleerup'
p3676
I132
sS'across'
p3677
I132
sS'20:22:02.0,33.98533326,-118.25367683,5328,so'
p3678
I132
sS'ima'
p3679
I63
sS'august'
p3680
I132
sS"02:35:53.0,33.98536692,-118.25376804,5328,haven't"
p3681
I132
sS'kool'
p3682
I129
sS'tus'
p3683
I132
sS'jp'
p3684
I132
sS'blood,90001\n457642106639499264,thatonenigga13,2014-04-19'
p3685
I132
sS'jr'
p3686
I132
sS'js'
p3687
I131
sS'jk'
p3688
I120
sS'singers'
p3689
I132
sS'tub'
p3690
I132
sS'killing'
p3691
I132
sS'jb'
p3692
I130
sS'jc'
p3693
I132
sS'waino'
p3694
I131
sS'dedicate'
p3695
I132
sS'restroom'
p3696
I131
sS'up,90001\n457008761727512576,thatonenigga13,2014-04-18'
p3697
I132
sS'jocey'
p3698
I132
sS'cancer'
p3699
I131
sS'08:05:03.0,33.98524395,-118.2538239,5328,really'
p3700
I132
sS'spank'
p3701
I132
sS"08:05:20.0,33.98533526,-118.25362508,5328,it's"
p3702
I132
sS'capable'
p3703
I132
sS'pizza,90001\n456666555154063360,thatonenigga13,2014-04-17'
p3704
I132
sS'tryna'
p3705
I95
sS'judging'
p3706
I131
sS'tyga'
p3707
I132
sS'me,90001\n456727083373191169,thatonenigga13,2014-04-17'
p3708
I132
sS'disappointed'
p3709
I130
sS'aquellos'
p3710
I132
sS'educated'
p3711
I132
sS'man,90001\n455621973146488833,thatonenigga13,2014-04-14'
p3712
I132
sS'offered'
p3713
I131
sS'waka'
p3714
I131
sS'wake'
p3715
I116
sS'everyone.\xe2\x80\x9d'
p3716
I132
sS'hatin'
p3717
I132
sS'hardcore'
p3718
I132
sS'lmfao,90001\n457318079626608640,thatonenigga13,2014-04-19'
p3719
I132
sS'those'
p3720
I124
sS'sound'
p3721
I132
sS'disconnected'
p3722
I132
sS'turtles'
p3723
I132
sS'ratchet'
p3724
I130
sS'coco'
p3725
I132
sS'hmmmm'
p3726
I132
sS'cock'
p3727
I132
sS'pushin'
p3728
I131
sS'awake,90001\n458172656420786176,thatonenigga13,2014-04-21'
p3729
I132
sS'coffee'
p3730
I131
sS'sleeping'
p3731
I129
sS'middle'
p3732
I127
sS'sudden'
p3733
I130
sS'loosing'
p3734
I132
sS'protein'
p3735
I132
sS'everyday'
p3736
I121
sS'different'
p3737
I120
sS'pat'
p3738
I132
sS',90001\n455977615195512832,thatonenigga13,2014-04-15'
p3739
I132
sS'pay'
p3740
I129
sS'pepe'
p3741
I132
sS'same'
p3742
I110
sS'house,90001\n456579634914537472,thatonenigga13,2014-04-16'
p3743
I132
sS'pac'
p3744
I132
sS'pad'
p3745
I129
sS'sams'
p3746
I132
sS'stepped'
p3747
I131
sS'emojis'
p3748
I132
sS'pal'
p3749
I132
sS'07:06:50.0,33.98526256,-118.25365415,5328,love'
p3750
I132
sS'scared,90001\n457428825052164097,thatonenigga13,2014-04-19'
p3751
I132
sS'again,90001\n455623028429586432,thatonenigga13,2014-04-14'
p3752
I132
sS'running'
p3753
I129
sS'tapatio'
p3754
I132
sS'totally'
p3755
I132
sS'07:58:14.0,33.98515302,-118.25355225,5328,got'
p3756
I132
sS'emoji*'
p3757
I132
sS'roommate'
p3758
I131
sS'bottle'
p3759
I128
sS'bumping'
p3760
I132
sS'(x,90001\n455998429013868544,thatonenigga13,2014-04-15'
p3761
I132
sS'man,90001\n456258501149343744,thatonenigga13,2014-04-16'
p3762
I132
sS'07:14:04.0,33.98527183,-118.25369988,5328,i'
p3763
I132
sS'money'
p3764
I105
sS'posole'
p3765
I132
sS'tommorow,90001\n458505192325922816,thatonenigga13,2014-04-22'
p3766
I132
sS'mcdonald'
p3767
I132
sS'guera,90001\n456005420960587776,thatonenigga13,2014-04-15'
p3768
I132
sS'ahhhh'
p3769
I132
sS'4'
p3770
I111
sS'tits'
p3771
I131
sS'song,90001\n457432465565446144,thatonenigga13,2014-04-19'
p3772
I132
sS'mop'
p3773
I132
sS'man,90001\n458529417346560000,thatonenigga13,2014-04-22'
p3774
I132
sS'mom'
p3775
I104
sS'mob'
p3776
I132
sS'blankets'
p3777
I132
sS'homegirl'
p3778
I130
sS'thighs'
p3779
I132
sS'nice'
p3780
I103
sS'beaners'
p3781
I132
sS'naaa'
p3782
I132
sS'*scrolls*'
p3783
I131
sS'naah'
p3784
I132
sS'lol,90001\n456303579108618240,thatonenigga13,2014-04-16'
p3785
I132
sS'people\xe2\x80\x9dgive'
p3786
I132
sS'sneaked'
p3787
I132
sS'17:18:34.0,33.98539138,-118.25382658,5328,still'
p3788
I132
sS'niggahs'
p3789
I132
sS'outs'
p3790
I131
sS'rese\xc3\xb1as'
p3791
I132
sS'expressing'
p3792
I132
sS'caring'
p3793
I132
sS'seconds'
p3794
I132
sS'out"'
p3795
I132
sS'homework,90001\n457928330382434304,thatonenigga13,2014-04-20'
p3796
I132
sS'road'
p3797
I132
sS'ace,90001\n454378441727418369,thatonenigga13,2014-04-10'
p3798
I132
sS'movie,90001\n454829995504848896,thatonenigga13,2014-04-12'
p3799
I132
sS'coupon'
p3800
I132
sS'whiter'
p3801
I132
sS'spreading'
p3802
I132
sS'blessed'
p3803
I123
sS'vacation'
p3804
I130
sS'breath'
p3805
I132
sS'hoe,90001\n457615239584821248,thatonenigga13,2014-04-19'
p3806
I132
sS'06:32:37.0,33.98543199,-118.25381041,5328,love'
p3807
I132
sS'ortiz'
p3808
I132
sS'mondays'
p3809
I132
sS'earphones'
p3810
I131
sS'alameda'
p3811
I132
sS'redbull'
p3812
I132
sS'water..please'
p3813
I132
sS'pasando'
p3814
I132
sS'delilah'
p3815
I132
sS'brahva'
p3816
I132
sS'haciendo'
p3817
I132
sS'lnfao'
p3818
I132
sS'khloe'
p3819
I132
sS"wasn't"
p3820
I125
sS'strawberry'
p3821
I132
sS'deaddddddd'
p3822
I132
sS'..\xe2\x80\x9d,90001\n455817514623070208,thatonenigga13,2014-04-14'
p3823
I132
sS'videos'
p3824
I130
sS'deep'
p3825
I131
sS'fellow'
p3826
I131
sS'd\xc3\xa9j\xc3\xa0'
p3827
I132
sS'girlfriend'
p3828
I127
sS'film'
p3829
I132
sS'fill'
p3830
I132
sS'again'
p3831
I100
sS'17:34:22.0,33.98540835,-118.2537654,5328,bout'
p3832
I132
sS'narcotics'
p3833
I132
sS'field'
p3834
I131
sS'16:32:30.0,33.98533117,-118.25359151,5328,you'
p3835
I132
sS'lie,90001\n458411222644166656,thatonenigga13,2014-04-22'
p3836
I132
sS'infierno'
p3837
I131
sS'obsessed'
p3838
I132
sS'students'
p3839
I132
sS'julyer'
p3840
I132
sS'important'
p3841
I132
sS"she's"
p3842
I124
sS'chris'
p3843
I132
sS'13'
p3844
I128
sS'outkast-'
p3845
I132
sS'flyin'
p3846
I132
sS'u'
p3847
I61
sS'alright'
p3848
I128
sS'starting'
p3849
I130
sS'represent'
p3850
I132
sS'liar'
p3851
I130
sS'forget'
p3852
I130
sS'rascals'
p3853
I132
sS'dollar'
p3854
I130
sS'dollas'
p3855
I131
sS'talks'
p3856
I131
sS'day1'
p3857
I132
sS'on,90001\n455544536911994882,thatonenigga13,2014-04-14'
p3858
I132
sS'imma'
p3859
I128
sS'09:16:01.0,33.98518209,-118.25376135,5328,a'
p3860
I132
sS'07:45:13.0,33.98535071,-118.25370065,5328,outro,90001\n457424051883896832,thatonenigga13,2014-04-19'
p3861
I132
sS'enjoying'
p3862
I132
sS'mornin'
p3863
I128
sS'sitting'
p3864
I132
sS'atb"'
p3865
I132
sS'fall'
p3866
I120
sS'difference'
p3867
I130
sS'trippin'
p3868
I128
sS'washing'
p3869
I132
sS'alma'
p3870
I132
sS'celebrity'
p3871
I132
sS'exclusive}'
p3872
I132
sS'hyu'
p3873
I131
sS'yasssss'
p3874
I132
sS'drinkin,90001\n457421588678184960,thatonenigga13,2014-04-19'
p3875
I132
sS'burger'
p3876
I127
sS'away,90001\n454374997289496576,thatonenigga13,2014-04-10'
p3877
I132
sS'90s'
p3878
I132
sS'abl'
p3879
I132
sS'coronel'
p3880
I132
sS'stoop'
p3881
I132
sS'chancla'
p3882
I132
sS'abs'
p3883
I127
sS'public'
p3884
I131
sS'movement'
p3885
I132
sS'rn,90001\n455977876647460864,thatonenigga13,2014-04-15'
p3886
I132
sS'tattoos'
p3887
I132
sS'outgoing'
p3888
I132
sS"c'mon"
p3889
I131
sS'vale'
p3890
I132
sS'yaaaaaa'
p3891
I132
sS'god,90001\n457432102053490688,thatonenigga13,2014-04-19'
p3892
I132
sS'bible'
p3893
I132
sS'jackie'
p3894
I131
sS'fwb'
p3895
I130
sS"21:46:55.0,33.98541564,-118.25366171,5328,i'm"
p3896
I132
sS'stella'
p3897
I132
sS'humansnot'
p3898
I132
sS'africa'
p3899
I132
sS'"let\'s'
p3900
I132
sS"but(':\xe2\x9d\xa4\xef\xb8\x8f,90001\n457437818248126464,thatonenigga13,2014-04-19"
p3901
I132
sS'rican'
p3902
I132
sS'armed'
p3903
I132
sS'rafo'
p3904
I132
sS'eye'
p3905
I130
sS'texting'
p3906
I131
sS'two'
p3907
I129
sS'ayeeeeeeeeee'
p3908
I132
sS'diamond'
p3909
I132
sS'pads'
p3910
I132
sS"ain't"
p3911
I51
sS'dey'
p3912
I131
sS'none'
p3913
I127
sS'hour'
p3914
I122
sS'sucks'
p3915
I120
sS'roosevelt'
p3916
I131
sS'dew'
p3917
I132
sS'del'
p3918
I131
sS'den'
p3919
I125
sS'few,90001\n454642447042109441,thatonenigga13,2014-04-11'
p3920
I132
sS'sucka'
p3921
I132
sS'stubborn'
p3922
I131
sS'share'
p3923
I131
sS'needs'
p3924
I127
sS'awkward'
p3925
I129
sS'needa'
p3926
I131
sS'had,90001\n458517644618911744,thatonenigga13,2014-04-22'
p3927
I132
sS'sprig'
p3928
I132
sS'gtfo'
p3929
I131
sS'weird,90001\n455537136502980608,thatonenigga13,2014-04-14'
p3930
I132
sS'efron'
p3931
I132
sS'blood'
p3932
I127
sS'coming'
p3933
I126
sS'bloom'
p3934
I132
sS'tams,90001\n458374204652404736,thatonenigga13,2014-04-21'
p3935
I132
sS'them,90001\n454733070768156674,thatonenigga13,2014-04-11'
p3936
I132
sS'hypnotized'
p3937
I132
sS'tweeting'
p3938
I128
sS'secs'
p3939
I132
sS'lmfaooooo'
p3940
I131
sS'playing'
p3941
I124
sS"that's"
p3942
I59
sS'infant'
p3943
I132
sS'through'
p3944
I109
sS'filters'
p3945
I132
sS'suffer'
p3946
I132
sS'24'
p3947
I132
sS'messed'
p3948
I131
sS'26'
p3949
I132
sS'20'
p3950
I129
sS'21'
p3951
I128
sS'22'
p3952
I131
sS'adios'
p3953
I132
sS'thnx'
p3954
I132
sS'28'
p3955
I132
sS'29'
p3956
I132
sS'2$'
p3957
I132
sS'2%'
p3958
I132
sS'pena'
p3959
I132
sS'goodmorningg'
p3960
I132
sS'01:29:28.0,33.98521891,-118.25363042,5328,and'
p3961
I132
sS'walla'
p3962
I132
sS'hurting'
p3963
I130
sS'good'
p3964
I59
sS'gool'
p3965
I132
sS'impossible'
p3966
I132
sS'okk'
p3967
I132
sS'struggling'
p3968
I132
sS'easily'
p3969
I132
sS'too,90001\n456250619439771648,thatonenigga13,2014-04-16'
p3970
I132
sS'pregnant'
p3971
I131
sS'drake'
p3972
I130
sS'goofy'
p3973
I132
sS'toked'
p3974
I132
sS"6'5"
p3975
I132
sS'biscuits'
p3976
I132
sS'09:35:10.0,33.98515897,-118.2538222,5328,my'
p3977
I132
sS"6'2"
p3978
I132
sS'19:00:37.0,33.98535364,-118.25374803,5328,lmfao'
p3979
I132
sS'everyone'
p3980
I118
sS'pechera'
p3981
I132
sS'house'
p3982
I107
sS'energy'
p3983
I132
sS'hard'
p3984
I114
sS'17:05:54.0,33.98528047,-118.2535952,5328,might'
p3985
I132
sS'idea'
p3986
I130
sS'hara'
p3987
I132
sS'niggas,90001\n455203322908008448,thatonenigga13,2014-04-13'
p3988
I132
sS'connect'
p3989
I122
sS'fist'
p3990
I132
sS'jae1'
p3991
I132
sS'initiatives'
p3992
I132
sS'lovers'
p3993
I132
sS'skatin'
p3994
I131
sS'd\xc3\xb3nde'
p3995
I132
sS'3ndi'
p3996
I132
sS'playin,90001\n456703208736305152,thatonenigga13,2014-04-17'
p3997
I132
sS'acting'
p3998
I129
sS"they'll"
p3999
I130
sS'slangin'
p4000
I132
sS'sbq'
p4001
I132
sS'man,90001\n455632845591941120,thatonenigga13,2014-04-14'
p4002
I132
sS'end,90001\n456727290097831936,thatonenigga13,2014-04-17'
p4003
I132
sS'toy'
p4004
I132
sS'disneyland'
p4005
I131
sS'dont'
p4006
I110
sS'valentina'
p4007
I132
sS'done'
p4008
I110
sS'donk'
p4009
I131
sS'aghhh'
p4010
I132
sS'killin'
p4011
I130
sS'koo'
p4012
I128
sS'5th'
p4013
I132
sS'lowkey,90001\n456199286682681344,thatonenigga13,2014-04-15'
p4014
I132
sS'mami'
p4015
I132
sS'paint'
p4016
I132
sS'leash'
p4017
I132
sS'statement'
p4018
I132
sS'yes\xe2\x9d\xa4\xef\xb8\x8f'
p4019
I132
sS'07:35:59.0,33.9854218,-118.25378409,5328,chillin'
p4020
I132
sS'para'
p4021
I131
sS'you\xe2\x80\x9d'
p4022
I131
sS'park'
p4023
I111
sS'hugeeeee'
p4024
I132
sS'part'
p4025
I128
sS'diarrhea.\xe2\x80\x9d'
p4026
I132
sS'02:10:51.0,33.98536992,-118.25378208,5328,fuck'
p4027
I132
sS'believe'
p4028
I124
sS'high.\xe2\x80\x9d'
p4029
I132
sS'b'
p4030
I125
sS'compliments'
p4031
I132
sS'gotten'
p4032
I130
sS'19:20:18.0,33.98546522,-118.25377017,5328,and'
p4033
I132
sS'supposed'
p4034
I132
sS'treated'
p4035
I132
sS'swerve'
p4036
I132
sS'outta'
p4037
I129
sS'hangout'
p4038
I132
sS'1:01'
p4039
I132
sS'creased'
p4040
I132
sS'mountain'
p4041
I132
sS'sandwich,90001\n456299218601119744,thatonenigga13,2014-04-16'
p4042
I132
sS'weenies'
p4043
I132
sS'dancing'
p4044
I132
sS'couch'
p4045
I131
sS'magic-'
p4046
I132
sS'caesar'
p4047
I132
sS'cameroon'
p4048
I132
sS'waitin'
p4049
I131
sS'compa'
p4050
I132
sS'eggs'
p4051
I132
sS'happenss'
p4052
I132
sS'most'
p4053
I123
sS'up,90001\n454643733116370944,thatonenigga13,2014-04-11'
p4054
I132
sS'significant'
p4055
I132
sS'kb'
p4056
I130
sS'ko'
p4057
I131
sS'bustin'
p4058
I132
sS'parody'
p4059
I132
sS'03:41:09.0,33.98537411,-118.25375416,5328,gunnuh'
p4060
I132
sS'carne'
p4061
I132
sS'lmfaooooook'
p4062
I132
sS'hopped'
p4063
I132
sS'fine'
p4064
I122
sS'find'
p4065
I108
sS'tank,90001\n455561907953336321,thatonenigga13,2014-04-14'
p4066
I132
sS'pinche'
p4067
I130
sS'w&b'
p4068
I125
sS'ruin'
p4069
I132
sS'poppin'
p4070
I129
sS'gilly'
p4071
I132
sS'8'
p4072
I127
sS'.adios'
p4073
I132
sS'lmaoo\xe2\x80\x9d\xe2\x80\x9d\xe2\x80\x9d'
p4074
I132
sS'beyonc\xc3\xa9'
p4075
I131
sS'express'
p4076
I131
sS"mendez's"
p4077
I132
sS'm7ajabe'
p4078
I132
sS'kiked'
p4079
I132
sS'tittiesssssssss'
p4080
I132
sS'devils'
p4081
I132
sS'vibin'
p4082
I132
sS'vine'
p4083
I132
sS'lion'
p4084
I131
sS'whyyy'
p4085
I132
sS'retweet'
p4086
I130
sS'twitter*'
p4087
I132
sS'tamales'
p4088
I131
sS'visiting'
p4089
I132
sS'please'
p4090
I121
sS'sadness.\xe2\x80\x9d'
p4091
I132
sS'fans'
p4092
I132
sS'paisa'
p4093
I127
sS'burned'
p4094
I132
sS'rn,90001\n454678930377551872,thatonenigga13,2014-04-11'
p4095
I132
sS'rubbin'
p4096
I132
sS'pinhe'
p4097
I132
sS'restaurant'
p4098
I132
sS'masaratis'
p4099
I132
sS'long,90001\n455997076564754432,thatonenigga13,2014-04-15'
p4100
I132
sS'bongo'
p4101
I132
sS'point'
p4102
I114
sS'simple'
p4103
I132
sS'dancer'
p4104
I131
sS'simply'
p4105
I132
sS'raise'
p4106
I131
sS'autocorrect'
p4107
I131
sS'secret'
p4108
I132
sS'dropping'
p4109
I130
sS'chokeslam'
p4110
I132
sS'yogurtland'
p4111
I132
sS'meeting'
p4112
I130
sS'slips'
p4113
I132
sS'gay'
p4114
I124
sS'08:08:19.0,33.9851016,-118.2538858,5328,being'
p4115
I132
sS',90001\n454332378324803584,thatonenigga13,2014-04-10'
p4116
I132
sS'understand'
p4117
I129
sS'hearin'
p4118
I130
sS'fuq'
p4119
I129
sS'solid'
p4120
I132
sS'catter'
p4121
I132
sS'convo'
p4122
I132
sS'22:05:48.0,33.98559589,-118.2537799,5328,just'
p4123
I132
sS'mimosas'
p4124
I132
sS'fun'
p4125
I121
sS'outs\xe2\x80\x9d'
p4126
I132
sS',90001\n454333703682932736,thatonenigga13,2014-04-10'
p4127
I132
sS'constipated'
p4128
I132
sS'italy'
p4129
I132
sS'mrs.bieber'
p4130
I132
sS'jesus\xe2\x80\x9d'
p4131
I132
sS'torta'
p4132
I132
sS'eww'
p4133
I126
sS'day'
p4134
I68
sS'sya'
p4135
I132
sS'09:16:28.0,33.98514236,-118.25385346,5328,ayeeee'
p4136
I132
sS'keys'
p4137
I132
sS'cloud'
p4138
I132
sS'syo'
p4139
I132
sS'yesterday'
p4140
I117
sS'moment'
p4141
I131
sS'sandals'
p4142
I132
sS'07:09:02.0,33.98525376,-118.25361387,5328,chillin,90001\n456690229886590976,thatonenigga13,2014-04-17'
p4143
I132
sS'beanie'
p4144
I131
sS'finesse'
p4145
I132
sS'03:21:05.0,33.98517738,-118.25357875,5328,smith'
p4146
I132
sS'spent'
p4147
I132
sS'flags'
p4148
I125
sS'y'
p4149
I117
sS'spend'
p4150
I130
sS'ceo'
p4151
I131
sS'boutta'
p4152
I132
sS'shape'
p4153
I132
sS'05:09:33.0,33.98533948,-118.25370178,5328,i'
p4154
I132
sS'ckrazy'
p4155
I130
sS'jjjjjoto'
p4156
I132
sS'bwezkon'
p4157
I132
sS'letting'
p4158
I130
sS'respeto'
p4159
I132
sS'cup'
p4160
I123
sS'hated'
p4161
I132
sS'muthaafuckin'
p4162
I130
sS'homies'
p4163
I119
sS'saturday,90001\n455624369780162560,thatonenigga13,2014-04-14'
p4164
I132
sS'cum'
p4165
I131
sS'easter'
p4166
I132
sS'excited'
p4167
I132
sS'homiez'
p4168
I132
sS'hater'
p4169
I132
sS'bio'
p4170
I132
sS'big'
p4171
I114
sS'family.,90001\n454735550717493248,thatonenigga13,2014-04-11'
p4172
I132
sS'matters'
p4173
I132
sS'02:15:47.0,33.98529909,-118.25357936,5328,carla'
p4174
I132
sS'bit'
p4175
I112
sS'09:11:06.0,33.98544804,-118.25378132,5328,lol'
p4176
I132
sS'semi'
p4177
I132
sS'shady\xe2\x80\x9d'
p4178
I132
sS'cousin\xe2\x80\x9d'
p4179
I132
sS'though,90001\n457318034705633280,thatonenigga13,2014-04-19'
p4180
I132
sS'often'
p4181
I131
sS'brena'
p4182
I132
sS'back'
p4183
I63
sS'mirror'
p4184
I132
sS'ra,90001\n456261770701586432,thatonenigga13,2014-04-16'
p4185
I132
sS'yuuuuuuup'
p4186
I132
sS'bball'
p4187
I132
sS'shit,90001\n457428073835552769,thatonenigga13,2014-04-19'
p4188
I132
sS'decision'
p4189
I132
sS'verbally'
p4190
I132
sS'pee'
p4191
I129
sS'thhe'
p4192
I132
sS'laughing'
p4193
I130
sS'rapping'
p4194
I132
sS'300'
p4195
I132
sS'out,90001\n458644792985915392,thatonenigga13,2014-04-22'
p4196
I132
sS'lounges'
p4197
I132
sS'from'
p4198
I56
sS'tripping'
p4199
I131
sS'man,90001\n455740088350023680,thatonenigga13,2014-04-14'
p4200
I132
sS'goody'
p4201
I132
sS'drama'
p4202
I131
sS'boy"'
p4203
I132
sS'abusive'
p4204
I132
sS';(,90001\n455957456485511168,thatonenigga13,2014-04-15'
p4205
I132
sS'martinez'
p4206
I132
sS'matyaso'
p4207
I132
sS',90001\n457428896430817280,thatonenigga13,2014-04-19'
p4208
I132
sS'fallin'
p4209
I132
sS'fittys,90001\n455636110819852288,thatonenigga13,2014-04-14'
p4210
I132
sS'whatafuck'
p4211
I132
sS'forward'
p4212
I131
sS'bored'
p4213
I111
sS'invite'
p4214
I132
sS'adjusting'
p4215
I131
sS'toooo'
p4216
I132
sS'boys'
p4217
I128
sS'yesssss'
p4218
I131
sS'\xe2\x99\xa5'
p4219
I131
sS'you,90001\n457015003703287809,thatonenigga13,2014-04-18'
p4220
I132
sS'biggie'
p4221
I132
sS'seahaven'
p4222
I131
sS'perrito'
p4223
I132
sS'cream,90001\n455819696927821824,thatonenigga13,2014-04-14'
p4224
I132
sS'06:35:46.0,33.98528609,-118.25385273,5328,my'
p4225
I132
sS'single'
p4226
I125
sS'denying'
p4227
I131
sS'stripper'
p4228
I132
sS'better,90001\n454336167253512192,thatonenigga13,2014-04-10'
p4229
I132
sS'started'
p4230
I126
sS'00:41:30.0,33.98520305,-118.2535121,5328,lol'
p4231
I132
sS'explaining'
p4232
I132
sS'115'
p4233
I132
sS'papi'
p4234
I124
sS"wasen't"
p4235
I132
sS'forever\xe2\x80\x9d'
p4236
I132
sS'200$'
p4237
I132
sS'kickin'
p4238
I132
sS'18:50:18.0,33.985441,-118.25385642,5328,eating'
p4239
I132
sS'peanut'
p4240
I132
sS'bruhh'
p4241
I132
sS'retweets'
p4242
I132
sS'lilly'
p4243
I132
sS'bottomed'
p4244
I132
sS'queen'
p4245
I132
sS'mouf'
p4246
I132
sS'-___________________________-'
p4247
I132
sS'avalon'
p4248
I132
sS'putting'
p4249
I128
sS'accuse'
p4250
I131
sS',90001\n455629316743647232,thatonenigga13,2014-04-14'
p4251
I132
sS'12sk'
p4252
I132
sS'anotha'
p4253
I132
sS'shock'
p4254
I132
sS'havent'
p4255
I132
sS'mni7'
p4256
I132
sS'carla'
p4257
I131
sS'm&ms'
p4258
I131
sS'chicago'
p4259
I132
sS'giving'
p4260
I129
sS'18:46:52.0,33.98537926,-118.2538275,5328,lmao'
p4261
I132
sS'corazonez'
p4262
I132
sS'3asabo'
p4263
I132
sS'body'
p4264
I127
sS'10:44:37.0,33.98530332,-118.2537871,5328,al'
p4265
I132
sS'packing'
p4266
I131
sS'09:46:10.0,33.98521607,-118.25379941,5328,mah'
p4267
I132
sS'others'
p4268
I129
sS'3angad'
p4269
I131
sS'luis'
p4270
I130
sS'safer'
p4271
I131
sS'39'
p4272
I132
sS'38'
p4273
I131
sS'talent'
p4274
I132
sS'31'
p4275
I132
sS'30'
p4276
I128
sS'36'
p4277
I132
sS'3%'
p4278
I132
sS'mannn'
p4279
I132
sS'"na"'
p4280
I132
sS'private'
p4281
I132
sS'names'
p4282
I132
sS'02:31:18.0,33.98537968,-118.25381191,5328,keep'
p4283
I132
sS'tap'
p4284
I132
sS'sa7be'
p4285
I132
sS"09:13:09.0,33.98548349,-118.25382608,5328,i'm"
p4286
I132
sS'boppin'
p4287
I132
sS'chu'
p4288
I132
sS'muela'
p4289
I130
sS'trueeeeeeee'
p4290
I132
sS'beach\xe2\x80\x9d'
p4291
I132
sS'train'
p4292
I131
sS'devil,90001\n454465742344171520,thatonenigga13,2014-04-11'
p4293
I132
sS'iii'
p4294
I132
sS'03:49:00.0,33.98531337,-118.25395075,5328,heaven'
p4295
I132
sS'account'
p4296
I131
sS'f'
p4297
I132
sS'08:23:21.0,33.9854107,-118.25385123,5328,ima'
p4298
I132
sS'closing'
p4299
I129
sS'didnt'
p4300
I129
sS'07:01:31.0,33.98539854,-118.25373371,5328,got'
p4301
I132
sS'lol,90001\n454330045784272896,thatonenigga13,2014-04-10'
p4302
I132
sS'lame'
p4303
I124
sS'amaziiiing'
p4304
I132
sS'forest'
p4305
I132
sS'nips'
p4306
I132
sS'thugga'
p4307
I131
sS'buildings'
p4308
I132
sS'bothered'
p4309
I132
sS'minding'
p4310
I132
sS'zodiac.\xe2\x80\x9d'
p4311
I132
sS'trifling'
p4312
I132
sS'chasing'
p4313
I131
sS'primera'
p4314
I132
sS'chief'
p4315
I131
sS'lmfao,90001\n456686801931890688,thatonenigga13,2014-04-17'
p4316
I132
sS'yunas'
p4317
I131
sS"04:30:41.0,33.98527009,-118.25364611,5328,who's"
p4318
I132
sS'cheyo'
p4319
I132
sS'today,90001\n456266161445801984,thatonenigga13,2014-04-16'
p4320
I132
sS'kif'
p4321
I132
sS'change,90001\n458504779350540288,thatonenigga13,2014-04-22'
p4322
I132
sS'horny'
p4323
I129
sS'bunch'
p4324
I127
sS'la'
p4325
I104
sS'lo'
p4326
I130
sS',90001\n455586309407383552,thatonenigga13,2014-04-14'
p4327
I132
sS'lu'
p4328
I132
sS'lp'
p4329
I132
sS'criminal'
p4330
I132
sS'tss'
p4331
I132
sS'rabo'
p4332
I132
sS'ly'
p4333
I132
sS'dad'
p4334
I127
sS'dab'
p4335
I132
sS'dam'
p4336
I106
sS'spell'
p4337
I131
sS'dat'
p4338
I123
sS'nah,90001\n456260162538323969,thatonenigga13,2014-04-16'
p4339
I132
sS'das'
p4340
I121
sS'hermosita'
p4341
I132
sS'february'
p4342
I132
sS'gurl'
p4343
I131
sS'spanglish'
p4344
I132
sS'momma,90001\n456690783098130432,thatonenigga13,2014-04-17'
p4345
I132
sS'bueno'
p4346
I132
sS'buena'
p4347
I132
sS'slumped'
p4348
I130
sS'huntington'
p4349
I132
sS'mid-'
p4350
I132
sS'rep'
p4351
I131
sS'mate'
p4352
I132
sS'lie,90001\n455531891634868224,thatonenigga13,2014-04-14'
p4353
I132
sS'ref'
p4354
I132
sS'announced'
p4355
I132
sS'bubbly'
p4356
I132
sS'09:42:22.0,33.98516181,-118.25395971,5328,por'
p4357
I132
sS',90001\n455767752020463616,thatonenigga13,2014-04-14'
p4358
I132
sS'happy,90001\n455207933861580801,thatonenigga13,2014-04-13'
p4359
I132
sS'que'
p4360
I113
sS'06:55:20.0,33.98534067,-118.25369514,5328,drinkin'
p4361
I132
sS'bleed'
p4362
I132
sS'fake,90001\n455913950916255744,thatonenigga13,2014-04-15'
p4363
I132
sS'backwards'
p4364
I132
sS'yard'
p4365
I128
sS'snapchats'
p4366
I132
sS'too.\xe2\x80\x9d'
p4367
I132
sS'me,90001\n456679743379607552,thatonenigga13,2014-04-17'
p4368
I132
sS'08:10:24.0,33.98503114,-118.25403795,5328,i'
p4369
I132
sS'south'
p4370
I120
sS'lmao,90001\n454668512124882944,thatonenigga13,2014-04-11'
p4371
I132
sS'06:24:41.0,33.98533587,-118.25367474,5328,tell'
p4372
I132
sS'unfollowing'
p4373
I132
sS'sack'
p4374
I132
sS'whoop'
p4375
I132
sS'lagging'
p4376
I132
sS'06:12:51.0,33.98534275,-118.2536728,5328,what'
p4377
I132
sS'braces'
p4378
I127
sS'sadly'
p4379
I132
sS'ok..,90001\n454373697214631936,thatonenigga13,2014-04-10'
p4380
I132
sS'pots'
p4381
I132
sS'friend,90001\n456679624655634432,thatonenigga13,2014-04-17'
p4382
I132
sS'"love"'
p4383
I132
sS'loyal,90001\n455998076918833152,thatonenigga13,2014-04-15'
p4384
I132
sS'nut'
p4385
I132
sS'wow.,90001\n456994100672073728,thatonenigga13,2014-04-18'
p4386
I132
sS'nobody'
p4387
I122
sS'findin'
p4388
I132
sS'ipad'
p4389
I132
sS'nun'
p4390
I132
sS'kissin'
p4391
I132
sS'loves'
p4392
I129
sS'lover'
p4393
I130
sS'then,90001\n457772837965537280,thatonenigga13,2014-04-20'
p4394
I132
sS'maleta'
p4395
I132
sS'curves'
p4396
I132
sS'comfortable'
p4397
I131
sS'*life'
p4398
I132
sS'comfortably'
p4399
I132
sS'have'
p4400
I52
sS'throat'
p4401
I132
sS'curved'
p4402
I132
sS'20:36:21.0,33.98516991,-118.2536382,5328,i'
p4403
I132
sS'apparently'
p4404
I132
sS'min'
p4405
I130
sS'subway\xe2\x80\x9d'
p4406
I132
sS'yesssss\xe2\x9d\xa4\xef\xb8\x8f'
p4407
I132
sS'mis'
p4408
I132
sS'bohemia'
p4409
I132
sS'unless'
p4410
I126
sS'rearrange'
p4411
I132
sS'transcript'
p4412
I132
sS'boodles,90001\n457784214918660096,thatonenigga13,2014-04-20'
p4413
I132
sS'03:14:18.0,33.9852743,-118.25361025,5328,on'
p4414
I132
sS'skinny'
p4415
I131
sS'u,90001\n455243984575549440,thatonenigga13,2014-04-13'
p4416
I132
sS"03:34:16.0,33.9863681,-118.2489796,5328,i'm"
p4417
I132
sS'g-eazy//'
p4418
I132
sS'text'
p4419
I116
sS'hamlet'
p4420
I132
sS'knowledge'
p4421
I132
sS'blowin'
p4422
I131
sS'shaher'
p4423
I132
sS'weeknd-'
p4424
I132
sS'treatin'
p4425
I132
sS"they're"
p4426
I131
sS'beat'
p4427
I125
sS'coworker'
p4428
I132
sS'beam'
p4429
I129
sS'akel'
p4430
I132
sS'eyebrow'
p4431
I132
sS'teams'
p4432
I131
sS'07:27:58.0,33.98522672,-118.25364728,5328,when'
p4433
I132
sS'ganas'
p4434
I132
sS'mascara'
p4435
I132
sS'including'
p4436
I132
sS'fixed'
p4437
I132
sS'thankss'
p4438
I132
sS'rims'
p4439
I132
sS'bbal'
p4440
I132
sS'wo'
p4441
I132
sS'hotboxing'
p4442
I130
sS'ebola'
p4443
I132
sS'5ara'
p4444
I131
sS'movie,90001\n455590586955755520,thatonenigga13,2014-04-14'
p4445
I132
sS'08:12:05.0,33.98538582,-118.25378264,5328,every'
p4446
I132
sS'time\xe2\x80\x9d'
p4447
I132
sS'sorrow'
p4448
I132
sS'16:48:06.0,33.98544628,-118.25377093,5328,wish'
p4449
I132
sS'optional'
p4450
I132
sS'legit'
p4451
I131
sS'sexed'
p4452
I132
sS'up,90001\n457616585553739776,thatonenigga13,2014-04-19'
p4453
I132
sS'freely'
p4454
I132
sS'taking'
p4455
I120
sS'equal'
p4456
I132
sS'busted'
p4457
I132
sS'comment'
p4458
I131
sS'20:45:58.0,33.98538069,-118.25381896,5328,lookin'
p4459
I132
sS'teasing'
p4460
I132
sS'think...,90001\n458529520358670337,thatonenigga13,2014-04-22'
p4461
I132
sS'laugh'
p4462
I129
sS"it's"
p4463
I37
sS'faving'
p4464
I132
sS'certain'
p4465
I132
sS'proposal'
p4466
I132
sS'3yrs'
p4467
I132
sS'finished'
p4468
I128
sS'bull'
p4469
I132
sS'an'
p4470
I97
sS'panteon'
p4471
I132
sS'plain'
p4472
I132
sS'21:31:18.0,33.98541349,-118.25374712,5328,i'
p4473
I132
sS'as'
p4474
I101
sS'duhhh'
p4475
I132
sS'07:50:58.0,33.98503358,-118.25383616,5328,i'
p4476
I132
sS'frustrating'
p4477
I132
sS'you,90001\n456261347471147010,thatonenigga13,2014-04-16'
p4478
I132
sS'pantie'
p4479
I132
sS'almost'
p4480
I125
sS'wazzaaaaaaaaaaaaa'
p4481
I132
sS'helped'
p4482
I132
sS'claimed'
p4483
I132
sS'bicken'
p4484
I132
sS'andy,90001\n455588708826091520,thatonenigga13,2014-04-14'
p4485
I132
sS'creator-'
p4486
I132
sS'lates"'
p4487
I132
sS'slammed'
p4488
I132
sS'06:00:04.0,33.98523543,-118.25362188,5328,you'
p4489
I132
sS'zorra'
p4490
I132
sS'02:03:03.0,33.98526119,-118.25358328,5328,lmfao'
p4491
I132
sS'fucker'
p4492
I132
sS'ion'
p4493
I127
sS'fucken'
p4494
I123
sS'novela'
p4495
I131
sS'spitting'
p4496
I130
sS'fucked'
p4497
I116
sS'sunburn'
p4498
I132
sS'18:01:57.0,33.98554183,-118.25377495,5328,big'
p4499
I132
sS'center'
p4500
I132
sS'thought'
p4501
I112
sS'knotts'
p4502
I131
sS'sets'
p4503
I132
sS'position'
p4504
I132
sS'con'
p4505
I132
sS'coaster'
p4506
I132
sS'08:19:16.0,33.98522744,-118.25375906,5328,or'
p4507
I132
sS'quiero'
p4508
I132
sS'lake'
p4509
I132
sS'add'
p4510
I125
sS'bigdaddyandy13,90001\n455634956606128128,thatonenigga13,2014-04-14'
p4511
I132
sS'twerk'
p4512
I129
sS'smart'
p4513
I130
sS'hotbox'
p4514
I129
sS'fyi'
p4515
I132
sS'homie,90001\n457779215400587266,thatonenigga13,2014-04-20'
p4516
I132
sS'flames,90001\n454331927642648576,thatonenigga13,2014-04-10'
p4517
I132
sS'dryer'
p4518
I132
sS'on,90001\n454643033602932736,thatonenigga13,2014-04-11'
p4519
I132
sS'18:14:24.0,33.98521523,-118.25348228,5328,omg'
p4520
I132
sS'like'
p4521
I15
sS'success'
p4522
I131
sS'admitted'
p4523
I132
sS'02:00:07.0,33.98528774,-118.25360978,5328,just'
p4524
I132
sS'liks'
p4525
I132
sS'cantando'
p4526
I132
sS"08:21:30.0,33.98540638,-118.25384678,5328,haven't"
p4527
I132
sS'soft'
p4528
I132
sS'09:40:50.0,33.98528443,-118.2537057,5328,bigger'
p4529
I132
sS'tetas'
p4530
I132
sS'alive'
p4531
I132
sS'20:46:19.0,33.98523434,-118.25350739,5328,why'
p4532
I132
sS'12:30-1'
p4533
I132
sS'05:44:56.0,33.98532277,-118.25393077,5328,lmao'
p4534
I132
sS'happens'
p4535
I129
sS'pues'
p4536
I132
sS'desgrasiada'
p4537
I132
sS"08:19:55.0,33.98540684,-118.25384863,5328,i'm"
p4538
I132
sS'ese'
p4539
I132
sS'chainz'
p4540
I132
sS'esa'
p4541
I132
sS'eso'
p4542
I132
sS'08:42:52.0,33.98528424,-118.25370166,5328,dam'
p4543
I132
sS'04:48:17.0,33.98542474,-118.25385768,5328,i'
p4544
I132
sS'host'
p4545
I132
sS'although'
p4546
I132
sS'snapped'
p4547
I132
sS'raiding'
p4548
I132
sS':-('
p4549
I131
sS':-)'
p4550
I124
sS'boards'
p4551
I132
sS'knowin'
p4552
I132
sS'6am'
p4553
I132
sS'louisville'
p4554
I132
sS'socked'
p4555
I132
sS'lol,90001\n455535952664854530,thatonenigga13,2014-04-14'
p4556
I132
sS'ankles'
p4557
I132
sS'up,90001\n455615825886470144,thatonenigga13,2014-04-14'
p4558
I132
sS'guard'
p4559
I132
sS'doesnt'
p4560
I132
sS'female'
p4561
I118
sS'quickly'
p4562
I132
sS'wack'
p4563
I132
sS'firefighter'
p4564
I132
sS'joaquin'
p4565
I132
sS'biggest'
p4566
I131
sS'rococo'
p4567
I132
sS'buy'
p4568
I115
sS'chatting'
p4569
I132
sS'bus'
p4570
I129
sS'coke'
p4571
I132
sS'but'
p4572
I25
sS'bum'
p4573
I132
sS'07:44:44.0,33.98527516,-118.25368136,5328,eatin'
p4574
I132
sS'bug'
p4575
I132
sS'bud'
p4576
I127
sS'wise'
p4577
I131
sS'movies\xe2\x80\xa6.\xe2\x80\x9d'
p4578
I132
sS'dangerous'
p4579
I132
sS'j'
p4580
I131
sS'flip'
p4581
I131
sS'byob'
p4582
I131
sS'04:06:37.0,33.98519366,-118.2534923,5328,this'
p4583
I132
sS'06:01:14.0,33.98521888,-118.25368795,5328,my'
p4584
I132
sS'minutes'
p4585
I128
sS'05:30:38.0,33.98558797,-118.25382834,5328,dam'
p4586
I132
sS'replying'
p4587
I130
sS'pic'
p4588
I116
sS'pie'
p4589
I132
sS'pig'
p4590
I132
sS'pasaba'
p4591
I132
sS'shooting'
p4592
I131
sS'pit'
p4593
I132
sS'45'
p4594
I132
sS'42'
p4595
I132
sS'ducked'
p4596
I132
sS'balaa'
p4597
I132
sS'4%'
p4598
I130
sS'what?xd'
p4599
I132
sS'shouldve'
p4600
I132
sS'goin'
p4601
I114
sS'\xe2\x80\x94'
p4602
I132
sS'\xe2\x80\x9d'
p4603
I132
sS'\xe2\x80\x9c'
p4604
I131
sS'notundres'
p4605
I132
sS'8th'
p4606
I130
sS'bop,90001\n455214967856185344,thatonenigga13,2014-04-13'
p4607
I132
sS'suckss'
p4608
I132
sS'sleep'
p4609
I100
sS'hating'
p4610
I129
sS'sakro'
p4611
I132
sS'hate'
p4612
I75
sS'08:22:26.0,33.98541644,-118.25383396,5328,on'
p4613
I132
sS'tweet'
p4614
I118
sS'00:58:11.0,33.986875,-118.24866,5328,tonight'
p4615
I132
sS'under'
p4616
I131
sS'now,90001\n455529979736891392,thatonenigga13,2014-04-14'
p4617
I132
sS'regrets'
p4618
I132
sS'11:30:49.0,33.9852559,-118.25360454,5328,cross'
p4619
I132
sS'innocentes,90001\n455111271310819328,thatonenigga13,2014-04-12'
p4620
I132
sS'every'
p4621
I113
sS'smh,90001\n457640504977412096,thatonenigga13,2014-04-19'
p4622
I132
sS"hatin'"
p4623
I132
sS'06:10:12.0,33.98539724,-118.25376229,5328,i'
p4624
I132
sS'school'
p4625
I62
sS'bestfriend'
p4626
I131
sS'gunnuh'
p4627
I96
sS'enjoy'
p4628
I130
sS'thang,90001\n455620232954908673,thatonenigga13,2014-04-14'
p4629
I132
sS'street'
p4630
I130
sS'ellas'
p4631
I132
sS'bethune'
p4632
I131
sS'hide'
p4633
I132
sS'broskiez'
p4634
I132
sS'revolver'
p4635
I131
sS'fuerza'
p4636
I132
sS'intentionally.,90001\n454289327866912768,thatonenigga13,2014-04-10'
p4637
I132
sS'disney'
p4638
I132
sS'kicked'
p4639
I129
sS'04:07:11.0,33.98541443,-118.25391744,5328,1%'
p4640
I132
sS'ramps'
p4641
I132
sS'hundreds'
p4642
I132
sS'socialize'
p4643
I132
sS'studio'
p4644
I132
sS'smokin'
p4645
I120
sS'might,90001\n455076092068368385,thatonenigga13,2014-04-12'
p4646
I132
sS'changed'
p4647
I127
sS'07:56:11.0,33.98522609,-118.25389975,5328,dick'
p4648
I132
sS'ohmagod'
p4649
I132
sS'julia'
p4650
I131
sS'feelings'
p4651
I127
sS'hablar'
p4652
I132
sS'would'
p4653
I98
sS'04:34:52.0,33.98533241,-118.25390286,5328,she'
p4654
I132
sS'chargers'
p4655
I131
sS'asses'
p4656
I132
sS'breathe'
p4657
I132
sS'phonr'
p4658
I132
sS'sabes'
p4659
I132
sS'phone'
p4660
I110
sS'cuttin'
p4661
I132
sS'shoot'
p4662
I114
sS'mf'
p4663
I132
sS'ma'
p4664
I128
sS'mc'
p4665
I130
sS',90001\n508396493003169792,thelouie_,2014-09-06'
p4666
I132
sS'mo'
p4667
I129
sS'mi'
p4668
I131
sS'ms'
p4669
I129
sS'mr'
p4670
I131
sS'my'
p4671
I7
sS'why,90001\n457778740299186176,thatonenigga13,2014-04-20'
p4672
I132
sS'lol,90001\n454706143479095296,thatonenigga13,2014-04-11'
p4673
I132
sS'dolphin'
p4674
I131
sS'07:12:43.0,33.98528773,-118.25353954,5328,fuck'
p4675
I132
sS'times'
p4676
I123
sS'attract'
p4677
I132
sS'looses'
p4678
I132
sS'end'
p4679
I122
sS'trill'
p4680
I132
sS'bunk'
p4681
I132
sS'akwardd'
p4682
I132
sS'09:17:44.0,33.98514106,-118.25415948,5328,i'
p4683
I132
sS'enu'
p4684
I128
sS'gate'
p4685
I132
sS'mess'
p4686
I132
sS'02:18:35.0,33.98518999,-118.253826,5328,on'
p4687
I132
sS'cement'
p4688
I132
sS'danny'
p4689
I132
sS'bake,90001\n458286015136796673,thatonenigga13,2014-04-21'
p4690
I132
sS'41st'
p4691
I132
sS'suerte'
p4692
I131
sS'morocho'
p4693
I132
sS'08:26:53.0,33.98534674,-118.25382776,5328,young'
p4694
I132
sS'over'
p4695
I95
sS'london'
p4696
I132
sS'you,90001\n456732130811187200,thatonenigga13,2014-04-17'
p4697
I132
sS'talkative'
p4698
I132
sS',90001\n455563710958800897,thatonenigga13,2014-04-14'
p4699
I132
sS'abrirlas'
p4700
I132
sS'beside'
p4701
I132
sS'babyguuuuuuurl'
p4702
I132
sS'expectations'
p4703
I132
sS'writing'
p4704
I132
sS'fade'
p4705
I131
sS'400'
p4706
I132
sS'imy'
p4707
I130
sS'bouta'
p4708
I130
sS'forreals'
p4709
I131
sS'netherlands'
p4710
I131
sS'bearly'
p4711
I132
sS'each'
p4712
I128
sS'that,90001\n455632991230758912,thatonenigga13,2014-04-14'
p4713
I132
sS'20:44:51.0,33.98526675,-118.25349793,5328,kick'
p4714
I132
sS'squarepants-'
p4715
I132
sS'saturday'
p4716
I129
sS'gon'
p4717
I83
sS'3months'
p4718
I132
sS'driving'
p4719
I131
sS'cold,90001\n455614174865793024,thatonenigga13,2014-04-14'
p4720
I132
sS'god'
p4721
I102
sS'washed'
p4722
I132
sS',90001\n454645226359898112,thatonenigga13,2014-04-11'
p4723
I132
sS'laid'
p4724
I132
sS'got'
p4725
I28
sS'04:04:20.0,33.98528951,-118.25358149,5328,tssss'
p4726
I132
sS'free'
p4727
I128
sS'jokeeeeee'
p4728
I132
sS"08:14:46.0,33.98541857,-118.25381502,5328,i'm"
p4729
I132
sS'rain'
p4730
I132
sS'wanted'
p4731
I125
sS'boss!!\xe2\x80\x9d'
p4732
I132
sS'model,90001\n456682869583523840,thatonenigga13,2014-04-17'
p4733
I132
sS'days'
p4734
I113
sS'"this'
p4735
I132
sS'filter'
p4736
I132
sS'heck'
p4737
I132
sS'soda'
p4738
I132
sS'shootin'
p4739
I132
sS'ceasars...bazinga\xe2\x80\x9d'
p4740
I132
sS'foshoo'
p4741
I129
sS'already'
p4742
I106
sS'hearing'
p4743
I126
sS'sober'
p4744
I129
sS'sneijder'
p4745
I132
sS'blunts'
p4746
I122
sS'zzzzzzzzzzzzz'
p4747
I132
sS'lol.,90001\n417105400534548480,bobbyy0809,2013-12-29'
p4748
I132
sS'top'
p4749
I125
sS'too'
p4750
I95
sS'drownin,90001\n454338753452965888,thatonenigga13,2014-04-10'
p4751
I132
sS'fly,90001\n457723582982795264,thatonenigga13,2014-04-20'
p4752
I132
sS'toe'
p4753
I132
sS'murder'
p4754
I132
sS'ya,90001\n454374329099120640,thatonenigga13,2014-04-10'
p4755
I132
sS'took'
p4756
I119
sS'thinkin,90001\n455561652876746752,thatonenigga13,2014-04-14'
p4757
I132
sS'awake,90001\n456716795378794496,thatonenigga13,2014-04-17'
p4758
I132
sS'verte'
p4759
I132
sS'slackin'
p4760
I132
sS'classes'
p4761
I131
sS'expo'
p4762
I132
sS'raf'
p4763
I132
sS'lol,90001\n455961519281291264,thatonenigga13,2014-04-15'
p4764
I132
sS'ran'
p4765
I129
sS'talking'
p4766
I112
sS'rap'
p4767
I130
sS',90001\n454333508412907520,thatonenigga13,2014-04-10'
p4768
I132
sS'nipples'
p4769
I130
sS'bawmmmmmmm'
p4770
I131
sS'-'
p4771
I129
sS'snow'
p4772
I132
sS'08:16:13.0,33.98528717,-118.25361468,5328,shut'
p4773
I132
sS'laughed'
p4774
I131
sS'rides'
p4775
I132
sS'lagging,90001\n458509743770714113,thatonenigga13,2014-04-22'
p4776
I132
sS'daaaam'
p4777
I130
sS'though'
p4778
I100
sS'wtf,90001\n455606064679895040,thatonenigga13,2014-04-14'
p4779
I132
sS'parting'
p4780
I132
sS'promotions'
p4781
I132
sS'07:12:23.0,33.98545424,-118.25392809,5328,hey'
p4782
I132
sS'stoneeeeeeer'
p4783
I132
sS'soups'
p4784
I132
sS'flow'
p4785
I132
sS'yang'
p4786
I131
sS'pineapple'
p4787
I132
sS'entertaining'
p4788
I132
sS'loooooool'
p4789
I131
sS'loco,90001\n457407511612510208,thatonenigga13,2014-04-19'
p4790
I132
sS'random'
p4791
I132
sS'pops'
p4792
I131
sS'v.v'
p4793
I132
sS'radio'
p4794
I131
sS'earth'
p4795
I132
sS'09:37:47.0,33.98515138,-118.25386451,5328,you'
p4796
I132
sS'bail'
p4797
I132
sS'girl,90001\n456255762080083968,thatonenigga13,2014-04-16'
p4798
I132
sS'situations'
p4799
I132
sS'photo'
p4800
I132
sS'chipotle'
p4801
I132
sS'watch'
p4802
I93
sS'gogo'
p4803
I132
sS'guatemala'
p4804
I132
sS'wedding'
p4805
I132
sS'report'
p4806
I132
sS'undressed'
p4807
I132
sS'countries'
p4808
I132
sS'twice'
p4809
I132
sS'shots'
p4810
I128
sS'05:17:06.0,33.9854319,-118.25383362,5328,i'
p4811
I132
sS'habit'
p4812
I132
sS'liquor'
p4813
I131
sS'resist'
p4814
I132
sS'noodles'
p4815
I131
sS'mut'
p4816
I132
sS'fatest'
p4817
I132
sS'finger'
p4818
I132
sS'hopefully'
p4819
I125
sS'drivin'
p4820
I132
sS'jose'
p4821
I132
sS'aquarius'
p4822
I132
sS'weak'
p4823
I127
sS'however'
p4824
I132
sS'boss'
p4825
I130
sS'nightmares'
p4826
I132
sS'devour'
p4827
I132
sS'wear'
p4828
I127
sS'news'
p4829
I126
sS'blasted'
p4830
I132
sS'protect'
p4831
I132
sS'fault'
p4832
I129
sS'part.\xe2\x80\x9d'
p4833
I132
sS'players'
p4834
I131
sS'games'
p4835
I126
sS'karen'
p4836
I131
sS'02:37:16.0,33.98540977,-118.25382725,5328,hate'
p4837
I132
sS'trust'
p4838
I111
sS'buzzing'
p4839
I132
sS'bathroom'
p4840
I132
sS'"you'
p4841
I130
sS'been'
p4842
I87
sS'02:41:26.0,33.98529361,-118.25347209,5328,you'
p4843
I132
sS'confident'
p4844
I130
sS'beer'
p4845
I127
sS'today?(x'
p4846
I132
sS'06:47:31.0,33.98542423,-118.2538353,5328,i'
p4847
I132
sS'pursing'
p4848
I132
sS'drugs'
p4849
I130
sS'catch'
p4850
I123
sS'n'
p4851
I65
sS'muthafucker'
p4852
I132
sS'ugliest'
p4853
I132
sS'teachers'
p4854
I129
sS'stopping'
p4855
I132
sS'edible,90001\n454725886919454721,thatonenigga13,2014-04-11'
p4856
I132
sS'shit,90001\n456264024691187713,thatonenigga13,2014-04-16'
p4857
I132
sS'couple,90001\n458489801973317632,thatonenigga13,2014-04-22'
p4858
I132
sS'18:56:51.0,33.98524432,-118.25368869,5328,you'
p4859
I132
sS'21:48:49.0,33.98549887,-118.25382675,5328,lmfao'
p4860
I132
sS'nike'
p4861
I132
sS'pitbulls'
p4862
I132
sS'latinas'
p4863
I132
sS'forehead'
p4864
I132
sS'shawty'
p4865
I130
sS'social'
p4866
I128
sS'08:30:03.0,33.98541258,-118.25392138,5328,they'
p4867
I132
sS"mother's"
p4868
I132
sS'mother'
p4869
I130
sS'hearts'
p4870
I130
sS'w.e'
p4871
I130
sS'grades'
p4872
I132
sS'thumbs'
p4873
I132
sS'buzzkill'
p4874
I132
sS'"fuck'
p4875
I132
sS'09:00:19.0,33.98520594,-118.2537102,5328,nigga'
p4876
I132
sS'banda'
p4877
I129
sS'scorpio'
p4878
I132
sS'yourself,90001\n454484370602995712,thatonenigga13,2014-04-11'
p4879
I132
sS'5s'
p4880
I132
sS'teenager'
p4881
I132
sS'2steppin'
p4882
I132
sS'gave'
p4883
I126
sS'3leh'
p4884
I132
sS'camarada'
p4885
I132
sS'bands'
p4886
I131
sS'not\xe2\x80\x9d'
p4887
I131
sS'bando'
p4888
I132
sS'mirage"'
p4889
I132
sS'mentiras,90001\n456255266703417345,thatonenigga13,2014-04-16'
p4890
I132
sS'07:51:17.0,33.9852927,-118.25366639,5328,the'
p4891
I132
sS'roach'
p4892
I132
sS'burns'
p4893
I132
sS'apart'
p4894
I131
sS'gifs'
p4895
I132
sS'foots'
p4896
I132
sS'orlando'
p4897
I132
sS'50'
p4898
I131
sS'53'
p4899
I128
sS'52'
p4900
I132
sS'08:46:57.0,33.98536761,-118.25379523,5328,i'
p4901
I132
sS'5%'
p4902
I132
sS'feelings.\xe2\x80\x9d'
p4903
I132
sS'spongebob'
p4904
I132
sS'zoom'
p4905
I132
sS',90001\n455539442837491712,thatonenigga13,2014-04-14'
p4906
I132
sS'escape'
p4907
I132
sS'ninos'
p4908
I132
sS'ckereal'
p4909
I132
sS'finna'
p4910
I120
sS'08:50:49.0,33.98540143,-118.25384569,5328,when'
p4911
I132
sS'bf\xe2\x80\x9d'
p4912
I132
sS'ice'
p4913
I129
sS'everything'
p4914
I120
sS'20:37:02.0,33.98542109,-118.25384787,5328,i'
p4915
I132
sS"05:01:21.0,33.98541141,-118.25385391,5328,don't"
p4916
I132
sS'09:53:40.0,33.98537046,-118.25380663,5328,baby'
p4917
I132
sS'07:18:45.0,33.98532095,-118.25366957,5328,wow'
p4918
I132
sS'later,90001\n455183865926021120,thatonenigga13,2014-04-13'
p4919
I132
sS'fml,90001\n458533704759902208,thatonenigga13,2014-04-22'
p4920
I132
sS'06:14:52.0,33.98522071,-118.2537251,5328,chapped'
p4921
I132
sS'plug'
p4922
I130
sS'burbank'
p4923
I132
sS'dinner'
p4924
I132
sS'plus'
p4925
I130
sS'aha'
p4926
I132
sS'ahh'
p4927
I131
sS'bath'
p4928
I131
sS':p'
p4929
I132
sS'nobody,90001\n454376587509497856,thatonenigga13,2014-04-10'
p4930
I132
sS'rounds'
p4931
I132
sS'deadass'
p4932
I132
sS'momma,90001\n455557140338327553,thatonenigga13,2014-04-14'
p4933
I132
sS'85%'
p4934
I132
sS'class'
p4935
I116
sS'stuck'
p4936
I131
sS'fought'
p4937
I131
sS'everything\xe2\x80\x9d'
p4938
I131
sS'head'
p4939
I107
sS'\xe2\x9c\x8c\xef\xb8\x8f\xe2\x80\x9d'
p4940
I132
sS'08:14:21.0,33.98520867,-118.25368229,5328,haha,90001\n455256572042551296,thatonenigga13,2014-04-13'
p4941
I132
sS'heat'
p4942
I123
sS'hear'
p4943
I126
sS'09:01:34.0,33.98533207,-118.25386673,5328,ima'
p4944
I132
sS'viva'
p4945
I131
sS'ckrackin'
p4946
I132
sS'ruined'
p4947
I132
sS'adore'
p4948
I132
sS'decorate'
p4949
I132
sS'forearm'
p4950
I132
sS'showin'
p4951
I132
sS'sometime'
p4952
I130
sS'annoying'
p4953
I122
sS'check'
p4954
I131
sS'looked'
p4955
I127
sS'nl'
p4956
I132
sS'no'
p4957
I33
sS'tit'
p4958
I132
sS'na'
p4959
I130
sS'nb'
p4960
I131
sS'nd'
p4961
I132
sS'til'
p4962
I131
sS'tooooo'
p4963
I131
sS',90001\n454333145882431488,thatonenigga13,2014-04-10'
p4964
I132
sS'whet'
p4965
I132
sS'papers'
p4966
I132
sS'though,90001\n458532460876140544,thatonenigga13,2014-04-22'
p4967
I132
sS'picture'
p4968
I122
sS'03:43:35.0,33.98523729,-118.25365655,5328,what'
p4969
I132
sS'shiiiiit'
p4970
I132
sS'turnup'
p4971
I131
sS'football'
p4972
I128
sS'08:28:21.0,33.98538077,-118.25379146,5328,all'
p4973
I132
sS'song,90001\n456728986307928064,thatonenigga13,2014-04-17'
p4974
I132
sS'apologizing'
p4975
I132
sS'longer'
p4976
I132
sS'08:20:37.0,33.98540366,-118.25384217,5328,2steppin'
p4977
I132
sS'serious'
p4978
I122
sS'neighbors'
p4979
I131
sS'coach'
p4980
I129
sS'hardheaded'
p4981
I131
sS'ckrabs'
p4982
I132
sS"07:53:42.0,33.98541455,-118.25381359,5328,andy's"
p4983
I132
sS'focus'
p4984
I132
sS'up,90001\n455628304771342336,thatonenigga13,2014-04-14'
p4985
I132
sS'07:41:17.0,33.98520381,-118.25362613,5328,i'
p4986
I132
sS'row'
p4987
I132
sS'july\xe2\x9d\xa4\xef\xb8\x8f'
p4988
I132
sS'god,90001\n456268924993028096,thatonenigga13,2014-04-16'
p4989
I132
sS'contemplating'
p4990
I132
sS'09:17:28.0,33.98536531,-118.25372508,5328,k.o'
p4991
I132
sS'charge'
p4992
I132
sS'melon'
p4993
I132
sS':(((('
p4994
I132
sS'advantage'
p4995
I132
sS'04:56:43.0,33.98527086,-118.25363435,5328,fuck'
p4996
I132
sS'vestido'
p4997
I132
sS'cook'
p4998
I132
sS'little'
p4999
I97
sS'cool'
p5000
I117
sS'catman'
p5001
I132
sS'level'
p5002
I130
sS'05:21:24.0,33.98535899,-118.25369785,5328,gunnuh'
p5003
I132
sS'brother'
p5004
I120
sS'standards'
p5005
I132
sS'quick'
p5006
I117
sS'forreal,90001\n455619655961288704,thatonenigga13,2014-04-14'
p5007
I132
sS'yall'
p5008
I131
sS'pmu'
p5009
I132
sS'says'
p5010
I125
sS'porn'
p5011
I132
sS'irritates'
p5012
I131
sS'trent'
p5013
I132
sS'pedo'
p5014
I132
sS'bake'
p5015
I129
sS'postman'
p5016
I132
sS'p.o,90001\n455160915495628800,thatonenigga13,2014-04-13'
p5017
I132
sS'goes'
p5018
I131
sS'day1s'
p5019
I132
sS'reply'
p5020
I118
sS'water'
p5021
I127
sS'llama,90001\n455559663551913984,thatonenigga13,2014-04-14'
p5022
I132
sS'baseball'
p5023
I132
sS'09:03:26.0,33.98535278,-118.25390001,5328,love'
p5024
I132
sS'disappeared'
p5025
I132
sS'healthy'
p5026
I132
sS'givin'
p5027
I132
sS'stomachs'
p5028
I132
sS'cinnamon'
p5029
I132
sS'weird'
p5030
I127
sS'dippin'
p5031
I132
sS'18:01:03.0,33.98537717,-118.25376112,5328,heated'
p5032
I132
sS'morals'
p5033
I132
sS'1st'
p5034
I132
sS'andy'
p5035
I120
sS'iphone'
p5036
I132
sS'memory'
p5037
I132
sS'australian'
p5038
I132
sS'daaaam,90001\n455082013431578624,thatonenigga13,2014-04-12'
p5039
I132
sS'today'
p5040
I53
sS'bitch,90001\n458702485025067009,thatonenigga13,2014-04-22'
p5041
I132
sS'18:39:13.0,33.98543035,-118.25377336,5328,bruh'
p5042
I132
sS'chocolate'
p5043
I132
sS'drown'
p5044
I132
sS'beers'
p5045
I129
sS'cases'
p5046
I132
sS'sheds'
p5047
I132
sS'edible'
p5048
I129
sS',90001\n456668479190355970,thatonenigga13,2014-04-17'
p5049
I132
sS'photobombed'
p5050
I132
sS'stroke'
p5051
I132
sS'dropped'
p5052
I132
sS'cornflakes'
p5053
I132
sS'kys'
p5054
I132
sS'skimp'
p5055
I132
sS'1'
p5056
I113
sS'leavin'
p5057
I132
sS'birthday'
p5058
I119
sS'faded,90001\n457469813237903360,thatonenigga13,2014-04-19'
p5059
I132
sS'leva'
p5060
I132
sS'eighth'
p5061
I131
sS'09:03:40.0,33.98505612,-118.25361643,5328,gunnuh'
p5062
I132
sS'nigga,90001\n455162106480848896,thatonenigga13,2014-04-13'
p5063
I132
sS'liquid'
p5064
I132
sS'joint'
p5065
I126
sS'swangin'
p5066
I132
sS'rollin'
p5067
I131
sS'smellin'
p5068
I132
sS'exclusive'
p5069
I132
sS'blocked'
p5070
I131
sS'08:18:40.0,33.98528736,-118.25361942,5328,i'
p5071
I132
sS"he's"
p5072
I124
sS'cutted'
p5073
I132
sS'"yes!"'
p5074
I132
sS'stfu,90001\n457635923761451008,thatonenigga13,2014-04-19'
p5075
I132
sS'movie,90001\n458285804498870272,thatonenigga13,2014-04-21'
p5076
I132
sS'munchin'
p5077
I130
sS'lonely'
p5078
I128
sS'moms'
p5079
I132
sS'02:41:11.0,33.98531335,-118.25367093,5328,black'
p5080
I132
sS'baeeeeeee'
p5081
I132
sS'ppl'
p5082
I130
sS'name'
p5083
I119
sS'jalisco'
p5084
I132
sS'dabs'
p5085
I132
sS'weighted'
p5086
I132
sS'shugooooooooool'
p5087
I132
sS',90001\n454374086924197890,thatonenigga13,2014-04-10'
p5088
I132
sS'mean;('
p5089
I132
sS'attracted'
p5090
I130
sS"shouldn't"
p5091
I131
sS'08:44:21.0,33.98537574,-118.25385994,5328,lmao'
p5092
I132
sS'fuck,90001\n455949600122097664,thatonenigga13,2014-04-15'
p5093
I132
sS'boobs'
p5094
I132
sS'you.\xe2\x80\x9d'
p5095
I132
sS'"must'
p5096
I132
sS'gusta'
p5097
I131
sS'yup'
p5098
I129
sS'motion'
p5099
I131
sS'turn'
p5100
I118
sS'place'
p5101
I132
sS'childhood'
p5102
I132
sS'belascos'
p5103
I132
sS'retainers'
p5104
I132
sS'lags'
p5105
I132
sS'george'
p5106
I131
sS'millions'
p5107
I132
sS'parched..."caramel'
p5108
I132
sS'given'
p5109
I132
sS'virgin'
p5110
I131
sS'\xe2\x98\xba\xef\xb8\x8f,90001\n454678452814102528,thatonenigga13,2014-04-11'
p5111
I132
sS'05:40:11.0,33.98539771,-118.25376798,5328,i'
p5112
I132
sS'white'
p5113
I118
sS'pussy,90001\n455880552080367616,thatonenigga13,2014-04-15'
p5114
I132
sS',90001\n454522062359388161,thatonenigga13,2014-04-11'
p5115
I132
sS'gives'
p5116
I132
sS'season'
p5117
I124
sS'hun'
p5118
I132
sS'huh'
p5119
I116
sS'refuse'
p5120
I131
sS'hut'
p5121
I132
sS'cops'
p5122
I125
sS'errdayy'
p5123
I132
sS'copy'
p5124
I132
sS'wide'
p5125
I121
sS'ratchets'
p5126
I132
sS'lmao'
p5127
I70
sS'06:02:41.0,33.98510441,-118.2539484,5328,feel'
p5128
I132
sS'up,90001\n457444758856544257,thatonenigga13,2014-04-19'
p5129
I132
sS'cardthe'
p5130
I132
sS'rain?,90001\n196442250346110976,fabianxroxx,2012-04-29'
p5131
I132
sS'r'
p5132
I125
sS'04:38:03.0,33.98543655,-118.25375441,5328,as'
p5133
I132
sS'cards'
p5134
I132
sS'havnt'
p5135
I130
sS'pre'
p5136
I132
sS'anf'
p5137
I132
sS'ana'
p5138
I132
sS'pro'
p5139
I131
sS'09:50:04.0,33.98538618,-118.25380194,5328,morir'
p5140
I132
sS'rent'
p5141
I132
sS'any'
p5142
I117
sS'superman'
p5143
I132
sS'kush'
p5144
I126
sS'me,90001\n457390882266705920,thatonenigga13,2014-04-19'
p5145
I132
sS'wtf,90001\n454318379474497536,thatonenigga13,2014-04-10'
p5146
I132
sS'blunt'
p5147
I120
sS'surf'
p5148
I132
sS'sure'
p5149
I119
sS'frio'
p5150
I131
sS'freshman'
p5151
I130
sS'sean-'
p5152
I131
sS'bored,90001\n456732214055563264,thatonenigga13,2014-04-17'
p5153
I132
sS'19:16:13.0,33.98546472,-118.25382533,5328,you'
p5154
I132
sS'considered'
p5155
I132
sS'seafood'
p5156
I129
sS'proud'
p5157
I130
sS'hungry'
p5158
I122
sS'tantrums-'
p5159
I132
sS'uncle'
p5160
I131
sS'senior'
p5161
I130
sS'cheat'
p5162
I132
sS'permiso'
p5163
I132
sS'cheap'
p5164
I132
sS'oyir'
p5165
I132
sS'wood'
p5166
I132
sS'right,90001\n455114520428425216,thatonenigga13,2014-04-12'
p5167
I132
sS'tyre'
p5168
I132
sS'lighter'
p5169
I131
sS'freaking'
p5170
I132
sS'02:34:26.0,33.98550815,-118.25365031,5328,dam'
p5171
I132
sS'cruda'
p5172
I132
sS'naked'
p5173
I131
sS":')"
p5174
I132
sS'shiiiiiiiiiiiiiit'
p5175
I132
sS"08:27:58.0,33.98537685,-118.25373187,5328,i'm"
p5176
I132
sS'bought'
p5177
I127
sS"y'all"
p5178
I90
sS'ignored'
p5179
I132
sS',90001\n457390795314585600,thatonenigga13,2014-04-19'
p5180
I132
sS'gearzzzzzzzz'
p5181
I132
sS'lmao,90001\n455024573667233792,thatonenigga13,2014-04-12'
p5182
I132
sS'bieber-'
p5183
I132
sS'college'
p5184
I126
sS'parking'
p5185
I132
sS'amazing"'
p5186
I132
sS'4am-.-,90001\n457615125382299648,thatonenigga13,2014-04-19'
p5187
I132
sS'ways'
p5188
I132
sS"04:47:39.0,33.98553194,-118.25379876,5328,i'm"
p5189
I132
sS'outside'
p5190
I125
sS'alaneverage'
p5191
I132
sS',90001\n458672057631645696,thatonenigga13,2014-04-22'
p5192
I132
sS'25'
p5193
I132
sS'tortas'
p5194
I132
sS'matar,90001\n456006469515624448,thatonenigga13,2014-04-15'
p5195
I132
sS'coma'
p5196
I132
sS'come'
p5197
I82
sS'whateverz'
p5198
I132
sS'whatevers'
p5199
I132
sS'region'
p5200
I126
sS'23'
p5201
I132
sS'quiet'
p5202
I129
sS'berry'
p5203
I132
sS'lie,90001\n457782835298852864,thatonenigga13,2014-04-20'
p5204
I132
sS'6%'
p5205
I132
sS'bricks'
p5206
I132
sS'continuation'
p5207
I132
sS'por'
p5208
I130
sS'period'
p5209
I131
sS'pop'
p5210
I129
sS'60'
p5211
I132
sS'pole'
p5212
I131
sS'68'
p5213
I132
sS'late'
p5214
I118
sS'teammate'
p5215
I132
sS'howard'
p5216
I132
sS'miserable/terrible'
p5217
I132
sS'50%'
p5218
I132
sS'09:03:21.0,33.98541187,-118.25383144,5328,neff,90001\n458531404658139136,thatonenigga13,2014-04-22'
p5219
I132
sS'hardly'
p5220
I125
sS'08:42:31.0,33.9853315,-118.25372449,5328,asiiiiiii'
p5221
I132
sS'schoolboy'
p5222
I132
sS'andrew'
p5223
I129
sS'paying'
p5224
I130
sS'myself'
p5225
I98
sS'asi,90001\n456666219609726976,thatonenigga13,2014-04-17'
p5226
I132
sS'rhymes'
p5227
I132
sS'hoeeeee'
p5228
I132
sS'50z'
p5229
I132
sS'50s'
p5230
I129
sS'05:01:32.0,33.98541141,-118.25385391,5328,everyone'
p5231
I132
sS'vest'
p5232
I132
sS'numba'
p5233
I132
sS'someone'
p5234
I83
sS'capping'
p5235
I132
sS'shiiiiiit'
p5236
I132
sS'\xe2\x98\xba\xef\xb8\x8f,90001\n455536501330161664,thatonenigga13,2014-04-14'
p5237
I132
sS'today/yesterday'
p5238
I132
sS'sippin'
p5239
I130
sS'sellin'
p5240
I131
sS'bowl'
p5241
I130
sS'trip'
p5242
I132
sS'shifts'
p5243
I132
sS'catfish'
p5244
I132
sS'yeahhh'
p5245
I131
sS'reminder'
p5246
I132
sS'retweeting'
p5247
I132
sS'todos'
p5248
I132
sS'week'
p5249
I116
sS'ni'
p5250
I132
sS',90001\n454330386437259265,thatonenigga13,2014-04-10'
p5251
I132
sS'mutha'
p5252
I131
sS'weed'
p5253
I127
sS'coochi'
p5254
I132
sS'changing'
p5255
I129
sS'zhu-'
p5256
I132
sS'cartoon'
p5257
I132
sS'without'
p5258
I130
sS'model'
p5259
I130
sS'commercials'
p5260
I132
sS'2,90001\n458520378176851968,thatonenigga13,2014-04-22'
p5261
I132
sS'schedule"'
p5262
I132
sS'round,90001\n455551331986460672,thatonenigga13,2014-04-14'
p5263
I132
sS'when'
p5264
I39
sS'risking'
p5265
I132
sS'tomorrow\xe2\x80\x9d'
p5266
I132
sS'kill'
p5267
I123
sS'shit,90001\n455624009770471424,thatonenigga13,2014-04-14'
p5268
I132
sS'07:19:58.0,33.98540697,-118.25381552,5328,okay'
p5269
I132
sS'blow'
p5270
I131
sS'hint'
p5271
I132
sS"everyone's"
p5272
I130
sS'seems'
p5273
I132
sS'except'
p5274
I131
sS'it\xe2\x80\x99s'
p5275
I132
sS'lets'
p5276
I131
sS'kills'
p5277
I131
sS'killa'
p5278
I131
sS'it.\xe2\x80\x9d'
p5279
I132
sS'accepted'
p5280
I132
sS'songs,90001\n455960520533618688,thatonenigga13,2014-04-15'
p5281
I132
sS'towel'
p5282
I132
sS'coursee'
p5283
I132
sS'shelf'
p5284
I129
sS'go,90001\n455551120216043520,thatonenigga13,2014-04-14'
p5285
I132
sS'donations'
p5286
I132
sS'kbir'
p5287
I132
sS'freestyles'
p5288
I132
sS'08:05:11.0,33.98536229,-118.25383555,5328,real'
p5289
I132
sS'there,90001\n455195327948017664,thatonenigga13,2014-04-13'
p5290
I132
sS'pacific'
p5291
I132
sS'gangsta,90001\n455616316137668608,thatonenigga13,2014-04-14'
p5292
I132
sS'cowboys'
p5293
I132
sS'steel.\xe2\x80\x9dyep'
p5294
I132
sS'mood'
p5295
I110
sS'slick'
p5296
I132
sS'stops'
p5297
I132
sS'moon'
p5298
I129
sS'habits'
p5299
I132
sS'lmfao'
p5300
I66
sS'nails'
p5301
I132
sS'fabuloso'
p5302
I132
sS'beaches'
p5303
I132
sS'on'
p5304
I12
sS'ol'
p5305
I131
sS'ok'
p5306
I117
sS'oh'
p5307
I112
sS'og'
p5308
I131
sS'of'
p5309
I21
sS'ob'
p5310
I132
sS'creepers'
p5311
I132
sS'stand'
p5312
I128
sS'or'
p5313
I54
sS'amber'
p5314
I132
sS'ladies'
p5315
I130
sS'accounts'
p5316
I132
sS'yall\xe2\x9c\x8c\xef\xb8\x8f'
p5317
I132
sS'weeknd'
p5318
I129
sS'buds'
p5319
I132
sS'strictly'
p5320
I132
sS'there'
p5321
I76
sS"07:52:51.0,33.98506189,-118.25356333,5328,it's"
p5322
I132
sS'\xe2\x80\x9cpretty'
p5323
I132
sS'cata\xc3\xb1ol'
p5324
I132
sS'fish'
p5325
I132
sS"09:33:16.0,33.98516463,-118.2537427,5328,i'm"
p5326
I132
sS'morrison'
p5327
I132
sS'burry'
p5328
I132
sS'night,90001\n456018824676904960,thatonenigga13,2014-04-15'
p5329
I132
sS'101.9'
p5330
I132
sS'toooooo'
p5331
I132
sS'75%'
p5332
I132
sS'hoessssssss'
p5333
I132
sS'hallows'
p5334
I132
sS'creeping'
p5335
I132
sS'despensa'
p5336
I132
sS'taylor'
p5337
I132
sS'taste'
p5338
I128
sS'fml,90001\n458455260269277184,thatonenigga13,2014-04-22'
p5339
I132
sS'deserve'
p5340
I126
sS'rubben'
p5341
I132
sS'rubber'
p5342
I132
sS'5'
p5343
I118
sS'cold-stones'
p5344
I132
sS'chance.do'
p5345
I132
sS'included'
p5346
I132
sS'grupo'
p5347
I132
sS'finals'
p5348
I132
sS'telet'
p5349
I131
sS'calls'
p5350
I128
sS'wife'
p5351
I132
sS'thirsty,90001\n454337069108563969,thatonenigga13,2014-04-10'
p5352
I132
sS'wifi'
p5353
I132
sS'igloo'
p5354
I132
sS'tanned'
p5355
I132
sS'all'
p5356
I35
sS'01:32:24.0,33.98547377,-118.25380068,5328,lmfao'
p5357
I132
sS'chinese'
p5358
I127
sS'ale'
p5359
I132
sS'follow'
p5360
I124
sS'hmmm'
p5361
I131
sS'fml,90001\n455589180836306944,thatonenigga13,2014-04-14'
p5362
I132
sS'liar-'
p5363
I132
sS'wassup'
p5364
I123
sS'cachoro'
p5365
I132
sS'program'
p5366
I132
sS'.name'
p5367
I132
sS'worse'
p5368
I129
sS'song'
p5369
I96
sS'far'
p5370
I126
sS'fav'
p5371
I126
sS'fat'
p5372
I123
sS'ican'
p5373
I132
sS'03:01:44.0,33.98532041,-118.25371109,5328,i'
p5374
I132
sS'worst'
p5375
I125
sS'fam'
p5376
I127
sS'21:36:26.0,33.98518716,-118.25352834,5328,you'
p5377
I132
sS'ticket'
p5378
I131
sS'soles'
p5379
I132
sS'fag'
p5380
I130
sS'bayyybayyy'
p5381
I132
sS'nap.\xe2\x80\x9d'
p5382
I132
sS'yasmin'
p5383
I132
sS'liars'
p5384
I130
sS'08:11:25.0,33.98526241,-118.25383051,5328,you'
p5385
I132
sS'ten'
p5386
I129
sS'shinin'
p5387
I132
sS'nba'
p5388
I132
sS'tew'
p5389
I132
sS'what'
p5390
I43
sS'sun'
p5391
I129
sS'sum'
p5392
I131
sS'crush'
p5393
I132
sS'suv'
p5394
I132
sS'sup'
p5395
I132
sS'guns'
p5396
I130
sS'yall\xe2\x9d\xa4\xef\xb8\x8f\xe2\x9d\xa4\xef\xb8\x8f\xe2\x9d\xa4\xef\xb8\x8f'
p5397
I132
sS'89lbs'
p5398
I132
sS'comprobado'
p5399
I132
sS'hungover'
p5400
I132
sS'whaaaaaaa,90001\n454337748111863808,thatonenigga13,2014-04-10'
p5401
I132
sS'20:40:40.0,33.9852135,-118.25349309,5328,ha,90001\n454342017493897216,thatonenigga13,2014-04-10'
p5402
I132
sS'hot,90001\n458006626436268032,thatonenigga13,2014-04-20'
p5403
I132
sS'd.w'
p5404
I132
sS'16:33:34.0,33.98541308,-118.25373631,5328,sexy'
p5405
I132
sS'options'
p5406
I132
sS'imagine'
p5407
I129
sS'texts'
p5408
I132
sS'ckentral'
p5409
I132
sS'today,90001\n458191296675332096,thatonenigga13,2014-04-21'
p5410
I132
sS'florence'
p5411
I131
sS'emoji'
p5412
I131
sS'munchies'
p5413
I130
sS'irritate'
p5414
I132
sS'shit|'
p5415
I132
sS'shits'
p5416
I129
sS'flat'
p5417
I131
sS'knows'
p5418
I127
sS'grabbing'
p5419
I132
sS'emotion.\xe2\x80\x9dhaa'
p5420
I132
sS'basically'
p5421
I132
sS'ryda'
p5422
I131
sS'caloron'
p5423
I132
sS'pero'
p5424
I131
sS'21:11:36.0,33.98536874,-118.25377428,5328,,90001\n455810518754668545,thatonenigga13,2014-04-14'
p5425
I132
sS'07:01:05.0,33.98535793,-118.25390847,5328,been'
p5426
I132
sS'embarrassing'
p5427
I132
sS'joints'
p5428
I130
sS'pong'
p5429
I132
sS'court'
p5430
I131
sS'goal'
p5431
I128
sS'rather'
p5432
I127
sS'breaking'
p5433
I132
sS'explains'
p5434
I132
sS'sandwich'
p5435
I129
sS'okay'
p5436
I110
sS'sabina'
p5437
I132
sS'algebra'
p5438
I132
sS'loyal,90001\n455536214511083520,thatonenigga13,2014-04-14'
p5439
I132
sS'panoramic'
p5440
I132
sS'songs,90001\n456727136162693121,thatonenigga13,2014-04-17'
p5441
I132
sS'adventure'
p5442
I132
sS'nozzed'
p5443
I132
sS'short'
p5444
I123
sS'shady'
p5445
I132
sS'fuck,90001\n455826353711902720,thatonenigga13,2014-04-14'
p5446
I132
sS"21:34:32.0,33.9856021,-118.25374553,5328,i'm"
p5447
I132
sS'15:36:59.0,33.98531201,-118.25358597,5328,no'
p5448
I132
sS'11:17:24.0,33.98517055,-118.25385586,5328,good'
p5449
I132
sS"don't"
p5450
I22
sS'"if'
p5451
I132
sS'mission'
p5452
I124
sS'isnt'
p5453
I132
sS'10:12:38.0,33.98541443,-118.25386941,5328,thun'
p5454
I132
sS'style'
p5455
I131
sS'pray'
p5456
I130
sS'chill,90001\n457620073734086656,thatonenigga13,2014-04-19'
p5457
I132
sS'04:49:12.0,33.98518755,-118.2536764,5328,on'
p5458
I132
sS'parts'
p5459
I132
sS'later,90001\n454802089659465728,thatonenigga13,2014-04-12'
p5460
I132
sS'bout'
p5461
I105
sS'soccer'
p5462
I129
sS'might'
p5463
I124
sS'hang,90001\n455083503973982208,thatonenigga13,2014-04-12'
p5464
I132
sS'somebody'
p5465
I128
sS'sucking'
p5466
I132
sS'excuses,90001\n454373439424327680,thatonenigga13,2014-04-10'
p5467
I132
sS'hot,90001\n455828519512072192,thatonenigga13,2014-04-14'
p5468
I132
sS'bigger'
p5469
I132
sS'06:51:12.0,33.9852638,-118.25381355,5328,owieeeeeee'
p5470
I132
sS'presentaci\xc3\xb3n'
p5471
I132
sS'refresh'
p5472
I132
sS'timmy'
p5473
I132
sS'"sick"'
p5474
I132
sS'weight'
p5475
I132
sS'generation'
p5476
I132
sS'20:43:21.0,33.98534569,-118.25387386,5328,lac'
p5477
I132
sS'coldplay-'
p5478
I132
sS'15:29:38.0,33.98521542,-118.25369955,5328,drake-'
p5479
I132
sS'expect'
p5480
I130
sS'08:12:45.0,33.98543718,-118.25382776,5328,hit'
p5481
I132
sS'prolly'
p5482
I130
sS'boreeeed'
p5483
I132
sS'andyville,90001\n457032007785000960,thatonenigga13,2014-04-18'
p5484
I132
sS'hill'
p5485
I132
sS'chaffey'
p5486
I132
sS'caucasian'
p5487
I131
sS',90001\n455621636247400448,thatonenigga13,2014-04-14'
p5488
I132
sS'02:54:01.0,33.98546279,-118.25380412,5328,i'
p5489
I132
sS'foo?,90001\n457015174797340673,thatonenigga13,2014-04-18'
p5490
I132
sS'on,90001\n454334758508433408,thatonenigga13,2014-04-10'
p5491
I132
sS'friday'
p5492
I123
sS'forgive'
p5493
I132
sS'up?,90001\n457849953226727424,thatonenigga13,2014-04-20'
p5494
I132
sS'08:49:21.0,33.9853038,-118.25371711,5328,seen'
p5495
I132
sS'crashin'
p5496
I132
sS'teach'
p5497
I131
sS'blister'
p5498
I130
sS'ckold'
p5499
I132
sS'shit,90001\n455616851901300737,thatonenigga13,2014-04-14'
p5500
I132
sS'fallen'
p5501
I132
sS'feed'
p5502
I130
sS'movie\xe2\x80\x9d'
p5503
I132
sS'e7ki'
p5504
I132
sS'quartor'
p5505
I132
sS'feel'
p5506
I76
sS'fancy'
p5507
I132
sS'19:47:44.0,33.98543375,-118.25382927,5328,dam'
p5508
I132
sS'sailor'
p5509
I132
sS'least'
p5510
I125
sS'05:24:43.0,33.98521681,-118.25364719,5328,the'
p5511
I132
sS'story'
p5512
I128
sS'"'
p5513
I111
sS'wutttt'
p5514
I132
sS'comfy'
p5515
I131
sS'passed'
p5516
I130
sS'syrup'
p5517
I132
sS'store'
p5518
I128
sS'headache'
p5519
I129
sS'08:43:43.0,33.98540994,-118.25388031,5328,white'
p5520
I132
sS'hotel'
p5521
I132
sS"i'ma"
p5522
I132
sS'$6'
p5523
I132
sS'lackin'
p5524
I132
sS'$5'
p5525
I132
sS'king'
p5526
I130
sS'kind'
p5527
I128
sS'double'
p5528
I132
sS'09:05:10.0,33.98539565,-118.25388869,5328,lookin'
p5529
I132
sS'estupid'
p5530
I132
sS'cost'
p5531
I132
sS'cuff'
p5532
I131
sS'dang'
p5533
I131
sS'motivation'
p5534
I132
sS'00:37:20.0,33.98537116,-118.25372062,5328,ayoooooo'
p5535
I132
sS'alike'
p5536
I132
sS'basshunter-'
p5537
I132
sS'nights'
p5538
I132
sS',90001\n455590768816570368,thatonenigga13,2014-04-14'
p5539
I132
sS'08:09:47.0,33.98517577,-118.25379664,5328,most'
p5540
I132
sS'idependent'
p5541
I132
sS'parece'
p5542
I132
sS'sandwiches'
p5543
I131
sS'up,90001\n458529843345256448,thatonenigga13,2014-04-22'
p5544
I132
sS'finding'
p5545
I130
sS'rol'
p5546
I132
sS'nivel'
p5547
I132
sS'7%'
p5548
I132
sS'05:32:45.0,33.98537817,-118.25375661,5328,osea'
p5549
I132
sS'reach'
p5550
I132
sS'react'
p5551
I130
sS'17:38:28.0,33.9852293,-118.25359197,5328,blowin'
p5552
I132
sS'75'
p5553
I132
sS'amar'
p5554
I132
sS'nothing'
p5555
I111
sS'lac,90001\n455771064795033600,thatonenigga13,2014-04-14'
p5556
I132
sS'grams'
p5557
I131
sS'windows'
p5558
I132
sS'there.\xe2\x80\x9d'
p5559
I132
sS'back,90001\n456556707728990208,thatonenigga13,2014-04-16'
p5560
I132
sS'so!!:/'
p5561
I132
sS'deans'
p5562
I132
sS'lying'
p5563
I127
sS'stoner'
p5564
I130
sS'ciroc'
p5565
I126
sS'stfu'
p5566
I121
sS'bff'
p5567
I117
sS'shamoo'
p5568
I132
sS'tct'
p5569
I132
sS'hip'
p5570
I132
sS'his'
p5571
I93
sS'hit'
p5572
I100
sS'tommorow'
p5573
I122
sS'11-4'
p5574
I132
sS'07:18:30.0,33.98521304,-118.25361413,5328,gunnuh'
p5575
I132
sS'longest'
p5576
I132
sS'him'
p5577
I108
sS'netherlandsssssssss'
p5578
I132
sS'cartoons'
p5579
I132
sS'dump'
p5580
I132
sS'barz'
p5581
I132
sS'kylie'
p5582
I132
sS'07:58:24.0,33.98521121,-118.25383593,5328,do'
p5583
I132
sS'dumb'
p5584
I117
sS'are'
p5585
I55
sS'bark'
p5586
I131
sS'arm'
p5587
I132
sS'cosplay'
p5588
I132
sS'fontana'
p5589
I130
sS'slapped'
p5590
I131
sS'06:03:40.0,33.98523834,-118.25379782,5328,my'
p5591
I132
sS'azalea'
p5592
I132
sS'life,90001\n455177018309488640,thatonenigga13,2014-04-13'
p5593
I132
sS'watchin'
p5594
I132
sS'korea'
p5595
I131
sS'sold'
p5596
I132
sS'attention'
p5597
I126
sS'outfit'
p5598
I132
sS'betrayed'
p5599
I132
sS'shootas'
p5600
I132
sS'c'
p5601
I123
sS'09:03:02.0,33.98518601,-118.25385338,5328,wide'
p5602
I132
sS'suburbana'
p5603
I132
sS'21:41:44.0,33.98539242,-118.25375098,5328,eating'
p5604
I132
sS'smh\xe2\x80\x9d'
p5605
I132
sS'annie'
p5606
I131
sS'finds'
p5607
I131
sS'04:43:33.0,33.98526447,-118.25351285,5328,broke'
p5608
I132
sS'sweet'
p5609
I125
sS'village'
p5610
I132
sS'rave'
p5611
I132
sS'counterfeit."'
p5612
I132
sS'ps'
p5613
I132
sS'mad,90001\n456258635614547968,thatonenigga13,2014-04-16'
p5614
I132
sS'pt'
p5615
I132
sS'dub'
p5616
I131
sS'political'
p5617
I132
sS'tf\xe2\x80\x9d'
p5618
I132
sS'po'
p5619
I132
sS'woke'
p5620
I104
sS'ifhy'
p5621
I131
sS'referee'
p5622
I132
sS'algeria'
p5623
I132
sS'georgia'
p5624
I132
sS'frozen'
p5625
I131
sS'kick'
p5626
I130
sS'lmfao,90001\n458003628108689408,thatonenigga13,2014-04-20'
p5627
I132
sS'rip'
p5628
I129
sS'thoee'
p5629
I132
sS'yet?"vanilla'
p5630
I132
sS'shirt'
p5631
I127
sS'ayeeeeer'
p5632
I132
sS'santigold-'
p5633
I132
sS'wassupp'
p5634
I132
sS'delicious'
p5635
I131
sS'rollink,90001\n455616984546168832,thatonenigga13,2014-04-14'
p5636
I132
sS'16:57:00.0,33.9853045,-118.25378744,5328,,90001\n454295869966143488,thatonenigga13,2014-04-10'
p5637
I132
sS'22:48:50.0,33.98551126,-118.25359097,5328,o'
p5638
I132
sS'9'
p5639
I131
sS'higher'
p5640
I132
sS'flows'
p5641
I132
sS'moving'
p5642
I130
sS'sweating'
p5643
I131
sS'16:56:46.0,33.98539948,-118.25376349,5328,made'
p5644
I132
sS'08:33:09.0,33.98549338,-118.25386531,5328,holy'
p5645
I132
sS'cheek'
p5646
I124
sS'anybody'
p5647
I132
sS'cheer'
p5648
I130
sS'dryyyyyyyyyy'
p5649
I132
sS'shy.\xe2\x80\x9d'
p5650
I132
sS'that,90001\n455958781516476416,thatonenigga13,2014-04-15'
p5651
I132
sS'stating'
p5652
I132
sS'tastes,90001\n458491675875090432,thatonenigga13,2014-04-22'
p5653
I132
sS'questions'
p5654
I132
sS"04:52:26.0,33.98525152,-118.25366791,5328,i'm"
p5655
I132
sS'20:41:42.0,33.98545529,-118.25379021,5328,last'
p5656
I132
sS'also'
p5657
I128
sS'16:06:30.0,33.9853821,-118.25370919,5328,off'
p5658
I132
sS'you,90001\n458661123534098432,thatonenigga13,2014-04-22'
p5659
I132
sS'a++++'
p5660
I132
sS'hunnys'
p5661
I132
sS'homeschool'
p5662
I132
sS'unlimited'
p5663
I132
sS'lovin'
p5664
I131
sS'through-.-'
p5665
I132
sS'wingstop'
p5666
I131
sS'ignore'
p5667
I130
sS'nipple'
p5668
I132
sS'me\xe2\x80\x9d'
p5669
I131
sS'fucking'
p5670
I94
sS'good,90001\n454735793831956480,thatonenigga13,2014-04-11'
p5671
I132
sS'18kwheeler'
p5672
I132
sS'herlinda'
p5673
I132
sS'uppercut'
p5674
I132
sS'fake,90001\n455913685089665024,thatonenigga13,2014-04-15'
p5675
I132
sS'mentioned,90001\n454307697211371520,thatonenigga13,2014-04-10'
p5676
I132
sS'matyasoo'
p5677
I132
sS'medi'
p5678
I131
sS'ojos'
p5679
I132
sS'lose'
p5680
I131
sS'lmaoook'
p5681
I132
sS'refuses'
p5682
I132
sS'02:25:40.0,33.98517757,-118.25374808,5328,oh'
p5683
I132
sS'eharmony'
p5684
I132
sS'plaza'
p5685
I132
sS"mcdonald's"
p5686
I132
sS'shleep'
p5687
I131
sS'bday,90001\n458762637132582912,thatonenigga13,2014-04-23'
p5688
I132
sS'sativa!!!,90001\n455955959689383936,thatonenigga13,2014-04-15'
p5689
I132
sS'wanna'
p5690
I61
sS',90001\n458485661247348738,thatonenigga13,2014-04-22'
p5691
I132
sS'*surprised'
p5692
I132
sS'mommy'
p5693
I132
sS'momma'
p5694
I119
sS'because'
p5695
I116
sS'xoxo'
p5696
I132
sS'ca)'
p5697
I132
sS'fast'
p5698
I130
sS"we're"
p5699
I128
sS'bruh'
p5700
I108
sS'bs,90001\n455206858131640320,thatonenigga13,2014-04-13'
p5701
I132
sS'awake,90001\n456723845194321920,thatonenigga13,2014-04-17'
p5702
I132
sS'04:49:37.0,33.9853436,-118.25384712,5328,my'
p5703
I132
sS'serious?(x'
p5704
I132
sS'okayyyy'
p5705
I132
sS'two-faced'
p5706
I132
sS'4ever'
p5707
I132
sS'tomorrow,90001\n456269523214028800,thatonenigga13,2014-04-16'
p5708
I132
sS'caller'
p5709
I132
sS'fries'
p5710
I125
sS"hasn't"
p5711
I131
sS'called'
p5712
I127
sS'broly'
p5713
I130
sS'freak'
p5714
I132
sS'stick'
p5715
I132
sS'dile'
p5716
I132
sS'soooowhat'
p5717
I132
sS'06:09:47.0,33.98522544,-118.25365714,5328,shit'
p5718
I132
sS'17:19:51.0,33.98532778,-118.25355237,5328,i'
p5719
I132
sS'17:09:02.0,33.98530489,-118.25362857,5328,outs'
p5720
I132
sS'rally'
p5721
I132
sS'graham'
p5722
I132
sS'cuento'
p5723
I132
sS'lemon'
p5724
I132
sS'hanes'
p5725
I132
sS'peace'
p5726
I131
sS'backs'
p5727
I132
sS'02:54:05.0,33.98549414,-118.25363282,5328,full'
p5728
I132
sS'nas-'
p5729
I132
sS'noche'
p5730
I131
sS'wrinkly'
p5731
I132
sS'rey-'
p5732
I132
sS'missin'
p5733
I132
sS'problems'
p5734
I124
sS'breasts'
p5735
I132
sS'hielitos'
p5736
I132
sS'posters'
p5737
I132
sS'it,90001\n455235732206940160,thatonenigga13,2014-04-13'
p5738
I132
sS'remix'
p5739
I132
sS'09:13:52.0,33.98519456,-118.25358907,5328,and'
p5740
I132
sS'03:19:36.0,33.98519171,-118.25353227,5328,black'
p5741
I132
sS'08:00:27.0,33.98517656,-118.25369602,5328,ima'
p5742
I132
sS'bitch,90001\n455767705186889728,thatonenigga13,2014-04-14'
p5743
I132
sS'back"'
p5744
I132
sS'once'
p5745
I127
sS'me,90001\n456682412366249984,thatonenigga13,2014-04-17'
p5746
I132
sS'aewc'
p5747
I132
sS'*sure'
p5748
I132
sS'block,90001\n454692073849909250,thatonenigga13,2014-04-11'
p5749
I132
sS'fml\xe2\x80\xbc\xef\xb8\x8f,90001\n458494502273961984,thatonenigga13,2014-04-22'
p5750
I132
sS'gang'
p5751
I130
sS'gano'
p5752
I132
sS'issues'
p5753
I132
sS'towel,90001\n456000505496350720,thatonenigga13,2014-04-15'
p5754
I132
sS'sniper'
p5755
I131
sS'family'
p5756
I130
sS'wished'
p5757
I131
sS'piernas'
p5758
I132
sS'agua'
p5759
I132
sS'drinking'
p5760
I129
sS'night,90001\n457771055071780864,thatonenigga13,2014-04-20'
p5761
I132
sS"03:37:45.0,33.98520728,-118.25375595,5328,i'm"
p5762
I132
sS'grey'
p5763
I132
sS'notes'
p5764
I132
sS"you'd"
p5765
I132
sS'cold,90001\n456270656238153728,thatonenigga13,2014-04-16'
p5766
I132
sS'ocho'
p5767
I132
sS'nastyyyy'
p5768
I132
sS"you's"
p5769
I131
sS'reunion'
p5770
I132
sS"*louie's"
p5771
I132
sS'tuesdays'
p5772
I132
sS'networks'
p5773
I132
sS'waiting'
p5774
I117
sS'niggaa'
p5775
I131
sS'chose'
p5776
I132
sS'explore'
p5777
I132
sS'sext'
p5778
I131
sS'sexy'
p5779
I131
sS'else,90001\n454699545004232704,thatonenigga13,2014-04-11'
p5780
I132
sS'metro'
p5781
I130
sS'calvin'
p5782
I132
sS'leaving'
p5783
I131
sS"dad's"
p5784
I132
sS',90001\n454669852678946816,thatonenigga13,2014-04-11'
p5785
I132
sS'shovel'
p5786
I132
sS'apple'
p5787
I129
sS'confession'
p5788
I132
sS'hardy'
p5789
I132
sS'cheerleader'
p5790
I132
sS'duce'
p5791
I132
sS'ape'
p5792
I131
sS'use'
p5793
I120
sS'hahahahaha'
p5794
I131
sS'usc'
p5795
I131
sS'usa'
p5796
I118
sS'&'
p5797
I121
sS',90001\n454332769724661760,thatonenigga13,2014-04-10'
p5798
I132
sS'pura'
p5799
I132
sS'few'
p5800
I122
sS'fet'
p5801
I130
sS'babeeee'
p5802
I132
sS'porch'
p5803
I129
sS'!\xe2\x80\x9d'
p5804
I132
sS'sore'
p5805
I118
sS'women'
p5806
I131
sS'7pm'
p5807
I132
sS'how?:/'
p5808
I132
sS'hhahahahhahaahha'
p5809
I132
sS'anywhere'
p5810
I132
sS'aight'
p5811
I127
sS'proof'
p5812
I132
sS'whk\xc3\xb8\xc3\xb8p'
p5813
I132
sS'thirsty'
p5814
I131
sS'tag'
p5815
I132
sS'something'
p5816
I100
sS',90001\n455532308125061121,thatonenigga13,2014-04-14'
p5817
I132
sS'tan'
p5818
I132
sS'counterfeit'
p5819
I132
sS'sis'
p5820
I125
sS'summers'
p5821
I132
sS'sip'
p5822
I132
sS'sit'
p5823
I127
sS'six'
p5824
I125
sS'itss'
p5825
I132
sS'instead'
p5826
I132
sS'sin'
p5827
I132
sS'gallo'
p5828
I132
sS'harris-'
p5829
I132
sS'stars'
p5830
I131
sS'wrist'
p5831
I131
sS'men'
p5832
I132
sS'hahahaha'
p5833
I130
sS'somethin'
p5834
I132
sS'light'
p5835
I127
sS'honestly'
p5836
I130
sS'fergy'
p5837
I131
sS'baddie'
p5838
I130
sS'lookn'
p5839
I132
sS'papitas\xe2\x98\xba\xef\xb8\x8f'
p5840
I132
sS'hyna='
p5841
I132
sS'interpreted'
p5842
I132
sS'looks'
p5843
I124
sS'future,90001\n458788110105444352,thatonenigga13,2014-04-23'
p5844
I132
sS'superior'
p5845
I132
sS'bys'
p5846
I131
sS'tyler'
p5847
I132
sS'choose'
p5848
I132
sS'orange'
p5849
I130
sS'bye'
p5850
I118
sS'06:37:35.0,33.9855179,-118.25374855,5328,you'
p5851
I132
sS'crash'
p5852
I130
sS'"serious"'
p5853
I132
sS'practice'
p5854
I123
sS'drinkin,90001\n457437566996721664,thatonenigga13,2014-04-19'
p5855
I132
sS'ambition'
p5856
I132
sS'01:05:12.0,33.98530701,-118.25387537,5328,up'
p5857
I132
sS'ba3den'
p5858
I132
sS'trap'
p5859
I130
sS'bills'
p5860
I132
sS'bentley'
p5861
I132
sS'our'
p5862
I119
sS'hands,90001\n454318620609236992,thatonenigga13,2014-04-10'
p5863
I132
sS'skany'
p5864
I132
sS'84'
p5865
I132
sS'out'
p5866
I38
sS'22:56:23.0,33.98550512,-118.25377361,5328,ima'
p5867
I132
sS"alma's"
p5868
I132
sS'common'
p5869
I131
sS'jeff'
p5870
I131
sS'heartbreaker'
p5871
I131
sS'llorando'
p5872
I132
sS'10speed'
p5873
I132
sS'g'
p5874
I128
sS'{tb'
p5875
I132
sS'conversation'
p5876
I132
sS'llorona'
p5877
I132
sS'smoothing'
p5878
I132
sS"doesn't"
p5879
I117
sS'unknown'
p5880
I131
sS'08:17:15.0,33.98542515,-118.253798,5328,ima'
p5881
I132
sS'their'
p5882
I118
sS'boii'
p5883
I131
sS'tried,90001\n454473150638469120,thatonenigga13,2014-04-11'
p5884
I132
sS'repping'
p5885
I132
sS'orange\xe2\x80\x9d'
p5886
I132
sS'dreadlocks'
p5887
I132
sS'slides'
p5888
I132
sS'july'
p5889
I130
sS'lol,90001\n417099400226152448,bobbyy0809,2013-12-29'
p5890
I132
sS'kickback'
p5891
I132
sS'boring'
p5892
I125
sS'serio'
p5893
I126
sS"l'damian"
p5894
I132
sS'\xe2\x9a\xbd\xef\xb8\x8f\xe2\x80\x9d'
p5895
I132
sS'months,90001\n456012214294441984,thatonenigga13,2014-04-15'
p5896
I132
sS'clit'
p5897
I130
sS'doubt,90001\n455635447171907585,thatonenigga13,2014-04-14'
p5898
I132
sS'tu,90001\n454341976330997760,thatonenigga13,2014-04-10'
p5899
I132
sS'alwys'
p5900
I132
sS'beliebers'
p5901
I132
sS'afraid'
p5902
I130
sS'01:49:53.0,33.98533266,-118.25372753,5328,hut'
p5903
I132
sS'ahole'
p5904
I132
sS'which'
p5905
I129
sS'asshole'
p5906
I130
sS'youuuu'
p5907
I132
sS'whn'
p5908
I131
sS'who'
p5909
I78
sS'best,90001\n456275225756196864,thatonenigga13,2014-04-16'
p5910
I132
sS'wht'
p5911
I132
sS'cracking'
p5912
I132
sS'dudeeeeee'
p5913
I132
sS'highschool'
p5914
I132
sS'why'
p5915
I57
sS'lames'
p5916
I130
sS'refreshing'
p5917
I132
sS'putas'
p5918
I132
sS'rn,90001\n456276559750393857,thatonenigga13,2014-04-16'
p5919
I132
sS'pipe'
p5920
I131
sS'18:17:27.0,33.98533119,-118.25347983,5328,let'
p5921
I132
sS'iamsu'
p5922
I132
sS'03:33:00.0,33.98541103,-118.25380119,5328,got'
p5923
I132
sS'pechera,90001\n456006401085546496,thatonenigga13,2014-04-15'
p5924
I132
sS'chances'
p5925
I132
sS'stove'
p5926
I132
sS'tidings'
p5927
I132
sS'planning'
p5928
I132
sS'besino'
p5929
I132
sS'chicken'
p5930
I132
sS'07:52:06.0,33.98501191,-118.25375268,5328,bomb'
p5931
I132
sS'ear'
p5932
I132
sS'freeload'
p5933
I132
sS'smallest'
p5934
I132
sS'lemme'
p5935
I132
sS',90001\n458533956824989696,thatonenigga13,2014-04-22'
p5936
I132
sS'workin'
p5937
I130
sS'sagittarius'
p5938
I132
sS'watching'
p5939
I117
sS'dope'
p5940
I132
sS',90001\n455571467661348865,thatonenigga13,2014-04-14'
p5941
I132
sS'me.\xe2\x80\x9d'
p5942
I132
sS'awww'
p5943
I130
sS'ones'
p5944
I126
sS'words'
p5945
I132
sS'chips'
p5946
I128
sS'ghetto'
p5947
I128
sS'trueb'
p5948
I132
sS'qb'
p5949
I132
sS'11am'
p5950
I132
sS'view'
p5951
I131
sS'23:07:48.0,33.98533603,-118.25375549,5328,mc'
p5952
I132
sS'buzzed'
p5953
I131
sS'closer'
p5954
I130
sS'closes'
p5955
I132
sS'playas'
p5956
I132
sS'genius'
p5957
I132
sS'mexicans'
p5958
I132
sS'closed'
p5959
I132
sS'frustrated'
p5960
I131
sS'pants'
p5961
I130
sS'a.f'
p5962
I132
sS'08:11:11.0,33.98531234,-118.25372608,5328,turnt'
p5963
I132
sS'opening'
p5964
I132
sS'barreta'
p5965
I132
sS'job'
p5966
I131
sS'joe'
p5967
I132
sS'swift'
p5968
I132
sS'about,90001\n458720535367544832,thatonenigga13,2014-04-22'
p5969
I132
sS'titties'
p5970
I132
sS'history,90001\n456730327952539649,thatonenigga13,2014-04-17'
p5971
I132
sS'wall'
p5972
I131
sS'foshooo'
p5973
I130
sS'makin'
p5974
I125
sS'growin'
p5975
I132
sS'walk'
p5976
I115
sS'18:02:54.0,33.98543769,-118.2538125,5328,my'
p5977
I132
sS'02:50:08.0,33.98547591,-118.25379498,5328,ha'
p5978
I132
sS'respect'
p5979
I131
sS'07:59:29.0,33.98519786,-118.25367466,5328,money'
p5980
I132
sS'thottie'
p5981
I132
sS'bbq'
p5982
I132
sS'nickel'
p5983
I132
sS'hmu'
p5984
I128
sS'hmm'
p5985
I131
sS'03:30:46.0,33.98539967,-118.25385584,5328,why'
p5986
I132
sS'present'
p5987
I132
sS'!!!!,90001\n455617927895457792,thatonenigga13,2014-04-14'
p5988
I132
sS'escribir'
p5989
I132
sS'wooooooooooooooow'
p5990
I132
sS'7ayawen'
p5991
I132
sS'will'
p5992
I93
sS'00:38:05.0,33.98537116,-118.25372062,5328,i'
p5993
I132
sS'wild'
p5994
I132
sS'happened'
p5995
I132
sS'okay.\xe2\x80\x9d'
p5996
I132
sS'ringing'
p5997
I132
sS'mannnnnn'
p5998
I132
sS'non'
p5999
I131
sS'thun'
p6000
I132
sS'layed'
p6001
I132
sS'thug'
p6002
I132
sS'ave'
p6003
I132
sS'reff'
p6004
I132
sS"04:42:13.0,33.98530822,-118.25369593,5328,i'm"
p6005
I132
sS'20:42:17.0,33.98534078,-118.25374292,5328,lil'
p6006
I132
sS'cross'
p6007
I129
sS'jenna'
p6008
I132
sS'02:44:51.0,33.98541047,-118.25373292,5328,i'
p6009
I132
sS'inch'
p6010
I132
sS'"babe"'
p6011
I132
sS'gets'
p6012
I117
sS'difficult'
p6013
I132
sS'romeo'
p6014
I132
sS'beast'
p6015
I132
sS'student'
p6016
I132
sS'l.a'
p6017
I131
sS'lobby'
p6018
I132
sS'ckoolin'
p6019
I132
sS'thesee'
p6020
I132
sS'fighting'
p6021
I132
sS'english'
p6022
I131
sS'cried'
p6023
I132
sS'*bit'
p6024
I132
sS"should've"
p6025
I131
sS'happiness'
p6026
I130
sS'bell'
p6027
I132
sS'sky'
p6028
I132
sS'05:34:44.0,33.98530317,-118.2537348,5328,in'
p6029
I132
sS'sonrisa'
p6030
I132
sS'other'
p6031
I104
sS'attractive'
p6032
I129
sS'disssss'
p6033
I132
sS'nozz'
p6034
I132
sS'knoe'
p6035
I131
sS"who's"
p6036
I129
sS'amor\xe2\x9d\xa4\xef\xb8\x8f'
p6037
I132
sS'know'
p6038
I44
sS'tryouts'
p6039
I132
sS'loser'
p6040
I131
sS'loses'
p6041
I132
sS'r.i.p.\xe2\x80\x9di'
p6042
I132
sS'sleep,90001\n455619843257937920,thatonenigga13,2014-04-14'
p6043
I132
sS"22:02:53.0,33.98535483,-118.2538317,5328,i'm"
p6044
I132
sS'nigga'
p6045
I46
sS'hollen'
p6046
I132
sS'scared'
p6047
I127
sS'church'
p6048
I130
sS'tumblr'
p6049
I131
sS'"tilt'
p6050
I132
sS'lead'
p6051
I132
sS'leak'
p6052
I132
sS'lean'
p6053
I130
sS'mines'
p6054
I125
sS'bitches,90001\n455953975045414912,thatonenigga13,2014-04-15'
p6055
I132
sS'leader'
p6056
I132
sS'hahahahahahahahahahahag'
p6057
I132
sS'11k'
p6058
I132
sS'stay'
p6059
I117
sS'stereotype'
p6060
I132
sS'03:51:07.0,33.98538721,-118.253715,5328,this'
p6061
I132
sS'asap,90001\n457422343334150144,thatonenigga13,2014-04-19'
p6062
I132
sS'rare'
p6063
I132
sS'getting'
p6064
I103
sS'mirada,90001\n456250655884062720,thatonenigga13,2014-04-16'
p6065
I132
sS'perks'
p6066
I132
sS'swear'
p6067
I115
sS'own'
p6068
I118
sS'08:03:51.0,33.98509669,-118.25355521,5328,gettin'
p6069
I132
sS'owe'
p6070
I131
sS'loner'
p6071
I132
sS'weather'
p6072
I132
sS'promise'
p6073
I132
sS'van'
p6074
I131
sS'*'
p6075
I132
sS'apps'
p6076
I131
sS'lmfao,90001\n454331218499104768,thatonenigga13,2014-04-10'
p6077
I132
sS'08:10:54.0,33.98531301,-118.25372877,5328,all'
p6078
I132
sS'vas'
p6079
I132
sS'footwork'
p6080
I132
sS'ohhhhhhhh'
p6081
I132
sS"i've"
p6082
I120
sS'bitches'
p6083
I101
sS'out,90001\n457423595388432385,thatonenigga13,2014-04-19'
p6084
I132
sS'*:-)'
p6085
I132
sS'volume'
p6086
I132
sS'granny'
p6087
I132
sS'21:45:21.0,33.98536279,-118.25373396,5328,been'
p6088
I132
sS'bitched'
p6089
I132
sS'made'
p6090
I107
sS'03:14:06.0,33.98556517,-118.25384184,5328,my'
p6091
I132
sS'record'
p6092
I131
sS'below'
p6093
I132
sS'cake'
p6094
I128
sS'lvl'
p6095
I131
sS'faggot'
p6096
I132
sS'18:01:14.0,33.98537717,-118.25376112,5328,stupid'
p6097
I132
sS'08:31:44.0,33.98549338,-118.25386531,5328,coronas'
p6098
I132
sS'se\xc3\xb1or'
p6099
I131
sS'(preferably'
p6100
I132
sS'again,90001\n454815672820695040,thatonenigga13,2014-04-12'
p6101
I132
sS'kind)'
p6102
I132
sS'boos'
p6103
I131
sS'percent'
p6104
I130
sS'09:53:01.0,33.98540692,-118.25379959,5328,we'
p6105
I132
sS'book'
p6106
I131
sS'amusement'
p6107
I132
sS'sick'
p6108
I122
sS'line,90001\n455631096592347136,thatonenigga13,2014-04-14'
p6109
I132
sS'boof'
p6110
I132
sS'pandora,90001\n456691628573331456,thatonenigga13,2014-04-17'
p6111
I132
sS'my*'
p6112
I132
sS'kinda'
p6113
I126
sS'bye,90001\n456028510461497344,thatonenigga13,2014-04-15'
p6114
I132
s.