(dp0
S''
p1
I1
sS'all'
p2
I18
sS':/'
p3
I18
sS':)'
p4
I18
sS'results'
p5
I18
sS'sleep'
p6
I17
sS'handball'
p7
I17
sS'hate'
p8
I18
sS'forget'
p9
I18
sS'goooooooool'
p10
I18
sS'to'
p11
I5
sS'finally'
p12
I18
sS'tj'
p13
I18
sS'under'
p14
I18
sS'te'
p15
I18
sS':o'
p16
I17
sS'song'
p17
I18
sS'imessage'
p18
I18
sS'nephue'
p19
I18
sS'chapel'
p20
I17
sS'school'
p21
I17
sS'b4!i'
p22
I18
sS'miras'
p23
I18
sS'p'
p24
I18
sS'guy'
p25
I18
sS'setup'
p26
I18
sS'upper'
p27
I18
sS'streets'
p28
I18
sS'talks'
p29
I18
sS'basura'
p30
I18
sS'video'
p31
I17
sS'booth'
p32
I18
sS'what'
p33
I17
sS'abc'
p34
I18
sS'remembered'
p35
I18
sS'saludos'
p36
I18
sS'pulpit'
p37
I18
sS'learned'
p38
I18
sS'public'
p39
I18
sS'body'
p40
I18
sS'never'
p41
I16
sS'punch'
p42
I18
sS'here'
p43
I18
sS'les'
p44
I18
sS'let'
p45
I18
sS'legend'
p46
I18
sS'wait'
p47
I18
sS'great'
p48
I18
sS'condoms'
p49
I18
sS'pinche'
p50
I18
sS'airport'
p51
I18
sS'nervous'
p52
I18
sS"i'm"
p53
I13
sS'family'
p54
I18
sS'lending'
p55
I18
sS'reagan'
p56
I18
sS'dedicated'
p57
I18
sS'bro'
p58
I17
sS'costar'
p59
I18
sS'fake'
p60
I17
sS'singing'
p61
I18
sS'charge'
p62
I18
sS'eye'
p63
I18
sS'working'
p64
I18
sS'luminaria'
p65
I18
sS'played'
p66
I18
sS'dude'
p67
I17
sS'tears'
p68
I18
sS'shits'
p69
I18
sS'until'
p70
I18
sS'trabajo'
p71
I18
sS'gained'
p72
I18
sS'relay'
p73
I17
sS'sister'
p74
I18
sS'phone'
p75
I18
sS'botella'
p76
I18
sS'baby'
p77
I17
sS'me'
p78
I7
sS'ma'
p79
I18
sS'room'
p80
I17
sS'heard'
p81
I17
sS'alcolicos'
p82
I18
sS'car'
p83
I18
sS'ride'
p84
I18
sS'went.to'
p85
I18
sS'can'
p86
I17
sS'praise'
p87
I17
sS'knocked'
p88
I18
sS'making'
p89
I18
sS'my'
p90
I4
sS'history'
p91
I18
sS'crazy'
p92
I18
sS'embarrassing'
p93
I18
sS"didn't"
p94
I18
sS'high'
p95
I18
sS'lolol'
p96
I18
sS'want'
p97
I18
sS'ceremony'
p98
I18
sS'noises'
p99
I18
sS'aff'
p100
I18
sS'watching'
p101
I17
sS'how'
p102
I17
sS'sunday'
p103
I18
sS'hop'
p104
I18
sS'comeeee'
p105
I18
sS'may'
p106
I18
sS'soundtrack'
p107
I18
sS'wrong'
p108
I18
sS'mad'
p109
I16
sS'guys'
p110
I18
sS'man'
p111
I18
sS'a'
p112
I9
sS'so'
p113
I12
sS'music"'
p114
I18
sS'wing'
p115
I18
sS'talk'
p116
I18
sS'mexican'
p117
I18
sS'help'
p118
I18
sS"don't"
p119
I17
sS'soon'
p120
I18
sS'hell'
p121
I18
sS'still'
p122
I18
sS'its'
p123
I16
sS'roots'
p124
I18
sS'before'
p125
I18
sS'la'
p126
I16
sS'somewhere'
p127
I18
sS'late'
p128
I18
sS'might'
p129
I18
sS'then'
p130
I18
sS'them'
p131
I16
sS'good'
p132
I17
sS'\xe2\x98\xba\xef\xb8\x8f'
p133
I18
sS'not'
p134
I17
sS'jesus'
p135
I18
sS'hall'
p136
I16
sS'always'
p137
I17
sS'lucy'
p138
I18
sS'did'
p139
I18
sS'weather'
p140
I18
sS'fuckkkkk'
p141
I18
sS'found'
p142
I18
sS"isn't"
p143
I18
sS'mean'
p144
I18
sS'en'
p145
I17
sS'weight'
p146
I18
sS'house'
p147
I18
sS'brother'
p148
I18
sS'forgot'
p149
I18
sS'huntington'
p150
I12
sS'out'
p151
I12
sS'rt'
p152
I18
sS'god'
p153
I18
sS'seriously'
p154
I18
sS'italian/mexican'
p155
I18
sS'got'
p156
I18
sS'rn'
p157
I17
sS'cause'
p158
I16
sS'navidad'
p159
I18
sS'city'
p160
I16
sS'put'
p161
I18
sS'turnout'
p162
I18
sS';___'
p163
I18
sS'messages'
p164
I18
sS'think'
p165
I15
sS'romania'
p166
I18
sS'feel'
p167
I17
sS'mucho'
p168
I18
sS'miss'
p169
I17
sS'tomorrow'
p170
I17
sS"doesn't"
p171
I16
sS'little'
p172
I18
sS'top'
p173
I18
sS'anyone'
p174
I17
sS'their'
p175
I18
sS'too'
p176
I17
sS'trip...lmu'
p177
I18
sS'speaking'
p178
I18
sS'that'
p179
I11
sS'exactly'
p180
I18
sS'park'
p181
I10
sS'grandpa'
p182
I18
sS'believe'
p183
I18
sS'gotchu'
p184
I18
sS'lmao'
p185
I16
sS'18'
p186
I18
sS'zero'
p187
I18
sS'project'
p188
I18
sS'kissin'
p189
I18
sS'and'
p190
I11
sS'wasnt'
p191
I18
sS'turned'
p192
I18
sS'comfortable'
p193
I18
sS'tonight'
p194
I17
sS'talking'
p195
I17
sS'peacoat'
p196
I18
sS'have'
p197
I18
sS'any'
p198
I18
sS'strength'
p199
I18
sS'-'
p200
I18
sS'balling'
p201
I18
sS'couch'
p202
I18
sS'note'
p203
I18
sS'take'
p204
I18
sS'anthonys'
p205
I18
sS'sure'
p206
I18
sS'aww'
p207
I18
sS'who'
p208
I16
sS'shyt'
p209
I17
sS'awk'
p210
I18
sS'why'
p211
I15
sS'cuban'
p212
I18
sS'clear'
p213
I18
sS'hungry'
p214
I18
sS'bruja-ja'
p215
I18
sS'annoyed'
p216
I18
sS'lmaoo'
p217
I18
sS'session'
p218
I18
sS'find'
p219
I18
sS'make'
p220
I18
sS'one'
p221
I15
sS'grazed'
p222
I18
sS'cousins'
p223
I18
sS'only'
p224
I17
sS'going'
p225
I15
sS'echar'
p226
I18
sS'he'
p227
I17
sS'hope'
p228
I18
sS'hip'
p229
I18
sS'do'
p230
I16
sS'get'
p231
I16
sS'de'
p232
I17
sS'stop'
p233
I17
sS'feels'
p234
I18
sS'wedding'
p235
I18
sS'him'
p236
I17
sS'freaking'
p237
I18
sS'qt'
p238
I18
sS'settings'
p239
I18
sS'morning'
p240
I16
sS'bad'
p241
I17
sS'stupid'
p242
I18
sS'she'
p243
I16
sS'double'
p244
I18
sS'oh-whale'
p245
I18
sS'where'
p246
I18
sS"everything's"
p247
I18
sS'fluffy'
p248
I18
sS'see'
p249
I17
sS'are'
p250
I16
sS'best'
p251
I18
sS'youth'
p252
I17
sS'away'
p253
I18
sS'worship'
p254
I18
sS'pist'
p255
I18
sS'we'
p256
I16
sS'omg'
p257
I18
sS'attention'
p258
I18
sS'southeast'
p259
I18
sS'job'
p260
I18
sS'merry'
p261
I18
sS'news'
p262
I18
sS'cities'
p263
I18
sS'come'
p264
I18
sS'kitchen'
p265
I18
sS'accident'
p266
I18
sS'last'
p267
I17
sS"he's"
p268
I18
sS'creeping'
p269
I18
sS'una'
p270
I18
sS'whole'
p271
I18
sS'asked'
p272
I18
sS"can't"
p273
I18
sS'como'
p274
I18
sS'had'
p275
I18
sS'"and'
p276
I18
sS'church'
p277
I18
sS'speak'
p278
I16
sS"it's"
p279
I16
sS'cue'
p280
I18
sS'been'
p281
I18
sS'earthquake'
p282
I18
sS'confident'
p283
I18
sS'much'
p284
I16
sS'treat'
p285
I18
sS"randy's"
p286
I18
sS'meeting'
p287
I18
sS'homies'
p288
I18
sS'myself'
p289
I18
sS'look'
p290
I18
sS'cta_official'
p291
I18
sS'convo'
p292
I18
sS'will'
p293
I18
sS'while'
p294
I18
sS'ignition'
p295
I18
sS'hahaha'
p296
I18
sS'fun'
p297
I18
sS'-.-\xe2\x80\x9d'
p298
I18
sS'pack'
p299
I18
sS'<3'
p300
I18
sS'mexico'
p301
I18
sS'is'
p302
I11
sS'it'
p303
I15
sS'middle'
p304
I18
sS'someone'
p305
I16
sS'in'
p306
I8
sS'ready'
p307
I18
sS'funny'
p308
I17
sS'open'
p309
I18
sS'pay'
p310
I18
sS'nobody'
p311
I18
sS'baga'
p312
I18
sS'party'
p313
I18
sS'gets'
p314
I18
sS'week'
p315
I17
sS'meets'
p316
I18
sS'"/'
p317
I18
sS'hang'
p318
I18
sS'moving'
p319
I18
sS'fucked'
p320
I18
sS'tune'
p321
I18
sS'off'
p322
I18
sS'i'
p323
I2
sS'well'
p324
I18
sS'thought'
p325
I18
sS'contact'
p326
I18
sS'mother'
p327
I17
sS'the'
p328
I3
sS'ny'
p329
I18
sS'background'
p330
I18
sS'just'
p331
I14
sS'being'
p332
I15
sS'photo'
p333
I17
sS'sleepy'
p334
I17
sS'yes'
p335
I18
sS'yet'
p336
I18
sS'cup'
p337
I18
sS'thinking'
p338
I18
sS'sky'
p339
I18
sS'day'
p340
I17
sS'lets'
p341
I18
sS'parents'
p342
I18
sS'crack'
p343
I18
sS'real'
p344
I16
sS'read'
p345
I18
sS'gonna'
p346
I18
sS'tmrw'
p347
I18
sS'know'
p348
I14
sS'mom'
p349
I17
sS'world'
p350
I18
sS'retreat'
p351
I18
sS'like'
p352
I14
sS'bobby'
p353
I18
sS'audience'
p354
I18
sS'youuuu'
p355
I18
sS'night'
p356
I17
sS'prepping'
p357
I18
sS'because'
p358
I18
sS'people'
p359
I18
sS'some'
p360
I18
sS'back'
p361
I16
sS'library'
p362
I18
sS'flush'
p363
I18
sS'home'
p364
I16
sS'mood'
p365
I18
sS'for'
p366
I15
sS'daddy'
p367
I18
sS'does'
p368
I17
sS'ass'
p369
I18
sS'christmas'
p370
I18
sS'hustle'
p371
I18
sS'lmfao'
p372
I18
sS'pinches'
p373
I18
sS'from'
p374
I17
sS';)'
p375
I18
sS'by'
p376
I18
sS'hearing'
p377
I18
sS'on'
p378
I13
sS'about'
p379
I16
sS'anything'
p380
I18
sS'getting'
p381
I18
sS'of'
p382
I12
sS'favorite'
p383
I18
sS'magazine'
p384
I18
sS'swear'
p385
I18
sS'wolf'
p386
I18
sS'chow'
p387
I18
sS'mouth'
p388
I18
sS'or'
p389
I18
sS'this'
p390
I6
sS'bound'
p391
I18
sS'soo'
p392
I18
sS'loner'
p393
I18
sS'down'
p394
I18
sS'everyone'
p395
I17
sS'your'
p396
I16
sS'there'
p397
I18
sS'lol'
p398
I14
sS'fuuuuh'
p399
I18
sS'start'
p400
I18
sS'was'
p401
I12
sS'boo'
p402
I18
sS'shower'
p403
I18
sS'wna'
p404
I18
sS"i've"
p405
I18
sS'hp'
p406
I18
sS'but'
p407
I17
sS'boys'
p408
I18
sS'kick-off'
p409
I18
sS'gorg'
p410
I18
sS'with'
p411
I9
sS'posted'
p412
I18
sS'applying'
p413
I18
sS'up'
p414
I15
sS'today'
p415
I17
sS'emotional'
p416
I18
sS'piece'
p417
I18
sS'minutes'
p418
I18
sS'lates'
p419
I18
sS'toilet'
p420
I18
sS'ac'
p421
I18
sS'am'
p422
I17
sS'an'
p423
I15
sS'as'
p424
I15
sS'right'
p425
I18
sS'at'
p426
I14
sS'rally'
p427
I18
sS'annoying'
p428
I17
sS'shit'
p429
I16
sS'holy'
p430
I18
sS'no'
p431
I18
sS'when'
p432
I15
sS'field'
p433
I18
sS'other'
p434
I18
sS'5'
p435
I18
sS'you'
p436
I13
sS'really'
p437
I18
sS'\xe2\x9c\x8c\xe2\x9c\x8c\xe2\x9c\x8c\xe2\x9c\x8c\xe2\x9c\x8c'
p438
I18
sS'welcome'
p439
I18
sS'tappd'
p440
I18
sS'kinda'
p441
I18
sS"she's"
p442
I18
sS'hahahahahah'
p443
I18
sS'friends'
p444
I17
sS'earphones'
p445
I18
sS'remix'
p446
I18
sS'calle'
p447
I18
sS'u'
p448
I18
sS'time'
p449
I16
sS'fresh'
p450
I18
sS'library)'
p451
I18
sS'having'
p452
I18
s.