(dp0
S''
p1
I1
sS'all'
p2
I31
sS'sci'
p3
I36
sS':)'
p4
I36
sS'maddie\xe2\x9d\xa4\xef\xb8\x8f'
p5
I37
sS'dollar'
p6
I37
sS'focus'
p7
I36
sS'four'
p8
I37
sS'\xe2\x9c\x82'
p9
I37
sS'theaters'
p10
I37
sS'"watching"'
p11
I37
sS'sleep'
p12
I35
sS'grateful'
p13
I37
sS'hating'
p14
I37
sS'go'
p15
I28
sS'suicidar'
p16
I37
sS'hate'
p17
I35
sS',90255\n507537304517218304,joseesandoval69,2014-09-04'
p18
I37
sS'as\xc3\xad'
p19
I37
sS'william'
p20
I37
sS'zone'
p21
I37
sS'tv'
p22
I37
sS'tu'
p23
I37
sS'thursday'
p24
I37
sS'to'
p25
I4
sS'finally'
p26
I32
sS'those'
p27
I37
sS'tf'
p28
I37
sS'lord'
p29
I37
sS'sorry'
p30
I37
sS'un'
p31
I37
sS'annoy'
p32
I37
sS'song'
p33
I37
sS'\xe2\x9a\xbe\xef\xb8\x8f'
p34
I35
sS'pages'
p35
I37
sS'end'
p36
I37
sS"try's"
p37
I37
sS'fat'
p38
I37
sS'tacos'
p39
I36
sS'selfies'
p40
I37
sS'wishes'
p41
I34
sS'every'
p42
I36
sS',90255\n484954932097732610,_stephyboo,2014-07-04'
p43
I37
sS'fall'
p44
I37
sS'07:00:40.0,33.9736499,-118.2167168,5331.07,all'
p45
I37
sS'drinking'
p46
I37
sS'rn'
p47
I37
sS'cool'
p48
I37
sS'diste'
p49
I37
sS'school'
p50
I29
sS'mc'
p51
I37
sS'did'
p52
I34
sS'marry'
p53
I37
sS'19:19:18.0,33.97340006,-118.21738978,5331.07,now'
p54
I37
sS'wednesday'
p55
I37
sS'ryan'
p56
I37
sS'yet...we'
p57
I37
sS'soooo'
p58
I37
sS'20:16:21.0,33.97264997,-118.21031384,5331.07,everything'
p59
I37
sS'subway'
p60
I35
sS'liars'
p61
I37
sS'guy'
p62
I34
sS'dodger'
p63
I35
sS"i'll"
p64
I37
sS'ahead'
p65
I37
sS'ezra'
p66
I37
sS'work'
p67
I36
sS'tired'
p68
I36
sS'tea'
p69
I37
sS'burger'
p70
I37
sS'video'
p71
I34
sS'pass'
p72
I37
sS'03:58:53.0,33.97567101,-118.21921408,5331.07,why'
p73
I37
sS'even'
p74
I34
sS'here,90255\n399357554339229696,bd_kikko,2013-11-10'
p75
I37
sS'what'
p76
I29
sS'elemntary'
p77
I37
sS'giving'
p78
I37
sS'recodo'
p79
I37
sS'sum'
p80
I37
sS'schedule'
p81
I37
sS'"d\xc3\xa9jala'
p82
I37
sS'13:39:17.0,33.973225,-118.21745155,5331.07,lmao'
p83
I37
sS'3020'
p84
I37
sS'melo'
p85
I37
sS'goes'
p86
I36
sS'03:23:41.0,33.9734621,-118.2173796,5331.07,this'
p87
I37
sS'kershaw'
p88
I37
sS'ratchet'
p89
I37
sS'07:06:27.0,33.97354903,-118.21667444,5331.07,all'
p90
I37
sS'told'
p91
I37
sS'body'
p92
I37
sS'friday'
p93
I37
sS'christian'
p94
I37
sS'screams'
p95
I37
sS'hairs'
p96
I37
sS'never'
p97
I30
sS'here'
p98
I34
sS'hours'
p99
I36
sS'\xe2\x9d\xa4\xef\xb8\x8f'
p100
I34
sS'baseball'
p101
I34
sS'life,90255\n466704505480814592,nlovee_,2014-05-14'
p102
I37
sS'19:15:29.0,33.97238995,-118.20959863,5331.07,karen'
p103
I37
sS'6-0'
p104
I37
sS'wait'
p105
I37
sS'great'
p106
I37
sS'kids'
p107
I37
sS'\xe2\x9a\xbd\xef\xb8\x8f'
p108
I36
sS'(2931'
p109
I16
sS'study'
p110
I33
sS'changed'
p111
I36
sS'lakers'
p112
I37
sS'leaving'
p113
I37
sS'thoe,90255\n507176682713669632,joseesandoval69,2014-09-03'
p114
I37
sS'kemp'
p115
I36
sS'slut,90255\n492058679554764800,kimmie_carter,2014-07-23'
p116
I37
sS"i'm"
p117
I3
sS'down.\xe2\x80\x9d'
p118
I37
sS'makes'
p119
I36
sS'pillow'
p120
I37
sS'eyebrows'
p121
I37
sS'named'
p122
I37
sS',90255\n501100238463987713,swaggoblerbigo,2014-08-17'
p123
I37
sS'love'
p124
I29
sS'weed,90255\n471118772896411648,joseesandoval69,2014-05-27'
p125
I37
sS'thankfully'
p126
I36
sS'extra'
p127
I37
sS'win'
p128
I23
sS'grandma'
p129
I37
sS'duele,90255\n416812463670059008,bd_kikko,2013-12-28'
p130
I37
sS'hahahahhaaah'
p131
I37
sS'semester'
p132
I34
sS'xpress'
p133
I37
sS'send'
p134
I37
sS'kempppp'
p135
I36
sS'fake'
p136
I37
sS'pasaic'
p137
I16
sS'florence'
p138
I11
sS'market'
p139
I37
sS'from'
p140
I35
sS'would'
p141
I37
sS'&'
p142
I35
sS"y'all,90255\n502449811237269506,joseesandoval69,2014-08-21"
p143
I37
sS'13:39:04.0,33.973225,-118.21745155,5331.07,pussy'
p144
I37
sS'until'
p145
I37
sS'pero'
p146
I36
sS'next'
p147
I32
sS'ca)'
p148
I27
sS'andy'
p149
I37
sS'iphone'
p150
I36
sS'6'
p151
I35
sS'taken'
p152
I37
sS'tell'
p153
I36
sS'today'
p154
I25
sS'more'
p155
I34
sS'flat'
p156
I37
sS'door'
p157
I37
sS'majoring'
p158
I37
sS'started'
p159
I36
sS'marchito'
p160
I37
sS'haha'
p161
I35
sS'sister'
p162
I35
sS'stressing'
p163
I37
sS'needed'
p164
I37
sS'ibooks'
p165
I37
sS"ain't"
p166
I37
sS'broke'
p167
I37
sS'baby'
p168
I35
sS'hurry'
p169
I37
sS'must'
p170
I36
sS'me'
p171
I14
sS'perder'
p172
I37
sS'ma'
p173
I37
sS'room'
p174
I37
sS'alin'
p175
I37
sS'this'
p176
I21
sS'science'
p177
I33
sS'getting'
p178
I31
sS'sucks'
p179
I36
sS'nina'
p180
I37
sS'movies'
p181
I37
sS'can'
p182
I32
sS'problemas'
p183
I37
sS'making'
p184
I37
sS'tomorrow,90255\n450173231614283776,zegoviano,2014-03-30'
p185
I37
sS'my'
p186
I6
sS'giants'
p187
I37
sS'crazy'
p188
I37
sS'chente'
p189
I36
sS"disney's"
p190
I37
sS'18:14:33.0,33.97357348,-118.21664874,5331.07,shopping'
p191
I37
sS'favorite'
p192
I36
sS'awesome'
p193
I36
sS"didn't"
p194
I37
sS'fuck'
p195
I33
sS'angi'
p196
I37
sS'high'
p197
I35
sS'heard'
p198
I36
sS'\xe2\x98\x95\xef\xb8\x8f'
p199
I37
sS'pulling'
p200
I37
sS'want'
p201
I30
sS'blvd'
p202
I35
sS'stole'
p203
I37
sS'time.=/'
p204
I37
sS'requirements'
p205
I37
sS'memorize'
p206
I37
sS'turn'
p207
I37
sS'means'
p208
I36
sS'22:19:59.0,33.9720152,-118.20986073,5331.07,ugh'
p209
I37
sS'how'
p210
I32
sS'sunday'
p211
I37
sS'hannah'
p212
I37
sS'tangled'
p213
I37
sS'defeat'
p214
I37
sS'okay'
p215
I35
sS"today's"
p216
I37
sS'may'
p217
I35
sS'db'
p218
I37
sS'after'
p219
I35
sS'lab'
p220
I37
sS'8-4'
p221
I37
sS'birthday'
p222
I31
sS'mad'
p223
I36
sS'date'
p224
I37
sS'salsa'
p225
I36
sS'mesa'
p226
I37
sS'man'
p227
I36
sS'a'
p228
I8
sS'remember'
p229
I37
sS'save'
p230
I37
sS'whenever'
p231
I37
sS'loud'
p232
I37
sS'st'
p233
I16
sS'whatever.,90255\n505665398453190656,electric_daizy,2014-08-30'
p234
I37
sS'honestly'
p235
I35
sS'se'
p236
I36
sS"that's"
p237
I34
sS'cute'
p238
I33
sS'six'
p239
I37
sS'he?,90255\n502896858402795520,kimmie_carter,2014-08-22'
p240
I37
sS'21:51:13.0,33.97294869,-118.21362061,5331.07,chiste'
p241
I37
sS"don't"
p242
I31
sS'september'
p243
I37
sS'babe,90255\n477174560916111360,ayyo_mary,2014-06-12'
p244
I37
sS'over'
p245
I32
sS"10:36:40.0,33.9726192,-118.2129823,5331.07,it's"
p246
I37
sS'soon'
p247
I37
sS"mcdonald's)"
p248
I36
sS"bruno's"
p249
I37
sS'isnt'
p250
I37
sS"won't"
p251
I37
sS'same'
p252
I37
sS'smiling'
p253
I37
sS'still'
p254
I35
sS'mayor'
p255
I36
sS'ima'
p256
I37
sS'group'
p257
I37
sS'thank'
p258
I31
sS"he's"
p259
I34
sS'thang'
p260
I37
sS'fix'
p261
I37
sS'imperfection'
p262
I37
sS'better'
p263
I31
sS'maid'
p264
I37
sS'whole'
p265
I37
sS'semesters'
p266
I37
sS'weeks'
p267
I36
sS'bye'
p268
I35
sS'might'
p269
I37
sS'easier'
p270
I37
sS'texas'
p271
I35
sS'dad'
p272
I32
sS'them'
p273
I35
sS'good'
p274
I23
sS'return'
p275
I37
sS'yo'
p276
I36
sS'auto'
p277
I37
sS'workout'
p278
I37
sS'\xe2\x98\x94\xef\xb8\x8f'
p279
I37
sS'break'
p280
I37
sS'lunch'
p281
I37
sS'snake'
p282
I37
sS'they'
p283
I36
sS'hands'
p284
I37
sS'not'
p285
I21
sS'07:05:52.0,33.97355646,-118.21649166,5331.07,yesterday'
p286
I37
sS'now'
p287
I32
sS'ahaha'
p288
I37
sS'day'
p289
I27
sS'sucked'
p290
I37
sS'easily'
p291
I37
sS'alex'
p292
I37
sS'always'
p293
I35
sS'dude\xe2\x80\x9d'
p294
I37
sS'weather'
p295
I37
sS'retainers'
p296
I37
sS'went'
p297
I36
sS'jiggy'
p298
I37
sS'side'
p299
I37
sS"isn't"
p300
I37
sS'luck'
p301
I36
sS'el'
p302
I36
sS'everyone'
p303
I36
sS'another'
p304
I37
sS'cloths'
p305
I37
sS'adventure'
p306
I37
sS'14:34:57.0,33.97614471,-118.21763277,5331.07,i'
p307
I37
sS'yeah'
p308
I37
sS'02:01:58.0,33.97212873,-118.2100122,5331.07,ugh'
p309
I37
sS'books'
p310
I37
sS'forgot'
p311
I34
sS'our'
p312
I33
sS'huntington'
p313
I10
sS'acava'
p314
I37
sS'todo'
p315
I37
sS'saturday'
p316
I37
sS'out'
p317
I25
sS'rt'
p318
I37
sS'reminding'
p319
I37
sS'missed'
p320
I37
sS'driving'
p321
I36
sS'god'
p322
I36
sS'since'
p323
I36
sS'14:21:20.0,33.97681811,-118.21774785,5331.07,when'
p324
I37
sS'looking'
p325
I37
sS'bday'
p326
I37
sS'seriously'
p327
I36
sS'barley'
p328
I37
sS'waaaaay'
p329
I37
sS'got'
p330
I33
sS'yesterday,90255\n495465489271750657,jmendoza9511,2014-08-02'
p331
I37
sS'cause'
p332
I36
sS"could've"
p333
I37
sS'sings'
p334
I37
sS'dodgers'
p335
I34
sS'wisconsin'
p336
I37
sS"act's"
p337
I37
sS'cars'
p338
I37
sS'million'
p339
I37
sS"22:20:54.0,33.97217495,-118.2095797,5331.07,i'm"
p340
I37
sS'free'
p341
I37
sS'disneyland'
p342
I37
sS'promise.,90255\n352869244779765760,slyyoungfella,2013-07-04'
p343
I37
sS'chiquis'
p344
I37
sS'put'
p345
I37
sS',90255\n440214657022697472,villicanajosue,2014-03-02'
p346
I37
sS'wanted'
p347
I37
sS'mvp'
p348
I37
sS'scary'
p349
I37
sS'english'
p350
I37
sS',90255\n460629196406931457,joseesandoval69,2014-04-28'
p351
I37
sS'could'
p352
I36
sS'days'
p353
I37
sS'keep'
p354
I37
sS'conversation'
p355
I36
sS"20:54:06.0,33.97657294,-118.21776696,5331.07,i've"
p356
I37
sS'yum'
p357
I36
sS'w'
p358
I36
sS'swing'
p359
I37
sS'sucks,90255\n485966924740718592,_ruthy_bear,2014-07-07'
p360
I37
sS'(at'
p361
I37
sS'think'
p362
I37
sS'first'
p363
I36
sS'enjoy'
p364
I37
sS'major'
p365
I36
sS'already'
p366
I34
sS'empeze"'
p367
I37
sS'feel'
p368
I33
sS'budweiser'
p369
I37
sS'confuse'
p370
I37
sS'one'
p371
I34
sS'jealous'
p372
I37
sS'done'
p373
I35
sS'lol'
p374
I12
sS'tenia'
p375
I37
sS'19:44:15.0,33.97387016,-118.22106325,5331.07,my'
p376
I37
sS'franky'
p377
I36
sS'miss'
p378
I34
sS'tomorrow'
p379
I33
sS'braces'
p380
I36
sS"you're"
p381
I37
sS'little'
p382
I36
sS'basketball'
p383
I37
sS'(2925'
p384
I37
sS'18%'
p385
I37
sS'introduction'
p386
I37
sS'top'
p387
I37
sS'least'
p388
I36
sS'attach'
p389
I37
sS'fml'
p390
I37
sS'2'
p391
I35
sS'too'
p392
I34
sS'time'
p393
I31
sS"10:40:02.0,33.9727934,-118.2131541,5331.07,i'm"
p394
I37
sS'19:58:47.0,33.9740844,-118.2157332,5331.07,como'
p395
I37
sS'gives'
p396
I37
sS'2-0'
p397
I37
sS'2-1'
p398
I37
sS',90255\n495465637162930176,jmendoza9511,2014-08-02'
p399
I37
sS'that'
p400
I19
sS'season'
p401
I32
sS'gym'
p402
I35
sS'park'
p403
I27
sS'took'
p404
I36
sS'cops'
p405
I37
sS'outcome'
p406
I37
sS'part'
p407
I37
sS'nigga'
p408
I37
sS'ashley'
p409
I37
sS'believe'
p410
I36
sS'than'
p411
I36
sS'vocab'
p412
I37
sS'loved'
p413
I37
sS'15'
p414
I37
sS'lmao'
p415
I24
sS'ulises'
p416
I37
sS'hike'
p417
I37
sS'gotta'
p418
I37
sS'goodnight'
p419
I37
sS'project'
p420
I37
sS'chillen'
p421
I37
sS'classes'
p422
I35
sS'glossy'
p423
I37
sS'loves'
p424
I37
sS'were'
p425
I36
sS'04:16:15.0,33.97417744,-118.21862494,5331.07,do'
p426
I37
sS'feeling'
p427
I37
sS'ousted'
p428
I36
sS'sophia'
p429
I37
sS'and'
p430
I13
sS'bridge'
p431
I37
sS'esta'
p432
I37
sS'wakes'
p433
I37
sS'sad'
p434
I36
sS'tonight'
p435
I34
sS'say'
p436
I36
sS'hug'
p437
I37
sS'fosure'
p438
I37
sS'have'
p439
I22
sS'need'
p440
I33
sS'seen'
p441
I37
sS'breakfast'
p442
I37
sS'blockbuster'
p443
I34
sS'saw'
p444
I37
sS'any'
p445
I37
sS'thought'
p446
I37
sS'congrats'
p447
I36
sS'studying'
p448
I37
sS'mamon,90255\n392391338982797312,cavalierxyouth_,2013-10-21'
p449
I37
sS'arm'
p450
I37
sS'babes'
p451
I37
sS'so'
p452
I16
sS'korean'
p453
I37
sS'cup"'
p454
I37
sS'hoy'
p455
I37
sS'blue'
p456
I36
sS'bitches'
p457
I37
sS'electric'
p458
I37
sS'aww'
p459
I33
sS'knew'
p460
I36
sS'montana'
p461
I37
sS',90255\n471142816089796608,nlovee_,2014-05-27'
p462
I37
sS'nothing'
p463
I36
sS'\xe2\x80\x94'
p464
I37
sS'why'
p465
I32
sS'23:54:47.0,33.9721618,-118.2105284,5331.07,finally'
p466
I37
sS'forever'
p467
I37
sS'don'
p468
I36
sS'5-0'
p469
I37
sS'5-3'
p470
I37
sS'notifications'
p471
I37
sS'licha'
p472
I37
sS'flor'
p473
I37
sS'professor'
p474
I36
sS'later'
p475
I37
sS'm'
p476
I37
sS'hungry'
p477
I36
sS'face'
p478
I37
sS'17:48:16.0,33.97358999,-118.21662485,5331.07,grabbing'
p479
I37
sS'park)'
p480
I10
sS'talk'
p481
I36
sS'entertaining'
p482
I37
sS'mad,90255\n466704734955393024,nlovee_,2014-05-14'
p483
I37
sS'luz'
p484
I36
sS'came'
p485
I37
sS'shop'
p486
I37
sS'saying'
p487
I37
sS'walking'
p488
I37
sS'ugh'
p489
I37
sS'lyrics'
p490
I37
sS'houston'
p491
I37
sS'text'
p492
I37
sS'bring'
p493
I37
sS'session'
p494
I37
sS'emotions'
p495
I37
sS'find'
p496
I37
sS'cried'
p497
I37
sS'true'
p498
I37
sS',90255\n468085676290764800,joseesandoval69,2014-05-18'
p499
I37
sS'should'
p500
I35
sS'tmrw'
p501
I37
sS'07:12:13.0,33.9736287,-118.21682084,5331.07,i'
p502
I37
sS'only'
p503
I34
sS'going'
p504
I34
sS'pretty'
p505
I36
sS'folks'
p506
I37
sS'watching'
p507
I36
sS'libro'
p508
I37
sS'hope'
p509
I35
sS'porque'
p510
I37
sS'do'
p511
I26
sS'his'
p512
I37
sS'dh'
p513
I37
sS'get'
p514
I28
sS'de'
p515
I36
sS'watch'
p516
I36
sS'new'
p517
I37
sS'during'
p518
I37
sS'him'
p519
I36
sS'21:22:40.0,33.97280405,-118.21261809,5331.07,boys'
p520
I37
sS'cry'
p521
I37
sS'ughh'
p522
I37
sS'morning'
p523
I34
sS'naked'
p524
I37
sS"wasn't"
p525
I37
sS'bad'
p526
I35
sS'stupid'
p527
I37
sS'clowns'
p528
I37
sS'she'
p529
I34
sS'boring'
p530
I37
sS'fixed'
p531
I37
sS'where'
p532
I36
sS'view'
p533
I37
sS"y'all"
p534
I37
sS'available'
p535
I37
sS'bars'
p536
I37
sS'espn'
p537
I37
sS'w/'
p538
I35
sS'national'
p539
I37
sS'getaway'
p540
I37
sS'see'
p541
I30
sS'college'
p542
I37
sS'are'
p543
I31
sS'parking'
p544
I37
sS'close'
p545
I37
sS'fine.,90255\n458000227178250240,eltankedefrank,2014-04-20'
p546
I37
sS'best'
p547
I33
sS',90255\n457999957148971008,eltankedefrank,2014-04-20'
p548
I37
sS'hp'
p549
I37
sS'said'
p550
I34
sS'lots'
p551
I37
sS'nailed'
p552
I37
sS'wow'
p553
I36
sS'please'
p554
I37
sS'driving.....,90255\n478015949904162817,jmendoza9511,2014-06-15'
p555
I37
sS'score'
p556
I37
sS'bruno'
p557
I35
sS'hopefully'
p558
I37
sS'yogurt'
p559
I32
sS'reading'
p560
I36
sS'much\xe2\x9d\xa4\xef\xb8\x8f'
p561
I37
sS'knowing'
p562
I37
sS'perfect'
p563
I37
sS'we'
p564
I30
sS'omg'
p565
I36
sS'20:46:00.0,33.9733301,-118.2163192,5331.07,so'
p566
I37
sS'opening'
p567
I35
sS'screen'
p568
I37
sS'joc'
p569
I37
sS'wtf'
p570
I34
sS'jk'
p571
I37
sS'singers'
p572
I37
sS'cousin'
p573
I37
sS'come'
p574
I34
sS'genessis'
p575
I37
sS'both'
p576
I37
sS'hahaha'
p577
I35
sS'last'
p578
I33
sS'memorized'
p579
I37
sS'joke'
p580
I36
sS'taking'
p581
I36
sS'barely'
p582
I37
sS'games'
p583
I35
sS'atleast'
p584
I37
sS'let'
p585
I37
sS'expression'
p586
I37
sS"can't"
p587
I33
sS'con'
p588
I37
sS'brining'
p589
I37
sS'como'
p590
I37
sS'point'
p591
I33
sS'tuesday'
p592
I37
sS'wtf,90255\n495467558867197953,jmendoza9511,2014-08-02'
p593
I37
sS'sweep'
p594
I36
sS'football'
p595
I37
sS'walk'
p596
I35
sS'alone'
p597
I37
sS"couldn't"
p598
I37
sS'news'
p599
I37
sS'kings'
p600
I36
sS'poli'
p601
I37
sS'considering'
p602
I37
sS'late'
p603
I37
sS'14:41:58.0,33.97664461,-118.21773729,5331.07,mom'
p604
I37
sS'sam'
p605
I37
sS'marc'
p606
I37
sS"it's"
p607
I30
sS'imagine'
p608
I37
sS'political'
p609
I33
sS'due'
p610
I37
sS'been'
p611
I35
sS'quiz'
p612
I37
sS'much'
p613
I33
sS'damn'
p614
I36
sS'stadium'
p615
I37
sS'mars'
p616
I36
sS'07:09:12.0,33.97353781,-118.21673395,5331.07,why'
p617
I37
sS'mothafucka'
p618
I37
sS'\xe2\x98\x85'
p619
I37
sS'woke'
p620
I36
sS'>'
p621
I37
sS'wants'
p622
I37
sS'life'
p623
I37
sS'day.\xe2\x80\x9d'
p624
I37
sS'gay'
p625
I37
sS'attacked'
p626
I37
sS'lock'
p627
I37
sS'deer'
p628
I37
sS'offered'
p629
I37
sS'sooooo'
p630
I37
sS'wish'
p631
I37
sS'anthony'
p632
I37
sS'snap'
p633
I37
sS'-.-'
p634
I36
sS'present'
p635
I37
sS'sound'
p636
I37
sS'myself'
p637
I35
sS'soccer'
p638
I36
sS'casa'
p639
I36
sS'look'
p640
I34
sS'these'
p641
I35
sS'leave'
p642
I37
sS'marcho'
p643
I37
sS'7-0'
p644
I37
sS'matematicas'
p645
I37
sS'will'
p646
I33
sS'while'
p647
I37
sS'suppose'
p648
I36
sS'many'
p649
I36
sS'fun'
p650
I35
sS'holiday'
p651
I37
sS'paco'
p652
I37
sS'ktla'
p653
I37
sS'jenni'
p654
I37
sS'stop'
p655
I37
sS'30'
p656
I37
sS'it.....whatever'
p657
I37
sS'mexico'
p658
I36
sS'almost'
p659
I35
sS',90255\n461148229380231168,joseesandoval69,2014-04-29'
p660
I37
sS'is'
p661
I21
sS'ir'
p662
I37
sS'it'
p663
I22
sS'fucken'
p664
I37
sS'canceled'
p665
I37
sS'v-day'
p666
I37
sS'someone'
p667
I37
sS'im'
p668
I36
sS'in'
p669
I17
sS'ready'
p670
I33
sS'ave'
p671
I13
sS"sat's"
p672
I37
sS'fame'
p673
I37
sS'worry'
p674
I37
sS'mins'
p675
I37
sS'anymore'
p676
I36
sS'yall.\xe2\x80\x9d'
p677
I37
sS'perform'
p678
I37
sS'vintage'
p679
I37
sS'granted'
p680
I37
sS'pepe'
p681
I36
sS'who'
p682
I35
sS'juat'
p683
I37
sS'speech'
p684
I37
sS',90255\n495467085531607040,jmendoza9511,2014-08-02'
p685
I37
sS'dam'
p686
I37
sS'party'
p687
I36
sS'gets'
p688
I37
sS'eww'
p689
I37
sS'pam'
p690
I37
sS'week'
p691
I34
sS'finish'
p692
I37
sS'21:28:25.0,33.97657818,-118.21384893,5331.07,aghh'
p693
I37
sS'mountain'
p694
I37
sS'1-0'
p695
I36
sS'pikachu'
p696
I37
sS'pick'
p697
I37
sS'yesterday'
p698
I36
sS'rain'
p699
I37
sS'tambien'
p700
I37
sS'moment'
p701
I36
sS'fridays'
p702
I36
sS'moving'
p703
I37
sS'unicorn'
p704
I37
sS'fucked'
p705
I35
sS'tapatio'
p706
I37
sS'totally'
p707
I37
sS'costa'
p708
I37
sS'threaded'
p709
I37
sS'off'
p710
I33
sS'i'
p711
I2
sS"dad's"
p712
I37
sS'ticos'
p713
I37
sS'well'
p714
I37
sS'tho'
p715
I36
sS'03:27:38.0,33.97246153,-118.20967999,5331.07,it'
p716
I37
sS'flags'
p717
I37
sS'comes'
p718
I37
sS'pitbull'
p719
I36
sS'kelly'
p720
I37
sS'the'
p721
I7
sS'you!!\xe2\x98\xba\xef\xb8\x8f'
p722
I37
sS'left'
p723
I36
sS'summer'
p724
I33
sS'\xe2\x98\xba\xef\xb8\x8f'
p725
I37
sS'just'
p726
I26
sS'being'
p727
I37
sS'money'
p728
I37
sS'tanto'
p729
I37
sS'unfair'
p730
I37
sS'thanks'
p731
I35
sS'questions'
p732
I37
sS'dog'
p733
I37
sS'mamado'
p734
I37
sS'yes'
p735
I32
sS'yet'
p736
I37
sS'procrastinating'
p737
I37
sS'jose'
p738
I37
sS'cut'
p739
I36
sS'helping'
p740
I37
sS'ham'
p741
I37
sS'thinking'
p742
I37
sS'cherry'
p743
I37
sS'had'
p744
I32
sS'cuz'
p745
I37
sS'killed'
p746
I37
sS'07:14:06.0,33.97313372,-118.21737083,5331.07,am'
p747
I37
sS'lets'
p748
I37
sS'parents'
p749
I36
sS'board'
p750
I37
sS'innocent'
p751
I37
sS'halftime'
p752
I36
sS'has'
p753
I35
sS'excited'
p754
I35
sS'kick'
p755
I37
sS'gave'
p756
I37
sS'kills'
p757
I37
sS'knoe'
p758
I37
sS'read'
p759
I36
sS'big'
p760
I37
sS'gonna'
p761
I33
sS'early'
p762
I36
sS'game'
p763
I36
sS'traffic'
p764
I37
sS'know'
p765
I34
sS'mom'
p766
I32
sS'performance'
p767
I37
sS'world'
p768
I37
sS'bit'
p769
I37
sS'like'
p770
I27
sS'gift'
p771
I37
sS'wingstop'
p772
I37
sS'idk'
p773
I37
sS'channel'
p774
I37
sS'night'
p775
I35
sS'become'
p776
I37
sS'fault'
p777
I37
sS'because'
p778
I34
sS'old'
p779
I36
sS'heellloooooo'
p780
I37
sS'people'
p781
I36
sS'fucking'
p782
I36
sS'scared'
p783
I37
sS'poi'
p784
I37
sS'some'
p785
I35
sS'back'
p786
I33
sS'alive'
p787
I37
sS'hair'
p788
I35
sS'leftgone'
p789
I37
sS'respect'
p790
I37
sS'home'
p791
I34
sS'pickles'
p792
I37
sS'guess'
p793
I37
sS',90255\n502449864769163265,joseesandoval69,2014-08-21'
p794
I37
sS'bet'
p795
I37
sS'for'
p796
I19
sS'unlocked'
p797
I37
sS'pet'
p798
I37
sS'daddy'
p799
I37
sS'/'
p800
I37
sS'4-0'
p801
I37
sS'asking'
p802
I37
sS'nicole'
p803
I37
sS'(2901'
p804
I34
sS'be'
p805
I23
sS'biology'
p806
I37
sS'welcome'
p807
I35
sS'eating'
p808
I37
sS',90255\n490492159909310464,skarlettgee,2014-07-19'
p809
I37
sS'booklet'
p810
I37
sS'nails'
p811
I37
sS'martin'
p812
I37
sS'amor'
p813
I37
sS'imaginary'
p814
I37
sS'palmdale'
p815
I37
sS'by'
p816
I36
sS'relaxing'
p817
I37
sS'chapter'
p818
I37
sS'on'
p819
I20
sS'about'
p820
I34
sS'ok'
p821
I36
sS'anything'
p822
I36
sS'oh'
p823
I36
sS"dj's"
p824
I32
sS'of'
p825
I18
sS',90255\n479373654942175232,_ruthy_bear,2014-06-18'
p826
I37
sS'lady*'
p827
I37
sS"mcdonald's"
p828
I9
sS'ids'
p829
I37
sS'mamon'
p830
I37
sS'02:07:15.0,33.9736557,-118.2187814,5331.07,rudy'
p831
I37
sS'plus'
p832
I37
sS'that\xe2\x80\x99s'
p833
I36
sS'bish'
p834
I37
sS'west'
p835
I37
sS'mean'
p836
I37
sS'wanna'
p837
I34
sS'or'
p838
I34
sS'seeing'
p839
I36
sS'own'
p840
I35
sS'upbrushed'
p841
I37
sS'vacation'
p842
I37
sS'down'
p843
I36
sS"ex's"
p844
I37
sS'momma'
p845
I37
sS'(huntington'
p846
I27
sS'angel'
p847
I37
sS'chiste'
p848
I37
sS'whos'
p849
I37
sS'your'
p850
I26
sS'hmmmmm'
p851
I37
sS'wack'
p852
I37
sS'her'
p853
I32
sS'friends'
p854
I37
sS'there'
p855
I37
sS'long'
p856
I35
sS'class'
p857
I32
sS'stuck'
p858
I37
sS'06:02:43.0,33.972402,-118.2097635,5331.07,cold'
p859
I37
sS'workshop'
p860
I37
sS"we're"
p861
I37
sS'way'
p862
I36
sS'forward'
p863
I37
sS'was'
p864
I16
sS'is,90255\n495466326782009346,jmendoza9511,2014-08-02'
p865
I37
sS'happy'
p866
I29
sS'head'
p867
I37
sS'it,90255\n447010695599497216,jmendoza9511,2014-03-21'
p868
I37
sS"i've"
p869
I37
sS'bus'
p870
I37
sS'brand'
p871
I37
sS'three'
p872
I37
sS'hw'
p873
I35
sS'but'
p874
I31
sS'spider'
p875
I37
sS'boys'
p876
I36
sS'hear'
p877
I37
sS'e'
p878
I15
sS'line'
p879
I37
sS'with'
p880
I28
sS'eat'
p881
I36
sS'buying'
p882
I37
sS'he'
p883
I35
sS'07:30:36.0,33.97396372,-118.21992089,5331.07,stayed'
p884
I37
sS'made'
p885
I36
sS'happen'
p886
I37
sS'braves'
p887
I37
sS'whether'
p888
I37
sS'la'
p889
I37
sS'hanna'
p890
I37
sS'up'
p891
I26
sS'us'
p892
I36
sS'ur'
p893
I37
sS"tomorrow's"
p894
I37
sS'samples'
p895
I37
sS'bbq'
p896
I37
sS'emotional'
p897
I37
sS'problem'
p898
I37
sS'raspados'
p899
I37
sS'minutes'
p900
I37
sS'misery'
p901
I37
sS'website'
p902
I37
sS'ac'
p903
I37
sS'muchos'
p904
I37
sS'af'
p905
I36
sS'14:24:09.0,33.97683379,-118.21651714,5331.07,i'
p906
I37
sS'year'
p907
I37
sS'am'
p908
I37
sS'an'
p909
I37
sS'as'
p910
I36
sS'right'
p911
I35
sS'at'
p912
I5
sS'chat'
p913
I37
sS'adorbs'
p914
I37
sS'ay'
p915
I37
sS'girl'
p916
I34
sS'shit'
p917
I36
sS'again'
p918
I35
sS'so,90255\n473251342652153856,timothyrages_,2014-06-01'
p919
I37
sS'nl'
p920
I37
sS"luis's"
p921
I37
sS'no'
p922
I34
sS'dressed'
p923
I37
sS'commercials'
p924
I36
sS'when'
p925
I34
sS'02:40:43.0,33.97257691,-118.21571952,5331.07,this'
p926
I37
sS'reality'
p927
I37
sS'other'
p928
I37
sS'5'
p929
I37
sS'test'
p930
I33
sS'u'
p931
I37
sS'you'
p932
I15
sS'really'
p933
I29
sS'smell'
p934
I37
sS'manhattan'
p935
I37
sS'realize'
p936
I37
sS'nice'
p937
I36
sS'cry.,90255\n505666243802591232,electric_daizy,2014-08-30'
p938
I37
sS'monday'
p939
I37
sS'13:43:38.0,33.97373835,-118.21808405,5331.07,i'
p940
I37
sS'sided'
p941
I37
sS'felt'
p942
I36
sS',90255\n503614046717739008,uglies_17,2014-08-24'
p943
I37
sS"let's"
p944
I36
sS'meaning'
p945
I37
sS',90255\n506907945771077632,joseesandoval69,2014-09-02'
p946
I37
sS'weekend'
p947
I37
sS'fedoras'
p948
I37
sS'earphones'
p949
I37
sS'(3053'
p950
I36
sS'14:03:49.0,33.97358974,-118.21709854,5331.07,mcdonalds'
p951
I37
sS'requires'
p952
I37
sS'lot'
p953
I37
sS'exhausting'
p954
I37
sS'21:52:18.0,33.97291068,-118.2136517,5331.07,se'
p955
I37
sS'city'
p956
I37
sS'fact'
p957
I37
sS'teeth'
p958
I36
sS'far'
p959
I36
sS"she's"
p960
I35
sS'starting'
p961
I36
sS'hello'
p962
I37
s.