(dp0
S''
p1
I1
sS'all'
p2
I15
sS'since'
p3
I32
sS':('
p4
I32
sS':)'
p5
I32
sS'whatevaa'
p6
I32
sS'dollar'
p7
I32
sS'month'
p8
I32
sS'sleep'
p9
I31
sS'/'
p10
I32
sS'grateful'
p11
I32
sS'go'
p12
I25
sS'jason'
p13
I32
sS'hate'
p14
I31
sS'forget'
p15
I32
sS'happybirthday'
p16
I32
sS'everything'
p17
I32
sS'peanut'
p18
I31
sS'tweet'
p19
I32
sS'young'
p20
I32
sS'send'
p21
I32
sS'to'
p22
I3
sS'finally'
p23
I29
sS'crewwwwww'
p24
I32
sS'gigi'
p25
I32
sS'tf'
p26
I31
sS'sorry'
p27
I32
sS'te'
p28
I32
sS'daaaance'
p29
I32
sS'me'
p30
I8
sS'breathing'
p31
I32
sS'song'
p32
I32
sS'far'
p33
I32
sS'cheap'
p34
I32
sS'rise'
p35
I32
sS'fav'
p36
I32
sS'fat'
p37
I32
sS'vegas'
p38
I32
sS',90255\n470653306876862466,thatnigma,2014-05-25'
p39
I32
sS'fam'
p40
I32
sS'cook'
p41
I32
sS'drinking'
p42
I31
sS'blast'
p43
I32
sS'exact'
p44
I32
sS'\xe2\x98\xba\xef\xb8\x8f\xe2\x9c\xa8'
p45
I32
sS'school'
p46
I30
sS'jacket'
p47
I32
sS'level'
p48
I32
sS'did'
p49
I32
sS'brother'
p50
I31
sS'turnt'
p51
I32
sS'leave'
p52
I28
sS'sand'
p53
I32
sS'hyu'
p54
I32
sS'team'
p55
I32
sS'small'
p56
I32
sS'yupppppppp'
p57
I32
sS'earbuds'
p58
I32
sS'ups'
p59
I32
sS'kniko'
p60
I32
sS"i'll"
p61
I30
sS'open'
p62
I32
sS'work'
p63
I26
sS'says'
p64
I31
sS'tired'
p65
I31
sS'harder'
p66
I32
sS'rudy'
p67
I32
sS'sign'
p68
I32
sS'alv'
p69
I32
sS'second'
p70
I31
sS'49'
p71
I32
sS'download'
p72
I32
sS'air'
p73
I32
sS'03:23:48.0,33.98001371,-118.20300652,5332.01,lol'
p74
I32
sS'even'
p75
I31
sS'what'
p76
I24
sS'power'
p77
I32
sS'giving'
p78
I31
sS'saved'
p79
I32
sS'waiting'
p80
I31
sS'scientists'
p81
I32
sS'new'
p82
I31
sS'ever'
p83
I30
sS'told'
p84
I31
sS'full'
p85
I32
sS'lee'
p86
I32
sS'never'
p87
I30
sS'feisty'
p88
I32
sS'here'
p89
I29
sS'gladys'
p90
I32
sS'\xe2\x9d\xa4\xef\xb8\x8f'
p91
I30
sS'busy'
p92
I32
sS'let'
p93
I31
sS'missholywud'
p94
I32
sS'others'
p95
I32
sS'voicemail'
p96
I32
sS'along'
p97
I31
sS'goodmorning'
p98
I32
sS'shoulda'
p99
I32
sS'change'
p100
I31
sS'celebration'
p101
I32
sS'boy'
p102
I31
sS'great'
p103
I31
sS'daughter'
p104
I32
sS'bash!\xe2\x80\xa6'
p105
I32
sS'didnt'
p106
I32
sS'k'
p107
I31
sS'30'
p108
I32
sS'"why'
p109
I32
sS'completely'
p110
I32
sS'experience'
p111
I32
sS'whaaaaa'
p112
I32
sS'draking'
p113
I32
sS'pick'
p114
I32
sS'real'
p115
I32
sS'bowl)'
p116
I31
sS"i'm"
p117
I17
sS'gagebowl'
p118
I32
sS'fell'
p119
I32
sS'thats'
p120
I32
sS'eyebrows'
p121
I32
sS'love'
p122
I22
sS'members'
p123
I32
sS'family'
p124
I29
sS'win'
p125
I32
sS'whatevs'
p126
I32
sS'feelings'
p127
I31
sS'brought'
p128
I32
sS'texts'
p129
I32
sS'use'
p130
I32
sS'from'
p131
I26
sS'takes'
p132
I32
sS'would'
p133
I31
sS'&'
p134
I20
sS'positive'
p135
I32
sS'hungry'
p136
I32
sS'charge'
p137
I32
sS'next'
p138
I30
sS'cali'
p139
I32
sS'live'
p140
I32
sS'wood'
p141
I32
sS'call'
p142
I30
sS'6'
p143
I32
sS'strike'
p144
I32
sS'survive'
p145
I32
sS'thru'
p146
I31
sS'tell'
p147
I31
sS'today'
p148
I28
sS'more'
p149
I28
sS'tryna'
p150
I32
sS'door'
p151
I32
sS'time...but'
p152
I32
sS'club'
p153
I31
sS'haha'
p154
I32
sS'occurred'
p155
I32
sS'it'
p156
I11
sS'phone'
p157
I30
sS'soooooooo'
p158
I32
sS'train'
p159
I32
sS"ain't"
p160
I31
sS'baby'
p161
I28
sS'cases'
p162
I32
sS'casualties'
p163
I32
sS'glad'
p164
I32
sS'shoot'
p165
I31
sS'none'
p166
I32
sS'balls'
p167
I31
sS'ma'
p168
I32
sS'hour'
p169
I32
sS'this'
p170
I21
sS'ballz'
p171
I32
sS'getting'
p172
I29
sS'cat'
p173
I32
sS'other'
p174
I32
sS'mt'
p175
I32
sS'homie'
p176
I32
sS'can'
p177
I26
sS'my'
p178
I7
sS'grenade'
p179
I32
sS'history'
p180
I31
sS'beautiful'
p181
I32
sS'crazy'
p182
I32
sS'months'
p183
I32
sS'give'
p184
I31
sS'awesome'
p185
I32
sS"didn't"
p186
I32
sS'fuck'
p187
I28
sS'days'
p188
I32
sS'high'
p189
I31
sS'tag'
p190
I32
sS'something'
p191
I32
sS'want'
p192
I28
sS'sense'
p193
I32
sS'handle'
p194
I32
sS'david'
p195
I32
sS'dress'
p196
I32
sS'dryinn'
p197
I32
sS'hoe'
p198
I30
sS'awkward'
p199
I31
sS'means'
p200
I32
sS'makes'
p201
I32
sS'how'
p202
I30
sS'sunday'
p203
I32
sS'gato'
p204
I32
sS'21:38:09.0,33.9807216,-118.2058626,5332.01,why'
p205
I32
sS'answer'
p206
I32
sS'instead'
p207
I32
sS'pizza'
p208
I32
sS'map'
p209
I32
sS'okay'
p210
I32
sS'tried'
p211
I32
sS'tattoo'
p212
I32
sS'bday'
p213
I32
sS'-tfios'
p214
I32
sS'long'
p215
I32
sS'lmfaoo'
p216
I32
sS'birthday'
p217
I27
sS'mad'
p218
I30
sS'coming'
p219
I32
sS'hahahaha'
p220
I32
sS'such'
p221
I31
sS'suck'
p222
I30
sS'law'
p223
I32
sS'guys'
p224
I32
sS'las'
p225
I32
sS'a'
p226
I6
sS'remember'
p227
I32
sS'croissant'
p228
I32
sS'rollin'
p229
I32
sS'q'
p230
I32
sS'gaiam'
p231
I32
sS'so'
p232
I14
sS'goodbye'
p233
I32
sS'pay'
p234
I32
sS'dream'
p235
I31
sS'sf'
p236
I32
sS'talk'
p237
I28
sS"that's"
p238
I30
sS'cute'
p239
I31
sS'six'
p240
I32
sS"don't"
p241
I26
sS'some1'
p242
I32
sS'over'
p243
I30
sS'installed'
p244
I32
sS'attitude'
p245
I32
sS'through'
p246
I31
sS'committee'
p247
I31
sS'shake'
p248
I32
sS'hell'
p249
I32
sS'cold'
p250
I32
sS'still'
p251
I28
sS'bubbles'
p252
I32
sS'18:05:43.0,33.9804742,-118.209955,5332.01,just'
p253
I32
sS'bunch'
p254
I32
sS'perfect'
p255
I31
sS'25'
p256
I32
sS'0.62mi'
p257
I32
sS'20'
p258
I32
sS'thank'
p259
I31
sS'fit'
p260
I31
sS"he's"
p261
I30
sS'personal'
p262
I32
sS'continued'
p263
I32
sS'trying'
p264
I32
sS'walnut'
p265
I32
sS'better'
p266
I31
sS'tyrone'
p267
I32
sS'willing'
p268
I32
sS'ruby'
p269
I32
sS'mail'
p270
I31
sS'bye'
p271
I32
sS'movie,90255\n'
p272
I32
sS"haven't"
p273
I32
sS'happened'
p274
I30
sS'dad'
p275
I32
sS'then'
p276
I31
sS'them'
p277
I29
sS'someone'
p278
I28
sS'it*'
p279
I32
sS'than'
p280
I27
sS'food'
p281
I32
sS'downs'
p282
I32
sS'woked'
p283
I32
sS'underneath'
p284
I32
sS'lunch'
p285
I32
sS'srsly'
p286
I32
sS'starbucks'
p287
I32
sS'they'
p288
I31
sS'half'
p289
I31
sS'not'
p290
I24
sS'now'
p291
I20
sS'day'
p292
I30
sS'iced'
p293
I32
sS'damian'
p294
I32
sS'name'
p295
I31
sS'lettuce'
p296
I32
sS'always'
p297
I31
sS'tiered\xe2\x80\x9d'
p298
I32
sS'chuck'
p299
I32
sS'tear'
p300
I32
sS'magnitude'
p301
I32
sS'bowling'
p302
I26
sS'found'
p303
I32
sS'went'
p304
I32
sS'bills'
p305
I32
sS"ya'll"
p306
I31
sS"isn't"
p307
I32
sS'luck'
p308
I31
sS'tfti\xe2\x80\x9d'
p309
I32
sS'lowkey'
p310
I32
sS'$100'
p311
I32
sS'house'
p312
I29
sS'hard'
p313
I29
sS'yeah'
p314
I30
sS'celebrating'
p315
I32
sS'taught'
p316
I32
sS'dubstep'
p317
I32
sS'connect'
p318
I32
sS'forgot'
p319
I29
sS'our'
p320
I29
sS'huntington'
p321
I31
sS'calling'
p322
I31
sS'21:47:37.0,33.9805451,-118.2099134,5332.01,just'
p323
I32
sS'out'
p324
I23
sS'rt'
p325
I31
sS'try'
p326
I31
sS'alcohol'
p327
I32
sS'decision'
p328
I32
sS'gasping!!\xe2\x80\x9d'
p329
I32
sS'god'
p330
I31
sS'surrounded'
p331
I32
sS'forty'
p332
I32
sS'george'
p333
I32
sS'looking'
p334
I30
sS'bae'
p335
I32
sS"shouldn't"
p336
I31
sS'got'
p337
I24
sS'rn'
p338
I32
sS'cause'
p339
I31
sS'piggy'
p340
I32
sS'ass'
p341
I31
sS'shut'
p342
I32
sS'jessica'
p343
I32
sS'cutest'
p344
I32
sS"doesn't"
p345
I32
sS'you..bye"'
p346
I32
sS'friday'
p347
I31
sS'playlist'
p348
I32
sS'm&m'
p349
I32
sS'difficulty'
p350
I32
sS'reason'
p351
I32
sS'que'
p352
I30
sS'disneyland'
p353
I32
sS'vieja'
p354
I32
sS'imagine'
p355
I32
sS'wanted'
p356
I32
sS'pothead'
p357
I32
sS'craving'
p358
I31
sS'card'
p359
I32
sS'care'
p360
I32
sS'training'
p361
I31
sS'ate'
p362
I31
sS',90255\n470636952187068416,thatnigma,2014-05-25'
p363
I32
sS'waiter'
p364
I32
sS'steal'
p365
I32
sS'could'
p366
I31
sS'5...i'
p367
I32
sS'angi'
p368
I31
sS'keep'
p369
I30
sS'butterflies'
p370
I32
sS'choices'
p371
I32
sS'place'
p372
I32
sS'hollister'
p373
I32
sS'think'
p374
I32
sS'first'
p375
I28
sS'cheese'
p376
I32
sS'already'
p377
I32
sS'dont'
p378
I29
sS'feel'
p379
I30
sS"tomorrow's"
p380
I32
sS'one'
p381
I26
sS'wash'
p382
I32
sS'done'
p383
I32
sS'bitch'
p384
I30
sS'uribe'
p385
I32
sS'custom'
p386
I32
sS'miss'
p387
I32
sS'tomorrow'
p388
I30
sS"you're"
p389
I29
sS'little'
p390
I31
sS'fk'
p391
I32
sS'min.,90255\n446332737771671554,steveelaine333,2014-03-19'
p392
I32
sS'spinach'
p393
I32
sS'girls'
p394
I27
sS'anyone'
p395
I32
sS'their'
p396
I30
sS'fml'
p397
I31
sS'2'
p398
I27
sS'california'
p399
I32
sS'too'
p400
I24
sS'dumbass'
p401
I32
sS'man'
p402
I32
sS'williams'
p403
I32
sS'headache'
p404
I31
sS'stars'
p405
I32
sS'that'
p406
I18
sS'gym'
p407
I31
sS'park'
p408
I28
sS'biggest'
p409
I32
sS'hurt'
p410
I32
sS'part'
p411
I32
sS'yaas'
p412
I32
sS'nahh'
p413
I32
sS'loving'
p414
I32
sS'believe'
p415
I32
sS'holder'
p416
I32
sS"mel's"
p417
I30
sS'now...lol'
p418
I32
sS'kongos'
p419
I32
sS'wide'
p420
I32
sS'kind'
p421
I31
sS'b'
p422
I31
sS'15'
p423
I32
sS'lmao'
p424
I29
sS'i\xe2\x80\x99ll'
p425
I32
sS'gotta'
p426
I30
sS'now\xe2\x80\xbc\xef\xb8\x8f'
p427
I32
sS'bed'
p428
I32
sS'minimize'
p429
I32
sS'r'
p430
I32
sS'maybe'
p431
I32
sS'asleep'
p432
I32
sS'gives'
p433
I31
sS'bet'
p434
I32
sS'and'
p435
I9
sS'fashion'
p436
I32
sS'outta'
p437
I32
sS'ran'
p438
I32
sS'mind'
p439
I32
sS'alley'
p440
I32
sS'tonight'
p441
I32
sS'talking'
p442
I30
sS'say'
p443
I31
sS'261'
p444
I32
sS'loko'
p445
I32
sS'have'
p446
I19
sS'need'
p447
I32
sS'sick'
p448
I32
sS'saw'
p449
I31
sS'misspell'
p450
I32
sS'tho'
p451
I30
sS'min'
p452
I31
sS'lil'
p453
I32
sS'-'
p454
I28
sS'ideas'
p455
I32
sS'note'
p456
I32
sS'matthew'
p457
I32
sS'hookah'
p458
I32
sS'take'
p459
I30
sS'babes'
p460
I32
sS'neveah'
p461
I32
sS'many'
p462
I32
sS'princess'
p463
I32
sS'sure'
p464
I31
sS'though'
p465
I31
sS'huh'
p466
I31
sS'who'
p467
I26
sS'teddddybear69'
p468
I32
sS'nothing'
p469
I32
sS'why'
p470
I28
sS'\xe2\x9b\x94'
p471
I30
sS'forever'
p472
I32
sS'soon\xe2\x98\xba'
p473
I32
sS'bree'
p474
I32
sS'later'
p475
I32
sS'stronger'
p476
I31
sS'dog'
p477
I32
sS'charpies'
p478
I32
sS'wealthy""dont'
p479
I32
sS"you'll"
p480
I31
sS'cork'
p481
I32
sS'left'
p482
I30
sS"takin'"
p483
I32
sS'came'
p484
I29
sS'saying'
p485
I31
sS'\xe2\x9c\xa8'
p486
I32
sS'show'
p487
I32
sS'text'
p488
I32
sS'g\xc3\xbcera'
p489
I32
sS'bimbo'
p490
I32
sS'pops'
p491
I32
sS'find'
p492
I31
sS'aint'
p493
I32
sS'toooy'
p494
I32
sS'\xe2\x9c\x89'
p495
I32
sS'pinche'
p496
I32
sS'16:42:08.0,33.9805418,-118.2099127,5332.01,what'
p497
I32
sS'situations'
p498
I32
sS'dick'
p499
I32
sS'state'
p500
I32
sS'should'
p501
I31
sS'only'
p502
I31
sS'going'
p503
I26
sS'black'
p504
I32
sS'hockey'
p505
I32
sS'pretty'
p506
I31
sS'money'
p507
I32
sS'8'
p508
I32
sS'gutterballs'
p509
I32
sS'hope'
p510
I31
sS'personality'
p511
I31
sS'do'
p512
I24
sS'his'
p513
I32
sS'hit'
p514
I31
sS'get'
p515
I27
sS'dope'
p516
I32
sS'watch'
p517
I32
sS'lucky'
p518
I32
sS'tbh'
p519
I32
sS'ones'
p520
I32
sS'words'
p521
I31
sS'reply'
p522
I32
sS',90255\n427271522261012484,emserzznicole,2014-01-26'
p523
I32
sS'years'
p524
I32
sS'him'
p525
I30
sS'ghetto'
p526
I32
sS'earl'
p527
I32
sS'bar'
p528
I32
sS'showed'
p529
I32
sS'girl'
p530
I32
sS'primo'
p531
I31
sS'rapper'
p532
I32
sS'morning'
p533
I31
sS'bad'
p534
I29
sS'stupid'
p535
I30
sS'she'
p536
I29
sS"won't"
p537
I32
sS"grandma's"
p538
I32
sS'where'
p539
I30
sS'thumbs'
p540
I32
sS"y'all"
p541
I32
sS'23:46:58.0,33.9805126,-118.2099372,5332.01,training'
p542
I32
sS'fair'
p543
I32
sS'liquor'
p544
I32
sS'keyboard'
p545
I32
sS'lazy'
p546
I32
sS"hasn't"
p547
I32
sS'see'
p548
I31
sS'sec'
p549
I32
sS'are'
p550
I23
sS'hoes'
p551
I32
sS'close'
p552
I32
sS'best'
p553
I31
sS'wonder'
p554
I32
sS'luv'
p555
I32
sS'puertas'
p556
I32
sS'orrrr'
p557
I32
sS'please'
p558
I32
sS'...love'
p559
I32
sS'slapped'
p560
I32
sS'its'
p561
I32
sS'gage'
p562
I24
sS'3'
p563
I31
sS"there's"
p564
I32
sS'time\xe2\x80\x9d'
p565
I32
sS'dre'
p566
I32
sS'reading'
p567
I32
sS'bought'
p568
I32
sS'bummed'
p569
I32
sS'we'
p570
I18
sS'omg'
p571
I31
sS'fearless'
p572
I32
sS'faded'
p573
I32
sS'boss'
p574
I32
sS'job'
p575
I32
sS'wtf'
p576
I30
sS'jk'
p577
I32
sS'come'
p578
I30
sS'salsas'
p579
I32
sS'idfwuuuuuuuu'
p580
I32
sS'tfti'
p581
I32
sS'last'
p582
I30
sS'fault'
p583
I31
sS'ill'
p584
I32
sS'uncertainty'
p585
I32
sS"carmine's"
p586
I32
sS'tour'
p587
I32
sS'pl'
p588
I32
sS'games'
p589
I32
sS'update'
p590
I32
sS'mani'
p591
I32
sS'mocosa'
p592
I32
sS"can't"
p593
I29
sS'ily'
p594
I31
sS'1.4'
p595
I32
sS'cakes'
p596
I32
sS"everyone's"
p597
I32
sS'como'
p598
I32
sS'drunk'
p599
I31
sS'josh'
p600
I31
sS'tuesday'
p601
I31
sS'niece\xe2\x9d\xa4\xef\xb8\x8f'
p602
I32
sS'2nd'
p603
I32
sS'hungryyyy'
p604
I32
sS'laugh'
p605
I32
sS'church'
p606
I32
sS'table'
p607
I32
sS'headaches'
p608
I32
sS'turkey'
p609
I32
sS'late'
p610
I32
sS'protective'
p611
I32
sS'yay'
p612
I32
sS'teddy'
p613
I31
sS"it's"
p614
I24
sS'three'
p615
I32
sS'been'
p616
I27
sS'earthquake'
p617
I32
sS'hitting'
p618
I30
sS'beer'
p619
I28
sS'much'
p620
I28
sS'damn'
p621
I31
sS'cosgrove'
p622
I32
sS'(huntington'
p623
I32
sS'living'
p624
I32
sS'meeting'
p625
I31
sS'woke'
p626
I31
sS'schoolboy'
p627
I32
sS'life'
p628
I29
sS'lived'
p629
I32
sS'crying'
p630
I32
sS'cop'
p631
I32
sS'fire'
p632
I32
sS"what's"
p633
I32
sS'else'
p634
I32
sS'tbh"'
p635
I32
sS'craft'
p636
I32
sS'wake'
p637
I30
sS'spin'
p638
I32
sS'those'
p639
I31
sS'chill'
p640
I32
sS'case'
p641
I32
sS'save'
p642
I32
sS'look'
p643
I31
sS'these'
p644
I31
sS'straight'
p645
I31
sS'convo'
p646
I32
sS'cash'
p647
I32
sS'duhhh'
p648
I32
sS'promotes'
p649
I32
sS'will'
p650
I30
sS'tiered'
p651
I32
sS'safely'
p652
I32
sS'hahaha'
p653
I31
sS'fun'
p654
I32
sS'robin'
p655
I32
sS'pack'
p656
I32
sS'ive'
p657
I32
sS',90255\n506281237887983616,thatguytonyy,2014-09-01'
p658
I32
sS'barely'
p659
I32
sS'played'
p660
I32
sS'almost'
p661
I32
sS'37'
p662
I32
sS'is'
p663
I13
sS'sushi'
p664
I32
sS'awaits'
p665
I32
sS'coffee'
p666
I31
sS'ducks'
p667
I32
sS'cant'
p668
I32
sS'good'
p669
I28
sS'im'
p670
I28
sS'35'
p671
I32
sS'in'
p672
I13
sS'somebody'
p673
I32
sS'ridicula'
p674
I32
sS'worry'
p675
I31
sS'if'
p676
I27
sS'funny'
p677
I30
sS'different'
p678
I32
sS'annoying'
p679
I32
sS'anymore'
p680
I31
sS'things'
p681
I31
sS'make'
p682
I30
sS'bowl'
p683
I25
sS'same'
p684
I29
sS'enfadosa'
p685
I32
sS'member'
p686
I32
sS'moms'
p687
I32
sS'party'
p688
I31
sS'gets'
p689
I32
sS'couple'
p690
I32
sS'week'
p691
I32
sS'outside'
p692
I32
sS'emotionally'
p693
I32
sS'face,90255\n506289182268878848,thatguytonyy,2014-09-01'
p694
I32
sS'earphones'
p695
I32
sS'driver'
p696
I32
sS'yesterday'
p697
I32
sS'persmission'
p698
I32
sS'fucken'
p699
I32
sS'02:47:23.0,33.98094529,-118.20664877,5332.01,wishing'
p700
I32
sS'caso'
p701
I32
sS'//'
p702
I32
sS'off'
p703
I29
sS'dying'
p704
I32
sS'i'
p705
I2
sS'urgency'
p706
I32
sS'usual'
p707
I32
sS'well'
p708
I31
sS'spent'
p709
I32
sS'object'
p710
I32
sS',90255\n472436361631260673,thatnigma,2014-05-30'
p711
I32
sS'thought'
p712
I31
sS'person'
p713
I30
sS'without'
p714
I32
sS'comes'
p715
I32
sS'bottle'
p716
I32
sS'y'
p717
I32
sS'15:44:31.0,33.9804654,-118.209907,5332.01,get'
p718
I32
sS'the'
p719
I4
sS'she\xe2\x80\x99s'
p720
I31
sS'summer'
p721
I30
sS'onda'
p722
I32
sS'\xe2\x98\xba\xef\xb8\x8f'
p723
I28
sS'just'
p724
I12
sS'lagg'
p725
I32
sS'being'
p726
I32
sS'able'
p727
I32
sS'posole'
p728
I32
sS'sleepy'
p729
I32
sS'front'
p730
I32
sS"i'mma"
p731
I32
sS'thanks'
p732
I31
sS'yes'
p733
I31
sS'yet'
p734
I32
sS"could've"
p735
I32
sS'blow'
p736
I32
sS'quiero'
p737
I32
sS'sister\xe2\x9c\x8c\xef\xb8\x8f'
p738
I32
sS'cup'
p739
I32
sS'common'
p740
I32
sS"we've"
p741
I32
sS'tired*'
p742
I32
sS'point'
p743
I32
sS'had'
p744
I28
sS'cuz'
p745
I32
sS'killed'
p746
I32
sS'n'
p747
I32
sS'chugged'
p748
I32
sS'samples'
p749
I32
sS'homies'
p750
I32
sS'has'
p751
I29
sS'excited'
p752
I31
sS'details'
p753
I32
sS'swim'
p754
I32
sS'maya'
p755
I32
sS"well.....let's"
p756
I32
sS'read'
p757
I31
sS'big'
p758
I32
sS'hotbox'
p759
I32
sS'possible'
p760
I31
sS'gonna'
p761
I30
sS'early'
p762
I31
sS'game'
p763
I31
sS'traffic'
p764
I32
sS'know'
p765
I26
sS'mom'
p766
I31
sS'taking'
p767
I32
sS'morning!,90255\n440929371613040640,steveelaine333,2014-03-04'
p768
I32
sS'irreplaceable'
p769
I32
sS'rumor'
p770
I32
sS'mod'
p771
I32
sS'did...but'
p772
I32
sS'bro'
p773
I32
sS'like'
p774
I24
sS'lost'
p775
I30
sS'pounds'
p776
I32
sS'cool'
p777
I32
sS"she's"
p778
I32
sS'ignore'
p779
I32
sS'true'
p780
I32
sS'cx'
p781
I32
sS'unstable'
p782
I32
sS'either'
p783
I32
sS'night'
p784
I27
sS'amor'
p785
I32
sS'chingados'
p786
I32
sS'nice'
p787
I32
sS'page'
p788
I32
sS'lilias'
p789
I32
sS'jacket...tf'
p790
I32
sS'right'
p791
I24
sS'partying'
p792
I32
sS'ufc'
p793
I32
sS'people'
p794
I32
sS'fucking'
p795
I28
sS'twitter'
p796
I32
sS'some'
p797
I25
sS'back'
p798
I30
sS'hair'
p799
I31
sS'brian'
p800
I32
sS'clubs'
p801
I32
sS'choosing'
p802
I32
sS'respect'
p803
I32
sS'home'
p804
I25
sS'brothers'
p805
I32
sS'gross'
p806
I32
sS'outs'
p807
I32
sS'mood'
p808
I32
sS'for'
p809
I16
sS'literally'
p810
I32
sS'outz'
p811
I32
sS'ice'
p812
I32
sS'yaaassssss'
p813
I32
sS'recalentados'
p814
I32
sS'prom'
p815
I32
sS'continue'
p816
I32
sS'pee'
p817
I32
sS'foo'
p818
I32
sS'*we'
p819
I32
sS'be'
p820
I25
sS'blowing'
p821
I32
sS'eating'
p822
I32
sS"benji's"
p823
I32
sS'business'
p824
I32
sS'lmfao'
p825
I25
sS'each'
p826
I32
sS'forever*'
p827
I32
sS'17:09:51.0,33.9804752,-118.2099014,5332.01,my'
p828
I32
sS'become'
p829
I32
sS'losing'
p830
I32
sS'lol,90255\n447036037202604032,steveelaine333,2014-03-21'
p831
I32
sS'super'
p832
I31
sS'by'
p833
I31
sS'hyna'
p834
I32
sS'shine'
p835
I32
sS'on'
p836
I23
sS'about'
p837
I30
sS'ok'
p838
I29
sS'oh'
p839
I31
sS'of'
p840
I10
sS'industry'
p841
I32
sS'cares'
p842
I32
sS'favorite'
p843
I32
sS'swear'
p844
I32
sS'forgave'
p845
I32
sS'act'
p846
I32
sS'mean'
p847
I32
sS'wanna'
p848
I31
sS'or'
p849
I29
sS',90255\n523951261499281408,ohiget_it,2014-10-19'
p850
I32
sS'licensed'
p851
I32
sS'lied'
p852
I32
sS'twitcon'
p853
I32
sS'into'
p854
I32
sS'miranda'
p855
I32
sS'year'
p856
I32
sS'blessed'
p857
I32
sS'son'
p858
I32
sS'down'
p859
I29
sS'nigga'
p860
I31
sS'raises'
p861
I32
sS'sized'
p862
I32
sS'*blocks'
p863
I32
sS'springs'
p864
I32
sS'your'
p865
I22
sS'her'
p866
I29
sS'few'
p867
I32
sS'weekend'
p868
I29
sS'duuuuuumb'
p869
I32
sS'there'
p870
I28
sS'ca)'
p871
I32
sS'lol'
p872
I9
sS'fight'
p873
I31
sS'cats'
p874
I32
sS'marci'
p875
I32
sS'pool'
p876
I32
sS'way'
p877
I28
sS'gfs'
p878
I32
sS'forward'
p879
I32
sS'yrs'
p880
I32
sS'was'
p881
I26
sS'm_payes'
p882
I32
sS'happy'
p883
I30
sS'eachother'
p884
I32
sS'bby'
p885
I32
sS"i've"
p886
I32
sS'bitches'
p887
I30
sS'but'
p888
I22
sS'starbucksss'
p889
I32
sS'hi'
p890
I32
sS"dreamin'"
p891
I32
sS'club\xc2\xae'
p892
I32
sS'costco'
p893
I31
sS'with'
p894
I15
sS'eat'
p895
I31
sS'he'
p896
I32
sS'info'
p897
I32
sS"they're"
p898
I32
sS'congratulations'
p899
I32
sS'made'
p900
I30
sS'bored'
p901
I32
sS'happen'
p902
I32
sS'bearly'
p903
I32
sS"wasn't"
p904
I29
sS'wish'
p905
I31
sS'inside'
p906
I32
sS'up'
p907
I18
sS'us'
p908
I28
sS'until'
p909
I32
sS'record'
p910
I32
sS'r.i.p'
p911
I32
sS'500'
p912
I32
sS'(cont)'
p913
I32
sS'again'
p914
I32
sS'problem'
p915
I32
sS'>'
p916
I32
sS'called'
p917
I32
sS'replying'
p918
I32
sS'ganna'
p919
I32
sS'af'
p920
I30
sS'ko'
p921
I32
sS'escape'
p922
I32
sS"you've"
p923
I32
sS'an'
p924
I31
sS'as'
p925
I28
sS'at'
p926
I19
sS'curious'
p927
I32
sS'ay'
p928
I32
sS'face'
p929
I32
sS'check'
p930
I31
sS'shit'
p931
I27
sS'danielle'
p932
I32
sS'impatient'
p933
I32
sS'paisa'
p934
I32
sS'48'
p935
I32
sS'no'
p936
I23
sS'randolph'
p937
I32
sS'gutterball'
p938
I32
sS'est\xc3\xa1s'
p939
I32
sS'when'
p940
I23
sS'reality'
p941
I32
sS'til'
p942
I32
sS'started'
p943
I32
sS'book'
p944
I32
sS'5'
p945
I30
sS"mom's"
p946
I32
sS'tits'
p947
I32
sS'you'
p948
I5
sS'really'
p949
I27
sS'thousand'
p950
I32
sS':(,90255\n506289159003062272,thatguytonyy,2014-09-01'
p951
I32
sS'...,90255\n454681715273764865,steveelaine333,2014-04-11'
p952
I32
sS'la'
p953
I32
sS'hey'
p954
I32
sS'gel'
p955
I32
sS'17:56:20.0,33.9797383,-118.2024786,5332.01,that'
p956
I32
sS'class'
p957
I32
sS'm'
p958
I32
sS'stay'
p959
I31
sS'chance'
p960
I32
sS'djvkdknvjdgkkbbf'
p961
I32
sS'booboo'
p962
I32
sS'serious'
p963
I32
sS'chocolate'
p964
I32
sS'friends'
p965
I31
sS'mames'
p966
I32
sS'ago'
p967
I32
sS'miles'
p968
I32
sS'e'
p969
I31
sS'calls'
p970
I32
sS'landed'
p971
I32
sS'walked'
p972
I32
sS'calle'
p973
I32
sS'girl!\xe2\x9d\xa4\xef\xb8\x8f'
p974
I32
sS'u'
p975
I22
sS'fact'
p976
I32
sS'time'
p977
I31
sS'awake'
p978
I32
sS'having'
p979
I32
s.