(dp0
S''
p1
I1
sS'edc'
p2
I48
sS'all'
p3
I38
sS'coach'
p4
I48
sS':('
p5
I46
sS'forget'
p6
I17
sS'after.\xe2\x80\x9d'
p7
I48
sS'jovana'
p8
I48
sS'results'
p9
I48
sS'diss'
p10
I48
sS'sleep'
p11
I40
sS'/'
p12
I48
sS'hanging'
p13
I47
sS'cameron'
p14
I37
sS'follow'
p15
I10
sS'gm'
p16
I47
sS'hate'
p17
I44
sS'milk'
p18
I48
sS':)'
p19
I46
sS'21st'
p20
I48
sS'marcos'
p21
I48
sS'digger'
p22
I48
sS'tweet'
p23
I39
sS'flash'
p24
I48
sS'father'
p25
I48
sS'send'
p26
I48
sS'to'
p27
I2
sS'finally'
p28
I40
sS'does'
p29
I48
sS'lap'
p30
I48
sS'smile'
p31
I45
sS'sorry'
p32
I47
sS'te'
p33
I48
sS'tb'
p34
I48
sS'ilysm'
p35
I47
sS'shoot'
p36
I48
sS'woman'
p37
I48
sS'far'
p38
I47
sS'fat'
p39
I48
sS'af\xe2\x80\x9d'
p40
I48
sS'selfies'
p41
I48
sS'includinand'
p42
I48
sS'every'
p43
I48
sS'jack'
p44
I48
sS'one."'
p45
I48
sS'fab'
p46
I48
sS'trouble'
p47
I48
sS'blast'
p48
I48
sS'poppa'
p49
I48
sS'school'
p50
I42
sS'did'
p51
I46
sS'die'
p52
I47
sS'gun'
p53
I48
sS'try'
p54
I44
sS'team'
p55
I47
sS'small'
p56
I47
sS'guy'
p57
I46
sS'heading'
p58
I48
sS'bonfire'
p59
I48
sS"i'll"
p60
I44
sS'aventura'
p61
I48
sS'"all'
p62
I48
sS'tired'
p63
I48
sS'trend'
p64
I48
sS'dealing'
p65
I48
sS'wrestling'
p66
I47
sS'go'
p67
I9
sS'second'
p68
I48
sS'louder'
p69
I48
sS'video'
p70
I12
sS'gn'
p71
I46
sS'transformers'
p72
I48
sS'goodnight\xe2\x80\x9d'
p73
I48
sS'positivity'
p74
I48
sS'depression'
p75
I48
sS'even'
p76
I41
sS'pleeeaaaassseeeeeee'
p77
I48
sS'what'
p78
I36
sS'elton'
p79
I47
sS'movies'
p80
I48
sS'giving'
p81
I44
sS'miggy'
p82
I48
sS'enchiladas'
p83
I48
sS'fucks'
p84
I48
sS'current'
p85
I48
sS'lmfao'
p86
I48
sS'waiting'
p87
I46
sS'sour'
p88
I48
sS'eating'
p89
I48
sS'above'
p90
I48
sS'sup'
p91
I48
sS'new'
p92
I12
sS'falling'
p93
I48
sS'order'
p94
I48
sS'ever'
p95
I40
sS'told'
p96
I48
sS'body'
p97
I48
sS'full'
p98
I48
sS'sure.-you'
p99
I48
sS'shutup(x'
p100
I48
sS'never'
p101
I39
sS'certainly'
p102
I48
sS'here'
p103
I44
sS"laugh.i'm"
p104
I48
sS'water'
p105
I48
sS'\xe2\x9d\xa4\xef\xb8\x8f'
p106
I11
sS'let'
p107
I45
sS'alone'
p108
I47
sS'100'
p109
I48
sS'strong'
p110
I47
sS'wait'
p111
I44
sS'great'
p112
I45
sS'kids'
p113
I46
sS'care\xe2\x80\x9d'
p114
I48
sS'didnt'
p115
I48
sS'k'
p116
I47
sS'proud'
p117
I48
sS'boi'
p118
I48
sS'buss'
p119
I48
sS'smoke'
p120
I48
sS'boo'
p121
I47
sS'action'
p122
I48
sS"i'm"
p123
I24
sS'makes'
p124
I46
sS'career'
p125
I48
sS'love'
p126
I39
sS'family'
p127
I48
sS'heart'
p128
I48
sS'suddenly'
p129
I48
sS'win'
p130
I46
sS'prefer'
p131
I48
sS'highly'
p132
I48
sS'bro'
p133
I45
sS'throat'
p134
I48
sS'verga'
p135
I48
sS'best\xe2\x80\x9d'
p136
I48
sS'stand'
p137
I48
sS'sugar'
p138
I48
sS'brb'
p139
I48
sS'emoji'
p140
I48
sS'yourself'
p141
I48
sS'use'
p142
I48
sS'from'
p143
I48
sS'score'
p144
I48
sS'would'
p145
I39
sS'&'
p146
I33
sS'positive'
p147
I48
sS'mexico'
p148
I48
sS'dude'
p149
I42
sS'idiots'
p150
I48
sS'next'
p151
I46
sS'live'
p152
I47
sS'doubt'
p153
I46
sS'call'
p154
I46
sS'thry'
p155
I48
sS'black'
p156
I48
sS'angels'
p157
I48
sS'tell'
p158
I47
sS'today'
p159
I41
sS'more'
p160
I43
sS'babe'
p161
I47
sS'relax'
p162
I47
sS'afford'
p163
I48
sS'share'
p164
I48
sS'haha'
p165
I44
sS'sister'
p166
I45
sS'hurt'
p167
I43
sS'99'
p168
I48
sS'phone'
p169
I47
sS"ain't"
p170
I44
sS'varsity'
p171
I48
sS'broke'
p172
I47
sS'lord'
p173
I48
sS'baby'
p174
I46
sS'actual'
p175
I48
sS"5'0"
p176
I48
sS'glad'
p177
I48
sS'women'
p178
I48
sS'me'
p179
I7
sS'1000$'
p180
I48
sS'join'
p181
I47
sS'"u'
p182
I48
sS'this'
p183
I32
sS'recall'
p184
I48
sS'ride'
p185
I48
sS'oh'
p186
I48
sS'sucks'
p187
I48
sS'worth'
p188
I48
sS'donut'
p189
I48
sS'cuddle'
p190
I47
sS'can'
p191
I27
sS'cam'
p192
I20
sS'following'
p193
I48
sS'meet'
p194
I46
sS'my'
p195
I17
sS'100%'
p196
I48
sS'complain'
p197
I48
sS'piercings'
p198
I48
sS'beautiful'
p199
I47
sS'stubborn'
p200
I48
sS'give'
p201
I10
sS'meeeeeee'
p202
I48
sS'favorite'
p203
I48
sS'awesome'
p204
I47
sS"didn't"
p205
I46
sS'fuck'
p206
I35
sS'lolol'
p207
I48
sS'his'
p208
I45
sS'something'
p209
I46
sS'want'
p210
I37
sS'times'
p211
I48
sS'hof'
p212
I48
sS'needs'
p213
I47
sS'turn'
p214
I45
sS'rather'
p215
I48
sS'homesss'
p216
I48
sS'1'
p217
I46
sS'how'
p218
I36
sS'amazing'
p219
I45
sS'\xe2\x9a\xbe\xef\xb8\x8f'
p220
I48
sS'\xe2\x9d\xa4\xef\xb8\x8f\xe2\x9d\xa4\xef\xb8\x8f\xe2\x9d\xa4\xef\xb8\x8f'
p221
I48
sS'adventure\xe2\x80\x9d'
p222
I48
sS'now._.\xe2\x80\x9d'
p223
I48
sS'mas'
p224
I48
sS'sandwich'
p225
I48
sS'gtfo'
p226
I46
sS'y'
p227
I48
sS'"never'
p228
I48
sS'bday'
p229
I48
sS'stop'
p230
I46
sS'cuhz'
p231
I48
sS'after'
p232
I47
sS'will!"'
p233
I48
sS'birthday'
p234
I45
sS'mad'
p235
I47
sS'date'
p236
I48
sS'such'
p237
I47
sS'guys'
p238
I37
sS'grow'
p239
I47
sS'man'
p240
I48
sS'a'
p241
I4
sS'purchase'
p242
I48
sS'refuse'
p243
I48
sS'tweeting'
p244
I47
sS'shady'
p245
I48
sS'appreciate'
p246
I48
sS'volleyball'
p247
I48
sS'cigarettes'
p248
I48
sS'si'
p249
I48
sS'ones'
p250
I48
sS'so'
p251
I21
sS'putting'
p252
I48
sS'dream'
p253
I47
sS'playing'
p254
I47
sS'talk'
p255
I42
sS"that's"
p256
I44
sS'cute'
p257
I45
sS'mexican'
p258
I48
sS'help'
p259
I46
sS'burn'
p260
I48
sS"don't"
p261
I23
sS'september'
p262
I48
sS'over'
p263
I45
sS'move'
p264
I48
sS'midnight'
p265
I48
sS'years'
p266
I48
sS'jawwwdenz'
p267
I48
sS'held'
p268
I48
sS'dming'
p269
I48
sS"won't"
p270
I45
sS'looks'
p271
I47
sS'gueyyyyyyy'
p272
I48
sS'still'
p273
I40
sS'its'
p274
I47
sS'cuddle?\xe2\x80\x9d'
p275
I48
sS'accepted'
p276
I48
sS'difference'
p277
I48
sS'matures'
p278
I48
sS'thank'
p279
I47
sS'fit'
p280
I48
sS'la'
p281
I46
sS'somewhere'
p282
I48
sS'nimitz'
p283
I46
sS'winning'
p284
I48
sS'better'
p285
I44
sS'\xe2\x9a\xa0\xef\xb8\x8f\xe2\x9a\xa0\xef\xb8\x8f\xe2\x9a\xa0\xef\xb8\x8f\xe2\x9a\xa0\xef\xb8\x8f\xe2\x9a\xa0\xef\xb8\x8f'
p286
I48
sS'tweets'
p287
I45
sS'bye'
p288
I48
sS'might'
p289
I48
sS'dad'
p290
I48
sS'then'
p291
I43
sS'them'
p292
I43
sS'good'
p293
I38
sS'motivated'
p294
I48
sS'ya'
p295
I48
sS'nada'
p296
I48
sS'camaron'
p297
I48
sS"we'll"
p298
I48
sS'woked'
p299
I47
sS'dat'
p300
I46
sS'answer'
p301
I48
sS'hurting'
p302
I48
sS'they'
p303
I40
sS'instead'
p304
I48
sS'not'
p305
I33
sS'thus'
p306
I48
sS'now'
p307
I32
sS'day'
p308
I33
sS'wont'
p309
I47
sS'pregnant'
p310
I48
sS'always'
p311
I45
sS'drop'
p312
I48
sS'careless'
p313
I48
sS'sweatshirt'
p314
I48
sS'truth'
p315
I48
sS'each'
p316
I48
sS'found'
p317
I47
sS'went'
p318
I48
sS'side'
p319
I48
sS'mean'
p320
I42
sS'lifted'
p321
I48
sS'everyone'
p322
I16
sS'lowkey'
p323
I48
sS'doing'
p324
I45
sS'between'
p325
I48
sS'yeah'
p326
I45
sS'disappointing'
p327
I48
sS'catching'
p328
I48
sS'year'
p329
I46
sS'okay'
p330
I48
sS'girl'
p331
I47
sS'calling'
p332
I48
sS'es'
p333
I48
sS'out'
p334
I12
sS'leave'
p335
I46
sS'trending'
p336
I48
sS'childish'
p337
I48
sS'since'
p338
I46
sS'la\xe2\x80\x9d'
p339
I48
sS'may'
p340
I48
sS'seriously'
p341
I47
sS'miles'
p342
I48
sS'cobb'
p343
I48
sS'got'
p344
I40
sS'rn'
p345
I48
sS'idiot'
p346
I48
sS'sliding'
p347
I48
sS'honest\xe2\x80\x9d'
p348
I48
sS'ass'
p349
I45
sS'shut'
p350
I48
sS'earlier'
p351
I48
sS'pathetic'
p352
I48
sS"you're"
p353
I48
sS'ear'
p354
I48
sS'million'
p355
I48
sS'little'
p356
I41
sS'quick'
p357
I48
sS'reason'
p358
I48
sS'hoodie'
p359
I46
sS'ask'
p360
I46
sS'meeee'
p361
I48
sS'craving'
p362
I47
sS'card'
p363
I48
sS'care'
p364
I46
sS'mvp'
p365
I48
sS'year."'
p366
I48
sS'underwear'
p367
I48
sS'tix'
p368
I48
sS'benefits'
p369
I48
sS'yup'
p370
I47
sS'could'
p371
I44
sS'needing'
p372
I48
sS'days'
p373
I46
sS'keep'
p374
I45
sS'la....\xe2\x80\x9dthen'
p375
I48
sS'thing'
p376
I47
sS'4th'
p377
I48
sS'place'
p378
I48
sS'hopeless'
p379
I48
sS'laundry'
p380
I48
sS'2.3m'
p381
I48
sS'loud'
p382
I47
sS'think'
p383
I41
sS'fuckin'
p384
I48
sS'first'
p385
I43
sS'sleepless'
p386
I48
sS'already'
p387
I40
sS'ayyyyyy'
p388
I48
sS'dont'
p389
I17
sS'champs'
p390
I48
sS'feel'
p391
I45
sS'toeing'
p392
I48
sS'preseason'
p393
I48
sS'welcome'
p394
I48
sS'one'
p395
I38
sS'fucked'
p396
I48
sS'bitch'
p397
I43
sS'another'
p398
I48
sS'type'
p399
I48
sS'vote'
p400
I48
sS'chubby'
p401
I48
sS'miss'
p402
I45
sS'tomorrow'
p403
I47
sS"doesn't"
p404
I44
sS'guess'
p405
I45
sS'basketball'
p406
I48
sS'(:\xe2\x80\x9d'
p407
I47
sS'top'
p408
I47
sS'girls'
p409
I43
sS'least'
p410
I47
sS'anyone'
p411
I48
sS'divertida'
p412
I48
sS'2'
p413
I47
sS'dumbass'
p414
I48
sS'too'
p415
I39
sS'passed'
p416
I47
sS'lol'
p417
I32
sS'friend'
p418
I44
sS'eyes'
p419
I47
sS'hug'
p420
I48
sS'stomach'
p421
I48
sS'way'
p422
I45
sS'that'
p423
I28
sS'season'
p424
I48
sS'gym'
p425
I48
sS'exactly'
p426
I48
sS'park'
p427
I48
sS'appreciation'
p428
I47
sS'part'
p429
I46
sS'because'
p430
I45
sS'butt'
p431
I48
sS'july'
p432
I48
sS'believe'
p433
I45
sS'than'
p434
I45
sS'john'
p435
I48
sS'compliments'
p436
I48
sS'lmao'
p437
I47
sS'18'
p438
I48
sS'gotta'
p439
I48
sS'goodnight'
p440
I40
sS'non-stop'
p441
I48
sS'merch'
p442
I48
sS'matter'
p443
I48
sS'r'
p444
I47
sS'"pelicans"'
p445
I48
sS'loves'
p446
I48
sS'maybe'
p447
I44
sS'college'
p448
I48
sS'riddance'
p449
I48
sS'feeling'
p450
I47
sS'anyways'
p451
I48
sS'and'
p452
I19
sS'mini'
p453
I48
sS'phat'
p454
I48
sS'outta'
p455
I48
sS'mine'
p456
I48
sS'huele'
p457
I48
sS'sad'
p458
I47
sS'woah'
p459
I48
sS'say'
p460
I45
sS'contest'
p461
I48
sS'have'
p462
I28
sS'lurking'
p463
I47
sS'need'
p464
I38
sS'seen'
p465
I48
sS'sounding'
p466
I48
sS'saw'
p467
I47
sS'any'
p468
I48
sS'vulnerable'
p469
I48
sS'lie'
p470
I48
sS'nights'
p471
I48
sS'dallas'
p472
I44
sS'studying'
p473
I48
sS'-'
p474
I47
sS'literally'
p475
I48
sS'0/5'
p476
I48
sS'also'
p477
I47
sS'late."'
p478
I48
sS'square'
p479
I48
sS'take'
p480
I43
sS'which'
p481
I47
sS'paintballing'
p482
I48
sS'reals'
p483
I48
sS'2.4'
p484
I48
sS'chill'
p485
I48
sS'you\xe2\x80\x9d'
p486
I48
sS'cameron""shut'
p487
I48
sS'play'
p488
I47
sS'sure'
p489
I48
sS'pain'
p490
I46
sS'combat'
p491
I48
sS'though'
p492
I47
sS'share/tweet'
p493
I48
sS'who'
p494
I41
sS'betrayal'
p495
I48
sS'most'
p496
I46
sS'olds'
p497
I48
sS'girlfriends'
p498
I48
sS'nothing'
p499
I48
sS'why'
p500
I36
sS'yummy!!tacos'
p501
I48
sS'5-7'
p502
I48
sS'anxiety.\xe2\x80\x9d'
p503
I48
sS'later'
p504
I46
sS'dog'
p505
I48
sS'face'
p506
I47
sS"you'll"
p507
I48
sS'definitely'
p508
I48
sS'chilliest'
p509
I48
sS'chester'
p510
I48
sS'different.\xe2\x80\x9d'
p511
I48
sS'kvibgdahblmcatjvlksug'
p512
I48
sS'latest'
p513
I48
sS'scream'
p514
I47
sS'fact'
p515
I47
sS'wild'
p516
I48
sS'bomb'
p517
I48
sS'gold'
p518
I48
sS'show'
p519
I45
sS'"torro"'
p520
I48
sS'tequila'
p521
I48
sS'stfu'
p522
I46
sS'weekly'
p523
I48
sS'rough'
p524
I48
sS'fine'
p525
I48
sS'enjoyed'
p526
I48
sS'busy'
p527
I48
sS'\xe2\x9c\x8b'
p528
I48
sS'\xe2\x9c\x8a'
p529
I48
sS'('
p530
I47
sS'ruin'
p531
I48
sS'3'
p532
I48
sS'bust'
p533
I48
sS'should'
p534
I45
sS'buttons'
p535
I48
sS'yea'
p536
I47
sS'only'
p537
I43
sS'going'
p538
I39
sS'tape'
p539
I48
sS'pretty'
p540
I47
sS'photo'
p541
I48
sS'circle'
p542
I47
sS'\xe2\x99\xa1'
p543
I48
sS"should've"
p544
I48
sS'hope'
p545
I38
sS'carolina'
p546
I48
sS'meant'
p547
I48
sS'do'
p548
I42
sS'dm'
p549
I44
sS'hit'
p550
I48
sS'get'
p551
I25
sS'beat'
p552
I48
sS'petco'
p553
I48
sS'de'
p554
I47
sS'watch'
p555
I37
sS'novelas'
p556
I48
sS'alot\xe2\x80\x9d'
p557
I48
sS'tbh'
p558
I48
sS'feels'
p559
I48
sS'grew'
p560
I48
sS"angels'"
p561
I48
sS"'til"
p562
I48
sS'reply'
p563
I48
sS'dr'
p564
I48
sS'him'
p565
I42
sS'deny'
p566
I48
sS'laptop'
p567
I48
sS'qt'
p568
I47
sS'3hours'
p569
I48
sS'cry'
p570
I47
sS'borrow'
p571
I48
sS'morning'
p572
I47
sS'twice'
p573
I48
sS'bad'
p574
I46
sS'bae'
p575
I36
sS'she'
p576
I45
sS'..or'
p577
I48
sS'where'
p578
I48
sS'snapback'
p579
I48
sS'wrote'
p580
I48
sS'thanks'
p581
I45
sS'set'
p582
I48
sS'qts'
p583
I48
sS'w/'
p584
I48
sS'attached'
p585
I48
sS'national'
p586
I47
sS'we'
p587
I42
sS'difference.\xe2\x80\x9d'
p588
I48
sS'\xe2\x98\x8e\xef\xb8\x8f\xe2\x9d\xa4\xef\xb8\x8f'
p589
I42
sS'see'
p590
I38
sS'dumb'
p591
I47
sS'are'
p592
I37
sS'close'
p593
I48
sS'one-game'
p594
I48
sS'best'
p595
I47
sS'wonder'
p596
I48
sS'said'
p597
I44
sS'shenetiganz...lol'
p598
I48
sS'muted'
p599
I48
sS'movie'
p600
I46
sS'wow'
p601
I48
sS'currently'
p602
I48
sS'please'
p603
I31
sS'shaved'
p604
I48
sS'tend'
p605
I48
sS'enough'
p606
I46
sS"there's"
p607
I47
sS'\xe2\x98\xba\xef\xb8\x8f\xe2\x80\x9d'
p608
I46
sS'hopefully'
p609
I46
sS'probably'
p610
I48
sS'neither'
p611
I48
sS'before'
p612
I48
sS'2.4m'
p613
I48
sS'lyfe'
p614
I48
sS"4'11"
p615
I48
sS'notice'
p616
I34
sS'replaceable'
p617
I48
sS'omg'
p618
I48
sS'bed'
p619
I48
sS'pisses'
p620
I48
sS'\xe2\x9a\xa0\xef\xb8\x8f'
p621
I47
sS'were'
p622
I48
sS'3.1mill'
p623
I48
sS'job'
p624
I47
sS'nahhh'
p625
I48
sS'wtf'
p626
I48
sS'hurts'
p627
I43
sS'wth'
p628
I48
sS'cousin'
p629
I48
sS'come'
p630
I42
sS'secret\xe2\x80\x9d'
p631
I48
sS'pissed'
p632
I48
sS'hours'
p633
I48
sS'hahaha'
p634
I48
sS'last'
p635
I47
sS'missions'
p636
I48
sS'[ding)'
p637
I48
sS'met'
p638
I48
sS'thou'
p639
I47
sS'many'
p640
I45
sS'playoffs'
p641
I48
sS'norbit'
p642
I48
sS'quiet'
p643
I48
sS'mana'
p644
I48
sS'games'
p645
I48
sS'fielder'
p646
I48
sS'focused'
p647
I48
sS'passing'
p648
I48
sS'asked'
p649
I48
sS"can't"
p650
I38
sS'ily'
p651
I41
sS'words'
p652
I48
sS'cancer'
p653
I48
sS'point'
p654
I46
sS'simple'
p655
I48
sS'sweet'
p656
I47
sS'tuesday'
p657
I48
sS'whatever'
p658
I47
sS'nooooo'
p659
I48
sS'active'
p660
I48
sS'surprises\xe2\x80\x9d'
p661
I48
sS'ur'
p662
I48
sS"couldn't"
p663
I47
sS'away'
p664
I48
sS'shadow'
p665
I48
sS'sees'
p666
I48
sS'trust'
p667
I48
sS'consider'
p668
I48
sS'along'
p669
I48
sS'unhappiness'
p670
I48
sS'late'
p671
I48
sS'2497103871990'
p672
I48
sS'naps'
p673
I48
sS'pt'
p674
I48
sS"it's"
p675
I37
sS'tgif'
p676
I48
sS'mature'
p677
I48
sS'been'
p678
I47
sS'jerks'
p679
I48
sS'telemundo'
p680
I48
sS'much'
p681
I35
sS'damn'
p682
I48
sS'bettaaaaaaaa'
p683
I48
sS'expected'
p684
I48
sS'omw'
p685
I48
sS'territory'
p686
I48
sS'threw'
p687
I48
sS'disappointed'
p688
I48
sS'life'
p689
I44
sS'shopping'
p690
I48
sS'wanna'
p691
I48
sS'gay'
p692
I45
sS'both'
p693
I48
sS'with'
p694
I25
sS'sleep\xe2\x80\x9d'
p695
I48
sS"what's"
p696
I48
sS'blessing'
p697
I48
sS'else'
p698
I47
sS'moment'
p699
I48
sS'stabs'
p700
I48
sS"cameron's"
p701
I48
sS'wedding'
p702
I48
sS'ravens'
p703
I48
sS'irrelevant'
p704
I47
sS'those'
p705
I48
sS'honest'
p706
I48
sS'"una'
p707
I48
sS'aaron'
p708
I48
sS'fur'
p709
I48
sS'look'
p710
I46
sS'talking'
p711
I48
sS'these'
p712
I44
sS'tip'
p713
I48
sS'definition'
p714
I48
sS'single'
p715
I47
sS'n'
p716
I48
sS'will'
p717
I27
sS'ugly'
p718
I47
sS'suppose'
p719
I48
sS'fault'
p720
I48
sS'fun'
p721
I47
sS'kissing'
p722
I48
sS'1516'
p723
I48
sS'taking'
p724
I48
sS'played'
p725
I48
sS'almost'
p726
I47
sS'incredible'
p727
I48
sS'is'
p728
I25
sS'coating'
p729
I48
sS'it'
p730
I6
sS'sleeping'
p731
I48
sS'fucken'
p732
I43
sS'middle'
p733
I46
sS'ik'
p734
I48
sS'someone'
p735
I43
sS'im'
p736
I46
sS'said\xe2\x80\x9d'
p737
I48
sS'in'
p738
I25
sS'ready'
p739
I46
sS'whore'
p740
I48
sS'if'
p741
I38
sS'funny'
p742
I47
sS'moves'
p743
I48
sS'verified'
p744
I47
sS'anymore'
p745
I44
sS'credit'
p746
I48
sS'wearing'
p747
I48
sS'make'
p748
I42
sS'0'
p749
I47
sS'same'
p750
I48
sS'anything\xe2\x80\x9d'
p751
I48
sS'speech'
p752
I48
sS'hahah'
p753
I48
sS'puttin'
p754
I48
sS'ruth'
p755
I48
sS'difficult'
p756
I48
sS'independent'
p757
I48
sS'ello'
p758
I48
sS'keys'
p759
I48
sS'drink'
p760
I48
sS'yesterday'
p761
I48
sS'alert'
p762
I48
sS'heartbroken'
p763
I48
sS'running'
p764
I46
sS'hasnt'
p765
I48
sS'cleaning'
p766
I48
sS'jealous'
p767
I48
sS'niggah'
p768
I48
sS'spree'
p769
I48
sS'feelin'
p770
I48
sS'overs'
p771
I48
sS'understand'
p772
I48
sS'kid'
p773
I48
sS'\xe2\x9c\x8c\xef\xb8\x8f'
p774
I45
sS'break'
p775
I47
sS'off'
p776
I48
sS'i'
p777
I3
sS'changes'
p778
I48
sS'congrats'
p779
I48
sS'well'
p780
I47
sS'fighting'
p781
I48
sS'ocean'
p782
I48
sS'thought'
p783
I47
sS'person'
p784
I47
sS'comes'
p785
I48
sS'mother'
p786
I46
sS'very'
p787
I47
sS'the'
p788
I15
sS'tha'
p789
I48
sS'left'
p790
I47
sS'\xe2\x98\xba\xef\xb8\x8f'
p791
I46
sS'just'
p792
I27
sS'less'
p793
I48
sS'being'
p794
I45
sS'money'
p795
I47
sS'unfollow'
p796
I48
sS'half'
p797
I48
sS'sleepy'
p798
I47
sS'rest'
p799
I47
sS'cries'
p800
I48
sS'shape'
p801
I48
sS'kill'
p802
I48
sS'thumbs'
p803
I14
sS'followed'
p804
I46
sS'yes'
p805
I45
sS"dm's"
p806
I46
sS'yet'
p807
I47
sS'happiness'
p808
I47
sS"could've"
p809
I48
sS'letting'
p810
I48
sS'republican'
p811
I48
sS'cry\xe2\x80\x9d'
p812
I48
sS'thinking'
p813
I48
sS'marrying'
p814
I48
sS'drunk'
p815
I48
sS'had'
p816
I46
sS'cuz'
p817
I48
sS'realize'
p818
I47
sS'sleepytown'
p819
I48
sS'4'
p820
I47
sS'crying'
p821
I48
sS'has'
p822
I47
sS'excited'
p823
I45
sS'pasas'
p824
I48
sS'starving'
p825
I48
sS'around'
p826
I48
sS'blowout'
p827
I48
sS'ama'
p828
I48
sS'big'
p829
I46
sS'showing'
p830
I48
sS"who's"
p831
I47
sS'gonna'
p832
I47
sS'"your'
p833
I48
sS'shitty'
p834
I47
sS'game'
p835
I48
sS'know'
p836
I36
sS'listening'
p837
I48
sS'it.\xe2\x80\x9d'
p838
I48
sS'world'
p839
I48
sS'bit'
p840
I47
sS'banda'
p841
I48
sS'*crying*'
p842
I48
sS'dare'
p843
I48
sS'apart'
p844
I47
sS'fleas'
p845
I48
sS'tl'
p846
I48
sS'like'
p847
I30
sS'lost'
p848
I48
sS'follows'
p849
I47
sS'oblivion'
p850
I48
sS'night'
p851
I44
sS'soccer'
p852
I48
sS'nigga'
p853
I46
sS'old'
p854
I48
sS'learning'
p855
I48
sS'people'
p856
I39
sS'fucking'
p857
I47
sS'scared'
p858
I47
sS'some'
p859
I41
sS'back'
p860
I22
sS'mighty'
p861
I48
sS'respect'
p862
I48
sS'home'
p863
I46
sS'thinks'
p864
I47
sS'brighten'
p865
I48
sS'enemies'
p866
I48
sS'mood'
p867
I47
sS'for'
p868
I19
sS'bottom'
p869
I48
sS'pues'
p870
I48
sS'absolutely'
p871
I48
sS'hair...\xe2\x80\x9d'
p872
I48
sS'daytime'
p873
I48
sS'ether'
p874
I48
sS'everything'
p875
I43
sS'lara'
p876
I48
sS'asking'
p877
I48
sS'umm'
p878
I48
sS'dating'
p879
I48
sS'worst'
p880
I48
sS'trout'
p881
I48
sS'be'
p882
I31
sS'package'
p883
I48
sS'knew'
p884
I48
sS'run'
p885
I47
sS'asap'
p886
I48
sS'goalz'
p887
I48
sS'champ.\xe2\x80\x9d'
p888
I48
sS'lose'
p889
I47
sS'disappeared'
p890
I48
sS'maven'
p891
I48
sS'starring'
p892
I47
sS';*'
p893
I48
sS'by'
p894
I43
sS'on'
p895
I28
sS'about'
p896
I36
sS'ok'
p897
I47
sS'usa'
p898
I48
sS'anything'
p899
I48
sS'getting'
p900
I45
sS'of'
p901
I25
sS'months'
p902
I48
sS'accepts'
p903
I48
sS'drag'
p904
I48
sS'wrinkles'
p905
I48
sS'swear'
p906
I45
sS'sweat'
p907
I48
sS'\xe2\x80\xbc\xef\xb8\x8f\xe2\x80\xbc\xef\xb8\x8f\xe2\x80\xbc\xef\xb8\x8f\xe2\x80\xbc\xef\xb8\x8f'
p908
I48
sS'puppies'
p909
I48
sS'luck'
p910
I48
sS'sept'
p911
I48
sS'or'
p912
I43
sS'ripken'
p913
I48
sS'amber'
p914
I48
sS'seeing'
p915
I47
sS'own'
p916
I46
sS'mantle'
p917
I48
sS'johns'
p918
I48
sS'texting'
p919
I48
sS'into'
p920
I46
sS'peligro..."\xe2\x80\x9d'
p921
I48
sS'blessed'
p922
I48
sS'snapchat'
p923
I48
sS'two'
p924
I48
sS'down'
p925
I48
sS"ex's"
p926
I48
sS'playoff'
p927
I48
sS'right'
p928
I39
sS'drifted'
p929
I48
sS'your'
p930
I29
sS'girlfriend"'
p931
I48
sS'fast'
p932
I48
sS'everything.\xe2\x80\x9d'
p933
I48
sS'her'
p934
I43
sS'spending'
p935
I48
sS'there'
p936
I42
sS'question'
p937
I47
sS'hey'
p938
I37
sS'long'
p939
I47
sS'noticed'
p940
I45
sS'hed'
p941
I48
sS'start'
p942
I45
sS'volunteer'
p943
I48
sS'lot'
p944
I47
sS'bruh'
p945
I47
sS'bored'
p946
I45
sS'was'
p947
I39
sS'twitter'
p948
I48
sS'happy'
p949
I41
sS'function'
p950
I48
sS'north'
p951
I48
sS"i've"
p952
I48
sS'tigers'
p953
I48
sS'eyeliner'
p954
I48
sS'but'
p955
I26
sS'idea'
p956
I48
sS'hi'
p957
I45
sS'hear'
p958
I48
sS'same"'
p959
I48
sS'line'
p960
I48
sS'trying'
p961
I48
sS'true'
p962
I46
sS'eat'
p963
I48
sS'bud'
p964
I48
sS'he'
p965
I37
sS'throw'
p966
I48
sS'made'
p967
I45
sS'friday'
p968
I48
sS'wish'
p969
I46
sS'ronaldo'
p970
I48
sS'mtv'
p971
I48
sS'up'
p972
I8
sS'us'
p973
I45
sS'until'
p974
I48
sS'zayum'
p975
I48
sS'stories'
p976
I48
sS'dirty'
p977
I48
sS'months!\xe2\x80\x9dcutie'
p978
I48
sS'faded'
p979
I48
sS'cake'
p980
I44
sS'emotional'
p981
I48
sS'problem'
p982
I48
sS'loving'
p983
I48
sS'agree'
p984
I48
sS"grandma's"
p985
I48
sS'gone'
p986
I47
sS'sometimes'
p987
I47
sS'videos'
p988
I45
sS'mask'
p989
I48
sS'received'
p990
I48
sS'am'
p991
I44
sS'sweetheart'
p992
I48
sS'an'
p993
I46
sS'as'
p994
I40
sS'at'
p995
I41
sS'our'
p996
I48
sS'females'
p997
I48
sS'hyphy'
p998
I48
sS'check'
p999
I18
sS'shit'
p1000
I37
sS'again'
p1001
I48
sS'rainy'
p1002
I48
sS'beyond'
p1003
I48
sS'rumors'
p1004
I48
sS'jesus'
p1005
I48
sS'no'
p1006
I29
sS'ends'
p1007
I48
sS'when'
p1008
I32
sS'sportsnation'
p1009
I48
sS'fire'
p1010
I48
sS'other'
p1011
I48
sS'sick'
p1012
I45
sS'tie'
p1013
I48
sS'you'
p1014
I5
sS'really'
p1015
I40
sS'sunshine'
p1016
I48
sS'class'
p1017
I48
sS'kt'
p1018
I48
sS'forgot'
p1019
I48
sS'stay'
p1020
I44
sS"let's"
p1021
I48
sS'push'
p1022
I48
sS'chance'
p1023
I48
sS'..yeah'
p1024
I48
sS'allowing'
p1025
I48
sS'serious'
p1026
I48
sS'friends'
p1027
I46
sS'bs\xe2\x80\x9d'
p1028
I48
sS"dm'd"
p1029
I48
sS'ago'
p1030
I48
sS'mind\xe2\x80\x9d'
p1031
I48
sS'land'
p1032
I48
sS'glass'
p1033
I48
sS'age'
p1034
I48
sS'youtube'
p1035
I13
sS'winged'
p1036
I48
sS'rule'
p1037
I44
sS'forgetting'
p1038
I48
sS'feud'
p1039
I48
sS'u'
p1040
I44
sS'7:30'
p1041
I48
sS'time'
p1042
I38
sS'alright'
p1043
I47
sS"she's"
p1044
I46
sS"dallas's"
p1045
I48
sS'starting'
p1046
I48
sS'having'
p1047
I47
sS'dreams'
p1048
I48
sS'once'
p1049
I46
s.