(dp0
S''
p1
I3
sS'all'
p2
I21
sS':('
p3
I32
sS'consider'
p4
I32
sS'chinese'
p5
I32
sS'scratch'
p6
I31
sS'hot'
p7
I32
sS'felt'
p8
I32
sS'buckingham'
p9
I32
sS'4025'
p10
I32
sS'sleep'
p11
I27
sS'go'
p12
I13
sS'follow'
p13
I32
sS'hijos'
p14
I32
sS'hate'
p15
I32
sS':)'
p16
I32
sS'rd'
p17
I32
sS'apartment'
p18
I32
sS'grape'
p19
I30
sS'buddy'
p20
I32
sS'imma'
p21
I32
sS'tweet'
p22
I32
sS'tu'
p23
I32
sS'thursday'
p24
I31
sS'aun'
p25
I32
sS'mamona'
p26
I32
sS'to'
p27
I1
sS'finally'
p28
I30
sS'blaze'
p29
I27
sS'06:09:34.0,33.9840229,-118.1928039,5335.03,,90255\n471432917030567938,brigitteboogie,2014-05-27'
p30
I32
sS'te'
p31
I29
sS'tb'
p32
I32
sS'^.^'
p33
I32
sS'sitting'
p34
I32
sS'very'
p35
I32
sS'happy'
p36
I32
sS'tacos'
p37
I32
sS'vegas'
p38
I32
sS'facebook'
p39
I32
sS'fam'
p40
I32
sS'blast'
p41
I32
sS'wick'
p42
I32
sS"'orange"
p43
I32
sS'cool'
p44
I32
sS'problemas'
p45
I32
sS'school'
p46
I31
sS'tacooo'
p47
I32
sS'did'
p48
I29
sS'button'
p49
I32
sS'wednesday'
p50
I31
sS'christmas'
p51
I32
sS'try'
p52
I31
sS'p'
p53
I27
sS'manages'
p54
I32
sS'team'
p55
I32
sS'quick'
p56
I31
sS'yupppppppp'
p57
I30
sS'guy'
p58
I32
sS'round'
p59
I32
sS"it'll"
p60
I32
sS"i'll"
p61
I28
sS'regret'
p62
I32
sS'tired'
p63
I32
sS'tea'
p64
I32
sS'03:51:44.0,33.9840724,-118.1911965,5335.03,not'
p65
I32
sS',90255\n463004983391055873,brigitteboogie,2014-05-04'
p66
I32
sS'sierto*'
p67
I32
sS'second'
p68
I32
sS'cuss'
p69
I32
sS'19%'
p70
I32
sS'depression'
p71
I32
sS'drinks'
p72
I32
sS'even'
p73
I27
sS'(^o^)'
p74
I32
sS'what'
p75
I20
sS'stressful'
p76
I32
sS'giving'
p77
I31
sS'ni'
p78
I32
sS'enchiladas'
p79
I32
sS'cooking'
p80
I32
sS'sangria'
p81
I32
sS'while'
p82
I32
sS'waiting'
p83
I31
sS'new'
p84
I30
sS'falling'
p85
I32
sS'ever'
p86
I29
sS'azusa'
p87
I32
sS'toes'
p88
I32
sS'chiapas'
p89
I32
sS'asada'
p90
I32
sS'compilation'
p91
I32
sS'never'
p92
I30
sS'here'
p93
I28
sS'niveles'
p94
I31
sS'lol,90255\n447977632219402240,rfelixjr72,2014-03-24'
p95
I32
sS'\xe2\x9d\xa4\xef\xb8\x8f'
p96
I32
sS'let'
p97
I30
sS'web'
p98
I32
sS'address'
p99
I32
sS'wait'
p100
I29
sS'brigittes'
p101
I32
sS'great'
p102
I29
sS'\xe2\x9a\xbd\xef\xb8\x8f'
p103
I31
sS'\xe2\x8c\x9a'
p104
I31
sS'root'
p105
I32
sS'experience'
p106
I31
sS'ridicula'
p107
I32
sS'pick'
p108
I32
sS"i'm"
p109
I12
sS"john's"
p110
I32
sS'makes'
p111
I32
sS'pillow'
p112
I32
sS'kid'
p113
I32
sS'2013)'
p114
I31
sS'love'
p115
I26
sS'guacamole'
p116
I32
sS'win'
p117
I31
sS'bs'
p118
I32
sS'clara'
p119
I32
sS'crazy'
p120
I32
sS'bro'
p121
I27
sS'put'
p122
I32
sS'yourself'
p123
I32
sS'\xc2\xa1como'
p124
I32
sS'shit,90255\n448473922535555073,stephaniee__vee,2014-03-25'
p125
I32
sS'everybody'
p126
I32
sS'averiguo."'
p127
I32
sS'from'
p128
I28
sS'takes'
p129
I32
sS'would'
p130
I30
sS'&'
p131
I32
sS'idiot,90255\n455435066168995840,rfelixjr72,2014-04-13'
p132
I32
sS'oak'
p133
I32
sS'dude'
p134
I31
sS'nadie'
p135
I32
sS'next'
p136
I30
sS'idk'
p137
I32
sS'live'
p138
I31
sS'sitter'
p139
I32
sS'call'
p140
I31
sS'until'
p141
I32
sS'knoll'
p142
I32
sS'm\xc3\xado'
p143
I32
sS'tell'
p144
I32
sS'today'
p145
I23
sS'more'
p146
I29
sS'tmrrw'
p147
I32
sS'babe'
p148
I31
sS'started'
p149
I32
sS'india'
p150
I32
sS'getting'
p151
I31
sS'haha'
p152
I22
sS'sister'
p153
I31
sS'phone'
p154
I30
sS"ain't"
p155
I31
sS'dios'
p156
I32
sS'baby'
p157
I32
sS'hold'
p158
I32
sS'cuanto'
p159
I32
sS'glad'
p160
I32
sS'must'
p161
I32
sS'me'
p162
I16
sS'heyyyyyyy'
p163
I32
sS'balls'
p164
I32
sS'room'
p165
I32
sS'f'
p166
I32
sS'this'
p167
I17
sS'work'
p168
I25
sS'sucks'
p169
I32
sS'fast'
p170
I32
sS'reaaaaally'
p171
I32
sS'purge'
p172
I32
sS'nppl'
p173
I32
sS'del'
p174
I32
sS'can'
p175
I30
sS'learn'
p176
I32
sS'knocked'
p177
I32
sS'meet'
p178
I31
sS'my'
p179
I7
sS'sabe'
p180
I32
sS'razas'
p181
I32
sS'everyone'
p182
I32
sS'kenny'
p183
I32
sS'salted'
p184
I32
sS'stream'
p185
I32
sS'give'
p186
I32
sS'bother.,90255\n462793256284090368,brigitteboogie,2014-05-04'
p187
I32
sS'awesome'
p188
I27
sS'cellmate'
p189
I32
sS"didn't"
p190
I29
sS'fuck'
p191
I25
sS'perder'
p192
I31
sS'heard'
p193
I32
sS'azul'
p194
I32
sS'homie'
p195
I32
sS'something'
p196
I31
sS'want'
p197
I19
sS'allowed'
p198
I31
sS'blvd'
p199
I32
sS'wonderful'
p200
I31
sS'stole'
p201
I32
sS'looser'
p202
I32
sS'goal'
p203
I32
sS'thing'
p204
I32
sS'rather'
p205
I31
sS'six'
p206
I32
sS'stayed'
p207
I32
sS'1'
p208
I32
sS'how'
p209
I30
sS'sunday'
p210
I31
sS'musica'
p211
I32
sS'cual'
p212
I32
sS'if'
p213
I32
sS'beach'
p214
I32
sS'pizza'
p215
I32
sS'map'
p216
I32
sS'okay'
p217
I32
sS'mess'
p218
I32
sS'stop'
p219
I32
sS'them'
p220
I32
sS'diferentes'
p221
I30
sS'wrong'
p222
I32
sS'birthday'
p223
I31
sS'mad'
p224
I32
sS'pendejo'
p225
I32
sS'coming'
p226
I29
sS'pendeja'
p227
I32
sS'fk'
p228
I29
sS'guys'
p229
I29
sS'excited'
p230
I32
sS'man'
p231
I32
sS'a'
p232
I5
sS'horchata'
p233
I32
sS'remember'
p234
I32
sS'save'
p235
I32
sS'chillen'
p236
I32
sS'(colorado'
p237
I32
sS'feels'
p238
I32
sS'su'
p239
I32
sS'si'
p240
I32
sS'so'
p241
I21
sS'suerte'
p242
I31
sS'pay'
p243
I32
sS'basket'
p244
I32
sS'pleasure'
p245
I31
sS'padilla'
p246
I32
sS'order'
p247
I32
sS'talk'
p248
I31
sS"that's"
p249
I28
sS"don't"
p250
I23
sS'over'
p251
I30
sS'wedding'
p252
I32
sS'wishing'
p253
I32
sS'soon'
p254
I31
sS'cd\xe2\x80\xa6'
p255
I31
sS'isnt'
p256
I32
sS'tantos'
p257
I32
sS"won't"
p258
I32
sS'jimenez'
p259
I31
sS'17:19:24.0,33.984,-118.1928106,5335.03,sisters'
p260
I32
sS'cold'
p261
I32
sS'still'
p262
I30
sS'its'
p263
I32
sS'before'
p264
I28
sS'perfect'
p265
I32
sS'full!,90255\n504633639229870081,kachangita_21,2014-08-27'
p266
I32
sS'le'
p267
I32
sS'group'
p268
I32
sS'thank'
p269
I30
sS'la'
p270
I28
sS'somewhere'
p271
I32
sS'lo'
p272
I28
sS'gente'
p273
I30
sS'mod,90255\n447973593935118336,rfelixjr72,2014-03-24'
p274
I32
sS'amazing'
p275
I31
sS'better'
p276
I30
sS'tramp'
p277
I32
sS'permanent'
p278
I32
sS'sounds'
p279
I32
sS'd\xc3\xadas'
p280
I32
sS'might'
p281
I32
sS'digas'
p282
I32
sS'05:34:31.0,33.9840089,-118.1928016,5335.03,goshhh'
p283
I32
sS'then'
p284
I32
sS'coffee'
p285
I30
sS'good'
p286
I23
sS'yo'
p287
I32
sS'food'
p288
I29
sS'nada'
p289
I32
sS'camino'
p290
I32
sS'starbucks'
p291
I32
sS'they'
p292
I31
sS'hands'
p293
I32
sS'not'
p294
I24
sS'vaping'
p295
I32
sS'now'
p296
I25
sS'bullshit'
p297
I30
sS'instructions'
p298
I32
sS'february'
p299
I32
sS'wash'
p300
I32
sS'always'
p301
I29
sS'regulo'
p302
I31
sS'tear'
p303
I32
sS'weather'
p304
I32
sS'hubieras'
p305
I32
sS'disregard'
p306
I32
sS'bills'
p307
I32
sS'side'
p308
I32
sS"isn't"
p309
I32
sS'turtle'
p310
I32
sS'el'
p311
I29
sS'en'
p312
I32
sS'fired'
p313
I32
sS'doing'
p314
I32
sS'house'
p315
I31
sS'fish'
p316
I32
sS'hard'
p317
I30
sS'yeah'
p318
I28
sS"they've"
p319
I32
sS'strips'
p320
I32
sS'linea"'
p321
I32
sS'year'
p322
I32
sS'23:29:00.0,33.9841623,-118.1927586,5335.03,lmao,90255\n471394836294033410,brigitteboogie,2014-05-27'
p323
I32
sS'happen'
p324
I30
sS'beyond'
p325
I32
sS'saturday'
p326
I32
sS'es'
p327
I30
sS'out'
p328
I26
sS'living'
p329
I32
sS'lovers'
p330
I31
sS'alcohol'
p331
I32
sS'3rd'
p332
I32
sS'yeah,90255\n447973477736124416,rfelixjr72,2014-03-24'
p333
I32
sS'since'
p334
I31
sS'bad'
p335
I32
sS'hahahahahahahahsh'
p336
I32
sS'looking'
p337
I30
sS'bday'
p338
I32
sS'stuff'
p339
I32
sS'perro'
p340
I32
sS'got'
p341
I26
sS'rn'
p342
I31
sS'red'
p343
I32
sS'ass'
p344
I32
sS'torres'
p345
I32
sS'shut'
p346
I31
sS'suegros'
p347
I32
sS'veto'
p348
I32
sS'ipod'
p349
I29
sS'friday'
p350
I29
sS'fave'
p351
I32
sS'guess'
p352
I32
sS'brooks'
p353
I32
sS'mapping'
p354
I32
sS'mmm'
p355
I32
sS'carthatssss'
p356
I32
sS'que'
p357
I24
sS'caro'
p358
I31
sS'hoodie'
p359
I32
sS'practically'
p360
I32
sS'ask'
p361
I31
sS'03:18:05.0,33.9840462,-118.191208,5335.03,im'
p362
I32
sS'princess'
p363
I32
sS'shot'
p364
I32
sS'care'
p365
I32
sS'anyone.\xe2\x80\x9d'
p366
I32
sS'ate'
p367
I32
sS'por............,90255\n455401656591474688,rfelixjr72,2014-04-13'
p368
I32
sS'yup'
p369
I32
sS'could'
p370
I32
sS'norte\xc3\xb1o'
p371
I30
sS'days'
p372
I31
sS'keep'
p373
I32
sS'conversation'
p374
I32
sS"black'"
p375
I32
sS'afternoon'
p376
I32
sS'place'
p377
I32
sS'target'
p378
I32
sS'uses'
p379
I32
sS'think'
p380
I30
sS'he\xe2\x80\xa6'
p381
I32
sS'feed'
p382
I31
sS'cheese'
p383
I32
sS'already'
p384
I31
sS'feel'
p385
I32
sS'*'
p386
I32
sS'taco'
p387
I32
sS'2013\xe2\x80\xa6'
p388
I32
sS'welcome'
p389
I32
sS'one'
p390
I26
sS'fucked'
p391
I30
sS'lol'
p392
I6
sS'delicious'
p393
I32
sS'maidana'
p394
I32
sS'kidding'
p395
I32
sS'miss'
p396
I32
sS'hood'
p397
I32
sS'pasa'
p398
I32
sS'bitten'
p399
I32
sS"doesn't"
p400
I32
sS'little'
p401
I30
sS'district'
p402
I32
sS'privacy'
p403
I32
sS'rieleros'
p404
I32
sS'comfy'
p405
I32
sS'least'
p406
I32
sS'anyone'
p407
I32
sS'their'
p408
I25
sS'2'
p409
I31
sS'too'
p410
I32
sS'convention'
p411
I31
sS'las'
p412
I32
sS'friend'
p413
I32
sS'lol,90255\n455520107385483264,rfelixjr72,2014-04-14'
p414
I32
sS'virginity."'
p415
I32
sS'para'
p416
I32
sS'that'
p417
I14
sS'season'
p418
I32
sS'gym'
p419
I32
sS'bruh'
p420
I32
sS'huh'
p421
I30
sS'took'
p422
I32
sS'jesled'
p423
I31
sS'grandpa'
p424
I32
sS'enigma'
p425
I29
sS'thai'
p426
I32
sS'believe'
p427
I30
sS'than'
p428
I30
sS'boyfriend'
p429
I32
sS'king'
p430
I32
sS'12'
p431
I32
sS'15'
p432
I32
sS'lmao'
p433
I30
sS'tios'
p434
I32
sS'bed,90255\n462801727117217792,brigitteboogie,2014-05-04'
p435
I32
sS'goodnight'
p436
I32
sS'bed'
p437
I31
sS'project'
p438
I32
sS'don\xe2\x80\x99t'
p439
I32
sS'sera"'
p440
I32
sS'painful'
p441
I32
sS'loves'
p442
I32
sS'were'
p443
I31
sS'beard'
p444
I32
sS'dawn"'
p445
I32
sS'and'
p446
I11
sS'mini'
p447
I32
sS'san'
p448
I31
sS'stomping'
p449
I30
sS'mind'
p450
I32
sS'mine'
p451
I32
sS'sad'
p452
I32
sS'tonight'
p453
I32
sS'talking'
p454
I31
sS'say'
p455
I31
sS'dormir'
p456
I32
sS'*i'
p457
I32
sS'have'
p458
I18
sS'need'
p459
I27
sS'seen'
p460
I32
sS'breakfast'
p461
I28
sS'antonio'
p462
I32
sS'saw'
p463
I32
sS'linked'
p464
I32
sS'caffee'
p465
I32
sS'lie'
p466
I32
sS'mio'
p467
I31
sS'mia'
p468
I30
sS'answering'
p469
I32
sS'-'
p470
I16
sS',90255\n447978292885196800,rfelixjr72,2014-03-24'
p471
I32
sS'nah'
p472
I32
sS'note'
p473
I32
sS'omfg'
p474
I31
sS'take'
p475
I31
sS'torbellino'
p476
I31
sS'funniest'
p477
I32
sS'pranks'
p478
I32
sS'='
p479
I32
sS';-)'
p480
I28
sS'practuce'
p481
I32
sS'butterfly'
p482
I32
sS'play'
p483
I32
sS'sure'
p484
I31
sS'multiple'
p485
I32
sS'mustang'
p486
I32
sS'park'
p487
I32
sS'huey'
p488
I32
sS'06:00:44.0,33.9854238,-118.1909056,5335.03,so'
p489
I32
sS'y'
p490
I32
sS'wire'
p491
I32
sS'cudahy'
p492
I32
sS'nothing'
p493
I32
sS'why'
p494
I25
sS'check'
p495
I32
sS'forever'
p496
I32
sS'especially'
p497
I32
sS'incase'
p498
I32
sS'later'
p499
I32
sS'ko'
p500
I32
sS'hungry'
p501
I24
sS'yours'
p502
I32
sS'vengo'
p503
I32
sS"you'll"
p504
I31
sS',90255\n472975435312013312,brigitteboogie,2014-06-01'
p505
I32
sS'se'
p506
I30
sS'annoying,90255\n472294464791511040,brigitteboogie,2014-05-30'
p507
I32
sS'algo'
p508
I32
sS'(en'
p509
I31
sS'review'
p510
I32
sS'came'
p511
I32
sS"they're"
p512
I32
sS'shop'
p513
I32
sS'saying'
p514
I32
sS'walking'
p515
I32
sS'bomb'
p516
I26
sS'show'
p517
I32
sS'muy'
p518
I32
sS'carne'
p519
I32
sS'bring'
p520
I29
sS'frappuccino'
p521
I32
sS'carefully'
p522
I32
sS'chicken'
p523
I32
sS'fine'
p524
I32
sS'make'
p525
I32
sS'lol,90255\n447976341145522176,rfelixjr72,2014-03-24'
p526
I32
sS'\xe2\x9c\x8c'
p527
I32
sS'snack'
p528
I32
sS'\xe2\x9c\x88'
p529
I32
sS'pinche'
p530
I32
sS'paranoid'
p531
I32
sS'true'
p532
I32
sS'weekends'
p533
I32
sS'dick'
p534
I32
sS'jolt'
p535
I32
sS'should'
p536
I31
sS'virgo'
p537
I32
sS'hatting'
p538
I32
sS'only'
p539
I29
sS'going'
p540
I24
sS'pretty'
p541
I32
sS'8'
p542
I32
sS'05:29:04.0,33.9852519,-118.1907662,5335.03,juli\xc3\xb3n'
p543
I32
sS'handsome'
p544
I32
sS'hope'
p545
I30
sS'pumpkin'
p546
I32
sS'do'
p547
I27
sS'08:32:29.0,33.9840197,-118.1928137,5335.03,\xe2\x9c\x8c\xef\xb8\x8f\xe2\x9c\x8c\xef\xb8\x8f\xe2\x9c\x8c\xef\xb8\x8f,90255\n471896110118608896,brigitteboogie,2014-05-29'
p548
I32
sS'his'
p549
I29
sS'b\xe2\x80\xa6'
p550
I32
sS'get'
p551
I24
sS'14:16:49.0,33.98284863,-118.18967286,5335.03,feeling'
p552
I32
sS'dope'
p553
I27
sS'de'
p554
I31
sS'watch'
p555
I31
sS'lucky'
p556
I30
sS'awww'
p557
I31
sS'ave)'
p558
I32
sS'watermelon'
p559
I32
sS'preparing'
p560
I32
sS'chat'
p561
I32
sS'reply'
p562
I32
sS'report'
p563
I32
sS'him'
p564
I29
sS'unfortunately'
p565
I32
sS'regarding'
p566
I32
sS'pollo'
p567
I32
sS'perros'
p568
I32
sS'girl'
p569
I32
sS'h'
p570
I27
sS'married'
p571
I32
sS'borrow'
p572
I32
sS'morning'
p573
I26
sS'niveles"'
p574
I30
sS'bae'
p575
I31
sS'caramel'
p576
I32
sS'she'
p577
I30
sS'shots'
p578
I31
sS'norte-no'
p579
I32
sS'where'
p580
I22
sS'xmas'
p581
I32
sS'view'
p582
I32
sS'insane'
p583
I32
sS'arr'
p584
I32
sS'set'
p585
I32
sS'overwhelm'
p586
I32
sS'olvidare'
p587
I32
sS'lot'
p588
I32
sS'sex'
p589
I32
sS'see'
p590
I30
sS'full'
p591
I32
sS'dumb'
p592
I32
sS'are'
p593
I23
sS'hoes'
p594
I32
sS'fail'
p595
I32
sS'close'
p596
I32
sS'sleep,90255\n455403204994285568,rfelixjr72,2014-04-13'
p597
I32
sS'smiling'
p598
I32
sS'best'
p599
I30
sS'eres'
p600
I32
sS'suck\xe2\x80\x9d'
p601
I32
sS'said'
p602
I29
sS'vitamins'
p603
I32
sS'manson'
p604
I32
sS'pedicure'
p605
I31
sS'pictures'
p606
I32
sS'\xe2\x98\x8e\xef\xb8\x8f'
p607
I32
sS'please'
p608
I32
sS'toc\xc3\xb3'
p609
I31
sS'3'
p610
I32
sS'won'
p611
I32
sS'hopefully'
p612
I32
sS'probably'
p613
I32
sS'nope'
p614
I32
sS'\xc3\x81lvarez'
p615
I32
sS'we'
p616
I24
sS'omg'
p617
I29
sS'apatizers'
p618
I32
sS'17:52:39.0,33.9851848,-118.1906829,5335.03,funny'
p619
I32
sS'stress'
p620
I32
sS'wear'
p621
I32
sS'wtf'
p622
I23
sS'jk'
p623
I31
sS'goodluck'
p624
I32
sS'come'
p625
I29
sS"cd's"
p626
I32
sS'legit'
p627
I32
sS'restrictions'
p628
I32
sS'hits'
p629
I32
sS'feeling'
p630
I32
sS'last'
p631
I30
sS'releaver'
p632
I32
sS'joke'
p633
I32
sS'taking'
p634
I29
sS"he's"
p635
I32
sS'ahora'
p636
I32
sS'quiet'
p637
I32
sS'restroom'
p638
I32
sS'apex'
p639
I32
sS"she's"
p640
I32
sS'alow'
p641
I32
sS'interesting'
p642
I32
sS'whole'
p643
I30
sS"can't"
p644
I29
sS'liked'
p645
I32
sS'\xe2\x98\xba'
p646
I32
sS'drunk'
p647
I32
sS'battery'
p648
I31
sS'tuesday'
p649
I32
sS'sleepover'
p650
I32
sS'whatever'
p651
I32
sS'walk'
p652
I31
sS'baconator'
p653
I32
sS'cv'
p654
I32
sS'tostadas'
p655
I32
sS'blink'
p656
I32
sS'late'
p657
I32
sS'madre'
p658
I32
sS'aprende'
p659
I32
sS"it's"
p660
I29
sS'\xe2\x98\x95'
p661
I32
sS'been'
p662
I28
sS'marilyn'
p663
I32
sS'beer'
p664
I29
sS'pa'
p665
I31
sS'damn'
p666
I32
sS'interest'
p667
I32
sS'damm'
p668
I31
sS'pk'
p669
I32
sS'woke'
p670
I31
sS'pm'
p671
I32
sS'wants'
p672
I31
sS'life'
p673
I31
sS'i\xe2\x80\xa6'
p674
I32
sS'shopping'
p675
I32
sS'e-cigarettes'
p676
I32
sS"what's"
p677
I26
sS'sooooo'
p678
I32
sS'(video'
p679
I32
sS'maps'
p680
I32
sS'dramatic'
p681
I32
sS'wake'
p682
I20
sS'bull'
p683
I32
sS'those'
p684
I32
sS'chill'
p685
I32
sS'12-2:30'
p686
I32
sS'crenshaw'
p687
I32
sS'look'
p688
I31
sS'these'
p689
I29
sS'n'
p690
I32
sS'will'
p691
I26
sS'ugly'
p692
I32
sS'near'
p693
I32
sS'fue'
p694
I31
sS'hahaha'
p695
I31
sS'mentally'
p696
I32
sS'hmmmm'
p697
I32
sS'drives'
p698
I32
sS'happened'
p699
I32
sS'invited'
p700
I32
sS'chilling'
p701
I22
sS'mistake'
p702
I32
sS'<3'
p703
I32
sS'14:58:10.0,33.9823061,-118.1901616,5335.03,the'
p704
I32
sS'meeeeeeee'
p705
I32
sS'is'
p706
I10
sS'it'
p707
I18
sS'sleeping'
p708
I32
sS'blah'
p709
I30
sS'cant'
p710
I32
sS'someone'
p711
I32
sS'im'
p712
I32
sS'up,90255\n455401407374311424,rfelixjr72,2014-04-13'
p713
I32
sS'in'
p714
I14
sS'leaving'
p715
I32
sS'"asi'
p716
I32
sS'funny'
p717
I28
sS'reclamarte'
p718
I32
sS'fkn'
p719
I15
sS'wtf,90255\n447978213013082112,rfelixjr72,2014-03-24'
p720
I32
sS'things'
p721
I30
sS'juan'
p722
I32
sS'cross'
p723
I32
sS'same'
p724
I31
sS'trip'
p725
I31
sS'cultivated'
p726
I32
sS'pad'
p727
I30
sS'castillo'
p728
I32
sS'[video'
p729
I31
sS'big'
p730
I32
sS'several'
p731
I32
sS'events'
p732
I32
sS'todos'
p733
I32
sS'disappointment'
p734
I32
sS'week'
p735
I31
sS'persona'
p736
I32
sS'again'
p737
I32
sS'drink'
p738
I31
sS'yesterday'
p739
I31
sS'evil'
p740
I32
sS'tambien'
p741
I32
sS'running'
p742
I32
sS'liquids'
p743
I32
sS'two'
p744
I32
sS'sisters'
p745
I31
sS'l.a'
p746
I32
sS'weird'
p747
I32
sS'tierra'
p748
I32
sS'booster'
p749
I32
sS'\xe2\x9c\x8c\xef\xb8\x8f'
p750
I32
sS'cabron!!!!!hahaha'
p751
I32
sS'posted'
p752
I32
sS'off'
p753
I28
sS'i'
p754
I2
sS'incredible'
p755
I32
sS'well'
p756
I32
sS'spent'
p757
I32
sS'hago'
p758
I32
sS'thought'
p759
I31
sS'flags'
p760
I32
sS'relief'
p761
I31
sS'bottle'
p762
I32
sS'alfredo'
p763
I31
sS'the'
p764
I4
sS'dark'
p765
I32
sS'tito'
p766
I31
sS'left'
p767
I32
sS'[version'
p768
I32
sS'world'
p769
I32
sS'cave'
p770
I32
sS'just'
p771
I21
sS'being'
p772
I31
sS'06:06:05.0,33.9851921,-118.1907311,5335.03,que'
p773
I32
sS'wiwi'
p774
I32
sS'sofia'
p775
I31
sS'sleepy'
p776
I32
sS'rest'
p777
I31
sS'front'
p778
I32
sS'batteries'
p779
I32
sS'thanks'
p780
I29
sS'05:18:10.0,33.9852648,-118.190706,5335.03,hasta'
p781
I32
sS'immediately'
p782
I32
sS'touch'
p783
I31
sS'ehhhh\xe2\x80\x9d'
p784
I32
sS'yes'
p785
I30
sS'jose'
p786
I31
sS'helping'
p787
I32
sS'hills'
p788
I32
sS'bread'
p789
I32
sS'drive'
p790
I32
sS'seems'
p791
I31
sS'inside,90255\n455404125195235328,rfelixjr72,2014-04-13'
p792
I32
sS'day'
p793
I27
sS'hay'
p794
I31
sS'lets'
p795
I32
sS'pasadena'
p796
I32
sS'ahhhh'
p797
I31
sS'4'
p798
I30
sS'05:54:43.0,33.9852495,-118.1907289,5335.03,i'
p799
I32
sS'has'
p800
I31
sS'easter'
p801
I32
sS'aguilar--hace'
p802
I32
sS'"diferentes'
p803
I31
sS'gave'
p804
I32
sS'real'
p805
I31
sS'starving'
p806
I32
sS'movie'
p807
I32
sS'pero'
p808
I32
sS'5!,90255\n472974451428950016,brigitteboogie,2014-06-01'
p809
I32
sS'read'
p810
I32
sS'"empujando'
p811
I32
sS'lado'
p812
I32
sS'gonna'
p813
I29
sS'early'
p814
I31
sS'fda'
p815
I32
sS'cruz'
p816
I32
sS'know'
p817
I29
sS'mom'
p818
I32
sS'mine.,90255\n455435182716104704,rfelixjr72,2014-04-13'
p819
I32
sS'tampoco'
p820
I32
sS'gustan'
p821
I32
sS'banda'
p822
I32
sS'tecates'
p823
I32
sS'mod'
p824
I32
sS'brought'
p825
I32
sS'hours'
p826
I32
sS'like'
p827
I15
sS'lost'
p828
I31
sS'texts'
p829
I32
sS'obvious'
p830
I32
sS'message'
p831
I32
sS'pillas'
p832
I32
sS'[chino'
p833
I32
sS'racista'
p834
I32
sS'serious'
p835
I32
sS'night'
p836
I26
sS'amor'
p837
I31
sS'mr'
p838
I32
sS'works'
p839
I31
sS'right'
p840
I30
sS'old'
p841
I31
sS'often'
p842
I32
sS'deal'
p843
I32
sS'people'
p844
I29
sS'fucking'
p845
I28
sS'knock'
p846
I32
sS',90255\n455520377586712576,rfelixjr72,2014-04-14'
p847
I32
sS'some'
p848
I26
sS'back'
p849
I24
sS'tajin'
p850
I32
sS'shes'
p851
I32
sS'home'
p852
I23
sS'niggahs'
p853
I32
sS'thinks'
p854
I32
sS'wow'
p855
I32
sS'mood'
p856
I32
sS'for'
p857
I16
sS'notification'
p858
I32
sS'decision'
p859
I31
sS'nooo'
p860
I31
sS':-d'
p861
I32
sS'cake'
p862
I32
sS'oficial)'
p863
I32
sS'floor'
p864
I32
sS'does'
p865
I32
sS'besos'
p866
I32
sS':-p'
p867
I30
sS'foo'
p868
I29
sS'enjoy'
p869
I32
sS'instagram'
p870
I32
sS'be'
p871
I22
sS'who'
p872
I32
sS'06:00:57.0,33.9854203,-118.1908707,5335.03,wine'
p873
I32
sS'power'
p874
I32
sS'schedule'
p875
I28
sS'lmfao'
p876
I29
sS'spider-man'
p877
I32
sS'martin'
p878
I32
sS'nuevo'
p879
I32
sS'\xc2\xbfy'
p880
I32
sS'santa'
p881
I32
sS'chick'
p882
I32
sS'losing'
p883
I31
sS'home."'
p884
I32
sS'super'
p885
I32
sS'by'
p886
I29
sS':-*'
p887
I32
sS'on'
p888
I20
sS'about'
p889
I30
sS':-)'
p890
I32
sS'ok'
p891
I32
sS'working'
p892
I32
sS'anything'
p893
I31
sS'oh'
p894
I28
sS'of'
p895
I16
sS'favorite'
p896
I32
sS'remmy'
p897
I30
sS'oficial]'
p898
I30
sS'empty'
p899
I32
sS'inventa'
p900
I32
sS'norten\xcc\x83o'
p901
I31
sS'huevo'
p902
I31
sS'wanna'
p903
I23
sS'or'
p904
I32
sS'seeing'
p905
I32
sS'enough'
p906
I32
sS'hometown'
p907
I32
sS'mommy'
p908
I32
sS'float'
p909
I32
sS'son'
p910
I29
sS'down'
p911
I29
sS'google'
p912
I31
sS'champ'
p913
I32
sS'(estudio'
p914
I31
sS'05:36:50.0,33.9852343,-118.1907842,5335.03,noel'
p915
I32
sS'your'
p916
I22
sS'smells'
p917
I32
sS'more,90255\n455400017411309568,rfelixjr72,2014-04-13'
p918
I32
sS'this\xe2\x99\xa5'
p919
I32
sS'hahahaha'
p920
I32
sS"how's"
p921
I32
sS'her'
p922
I29
sS'tasting'
p923
I32
sS'beers'
p924
I32
sS'friends'
p925
I32
sS'apartments'
p926
I32
sS'sock'
p927
I32
sS'hey'
p928
I31
sS'long'
p929
I31
sS'fight'
p930
I31
sS'palmyra'
p931
I32
sS'los'
p932
I27
sS'much'
p933
I32
sS'downey'
p934
I32
sS'earphones'
p935
I32
sS'way'
p936
I27
sS'cloths'
p937
I32
sS'bored'
p938
I31
sS'was'
p939
I19
sS'twitter'
p940
I32
sS"rhino's"
p941
I30
sS'head'
p942
I29
sS'buy'
p943
I31
sS"i've"
p944
I30
sS'hp'
p945
I32
sS'bitches'
p946
I32
sS'sickest'
p947
I32
sS'but'
p948
I29
sS'spider'
p949
I32
sS'antrx]'
p950
I32
sS'taken'
p951
I32
sS'hi'
p952
I31
sS'tho'
p953
I32
sS'trying'
p954
I32
sS'with'
p955
I17
sS'burra'
p956
I32
sS'he'
p957
I27
sS'::::muy'
p958
I32
sS'also'
p959
I32
sS'made'
p960
I30
sS'valenzuela'
p961
I30
sS'romantic'
p962
I32
sS"wasn't"
p963
I32
sS'wish'
p964
I32
sS'inside'
p965
I31
sS'official'
p966
I32
sS'instinct'
p967
I32
sS'up'
p968
I9
sS'vivo'
p969
I31
sS'ur'
p970
I29
sS'un'
p971
I31
sS'qu\xc3\xa9'
p972
I31
sS'dmx'
p973
I32
sS'problem'
p974
I32
sS'expect'
p975
I32
sS'nachos'
p976
I32
sS'modelos'
p977
I31
sS"foodie's"
p978
I32
sS'pimples'
p979
I32
sS'videos'
p980
I32
sS'flat'
p981
I32
sS'ah'
p982
I31
sS'am'
p983
I28
sS'an'
p984
I29
sS'fly'
p985
I32
sS'as'
p986
I30
sS'at'
p987
I20
sS'mejor'
p988
I32
sS'our'
p989
I32
sS'girlfriend'
p990
I32
sS'checo'
p991
I32
sS'face'
p992
I32
sS'hahahaha,90255\n455401948317900800,rfelixjr72,2014-04-13'
p993
I32
sS'huntington'
p994
I30
sS'shit'
p995
I25
sS'cotton'
p996
I32
sS'diego'
p997
I31
sS'rumors'
p998
I32
sS'us'
p999
I32
sS'no'
p1000
I18
sS'idiot'
p1001
I31
sS'palenqu\xe2\x80\xa6'
p1002
I31
sS'when'
p1003
I23
sS'event'
p1004
I32
sS'sierto'
p1005
I31
sS'nap'
p1006
I32
sS'other'
p1007
I31
sS'special'
p1008
I32
sS'sick'
p1009
I31
sS'notion."'
p1010
I32
sS'you'
p1011
I8
sS'really'
p1012
I30
sS'nice'
p1013
I31
sS'may'
p1014
I32
sS'monday'
p1015
I30
sS'gracias'
p1016
I32
sS'stay'
p1017
I31
sS"let's"
p1018
I28
sS'drag'
p1019
I31
sS'kinda'
p1020
I32
sS'\xe2\x80\xa6'
p1021
I29
sS'a\xc3\xb1o'
p1022
I32
sS'weekend'
p1023
I31
sS'senior'
p1024
I32
sS'mames'
p1025
I31
sS'goin'
p1026
I32
sS'building'
p1027
I30
sS'e'
p1028
I32
sS'excuse'
p1029
I32
sS'wifi'
p1030
I31
sS'too!"'
p1031
I32
sS'having'
p1032
I32
sS'k_lowkah'
p1033
I31
sS'surcando'
p1034
I32
sS'u'
p1035
I22
sS"we're"
p1036
I32
sS'time'
p1037
I26
sS'awake'
p1038
I30
sS'avoid'
p1039
I31
s.