(dp0
S''
p1
I1
sS'sleep'
p2
I55
sS'colegas'
p3
I66
sS'hate'
p4
I54
sS'shure'
p5
I64
sS'tweet'
p6
I65
sS'james'
p7
I66
sS'kardashian'
p8
I66
sS'teaching'
p9
I66
sS'sorry'
p10
I61
sS'worth'
p11
I64
sS'makeing'
p12
I64
sS'connects'
p13
I66
sS'every'
p14
I63
sS'poppa'
p15
I66
sS'school'
p16
I42
sS'supports'
p17
I66
sS'wednesday'
p18
I63
sS'red'
p19
I63
sS"yesterday's"
p20
I66
sS'ups'
p21
I65
sS'titulado'
p22
I65
sS'tired'
p23
I44
sS'me-'
p24
I66
sS'miller'
p25
I66
sS'olvide'
p26
I65
sS'second'
p27
I65
sS'03:08:10.0,33.969595,-118.1862158,5344.05,,90201\n434127585912430592,stupid_noemi,2014-02-14'
p28
I66
sS'10q'
p29
I66
sS'panda'
p30
I66
sS'even'
p31
I54
sS'saved'
p32
I66
sS'fuhhhh'
p33
I66
sS'above'
p34
I66
sS'new'
p35
I59
sS'ever'
p36
I64
sS'seeks'
p37
I66
sS'told'
p38
I65
sS'eventos'
p39
I66
sS'kicked'
p40
I65
sS'sickass'
p41
I66
sS'never'
p42
I54
sS'titanfall'
p43
I66
sS'here'
p44
I60
sS'\xe2\x9d\xa4\xef\xb8\x8f'
p45
I65
sS'&&'
p46
I55
sS'drea'
p47
I64
sS"aren't"
p48
I66
sS'kids'
p49
I65
sS'tapes'
p50
I66
sS'k'
p51
I63
sS'changed'
p52
I64
sS'"why'
p53
I66
sS'piercing'
p54
I66
sS'tv'
p55
I66
sS'smoke'
p56
I49
sS'que'
p57
I60
sS"i'm"
p58
I27
sS'changes'
p59
I64
sS'julio'
p60
I65
sS"g's"
p61
I66
sS'bro'
p62
I52
sS'retards'
p63
I66
sS'punching'
p64
I66
sS'would'
p65
I50
sS'hospital'
p66
I66
sS'dnt'
p67
I66
sS'noting'
p68
I66
sS'music'
p69
I58
sS'calm'
p70
I66
sS'iniciales'
p71
I66
sS'type'
p72
I64
sS'tell'
p73
I61
sS'relax'
p74
I66
sS'oscar'
p75
I66
sS'haha'
p76
I65
sS'hurt'
p77
I61
sS'phone'
p78
I57
sS'adult'
p79
I66
sS'saben'
p80
I66
sS'hold'
p81
I65
sS'shoot'
p82
I65
sS'-_-her'
p83
I66
sS'room'
p84
I60
sS'work'
p85
I60
sS'mi'
p86
I45
sS'mk'
p87
I66
sS'movies'
p88
I63
sS'nppl'
p89
I66
sS'duermete'
p90
I66
sS'era'
p91
I66
sS'cachanilla420'
p92
I66
sS'jamal'
p93
I66
sS'my'
p94
I4
sS'shook'
p95
I66
sS'give'
p96
I65
sS'muahaha'
p97
I66
sS'juan\xe2\x80\xa6'
p98
I66
sS'laughs'
p99
I65
sS'04:26:28.0,33.9685387,-118.1829541,5344.05,sick'
p100
I66
sS'homie'
p101
I65
sS'want'
p102
I26
sS'brest'
p103
I66
sS'wany'
p104
I66
sS'hoe'
p105
I62
sS'end'
p106
I66
sS'yuh'
p107
I56
sS'sitting'
p108
I64
sS'mrlui247\xe2\x80\xa6'
p109
I66
sS'the\xe2\x80\xa6'
p110
I65
sS'hot'
p111
I61
sS'drummer'
p112
I66
sS'hop'
p113
I66
sS'interview'
p114
I66
sS'futboleros'
p115
I64
sS'08:45:56.0,33.9685221,-118.186671,5344.05,some*,90201\n498752129956196352,ovoxo_deeh,2014-08-11'
p116
I66
sS'pizza'
p117
I65
sS'elizabeth'
p118
I65
sS'mouths'
p119
I66
sS'mess'
p120
I66
sS'after'
p121
I57
sS'wrong'
p122
I63
sS'jales'
p123
I66
sS'ovo'
p124
I66
sS'las'
p125
I65
sS'orden'
p126
I66
sS'danny'
p127
I65
sS'chillen'
p128
I66
sS'wins'
p129
I64
sS'appreciate'
p130
I65
sS'maintain'
p131
I66
sS'mine//'
p132
I66
sS'keeps'
p133
I66
sS'wing'
p134
I66
sS'entrando'
p135
I66
sS'cerrada'
p136
I66
sS'office'
p137
I66
sS'over'
p138
I57
sS'fall'
p139
I66
sS'carnal'
p140
I66
sS'before'
p141
I63
sS'ima'
p142
I63
sS'somewhere'
p143
I64
sS'gente'
p144
I54
sS'better'
p145
I59
sS'03:30:07.0,33.96620395,-118.18694627,5344.05,going'
p146
I66
sS'imy'
p147
I66
sS'then'
p148
I50
sS'them'
p149
I56
sS'workout'
p150
I65
sS"we'll"
p151
I64
sS'amonos'
p152
I65
sS'bang'
p153
I62
sS'giraffe'
p154
I66
sS'they'
p155
I49
sS'mucho'
p156
I65
sS'ther'
p157
I66
sS'forreals'
p158
I66
sS'alex'
p159
I66
sS'rocky'
p160
I66
sS'bearly'
p161
I66
sS'lucy'
p162
I66
sS'spotless'
p163
I66
sS'enamorada'
p164
I66
sS'louis'
p165
I66
sS'addicted'
p166
I66
sS'went'
p167
I63
sS'luch'
p168
I66
sS'mean'
p169
I60
sS'signing'
p170
I66
sS'lagging'
p171
I62
sS'diana'
p172
I65
sS'*comes'
p173
I66
sS'bowls'
p174
I66
sS'drumsdanny'
p175
I66
sS'taught'
p176
I66
sS"we'd"
p177
I66
sS'forgot'
p178
I66
sS'saturday'
p179
I58
sS'gon'
p180
I63
sS'god'
p181
I62
sS'tomorrow'
p182
I24
sS'nah\xe2\x80\x9didc'
p183
I66
sS'ima\xe2\x80\xa6'
p184
I66
sS'smh'
p185
I60
sS'got'
p186
I33
sS'rn'
p187
I31
sS'arizona'
p188
I66
sS"you're"
p189
I57
sS'hang'
p190
I66
sS'corrects'
p191
I65
sS'wanted'
p192
I64
sS'comensar'
p193
I66
sS'vetz'
p194
I66
sS'fomie'
p195
I66
sS'ate'
p196
I65
sS'atb'
p197
I66
sS'dayum'
p198
I66
sS'starts'
p199
I64
sS'atm'
p200
I66
sS'days'
p201
I60
sS'heading'
p202
I66
sS'musicians'
p203
I66
sS'"no'
p204
I66
sS'shootin'
p205
I66
sS'already'
p206
I55
sS'>>'
p207
I66
sS'wass'
p208
I66
sS'hearing'
p209
I65
sS'hook'
p210
I66
sS'another'
p211
I66
sS'millers'
p212
I66
sS'blunts'
p213
I65
sS'basketball'
p214
I65
sS'dogg'
p215
I66
sS'haaaaaay'
p216
I66
sS'girls'
p217
I64
sS'too'
p218
I61
sS'ayeeee'
p219
I66
sS'hollywood'
p220
I66
sS'dogs'
p221
I66
sS'burke\xe2\x80\x9d'
p222
I66
sS'listen'
p223
I63
sS'murder'
p224
I66
sS'widdo'
p225
I66
sS'happily'
p226
I66
sS'tooo'
p227
I66
sS'gym'
p228
I66
sS'2am'
p229
I65
sS'took'
p230
I62
sS'trippy'
p231
I65
sS'noodle'
p232
I65
sS'"good'
p233
I66
sS'adrenaline.\xe2\x80\x9d'
p234
I66
sS'mierda'
p235
I66
sS'shower'
p236
I61
sS'matter'
p237
I62
sS'classes'
p238
I65
sS'friend'
p239
I64
sS'feeling'
p240
I63
sS'lbs'
p241
I66
sS'fashion'
p242
I66
sS'esta'
p243
I65
sS'vieron'
p244
I66
sS'mind'
p245
I64
sS'mine'
p246
I64
sS'talking'
p247
I63
sS'infront'
p248
I66
sS'rap'
p249
I65
sS'seen'
p250
I64
sS'seem'
p251
I66
sS'mins'
p252
I63
sS'tells'
p253
I65
sS'gear'
p254
I66
sS'it\xe2\x80\xa6'
p255
I65
sS'e.b.f"'
p256
I66
sS'tomorrowsi'
p257
I66
sS'-'
p258
I61
sS'balling'
p259
I66
sS'reals'
p260
I66
sS'\xe2\x9c\x8c\xef\xb8\x8fmi'
p261
I66
sS'circles'
p262
I66
sS'blue'
p263
I66
sS'nobody'
p264
I64
sS'though'
p265
I61
sS'tr3s60'
p266
I66
sS'nuevos'
p267
I66
sS"talkin'"
p268
I66
sS'regular'
p269
I66
sS'germany'
p270
I63
sS'letter'
p271
I66
sS'dummy'
p272
I66
sS'camp'
p273
I65
sS'flow'
p274
I66
sS'doe'
p275
I63
sS'freeway'
p276
I66
sS'definitely'
p277
I66
sS'boyfriends'
p278
I66
sS'08:49:03.0,33.9685221,-118.186671,5344.05,,90201\n498752789426614273,ovoxo_deeh,2014-08-11'
p279
I66
sS'came'
p280
I58
sS'saying'
p281
I59
sS'bomb'
p282
I55
sS'retire'
p283
I66
sS"rollie's"
p284
I66
sS'lessons'
p285
I66
sS'crush'
p286
I66
sS"em'"
p287
I66
sS'busy'
p288
I65
sS'cousins'
p289
I65
sS'life\xe2\x80\x9d'
p290
I66
sS'hrs'
p291
I66
sS'rihanna'
p292
I66
sS'rick'
p293
I66
sS'rich'
p294
I66
sS'run)'
p295
I66
sS'boyfriend'
p296
I64
sS'personality'
p297
I66
sS'wearing'
p298
I65
sS'do'
p299
I27
sS'dm'
p300
I65
sS'de'
p301
I58
sS'watch'
p302
I64
sS'da'
p303
I65
sS'watermelon'
p304
I66
sS'nasty'
p305
I66
sS'runs'
p306
I66
sS'chingues'
p307
I66
sS'nicely'
p308
I66
sS'lol\xe2\x80\x9dwhat'
p309
I66
sS'twice'
p310
I66
sS'bad'
p311
I55
sS'bae'
p312
I62
sS'disney'
p313
I66
sS'estados'
p314
I66
sS'bam'
p315
I66
sS'headed'
p316
I66
sS"bf's"
p317
I66
sS'swept'
p318
I66
sS'lemonade'
p319
I66
sS'upbaby'
p320
I66
sS'goodnight'
p321
I62
sS'toes'
p322
I66
sS'fail'
p323
I66
sS'noodles'
p324
I66
sS'confused*fuck'
p325
I66
sS'best'
p326
I59
sS'lancaster'
p327
I65
sS'k.o'
p328
I66
sS'said'
p329
I59
sS'lots'
p330
I66
sS'away'
p331
I63
sS'shaved'
p332
I66
sS'bien'
p333
I65
sS"there's"
p334
I65
sS'wannnnnaaaa'
p335
I66
sS'props'
p336
I66
sS'lazy'
p337
I64
sS'men'
p338
I66
sS'omg'
p339
I64
sS'weak'
p340
I65
sS'ignorance'
p341
I66
sS'boss'
p342
I65
sS'omw'
p343
I66
sS'wear'
p344
I64
sS'wtf'
p345
I60
sS'wth'
p346
I65
sS'cousin'
p347
I66
sS'motto'
p348
I66
sS'tfti'
p349
I62
sS'met'
p350
I66
sS'ill'
p351
I65
sS'compton'
p352
I66
sS'una'
p353
I64
sS'games'
p354
I66
sS'uno'
p355
I66
sS'04:03:26.0,33.9685016,-118.183105,5344.05,mejor'
p356
I66
sS'mae!"'
p357
I66
sS'school\xe2\x80\x9dsmh'
p358
I66
sS'2nd'
p359
I66
sS'springs'
p360
I65
sS'refill'
p361
I66
sS'trust'
p362
I66
sS'speak'
p363
I65
sS'?o.o'
p364
I66
sS'asks'
p365
I66
sS'15:27:40.0,33.9685732,-118.1831514,5344.05,wakenbake'
p366
I66
sS'been'
p367
I41
sS'quickly'
p368
I66
sS'much'
p369
I60
sS'ni\xc3\xb1a'
p370
I66
sS'life'
p371
I51
sS'sprite'
p372
I66
sS'sooooo'
p373
I64
sS'marijuana'
p374
I66
sS'comprarme'
p375
I66
sS'catch'
p376
I65
sS'haters'
p377
I66
sS'spin'
p378
I66
sS'chill'
p379
I56
sS'gracias'
p380
I66
sS'etc...\xe2\x80\xa6'
p381
I66
sS'ahahahahhha'
p382
I66
sS'n'
p383
I59
sS'ugly'
p384
I64
sS'08:49:31.0,33.9685221,-118.186671,5344.05,,90201\n498752944498438148,ovoxo_deeh,2014-08-11'
p385
I66
sS'b-day'
p386
I66
sS'visit'
p387
I65
sS'voice'
p388
I64
sS'leaves'
p389
I66
sS'chilling'
p390
I64
sS'*the'
p391
I65
sS'mexico'
p392
I65
sS'thursdays'
p393
I66
sS'is'
p394
I10
sS'it'
p395
I11
sS'ii'
p396
I66
sS'player'
p397
I66
sS'cant'
p398
I62
sS'im'
p399
I34
sS'il'
p400
I66
sS'in'
p401
I13
sS'id'
p402
I66
sS'ig'
p403
I63
sS'if'
p404
I36
sS'things'
p405
I63
sS'make'
p406
I54
sS'on.\xe2\x80\x9d'
p407
I66
sS'babies'
p408
I66
sS'shawty'
p409
I65
sS'yeah,90201\n498752481627619328,ovoxo_deeh,2014-08-11'
p410
I66
sS'wheel'
p411
I65
sS'clothes.,90201\n497908580217921538,jaavier14_,2014-08-09'
p412
I66
sS'persuing\xe2\x80\xa6'
p413
I66
sS'perdonare'
p414
I66
sS'21:24:28.0,33.9646668,-118.178721,5344.05,you'
p415
I66
sS'hand'
p416
I66
sS'kik'
p417
I66
sS'lol\xe2\x80\x9d'
p418
I66
sS'dark'
p419
I66
sS'mobbing'
p420
I66
sS"he'll"
p421
I63
sS'kid'
p422
I66
sS'smokey'
p423
I66
sS"mother's"
p424
I66
sS'possessed'
p425
I66
sS'articulos'
p426
I66
sS'tho'
p427
I59
sS'vigan'
p428
I66
sS'greatest'
p429
I66
sS'mother'
p430
I65
sS'the'
p431
I5
sS'smoked'
p432
I65
sS'thc'
p433
I66
sS'jezzzzzzen72'
p434
I66
sS'dads'
p435
I66
sS'eyebrows'
p436
I66
sS'just'
p437
I19
sS'w.e'
p438
I66
sS'yea'
p439
I66
sS'sleepy'
p440
I64
sS'ideas'
p441
I66
sS'thanks'
p442
I60
sS'yes'
p443
I64
sS'yet'
p444
I63
sS'times:)'
p445
I66
sS'vid'
p446
I66
sS'had'
p447
I49
sS'hay'
p448
I66
sS'shout'
p449
I66
sS'reason,90201\n516812230873321472,ovoxo_deeh,2014-09-30'
p450
I66
sS'save'
p451
I65
sS'gave'
p452
I65
sS'gustas'
p453
I64
sS'reyna'
p454
I66
sS'"evil'
p455
I66
sS',90201\n516812868206223360,ovoxo_deeh,2014-09-30'
p456
I66
sS'mis'
p457
I65
sS'dreams'
p458
I66
sS'desire'
p459
I66
sS'brought'
p460
I66
sS'-_-'
p461
I62
sS'test\xe2\x98\xba\xef\xb8\x8f'
p462
I66
sS'pasion'
p463
I66
sS'gandhi'
p464
I66
sS'night'
p465
I56
sS'5$'
p466
I66
sS'right'
p467
I56
sS'old'
p468
I61
sS'ohmygoodness'
p469
I66
sS'deal'
p470
I65
sS'people'
p471
I54
sS'idgaf'
p472
I66
sS'04:46:18.0,33.9683749,-118.1867719,5344.05,this'
p473
I66
sS'rereading'
p474
I66
sS'for'
p475
I17
sS'snapchatted'
p476
I66
sS'a\xe2\x80\xa6'
p477
I64
sS'fox'
p478
I66
sS'ice'
p479
I66
sS'everything'
p480
I61
sS'umm'
p481
I66
sS'carta'
p482
I66
sS'beating'
p483
I66
sS'adorable'
p484
I66
sS'christmas'
p485
I66
sS'05:21:49.0,33.96660487,-118.18636149,5344.05,wtf'
p486
I66
sS'damaso'
p487
I66
sS'breakfastwe'
p488
I66
sS'deleted'
p489
I66
sS'post'
p490
I66
sS'sad\xe2\x80\x9domg'
p491
I66
sS'super'
p492
I65
sS'trophy'
p493
I65
sS'esperamos'
p494
I66
sS'months'
p495
I66
sS'accepts'
p496
I66
sS'o'
p497
I66
sS'08:36:12.0,33.9678187,-118.1857554,5344.05,pinche'
p498
I66
sS'limits\xc2\xae'
p499
I66
sS'raised'
p500
I66
sS'whats'
p501
I66
sS'ferg'
p502
I66
sS'wasting'
p503
I66
sS'selfie'
p504
I66
sS'down'
p505
I52
sS'thankful'
p506
I66
sS'mambo'
p507
I66
sS'soy'
p508
I66
sS'abel'
p509
I66
sS',90201\n454352947665592320,marcus35_,2014-04-10'
p510
I66
sS'salio'
p511
I66
sS'amazingly'
p512
I66
sS'berly'
p513
I64
sS'why'
p514
I47
sS'fucking'
p515
I53
sS'know:o'
p516
I66
sS'way'
p517
I57
sS'greatness'
p518
I66
sS'gio'
p519
I66
sS'gin'
p520
I66
sS'wat'
p521
I61
sS'was'
p522
I19
sS'war'
p523
I66
sS'happy'
p524
I61
sS'head'
p525
I63
sS'\xe2\x9c\x8c\xef\xb8\x8f\xe2\x80\x9d'
p526
I66
sS'batman'
p527
I66
sS'fireworks'
p528
I65
sS'back'
p529
I52
sS'heat'
p530
I66
sS'hear'
p531
I65
sS'dead'
p532
I62
sS'hmmmmmmm'
p533
I66
sS'mercado'
p534
I66
sS'mirada'
p535
I66
sS'true'
p536
I55
sS'vive'
p537
I66
sS'inside'
p538
I66
sS'solos!!\xe2\x80\x9d'
p539
I66
sS'lays'
p540
I66
sS'emotional'
p541
I66
sS'more'
p542
I56
sS'"la'
p543
I66
sS'delete'
p544
I66
sS'proud'
p545
I66
sS'classic'
p546
I66
sS'drive'
p547
I63
sS'guessed'
p548
I66
sS'checc'
p549
I66
sS'bday\xe2\x80\xa6'
p550
I66
sS'tardes'
p551
I62
sS'awhile'
p552
I66
sS'annoying'
p553
I65
sS'check'
p554
I64
sS'shit'
p555
I40
sS'ni'
p556
I65
sS'pistadera'
p557
I66
sS'dying'
p558
I65
sS'floor'
p559
I66
sS'na'
p560
I65
sS'nd'
p561
I65
sS'anyday'
p562
I66
sS'reality'
p563
I66
sS'til'
p564
I66
sS'pasadena'
p565
I66
sS'papers'
p566
I66
sS'np'
p567
I66
sS'tie'
p568
I65
sS'roll'
p569
I66
sS'picture'
p570
I63
sS'23:41:36.0,33.96999382,-118.18799914,5344.05,dos'
p571
I66
sS'stoky'
p572
I66
sS'phoenix'
p573
I66
sS'surprise'
p574
I65
sS'felt'
p575
I66
sS"let's"
p576
I64
sS'fell'
p577
I65
sS'modelo'
p578
I66
sS'low\xe2\x80\x9d'
p579
I66
sS'weekend'
p580
I61
sS'died'
p581
I66
sS'logre'
p582
I66
sS'tweeting'
p583
I66
sS'cheated'
p584
I66
sS'dicho'
p585
I66
sS'teeth'
p586
I65
sS'songs'
p587
I65
sS':/'
p588
I66
sS':('
p589
I65
sS':*'
p590
I65
sS'milf'
p591
I65
sS'manager'
p592
I66
sS'menos'
p593
I66
sS'/'
p594
I65
sS'mila'
p595
I66
sS'norwalk'
p596
I66
sS'21st'
p597
I66
sS'ves'
p598
I65
sS'finally'
p599
I66
sS'2pac'
p600
I66
sS'lmaoo'
p601
I66
sS'me'
p602
I8
sS':o'
p603
I66
sS'jerk'
p604
I66
sS':d'
p605
I64
sS'14:11:02.0,33.96636744,-118.1863402,5344.05,universal'
p606
I66
sS'tacos'
p607
I66
sS"bae's"
p608
I66
sS':x'
p609
I66
sS',90201\n414223559842877440,hperez323,2013-12-21'
p610
I66
sS'join'
p611
I66
sS'trouble'
p612
I66
sS'minute'
p613
I66
sS'cool'
p614
I61
sS'foo'
p615
I63
sS'olvidarte"'
p616
I66
sS'=d'
p617
I66
sS'did'
p618
I57
sS'die'
p619
I61
sS'dia'
p620
I64
sS'leave'
p621
I62
sS'soooo'
p622
I65
sS'team'
p623
I59
sS'quick'
p624
I63
sS'guy'
p625
I61
sS'salu2\xe2\x9c\x8c\xef\xb8\x8fsaw'
p626
I66
sS'minion'
p627
I66
sS'bf'
p628
I64
sS'magee'
p629
I66
sS'run'
p630
I65
sS'pedo'
p631
I66
sS'bake'
p632
I63
sS'bruhhhh'
p633
I66
sS'late?me:because'
p634
I66
sS'corazon'
p635
I66
sS'flaco'
p636
I66
sS'goes'
p637
I63
sS'reply'
p638
I62
sS'falling'
p639
I65
sS'staff'
p640
I66
sS'oldies'
p641
I66
sS'bi'
p642
I66
sS'water'
p643
I66
sS'slow'
p644
I63
sS'hoarse'
p645
I66
sS'50cent'
p646
I66
sS'teacher'
p647
I66
sS'change'
p648
I65
sS'wait'
p649
I52
sS'box'
p650
I63
sS'boy'
p651
I57
sS'billhey\xe2\x80\xa6'
p652
I66
sS'yessss'
p653
I66
sS'healthy'
p654
I66
sS'lakers'
p655
I64
sS'next.\xe2\x80\x9d'
p656
I66
sS'wrongdreams'
p657
I66
sS'boo'
p658
I65
sS'usually'
p659
I66
sS'weird'
p660
I66
sS'puttin'
p661
I66
sS'love'
p662
I44
sS'bs'
p663
I66
sS'prefer'
p664
I66
sS',90201\n513438675439329280,tonesterrr13,2014-09-20'
p665
I66
sS'fake'
p666
I63
sS'\xe2\x9d\xa4\xef\xb8\x8flol'
p667
I66
sS'market'
p668
I64
sS'everybody'
p669
I65
sS'working'
p670
I66
sS'prove'
p671
I65
sS'positive'
p672
I66
sS'dude'
p673
I63
sS'by'
p674
I59
sS'live'
p675
I59
sS'wood'
p676
I63
sS'iphone'
p677
I66
sS'thru'
p678
I62
sS'angels'
p679
I66
sS'today'
p680
I26
sS'loving'
p681
I65
sS'yourself\xe2\x80\xa6'
p682
I66
sS'acceptable'
p683
I66
sS'espero'
p684
I61
sS'everywhere'
p685
I66
sS'behalf'
p686
I66
sS'fly'
p687
I66
sS"tia's"
p688
I66
sS'caile'
p689
I66
sS'anything'
p690
I62
sS'pidio'
p691
I65
sS'niggas'
p692
I56
sS'car'
p693
I66
sS'pretend'
p694
I66
sS'us!\xe2\x80\x9d'
p695
I66
sS'wallet'
p696
I66
sS'08:38:52.0,33.9678187,-118.1857554,5344.05,no'
p697
I66
sS'can'
p698
I52
sS'kendrick'
p699
I66
sS'big"'
p700
I66
sS'making'
p701
I62
sS'niggah'
p702
I66
sS'heart'
p703
I65
sS'crazy'
p704
I61
sS"didn't"
p705
I60
sS'fuck'
p706
I34
sS'heard'
p707
I66
sS'time,90201\n501209397851217921,billy_cesar,2014-08-18'
p708
I66
sS'partay'
p709
I65
sS'esko'
p710
I65
sS'stole'
p711
I66
sS'pink'
p712
I66
sS'drama'
p713
I66
sS'04:12:11.0,33.96692987,-118.17855949,5344.05,brb'
p714
I66
sS'productivo'
p715
I65
sS'means'
p716
I66
sS'1'
p717
I62
sS'till'
p718
I61
sS'sunday'
p719
I64
sS'pure'
p720
I66
sS'mananitas'
p721
I66
sS'nonstop'
p722
I66
sS'josue'
p723
I66
sS'mas'
p724
I65
sS'"there\'s'
p725
I65
sS'may'
p726
I65
sS'snl'
p727
I65
sS'spot'
p728
I65
sS'mac'
p729
I65
sS'birthday'
p730
I61
sS'mad'
p731
I58
sS'hombre'
p732
I66
sS'such'
p733
I66
sS'suck'
p734
I66
sS'whaaaa'
p735
I66
sS'guys'
p736
I62
sS'?"'
p737
I66
sS'man'
p738
I56
sS'classroom'
p739
I66
sS'remember'
p740
I66
sS'tbh'
p741
I48
sS'maybe'
p742
I60
sS'-_-*looks'
p743
I66
sS'amarga'
p744
I66
sS'q'
p745
I65
sS'si'
p746
I65
sS'so'
p747
I15
sS'swollen'
p748
I66
sS'basket'
p749
I65
sS'pulled'
p750
I66
sS'se'
p751
I61
sS'cute'
p752
I57
sS'drying'
p753
I66
sS'food'
p754
I63
sS'indeed'
p755
I66
sS'haircut'
p756
I62
sS'years'
p757
I66
sS'shake'
p758
I66
sS'salu2\xe2\x9c\x8c\xef\xb8\x8fmi'
p759
I66
sS'orgullo'
p760
I66
sS'cold'
p761
I64
sS'still'
p762
I41
sS'birds'
p763
I66
sS'ethic'
p764
I66
sS'group'
p765
I66
sS'thank'
p766
I64
sS'accordion'
p767
I65
sS'lieing'
p768
I66
sS'interesting'
p769
I66
sS'toro'
p770
I66
sS'tweets'
p771
I66
sS'ahh'
p772
I66
sS'happened'
p773
I63
sS'moms'
p774
I66
sS'killer'
p775
I66
sS'lunch'
p776
I66
sS'touching'
p777
I65
sS'half'
p778
I62
sS'not'
p779
I35
sS'now'
p780
I47
sS'ahaha'
p781
I66
sS'killed'
p782
I64
sS'nos'
p783
I66
sS'frank..?what'
p784
I66
sS'name'
p785
I66
sS'sophomore'
p786
I65
sS'beach'
p787
I63
sS'times'
p788
I66
sS'drop'
p789
I64
sS'hoy'
p790
I66
sS'em'
p791
I65
sS'el'
p792
I59
sS'en'
p793
I64
sS'lowkey'
p794
I66
sS'yeah'
p795
I53
sS'catching'
p796
I66
sS'ex'
p797
I65
sS'year'
p798
I64
sS'too*well'
p799
I66
sS'ft'
p800
I65
sS'girl'
p801
I49
sS'obsession'
p802
I66
sS'es'
p803
I66
sS'album'
p804
I65
sS":'("
p805
I66
sS'and\xe2\x80\xa6'
p806
I66
sS'beauty'
p807
I66
sS'space'
p808
I65
sS'truly'
p809
I66
sS'looking'
p810
I63
sS'seriously'
p811
I65
sS'miles'
p812
I66
sS"shouldn't"
p813
I66
sS'nudes'
p814
I66
sS'peirna'
p815
I66
sS'potreros'
p816
I66
sS'shows'
p817
I66
sS'lag'
p818
I66
sS'happen\xe2\x80\xa6'
p819
I66
sS'boobs'
p820
I66
sS'quite'
p821
I65
sS'avia'
p822
I66
sS'bsjo'
p823
I66
sS'6:23'
p824
I66
sS'12:10'
p825
I66
sS'keith'
p826
I66
sS'care'
p827
I60
sS'roosters'
p828
I66
sS'guste'
p829
I62
sS'yup'
p830
I66
sS'cube'
p831
I66
sS'yur'
p832
I60
sS'fb'
p833
I66
sS'chevy'
p834
I65
sS'thing'
p835
I64
sS'place'
p836
I66
sS'yess'
p837
I61
sS'think'
p838
I53
sS'shirt-.-'
p839
I66
sS'first'
p840
I63
sS'xo'
p841
I66
sS'xd'
p842
I64
sS'one'
p843
I54
sS'04:25:19.0,33.9672777,-118.18026387,5344.05,i'
p844
I66
sS'fija'
p845
I66
sS'long'
p846
I64
sS'tenia'
p847
I66
sS'spanish'
p848
I63
sS'sounds'
p849
I62
sS'lags'
p850
I66
sS'george'
p851
I66
sS"'em"
p852
I66
sS'city'
p853
I66
sS'little'
p854
I62
sS'district'
p855
I66
sS'stuck'
p856
I66
sS'bite'
p857
I66
sS'slept'
p858
I64
sS'sinatra"'
p859
I66
sS'fml'
p860
I66
sS'2'
p861
I62
sS'trixxx_92'
p862
I66
sS'llegan'
p863
I65
sS'williams'
p864
I66
sS',90201\n498749713051426817,ovoxo_deeh,2014-08-11'
p865
I66
sS'eyes'
p866
I62
sS'that'
p867
I12
sS'season'
p868
I66
sS'wax'
p869
I66
sS'huh'
p870
I64
sS'alan'
p871
I66
sS'cops'
p872
I63
sS'bajo'
p873
I65
sS'butt'
p874
I66
sS'probably'
p875
I66
sS'un\xe2\x80\xa6'
p876
I66
sS'titans'
p877
I66
sS'10'
p878
I64
sS'cracks'
p879
I66
sS'15'
p880
I65
sS'lmao'
p881
I45
sS'gotta'
p882
I57
sS'karate'
p883
I66
sS'future'
p884
I65
sS'1%'
p885
I66
sS'were'
p886
I60
sS'havnt'
p887
I66
sS'and'
p888
I14
sS'ano'
p889
I66
sS'argument'
p890
I66
sS'sad'
p891
I65
sS'say'
p892
I54
sS'loki'
p893
I66
sS'rent'
p894
I66
sS'above[all]limits'
p895
I66
sS'turner'
p896
I66
sS'saw'
p897
I63
sS'any'
p898
I64
sS'sat'
p899
I66
sS'wcw'
p900
I63
sS'"asi\xe2\x80\xa6'
p901
I66
sS'aside'
p902
I66
sS'omfg'
p903
I65
sS'squad'
p904
I62
sS'take'
p905
I56
sS'(cudahy'
p906
I65
sS'blunt'
p907
I61
sS'surf'
p908
I66
sS'mambo\xe2\x84\xa2'
p909
I66
sS'sure'
p910
I64
sS'pain'
p911
I64
sS'track'
p912
I64
sS'knew'
p913
I65
sS'00:50:56.0,33.96488677,-118.17913804,5344.05,this'
p914
I66
sS'jajajaja'
p915
I66
sS'knee'
p916
I66
sS'america'
p917
I65
sS'forever'
p918
I66
sS'lawd'
p919
I66
sS'babby'
p920
I66
sS'lates'
p921
I66
sS'later'
p922
I61
sS'hungry'
p923
I60
sS'tooth'
p924
I66
sS'08:42:00.0,33.9678187,-118.1857554,5344.05,i'
p925
I66
sS'nonelol'
p926
I66
sS'lol,90201\n498750852257968129,ovoxo_deeh,2014-08-11'
p927
I66
sS'senior'
p928
I66
sS'damnn'
p929
I66
sS'walking'
p930
I61
sS'show'
p931
I60
sS'estoy'
p932
I66
sS'corner'
p933
I66
sS'estos'
p934
I66
sS'takin'
p935
I66
sS'felecidades'
p936
I66
sS'aint'
p937
I65
sS'espero\xe2\x80\xa6'
p938
I66
sS'upgrade'
p939
I66
sS'04:43:00.0,33.96396396,-118.18098002,5344.05,that'
p940
I66
sS'dick'
p941
I66
sS'saints'
p942
I66
sS'outside'
p943
I66
sS'either'
p944
I66
sS'only'
p945
I58
sS'going'
p946
I23
sS'believing'
p947
I66
sS'bored.\xe2\x80\x9dso'
p948
I66
sS'"trata'
p949
I66
sS'get'
p950
I27
sS'mission'
p951
I65
sS'killers'
p952
I66
sS'lighter'
p953
I66
sS'unidos'
p954
I66
sS'awwwww'
p955
I64
sS'morning'
p956
I56
sS'naked'
p957
I66
sS'stupid'
p958
I62
sS'scott'
p959
I66
sS'where'
p960
I62
sS'concert'
p961
I66
sS'encourages'
p962
I66
sS'mom'
p963
I54
sS'50cent"yur'
p964
I66
sS'gangster'
p965
I66
sS'asleep'
p966
I62
sS'parking'
p967
I66
sS'calendar'
p968
I66
sS'estamos'
p969
I66
sS'wonder'
p970
I63
sS'*looks'
p971
I66
sS',90201\n434127016028172288,stupid_noemi,2014-02-14'
p972
I66
sS'when???,90201\n462804815697805313,rycook32,2014-05-04'
p973
I66
sS'3'
p974
I66
sS'between'
p975
I66
sS'reading'
p976
I66
sS'24'
p977
I66
sS'notice'
p978
I66
sS'august'
p979
I66
sS'jt'
p980
I66
sS'screen'
p981
I66
sS'18:42:04.0,33.96999382,-118.18799914,5344.05,wat'
p982
I66
sS'killing'
p983
I66
sS'muchachas'
p984
I66
sS'hurts'
p985
I62
sS'tub'
p986
I65
sS'come'
p987
I51
sS'whateverz'
p988
I66
sS'marlon'
p989
I66
sS'lol,90201\n531532862177030144,tonesterrr13,2014-11-09'
p990
I66
sS'many'
p991
I65
sS'present'
p992
I66
sS'roof'
p993
I66
sS"can't"
p994
I45
sS'comer'
p995
I66
sS'cancer'
p996
I66
sS'jk'
p997
I63
sS'por'
p998
I61
sS'period'
p999
I64
sS'pop'
p1000
I66
sS'nooooo'
p1001
I66
sS"couldn't"
p1002
I63
sS'50+'
p1003
I66
sS'capable'
p1004
I66
sS'west'
p1005
I65
sS',90201\n498752162898272256,ovoxo_deeh,2014-08-11'
p1006
I66
sS'vacation'
p1007
I65
sS'08:40:44.0,33.9678187,-118.1857554,5344.05,complained'
p1008
I66
sS'sesh'
p1009
I56
sS'mary'
p1010
I66
sS'schoolboy'
p1011
I65
sS'wants'
p1012
I65
sS'i\xe2\x80\xa6'
p1013
I66
sS'shopping'
p1014
I66
sS'"frank'
p1015
I66
sS'blessing'
p1016
I66
sS'rubi'
p1017
I66
sS'way.\xe2\x80\x9d'
p1018
I66
sS'wake'
p1019
I56
sS'adonde'
p1020
I66
sS'argentina'
p1021
I58
sS'robber'
p1022
I66
sS'case'
p1023
I66
sS'myself'
p1024
I61
sS'these'
p1025
I62
sS'running-no'
p1026
I66
sS'trick'
p1027
I66
sS'everywere'
p1028
I66
sS'23:11:54.0,33.96729979,-118.18299196,5344.05,i'
p1029
I66
sS'muchachos'
p1030
I66
sS'ive'
p1031
I62
sS"drake's"
p1032
I66
sS'acento'
p1033
I66
sS'mixtape'
p1034
I66
sS'bros'
p1035
I65
sS'sleeping'
p1036
I65
sS'conejito'
p1037
I66
sS'someone'
p1038
I55
sS'everyday'
p1039
I64
sS'worry'
p1040
I66
sS'different'
p1041
I62
sS'doctor'
p1042
I66
sS'pay'
p1043
I65
sS'bowl'
p1044
I66
sS'admit'
p1045
I66
sS'same'
p1046
I62
sS'ya'
p1047
I63
sS'"i'
p1048
I66
sS'downs'
p1049
I66
sS'todos'
p1050
I66
sS'week'
p1051
I58
sS'finish'
p1052
I64
sS'machetiarla'
p1053
I66
sS'pidio\xe2\x80\xa6'
p1054
I66
sS'weed'
p1055
I60
sS'calacas1'
p1056
I66
sS',90201\n498747279654674434,ovoxo_deeh,2014-08-11'
p1057
I66
sS'tapatio'
p1058
I66
sS'totally'
p1059
I66
sS'mentally'
p1060
I66
sS'\xe2\x9c\x8c\xef\xb8\x8f'
p1061
I66
sS'nn'
p1062
I62
sS'band'
p1063
I66
sS'no'
p1064
I34
sS'without'
p1065
I66
sS'very'
p1066
I63
sS'bumping'
p1067
I66
sS'murda'
p1068
I66
sS'amazed'
p1069
I66
sS"you've"
p1070
I66
sS'summer'
p1071
I64
sS'\xe2\x98\xba\xef\xb8\x8f'
p1072
I57
sS'fester'
p1073
I66
sS'being'
p1074
I61
sS'money'
p1075
I62
sS'rest'
p1076
I66
sS'rude?"'
p1077
I66
sS'kill'
p1078
I65
sS'touch'
p1079
I66
sS'okay?"'
p1080
I66
sS'speed'
p1081
I66
sS'ps4'
p1082
I65
sS'halfway'
p1083
I66
sS'death'
p1084
I66
sS'thinking'
p1085
I64
sS'seems'
p1086
I64
sS'lets'
p1087
I66
sS'4'
p1088
I65
sS'pill'
p1089
I66
sS'ross'
p1090
I66
sS'real'
p1091
I57
sS'begginning'
p1092
I66
sS'around'
p1093
I63
sS'amo'
p1094
I66
sS'read'
p1095
I66
sS'gonna'
p1096
I63
sS'early'
p1097
I45
sS'test'
p1098
I65
sS'killa'
p1099
I66
sS'seahawks'
p1100
I66
sS'\xe2\x9d\xa4'
p1101
I64
sS'tanto'
p1102
I66
sS'world'
p1103
I53
sS'cd'
p1104
I66
sS'lady'
p1105
I66
sS'in-n-out'
p1106
I66
sS'homegirl'
p1107
I66
sS'yuh\xe2\x80\xa6'
p1108
I66
sS'thighs'
p1109
I66
sS'whatcha'
p1110
I66
sS'booooty'
p1111
I66
sS'clap'
p1112
I66
sS'carher'
p1113
I66
sS';p'
p1114
I66
sS'learning'
p1115
I65
sS'coma,90201\n497884735209607168,jaavier14_,2014-08-08'
p1116
I66
sS'cowboys'
p1117
I64
sS'yesss'
p1118
I66
sS'brothers'
p1119
I66
sS'gross'
p1120
I66
sS'outs'
p1121
I64
sS'mood'
p1122
I63
sS'91%'
p1123
I66
sS'memories'
p1124
I66
sS'fucking\xe2\x80\xa6'
p1125
I66
sS'outa'
p1126
I66
sS'knife'
p1127
I66
sS'hustle'
p1128
I66
sS'welcome'
p1129
I66
sS'power'
p1130
I66
sS'asap'
p1131
I64
sS'lmfao'
p1132
I45
sS'nails'
p1133
I66
sS'corridos"'
p1134
I66
sS'vains'
p1135
I66
sS'throw'
p1136
I66
sS'be\xe2\x80\xa6'
p1137
I66
sS'on'
p1138
I20
sS'ol'
p1139
I66
sS'ok'
p1140
I65
sS'oh'
p1141
I56
sS'bong'
p1142
I64
sS'favorite'
p1143
I62
sS'stand'
p1144
I64
sS'delirio'
p1145
I66
sS'luck'
p1146
I65
sS'or'
p1147
I50
sS'confidence'
p1148
I65
sS'amber'
p1149
I66
sS'muchacho'
p1150
I66
sS'08:28:51.0,33.9678187,-118.1857554,5344.05,gn.,90201\n498747669406154752,ovoxo_deeh,2014-08-11'
p1151
I66
sS'snapchat'
p1152
I60
sS'officially'
p1153
I66
sS'jasper'
p1154
I66
sS'heated'
p1155
I66
sS'valuable'
p1156
I66
sS'your'
p1157
I30
sS'her'
p1158
I56
sS'there'
p1159
I48
sS'hey'
p1160
I66
sS'lol'
p1161
I9
sS'lmfaooo'
p1162
I66
sS'los'
p1163
I62
sS'low'
p1164
I58
sS'lot'
p1165
I60
sS'uuuup'
p1166
I66
sS'kiwii_letal'
p1167
I66
sS'asfuck'
p1168
I66
sS'6:40'
p1169
I66
sS'trey'
p1170
I66
sS'enough'
p1171
I66
sS'chata'
p1172
I66
sS'texted'
p1173
I66
sS'trying'
p1174
I62
sS'with'
p1175
I21
sS'yayo'
p1176
I66
sS'handsome'
p1177
I64
sS'esther'
p1178
I66
sS'october'
p1179
I65
sS"wasn't"
p1180
I66
sS'kompa'
p1181
I59
sS'dirty'
p1182
I64
sS'summin'
p1183
I66
sS'connect'
p1184
I66
sS'gone'
p1185
I66
sS'ohh'
p1186
I64
sS'gona'
p1187
I66
sS'muzzy'
p1188
I66
sS'af'
p1189
I33
sS'taste'
p1190
I66
sS'ah'
p1191
I65
sS'am'
p1192
I23
sS'al'
p1193
I66
sS'an'
p1194
I56
sS'imagination'
p1195
I66
sS'tengo'
p1196
I65
sS',90201\n498752541325144065,ovoxo_deeh,2014-08-11'
p1197
I66
sS'at'
p1198
I34
sS'planets'
p1199
I66
sS'ay'
p1200
I60
sS'graining'
p1201
I64
sS'fill'
p1202
I66
sS'again'
p1203
I59
sS'amendments'
p1204
I66
sS'that,90201\n498751802049712128,ovoxo_deeh,2014-08-11'
p1205
I66
sS'idiot'
p1206
I64
sS'rubber'
p1207
I66
sS'twerk'
p1208
I64
sS'you'
p1209
I6
sS'poop'
p1210
I66
sS'time'
p1211
I52
sS',90201\n498750383573827585,ovoxo_deeh,2014-08-11'
p1212
I66
sS'04:05:10.0,33.96999382,-118.18799914,5344.05,new'
p1213
I66
sS'diablo'
p1214
I66
sS'fresh'
p1215
I65
sS'chris'
p1216
I65
sS'grupo'
p1217
I64
sS'pool'
p1218
I65
sS'calls'
p1219
I66
sS'invest'
p1220
I66
sS'wifi'
p1221
I65
sS'yo"'
p1222
I66
sS'vines'
p1223
I65
sS'cbass'
p1224
I65
sS'plebada\xe2\x80\xa6'
p1225
I66
sS'u'
p1226
I58
sS'alright'
p1227
I64
sS'puso'
p1228
I66
sS'starting'
p1229
I64
sS'strings'
p1230
I66
sS'jaja'
p1231
I65
sS'all'
p1232
I28
sS'forget'
p1233
I65
sS'chinese'
p1234
I64
sS'messi'
p1235
I64
sS'instincts'
p1236
I66
sS'month'
p1237
I65
sS'follow'
p1238
I65
sS'everyones'
p1239
I64
sS'habla'
p1240
I66
sS'imma'
p1241
I65
sS'tu'
p1242
I64
sS'thursday'
p1243
I66
sS'laughing'
p1244
I66
sS'to'
p1245
I3
sS'those'
p1246
I63
sS'smile'
p1247
I64
sS'te'
p1248
I64
sS'tb'
p1249
I65
sS'trigga'
p1250
I66
sS'woman'
p1251
I65
sS'song'
p1252
I62
sS'far'
p1253
I62
sS'horror'
p1254
I66
sS'fat'
p1255
I63
sS'selfies'
p1256
I66
sS'worst'
p1257
I64
sS'avento'
p1258
I65
sS'fam'
p1259
I64
sS'difference'
p1260
I66
sS'trippin'
p1261
I66
sS'randomness'
p1262
I66
sS'drugged'
p1263
I66
sS'lmao,90201\n479652892526133249,rachelle3janos,2014-06-19'
p1264
I66
sS'21:17:48.0,33.96999382,-118.18799914,5344.05,a'
p1265
I66
sS'small'
p1266
I65
sS'dodger'
p1267
I66
sS',90201\n493593729953832961,virginiaaa__,2014-07-28'
p1268
I66
sS"i'll"
p1269
I66
sS'seshs'
p1270
I66
sS'cookies'
p1271
I66
sS'instagram'
p1272
I66
sS'tea'
p1273
I66
sS'jovenes'
p1274
I66
sS'pendientes'
p1275
I66
sS'past'
p1276
I66
sS'burger'
p1277
I66
sS'zero'
p1278
I66
sS'chingon'
p1279
I66
sS'rato'
p1280
I66
sS'jesus'
p1281
I66
sS'harden'
p1282
I66
sS'what'
p1283
I29
sS'sub'
p1284
I66
sS':****'
p1285
I66
sS'nana'
p1286
I66
sS'nanc'
p1287
I65
sS'coronel'
p1288
I66
sS'fuckn'
p1289
I65
sS'diaz'
p1290
I64
sS'sup'
p1291
I66
sS'method'
p1292
I66
sS'04:50:12.0,33.9683749,-118.1867719,5344.05,ohhhh'
p1293
I66
sS'full'
p1294
I61
sS'ma'
p1295
I66
sS'i.d'
p1296
I66
sS'08:26:32.0,33.9678187,-118.1857554,5344.05,niggas'
p1297
I66
sS'valv'
p1298
I66
sS'search'
p1299
I66
sS'bible'
p1300
I65
sS'mothafuuckka'
p1301
I66
sS'creepy'
p1302
I64
sS'pics'
p1303
I64
sS'milkshake'
p1304
I66
sS'pick'
p1305
I64
sS'action'
p1306
I64
sS'mentions'
p1307
I66
sS'myboii'
p1308
I66
sS'struggle'
p1309
I66
sS'trainer'
p1310
I66
sS'family'
p1311
I63
sS'put'
p1312
I64
sS'buenas'
p1313
I62
sS'armed'
p1314
I66
sS'asi'
p1315
I66
sS'texting'
p1316
I65
sS'two'
p1317
I57
sS'6'
p1318
I66
sS'helps'
p1319
I65
sS'ciggs'
p1320
I66
sS'door'
p1321
I65
sS'knows'
p1322
I66
sS'mi\xe2\x80\xa6'
p1323
I66
sS'yahh'
p1324
I66
sS'vamonos\xe2\x80\xa6'
p1325
I66
sS"ain't"
p1326
I61
sS'basically'
p1327
I66
sS'dios'
p1328
I65
sS'youuuuu'
p1329
I66
sS'glad'
p1330
I66
sS'none'
p1331
I64
sS'hour'
p1332
I64
sS'watchu'
p1333
I66
sS'sucks'
p1334
I65
sS'nina'
p1335
I66
sS'mall'
p1336
I64
sS'sudden'
p1337
I66
sS'del'
p1338
I66
sS'learn'
p1339
I66
sS'knocked'
p1340
I66
sS'history'
p1341
I66
sS'beautiful'
p1342
I64
sS'embarrassing'
p1343
I64
sS'brown'
p1344
I66
sS'rodriguez'
p1345
I66
sS'"mini'
p1346
I66
sS"'97"
p1347
I66
sS'hours*'
p1348
I66
sS'salty'
p1349
I66
sS'partner'
p1350
I66
sS'dress'
p1351
I66
sS'huge'
p1352
I66
sS'needs'
p1353
I66
sS'partesita'
p1354
I66
sS'goal'
p1355
I61
sS'rather'
p1356
I66
sS'breaking'
p1357
I66
sS'stayed'
p1358
I66
sS'musica'
p1359
I66
sS'buenos'
p1360
I65
sS'plant'
p1361
I66
sS'sandwich'
p1362
I66
sS'okay'
p1363
I60
sS'soltero'
p1364
I66
sS'rude'
p1365
I66
sS'pisteadera'
p1366
I66
sS'soltera'
p1367
I66
sS'are.\xe2\x80\x9d'
p1368
I66
sS'upload'
p1369
I66
sS'tries'
p1370
I66
sS'jajaja'
p1371
I65
sS'numb'
p1372
I66
sS'coming'
p1373
I63
sS'a'
p1374
I7
sS'barba'
p1375
I66
sS'doritos'
p1376
I65
sS'bizness'
p1377
I66
sS'store,90201\n495745852606926848,rfelixjr72,2014-08-03'
p1378
I66
sS'secs'
p1379
I66
sS'dream'
p1380
I66
sS'playing'
p1381
I62
sS"that's"
p1382
I41
sS'carmelo'
p1383
I66
sS'budss'
p1384
I66
sS"don't"
p1385
I35
sS'brotha'
p1386
I66
sS'sooo'
p1387
I65
sS'soon'
p1388
I59
sS'paper'
p1389
I66
sS'through'
p1390
I65
sS'encartado'
p1391
I66
sS'hell'
p1392
I63
sS'its'
p1393
I53
sS'5:30'
p1394
I66
sS'?\xe2\x80\x9d73\xe2\x80\x9ddamm'
p1395
I66
sS'27'
p1396
I66
sS'20'
p1397
I64
sS'call'
p1398
I57
sS'pray'
p1399
I65
sS'beyonce'
p1400
I65
sS'actually'
p1401
I66
sS'late'
p1402
I65
sS'dammn'
p1403
I66
sS'isaac'
p1404
I66
sS'bout'
p1405
I61
sS'soccer'
p1406
I66
sS'might'
p1407
I61
sS"haven't"
p1408
I65
sS'fool'
p1409
I66
sS'good'
p1410
I40
sS'yo'
p1411
I59
sS'thugster'
p1412
I66
sS'sucker'
p1413
I66
sS',90201\n428930498354626560,noxiousadictive,2014-01-30'
p1414
I66
sS'starbucks'
p1415
I64
sS'inception'
p1416
I66
sS'iced'
p1417
I66
sS'wash'
p1418
I66
sS'always'
p1419
I48
sS'yellows'
p1420
I66
sS'drake'
p1421
I66
sS'bless'
p1422
I66
sS'legend'
p1423
I66
sS'stopped'
p1424
I66
sS'metweet'
p1425
I66
sS'found'
p1426
I66
sS'awareness'
p1427
I66
sS"isn't"
p1428
I66
sS'everyone'
p1429
I61
sS'weeknd'
p1430
I64
sS',90201\n523936153473282048,tonesterrr13,2014-10-19'
p1431
I66
sS'house'
p1432
I53
sS'fish'
p1433
I66
sS'hard'
p1434
I61
sS',90201\n498746890817523713,ovoxo_deeh,2014-08-11'
p1435
I66
sS'gun'
p1436
I66
sS'toda'
p1437
I65
sS'expect'
p1438
I66
sS'todo'
p1439
I66
sS'event'
p1440
I66
sS'really'
p1441
I56
sS'takeing'
p1442
I65
sS'00:48:40.0,33.96491497,-118.17964456,5344.05,omg'
p1443
I66
sS'loooooove'
p1444
I66
sS'since'
p1445
I62
sS'wonderer'
p1446
I66
sS'acting'
p1447
I62
sS'health'
p1448
I66
sS'hood'
p1449
I66
sS'7'
p1450
I65
sS'\xe2\x99\xa3\xef\xb8\x8f\xe2\x80\x9d'
p1451
I66
sS'ass'
p1452
I42
sS'*changes'
p1453
I66
sS'drink'
p1454
I66
sS'causally'
p1455
I66
sS'friday'
p1456
I61
sS'guess'
p1457
I59
sS'reason'
p1458
I66
sS'asf'
p1459
I66
sS'ask'
p1460
I64
sS'teach'
p1461
I65
sS'bumped'
p1462
I66
sS'benefits'
p1463
I66
sS"actin'"
p1464
I66
sS'w'
p1465
I65
sS'virgin'
p1466
I66
sS'dont'
p1467
I47
sS'feel'
p1468
I57
sS'number'
p1469
I66
sS'thanks<3(;,90201\n505394794927890432,jaavier14_,2014-08-29'
p1470
I66
sS'carnales'
p1471
I66
sS'done'
p1472
I62
sS'says'
p1473
I65
sS'miss'
p1474
I59
sS'tovi'
p1475
I66
sS'story'
p1476
I62
sS'"'
p1477
I62
sS'a$ap'
p1478
I66
sS'least'
p1479
I66
sS'jeo'
p1480
I66
sS'temptations'
p1481
I66
sS',90201\n495439305595453441,vicpdxtor,2014-08-02'
p1482
I66
sS'selling'
p1483
I66
sS'36\xe2\x80\xa6'
p1484
I66
sS'para'
p1485
I61
sS'behind'
p1486
I66
sS'likes\xe2\x80\xa6'
p1487
I66
sS'dentist'
p1488
I66
sS'part'
p1489
I63
sS'ashley'
p1490
I66
sS'believe'
p1491
I65
sS'surfboard'
p1492
I64
sS'king'
p1493
I65
sS'kind'
p1494
I64
sS'b'
p1495
I66
sS'persuing'
p1496
I66
sS'grocers'
p1497
I63
sS'knapp'
p1498
I66
sS'bridy'
p1499
I66
sS'08:47:12.0,33.9685221,-118.186671,5344.05,remember'
p1500
I66
sS'architect'
p1501
I66
sS'dang'
p1502
I65
sS'traviesa'
p1503
I66
sS'toe'
p1504
I66
sS'outta'
p1505
I66
sS'o-o'
p1506
I66
sS'randomly'
p1507
I66
sS'juice'
p1508
I65
sS'fohhh'
p1509
I66
sS'lie'
p1510
I64
sS'nights'
p1511
I65
sS'relationship'
p1512
I66
sS'clutch'
p1513
I65
sS'lil'
p1514
I61
sS'self'
p1515
I60
sS'&&\xe2\x80\xa6'
p1516
I66
sS'makers'
p1517
I66
sS'also'
p1518
I66
sS'pendeja,90201\n456667608087928832,ohines__,2014-04-17'
p1519
I66
sS'lip'
p1520
I66
sS'weekend?,90201\n363677702655451137,sweetthing_92,2013-08-03'
p1521
I66
sS'play'
p1522
I64
sS'brushes'
p1523
I66
sS'park'
p1524
I66
sS'most'
p1525
I66
sS'encantas'
p1526
I66
sS'experiences'
p1527
I66
sS'eaten'
p1528
I66
sS'wive'
p1529
I66
sS'nothing'
p1530
I63
sS'11:11'
p1531
I65
sS'understands'
p1532
I66
sS'my\xe2\x80\xa6'
p1533
I66
sS'ke'
p1534
I55
sS'gaby'
p1535
I66
sS'sanababish'
p1536
I66
sS'sometimes'
p1537
I64
sS'clean'
p1538
I62
sS'\xe2\x98\x80\xef\xb8\x8f'
p1539
I66
sS'lol\xe2\x80\x9drt'
p1540
I66
sS'cabrona'
p1541
I66
sS'chlo\xc3\xa9'
p1542
I66
sS'ugh'
p1543
I66
sS'wen\xe2\x80\xa6'
p1544
I66
sS'grandmas'
p1545
I66
sS'yadira'
p1546
I66
sS'session'
p1547
I65
sS'ootd'
p1548
I66
sS'salu2'
p1549
I62
sS'find'
p1550
I59
sS'idiota'
p1551
I66
sS'poppin'
p1552
I66
sS'wayne'
p1553
I65
sS'bitxh'
p1554
I66
sS'pretty'
p1555
I64
sS'08:28:05.0,33.9678187,-118.1857554,5344.05,okay'
p1556
I66
sS'8'
p1557
I65
sS'hip'
p1558
I66
sS'his'
p1559
I58
sS'hit'
p1560
I54
sS'express'
p1561
I66
sS'feels'
p1562
I65
sS'actions'
p1563
I66
sS'during'
p1564
I66
sS'him'
p1565
I56
sS'de\xe2\x80\xa6'
p1566
I66
sS"mohammad's"
p1567
I66
sS'rft'
p1568
I65
sS'cry'
p1569
I65
sS'handshake"'
p1570
I66
sS'x'
p1571
I65
sS'wrote'
p1572
I65
sS'set'
p1573
I66
sS'dump'
p1574
I65
sS'sex'
p1575
I65
sS'see'
p1576
I50
sS'dumb'
p1577
I62
sS'are'
p1578
I39
sS'close'
p1579
I64
sS'paul'
p1580
I66
sS'project'
p1581
I65
sS'movie'
p1582
I65
sS'wow'
p1583
I60
sS'please'
p1584
I66
sS'merry\xe2\x80\xa6'
p1585
I66
sS'fans'
p1586
I66
sS'won'
p1587
I64
sS'02:00:12.0,33.96999382,-118.18799914,5344.05,so'
p1588
I66
sS'nope'
p1589
I65
sS'creating'
p1590
I66
sS'missing'
p1591
I66
sS'pisses'
p1592
I66
sS'attention'
p1593
I66
sS'pizzzzzaaa'
p1594
I66
sS'sola'
p1595
I66
sS'coffee'
p1596
I66
sS'"now'
p1597
I66
sS'c'
p1598
I66
sS'last'
p1599
I63
sS'memorized'
p1600
I66
sS"wouldn't"
p1601
I64
sS'pete'
p1602
I66
sS'fish."'
p1603
I66
sS'alot'
p1604
I66
sS'boxers'
p1605
I66
sS'thoe'
p1606
I63
sS'focused'
p1607
I66
sS'protector'
p1608
I66
sS'whole'
p1609
I63
sS'da\xc3\xb1o'
p1610
I66
sS'\xe2\x98\xba'
p1611
I62
sS'point'
p1612
I65
sS'sweet'
p1613
I66
sS'"risk'
p1614
I66
sS'19:44:44.0,33.96529913,-118.17850589,5344.05,ahah'
p1615
I66
sS'whatever'
p1616
I65
sS"hadn't"
p1617
I66
sS'likes'
p1618
I64
sS'sexy'
p1619
I66
sS'duh'
p1620
I65
sS'naps'
p1621
I66
sS'karla'
p1622
I66
sS'reto'
p1623
I66
sS'whos'
p1624
I66
sS'hitting'
p1625
I66
sS'pa'
p1626
I65
sS'damn'
p1627
I62
sS'gone:/'
p1628
I66
sS'damm'
p1629
I57
sS'woke'
p1630
I66
sS'lived'
p1631
I65
sS'fire'
p1632
I66
sS"what's"
p1633
I66
sS'like*'
p1634
I66
sS'else'
p1635
I66
sS'understand'
p1636
I65
sS'look'
p1637
I61
sS'05:05:39.0,33.96755687,-118.18676247,5344.05,finally'
p1638
I66
sS'straight'
p1639
I64
sS'while'
p1640
I61
sS'smart'
p1641
I66
sS'behavior'
p1642
I66
sS'16:36:15.0,33.96999382,-118.18799914,5344.05,buenos'
p1643
I66
sS'robin'
p1644
I66
sS'pack'
p1645
I66
sS'me\xe2\x80\x9dyour'
p1646
I66
sS'thoes'
p1647
I65
sS'hoping'
p1648
I66
sS'04:25:56.0,33.967033,-118.178259,5344.05,we'
p1649
I66
sS'ready'
p1650
I61
sS'crusty'
p1651
I66
sS'alone'
p1652
I64
sS'ohhhh'
p1653
I66
sS'funny'
p1654
I60
sS'esten'
p1655
I66
sS'shirt'
p1656
I59
sS'anymore'
p1657
I66
sS'noooo'
p1658
I66
sS'rules'
p1659
I66
sS'wierd'
p1660
I66
sS'grand'
p1661
I65
sS'9'
p1662
I66
sS'strips'
p1663
I66
sS'yesterday'
p1664
I59
sS'alert'
p1665
I66
sS'moment'
p1666
I64
sS'moving'
p1667
I66
sS'lol,90201\n498750541048999939,ovoxo_deeh,2014-08-11'
p1668
I66
sS'yours'
p1669
I66
sS'kno'
p1670
I59
sS',90201\n493623298014461952,vicpdxtor,2014-07-28'
p1671
I66
sS'picky'
p1672
I66
sS'b.s'
p1673
I66
sS"dad's"
p1674
I66
sS'codeine'
p1675
I66
sS'anybody'
p1676
I62
sS'person'
p1677
I63
sS'flags'
p1678
I64
sS'lol,90201\n498751173701017601,ovoxo_deeh,2014-08-11'
p1679
I66
sS'y'
p1680
I57
sS'cachorros'
p1681
I66
sS'>.<'
p1682
I60
sS'listening'
p1683
I64
sS'gunna'
p1684
I66
sS'openly'
p1685
I66
sS'mob'
p1686
I66
sS'regardless'
p1687
I66
sS'praying'
p1688
I66
sS'opinan'
p1689
I66
sS'letting'
p1690
I65
sS'cut'
p1691
I61
sS'lrds'
p1692
I66
sS'cup'
p1693
I55
sS'guaranteed'
p1694
I66
sS'cux'
p1695
I66
sS'arriba'
p1696
I66
sS'homies'
p1697
I65
sS'snap'
p1698
I63
sS'in.\xe2\x80\x9d'
p1699
I66
sS'ight'
p1700
I66
sS'big'
p1701
I60
sS'couple'
p1702
I65
sS'lovin'
p1703
I66
sS'game'
p1704
I57
sS'bit'
p1705
I61
sS'd'
p1706
I66
sS'08:39:29.0,33.9678187,-118.1857554,5344.05,i'
p1707
I66
sS'emmm'
p1708
I66
sS'segundos.,90201\n495993319160557568,vicpdxtor,2014-08-03'
p1709
I66
sS'me\xe2\x80\x9d'
p1710
I66
sS'judge!d'
p1711
I66
sS'often'
p1712
I64
sS'collectors'
p1713
I66
sS'barba"'
p1714
I66
sS'fathers'
p1715
I66
sS'some'
p1716
I47
sS'somd'
p1717
I66
sS'bounce'
p1718
I65
sS'understood'
p1719
I66
sS'palm'
p1720
I65
sS'curious'
p1721
I66
sS'soms'
p1722
I66
sS'5'
p1723
I61
sS'just*'
p1724
I66
sS'anna'
p1725
I65
sS'nose'
p1726
I64
sS'be'
p1727
I22
sS'16:39:34.0,33.9629695,-118.179531,5344.05,this'
p1728
I66
sS'bg'
p1729
I66
sS'patient'
p1730
I66
sS'rapping'
p1731
I66
sS'bc'
p1732
I66
sS'word'
p1733
I64
sS'kunis'
p1734
I66
sS'305'
p1735
I66
sS'chick'
p1736
I65
sS'raspberry'
p1737
I66
sS'tripping'
p1738
I65
sS'fosho'
p1739
I63
sS'netflix'
p1740
I65
sS'baes'
p1741
I66
sS'awwww'
p1742
I66
sS'idk'
p1743
I60
sS'mouth'
p1744
I66
sS'foshooo'
p1745
I66
sS'wanna'
p1746
I57
sS'idc'
p1747
I64
sS'block'
p1748
I66
sS'seeing'
p1749
I66
sS'pero'
p1750
I65
sS'into'
p1751
I62
sS'momma'
p1752
I65
sS'nigga'
p1753
I34
sS'clack'
p1754
I66
sS'steven'
p1755
I61
sS'ontario'
p1756
I66
sS'.-'
p1757
I63
sS'"el'
p1758
I66
sS'05:42:29.0,33.9672531,-118.1832797,5344.05,now'
p1759
I66
sS'question'
p1760
I66
sS'ca)'
p1761
I65
sS'fast'
p1762
I65
sS'camera'
p1763
I66
sS"we're"
p1764
I66
sS'bruh'
p1765
I64
sS'bored'
p1766
I46
sS'scared'
p1767
I66
sS'-mi\xe2\x80\xa6'
p1768
I66
sS'ojeras'
p1769
I66
sS'invite'
p1770
I65
sS'relaxed'
p1771
I66
sS'specialty'
p1772
I66
sS'cudahy'
p1773
I63
sS'boys'
p1774
I61
sS'._'
p1775
I66
sS'line'
p1776
I64
sS'here,90201\n374387538506444800,_cobos03_,2013-09-02'
p1777
I66
sS'salio\xe2\x80\xa6'
p1778
I66
sS'fries'
p1779
I65
sS'up'
p1780
I21
sS'us'
p1781
I64
sS'ur'
p1782
I66
sS'um'
p1783
I66
sS'un'
p1784
I64
sS'uh'
p1785
I65
sS'faded'
p1786
I66
sS'z'
p1787
I66
sS'called'
p1788
I65
sS'bell'
p1789
I62
sS'vamos\xe2\x80\xa6'
p1790
I66
sS'khloe'
p1791
I66
sS'estilo'
p1792
I66
sS'single'
p1793
I66
sS'chat'
p1794
I65
sS'*love'
p1795
I66
sS'?\xe2\x80\x9dno\xe2\x80\x9dare'
p1796
I66
sS'cotton'
p1797
I66
sS'randy'
p1798
I66
sS'6th'
p1799
I65
sS'lemon'
p1800
I66
sS'nah'
p1801
I62
sS'realest'
p1802
I66
sS'nap'
p1803
I59
sS'23:19:05.0,33.967328,-118.18290571,5344.05,18'
p1804
I66
sS'nice'
p1805
I61
sS'lol,90201\n498751297286184960,ovoxo_deeh,2014-08-11'
p1806
I66
sS'problems'
p1807
I66
sS'great,90201\n531534917457281024,tonesterrr13,2014-11-09'
p1808
I66
sS'adult"'
p1809
I66
sS'earphones'
p1810
I66
sS'ago'
p1811
I65
sS'lic."'
p1812
I66
sS'lane'
p1813
I66
sS'e'
p1814
I65
sS'hell!:('
p1815
I66
sS'daddy,90201\n374387691783090177,_cobos03_,2013-09-02'
p1816
I66
sS'200+'
p1817
I66
sS'annoyed'
p1818
I66
sS'fresa'
p1819
I66
sS"she's"
p1820
I63
sS'having'
p1821
I63
sS'once'
p1822
I63
sS'gf'
p1823
I66
sS'gang'
p1824
I66
sS'go'
p1825
I29
sS'gn'
p1826
I59
sS'gm'
p1827
I63
sS'tweeted'
p1828
I65
sS'supresas'
p1829
I66
sS'young'
p1830
I65
sS'send'
p1831
I66
sS'taaaaaacooos'
p1832
I66
sS'blaze'
p1833
I61
sS'/.\\'
p1834
I65
sS'sent'
p1835
I66
sS'wished'
p1836
I66
sS'kitty'
p1837
I66
sS'15:52:15.0,33.96830836,-118.18701421,5344.05,what'
p1838
I66
sS'seconds'
p1839
I66
sS'telling'
p1840
I66
sS'drinking'
p1841
I62
sS'anotha'
p1842
I66
sS'marry'
p1843
I66
sS'gettin'
p1844
I66
sS'michael'
p1845
I66
sS'stfu'
p1846
I66
sS'try'
p1847
I63
sS"week's"
p1848
I66
sS'ahahahaha'
p1849
I66
sS'deleting'
p1850
I66
sS'booty'
p1851
I63
sS'yourself'
p1852
I66
sS'waking'
p1853
I66
sS'video'
p1854
I65
sS'fault!!!fuck'
p1855
I66
sS'-brenton'
p1856
I66
sS'odb'
p1857
I65
sS'click'
p1858
I66
sS'plays'
p1859
I66
sS'pendejo'
p1860
I66
sS'dicen'
p1861
I66
sS'waiting'
p1862
I61
sS'eating'
p1863
I66
sS'playa'
p1864
I66
sS'body'
p1865
I61
sS'toast'
p1866
I66
sS'leg'
p1867
I65
sS'cal'
p1868
I66
sS'packing'
p1869
I66
sS'les'
p1870
I59
sS'let'
p1871
I63
sS'luis'
p1872
I57
sS'invented'
p1873
I66
sS'great'
p1874
I59
sS'38'
p1875
I66
sS'tampoco'
p1876
I66
sS'31'
p1877
I66
sS'30'
p1878
I65
sS'36'
p1879
I66
sS'leaving'
p1880
I66
sS'menu'
p1881
I66
sS'opinion'
p1882
I66
sS'makes'
p1883
I61
sS'maker'
p1884
I66
sS'3%'
p1885
I66
sS'thats'
p1886
I65
sS'nigga\xe2\x80\xa6'
p1887
I66
sS'breastases'
p1888
I66
sS'spy'
p1889
I66
sS'win'
p1890
I62
sS'manna'
p1891
I66
sS'private'
p1892
I66
sS'wit'
p1893
I65
sS'man!,90201\n494010537429065729,vicpdxtor,2014-07-29'
p1894
I66
sS'singing'
p1895
I64
sS'wiz'
p1896
I66
sS'dejas'
p1897
I66
sS'use'
p1898
I64
sS'from'
p1899
I52
sS'&'
p1900
I48
sS'lesly'
p1901
I66
sS'next'
p1902
I60
sS'doubt'
p1903
I66
sS'chu'
p1904
I66
sS'jonathan'
p1905
I66
sS'vivabrasil!\xe2\x80\x9dviva'
p1906
I66
sS'babe'
p1907
I59
sS'started'
p1908
I65
sS'about'
p1909
I45
sS'confused'
p1910
I65
sS'america<3'
p1911
I66
sS'sore'
p1912
I66
sS':-)'
p1913
I66
sS'hacerte'
p1914
I66
sS'baby'
p1915
I54
sS'iii'
p1916
I66
sS'women'
p1917
I66
sS'account'
p1918
I66
sS'bugging'
p1919
I66
sS'hersheys'
p1920
I65
sS'this'
p1921
I17
sS'bally'
p1922
I66
sS'ride'
p1923
I63
sS'when'
p1924
I38
sS'of'
p1925
I16
sS'didnt'
p1926
I66
sS'bend'
p1927
I66
sS'control'
p1928
I66
sS'tar'
p1929
I66
sS'50cent"now'
p1930
I66
sS'high'
p1931
I45
sS'sentimientos'
p1932
I66
sS'carros'
p1933
I66
sS'something'
p1934
I61
sS'casado'
p1935
I66
sS'lame'
p1936
I59
sS'vibe'
p1937
I65
sS'six'
p1938
I64
sS'even\xe2\x9c\x8b'
p1939
I66
sS'swisher'
p1940
I66
sS'instead'
p1941
I66
sS'sucess'
p1942
I66
sS'sin'
p1943
I65
sS'pomona'
p1944
I66
sS'oz'
p1945
I66
sS'stop'
p1946
I59
sS'ala\xe2\x80\xa6'
p1947
I66
sS'taco'
p1948
I65
sS'hahahaha'
p1949
I65
sS'too!!d'
p1950
I66
sS'fuhh'
p1951
I66
sS'racks'
p1952
I66
sS'light'
p1953
I66
sS'sit'
p1954
I64
sS'primera'
p1955
I65
sS'honestly'
p1956
I66
sS'nancy'
p1957
I65
sS'longest'
p1958
I66
sS'lookn'
p1959
I66
sS'move'
p1960
I64
sS"won't"
p1961
I65
sS'looks'
p1962
I63
sS'galaxy'
p1963
I65
sS'perfect'
p1964
I66
sS'superior'
p1965
I61
sS'le'
p1966
I65
sS'la'
p1967
I58
sS'lo'
p1968
I66
sS'winning'
p1969
I66
sS'"eat'
p1970
I66
sS'orange'
p1971
I66
sS'2014'
p1972
I65
sS'bye'
p1973
I65
sS'jimi'
p1974
I66
sS'dad'
p1975
I62
sS'yadi'
p1976
I66
sS'dam'
p1977
I62
sS'practice'
p1978
I65
sS'fiesta'
p1979
I66
sS'tsss'
p1980
I66
sS'ship'
p1981
I66
sS'bacc'
p1982
I66
sS'\xe2\x98\xba\xe2\x9d\xa4'
p1983
I66
sS'kiss'
p1984
I65
sS'hands'
p1985
I65
sS'front'
p1986
I63
sS'mybad'
p1987
I66
sS'day'
p1988
I47
sS'escuela'
p1989
I66
sS'weather'
p1990
I66
sS'trap'
p1991
I64
sS'truth'
p1992
I66
sS'studios'
p1993
I66
sS'bueno'
p1994
I66
sS'mija'
p1995
I66
sS'doing'
p1996
I58
sS'apologize'
p1997
I66
sS'up\xe2\x80\xa6'
p1998
I66
sS'fagget\xe2\x80\x9d'
p1999
I66
sS',90201\n412622207178010624,hperez323,2013-12-16'
p2000
I66
sS'our'
p2001
I66
sS'special'
p2002
I65
sS'out'
p2003
I32
sS'rez'
p2004
I65
sS'bag'
p2005
I66
sS'defend'
p2006
I66
sS'20:59:56.0,33.96999382,-118.18799914,5344.05,mas'
p2007
I66
sS'as\xc3\xad'
p2008
I66
sS'tr3s60\xe2\x80\xa6'
p2009
I66
sS'barn"'
p2010
I66
sS'cause'
p2011
I53
sS'math'
p2012
I64
sS',90201\n493760547037253632,vicpdxtor,2014-07-28'
p2013
I66
sS'fun'
p2014
I66
sS'shut'
p2015
I66
sS'p.rod'
p2016
I66
sS'o.o'
p2017
I66
sS'watever'
p2018
I66
sS'surely'
p2019
I66
sS'-17'
p2020
I66
sS'viejo'
p2021
I65
sS'05:36:56.0,33.9685289,-118.1829602,5344.05,today'
p2022
I66
sS'craving'
p2023
I66
sS"party's"
p2024
I66
sS'could'
p2025
I58
sS'keep'
p2026
I66
sS'facetime'
p2027
I66
sS'conversation'
p2028
I65
sS'4th'
p2029
I65
sS'adrian'
p2030
I66
sS'out\xe2\x80\x9d'
p2031
I66
sS'south'
p2032
I66
sS'pierna'
p2033
I66
sS'unfollowing'
p2034
I65
sS'blown'
p2035
I66
sS'alexfs17'
p2036
I64
sS'sack'
p2037
I65
sS'whooo'
p2038
I66
sS'bitch'
p2039
I54
sS'sosa'
p2040
I66
sS'hoes'
p2041
I66
sS'purrrrr'
p2042
I66
sS'lmaoo,90201\n498753063222378496,ovoxo_deeh,2014-08-11'
p2043
I66
sS"doesn't"
p2044
I66
sS'monkey'
p2045
I66
sS'table'
p2046
I66
sS'start'
p2047
I59
sS'their'
p2048
I65
sS'ankle'
p2049
I66
sS'stomach'
p2050
I64
sS'stars'
p2051
I66
sS'exactly'
p2052
I66
sS'lolz,90201\n514265949726195712,tonesterrr13,2014-09-23'
p2053
I66
sS'grandpa'
p2054
I66
sS'july'
p2055
I65
sS'puros'
p2056
I66
sS'shit,90201\n448481567212466176,ohines__,2014-03-25'
p2057
I66
sS'boring'
p2058
I63
sS'bed'
p2059
I65
sS'tommy'
p2060
I66
sS'2k13-2k14'
p2061
I66
sS'loves'
p2062
I66
sS'lover'
p2063
I66
sS'08:48:26.0,33.9685221,-118.186671,5344.05,lmaoooo'
p2064
I66
sS'"cause'
p2065
I66
sS'spelled'
p2066
I66
sS'ho-ho-ho'
p2067
I66
sS'tonight'
p2068
I61
sS'su'
p2069
I66
sS'have'
p2070
I33
sS'portrait'
p2071
I66
sS'need'
p2072
I46
sS'turn'
p2073
I65
sS'apparently'
p2074
I66
sS'bastard'
p2075
I66
sS'finaaaaaally'
p2076
I66
sS'min'
p2077
I64
sS'bored\xe2\x80\x9d'
p2078
I66
sS'mic'
p2079
I66
sS',90201\n496879085008596993,rfelixjr72,2014-08-06'
p2080
I66
sS'03:17:03.0,33.96999382,-118.18799914,5344.05,so'
p2081
I66
sS'babes'
p2082
I66
sS'truck'
p2083
I66
sS'asshole'
p2084
I66
sS'motha'
p2085
I64
sS'brazil'
p2086
I64
sS'aww'
p2087
I65
sS'who'
p2088
I46
sS'sc'
p2089
I66
sS'duele'
p2090
I66
sS'but'
p2091
I25
sS'00:53:50.0,33.9673101,-118.18297846,5344.05,bitch'
p2092
I66
sS'class'
p2093
I56
sS'upset'
p2094
I66
sS'face'
p2095
I62
sS'pipe'
p2096
I65
sS'future\xe2\x80\x9d'
p2097
I66
sS"miguel's"
p2098
I66
sS'mybe'
p2099
I66
sS'skinny'
p2100
I65
sS'"great'
p2101
I66
sS'fact'
p2102
I66
sS'gain'
p2103
I66
sS'lsg'
p2104
I66
sS'text'
p2105
I57
sS'bring'
p2106
I65
sS'lmao\xe2\x80\x9d'
p2107
I66
sS"90's"
p2108
I66
sS'bedroom'
p2109
I66
sS'chicken'
p2110
I66
sS'longer'
p2111
I66
sS'setter'
p2112
I66
sS'04:52:44.0,33.9683749,-118.1867719,5344.05,im'
p2113
I66
sS'me:fine'
p2114
I66
sS'jay'
p2115
I66
sS'('
p2116
I61
sS'should'
p2117
I57
sS'"babe'
p2118
I66
sS'jam'
p2119
I59
sS"anyone's"
p2120
I66
sS'lemme'
p2121
I65
sS'perdon'
p2122
I66
sS'thousands'
p2123
I66
sS'hope'
p2124
I58
sS'musicos'
p2125
I66
sS'workaholics'
p2126
I66
sS'watching'
p2127
I52
sS'beat'
p2128
I65
sS'dope'
p2129
I48
sS'hopefully'
p2130
I64
sS'coworker'
p2131
I65
sS'bear'
p2132
I65
sS'joint'
p2133
I60
sS'awww'
p2134
I66
sS'words'
p2135
I65
sS'digan'
p2136
I66
sS'chips'
p2137
I64
sS'ghetto'
p2138
I65
sS'qt'
p2139
I65
sS'tobacco'
p2140
I66
sS'jasmin'
p2141
I66
sS'calling'
p2142
I66
sS'stuff'
p2143
I66
sS'she'
p2144
I43
sS'preach'
p2145
I66
sS'btw'
p2146
I65
sS',90201\n451576443898580992,ohines__,2014-04-03'
p2147
I66
sS'we'
p2148
I31
sS'packet'
p2149
I66
sS'edition'
p2150
I66
sS'maesaid'
p2151
I66
sS'sea."'
p2152
I66
sS'skateboarding'
p2153
I66
sS'balled'
p2154
I66
sS'packed'
p2155
I66
sS'cole'
p2156
I66
sS'destiny'
p2157
I63
sS'has'
p2158
I52
sS'ralph'
p2159
I66
sS'closed'
p2160
I66
sS'neither'
p2161
I66
sS'trynna'
p2162
I66
sS'gn.\xe2\x9c\x8c'
p2163
I66
sS'deliver'
p2164
I66
sS'shaaaaat'
p2165
I66
sS'job'
p2166
I66
sS'key'
p2167
I66
sS'squads'
p2168
I66
sS'david'
p2169
I66
sS'titties'
p2170
I66
sS'hits'
p2171
I66
sS'figured'
p2172
I66
sS"he's"
p2173
I64
sS'insidious'
p2174
I66
sS'thang'
p2175
I66
sS'swim'
p2176
I66
sS'jersey'
p2177
I66
sS'15:28:32.0,33.9685732,-118.1831514,5344.05,my'
p2178
I66
sS'01:39:56.0,33.9697154,-118.1873632,5344.05,omfg,90201\n451065810392334336,rfelixjr72,2014-04-01'
p2179
I66
sS'ike'
p2180
I66
sS'tuesday'
p2181
I65
sS'walk'
p2182
I61
sS'laugh'
p2183
I65
sS'respect'
p2184
I65
sS'picking'
p2185
I66
sS'longggg'
p2186
I66
sS'powered'
p2187
I66
sS'like\xe2\x80\xa6'
p2188
I66
sS"it's"
p2189
I37
sS'polka'
p2190
I66
sS',90201\n498747864709730305,ovoxo_deeh,2014-08-11'
p2191
I66
sS'quiz'
p2192
I65
sS'slowly'
p2193
I66
sS'yah'
p2194
I62
sS'bby'
p2195
I66
sS'username'
p2196
I66
sS'mike'
p2197
I66
sS'hmu'
p2198
I66
sS'-.-'
p2199
I61
sS'bull'
p2200
I65
sS'smoking'
p2201
I61
sS'awww<3'
p2202
I66
sS'chivas'
p2203
I66
sS'homey'
p2204
I66
sS'as'
p2205
I56
sS'value'
p2206
I65
sS'will'
p2207
I50
sS'hahaha'
p2208
I66
sS'wild'
p2209
I65
sS'pictures'
p2210
I66
sS'*yawn'
p2211
I66
sS'va'
p2212
I65
sS'02:39:27.0,33.96999382,-118.18799914,5344.05,hope'
p2213
I66
sS'deeh'
p2214
I66
sS'rather\xe2\x80\xa6'
p2215
I66
sS'almost'
p2216
I60
sS'helped'
p2217
I66
sS'thug'
p2218
I66
sS'bucks'
p2219
I66
sS'sentimento'
p2220
I66
sS'az'
p2221
I66
sS'-___-'
p2222
I66
sS'"iamasavage"'
p2223
I66
sS'gets'
p2224
I66
sS'loera'
p2225
I66
sS'had...\xe2\x80\x9d'
p2226
I66
sS'ball'
p2227
I60
sS'columbia'
p2228
I66
sS'01:40:29.0,33.9697139,-118.1873707,5344.05,wtf'
p2229
I66
sS',90201\n471864368427061248,ohines__,2014-05-29'
p2230
I66
sS'upon'
p2231
I65
sS'fucken'
p2232
I58
sS'lol\xe2\x80\x9drt,90201\n462805964366696448,rycook32,2014-05-04'
p2233
I66
sS'sisters'
p2234
I65
sS'whale'
p2235
I64
sS'l.a'
p2236
I66
sS'lmao(x'
p2237
I66
sS'//'
p2238
I63
sS'off'
p2239
I58
sS'center'
p2240
I65
sS'i'
p2241
I2
sS'well'
p2242
I56
sS'thought'
p2243
I62
sS'english'
p2244
I66
sS'privada'
p2245
I66
sS'con'
p2246
I62
sS'looked'
p2247
I65
sS'less'
p2248
I66
sS'oak'
p2249
I66
sS'accurate'
p2250
I66
sS'salu2\xe2\x9c\x8c\xef\xb8\x8f'
p2251
I66
sS'brenton'
p2252
I66
sS'sexto'
p2253
I64
sS'shmacked'
p2254
I66
sS'manzo'
p2255
I66
sS'quiere'
p2256
I66
sS'vida'
p2257
I65
sS'drunk'
p2258
I63
sS'sky'
p2259
I66
sS'wen'
p2260
I64
sS'realize'
p2261
I66
sS'attractive'
p2262
I66
sS'binnie'
p2263
I66
sS'vids'
p2264
I66
sS'ohhh'
p2265
I63
sS'kick'
p2266
I61
sS'resolved'
p2267
I66
sS'foh'
p2268
I66
sS"who's"
p2269
I60
sS'knos'
p2270
I66
sS'know'
p2271
I31
sS"boyfriend's"
p2272
I66
sS'06:44:25.0,33.96634967,-118.18628357,5344.05,i'
p2273
I66
sS'wakeing'
p2274
I65
sS'crist'
p2275
I66
sS'like'
p2276
I18
sS'lost'
p2277
I65
sS'(on'
p2278
I66
sS'clown'
p2279
I66
sS'sissy'
p2280
I66
sS'lose'
p2281
I65
sS'nerves'
p2282
I65
sS'works'
p2283
I66
sS'because'
p2284
I53
sS'twitter'
p2285
I61
sS'hail'
p2286
I66
sS'hair'
p2287
I60
sS'home'
p2288
I51
sS'shabba'
p2289
I65
sS'happens'
p2290
I65
sS'work\xe2\x80\xa6'
p2291
I66
sS'literally'
p2292
I66
sS'lean'
p2293
I62
sS'mines'
p2294
I66
sS'does'
p2295
I64
sS'passion'
p2296
I66
sS'blowing'
p2297
I65
sS'schedule'
p2298
I66
sS'how'
p2299
I46
sS'r'
p2300
I66
sS'vuitton'
p2301
I66
sS'iris'
p2302
I66
sS'sister'
p2303
I63
sS'quarter'
p2304
I66
sS'rare'
p2305
I66
sS'getting'
p2306
I55
sS'mommy'
p2307
I66
sS'nightclub'
p2308
I66
sS'swear'
p2309
I62
sS'sweat'
p2310
I66
sS'windowwwww'
p2311
I66
sS'own'
p2312
I63
sS'owe'
p2313
I64
sS'pussy'
p2314
I62
sS'doesnt'
p2315
I65
sS'esteem'
p2316
I66
sS'badass'
p2317
I66
sS'2k14'
p2318
I65
sS'*'
p2319
I66
sS'yeshhh'
p2320
I66
sS'kidding'
p2321
I63
sS'buy,90201\n'
p2322
I66
sS'bluntss'
p2323
I66
sS'above[all]limits\xe2\x84\xa2staff'
p2324
I65
sS'*bug'
p2325
I66
sS'buy'
p2326
I64
sS'chatting'
p2327
I66
sS"i've"
p2328
I64
sS'hr'
p2329
I66
sS'out."'
p2330
I66
sS'coke'
p2331
I65
sS'bitches'
p2332
I65
sS'forreal'
p2333
I62
sS'whyyyyyyyyy'
p2334
I66
sS'hi'
p2335
I64
sS'goals'
p2336
I65
sS'granny'
p2337
I65
sS'ha'
p2338
I65
sS'eat'
p2339
I60
sS'bud'
p2340
I66
sS'he'
p2341
I44
sS'made'
p2342
I62
sS'places'
p2343
I66
sS'wish'
p2344
I61
sS'tempations-'
p2345
I66
sS'j'
p2346
I66
sS'fight'
p2347
I66
sS'record'
p2348
I66
sS'empty'
p2349
I66
sS'cake'
p2350
I61
sS'faggot'
p2351
I66
sS"embarrassed...but...shouldn't"
p2352
I66
sS'minutes'
p2353
I66
sS'imaginas'
p2354
I66
sS'to,90201\n478049886219542528,gebusislord,2014-06-15'
p2355
I66
sS'pin'
p2356
I66
sS'gente\xe2\x80\xa6'
p2357
I66
sS'pic'
p2358
I63
sS'ins'
p2359
I66
sS'beats'
p2360
I66
sS'3-1'
p2361
I66
sS'mejor'
p2362
I66
sS'happen'
p2363
I65
sS'spell'
p2364
I65
sS'offensive'
p2365
I66
sS'40'
p2366
I66
sS'lately'
p2367
I65
sS'other'
p2368
I65
sS'always.\xe2\x80\x9d'
p2369
I66
sS'sick'
p2370
I63
sS'ponytail'
p2371
I66
sS'again*'
p2372
I66
sS'monday'
p2373
I64
sS'stay'
p2374
I58
sS'18:03:17.0,33.96630851,-118.18635369,5344.05,the'
p2375
I66
sS'chance'
p2376
I65
sS'accomplish'
p2377
I66
sS'kinda'
p2378
I65
sS'toasts'
p2379
I66
sS'friends'
p2380
I61
sS'christians'
p2381
I66
sS'inspiration'
p2382
I66
sS'ave'
p2383
I66
sS'ranks'
p2384
I66
sS'lift'
p2385
I65
sS'elizalde'
p2386
I66
sS'awake'
p2387
I62
sS'baked'
p2388
I62
s.