(dp0
S''
p1
I2
sS'happen'
p2
I31
sS'all'
p3
I28
sS':*'
p4
I31
sS'switched'
p5
I31
sS'alien'
p6
I31
sS'younow'
p7
I30
sS'sleep'
p8
I29
sS'(if'
p9
I31
sS'hanging'
p10
I31
sS'go'
p11
I22
sS'follow'
p12
I22
sS'psycho'
p13
I31
sS'tweeted'
p14
I31
sS'hate'
p15
I30
sS'causes'
p16
I31
sS':3'
p17
I31
sS'shattered'
p18
I31
sS'biggest'
p19
I31
sS'grape'
p20
I31
sS'bare'
p21
I31
sS'everything'
p22
I31
sS'tv'
p23
I31
sS'tu'
p24
I30
sS'young'
p25
I31
sS'to'
p26
I4
sS'finally'
p27
I31
sS'spuuuurrrrrssss'
p28
I31
sS'tf'
p29
I29
sS'sorry'
p30
I30
sS'te'
p31
I31
sS':l'
p32
I31
sS'very'
p33
I31
sS'fap'
p34
I31
sS'paradise'
p35
I31
sS'yahhhh'
p36
I31
sS'account'
p37
I31
sS'fat'
p38
I31
sS'worst'
p39
I30
sS'updates'
p40
I31
sS'fam'
p41
I30
sS'telling'
p42
I31
sS'screaming'
p43
I31
sS'cool'
p44
I29
sS'epic'
p45
I31
sS'salad'
p46
I31
sS'betch'
p47
I31
sS'did'
p48
I30
sS'turns'
p49
I31
sS'having'
p50
I31
sS'brother'
p51
I31
sS'turnt'
p52
I31
sS'try'
p53
I31
sS'race'
p54
I30
sS'small'
p55
I30
sS'ups'
p56
I31
sS'clothes'
p57
I30
sS"i'll"
p58
I30
sS'3bedrooms'
p59
I31
sS'cookies'
p60
I31
sS'pretend'
p61
I31
sS'says'
p62
I30
sS'instagram'
p63
I30
sS'pinchee'
p64
I31
sS'shut'
p65
I31
sS'burger'
p66
I31
sS"babygirl's"
p67
I31
sS'street'
p68
I30
sS'video'
p69
I30
sS'ptv'
p70
I30
sS'link'
p71
I31
sS'puedo'
p72
I31
sS'\xee\x90\x90'
p73
I31
sS'\xee\x90\x92'
p74
I31
sS'even'
p75
I25
sS'what'
p76
I24
sS'giving'
p77
I31
sS'fine'
p78
I31
sS'thong'
p79
I31
sS'depressing'
p80
I31
sS'waiting'
p81
I29
sS'meli'
p82
I31
sS'new'
p83
I26
sS'falling'
p84
I30
sS'seemed'
p85
I31
sS'ever'
p86
I28
sS'bird'
p87
I29
sS'exercise'
p88
I31
sS'told'
p89
I30
sS'pats'
p90
I30
sS'pug'
p91
I31
sS'pancakes'
p92
I31
sS'never'
p93
I27
sS'here'
p94
I22
sS"fantasywe're"
p95
I31
sS'alone'
p96
I29
sS'yummy'
p97
I31
sS'100'
p98
I31
sS"aren't"
p99
I31
sS'props'
p100
I31
sS'change'
p101
I31
sS'every'
p102
I31
sS'boy'
p103
I31
sS'great'
p104
I31
sS'kids'
p105
I31
sS'k'
p106
I30
sS'changed'
p107
I31
sS'experience'
p108
I31
sS'permit'
p109
I31
sS"i'm"
p110
I10
sS'dre'
p111
I31
sS'jami'
p112
I31
sS'eyebrows'
p113
I31
sS'700k'
p114
I31
sS'via'
p115
I31
sS'love'
p116
I18
sS'apple'
p117
I31
sS'kkkkkkkkklkkkkkershaw'
p118
I31
sS'prefer'
p119
I31
sS"bizcuit's"
p120
I29
sS'brought'
p121
I29
sS'sincerely'
p122
I31
sS'florence'
p123
I31
sS'bra'
p124
I31
sS'emoji'
p125
I31
sS'dejas'
p126
I31
sS'use'
p127
I31
sS'exciting'
p128
I31
sS'from'
p129
I24
sS'score'
p130
I31
sS'would'
p131
I31
sS'&'
p132
I28
sS'watering'
p133
I31
sS'dude'
p134
I28
sS'two'
p135
I31
sS'next'
p136
I30
sS'few'
p137
I31
sS'ca)'
p138
I29
sS'call'
p139
I29
sS'otik'
p140
I31
sS'6'
p141
I31
sS'means'
p142
I31
sS'until'
p143
I31
sS'today'
p144
I27
sS'more'
p145
I27
sS'cough*'
p146
I31
sS'started'
p147
I30
sS'laughs'
p148
I31
sS'haha'
p149
I30
sS'sister'
p150
I31
sS'chocolate'
p151
I30
sS'sore'
p152
I31
sS'warm'
p153
I31
sS"ain't"
p154
I30
sS'broke'
p155
I31
sS'baby'
p156
I27
sS'fainted*'
p157
I31
sS'cuz'
p158
I31
sS'me'
p159
I6
sS'keeping'
p160
I31
sS'hour'
p161
I30
sS'niggas'
p162
I30
sS'this'
p163
I20
sS'car'
p164
I30
sS'ride'
p165
I31
sS'work'
p166
I29
sS'purge'
p167
I31
sS'argue'
p168
I31
sS'cuddle'
p169
I31
sS'can'
p170
I24
sS'making'
p171
I31
sS'my'
p172
I3
sS'could'
p173
I31
sS'gloria'
p174
I31
sS'beautiful'
p175
I30
sS'heart'
p176
I30
sS'crazy'
p177
I29
sS'acapulco'
p178
I31
sS'give'
p179
I31
sS'patient'
p180
I31
sS'december'
p181
I31
sS"didn't"
p182
I29
sS'fuck'
p183
I23
sS'high'
p184
I31
sS'ready'
p185
I31
sS'something'
p186
I31
sS'want'
p187
I24
sS'wow'
p188
I31
sS'mmmmmm'
p189
I31
sS'khlo\xc3\xa8'
p190
I31
sS'story'
p191
I31
sS'dress'
p192
I31
sS'dorito'
p193
I31
sS'ughhhh'
p194
I31
sS'pink'
p195
I30
sS'hitlerian'
p196
I31
sS'bank)'
p197
I31
sS'end'
p198
I31
sS'chambelanes'
p199
I31
sS'cheering'
p200
I31
sS'rather'
p201
I31
sS'watching'
p202
I27
sS'everyday'
p203
I31
sS'1'
p204
I30
sS'how'
p205
I26
sS'hot'
p206
I31
sS'beach'
p207
I31
sS"doesn't"
p208
I30
sS'senpai'
p209
I31
sS'pizza'
p210
I30
sS'fr'
p211
I31
sS'rallys'
p212
I31
sS'may'
p213
I30
sS'watch'
p214
I31
sS'advice'
p215
I31
sS'cuss'
p216
I31
sS'tbt'
p217
I31
sS'wrong'
p218
I31
sS'birthday'
p219
I30
sS'creatine'
p220
I31
sS'mad'
p221
I31
sS'softball'
p222
I31
sS'such'
p223
I30
sS'suck'
p224
I31
sS'ahahaha'
p225
I31
sS'guys'
p226
I29
sS'man'
p227
I28
sS'a'
p228
I7
sS'horchata'
p229
I31
sS'turd'
p230
I31
sS'funday'
p231
I31
sS'commodity'
p232
I31
sS'wins'
p233
I31
sS'nicknames'
p234
I31
sS'life'
p235
I31
sS'scare'
p236
I31
sS'emanuel'
p237
I31
sS'scoop'
p238
I31
sS'si'
p239
I31
sS'so'
p240
I15
sS'goodbye'
p241
I31
sS'keeps'
p242
I31
sS'fan'
p243
I31
sS'dream'
p244
I31
sS'se'
p245
I31
sS"that's"
p246
I26
sS'clarissa'
p247
I31
sS'cute'
p248
I30
sS'$2500'
p249
I31
sS'breaking'
p250
I31
sS'shoes'
p251
I31
sS"don't"
p252
I25
sS'john'
p253
I31
sS'over'
p254
I26
sS'fall'
p255
I30
sS'course'
p256
I31
sS'looks'
p257
I31
sS'banged'
p258
I31
sS'hell'
p259
I31
sS'cold'
p260
I31
sS'still'
p261
I24
sS'avenue'
p262
I30
sS'its'
p263
I30
sS'before'
p264
I29
sS'perfect'
p265
I29
sS'thank'
p266
I30
sS'fit'
p267
I31
sS'la'
p268
I30
sS'dr'
p269
I31
sS'amazing'
p270
I31
sS'[pic]'
p271
I31
sS'better'
p272
I30
sS'esperarsi'
p273
I31
sS'pussy'
p274
I31
sS'tweets'
p275
I31
sS'pad'
p276
I29
sS'weeks'
p277
I31
sS'might'
p278
I31
sS"haven't"
p279
I31
sS"o'brien"
p280
I31
sS'dad'
p281
I30
sS'then'
p282
I27
sS'them'
p283
I25
sS'good'
p284
I27
sS'burger-a-go-go'
p285
I31
sS'yo'
p286
I29
sS'food'
p287
I30
sS'dam'
p288
I31
sS'sueno'
p289
I31
sS'sooner'
p290
I31
sS'band'
p291
I31
sS'they'
p292
I27
sS'hands'
p293
I31
sS'not'
p294
I24
sS'now'
p295
I28
sS'day'
p296
I28
sS'bank'
p297
I29
sS'always'
p298
I28
sS'drop'
p299
I31
sS'debating'
p300
I31
sS'ales'
p301
I31
sS'leda'
p302
I31
sS'skills'
p303
I31
sS'idk'
p304
I31
sS'gurl'
p305
I31
sS'fitness'
p306
I31
sS'went'
p307
I28
sS'mean'
p308
I29
sS'em'
p309
I31
sS'everyone'
p310
I29
sS'doing'
p311
I31
sS'house'
p312
I27
sS'energy'
p313
I31
sS'hard'
p314
I31
sS'jerrys'
p315
I31
sS'year'
p316
I30
sS'our'
p317
I31
sS'huntington'
p318
I30
sS'morning'
p319
I31
sS'butthurt'
p320
I30
sS'message'
p321
I31
sS'popping'
p322
I31
sS'out'
p323
I16
sS'rt'
p324
I31
sS'by'
p325
I31
sS'niseebell'
p326
I31
sS'twice'
p327
I31
sS'open'
p328
I31
sS'loli'
p329
I31
sS'since'
p330
I31
sS'matar'
p331
I31
sS'looking'
p332
I30
sS'feelssss'
p333
I31
sS'seriously'
p334
I31
sS'stupid'
p335
I31
sS'smh'
p336
I31
sS'fargo'
p337
I29
sS'got'
p338
I19
sS'rn'
p339
I30
sS'size'
p340
I31
sS'cause'
p341
I29
sS'ass'
p342
I30
sS'chupacabra'
p343
I31
sS'turning'
p344
I31
sS"you're"
p345
I27
sS'perfectly'
p346
I31
sS'million'
p347
I31
sS'guess'
p348
I31
sS'hype'
p349
I31
sS'johnnie'
p350
I31
sS'california'
p351
I30
sS'rain'
p352
I31
sS'grandma'
p353
I29
sS'wanted'
p354
I30
sS'care'
p355
I31
sS'possible\xe2\x9d\xa4'
p356
I31
sS'"el'
p357
I31
sS'sahm'
p358
I31
sS'atl'
p359
I31
sS'messages'
p360
I31
sS'tries'
p361
I31
sS'times'
p362
I31
sS'thing'
p363
I30
sS'place'
p364
I31
sS'w'
p365
I31
sS'taha'
p366
I31
sS'chills'
p367
I30
sS'think'
p368
I27
sS'fuckin'
p369
I31
sS'first'
p370
I31
sS'blind'
p371
I31
sS'respond'
p372
I31
sS'already'
p373
I31
sS'dont'
p374
I30
sS'unfollowed'
p375
I31
sS'feel'
p376
I30
sS'xoxo'
p377
I31
sS'confuse'
p378
I31
sS'xd'
p379
I30
sS'one'
p380
I29
sS'done'
p381
I30
sS'bitch'
p382
I29
sS'comic'
p383
I31
sS'miss'
p384
I28
sS'tomorrow'
p385
I31
sS"you'd"
p386
I31
sS'city'
p387
I30
sS'little'
p388
I30
sS'long'
p389
I31
sS'checked'
p390
I31
sS"valentine's"
p391
I31
sS'caught'
p392
I31
sS'habit'
p393
I31
sS'girls'
p394
I27
sS'attack'
p395
I31
sS'anyone'
p396
I30
sS'their'
p397
I31
sS'wooooooooooowieeeee'
p398
I31
sS'2'
p399
I31
sS'too'
p400
I29
sS"feelin'"
p401
I31
sS'bongaa'
p402
I31
sS'mermaid'
p403
I31
sS'eyes'
p404
I31
sS'murder'
p405
I31
sS'frustration'
p406
I31
sS'relationship'
p407
I30
sS'that'
p408
I12
sS'season'
p409
I31
sS'gym'
p410
I31
sS'park'
p411
I27
sS"on'"
p412
I31
sS'direct'
p413
I31
sS'broadcast'
p414
I29
sS'cops'
p415
I31
sS'because'
p416
I31
sS"knott's"
p417
I31
sS'fuzzy'
p418
I31
sS'wich'
p419
I31
sS'than'
p420
I28
sS'neck'
p421
I31
sS'loved'
p422
I31
sS'b'
p423
I30
sS'15'
p424
I31
sS'shoutouts'
p425
I31
sS'frankly'
p426
I31
sS'gotten'
p427
I30
sS'gotta'
p428
I31
sS"confuso'"
p429
I31
sS'goodnight'
p430
I31
sS'crossroads'
p431
I31
sS'matter'
p432
I29
sS'were'
p433
I31
sS'college'
p434
I31
sS'feeling'
p435
I29
sS'spurs'
p436
I31
sS'and'
p437
I5
sS'lick'
p438
I30
sS'san'
p439
I31
sS'ran'
p440
I30
sS'pass'
p441
I31
sS'mind'
p442
I29
sS'comfortable'
p443
I31
sS'tonight'
p444
I29
sS'talking'
p445
I30
sS'have'
p446
I20
sS'goodie'
p447
I31
sS'need'
p448
I27
sS'seen'
p449
I31
sS'breakfast'
p450
I30
sS'turn'
p451
I31
sS'saw'
p452
I30
sS'tells'
p453
I31
sS'lie'
p454
I30
sS'thoroughly'
p455
I31
sS'switch'
p456
I31
sS'waffles'
p457
I31
sS'comes'
p458
I31
sS'take'
p459
I27
sS'babes'
p460
I31
sS'truck'
p461
I31
sS'many'
p462
I29
sS'blunt'
p463
I31
sS'blue'
p464
I31
sS'sure'
p465
I30
sS'pain'
p466
I31
sS'though'
p467
I30
sS'hilarious'
p468
I31
sS'who'
p469
I31
sS'mosh'
p470
I31
sS'wells'
p471
I29
sS'most'
p472
I31
sS'restarted'
p473
I31
sS'connected'
p474
I31
sS'cudahy'
p475
I30
sS'rocio'
p476
I31
sS'nothing'
p477
I31
sS'beth'
p478
I31
sS'why'
p479
I22
sS'axs'
p480
I31
sS'doi'
p481
I31
sS'especially'
p482
I31
sS'mobile'
p483
I31
sS'proud'
p484
I31
sS'face'
p485
I30
sS'park)'
p486
I30
sS'talk'
p487
I31
sS'(omfg'
p488
I31
sS'hear'
p489
I30
sS'danne'
p490
I31
sS'hahaha.\xe2\x80\x9d'
p491
I31
sS'came'
p492
I28
sS'beaner'
p493
I31
sS'walking'
p494
I31
sS'ugh'
p495
I31
sS'\xe2\x9c\xa8'
p496
I31
sS'brenda'
p497
I31
sS'awkward'
p498
I31
sS'juliana'
p499
I31
sS'bloody'
p500
I31
sS'faster'
p501
I31
sS'stoned'
p502
I31
sS'chicken'
p503
I31
sS'screenshots'
p504
I31
sS'thigh'
p505
I31
sS'aint'
p506
I31
sS'steff'
p507
I31
sS'cried'
p508
I30
sS'jay'
p509
I31
sS'(/.-)'
p510
I31
sS'cousins'
p511
I30
sS'nickshenk\xe2\x80\xa6'
p512
I31
sS'should'
p513
I31
sS'yea'
p514
I31
sS'only'
p515
I30
sS'going'
p516
I28
sS'stabbing'
p517
I31
sS'posted'
p518
I31
sS'thousands'
p519
I31
sS'pointed'
p520
I31
sS'hope'
p521
I29
sS'meant'
p522
I31
sS'do'
p523
I20
sS'isuck'
p524
I31
sS'his'
p525
I31
sS'get'
p526
I24
sS'up:)'
p527
I31
sS'beau'
p528
I31
sS'between'
p529
I31
sS'stop'
p530
I30
sS'lucky'
p531
I31
sS"pima's"
p532
I29
sS'tbh'
p533
I25
sS'drawn'
p534
I31
sS'dye'
p535
I31
sS'workouts'
p536
I31
sS'him'
p537
I28
sS'lmao'
p538
I31
sS'officially'
p539
I31
sS'cry'
p540
I30
sS'phone*i'
p541
I31
sS'9'
p542
I31
sS'eyebrow'
p543
I31
sS'perfume'
p544
I31
sS":')"
p545
I30
sS'bad'
p546
I30
sS'bae'
p547
I29
sS'she'
p548
I24
sS'tbfh'
p549
I31
sS'miley'
p550
I31
sS'where'
p551
I28
sS'spotted'
p552
I31
sS'set'
p553
I31
sS'concert'
p554
I31
sS'fair'
p555
I31
sS'burst'
p556
I31
sS'tossing'
p557
I31
sS'lazy'
p558
I31
sS'gangster'
p559
I31
sS'see'
p560
I27
sS'asleep'
p561
I30
sS'are'
p562
I23
sS'desperate'
p563
I31
sS'polish'
p564
I31
sS'close'
p565
I31
sS'kellin'
p566
I31
sS'best'
p567
I29
sS'wonder'
p568
I31
sS'firestone'
p569
I31
sS'said'
p570
I26
sS'alameda'
p571
I31
sS'jurassic'
p572
I31
sS'movie'
p573
I31
sS'away'
p574
I30
sS'currently'
p575
I31
sS'please'
p576
I30
sS'quierespero'
p577
I31
sS'birds'
p578
I31
sS'yass'
p579
I30
sS'icecream'
p580
I31
sS'enough'
p581
I31
sS"there's"
p582
I30
sS'features'
p583
I31
sS'happiness'
p584
I31
sS'horrible'
p585
I31
sS'probably'
p586
I30
sS'*cough'
p587
I31
sS'ima'
p588
I30
sS'we'
p589
I25
sS'omg'
p590
I28
sS'trynna'
p591
I31
sS'missing'
p592
I31
sS'leslie'
p593
I31
sS'death'
p594
I31
sS'omw'
p595
I31
sS'wear'
p596
I31
sS'clues'
p597
I31
sS'cousin'
p598
I30
sS'come'
p599
I30
sS'legit'
p600
I31
sS'cop'
p601
I31
sS'c'
p602
I30
sS'license'
p603
I31
sS'joke'
p604
I30
sS'taking'
p605
I31
sS'barely'
p606
I29
sS's'
p607
I31
sS'antonio'
p608
I31
sS'"lol'
p609
I31
sS'asked'
p610
I31
sS"can't"
p611
I28
sS'con'
p612
I31
sS"biskit's"
p613
I31
sS'childhood'
p614
I31
sS'12:00'
p615
I31
sS'cancer'
p616
I31
sS'drunk'
p617
I31
sS'bricks'
p618
I31
sS'sky'
p619
I31
sS"johnnie.guilbert's"
p620
I31
sS'whatever'
p621
I31
sS'except'
p622
I31
sS'quinn'
p623
I31
sS'sing'
p624
I31
sS'onedirection'
p625
I31
sS'(toothfloss)'
p626
I31
sS"'2"
p627
I31
sS'cramps'
p628
I31
sS'quit'
p629
I31
sS"'amor"
p630
I31
sS'puts'
p631
I31
sS'folow'
p632
I31
sS"it's"
p633
I25
sS'nickys'
p634
I31
sS'been'
p635
I29
sS'cyrus'
p636
I31
sS'breath'
p637
I31
sS'much'
p638
I30
sS'sws'
p639
I30
sS'cena'
p640
I31
sS'meeting'
p641
I31
sS'chiseled'
p642
I31
sS'shoulders'
p643
I31
sS'educated'
p644
I31
sS'fire'
p645
I31
sS'hmu'
p646
I31
sS"what's"
p647
I31
sS'crack'
p648
I31
sS'diablo!!"i\'m'
p649
I31
sS'food.christy'
p650
I31
sS'else'
p651
I29
sS'quesadilla'
p652
I31
sS'wake'
p653
I31
sS'whitney'
p654
I31
sS'church"'
p655
I31
sS'exersizing'
p656
I31
sS'sad'
p657
I31
sS'those'
p658
I30
sS'chill'
p659
I31
sS"fameyou're"
p660
I31
sS'save'
p661
I31
sS'look'
p662
I29
sS'these'
p663
I31
sS'straight'
p664
I31
sS'bill'
p665
I31
sS'tengo'
p666
I31
sS'will'
p667
I30
sS'homework'
p668
I31
sS'hahaha'
p669
I30
sS'gave'
p670
I31
sS'life)'
p671
I31
sS'ive'
p672
I31
sS'seven'
p673
I31
sS'compton'
p674
I31
sS'<3'
p675
I30
sS'priced'
p676
I31
sS'almost'
p677
I29
sS'is'
p678
I12
sS'it'
p679
I14
sS'sleeping'
p680
I31
sS'fucken'
p681
I31
sS'jess'
p682
I31
sS'cant'
p683
I31
sS'someone'
p684
I29
sS'im'
p685
I28
sS'in'
p686
I11
sS'thug'
p687
I31
sS'theta'
p688
I31
sS'id'
p689
I30
sS'if'
p690
I26
sS'funny'
p691
I31
sS'esperandome'
p692
I31
sS'fkn'
p693
I31
sS'perform'
p694
I31
sS'make'
p695
I29
sS'same'
p696
I31
sS'trip'
p697
I31
sS'ya'
p698
I30
sS'eldridge'
p699
I31
sS'followers'
p700
I30
sS'hahah'
p701
I31
sS'"i'
p702
I31
sS'party'
p703
I30
sS'prayers'
p704
I31
sS'start'
p705
I31
sS'week'
p706
I31
sS'finish'
p707
I31
sS'tipsy'
p708
I31
sS'pornstar'
p709
I31
sS'yesterday'
p710
I31
sS'fucker'
p711
I31
sS'kik'
p712
I31
sS'moment'
p713
I28
sS'arrived'
p714
I31
sS'kim'
p715
I31
sS'fucked'
p716
I30
sS"momma's"
p717
I31
sS'dylan'
p718
I31
sS'off'
p719
I31
sS'aunts'
p720
I31
sS'i'
p721
I1
sS'amazes'
p722
I31
sS'update'
p723
I31
sS'well'
p724
I31
sS'kept'
p725
I31
sS'finds'
p726
I31
sS'thought'
p727
I29
sS'cheer'
p728
I30
sS'without'
p729
I31
sS'oops'
p730
I30
sS'deserve'
p731
I31
sS'hearts'
p732
I30
sS'the'
p733
I5
sS'drawing'
p734
I31
sS'left'
p735
I27
sS'load'
p736
I31
sS'remember'
p737
I31
sS'\xe2\x98\xba\xef\xb8\x8f'
p738
I31
sS'just'
p739
I14
sS'being'
p740
I31
sS'money'
p741
I28
sS'am"'
p742
I31
sS'sleepy'
p743
I30
sS'restrooms'
p744
I31
sS'everyear'
p745
I31
sS'clases'
p746
I31
sS'followed'
p747
I30
sS'yes'
p748
I31
sS'yet'
p749
I31
sS'captured'
p750
I31
sS'jose'
p751
I31
sS'broncos'
p752
I30
sS'$'
p753
I30
sS'thinking'
p754
I30
sS"goldblum's"
p755
I31
sS'jeff'
p756
I31
sS'had'
p757
I27
sS'theater'
p758
I31
sS'(:<'
p759
I31
sS"bee's"
p760
I31
sS'color'
p761
I31
sS'crying'
p762
I30
sS'wet'
p763
I31
sS'tell'
p764
I31
sS'has'
p765
I28
sS'hates'
p766
I31
sS'sandwiches'
p767
I31
sS'real'
p768
I31
sS'makes'
p769
I31
sS'.sooo'
p770
I31
sS'(3803'
p771
I30
sS'bands'
p772
I31
sS'homehp'
p773
I31
sS'gonna'
p774
I29
sS'early'
p775
I28
sS'game'
p776
I30
sS'know'
p777
I30
sS'mom'
p778
I27
sS'world'
p779
I28
sS'highly'
p780
I31
sS'dreams'
p781
I30
sS'd'
p782
I31
sS'valentine'
p783
I31
sS'bro'
p784
I30
sS'fleas'
p785
I31
sS'like'
p786
I9
sS'lost'
p787
I31
sS'tia'
p788
I31
sS'whos'
p789
I31
sS'nose'
p790
I31
sS'meringue'
p791
I31
sS'night'
p792
I28
sS':-))))'
p793
I31
sS'me\xe2\x80\x9d'
p794
I31
sS'page'
p795
I31
sS'flappy'
p796
I31
sS'lol*restraunt*'
p797
I31
sS'nigga'
p798
I29
sS'cramps\xe2\x80\x9d'
p799
I31
sS'laugh'
p800
I31
sS'deal'
p801
I31
sS'people'
p802
I24
sS'fucking'
p803
I29
sS'knock'
p804
I31
sS'twitter'
p805
I31
sS'yolo'
p806
I31
sS'some'
p807
I30
sS'back'
p808
I30
sS'ewww'
p809
I31
sS'oh'
p810
I31
sS'hair'
p811
I26
sS'mighty'
p812
I31
sS'home'
p813
I25
sS'supportive'
p814
I31
sS'gracie'
p815
I30
sS'bless'
p816
I31
sS'for'
p817
I17
sS'cut'
p818
I31
sS'track'
p819
I31
sS'prom'
p820
I31
sS'does'
p821
I30
sS'kms'
p822
I31
sS'pee'
p823
I31
sS'foo'
p824
I31
sS'be'
p825
I23
sS'bf'
p826
I31
sS'knew'
p827
I31
sS'pls'
p828
I31
sS'bc'
p829
I25
sS'seconds'
p830
I31
sS'corn'
p831
I30
sS'burn'
p832
I31
sS'iconic'
p833
I31
sS'jack'
p834
I31
sS'feelings'
p835
I31
sS'baha'
p836
I31
sS'burp'
p837
I31
sS'keeper'
p838
I31
sS'memorable'
p839
I31
sS'peep'
p840
I31
sS'lasttime'
p841
I31
sS'told)'
p842
I31
sS'shine'
p843
I31
sS'on'
p844
I19
sS'about'
p845
I24
sS'viviana'
p846
I31
sS'anything'
p847
I31
sS'getting'
p848
I30
sS'3500'
p849
I31
sS'of'
p850
I18
sS'favorite'
p851
I31
sS'mkae'
p852
I31
sS'deserves'
p853
I31
sS'sweat'
p854
I31
sS'shitting'
p855
I31
sS'luck'
p856
I31
sS'wanna'
p857
I28
sS'or'
p858
I22
sS'block'
p859
I31
sS'swimming'
p860
I31
sS'seeing'
p861
I31
sS'ladies'
p862
I31
sS'hometown'
p863
I31
sS'paisas'
p864
I31
sS'snapchat'
p865
I30
sS'cray'
p866
I31
sS'down'
p867
I28
sS'freaked'
p868
I31
sS'guard'
p869
I31
sS'(huntington'
p870
I29
sS'apologize'
p871
I31
sS'sports'
p872
I30
sS'lebron'
p873
I31
sS'your'
p874
I18
sS'smells'
p875
I31
sS'burglar'
p876
I31
sS'her'
p877
I29
sS'anymore'
p878
I31
sS'buttface'
p879
I31
sS'there'
p880
I29
sS'question'
p881
I31
sS'live'
p882
I31
sS'lol'
p883
I20
sS'stuck'
p884
I30
sS'lonely'
p885
I31
sS'downey'
p886
I31
sS'lot'
p887
I30
sS'notices'
p888
I30
sS'music'
p889
I30
sS'was'
p890
I13
sS'fathers'
p891
I31
sS'happy'
p892
I28
sS'buy'
p893
I30
sS'0-0'
p894
I31
sS"i've"
p895
I27
sS'bus'
p896
I31
sS'hp'
p897
I30
sS'lmaooo'
p898
I31
sS'but'
p899
I21
sS'bags'
p900
I31
sS'heat'
p901
I31
sS'hi'
p902
I31
sS'atlantic'
p903
I30
sS'tho'
p904
I28
sS'beat'
p905
I31
sS'maker'
p906
I31
sS'ha'
p907
I30
sS'with'
p908
I15
sS'eat'
p909
I31
sS'hilarious!,90255\n489782263597395968,og_nickdiaz,2014-07-17'
p910
I31
sS'he'
p911
I30
sS'football'
p912
I31
sS'tumblr'
p913
I31
sS'throw'
p914
I31
sS'made'
p915
I30
sS'mesic'
p916
I31
sS'friday'
p917
I31
sS',90255\n476742233421402112,brigitteboogie,2014-06-11'
p918
I31
sS'wish'
p919
I29
sS'up'
p920
I16
sS'us'
p921
I31
sS'ur'
p922
I30
sS'r.i.p'
p923
I31
sS'un'
p924
I31
sS"crackin'"
p925
I31
sS'200+'
p926
I31
sS'stardust'
p927
I31
sS'problem'
p928
I31
sS'sweet'
p929
I31
sS'sometimes'
p930
I31
sS'hotter'
p931
I30
sS'pimples'
p932
I31
sS'videos'
p933
I31
sS'af'
p934
I29
sS'taste'
p935
I31
sS'\xee\x90\x8e\xee\x90\x8e\xee\x90\x8e'
p936
I31
sS'am'
p937
I29
sS'pie'
p938
I30
sS'an'
p939
I30
sS'as'
p940
I27
sS'at'
p941
I16
sS'girlfriend'
p942
I31
sS'ship'
p943
I30
sS'annoying'
p944
I30
sS'pit'
p945
I31
sS'girl'
p946
I31
sS'shit'
p947
I27
sS'again'
p948
I31
sS'lemon'
p949
I31
sS'dying'
p950
I31
sS'no'
p951
I22
sS'ends'
p952
I31
sS'sexual'
p953
I31
sS'nah'
p954
I31
sS'when'
p955
I14
sS'ringtone'
p956
I31
sS'til'
p957
I31
sS'book'
p958
I31
sS'parakeet'
p959
I31
sS'sick'
p960
I31
sS'pooping'
p961
I31
sS'you'
p962
I8
sS'really'
p963
I30
sS'weeeeeeaaaaak'
p964
I31
sS'thousand'
p965
I31
sS'nice'
p966
I31
sS'picture'
p967
I30
sS'gf'
p968
I31
sS'hey'
p969
I31
sS'monday'
p970
I31
sS'welcome'
p971
I31
sS'scared'
p972
I31
sS"let's"
p973
I29
sS'chance'
p974
I31
sS'fell'
p975
I31
sS'14:42:46.0,33.9654278,-118.1992983,5345.02,are'
p976
I31
sS'kinda'
p977
I31
sS'professional'
p978
I31
sS'uknow'
p979
I31
sS'chest.\xe2\x80\x9d'
p980
I31
sS'friends'
p981
I30
sS'earphones'
p982
I31
sS'ago'
p983
I31
sS'ochinchin'
p984
I31
sS"he's"
p985
I31
sS'martin'
p986
I31
sS'scream'
p987
I31
sS'vas'
p988
I31
sS'hella'
p989
I31
sS'u'
p990
I18
sS'time'
p991
I28
sS"she's"
p992
I31
sS'once'
p993
I31
sS'geos'
p994
I31
sS'-.-'
p995
I31
s.