(dp0
S''
p1
I1
sS'inning'
p2
I23
sS'all'
p3
I18
sS':)'
p4
I23
sS'errbody'
p5
I23
sS'month'
p6
I23
sS'sleep'
p7
I21
sS'go'
p8
I17
sS'gn'
p9
I23
sS'hate'
p10
I21
sS'zone'
p11
I23
sS'*leo*'
p12
I23
sS'thursday'
p13
I23
sS'to'
p14
I5
sS'finally'
p15
I22
sS'those'
p16
I23
sS'tf'
p17
I23
sS'pay'
p18
I23
sS'td'
p19
I23
sS'shoot'
p20
I23
sS'song'
p21
I23
sS'tacos'
p22
I23
sS'selfies'
p23
I23
sS'every'
p24
I23
sS'telling'
p25
I23
sS'ma'
p26
I23
sS'ticket'
p27
I23
sS'cool'
p28
I23
sS'school'
p29
I22
sS'.,90001\n488085316251570176,lovelykaii,2014-07-12'
p30
I23
sS'did'
p31
I23
sS'michael'
p32
I23
sS'upload'
p33
I23
sS'leave'
p34
I23
sS'vibes'
p35
I23
sS'),90001\n508973297896153090,_roger08,2014-09-08'
p36
I23
sS'guy'
p37
I23
sS"i'll"
p38
I23
sS'talked'
p39
I23
sS'booty'
p40
I23
sS'tired'
p41
I23
sS'sign'
p42
I23
sS'ulises'
p43
I22
sS'second'
p44
I23
sS'pass'
p45
I23
sS'n'
p46
I22
sS'even'
p47
I20
sS'army'
p48
I23
sS'what'
p49
I23
sS'\xee\x90\xa0'
p50
I23
sS'bestfriends'
p51
I23
sS'version'
p52
I23
sS'motivation,90001\n509155274809032704,_roger08,2014-09-09'
p53
I23
sS'sup'
p54
I23
sS'reply'
p55
I23
sS"o'riley,90001\n499045640622866432,antonychaides,2014-08-12"
p56
I23
sS'bird'
p57
I23
sS'told'
p58
I23
sS'body'
p59
I23
sS'lessons'
p60
I23
sS'cam'
p61
I23
sS'pancakes'
p62
I23
sS'never'
p63
I20
sS'here'
p64
I23
sS'desiree'
p65
I23
sS'let'
p66
I23
sS'change'
p67
I22
sS'wait'
p68
I22
sS'boy'
p69
I23
sS'great'
p70
I23
sS'kids'
p71
I23
sS'04:12:07.0,33.9719589,-118.2501457,5350.01,np'
p72
I23
sS'losses'
p73
I23
sS'leaving'
p74
I22
sS'omar'
p75
I23
sS'pick'
p76
I23
sS"i'm"
p77
I15
sS'thats'
p78
I23
sS'friendzone'
p79
I23
sS'golden'
p80
I23
sS'love'
p81
I19
sS'mannn'
p82
I23
sS'family'
p83
I23
sS'win'
p84
I23
sS'while'
p85
I23
sS'private'
p86
I23
sS'bro'
p87
I22
sS'wit'
p88
I22
sS'strong,90001\n509141040129781760,_roger08,2014-09-09'
p89
I23
sS'fake'
p90
I23
sS'concussions'
p91
I23
sS'ass\xe2\x9c\x8b'
p92
I23
sS'1901'
p93
I23
sS'use'
p94
I23
sS'would'
p95
I22
sS'&'
p96
I22
sS'sweater'
p97
I22
sS'fkkenjosh'
p98
I23
sS'cho'
p99
I23
sS'music'
p100
I23
sS'6'
p101
I23
sS'typa'
p102
I23
sS'tell'
p103
I23
sS'today'
p104
I19
sS'more'
p105
I22
sS'scary'
p106
I23
sS'city'
p107
I23
sS':-('
p108
I23
sS'fuck'
p109
I18
sS'sore'
p110
I23
sS"ain't"
p111
I22
sS'too,90001\n509160114691903490,_roger08,2014-09-09'
p112
I23
sS'baby'
p113
I21
sS'earth'
p114
I23
sS'you-.-'
p115
I23
sS'me'
p116
I9
sS'word'
p117
I23
sS'room'
p118
I22
sS'this'
p119
I11
sS'car'
p120
I23
sS'$\xe2\x80\x9d'
p121
I23
sS'mi'
p122
I23
sS'remain'
p123
I23
sS'can'
p124
I20
sS'9th'
p125
I23
sS'making'
p126
I23
sS'7-0'
p127
I23
sS'my'
p128
I3
sS'wearing'
p129
I22
sS'crazy'
p130
I21
sS'give'
p131
I22
sS'alba'
p132
I23
sS'punk'
p133
I23
sS"didn't"
p134
I23
sS'stressing'
p135
I23
sS'accept'
p136
I23
sS'high'
p137
I22
sS'18:05:42.0,33.9727306,-118.2556343,5350.01,jordi'
p138
I23
sS'homie'
p139
I23
sS'want'
p140
I19
sS'dress'
p141
I23
sS'comes'
p142
I23
sS'end'
p143
I23
sS'dreads'
p144
I23
sS'phoenix-'
p145
I23
sS'yfc'
p146
I22
sS'1'
p147
I23
sS'how'
p148
I22
sS'answer'
p149
I23
sS'beach'
p150
I22
sS'okay'
p151
I23
sS'bday'
p152
I23
sS'stop'
p153
I23
sS'after'
p154
I20
sS'cauuuuseee'
p155
I23
sS'fb'
p156
I23
sS'4th'
p157
I23
sS'lay'
p158
I22
sS'date'
p159
I23
sS'suck'
p160
I23
sS'guys'
p161
I23
sS'a'
p162
I8
sS'realized'
p163
I23
sS'remember'
p164
I23
sS'johnson'
p165
I23
sS'tweeting'
p166
I23
sS'shady'
p167
I23
sS'so'
p168
I15
sS'13:41:05.0,33.9730067,-118.2549194,5350.01,earthquake'
p169
I23
sS'sc'
p170
I23
sS'playing'
p171
I23
sS'talk'
p172
I23
sS"that's"
p173
I20
sS'cute'
p174
I22
sS"don't"
p175
I13
sS'over'
p176
I23
sS'move'
p177
I23
sS'cook'
p178
I23
sS'aha'
p179
I23
sS'through'
p180
I22
sS'looks'
p181
I22
sS'replies'
p182
I23
sS'still'
p183
I23
sS'its'
p184
I21
sS'dont'
p185
I22
sS'perfect'
p186
I23
sS'21'
p187
I23
sS'somewhere'
p188
I23
sS'better'
p189
I23
sS'lp'
p190
I23
sS'soccer'
p191
I23
sS"haven't"
p192
I22
sS'dad'
p193
I22
sS'then'
p194
I20
sS'them'
p195
I23
sS'good'
p196
I15
sS'coworkers'
p197
I23
sS'yo'
p198
I23
sS'food'
p199
I22
sS'practice'
p200
I23
sS'18:05:04.0,33.9727306,-118.2556343,5350.01,omg'
p201
I23
sS'nation'
p202
I23
sS'lunch'
p203
I22
sS'drinking'
p204
I23
sS'they'
p205
I22
sS'half'
p206
I22
sS'not'
p207
I22
sS'now'
p208
I22
sS'luck,90001\n499061613643968514,antonychaides,2014-08-12'
p209
I23
sS'day'
p210
I22
sS'bank'
p211
I23
sS'forreals'
p212
I23
sS'dayummmm'
p213
I23
sS'always'
p214
I21
sS'4got'
p215
I23
sS'woahhhh'
p216
I23
sS'trap'
p217
I23
sS'rock'
p218
I23
sS'side'
p219
I23
sS'luck'
p220
I23
sS'el'
p221
I23
sS'weight'
p222
I23
sS'daruler'
p223
I23
sS'yeah'
p224
I23
sS'year'
p225
I23
sS'todo'
p226
I23
sS'thang;d'
p227
I23
sS'out'
p228
I20
sS'rt'
p229
I23
sS'gullible'
p230
I23
sS'jackson'
p231
I23
sS'chokers'
p232
I23
sS'vic'
p233
I23
sS'safety'
p234
I23
sS'perro'
p235
I22
sS'smh'
p236
I20
sS'got'
p237
I18
sS'rn'
p238
I23
sS'cause'
p239
I21
sS'red'
p240
I23
sS'ass'
p241
I22
sS"you're"
p242
I23
sS"dd's"
p243
I23
sS'friday'
p244
I23
sS'put'
p245
I21
sS'bleed'
p246
I23
sS'care'
p247
I23
sS'chilli'
p248
I23
sS'ate'
p249
I23
sS'chillan'
p250
I23
sS'could'
p251
I19
sS'florida'
p252
I23
sS'wrong'
p253
I23
sS'birthday'
p254
I23
sS'place'
p255
I22
sS',90001\n508968622597758976,_roger08,2014-09-08'
p256
I23
sS'think'
p257
I22
sS'first'
p258
I21
sS'enjoy'
p259
I23
sS'lmao.dayum'
p260
I23
sS'>>'
p261
I23
sS'feel'
p262
I21
sS'xd'
p263
I23
sS'yourself'
p264
I21
sS'wash'
p265
I23
sS'bitch'
p266
I21
sS'lagging'
p267
I23
sS'sounds'
p268
I23
sS'miss'
p269
I21
sS'tomorrow'
p270
I21
sS"doesn't"
p271
I23
sS'little'
p272
I23
sS'bianca'
p273
I23
sS'girls'
p274
I21
sS'least'
p275
I23
sS'anyone'
p276
I23
sS'their'
p277
I23
sS'2'
p278
I23
sS'too'
p279
I20
sS'hollywood'
p280
I23
sS'beard'
p281
I23
sS'selling'
p282
I23
sS'para'
p283
I23
sS'that'
p284
I16
sS'season'
p285
I23
sS'took'
p286
I23
sS'trippy'
p287
I23
sS'because'
p288
I23
sS'04:42:56.0,33.9719312,-118.2500797,5350.01,fuck'
p289
I23
sS'believe'
p290
I23
sS'splendid'
p291
I23
sS'10'
p292
I23
sS'anxiety'
p293
I23
sS'15'
p294
I23
sS'lmao'
p295
I19
sS'16'
p296
I23
sS'19'
p297
I23
sS'gotta'
p298
I22
sS'shower'
p299
I22
sS'matter'
p300
I23
sS'classes'
p301
I23
sS'feeling'
p302
I22
sS'bet'
p303
I23
sS'inlove'
p304
I23
sS'and'
p305
I12
sS'ran'
p306
I23
sS'reunion'
p307
I23
sS'mine'
p308
I23
sS'tonight'
p309
I20
sS'say'
p310
I23
sS'have'
p311
I17
sS'need'
p312
I23
sS'breakfast'
p313
I22
sS'\xee\x90\x82\xee\x90\x84\xee\x8c\xb1,90001\n488086068936204288,lovelykaii,2014-07-12'
p314
I23
sS'wilson'
p315
I23
sS'02:03:25.0,33.9727999,-118.2560469,5350.01,mcm'
p316
I23
sS'dancing'
p317
I23
sS'there\xe2\x80\x99s'
p318
I23
sS'fdb,90001\n499615175394463744,antonychaides,2014-08-13'
p319
I23
sS'omfg'
p320
I22
sS'take'
p321
I21
sS'mias'
p322
I23
sS'lindo'
p323
I23
sS'jail'
p324
I23
sS'blunt'
p325
I23
sS'model,90001\n506140629412233217,_roger08,2014-08-31'
p326
I23
sS'oops'
p327
I23
sS'play'
p328
I23
sS'sure'
p329
I23
sS'pain'
p330
I23
sS'nayarit'
p331
I23
sS'though'
p332
I22
sS'who'
p333
I23
sS'lol,90001\n506163354801434625,_roger08,2014-08-31'
p334
I23
sS'freddie'
p335
I23
sS'most'
p336
I23
sS'virus'
p337
I23
sS'73'
p338
I23
sS'nothing'
p339
I23
sS'why'
p340
I22
sS'hungrryyy'
p341
I23
sS'later'
p342
I23
sS'truck\xe2\x80\x9d'
p343
I23
sS'doe'
p344
I23
sS'movie'
p345
I23
sS'normally'
p346
I23
sS'came'
p347
I23
sS'walking'
p348
I23
sS'bomb'
p349
I23
sS'show'
p350
I23
sS'mains'
p351
I22
sS'lmaoi'
p352
I23
sS'bring'
p353
I23
sS'stfu'
p354
I22
sS'radio'
p355
I23
sS'coming...soon'
p356
I23
sS'find'
p357
I23
sS'one'
p358
I19
sS'busy'
p359
I23
sS'cousins'
p360
I23
sS'dick'
p361
I22
sS'ocd'
p362
I22
sS'should'
p363
I23
sS'only'
p364
I22
sS'going'
p365
I21
sS'bitxh'
p366
I23
sS'rick'
p367
I23
sS'pretty'
p368
I22
sS'hope'
p369
I23
sS'hip'
p370
I23
sS'do'
p371
I13
sS'his'
p372
I23
sS'get'
p373
I19
sS'beat'
p374
I23
sS'watch'
p375
I22
sS'lucky'
p376
I23
sS'da'
p377
I23
sS'estrella'
p378
I23
sS'woooooo'
p379
I23
sS'state'
p380
I23
sS'19:35:22.0,33.9730097,-118.2548944,5350.01,goooalllll,90001\n506140789315862528,_roger08,2014-08-31'
p381
I23
sS'uyyy'
p382
I23
sS'learned'
p383
I23
sS'ghetto'
p384
I23
sS'homeeee'
p385
I23
sS'cry'
p386
I23
sS'morning'
p387
I23
sS'bad'
p388
I21
sS'miles'
p389
I23
sS'she'
p390
I19
sS'x'
p391
I23
sS'where'
p392
I21
sS"y'all"
p393
I23
sS'btw'
p394
I23
sS'wf'
p395
I23
sS'w/'
p396
I22
sS'\xee\x90\xa0\xee\x80\x8e'
p397
I23
sS'see'
p398
I22
sS'are'
p399
I19
sS'corre'
p400
I23
sS'ruined'
p401
I23
sS'eres'
p402
I23
sS'said'
p403
I23
sS'pictures'
p404
I23
sS'away'
p405
I23
sS'favor'
p406
I23
sS'3'
p407
I23
sS'score'
p408
I23
sS'hopefully'
p409
I23
sS'before'
p410
I23
sS'bought'
p411
I22
sS'ima'
p412
I23
sS'we'
p413
I17
sS'omg'
p414
I21
sS'mexicans'
p415
I23
sS'attention'
p416
I22
sS'weak'
p417
I23
sS'wear'
p418
I23
sS'wtf'
p419
I22
sS'hurts'
p420
I23
sS'kev'
p421
I23
sS'both'
p422
I23
sS'fosho'
p423
I23
sS'last'
p424
I22
sS'joke'
p425
I23
sS'blimp'
p426
I23
sS'against'
p427
I23
sS'admit'
p428
I23
sS'day.\xe2\x80\x9d'
p429
I23
sS'smh\xe2\x80\x9d'
p430
I23
sS'\xe2\x98\xbapositive'
p431
I23
sS"can't"
p432
I22
sS'como'
p433
I23
sS'character'
p434
I23
sS'period'
p435
I23
sS'2nd'
p436
I23
sS'fattie'
p437
I23
sS'improvement'
p438
I23
sS'duh'
p439
I22
sS'teddy'
p440
I22
sS"it's"
p441
I21
sS'06:44:11.0,33.9715706,-118.2499402,5350.01,bout'
p442
I23
sS'beer'
p443
I23
sS'much'
p444
I22
sS'6-0'
p445
I23
sS'pj'
p446
I21
sS"randy's"
p447
I23
sS'carei'
p448
I23
sS'woke'
p449
I23
sS'>'
p450
I21
sS'wants'
p451
I23
sS'life'
p452
I22
sS'mi\xe2\x99\xa5'
p453
I23
sS"where's"
p454
I22
sS'gay'
p455
I23
sS'hmu'
p456
I23
sS"don't,90001\n514304200634007552,antonychaides,2014-09-23"
p457
I23
sS'-.-'
p458
I23
sS'catch'
p459
I23
sS'present'
p460
I23
sS'chill'
p461
I21
sS'myself'
p462
I23
sS'look'
p463
I22
sS'bfk"'
p464
I23
sS'these'
p465
I22
sS'bill'
p466
I23
sS'as'
p467
I23
sS'transformation'
p468
I23
sS'will'
p469
I22
sS'stunning'
p470
I23
sS'goodmorning'
p471
I23
sS'many'
p472
I23
sS'fool'
p473
I23
sS'seven'
p474
I23
sS'mexico'
p475
I23
sS'almost'
p476
I23
sS'is'
p477
I10
sS'it'
p478
I17
sS'sleeping'
p479
I23
sS'vs'
p480
I23
sS'im'
p481
I21
sS'in'
p482
I10
sS'ready'
p483
I22
sS'sits'
p484
I23
sS'pill'
p485
I23
sS'monroe'
p486
I23
sS'if'
p487
I19
sS'funny'
p488
I21
sS'shirt'
p489
I23
sS'anymore'
p490
I22
sS'things'
p491
I22
sS'make'
p492
I22
sS'0'
p493
I22
sS'same'
p494
I22
sS'ya'
p495
I23
sS'gibbs'
p496
I23
sS'party'
p497
I22
sS'gets'
p498
I22
sS'forgiveness'
p499
I23
sS'mane'
p500
I23
sS'ball'
p501
I23
sS'selfish'
p502
I23
sS'yesterday'
p503
I22
sS'hand'
p504
I23
sS'fucken'
p505
I22
sS'spree'
p506
I23
sS'burrito'
p507
I22
sS'i'
p508
I2
sS'well'
p509
I23
sS'tho'
p510
I22
sS'person'
p511
I23
sS'jersey'
p512
I23
sS'the'
p513
I4
sS'yours'
p514
I23
sS'just'
p515
I15
sS'less'
p516
I23
sS'being'
p517
I23
sS'weekend'
p518
I23
sS'ignoring'
p519
I23
sS'thanks'
p520
I23
sS'touch'
p521
I23
sS'yes'
p522
I22
sS'yet'
p523
I23
sS'cut'
p524
I23
sS'thinking'
p525
I23
sS'melinda'
p526
I23
sS'gma'
p527
I23
sS'had'
p528
I22
sS'cuz'
p529
I22
sS'bullshit'
p530
I22
sS'about'
p531
I23
sS'mann'
p532
I23
sS'fkn'
p533
I23
sS'crying'
p534
I23
sS'homies'
p535
I23
sS'13:22:30.0,33.9728596,-118.2560394,5350.01,,90001\n506211860299804672,_roger08,2014-08-31'
p536
I23
sS'excited'
p537
I23
sS'post,90001\n503011605626376194,_roger08,2014-08-23'
p538
I23
sS'real'
p539
I21
sS'customers'
p540
I23
sS'vanessa'
p541
I23
sS"who's"
p542
I23
sS'gonna'
p543
I23
sS'game'
p544
I20
sS'know'
p545
I21
sS'mom'
p546
I22
sS'wanting'
p547
I23
sS'world'
p548
I23
sS'walk'
p549
I23
sS'like'
p550
I16
sS'flappy'
p551
I23
sS'bobby'
p552
I23
sS'follows'
p553
I23
sS'continue'
p554
I23
sS'lose'
p555
I23
sS'disorder'
p556
I23
sS'page'
p557
I23
sS'v.v,90001\n459109885217476608,jeremy_lazlo,2014-04-23'
p558
I23
sS'nigga'
p559
I20
sS'people'
p560
I21
sS'scared'
p561
I23
sS'some'
p562
I23
sS'20:23:17.0,33.971693,-118.2498968,5350.01,1st'
p563
I23
sS'dead'
p564
I23
sS'oh'
p565
I23
sS'eddie'
p566
I23
sS'0-100'
p567
I23
sS'gay,90001\n508427556425842688,antonychaides,2014-09-07'
p568
I23
sS'home'
p569
I18
sS'finna'
p570
I21
sS'for'
p571
I14
sS'literally'
p572
I23
sS'800+'
p573
I23
sS'f\xc3\xbatbol'
p574
I23
sS'outfit\xe2\x99\xa5>>>>'
p575
I23
sS'moon'
p576
I22
sS'everything'
p577
I20
sS'('
p578
I23
sS'cheese'
p579
I23
sS'be'
p580
I14
sS'bf'
p581
I23
sS'eating'
p582
I23
sS'bc'
p583
I23
sS'lmfao'
p584
I23
sS'night'
p585
I23
sS'raided'
p586
I23
sS'152'
p587
I23
sS'"w"'
p588
I23
sS'shmoke'
p589
I23
sS'on'
p590
I14
sS'sister'
p591
I23
sS'anything'
p592
I23
sS'getting'
p593
I20
sS'og'
p594
I23
sS'of'
p595
I15
sS'k.o..,90001\n512698396046413824,antonychaides,2014-09-18'
p596
I23
sS'alreadyyy'
p597
I23
sS'dinner'
p598
I23
sS'swear'
p599
I23
sS'idk'
p600
I23
sS'dreads\xe2\x80\x9ddamn'
p601
I23
sS'wanna'
p602
I21
sS'or'
p603
I23
sS'guey'
p604
I23
sS'own'
p605
I23
sS'owe'
p606
I23
sS'blessed'
p607
I23
sS'snapchat'
p608
I22
sS'down'
p609
I22
sS'01:32:30.0,33.9717893,-118.2500272,5350.01,man'
p610
I23
sS'dayuum'
p611
I23
sS'next'
p612
I23
sS'nowadays'
p613
I23
sS'your'
p614
I18
sS'fyck'
p615
I23
sS'lmao,90001\n499053395039518720,antonychaides,2014-08-12'
p616
I23
sS'gopro'
p617
I23
sS'lol'
p618
I7
sS'fight'
p619
I23
sS'start'
p620
I21
sS'papis'
p621
I23
sS'house'
p622
I23
sS',90001\n508852565061414912,antonychaides,2014-09-08'
p623
I23
sS'was'
p624
I19
sS'twitter'
p625
I23
sS'happy'
p626
I21
sS'head'
p627
I23
sS'complete'
p628
I23
sS'bus'
p629
I23
sS'bitches'
p630
I22
sS'but'
p631
I22
sS'23:21:41.0,33.97438401,-118.25527028,5350.01,can'
p632
I23
sS'notifications'
p633
I23
sS'hi'
p634
I23
sS'hear'
p635
I23
sS'goals'
p636
I23
sS'line'
p637
I23
sS'trying'
p638
I23
sS'with'
p639
I14
sS'hudgens'
p640
I23
sS'he'
p641
I21
sS'made'
p642
I22
sS'originals'
p643
I23
sS'wish'
p644
I22
sS'lol,90001\n509161382533529600,_roger08,2014-09-09'
p645
I23
sS'fries'
p646
I23
sS'up'
p647
I19
sS'us'
p648
I20
sS'until'
p649
I23
sS'work'
p650
I23
sS'scorning'
p651
I23
sS'adore'
p652
I23
sS'threw'
p653
I23
sS'minutes'
p654
I22
sS'gone'
p655
I23
sS'camp'
p656
I23
sS'af'
p657
I21
sS'am'
p658
I22
sS'meanwhile'
p659
I23
sS'single'
p660
I23
sS'right'
p661
I23
sS'at'
p662
I15
sS'yankess'
p663
I23
sS'face'
p664
I23
sS'eric'
p665
I18
sS'shit'
p666
I18
sS'22:48:07.0,33.9728454,-118.2560563,5350.01,but'
p667
I23
sS'again'
p668
I22
sS'22:22:41.0,33.9739208,-118.2534229,5350.01,i'
p669
I23
sS'no'
p670
I20
sS'nah'
p671
I21
sS'pecks'
p672
I23
sS'when'
p673
I18
sS'green'
p674
I23
sS'nap'
p675
I23
sS'interested'
p676
I22
sS'role'
p677
I23
sS'you'
p678
I6
sS'really'
p679
I18
sS'roll'
p680
I23
sS'nice'
p681
I23
sS'papi'
p682
I18
sS'games'
p683
I23
sS'watchout'
p684
I23
sS'felt'
p685
I23
sS'ooh'
p686
I23
sS"let's"
p687
I22
sS'chance'
p688
I23
sS'friends'
p689
I20
sS'goin'
p690
I23
sS'loyal'
p691
I23
sS'u'
p692
I19
sS'karma'
p693
I23
sS'so**'
p694
I23
sS'time'
p695
I21
sS'alright'
p696
I23
sS'having'
p697
I23
s.