(dp0
S''
p1
I1
sS'"chris'
p2
I25
sS'all'
p3
I18
sS':('
p4
I24
sS':)'
p5
I25
sS'junkies"'
p6
I25
sS'dance'
p7
I24
sS'todayy'
p8
I25
sS'gf'
p9
I19
sS'sleep'
p10
I18
sS"friend's"
p11
I25
sS'go'
p12
I19
sS'chair'
p13
I25
sS'liam'
p14
I25
sS'hate'
p15
I24
sS'suicide'
p16
I25
sS'imma'
p17
I25
sS'send'
p18
I25
sS'presents'
p19
I25
sS'to'
p20
I4
sS'finally'
p21
I23
sS'saw'
p22
I25
sS'laaaaaate'
p23
I25
sS'ilysm'
p24
I25
sS'sent'
p25
I25
sS':o'
p26
I24
sS'worse'
p27
I25
sS'very'
p28
I24
sS'*sigh'
p29
I25
sS'vegas'
p30
I25
sS':p'
p31
I24
sS'fag'
p32
I25
sS'minute'
p33
I25
sS'cool'
p34
I25
sS'tickets'
p35
I25
sS'school'
p36
I21
sS'heaven'
p37
I25
sS'<33'
p38
I25
sS'level'
p39
I25
sS'cleaners'
p40
I25
sS'venue'
p41
I25
sS'brother'
p42
I24
sS'somos'
p43
I25
sS'these'
p44
I25
sS'soooo'
p45
I25
sS"i'll"
p46
I25
sS'\xee\x90\x8f'
p47
I25
sS'goodmoring'
p48
I25
sS'says'
p49
I25
sS'\xee\x90\x88'
p50
I25
sS'tired'
p51
I23
sS'streets'
p52
I25
sS'past'
p53
I25
sS'talks'
p54
I25
sS'pass'
p55
I25
sS'run'
p56
I25
sS'helpless'
p57
I25
sS'\xee\x90\x91'
p58
I25
sS'click'
p59
I25
sS'\xee\x90\x92'
p60
I25
sS'even'
p61
I20
sS'what'
p62
I25
sS'giving'
p63
I25
sS'+'
p64
I25
sS'uniform'
p65
I25
sS'yet.\xe2\x80\x9d"'
p66
I25
sS'compaa'
p67
I25
sS'goes'
p68
I24
sS'new'
p69
I25
sS'officially'
p70
I25
sS'told'
p71
I25
sS'full'
p72
I24
sS'never'
p73
I23
sS'here'
p74
I24
sS'hours'
p75
I23
sS'\xe2\x9d\xa4\xef\xb8\x8f'
p76
I24
sS'let'
p77
I23
sS'alone'
p78
I25
sS'goodmorning'
p79
I25
sS'teacher'
p80
I24
sS'change'
p81
I24
sS'wait'
p82
I25
sS'great'
p83
I24
sS'kids'
p84
I25
sS'\xe2\x9a\xbd\xef\xb8\x8f'
p85
I25
sS'pressure'
p86
I25
sS'my'
p87
I3
sS'pics'
p88
I25
sS'tv'
p89
I25
sS'smoke'
p90
I24
sS'nervous'
p91
I25
sS"i'm"
p92
I10
sS'makes'
p93
I25
sS'love'
p94
I20
sS'family'
p95
I24
sS'claim'
p96
I25
sS'prefer'
p97
I25
sS'brought'
p98
I25
sS"know'"
p99
I25
sS'logically'
p100
I25
sS'yuppppooo'
p101
I25
sS'lime'
p102
I24
sS'from'
p103
I22
sS'usa'
p104
I24
sS'&'
p105
I22
sS'dude'
p106
I24
sS'two'
p107
I25
sS'jam'
p108
I25
sS'until'
p109
I23
sS'today'
p110
I22
sS'loving'
p111
I25
sS'tryna'
p112
I25
sS'babe'
p113
I24
sS'hipop'
p114
I25
sS'club'
p115
I25
sS'brings'
p116
I25
sS'haha'
p117
I22
sS'sister'
p118
I24
sS'chocolate'
p119
I25
sS'phone'
p120
I25
sS'ate'
p121
I24
sS"ain't"
p122
I23
sS'baby'
p123
I24
sS'violenceultra'
p124
I25
sS'me'
p125
I6
sS'bugging'
p126
I25
sS'ma'
p127
I23
sS'this'
p128
I21
sS'car'
p129
I24
sS'work'
p130
I23
sS'sucks'
p131
I25
sS'friends<333'
p132
I25
sS'yup'
p133
I25
sS'elbow'
p134
I25
sS'meet'
p135
I25
sS'didnt'
p136
I25
sS'history'
p137
I25
sS'heart'
p138
I25
sS'crazy'
p139
I25
sS'\xee\x80\xa3\xee\x80\xa3'
p140
I25
sS'give'
p141
I25
sS'lock'
p142
I25
sS'slim'
p143
I25
sS'india'
p144
I25
sS'fuck'
p145
I18
sS'death'
p146
I25
sS'callin'
p147
I25
sS'something'
p148
I25
sS'want'
p149
I23
sS'pink'
p150
I25
sS'needs'
p151
I25
sS'end'
p152
I25
sS'drained'
p153
I25
sS'thing'
p154
I25
sS'vibe'
p155
I25
sS'necklaces'
p156
I25
sS'watching'
p157
I24
sS'differences'
p158
I25
sS'write'
p159
I25
sS'till'
p160
I25
sS'hot'
p161
I24
sS'whore'
p162
I25
sS'pure'
p163
I25
sS'worlld'
p164
I25
sS'los.pobres'
p165
I25
sS'panic'
p166
I25
sS'ronnie'
p167
I24
sS'staying'
p168
I25
sS'may'
p169
I25
sS'after'
p170
I25
sS'long'
p171
I25
sS'lmfaoo'
p172
I24
sS'crashed'
p173
I25
sS'birthday'
p174
I23
sS'blood'
p175
I25
sS'date'
p176
I25
sS'iggy'
p177
I25
sS'fo'
p178
I25
sS'a'
p179
I9
sS'short'
p180
I25
sS'awkward'
p181
I25
sS'whenever'
p182
I25
sS'maybe'
p183
I25
sS'appreciate'
p184
I25
sS'so'
p185
I13
sS"jr's"
p186
I25
sS'punx'
p187
I25
sS"that's"
p188
I24
sS'whoopin'
p189
I25
sS"don't"
p190
I19
sS'over'
p191
I25
sS'ended'
p192
I25
sS'ma\xc3\xb1ana'
p193
I25
sS'razors'
p194
I24
sS'cold'
p195
I25
sS'still'
p196
I25
sS'\xee\x90\x85\xee\x90\x85\xee\x90\x85\xee\x90\x85\xee\x90\x85\xee\x90\x85\xee\x90\x85\xee\x90\x85\xee\x90\x85\xee\x90\x85\xee\x90\x85\xee\x90\x85\xee\x90\x85\xee\x90\x85\xee\x90\x85'
p197
I25
sS'its'
p198
I23
sS'can&i'
p199
I25
sS"he's"
p200
I23
sS'birthdays'
p201
I25
sS'better'
p202
I22
sS'horror'
p203
I25
sS'weeks'
p204
I24
sS'soccer'
p205
I25
sS"haven't"
p206
I24
sS'dad'
p207
I25
sS'then'
p208
I24
sS'them'
p209
I24
sS'good'
p210
I18
sS'ya'
p211
I24
sS'bein'
p212
I25
sS'spell'
p213
I25
sS'scene'
p214
I25
sS'break'
p215
I25
sS'srsly'
p216
I25
sS'cutting'
p217
I25
sS'they'
p218
I24
sS'\xe2\x9d\xa4\xef\xb8\x8f\xe2\x9d\xa4\xef\xb8\x8f\xe2\x9d\xa4\xef\xb8\x8f'
p219
I25
sS'not'
p220
I21
sS'now'
p221
I21
sS'day'
p222
I25
sS'growing'
p223
I25
sS'\xee\x90\xa0\xee\x84\x9d'
p224
I25
sS'name'
p225
I25
sS'oxygen'
p226
I25
sS'realist'
p227
I25
sS'always'
p228
I22
sS'doesnt'
p229
I25
sS'bowling'
p230
I25
sS'found'
p231
I25
sS'372'
p232
I25
sS'nationals'
p233
I24
sS'side'
p234
I25
sS"isn't"
p235
I24
sS'mean'
p236
I24
sS'showering'
p237
I25
sS'weeknd'
p238
I25
sS'house'
p239
I23
sS'fr'
p240
I25
sS'392'
p241
I25
sS'navy'
p242
I25
sS'girl'
p243
I22
sS'pills'
p244
I25
sS'out'
p245
I14
sS'rt'
p246
I25
sS'leave'
p247
I25
sS'open'
p248
I25
sS'ha'
p249
I25
sS'since'
p250
I24
sS'stupid'
p251
I25
sS'mrs.payne'
p252
I25
sS'7'
p253
I25
sS'smh'
p254
I25
sS'got'
p255
I22
sS'cause'
p256
I23
sS'math'
p257
I25
sS'ass'
p258
I23
sS'fun'
p259
I25
sS'jessica'
p260
I24
sS'housee'
p261
I25
sS'commits'
p262
I25
sS'fave'
p263
I25
sS'baeeee'
p264
I25
sS'backer'
p265
I25
sS'attending'
p266
I25
sS'reason'
p267
I25
sS'complicated'
p268
I25
sS'asf'
p269
I24
sS'\xee\x84\x86\xee\x90\x91'
p270
I25
sS'care'
p271
I25
sS'scary'
p272
I24
sS'shaggy'
p273
I25
sS'deprived'
p274
I25
sS'could'
p275
I25
sS"mom's"
p276
I25
sS'days'
p277
I24
sS'david'
p278
I24
sS'dance/drill'
p279
I24
sS'turn'
p280
I25
sS'felt'
p281
I25
sS'arrived'
p282
I25
sS'think'
p283
I24
sS'fuckin'
p284
I25
sS'first'
p285
I24
sS'already'
p286
I24
sS'dont'
p287
I25
sS'blown'
p288
I25
sS'feel'
p289
I19
sS'number'
p290
I25
sS'one'
p291
I24
sS'done'
p292
I24
sS'bitch'
p293
I22
sS'another'
p294
I25
sS'blank'
p295
I25
sS'booty'
p296
I25
sS'miss'
p297
I24
sS'tomorrow'
p298
I22
sS'iam'
p299
I24
sS"you're"
p300
I23
sS'little'
p301
I22
sS'"'
p302
I25
sS'bears'
p303
I25
sS'23'
p304
I25
sS'\xee\x90\x8a'
p305
I25
sS'their'
p306
I25
sS'2'
p307
I23
sS'master'
p308
I25
sS'too'
p309
I23
sS'man'
p310
I25
sS'dogs'
p311
I25
sS'friend'
p312
I25
sS'listen'
p313
I25
sS'eyes'
p314
I25
sS'that'
p315
I17
sS'asco'
p316
I25
sS'part'
p317
I24
sS'nigga'
p318
I25
sS'flowers'
p319
I25
sS'than'
p320
I25
sS'remember'
p321
I25
sS'chef'
p322
I25
sS'kind'
p323
I25
sS'perfectly'
p324
I25
sS'$10'
p325
I25
sS'lmao'
p326
I24
sS'yayyyy'
p327
I25
sS'boring'
p328
I25
sS'goodnight'
p329
I23
sS'bed'
p330
I25
sS'tommy'
p331
I25
sS'classes'
p332
I25
sS'dank'
p333
I25
sS'loves'
p334
I25
sS'were'
p335
I22
sS'louivoutton'
p336
I25
sS'and'
p337
I9
sS'swerve'
p338
I25
sS'whore.\xe2\x80\x9d'
p339
I25
sS'esta'
p340
I25
sS'wasnt'
p341
I24
sS'tonight'
p342
I24
sS'say'
p343
I23
sS'80%'
p344
I25
sS'have'
p345
I23
sS'cabron'
p346
I25
sS'need'
p347
I23
sS'oppps'
p348
I25
sS'p.e'
p349
I25
sS'seshh'
p350
I25
sS'nights'
p351
I25
sS'u.u'
p352
I25
sS'wcw'
p353
I25
sS'lil'
p354
I24
sS'studying'
p355
I25
sS'-'
p356
I24
sS'omfg'
p357
I25
sS'take'
p358
I24
sS'green'
p359
I25
sS'reals'
p360
I25
sS'shleeeeep'
p361
I25
sS';-)'
p362
I25
sS'sure'
p363
I25
sS'though'
p364
I24
sS'moms'
p365
I25
sS'doin'
p366
I25
sS'-line'
p367
I25
sS'mouth'
p368
I24
sS'nothing'
p369
I25
sS'accepting'
p370
I25
sS'why'
p371
I22
sS"as'f"
p372
I25
sS'later'
p373
I22
sS'drive'
p374
I25
sS'face'
p375
I21
sS'bade'
p376
I25
sS'alas'
p377
I25
sS'putaa'
p378
I25
sS'summmmer'
p379
I25
sS'\xe2\x98\x80\xef\xb8\x8f'
p380
I25
sS'dos'
p381
I25
sS'romantics'
p382
I25
sS'fact'
p383
I25
sS'shop'
p384
I25
sS'ugh'
p385
I23
sS'bomb'
p386
I25
sS'henry'
p387
I25
sS'text'
p388
I23
sS'you!!!!!\xee\x90\x98\xee\x80\xa2'
p389
I25
sS'planning'
p390
I25
sS'\xe2\x80\x9cthe'
p391
I25
sS'stepping'
p392
I25
sS'chicken'
p393
I25
sS'2013'
p394
I25
sS'aint'
p395
I25
sS'busy'
p396
I25
sS'cousins'
p397
I25
sS'turrrnt'
p398
I25
sS'being'
p399
I25
sS'only'
p400
I21
sS'going'
p401
I19
sS'foochie'
p402
I25
sS'pretty'
p403
I25
sS'money'
p404
I25
sS'otiz'
p405
I25
sS'hope'
p406
I25
sS'hip'
p407
I25
sS'do'
p408
I24
sS'his'
p409
I25
sS"jamie's"
p410
I25
sS'get'
p411
I21
sS'de'
p412
I25
sS'watch'
p413
I25
sS'ratchets'
p414
I25
sS'grew'
p415
I25
sS'reply'
p416
I25
sS'nasty'
p417
I25
sS'chips'
p418
I25
sS'morning'
p419
I25
sS":'("
p420
I25
sS'bag'
p421
I25
sS'bad'
p422
I23
sS'stuff'
p423
I25
sS'she'
p424
I23
sS'preach'
p425
I25
sS'w/'
p426
I25
sS'see'
p427
I21
sS'are'
p428
I22
sS'hell'
p429
I25
sS'fail'
p430
I24
sS'hungryyy'
p431
I25
sS'big!"'
p432
I25
sS'best'
p433
I24
sS'wonder'
p434
I25
sS'pictures'
p435
I25
sS'away'
p436
I24
sS'posse'
p437
I25
sS'shiva'
p438
I25
sS'3'
p439
I25
sS"there's"
p440
I25
sS'between'
p441
I25
sS'probably'
p442
I25
sS'burned'
p443
I24
sS'ima'
p444
I25
sS'we'
p445
I24
sS'omg'
p446
I24
sS'missing'
p447
I24
sS'sold'
p448
I25
sS'aaliyah'
p449
I25
sS'succeed'
p450
I25
sS'wear'
p451
I25
sS'wtf'
p452
I24
sS'hurts'
p453
I25
sS'selena'
p454
I25
sS'water'
p455
I24
sS'c'
p456
I24
sS'last'
p457
I25
sS'taking'
p458
I25
sS'la'
p459
I24
sS'tour'
p460
I25
sS'javent'
p461
I25
sS'dated'
p462
I25
sS'whole'
p463
I25
sS'asked'
p464
I25
sS"can't"
p465
I20
sS'ily'
p466
I25
sS'\xe2\x98\xba'
p467
I25
sS'drunk'
p468
I25
sS'sweet'
p469
I24
sS'pop'
p470
I24
sS'likes'
p471
I25
sS'trust'
p472
I25
sS'late'
p473
I25
sS'teddy'
p474
I25
sS"it's"
p475
I16
sS'been'
p476
I24
sS'ran'
p477
I25
sS'much'
p478
I23
sS'damn'
p479
I24
sS'bby'
p480
I25
sS'basic'
p481
I24
sS'woke'
p482
I25
sS'life'
p483
I25
sS'gay'
p484
I22
sS'hooooommmeeee'
p485
I25
sS'am'
p486
I25
sS'blancoo'
p487
I25
sS'tiger'
p488
I25
sS'understand'
p489
I25
sS'-.-'
p490
I25
sS'bull'
p491
I25
sS'those'
p492
I24
sS'chill'
p493
I25
sS'myself'
p494
I25
sS'bye'
p495
I25
sS'tank'
p496
I25
sS'frozen'
p497
I25
sS'straight'
p498
I25
sS'tastes'
p499
I25
sS'n'
p500
I25
sS'will'
p501
I24
sS'rbl'
p502
I25
sS'teachers'
p503
I24
sS'hahaha'
p504
I23
sS'wild'
p505
I25
sS'cracked'
p506
I25
sS'fuk'
p507
I25
sS'<3'
p508
I25
sS'bio'
p509
I25
sS'is'
p510
I11
sS'it'
p511
I20
sS'sleeping'
p512
I25
sS'cant'
p513
I21
sS'someone'
p514
I25
sS'im'
p515
I22
sS'optimistic'
p516
I25
sS'in'
p517
I8
sS'ready'
p518
I25
sS'voy'
p519
I25
sS'ig'
p520
I25
sS'if'
p521
I21
sS'funny'
p522
I25
sS'different'
p523
I25
sS'\xee\x8c\xae\xee\x85\x84'
p524
I25
sS'because'
p525
I25
sS'things'
p526
I23
sS'make'
p527
I24
sS'same'
p528
I25
sS'any'
p529
I25
sS'food'
p530
I24
sS'hahah'
p531
I25
sS'jeffrey'
p532
I25
sS'7/26'
p533
I25
sS'emotionally'
p534
I25
sS'barber'
p535
I25
sS'rockabilly'
p536
I25
sS'weird'
p537
I25
sS'kid'
p538
I25
sS'off'
p539
I23
sS'older'
p540
I25
sS'i'
p541
I2
sS'well'
p542
I24
sS'iffy'
p543
I25
sS'tho'
p544
I24
sS'comes'
p545
I25
sS'english'
p546
I25
sS'alfredo'
p547
I25
sS'the'
p548
I5
sS'left'
p549
I23
sS'(x'
p550
I25
sS'\xe2\x9b\x84\xef\xb8\x8f\xe2\x9d\x84\xef\xb8\x8f'
p551
I25
sS'just'
p552
I18
sS'true'
p553
I24
sS'nd'
p554
I25
sS'sleepy'
p555
I25
sS'kill'
p556
I25
sS'thanks'
p557
I25
sS'\xe2\x98\x80\xef\xb8\x8f\xe2\x98\x80\xef\xb8\x8f\xe2\x98\x80\xef\xb8\x8f\xe2\x98\x80\xef\xb8\x8f'
p558
I25
sS'yes'
p559
I25
sS'bit'
p560
I25
sS'dropped'
p561
I25
sS'soldado'
p562
I25
sS"we've"
p563
I25
sS'vida'
p564
I25
sS'killed'
p565
I25
sS'other'
p566
I25
sS'4'
p567
I25
sS'crack'
p568
I25
sS'wey'
p569
I25
sS'has'
p570
I25
sS'surprised'
p571
I25
sS'niece'
p572
I25
sS'real'
p573
I25
sS'nozz'
p574
I25
sS'gustas'
p575
I25
sS'fridge'
p576
I25
sS'gonna'
p577
I23
sS'game'
p578
I25
sS'psychobilly'
p579
I25
sS'"dreaming'
p580
I25
sS'know'
p581
I21
sS'mom'
p582
I21
sS'memoriess'
p583
I25
sS'poser'
p584
I25
sS"('"
p585
I25
sS"austin's"
p586
I25
sS'like'
p587
I13
sS'-_-'
p588
I25
sS'hahha'
p589
I25
sS'50'
p590
I25
sS'candy'
p591
I25
sS'night'
p592
I20
sS'jajjajajajajajja'
p593
I25
sS'\xee\x8c\xa9\xee\x81\x87'
p594
I25
sS';s'
p595
I25
sS'right'
p596
I23
sS'old'
p597
I25
sS'people'
p598
I23
sS'fucking'
p599
I24
sS'some'
p600
I19
sS'back'
p601
I22
sS'fettuccine'
p602
I25
sS'hair'
p603
I23
sS'born'
p604
I25
sS';d'
p605
I25
sS'home'
p606
I17
sS'thinks'
p607
I25
sS'thatss'
p608
I25
sS'for'
p609
I20
sS'mines'
p610
I25
sS'markers'
p611
I25
sS'does'
p612
I25
sS'('
p613
I25
sS'pee'
p614
I25
sS'\xee\x81\x98'
p615
I24
sS'beating'
p616
I25
sS'anna'
p617
I25
sS'be'
p618
I15
sS'noise'
p619
I25
sS'pls'
p620
I25
sS'mofucka'
p621
I25
sS'bc'
p622
I25
sS'lmfao'
p623
I23
sS'how'
p624
I23
sS'drugged'
p625
I25
sS'r'
p626
I25
sS'on'
p627
I21
sS'about'
p628
I21
sS':-)'
p629
I25
sS'ok'
p630
I24
sS'would'
p631
I25
sS'getting'
p632
I25
sS'of'
p633
I14
sS'violence'
p634
I23
sS'fightin'
p635
I25
sS'o'
p636
I24
sS'perks'
p637
I25
sS'act'
p638
I25
sS'wanna'
p639
I22
sS'or'
p640
I25
sS'tijuana'
p641
I25
sS'cadet'
p642
I25
sS'artista'
p643
I25
sS'class>>>>'
p644
I25
sS'down'
p645
I24
sS'weather'
p646
I24
sS'couldnt'
p647
I25
sS'your'
p648
I23
sS'smells'
p649
I24
sS"i.don't"
p650
I25
sS'fast'
p651
I25
sS'her'
p652
I24
sS'hes'
p653
I25
sS'slurpee'
p654
I25
sS'there'
p655
I25
sS'hey'
p656
I25
sS'lol'
p657
I12
sS'class'
p658
I20
sS"we're"
p659
I25
sS'way'
p660
I25
sS'bruh'
p661
I25
sS'wat'
p662
I25
sS'was'
p663
I19
sS'poder'
p664
I25
sS'happy'
p665
I24
sS'buy'
p666
I25
sS'oppppppps'
p667
I25
sS'offer'
p668
I25
sS'believe'
p669
I25
sS'bitches'
p670
I25
sS'hw'
p671
I25
sS'but'
p672
I18
sS'awebo'
p673
I25
sS'hi'
p674
I25
sS'idgaf'
p675
I25
sS'trying'
p676
I24
sS'with'
p677
I18
sS'eat'
p678
I22
sS'he'
p679
I23
sS';c'
p680
I25
sS'made'
p681
I25
sS'up'
p682
I20
sS'seelping'
p683
I25
sS'dirty'
p684
I25
sS'cake'
p685
I25
sS'more'
p686
I25
sS'minutes'
p687
I25
sS'gona'
p688
I24
sS'af'
p689
I21
sS'ah'
p690
I25
sS'moved'
p691
I24
sS'hungry'
p692
I25
sS'\xee\x90\x85\xee\x90\xa0'
p693
I25
sS'single'
p694
I25
sS'at'
p695
I21
sS'ew'
p696
I24
sS'shit'
p697
I21
sS'again'
p698
I24
sS'compared'
p699
I25
sS'dying'
p700
I25
sS'no'
p701
I23
sS'when'
p702
I17
sS'started'
p703
I25
sS'nap'
p704
I24
sS'definitely'
p705
I25
sS'5'
p706
I24
sS'sick'
p707
I25
sS'accountt'
p708
I25
sS'you'
p709
I7
sS'really'
p710
I23
sS'realize'
p711
I25
sS'poor'
p712
I25
sS'finall'
p713
I25
sS'monday'
p714
I24
sS'muchoo'
p715
I25
sS'prepared'
p716
I25
sS'thoreau'
p717
I25
sS'kinda'
p718
I25
sS'chris'
p719
I25
sS'friends'
p720
I25
sS'cute!!!!!\xee\x84\x86'
p721
I25
sS'texted'
p722
I25
sS'walked'
p723
I25
sS'levantar'
p724
I25
sS"5'8"
p725
I25
sS'u'
p726
I24
sS'time'
p727
I21
sS'ceviche'
p728
I25
sS'starting'
p729
I25
sS'having'
p730
I25
sS':))'
p731
I25
s.