(dp0
S''
p1
I1
sS'fawk'
p2
I105
sS'bal\xc3\xb3n'
p3
I105
sS'otro'
p4
I102
sS'otra'
p5
I106
sS'igual'
p6
I106
sS'lord'
p7
I105
sS'inquiries/appointments'
p8
I106
sS'figo'
p9
I105
sS'bringing'
p10
I105
sS'haber'
p11
I105
sS'fuera'
p12
I105
sS'esos'
p13
I105
sS'tired'
p14
I105
sS'miller'
p15
I106
sS'second'
p16
I106
sS'15:33:51.0,33.9269342,-118.2068943,5402.03,la'
p17
I106
sS'saludod'
p18
I106
sS'thunder'
p19
I106
sS'cooking'
p20
I103
sS'saludos'
p21
I8
sS'"ehhhhh"'
p22
I106
sS'hero'
p23
I102
sS'temblar'
p24
I106
sS'suga'
p25
I106
sS'swag'
p26
I106
sS'here'
p27
I95
sS'\xe2\x9d\xa4\xef\xb8\x8f'
p28
I93
sS'14:54:02.0,33.926939,-118.2069236,5402.03,el'
p29
I106
sS'china'
p30
I105
sS'&&'
p31
I96
sS'kids'
p32
I104
sS'k'
p33
I100
sS'cr\xc3\xadticas'
p34
I106
sS"i'd"
p35
I106
sS'07:25:24.0,33.9269752,-118.2068582,5402.03,uefa'
p36
I106
sS"i'm"
p37
I34
sS'ojal\xc3\xa1'
p38
I105
sS'replace'
p39
I105
sS'brought'
p40
I104
sS'coqueteo'
p41
I106
sS'unir'
p42
I106
sS'cumsinbatches'
p43
I106
sS'txt'
p44
I106
sS'hoping'
p45
I105
sS'\xc2\xbfadicto'
p46
I106
sS'catchy'
p47
I106
sS'ac\xc3\xa1'
p48
I106
sS'music'
p49
I105
sS'until'
p50
I102
sS'3m\xe2\x82\xac'
p51
I106
sS'females'
p52
I106
sS'holy'
p53
I105
sS'relax'
p54
I106
sS'successful'
p55
I106
sS'miren'
p56
I106
sS'hurt'
p57
I106
sS'gusta'
p58
I105
sS'90'
p59
I106
sS'hold'
p60
I103
sS'hola'
p61
I62
sS',90262\n502336425602195456,dopeitsdvlce,2014-08-21'
p62
I106
sS'duermete'
p63
I106
sS'seremos'
p64
I105
sS'want'
p65
I71
sS'hoe'
p66
I105
sS'[en'
p67
I106
sS'how'
p68
I73
sS'hot'
p69
I104
sS'hop'
p70
I105
sS'hoy'
p71
I50
sS'07:21:18.0,33.9269416,-118.2069088,5402.03,lo'
p72
I106
sS'...you'
p73
I106
sS',90262\n481010225906851841,vaniitybree_,2014-06-23'
p74
I106
sS'futbolista'
p75
I93
sS'calidad'
p76
I106
sS'calves'
p77
I106
sS'luring'
p78
I106
sS'hiiiiiiiii'
p79
I106
sS'keeps'
p80
I104
sS'\xc3\xbanico'
p81
I105
sS"dr's"
p82
I104
sS'feedback'
p83
I106
sS'dejes'
p84
I106
sS'ma\xc3\xb1ana'
p85
I102
sS'estrena'
p86
I106
sS'fit'
p87
I106
sS'screaming'
p88
I106
sS'jugadas'
p89
I104
sS'fin'
p90
I84
sS'twitt'
p91
I63
sS'sadboyz/yunglean'
p92
I106
sS'debut'
p93
I105
sS'financial'
p94
I106
sS'series'
p95
I106
sS'spider'
p96
I106
sS'wednesday'
p97
I106
sS'rojiblanco'
p98
I106
sS'whip'
p99
I106
sS'rt'
p100
I101
sS'golea'
p101
I105
sS'tomorrow'
p102
I100
sS'07:31:00.0,33.926929,-118.2069001,5402.03,portada'
p103
I106
sS'smh'
p104
I96
sS'rm'
p105
I106
sS'rn'
p106
I99
sS'halamadrid.,90262\n494383515744477185,axelmerida13,2014-07-30'
p107
I106
sS'valdebebas'
p108
I104
sS'reconocimiento'
p109
I105
sS'goles'
p110
I96
sS'(arsenal)'
p111
I106
sS'gudi\xc3\xb1o'
p112
I106
sS'ate'
p113
I106
sS'dugger'
p114
I106
sS'ninilook'
p115
I106
sS'heading'
p116
I105
sS'eatting'
p117
I106
sS"today's"
p118
I106
sS'fichajazo'
p119
I106
sS'clothes'
p120
I106
sS';)\xe2\x80\x9dwhat'
p121
I106
sS'2\xc2\xaa'
p122
I106
sS'04:47:10.0,33.9269197,-118.2068648,5402.03,alex'
p123
I106
sS'wash'
p124
I106
sS'olds'
p125
I106
sS'basketball'
p126
I104
sS'master'
p127
I106
sS'chugging'
p128
I106
sS'legs'
p129
I106
sS'listen'
p130
I105
sS'coatepeque'
p131
I104
sS'crawl'
p132
I106
sS'showed'
p133
I105
sS'diario'
p134
I99
sS'project'
p135
I106
sS'escucharles'
p136
I106
sS'descan'
p137
I106
sS'tres'
p138
I92
sS'feeling'
p139
I97
sS'este'
p140
I73
sS'esta'
p141
I76
sS'esto'
p142
I98
sS'copa'
p143
I94
sS'affairs'
p144
I106
sS'nazario'
p145
I106
sS'05:25:40.0,33.9269508,-118.2068103,5402.03,portadas'
p146
I106
sS'godfishes'
p147
I106
sS'klose'
p148
I104
sS'nuevos'
p149
I102
sS'victoria'
p150
I87
sS'mouth'
p151
I106
sS'drought'
p152
I106
sS'macbook'
p153
I106
sS'episode'
p154
I106
sS'vivavel'
p155
I105
sS'scream'
p156
I106
sS'came'
p157
I103
sS'saying'
p158
I104
sS'bomb'
p159
I103
sS"'guapo'"
p160
I106
sS'teresa'
p161
I106
sS'09:48:59.0,33.926927,-118.2068366,5402.03,international'
p162
I106
sS'concentra'
p163
I106
sS'x2'
p164
I104
sS'menu'
p165
I106
sS'bellflower'
p166
I106
sS'rihanna'
p167
I106
sS'rico'
p168
I105
sS'rick'
p169
I106
sS"'3'"
p170
I106
sS'parecer\xc3\xada'
p171
I106
sS'rice'
p172
I106
sS'rica'
p173
I99
sS'plate'
p174
I106
sS'plata'
p175
I105
sS'modos'
p176
I106
sS'giggs'
p177
I106
sS'7-11'
p178
I104
sS'sustituir'
p179
I106
sS'asociaci\xc3\xb3n'
p180
I106
sS"vanessa's"
p181
I106
sS'days...not'
p182
I106
sS'tbfh'
p183
I105
sS'beso'
p184
I106
sS'fair'
p185
I106
sS'$18'
p186
I106
sS'besa'
p187
I106
sS'goodnight'
p188
I106
sS'vacaciones'
p189
I105
sS'aparecer\xc3\xa1'
p190
I106
sS'best'
p191
I100
sS'triiiiip'
p192
I106
sS'zass'
p193
I106
sS'r'
p194
I103
sS'alguien'
p195
I104
sS'men'
p196
I104
sS'herrera'
p197
I105
sS'wtf'
p198
I97
sS'asisti\xc3\xb3'
p199
I106
sS'country'
p200
I106
sS'everything...and'
p201
I106
sS'venci\xc3\xb3'
p202
I106
sS'semaba'
p203
I106
sS'comunic\xc3\xb3'
p204
I106
sS'lookin'
p205
I106
sS'pita'
p206
I106
sS'asked'
p207
I106
sS'and'
p208
I33
sS'evoluci\xc3\xb3n'
p209
I106
sS'salario'
p210
I106
sS'2nd'
p211
I105
sS'camisa'
p212
I103
sS'diff'
p213
I106
sS'blonde'
p214
I106
sS'recordaresmos'
p215
I104
sS'............................y'
p216
I106
sS'much'
p217
I91
sS'jackass'
p218
I106
sS"molly's"
p219
I106
sS'life'
p220
I89
sS'eastern'
p221
I106
sS'dave'
p222
I106
sS'lift'
p223
I106
sS'chile'
p224
I105
sS'child'
p225
I106
sS'chili'
p226
I106
sS'haters'
p227
I106
sS'chill'
p228
I106
sS'asegura'
p229
I106
sS'visit'
p230
I104
sS'unos'
p231
I106
sS'played'
p232
I106
sS'juegan'
p233
I97
sS"bruh...it's"
p234
I106
sS'fotos'
p235
I106
sS'things'
p236
I100
sS'craigslist'
p237
I106
sS'babies'
p238
I106
sS'mujeres'
p239
I101
sS'ganadorcr7'
p240
I106
sS'tope'
p241
I105
sS'posicione'
p242
I106
sS'lucas'
p243
I104
sS'amistosos'
p244
I106
sS'imysm'
p245
I106
sS'sleepy'
p246
I101
sS'14:27:13.0,33.926939,-118.2069236,5402.03,sami'
p247
I106
sS'han'
p248
I103
sS'had'
p249
I93
sS'estuvieron'
p250
I105
sS'hay'
p251
I96
sS'decimosexta'
p252
I106
sS'ooooo'
p253
I106
sS'has'
p254
I90
sS'hat'
p255
I106
sS'felicitaciones'
p256
I105
sS'doeee'
p257
I106
sS'municipal'
p258
I105
sS'possible'
p259
I106
sS'abandonar'
p260
I106
sS'ninguno'
p261
I106
sS'creen'
p262
I106
sS'right'
p263
I93
sS'old'
p264
I101
sS'tatis'
p265
I106
sS'people'
p266
I85
sS'septiembre'
p267
I104
sS'fuuuuck'
p268
I106
sS't\xc3\xadtulos"'
p269
I106
sS'creep'
p270
I106
sS'for'
p271
I31
sS'hulks'
p272
I106
sS'[sub-20]'
p273
I106
sS'\xe2\x80\x9ciconos\xe2\x80\x9d'
p274
I106
sS'jugador'
p275
I53
sS'tho\xe2\x80\x9d'
p276
I106
sS'?!!\xe2\x80\x9dyes'
p277
I106
sS'pinches'
p278
I106
sS'sale\xe2\x9d\x97\xef\xb8\x8f'
p279
I106
sS'filipino'
p280
I106
sS':impresionante'
p281
I106
sS'o'
p282
I93
sS'11delmadrid'
p283
I106
sS'stoked'
p284
I106
sS'secuestro'
p285
I106
sS'd.llorente'
p286
I106
sS'garethbale11'
p287
I106
sS'sol'
p288
I106
sS'soo'
p289
I106
sS'son'
p290
I89
sS'juicing'
p291
I106
sS'soy'
p292
I98
sS't\xc3\xa9cnico'
p293
I106
sS'pol\xc3\xadtica'
p294
I106
sS'craaaazy'
p295
I106
sS'happy'
p296
I86
sS'exitos'
p297
I51
sS'visitar\xc3\xa1'
p298
I106
sS'realiz\xc3\xb3'
p299
I106
sS'retwitear'
p300
I105
sS'pese'
p301
I106
sS'inside'
p302
I106
sS'09:42:08.0,33.9269284,-118.2069151,5402.03,los'
p303
I106
sS'nicest'
p304
I106
sS'dios1mes'
p305
I106
sS'passenger'
p306
I106
sS'later'
p307
I101
sS'triunfar'
p308
I106
sS'irse'
p309
I106
sS"'zas'"
p310
I106
sS'actor'
p311
I106
sS'rola'
p312
I105
sS'developers'
p313
I106
sS'smell'
p314
I104
sS'roll'
p315
I106
sS'kitson'
p316
I106
sS'(blackburn'
p317
I106
sS',90262\n481007706694627328,vaniitybree_,2014-06-23'
p318
I106
sS'domingo'
p319
I79
sS'diferencias........mira'
p320
I106
sS'01:32:50.0,33.92968669,-118.20025704,5402.03,east'
p321
I106
sS'time'
p322
I63
sS':/'
p323
I105
sS':('
p324
I95
sS':)'
p325
I105
sS':*'
p326
I105
sS'despide'
p327
I105
sS'skate'
p328
I106
sS'diciembre'
p329
I106
sS':3'
p330
I106
sS'ver'
p331
I99
sS'ves'
p332
I101
sS"when's"
p333
I106
sS'vez'
p334
I104
sS'comun'
p335
I106
sS'ven'
p336
I103
sS'veo'
p337
I106
sS'jerm'
p338
I106
sS'jerk'
p339
I106
sS':d'
p340
I105
sS'muchisimas'
p341
I106
sS'capit\xc3\xa1n'
p342
I103
sS'minuto'
p343
I103
sS'pee'
p344
I104
sS'anotar'
p345
I106
sS'minute'
p346
I104
sS'leave'
p347
I101
sS'subway'
p348
I106
sS':['
p349
I106
sS'boca'
p350
I106
sS'sigo'
p351
I38
sS'noonish'
p352
I106
sS'tatlmfao'
p353
I106
sS'corazon'
p354
I105
sS'vengo'
p355
I106
sS'previsto'
p356
I106
sS'picture,90262\n414086055306883072,loveseductive,2013-12-20'
p357
I106
sS'alone'
p358
I105
sS'along'
p359
I104
sS'viaje'
p360
I104
sS'hab\xc3\xada'
p361
I105
sS'xd>>>'
p362
I106
sS'falcao'
p363
I89
sS'financiero'
p364
I106
sS'bp'
p365
I106
sS'carpets'
p366
I106
sS'love'
p367
I61
sS'af1s'
p368
I106
sS'rinc\xc3\xb3n'
p369
I106
sS'fake'
p370
I105
sS'darnell'
p371
I106
sS'kickst'
p372
I106
sS'working'
p373
I102
sS'14:17:53.0,33.926939,-118.2069236,5402.03,ex'
p374
I106
sS'clasificaci\xc3\xb3n'
p375
I106
sS'chella'
p376
I106
sS'arqueros'
p377
I104
sS'ignorant'
p378
I106
sS'\xe2\x9d\xa4\xef\xb8\x8f\xe2\x9d\xa4\xef\xb8\x8f'
p379
I106
sS'cuanto'
p380
I106
sS"tia's"
p381
I106
sS'alllllll'
p382
I106
sS'valorada'
p383
I106
sS'pretend'
p384
I106
sS'eleito'
p385
I106
sS'idolos'
p386
I106
sS'following'
p387
I105
sS'\xe2\x80\x9cchicharito\xe2\x80\x9d'
p388
I106
sS'coraz\xc3\xb3n'
p389
I105
sS'awesome'
p390
I105
sS'cierran'
p391
I106
sS'apunta'
p392
I105
sS'230'
p393
I106
sS'llega'
p394
I100
sS'llego'
p395
I106
sS'opci\xc3\xb3n'
p396
I105
sS'snaps'
p397
I106
sS'keylor'
p398
I82
sS'cuhz'
p399
I106
sS'spot'
p400
I103
sS'date'
p401
I106
sS'such'
p402
I99
sS'suck'
p403
I105
sS'stress'
p404
I106
sS'busca'
p405
I105
sS'su'
p406
I58
sS'st'
p407
I99
sS'si'
p408
I87
sS'so'
p409
I42
sS'pulled'
p410
I105
sS'se'
p411
I48
sS'years'
p412
I104
sS'lavezzi'
p413
I106
sS'course'
p414
I104
sS'saludos.,90262\n495926933259964416,axelmerida13,2014-08-03'
p415
I106
sS"torneo'"
p416
I106
sS'jugando'
p417
I106
sS'amazing'
p418
I101
sS'same\xe2\x9d\xa4\xef\xb8\x8f'
p419
I106
sS'celebrate'
p420
I106
sS'ganaron'
p421
I106
sS'(;<'
p422
I106
sS'dej\xc3\xb3'
p423
I106
sS'dm\xe2\x80\xa6'
p424
I106
sS'feelin'
p425
I103
sS'asleep...like'
p426
I106
sS'sorteo'
p427
I104
sS'damnnnn'
p428
I106
sS'dej\xc3\xa9'
p429
I106
sS'2hour'
p430
I106
sS'camisetas'
p431
I106
sS'honduras'
p432
I105
sS'mascotas'
p433
I106
sS'nacionales'
p434
I105
sS'amamos'
p435
I106
sS'proclama'
p436
I106
sS'\xc2\xa1oficial'
p437
I106
sS'dejamiroslav'
p438
I106
sS'jokes'
p439
I105
sS'blu'
p440
I106
sS'italianos'
p441
I106
sS'seriously'
p442
I102
sS'sorry:('
p443
I106
sS'ubico'
p444
I106
sS'tienen'
p445
I106
sS'million'
p446
I106
sS'14:25:28.0,33.926929,-118.2068567,5402.03,ancelotti'
p447
I106
sS'complicated'
p448
I105
sS'besides'
p449
I106
sS'grandma'
p450
I103
sS'tienes'
p451
I101
sS'whittier'
p452
I106
sS'training'
p453
I106
sS'brasil'
p454
I101
sS'respond\xc3\xad'
p455
I106
sS'punk'
p456
I104
sS'massive'
p457
I106
sS'horas'
p458
I103
sS'(/.\\)'
p459
I106
sS'mucha'
p460
I105
sS'onn'
p461
I106
sS'reina?,90262\n489672422505730048,vaniitybree_,2014-07-17'
p462
I106
sS'mucho'
p463
I103
sS'spanish'
p464
I105
sS'open'
p465
I104
sS'city'
p466
I98
sS'04:38:02.0,33.9218649,-118.20214,5402.03,it'
p467
I106
sS'fml'
p468
I105
sS'2'
p469
I83
sS'williams'
p470
I106
sS'on*'
p471
I106
sS'starvinnnnng'
p472
I106
sS':resultados'
p473
I106
sS'chamart\xc3\xadn'
p474
I106
sS'non-stop'
p475
I106
sS'future'
p476
I106
sS'futuro'
p477
I104
sS'russia'
p478
I106
sS'san'
p479
I86
sS'<\\3'
p480
I106
sS'turned'
p481
I106
sS'afternoons'
p482
I106
sS'sad'
p483
I103
sS'say'
p484
I99
sS'marabilloso'
p485
I106
sS'saw'
p486
I103
sS'exitos.,90262\n504862358385090560,axelmerida13,2014-08-28'
p487
I106
sS'estamos'
p488
I105
sS'hawaiian'
p489
I105
sS'somethings'
p490
I106
sS'take'
p491
I93
sS'grammys'
p492
I105
sS'knew'
p493
I102
sS'cualquier'
p494
I106
sS'11hour'
p495
I106
sS'merece'
p496
I106
sS'sala'
p497
I106
sS'mangala'
p498
I106
sS'sale'
p499
I104
sS'portada'
p500
I97
sS'walking'
p501
I106
sS'*fries*'
p502
I106
sS'beckham'
p503
I103
sS'eternora\xc3\xbal'
p504
I106
sS'desvelando'
p505
I106
sS'lol,90262\n481504201474727936,vaniitybree_,2014-06-24'
p506
I106
sS'aggressive'
p507
I106
sS'slow'
p508
I106
sS'\xe2\x9c\x8b'
p509
I105
sS'otik'
p510
I106
sS'tears'
p511
I106
sS'going'
p512
I88
sS'rephrase'
p513
I106
sS'apreton'
p514
I106
sS'beatles'
p515
I106
sS'cotidianas'
p516
I106
sS'assistant'
p517
I106
sS'genera'
p518
I106
sS'freezing'
p519
I106
sS'monda'
p520
I106
sS'podcast...alcohol'
p521
I106
sS'laguna'
p522
I106
sS'artist'
p523
I106
sS'primo'
p524
I106
sS'tenerife'
p525
I106
sS'worried'
p526
I106
sS"could've"
p527
I105
sS'worries'
p528
I104
sS'where'
p529
I91
sS'baby?\xe2\x80\x9dtf'
p530
I106
sS'foreal'
p531
I106
sS'anyways'
p532
I106
sS'temporada'
p533
I99
sS'surgery'
p534
I106
sS'"damn'
p535
I106
sS'x2)'
p536
I106
sS'eltiempo'
p537
I106
sS'belizean_meeh'
p538
I106
sS'sites'
p539
I106
sS'un'
p540
I21
sS',90262\n481093712944963584,vaniitybree_,2014-06-23'
p541
I106
sS'vender'
p542
I106
sS'caan'
p543
I106
sS'jobs'
p544
I106
sS'00:05:50.0,33.92942273,-118.2068339,5402.03,segregation'
p545
I106
sS'screen'
p546
I105
sS'punto'
p547
I105
sS'fairplay'
p548
I106
sS'fakeassaadgirl'
p549
I106
sS'lollapalooza'
p550
I106
sS'busting'
p551
I106
sS'many'
p552
I103
sS'flipped'
p553
I106
sS's'
p554
I106
sS"can't"
p555
I85
sS'recordemos'
p556
I106
sS'carvajal'
p557
I103
sS'hurts'
p558
I106
sS'considera'
p559
I106
sS'05:24:59.0,33.926929,-118.2068141,5402.03,\xe2\x80\x9cnunca'
p560
I106
sS'ante'
p561
I89
sS'caring'
p562
I106
sS'asistencias'
p563
I106
sS'goleadorsuper'
p564
I106
sS'breath'
p565
I106
sS'venir'
p566
I106
sS'wants'
p567
I101
sS'tuxtla'
p568
I106
sS'saldr\xc3\xada'
p569
I106
sS'personas'
p570
I106
sS'19:51:04.0,33.9239101,-118.2008711,5402.03,you'
p571
I106
sS'rueda'
p572
I106
sS'obstaculos'
p573
I106
sS'fluffyface'
p574
I106
sS'd3$8/3'
p575
I106
sS'fichado'
p576
I104
sS'craviing'
p577
I106
sS'ive'
p578
I106
sS'purse'
p579
I104
sS'pinky'
p580
I106
sS'fama'
p581
I106
sS'viento'
p582
I106
sS'damos'
p583
I106
sS'formaras'
p584
I106
sS'thinkin'
p585
I106
sS'oro-seriea'
p586
I106
sS'compatriota'
p587
I106
sS'cumpleanos'
p588
I106
sS'yessir'
p589
I106
sS'05:58:05.0,33.9269029,-118.2068646,5402.03,cristiano'
p590
I106
sS'dick\xe2\x80\x9d'
p591
I106
sS'"har\xc3\xa9'
p592
I106
sS'ademas'
p593
I106
sS'confirmado'
p594
I105
sS'costa'
p595
I97
sS'hubba'
p596
I105
sS'coste'
p597
I106
sS'saludos.,90262\n494489394821095424,axelmerida13,2014-07-30'
p598
I106
sS'nothin'
p599
I106
sS'bada$$'
p600
I106
sS'vean'
p601
I104
sS'(falcao).,90262\n495947725347647488,axelmerida13,2014-08-03'
p602
I106
sS'alfredo'
p603
I106
sS'summer'
p604
I103
sS'being'
p605
I94
sS'rubens'
p606
I106
sS'verdad'
p607
I101
sS'slims'
p608
I106
sS'................barcelona'
p609
I106
sS'9no'
p610
I106
sS'temblor'
p611
I106
sS'distancia'
p612
I104
sS'canciones'
p613
I106
sS'9na'
p614
I106
sS'uncaf'
p615
I104
sS'for.,90262\n518252740670390272,b_long7,2014-10-04'
p616
I106
sS'around'
p617
I101
sS'"chicharito"'
p618
I106
sS'jeans'
p619
I106
sS'halamadrid.,90262\n509158868136382464,axelmerida13,2014-09-09'
p620
I106
sS'pos'
p621
I106
sS'vallecano'
p622
I106
sS'traffic'
p623
I105
sS'vacuum'
p624
I106
sS'world'
p625
I100
sS'postal'
p626
I106
sS'dare'
p627
I102
sS'enero'
p628
I106
sS'pole'
p629
I106
sS'tsunami'
p630
I106
sS'sientate'
p631
I106
sS'inter'
p632
I100
sS'grub'
p633
I105
sS'llevaran'
p634
I106
sS'replay'
p635
I106
sS'thinks'
p636
I106
sS'tubo'
p637
I106
sS'definir'
p638
I106
sS'sanci\xc3\xb3n'
p639
I106
sS'refer'
p640
I106
sS'luchar\xc3\xa1'
p641
I106
sS'power'
p642
I106
sS'ughhhhhhhhhhhhhh'
p643
I106
sS';*'
p644
I106
sS';)'
p645
I101
sS';('
p646
I106
sS'paises'
p647
I106
sS'favorito'
p648
I28
sS'favorita'
p649
I106
sS'favorite'
p650
I105
sS'masterpieces'
p651
I106
sS'luck'
p652
I105
sS'mediocampista'
p653
I106
sS"how's"
p654
I106
sS'her'
p655
I79
sS'hey'
p656
I104
sS'lmfaooo'
p657
I105
sS'firmar'
p658
I106
sS'tacobell'
p659
I106
sS'discutir'
p660
I106
sS'brasileno'
p661
I106
sS'completo'
p662
I105
sS'alemania'
p663
I102
sS'mde'
p664
I106
sS'with'
p665
I47
sS'handsome'
p666
I106
sS'[diario'
p667
I106
sS"they're"
p668
I104
sS'october'
p669
I106
sS'14:41:16.0,33.9269214,-118.2068778,5402.03,video'
p670
I106
sS'(/.^)'
p671
I106
sS'dirty'
p672
I106
sS'cerradas'
p673
I106
sS'espectacular'
p674
I106
sS'agree'
p675
I106
sS'asss'
p676
I106
sS'gone'
p677
I103
sS'ac'
p678
I105
sS'af'
p679
I89
sS'certain'
p680
I106
sS'gonn'
p681
I106
sS'goleador'
p682
I102
sS'am'
p683
I92
sS',90262\n482612093909082112,vaniitybree_,2014-06-27'
p684
I106
sS'mundo'
p685
I80
sS'an'
p686
I95
sS'as'
p687
I64
sS'at'
p688
I42
sS'aw'
p689
I105
sS'ay'
p690
I105
sS'watched'
p691
I106
sS'09:07:01.0,33.9230419,-118.2051258,5402.03,make'
p692
I106
sS'cream'
p693
I106
sS'tight'
p694
I106
sS'puppy'
p695
I105
sS'aberiguar'
p696
I106
sS"gon'"
p697
I106
sS'corrijo'
p698
I106
sS'gifts'
p699
I106
sS'alvaradoblue22'
p700
I106
sS'conozco'
p701
I106
sS'05:49:36.0,33.9263711,-118.2035558,5402.03,can'
p702
I106
sS'posible'
p703
I102
sS'adap'
p704
I106
sS'hello'
p705
I104
sS'nelson'
p706
I105
sS's\xc3\xb3lo'
p707
I106
sS'9/11'
p708
I106
sS'lolololololololololololololololololololololololololololololololololololololololololololololololololololololololololololol'
p709
I106
sS'caused'
p710
I106
sS'futbolistica'
p711
I106
sS'estrenar\xc3\xa1'
p712
I106
sS'tbh...just'
p713
I106
sS'hunting'
p714
I106
sS'tv'
p715
I103
sS'tu'
p716
I89
sS'to'
p717
I12
sS'tail'
p718
I106
sS'ti'
p719
I103
sS'tf'
p720
I100
sS'smile'
p721
I105
sS'te'
p722
I27
sS'feria'
p723
I106
sS'paying'
p724
I105
sS'appointment'
p725
I105
sS'4-1'
p726
I106
sS'llegue'
p727
I106
sS'tatted'
p728
I106
sS'peor'
p729
I106
sS'laying'
p730
I106
sS'joined'
p731
I106
sS'small'
p732
I102
sS'pase'
p733
I105
sS'pasa'
p734
I104
sS'194'
p735
I106
sS'paso'
p736
I105
sS'vives'
p737
I105
sS'pass'
p738
I106
sS'fucks'
p739
I106
sS'nurse'
p740
I106
sS'seemed'
p741
I106
sS'full'
p742
I105
sS'f\xc3\xbatbo'
p743
I106
sS'hours'
p744
I105
sS'jugar\xc3\xa1n'
p745
I106
sS'ganders'
p746
I106
sS'deseando'
p747
I106
sS'experience'
p748
I106
sS'pics'
p749
I106
sS'social'
p750
I106
sS"would've"
p751
I104
sS'fuck"'
p752
I106
sS'followed'
p753
I106
sS'picardia'
p754
I106
sS'adidas'
p755
I104
sS'homenaje\xc3\xb3'
p756
I106
sS'send'
p757
I104
sS'buenas'
p758
I105
sS'gosh'
p759
I104
sS'silva'
p760
I106
sS'conoces'
p761
I106
sS'109'
p762
I106
sS'jim\xc3\xa9nez'
p763
I105
sS'mal"'
p764
I106
sS'more'
p765
I94
sS'hottt'
p766
I106
sS'\xc2\xa1usuarios'
p767
I106
sS'negativity'
p768
I106
sS'california.........foto....rumbo'
p769
I106
sS'malo'
p770
I106
sS'imaginate'
p771
I106
sS'morgan'
p772
I104
sS'belga'
p773
I106
sS'recompra'
p774
I106
sS'modri\xc4\x87'
p775
I106
sS'beautiful'
p776
I106
sS'gallos'
p777
I106
sS'ponte'
p778
I106
sS'rodriguez'
p779
I102
sS'retwittearfeliz'
p780
I106
sS'accept'
p781
I106
sS'dress'
p782
I106
sS'hugo'
p783
I105
sS'madrid.......te'
p784
I106
sS'reyes'
p785
I85
sS'plans'
p786
I105
sS'mendes'
p787
I105
sS'waves'
p788
I106
sS'har\xc3\xada'
p789
I106
sS'plano'
p790
I106
sS'nacimiento'
p791
I105
sS'cr7)'
p792
I106
sS'\xc2\xa1atenci\xc3\x93n'
p793
I106
sS'ortho'
p794
I106
sS'satins'
p795
I106
sS'patio'
p796
I106
sS'jamesss'
p797
I106
sS'attitude'
p798
I106
sS'paper'
p799
I106
sS'its'
p800
I94
sS'bummed'
p801
I106
sS'alli'
p802
I105
sS'tiempos'
p803
I106
sS'digas'
p804
I106
sS'balotelli'
p805
I103
sS'villarreal'
p806
I106
sS'valorar'
p807
I106
sS'miedo'
p808
I105
sS'abandona'
p809
I106
sS'harrow'
p810
I106
sS'though...lol'
p811
I106
sS'everytime'
p812
I106
sS'always'
p813
I90
sS'pertenecer'
p814
I106
sS'found'
p815
I103
sS'chingar'
p816
I106
sS'really'
p817
I76
sS'try'
p818
I102
sS'missed'
p819
I104
sS',90262\n481505981763829761,vaniitybree_,2014-06-24'
p820
I106
sS'signings'
p821
I105
sS'5months'
p822
I106
sS'imagine'
p823
I106
sS'subcampe\xc3\xb3n'
p824
I106
sS'libertadorescopa'
p825
I106
sS'w'
p826
I106
sS'castle'
p827
I106
sS'joey'
p828
I106
sS'garra'
p829
I106
sS'number'
p830
I105
sS'genios'
p831
I106
sS'guess'
p832
I104
sS'mas..............halamadrid'
p833
I106
sS'felicidades'
p834
I104
sS'contra'
p835
I101
sS'saint'
p836
I106
sS'firmando'
p837
I104
sS'tats'
p838
I106
sS'relationship'
p839
I106
sS'temia'
p840
I106
sS'cuuzzzziiiiinnnnssss'
p841
I106
sS'obama'
p842
I105
sS'observatory'
p843
I106
sS'reus'
p844
I103
sS'emirates'
p845
I106
sS'caress'
p846
I106
sS'sell'
p847
I106
sS'pasan'
p848
I106
sS'belleza'
p849
I100
sS'self'
p850
I104
sS'samoan'
p851
I106
sS'steppa'
p852
I106
sS'internal'
p853
I106
sS'pasar'
p854
I106
sS'06:45:06.0,33.9269219,-118.2068241,5402.03,dos'
p855
I106
sS'play'
p856
I102
sS'halamadrid.,90262\n494374727255732224,axelmerida13,2014-07-30'
p857
I106
sS'calls...at'
p858
I106
sS'encantan'
p859
I105
sS'realmadrid'
p860
I99
sS'virus'
p861
I106
sS'encantas'
p862
I106
sS'plan'
p863
I106
sS'sometimes'
p864
I105
sS'gabe'
p865
I106
sS'ugh'
p866
I103
sS'(qepd)'
p867
I106
sS'accommodations'
p868
I106
sS'hangoverrrrrrrrrrr'
p869
I106
sS'halamadrid.,90262\n494501602783285249,axelmerida13,2014-07-30'
p870
I106
sS'cr7'
p871
I100
sS'nenas'
p872
I105
sS'peculiar'
p873
I106
sS"02:13:25.0,33.92968669,-118.20025704,5402.03,i'm"
p874
I106
sS'wayne'
p875
I106
sS'halamadrid.,90262\n505705310799941632,axelmerida13,2014-08-30'
p876
I106
sS'gratis'
p877
I106
sS'seguridad'
p878
I105
sS'transfermarkt'
p879
I106
sS'06:08:31.0,33.9219103,-118.202522,5402.03,only'
p880
I106
sS'rumores'
p881
I106
sS'\xc2\xbfotra'
p882
I106
sS'cry'
p883
I102
sS'belles'
p884
I106
sS'necesitan'
p885
I106
sS'neeed'
p886
I106
sS'league.el'
p887
I106
sS'river'
p888
I106
sS'nacho'
p889
I105
sS'set'
p890
I106
sS'ser'
p891
I87
sS'jade'
p892
I106
sS'see'
p893
I94
sS'sea'
p894
I103
sS'[marca]'
p895
I105
sS'shower'
p896
I106
sS'spirits'
p897
I106
sS'movie'
p898
I105
sS'currently'
p899
I106
sS'reunieron'
p900
I106
sS'nope'
p901
I104
sS'knowing'
p902
I105
sS'europa'
p903
I81
sS'lass'
p904
I106
sS'last'
p905
I85
sS'14:22:04.0,33.9269085,-118.2069119,5402.03,el'
p906
I106
sS'radamel'
p907
I103
sS'thou'
p908
I106
sS'gustado'
p909
I105
sS'barely'
p910
I102
sS'thor'
p911
I106
sS'\xc2\xbfqu\xc3\xa9'
p912
I106
sS'whole'
p913
I99
sS'healing'
p914
I106
sS'celebra'
p915
I105
sS'agente'
p916
I103
sS'cuandototti'
p917
I106
sS'olle'
p918
I106
sS'leon'
p919
I105
sS'coincidence'
p920
I106
sS'premios'
p921
I106
sS'tonta'
p922
I106
sS'devil'
p923
I104
sS'acceptance'
p924
I105
sS'\xc3\xa9xito'
p925
I105
sS'tranquilos'
p926
I106
sS'hitting'
p927
I103
sS'franc\xc3\xa9s'
p928
I106
sS'\xe2\x98\x86'
p929
I103
sS'champion'
p930
I106
sS'recibe'
p931
I104
sS'fire'
p932
I106
sS"what's"
p933
I101
sS'racer'
p934
I106
sS'awake'
p935
I103
sS'straight'
p936
I105
sS'"di'
p937
I106
sS'halamadrid.,90262\n494059654490509313,axelmerida13,2014-07-29'
p938
I106
sS'mls'
p939
I99
sS'duran'
p940
I103
sS'dominio'
p941
I106
sS'32'
p942
I105
sS'\xc2\xa4\xc2\xa4\xc2\xa4\xc2\xa4\xc2\xa4\xc2\xa4\xc2\xa4\xc2\xa4\xc2\xa4\xc2\xa4'
p943
I106
sS'robin'
p944
I106
sS'<3'
p945
I102
sS'rusia'
p946
I106
sS'isssssssss'
p947
I106
sS'voy'
p948
I106
sS'tent\xe2\x9b\xba\xef\xb8\x8f'
p949
I106
sS'renounced'
p950
I106
sS'funny'
p951
I96
sS'acabe'
p952
I106
sS'acaba'
p953
I106
sS'acabo'
p954
I106
sS'halcones-comunicaciones'
p955
I106
sS'ruler'
p956
I106
sS'baeee\xe2\x9d\xa4\xef\xb8\x8f'
p957
I106
sS'derby'
p958
I106
sS'06:07:18.0,33.9269353,-118.2068249,5402.03,quien'
p959
I106
sS'inreresante'
p960
I106
sS'miercoles'
p961
I105
sS'necessity'
p962
I106
sS'15:00:57.0,33.9269291,-118.2068795,5402.03,\xc2\xbfpor'
p963
I106
sS'picky'
p964
I106
sS'person'
p965
I101
sS',90262\n482251720257310720,vaniitybree_,2014-06-26'
p966
I106
sS'lujo'
p967
I106
sS',90262\n481282636271198209,vaniitybree_,2014-06-24'
p968
I106
sS'21:47:32.0,33.92416545,-118.20078066,5402.03,,90262\n481190995636125697,vaniitybree_,2014-06-23'
p969
I106
sS'espectaculares'
p970
I106
sS'psv'
p971
I106
sS'cancha:kroos'
p972
I106
sS'puesto'
p973
I106
sS'eager'
p974
I106
sS'parents'
p975
I105
sS'crying'
p976
I105
sS'14:52:58.0,33.926939,-118.2069236,5402.03,el'
p977
I106
sS'surprised'
p978
I105
sS'10:31:34.0,33.926997,-118.2068671,5402.03,siempre'
p979
I106
sS'pagar\xc3\xa1'
p980
I106
sS'emergency'
p981
I104
sS'couple'
p982
I104
sS'shitty'
p983
I103
sS'toman'
p984
I106
sS'del\xe2\x80\xa6'
p985
I106
sS'd'
p986
I96
sS'marquez'
p987
I106
sS'quiz\xc3\xa1s'
p988
I106
sS'spring'
p989
I106
sS'recibi\xc3\xb3'
p990
I106
sS'disfrutes'
p991
I104
sS'palo'
p992
I106
sS'curious'
p993
I106
sS'sprint'
p994
I106
sS'devemos'
p995
I105
sS'madridtoni'
p996
I106
sS'\xe2\x82\xac65m'
p997
I106
sS'dating'
p998
I106
sS'be'
p999
I44
sS'bf'
p1000
I105
sS'atenci\xc3\xb3n'
p1001
I106
sS'saludos.,90262\n495943950994137088,axelmerida13,2014-08-03'
p1002
I106
sS'bb'
p1003
I105
sS'\xc3\xbaltimas'
p1004
I106
sS'wba'
p1005
I106
sS'cholo'
p1006
I106
sS'ofrec\xc3\xada'
p1007
I106
sS'nowhere'
p1008
I106
sS'chola'
p1009
I106
sS'by'
p1010
I91
sS'santi'
p1011
I106
sS'a\xc3\xb1os'
p1012
I98
sS'veces'
p1013
I105
sS'anything'
p1014
I100
sS'netflix'
p1015
I103
sS'deserves'
p1016
I106
sS'cockblock'
p1017
I106
sS'"ya'
p1018
I105
sS'garbage'
p1019
I106
sS'boat...in'
p1020
I106
sS'into'
p1021
I102
sS'controversies'
p1022
I106
sS'..portada'
p1023
I106
sS'finalmanunited'
p1024
I106
sS'22:45:12.0,33.9259508,-118.207277,5402.03,gonna'
p1025
I106
sS'joking'
p1026
I106
sS'campeon'
p1027
I103
sS'desvelaras'
p1028
I106
sS'custom'
p1029
I106
sS'\xc2\xa1grande'
p1030
I106
sS'petici\xc3\xb3n'
p1031
I106
sS'prensa'
p1032
I103
sS'd\xe2\x9d\xa4\xef\xb8\x8f'
p1033
I106
sS'petrolera.........................saludos'
p1034
I106
sS'lampard'
p1035
I104
sS'pacific'
p1036
I106
sS'line'
p1037
I100
sS'posted'
p1038
I103
sS'redeemed'
p1039
I106
sS'uv'
p1040
I106
sS'up'
p1041
I48
sS'us'
p1042
I101
sS'ur'
p1043
I96
sS'ni\xc3\xb1os'
p1044
I106
sS'alarm'
p1045
I106
sS'dricing'
p1046
I106
sS'fixing'
p1047
I106
sS'realest'
p1048
I106
sS'doy'
p1049
I106
sS'actors'
p1050
I106
sS'carrera'
p1051
I106
sS'potion'
p1052
I106
sS'"balazo"'
p1053
I106
sS'meals'
p1054
I106
sS'ago'
p1055
I106
sS'lane'
p1056
I106
sS'..halamadrid'
p1057
I106
sS'texted'
p1058
I106
sS'entenamiento'
p1059
I106
sS'maradona'
p1060
I104
sS'walked'
p1061
I105
sS'hella'
p1062
I104
sS'fresh'
p1063
I106
sS'exitos.,90262\n505844597239459840,axelmerida13,2014-08-30'
p1064
I106
sS'having'
p1065
I99
sS'~.~'
p1066
I106
sS'casemiro'
p1067
I106
sS'\xe2\x9c\x8b,90262\n481189458847334401,vaniitybree_,2014-06-23'
p1068
I106
sS'manipuladora'
p1069
I106
sS'cheapy'
p1070
I106
sS'70-75m\xe2\x82\xac'
p1071
I106
sS'young'
p1072
I106
sS'reemplazo'
p1073
I105
sS'alemanes'
p1074
I106
sS'lmfaoooooo'
p1075
I106
sS'illarra'
p1076
I106
sS'shelf,90262\n486351653231001602,leoblac123,2014-07-08'
p1077
I106
sS'sent'
p1078
I106
sS'21:44:08.0,33.92414858,-118.20091212,5402.03,oleeeee'
p1079
I106
sS'llama'
p1080
I106
sS'edwin'
p1081
I106
sS'l-12'
p1082
I106
sS'experiencing'
p1083
I106
sS's\xc3\xbapercopa'
p1084
I106
sS"they've"
p1085
I106
sS'anxious'
p1086
I106
sS'race'
p1087
I106
sS'world-class'
p1088
I106
sS':)\xe2\x80\x9d'
p1089
I106
sS'(usa)'
p1090
I105
sS'05:38:42.0,33.9306719,-118.1981765,5402.03,look'
p1091
I106
sS'privilegio'
p1092
I106
sS'video'
p1093
I104
sS'creeeeeed'
p1094
I106
sS'(psg)'
p1095
I106
sS'"date'
p1096
I106
sS'disponible'
p1097
I106
sS'cancha'
p1098
I102
sS'firma'
p1099
I105
sS'espa\xc3\xb1a'
p1100
I104
sS'tbh,90262\n481009392490266624,vaniitybree_,2014-06-23'
p1101
I106
sS'guatemala-belice'
p1102
I106
sS'bird'
p1103
I105
sS'bed\xe2\x9d\xa4\xef\xb8\x8f'
p1104
I106
sS'wtfffff'
p1105
I106
sS'led'
p1106
I106
sS'lee'
p1107
I106
sS'leg'
p1108
I103
sS'apollar'
p1109
I106
sS'punch'
p1110
I105
sS'les'
p1111
I104
sS'let'
p1112
I95
sS'pierdas'
p1113
I106
sS'05:51:42.0,33.9306719,-118.1981765,5402.03,tbh'
p1114
I106
sS'great'
p1115
I97
sS'\xe2\x9a\xbd\xef\xb8\x8f'
p1116
I106
sS':cr7."mi'
p1117
I106
sS'derbi'
p1118
I98
sS'jugamos'
p1119
I105
sS'oficial'
p1120
I88
sS'cousins'
p1121
I106
sS'\xc2\xa1confirmado'
p1122
I106
sS'makes'
p1123
I101
sS'idc.\xe2\x80\x9d'
p1124
I106
sS'ser\xc3\xa1'
p1125
I93
sS'verlo'
p1126
I106
sS'certificate'
p1127
I103
sS'incorporarse'
p1128
I106
sS'verla'
p1129
I106
sS'okaaaay'
p1130
I106
sS'doubt'
p1131
I105
sS'bullshit.,90262\n513736571338502144,moeemoee18,2014-09-21'
p1132
I106
sS'babe'
p1133
I105
sS'sustituto'
p1134
I106
sS'gooooooool'
p1135
I106
sS'$10.00'
p1136
I103
sS'baby'
p1137
I92
sS'customer'
p1138
I106
sS'this'
p1139
I50
sS'clients'
p1140
I106
sS'keys...shit'
p1141
I106
sS'balla'
p1142
I106
sS'rooney'
p1143
I103
sS'name.\xe2\x80\x9d'
p1144
I106
sS'sabe'
p1145
I106
sS'halamadrid.,90262\n508868614254895104,axelmerida13,2014-09-08'
p1146
I106
sS'process'
p1147
I106
sS"d'orbravo"
p1148
I106
sS'high'
p1149
I103
sS'proceso'
p1150
I106
sS'14:36:22.0,33.9269571,-118.2068621,5402.03,solo'
p1151
I106
sS',90262\n481536904748204032,vaniitybree_,2014-06-24'
p1152
I106
sS'blvd'
p1153
I106
sS'quer\xc3\xa9taro'
p1154
I105
sS'especial'
p1155
I102
sS'it,90262\n490007733295251457,superjuan59,2014-07-18'
p1156
I106
sS"01:57:23.0,33.9294712,-118.2008114,5402.03,i'm"
p1157
I106
sS'evra'
p1158
I106
sS'partidos'
p1159
I101
sS'fits'
p1160
I106
sS'10:56:46.0,33.9268631,-118.2068055,5402.03,es'
p1161
I106
sS'\xd8\xb5\xd8\xad'
p1162
I105
sS'saludos.,90262\n495933247763652608,axelmerida13,2014-08-03'
p1163
I106
sS'apoyamos'
p1164
I106
sS'noches'
p1165
I106
sS'classy'
p1166
I105
sS'jugador:diego'
p1167
I106
sS'empoli'
p1168
I106
sS'perfect'
p1169
I103
sS'meike'
p1170
I106
sS'backstreets'
p1171
I106
sS'2018'
p1172
I105
sS'puerta'
p1173
I106
sS'2015'
p1174
I104
sS'2014'
p1175
I104
sS'2016'
p1176
I106
sS'2010'
p1177
I106
sS'2012'
p1178
I106
sS'python'
p1179
I106
sS'nada'
p1180
I103
sS'teya'
p1181
I106
sS'realize'
p1182
I106
sS'deportivas'
p1183
I105
sS'importante'
p1184
I105
sS'traspaso'
p1185
I105
sS'persie'
p1186
I105
sS'parec\xc3\xada'
p1187
I106
sS'doing'
p1188
I98
sS'society'
p1189
I106
sS'books'
p1190
I106
sS'ejercicio'
p1191
I106
sS'tevez'
p1192
I104
sS'hilarious'
p1193
I106
sS'contigo'
p1194
I106
sS'shut'
p1195
I102
sS'uppp'
p1196
I105
sS'prepara'
p1197
I105
sS'05:20:40.0,33.9269258,-118.2068963,5402.03,real'
p1198
I106
sS'fichaje'
p1199
I90
sS'arietes'
p1200
I106
sS'craving'
p1201
I106
sS'napoli'
p1202
I104
sS'could'
p1203
I98
sS'david'
p1204
I98
sS'scare'
p1205
I106
sS'unbfeliz'
p1206
I106
sS'ihy'
p1207
I106
sS'owned'
p1208
I106
sS'jesus'
p1209
I105
sS'owner'
p1210
I106
sS'blows'
p1211
I105
sS'los'
p1212
I28
sS'pocas'
p1213
I106
sS'latera'
p1214
I106
sS'mil\xc3\xa1n'
p1215
I105
sS'interests'
p1216
I106
sS'haver'
p1217
I106
sS'stomach'
p1218
I106
sS'shorts'
p1219
I105
sS":'(\xe2\x80\x9d"
p1220
I106
sS'kik\xe2\x80\xa2imageadvisor'
p1221
I106
sS'metro\xe2\x80\xa6'
p1222
I106
sS'\xd9\x84\xd9\x88'
p1223
I106
sS'1er'
p1224
I106
sS'grandpa'
p1225
I105
sS'crna'
p1226
I106
sS'fatboy'
p1227
I106
sS'azteca'
p1228
I106
sS'bother'
p1229
I106
sS'roberto'
p1230
I106
sS'false'
p1231
I106
sS'vicente'
p1232
I106
sS'tonight'
p1233
I102
sS'though.\xe2\x80\x9dfeed'
p1234
I106
sS'm\xc3\xa1ximo'
p1235
I105
sS'\xe2\x9d\xa4\xef\xb8\x8f,90262\n495744065766707201,allasynb,2014-08-03'
p1236
I106
sS'kevinas'
p1237
I106
sS'hangover'
p1238
I106
sS'jeeenaaaay'
p1239
I106
sS'15:17:34.0,33.92408574,-118.20094105,5402.03,that'
p1240
I106
sS'baber'
p1241
I106
sS'manos'
p1242
I106
sS'camiseta'
p1243
I97
sS"lil'"
p1244
I106
sS'inactividad'
p1245
I106
sS'bree'
p1246
I105
sS'stronger'
p1247
I106
sS'repito'
p1248
I106
sS"you'll"
p1249
I104
sS'primero'
p1250
I106
sS'fact'
p1251
I106
sS'bring'
p1252
I103
sS'manchester'
p1253
I90
sS'p\xc3\xa9rez'
p1254
I104
sS'rough'
p1255
I106
sS'veremos'
p1256
I102
sS'podr\xc3\xa1'
p1257
I106
sS'hops'
p1258
I106
sS'jar'
p1259
I106
sS'terminar'
p1260
I106
sS'should'
p1261
I89
sS'score'
p1262
I106
sS'tape'
p1263
I106
sS'(girondins)'
p1264
I106
sS'instagram."'
p1265
I106
sS'riding'
p1266
I106
sS'hope'
p1267
I98
sS'meant'
p1268
I106
sS'handle'
p1269
I106
sS'means'
p1270
I106
sS'lucky'
p1271
I105
sS'04:36:52.0,33.9270013,-118.2069321,5402.03,llego'
p1272
I106
sS'sorprenden'
p1273
I106
sS'digan'
p1274
I106
sS',90262\n481190293232836611,vaniitybree_,2014-06-23'
p1275
I106
sS'=)'
p1276
I106
sS'desplaz\xc3\xa1ndose'
p1277
I106
sS'taxes'
p1278
I106
sS'stuff'
p1279
I102
sS'me<3'
p1280
I106
sS'13:44:07.0,33.9269194,-118.2068268,5402.03,dimaria'
p1281
I106
sS'guessing'
p1282
I106
sS'btw'
p1283
I105
sS'saludos.,90262\n495927643489828865,axelmerida13,2014-08-03'
p1284
I106
sS'edition'
p1285
I104
sS'alessandro'
p1286
I106
sS'instituci\xc3\xb3n'
p1287
I106
sS'packed'
p1288
I105
sS'coils'
p1289
I106
sS'destiny'
p1290
I106
sS'qdan'
p1291
I106
sS'email'
p1292
I106
sS'mejores'
p1293
I103
sS'ends'
p1294
I106
sS'cristiano'
p1295
I60
sS'butts'
p1296
I106
sS'celebrando'
p1297
I105
sS'figured'
p1298
I106
sS'....,90262\n'
p1299
I106
sS'invited'
p1300
I106
sS'figures'
p1301
I106
sS'cristiano"'
p1302
I105
sS'cerati'
p1303
I106
sS'cm'
p1304
I106
sS'malcolm'
p1305
I106
sS'cf'
p1306
I103
sS'escudo'
p1307
I106
sS'05:37:34.0,33.9268946,-118.2069197,5402.03,angeldimaria'
p1308
I106
sS'drank'
p1309
I105
sS'2019'
p1310
I106
sS'equipo'
p1311
I86
sS'bale.....bale'
p1312
I106
sS'puerto'
p1313
I105
sS'copa.........la'
p1314
I106
sS'spain'
p1315
I106
sS'smhh'
p1316
I106
sS'hahaha'
p1317
I104
sS'lmfao,90262\n481188667281522690,vaniitybree_,2014-06-23'
p1318
I106
sS'va'
p1319
I101
sS've'
p1320
I105
sS'-____-'
p1321
I105
sS'vs'
p1322
I93
sS'vv'
p1323
I101
sS'incre\xc3\x8dble'
p1324
I106
sS'tattoo'
p1325
I106
sS'-___-'
p1326
I103
sS'juan'
p1327
I103
sS'benzema-javier'
p1328
I106
sS'color....went'
p1329
I106
sS'spell'
p1330
I106
sS'pho'
p1331
I106
sS'continuidad'
p1332
I105
sS'bale'
p1333
I72
sS'drink'
p1334
I102
sS'-_______-'
p1335
I106
sS'06:06:26.0,33.9269429,-118.2069346,5402.03,mira'
p1336
I106
sS'off'
p1337
I91
sS'atl\xc3\xa9tico'
p1338
I102
sS'command'
p1339
I106
sS'351'
p1340
I106
sS'going"'
p1341
I106
sS'less'
p1342
I104
sS'momento'
p1343
I102
sS'predicts'
p1344
I106
sS'complicado'
p1345
I106
sS'glue'
p1346
I106
sS'humilde'
p1347
I106
sS'nacional'
p1348
I104
sS'crack'
p1349
I104
sS'finalizado'
p1350
I106
sS'whispers'
p1351
I106
sS'pies'
p1352
I106
sS'galliani'
p1353
I106
sS'cosas'
p1354
I106
sS'garage'
p1355
I106
sS'felicidad'
p1356
I106
sS'presentar'
p1357
I106
sS'deliciosa'
p1358
I106
sS'presentan'
p1359
I106
sS'$400'
p1360
I106
sS'recordamos'
p1361
I106
sS'shakira'
p1362
I106
sS'bienvenidos'
p1363
I105
sS'albertos'
p1364
I106
sS'literally'
p1365
I105
sS'obtuvo'
p1366
I106
sS'does'
p1367
I96
sS'stairway'
p1368
I106
sS'bestfriend'
p1369
I106
sS'convirti\xc3\xb3'
p1370
I105
sS'schedule'
p1371
I105
sS'und\xc3\xa9cima'
p1372
I106
sS'hiding'
p1373
I106
sS'sister'
p1374
I105
sS'slayed'
p1375
I106
sS'angeles'
p1376
I102
sS'centroamericana'
p1377
I106
sS'agradable'
p1378
I106
sS'pussy'
p1379
I105
sS'commitment'
p1380
I106
sS'banca'
p1381
I106
sS'donde'
p1382
I97
sS'(get'
p1383
I106
sS'maravilla'
p1384
I106
sS'cyrus'
p1385
I106
sS'yaaaaaay'
p1386
I106
sS'f\xc3\xadsico'
p1387
I106
sS'equipazo'
p1388
I106
sS':inter'
p1389
I106
sS'ughhh'
p1390
I106
sS'xbox360'
p1391
I106
sS'despegue'
p1392
I106
sS'\xc2\xa1'
p1393
I105
sS'placer'
p1394
I106
sS'official'
p1395
I105
sS'sami'
p1396
I106
sS'convince'
p1397
I106
sS'cordial'
p1398
I104
sS'irish'
p1399
I106
sS'speacialty'
p1400
I106
sS'nurses'
p1401
I106
sS'disfrutar'
p1402
I106
sS'gastado'
p1403
I106
sS'caf\xc3\xa9'
p1404
I106
sS'lately'
p1405
I106
sS'compares'
p1406
I106
sS'leyendas'
p1407
I104
sS'spiz\xe2\x80\x99ike'
p1408
I106
sS'03:48:16.0,33.92415313,-118.2008552,5402.03,waiting'
p1409
I106
sS'francisco'
p1410
I104
sS'monday'
p1411
I105
sS'botin'
p1412
I105
sS'chance'
p1413
I105
sS'calum'
p1414
I106
sS'tho,90262\n481503937736892416,vaniitybree_,2014-06-24'
p1415
I106
sS'ghost'
p1416
I106
sS'recibida'
p1417
I106
sS'04:55:46.0,33.9269646,-118.2069064,5402.03,mira'
p1418
I106
sS'glennie'
p1419
I106
sS'prometen'
p1420
I106
sS'*blurred'
p1421
I106
sS'gardens'
p1422
I106
sS'd\xc3\xada'
p1423
I98
sS'intensidad'
p1424
I106
sS'ucrania'
p1425
I106
sS'saved'
p1426
I106
sS'worked'
p1427
I106
sS'porno'
p1428
I106
sS'neighbours'
p1429
I106
sS'edward'
p1430
I106
sS'restock'
p1431
I106
sS'worth'
p1432
I105
sS'schweinsteiger'
p1433
I106
sS',90262\n466443818632765440,babyloop_,2014-05-14'
p1434
I106
sS'tickets'
p1435
I105
sS"we'll"
p1436
I104
sS'"jealous"'
p1437
I106
sS'mencionas'
p1438
I106
sS'galaxia'
p1439
I106
sS'hora'
p1440
I101
sS'fechas'
p1441
I106
sS'03:30:44.0,33.9265426,-118.2065366,5402.03,let'
p1442
I106
sS'chef'
p1443
I106
sS'cuentan'
p1444
I106
sS'follow'
p1445
I104
sS'desvela'
p1446
I106
sS'+'
p1447
I103
sS'seran'
p1448
I106
sS'calendario'
p1449
I105
sS'jugones'
p1450
I106
sS'told'
p1451
I103
sS'crunch'
p1452
I104
sS'pod\xc3\xadamos'
p1453
I106
sS'"biggest'
p1454
I106
sS'\xc2\xa1ambos'
p1455
I106
sS'daughter'
p1456
I104
sS'smoky'
p1457
I106
sS'unaciudadparavivir'
p1458
I106
sS'smoke'
p1459
I105
sS'stressed'
p1460
I106
sS'que'
p1461
I23
sS'05:45:46.0,33.9269205,-118.2068405,5402.03,vean'
p1462
I106
sS'bro'
p1463
I106
sS'franz'
p1464
I106
sS'cheats'
p1465
I106
sS'total'
p1466
I106
sS'rancho'
p1467
I106
sS'preciosas'
p1468
I106
sS'mas.....bienvenido'
p1469
I106
sS'mexico'
p1470
I103
sS'"doesn\'t'
p1471
I106
sS'saludos.,90262\n508863833650130944,axelmerida13,2014-09-08'
p1472
I106
sS'loooooong'
p1473
I106
sS'indiana'
p1474
I106
sS'sushi'
p1475
I105
sS'veanlo'
p1476
I105
sS'pudo'
p1477
I104
sS'haha'
p1478
I102
sS'seg\xc3\xban'
p1479
I101
sS'04:19:48.0,33.926905,-118.206921,5402.03,los'
p1480
I106
sS'madrid..siempre'
p1481
I106
sS'blocking'
p1482
I106
sS'1990'
p1483
I106
sS'piero'
p1484
I106
sS'word'
p1485
I105
sS'14:42:10.0,33.926965,-118.2069001,5402.03,ancelotti'
p1486
I106
sS'work'
p1487
I71
sS'tecun'
p1488
I106
sS'snapchats'
p1489
I105
sS'cuddle'
p1490
I106
sS'era'
p1491
I103
sS'merida'
p1492
I106
sS'permito'
p1493
I106
sS'gloria'
p1494
I105
sS'salom\xc3\xa9'
p1495
I106
sS'solei'
p1496
I106
sS'goool'
p1497
I106
sS'semana.,90262\n508840222000312321,axelmerida13,2014-09-08'
p1498
I106
sS'str8'
p1499
I106
sS'lanzado'
p1500
I106
sS'-.-\xe2\x80\x9dmy'
p1501
I106
sS'deporte.....saludosten'
p1502
I106
sS'ig'
p1503
I104
sS'beach'
p1504
I103
sS'pizza'
p1505
I103
sS'bday'
p1506
I105
sS'after'
p1507
I95
sS'lax'
p1508
I106
sS'lay'
p1509
I105
sS'las'
p1510
I81
sS'vera'
p1511
I106
sS'fichar'
p1512
I102
sS'chillen'
p1513
I106
sS'appreciate'
p1514
I106
sS'hasta'
p1515
I98
sS'green'
p1516
I105
sS'fan'
p1517
I106
sS'order'
p1518
I106
sS'salon'
p1519
I106
sS'jes\xc3\xa9'
p1520
I106
sS'office'
p1521
I106
sS'(can)'
p1522
I106
sS'mayor'
p1523
I104
sS'somewhere'
p1524
I105
sS'highlights'
p1525
I106
sS'venta'
p1526
I106
sS'buffon'
p1527
I106
sS'd\xc3\xadas'
p1528
I101
sS'valor'
p1529
I106
sS'then'
p1530
I90
sS'them'
p1531
I88
sS'elegido'
p1532
I105
sS'safe'
p1533
I106
sS'break'
p1534
I103
sS'band'
p1535
I106
sS'contados'
p1536
I106
sS'they'
p1537
I84
sS'bank'
p1538
I106
sS'anot\xc3\xb3'
p1539
I106
sS'1.06'
p1540
I106
sS'pobre'
p1541
I106
sS'alexis'
p1542
I106
sS'carlos'
p1543
I100
sS'kiddiiiiiing'
p1544
I106
sS'lifted'
p1545
I106
sS',90262\n481535851336183808,vaniitybree_,2014-06-24'
p1546
I106
sS'qui\xc3\xa9nes'
p1547
I106
sS'logo'
p1548
I106
sS'medr\xc3\xa1n'
p1549
I106
sS'ten\xc3\xada'
p1550
I105
sS'06:24:32.0,33.9268732,-118.2068258,5402.03,un'
p1551
I106
sS'recordaremos'
p1552
I106
sS'aprecio'
p1553
I106
sS'standard'
p1554
I106
sS"people's"
p1555
I106
sS'productos'
p1556
I106
sS'pasaron'
p1557
I106
sS'mvp'
p1558
I106
sS'dammit'
p1559
I106
sS':james'
p1560
I106
sS'bendiciones.,90262\n505337288125992960,axelmerida13,2014-08-29'
p1561
I106
sS'regresa'
p1562
I105
sS'disfruta'
p1563
I100
sS'podemos'
p1564
I106
sS'(at'
p1565
I79
sS'nanaah'
p1566
I105
sS'><'
p1567
I106
sS'>>'
p1568
I106
sS'04:39:15.0,33.92968715,-118.20025919,5402.03,the'
p1569
I106
sS"03:13:18.0,33.92968669,-118.20025704,5402.03,i'm"
p1570
I106
sS'another'
p1571
I102
sS'rated'
p1572
I106
sS'veraguas'
p1573
I106
sS'asf,90262\n493262603372593152,lewis_vergas,2014-07-27'
p1574
I106
sS'dumbass'
p1575
I106
sS'20:00:52.0,33.92414733,-118.20099715,5402.03,stranger'
p1576
I106
sS'ayeeee'
p1577
I105
sS'john'
p1578
I106
sS'alonso'
p1579
I96
sS'cereal'
p1580
I105
sS'bebe'
p1581
I106
sS'dog"'
p1582
I106
sS'ebay'
p1583
I106
sS'merch'
p1584
I106
sS'yogurtland...nigga'
p1585
I106
sS'contento'
p1586
I106
sS'saludos.,90262\n504852975420862464,axelmerida13,2014-08-28'
p1587
I106
sS'desvelaste'
p1588
I106
sS'foreverrrrrr'
p1589
I106
sS'manner'
p1590
I106
sS'day...stay'
p1591
I106
sS'comunicaciones'
p1592
I104
sS'convenient'
p1593
I105
sS'propongas'
p1594
I106
sS'lugares'
p1595
I106
sS'quieten'
p1596
I106
sS'(hijo'
p1597
I105
sS'interesado'
p1598
I103
sS'fasfa'
p1599
I106
sS'despidi\xc3\xb3'
p1600
I106
sS'germany'
p1601
I102
sS'showtek'
p1602
I106
sS'sponsoriza'
p1603
I106
sS',90262\n481188469503320064,vaniitybree_,2014-06-23'
p1604
I106
sS'ororecopa'
p1605
I106
sS'schweisteiger'
p1606
I106
sS'tgsm'
p1607
I106
sS'empesado'
p1608
I106
sS'laudrup'
p1609
I106
sS'yea......puro'
p1610
I106
sS'anniversary'
p1611
I106
sS'nephew'
p1612
I106
sS'07:13:07.0,33.926939,-118.206881,5402.03,el'
p1613
I106
sS'decimos'
p1614
I106
sS'codearse'
p1615
I106
sS'hrs'
p1616
I106
sS'[as]'
p1617
I104
sS'(video)'
p1618
I106
sS'madrid-barcelona'
p1619
I106
sS'do'
p1620
I63
sS'\xc3\x81ngeles'
p1621
I104
sS'dm'
p1622
I106
sS'di'
p1623
I81
sS'df'
p1624
I106
sS'de'
p1625
I4
sS'da'
p1626
I102
sS'contrato.,90262\n494495872915210240,axelmerida13,2014-07-30'
p1627
I106
sS"lolita's"
p1628
I106
sS'dt'
p1629
I104
sS'dr'
p1630
I104
sS'apaciona'
p1631
I106
sS'suffrage'
p1632
I106
sS'06:04:02.0,33.9295332,-118.2007767,5402.03,nenas'
p1633
I106
sS'depende'
p1634
I106
sS'w/'
p1635
I101
sS'aprendamos'
p1636
I106
sS'[humillante]'
p1637
I106
sS'eres'
p1638
I71
sS'away'
p1639
I97
sS'(:\xe2\x80\x9dhow'
p1640
I106
sS'bien'
p1641
I97
sS'firmara'
p1642
I106
sS'\xe2\x80\x9cmegacrack\xe2\x80\x9d'
p1643
I106
sS'pfft'
p1644
I105
sS'viernes'
p1645
I102
sS'we'
p1646
I69
sS'carisma'
p1647
I106
sS'nahhh'
p1648
I106
sS'petapa'
p1649
I105
sS'kitchen'
p1650
I105
sS'cop'
p1651
I93
sS'tfti'
p1652
I99
sS'ill'
p1653
I105
sS'ahora'
p1654
I97
sS'....that'
p1655
I106
sS'brag'
p1656
I106
sS'ofertar\xc3\xadan'
p1657
I106
sS'ily'
p1658
I105
sS'xd'
p1659
I92
sS'tone'
p1660
I106
sS'(eng)liverpool'
p1661
I106
sS'toni'
p1662
I93
sS'thierry'
p1663
I106
sS'tono'
p1664
I106
sS'\xc2\xa1hoy'
p1665
I106
sS'tony'
p1666
I106
sS'heals'
p1667
I106
sS'speak'
p1668
I106
sS'$300'
p1669
I106
sS'saludos.,90262\n505721643474247680,axelmerida13,2014-08-30'
p1670
I106
sS'v\xc3\xadstete'
p1671
I106
sS'ahead'
p1672
I106
sS'air'
p1673
I105
sS'06:08:31.0,33.9301534,-118.2108391,5402.03,i'
p1674
I106
sS'aid'
p1675
I106
sS'voice'
p1676
I106
sS'excelente'
p1677
I106
sS'cone'
p1678
I106
sS'concachampions'
p1679
I106
sS'13:37:09.0,33.926965,-118.2069001,5402.03,que'
p1680
I106
sS'jugado'
p1681
I106
sS'entonses'
p1682
I106
sS'saludos.,90262\n495936244589666305,axelmerida13,2014-08-03'
p1683
I106
sS'khedira'
p1684
I101
sS'amount'
p1685
I105
sS'plates'
p1686
I106
sS'dennys'
p1687
I106
sS'platini'
p1688
I106
sS'swear,90262\n481191854877073410,vaniitybree_,2014-06-23'
p1689
I106
sS'hand'
p1690
I106
sS'darlo'
p1691
I106
sS'lol\xe2\x80\x9d'
p1692
I106
sS'blamed'
p1693
I106
sS'campo'
p1694
I106
sS'min'
p1695
I105
sS'tho'
p1696
I75
sS'epl'
p1697
I106
sS'contact'
p1698
I106
sS'monaco'
p1699
I104
sS'the'
p1700
I13
sS'juegos'
p1701
I106
sS'unified'
p1702
I106
sS'athletic'
p1703
I105
sS'gods'
p1704
I106
sS'moriah\xe2\x80\xa6'
p1705
I106
sS'thanks'
p1706
I97
sS'mooooood'
p1707
I106
sS'adding'
p1708
I106
sS'antes'
p1709
I100
sS'campeona'
p1710
I105
sS'tftiiiiiiiiii'
p1711
I106
sS'passive'
p1712
I106
sS'suddenly'
p1713
I106
sS'shout'
p1714
I105
sS'benatia'
p1715
I106
sS'cuales'
p1716
I105
sS'smdh'
p1717
I106
sS'rnb'
p1718
I106
sS'atentados'
p1719
I106
sS'lil_dee95'
p1720
I106
sS'traicionado'
p1721
I106
sS'arango'
p1722
I106
sS'xbox'
p1723
I104
sS'night'
p1724
I89
sS'debe'
p1725
I106
sS'ustedes'
p1726
I104
sS'0-100'
p1727
I106
sS'salir'
p1728
I103
sS'chicarito'
p1729
I106
sS'cede'
p1730
I106
sS'munited'
p1731
I104
sS'purple'
p1732
I106
sS'/'
p1733
I105
sS'asking'
p1734
I105
sS'cedido'
p1735
I104
sS'ppvs'
p1736
I106
sS'quede'
p1737
I106
sS'pls'
p1738
I89
sS'queda'
p1739
I106
sS'mascherano'
p1740
I106
sS'plz'
p1741
I106
sS'futbol.,90262\n494860273606344706,axelmerida13,2014-07-31'
p1742
I106
sS'post'
p1743
I100
sS'pll'
p1744
I106
sS'trophy'
p1745
I106
sS'lol,90262\n481505577214816258,vaniitybree_,2014-06-24'
p1746
I106
sS'$70'
p1747
I106
sS'esperamos'
p1748
I103
sS'bellezas'
p1749
I106
sS'months'
p1750
I104
sS'halamadrid.,90262\n495068194978033664,axelmerida13,2014-08-01'
p1751
I106
sS'19:06:30.0,33.9294712,-118.2008114,5402.03,blondes'
p1752
I106
sS'05:00:59.0,33.9270434,-118.2067579,5402.03,que'
p1753
I106
sS'bound'
p1754
I105
sS'pantalla'
p1755
I106
sS'14:43:48.0,33.9269278,-118.2068638,5402.03,didier...................grande'
p1756
I106
sS'shhhh'
p1757
I106
sS'actividades.,90262\n508853681194672128,axelmerida13,2014-09-08'
p1758
I106
sS'fight'
p1759
I105
sS'palco'
p1760
I106
sS'way'
p1761
I102
sS'wat'
p1762
I106
sS'was'
p1763
I53
sS'war'
p1764
I106
sS'celebraci\xc3\xb3n'
p1765
I106
sS'bowl...new'
p1766
I106
sS'cryy'
p1767
I106
sS'esposa'
p1768
I106
sS'becoming'
p1769
I105
sS'truu'
p1770
I106
sS'circula'
p1771
I106
sS'mercado'
p1772
I105
sS'true'
p1773
I103
sS'mts'
p1774
I106
sS'crystal'
p1775
I106
sS'pagar\xc3\xada'
p1776
I106
sS'emotional'
p1777
I106
sS'medication'
p1778
I106
sS'muscular'
p1779
I106
sS'guessed'
p1780
I106
sS'empate'
p1781
I104
sS'face'
p1782
I100
sS'pretensiones'
p1783
I106
sS'dying'
p1784
I103
sS'sorpresas'
p1785
I106
sS'reality'
p1786
I105
sS'derrotas'
p1787
I106
sS'test'
p1788
I104
sS'companerismo'
p1789
I106
sS'2mins'
p1790
I106
sS'welcome'
p1791
I102
sS',90262\n481011168459227136,vaniitybree_,2014-06-23'
p1792
I106
sS"let's"
p1793
I104
sS'infomercials'
p1794
I106
sS'scores'
p1795
I106
sS'tottenham'
p1796
I106
sS'hiii'
p1797
I106
sS'together'
p1798
I106
sS'songs'
p1799
I106
sS'a\xe2\x80\xa6'
p1800
I105
sS'dance'
p1801
I105
sS':...........el'
p1802
I106
sS'mar\xc3\x8da'
p1803
I106
sS'jamesdrodriguez'
p1804
I96
sS'thighs'
p1805
I106
sS'14:30:22.0,33.926965,-118.2069001,5402.03,gran.............................jugador'
p1806
I106
sS'brown'
p1807
I105
sS'3am'
p1808
I105
sS'\xe2\x80\x9cwhite/green/varsity'
p1809
I106
sS'brownie'
p1810
I105
sS'8,90262\n411374188847304704,loveseductive,2013-12-13'
p1811
I106
sS'negredo.mufc'
p1812
I106
sS'quedarse'
p1813
I106
sS'man\xc3\xa1'
p1814
I106
sS'salvador'
p1815
I105
sS'gun'
p1816
I106
sS'soooo'
p1817
I106
sS'$9.15'
p1818
I106
sS'fuuuck'
p1819
I106
sS'guy'
p1820
I104
sS'fuckoff'
p1821
I106
sS'revista'
p1822
I106
sS'carga'
p1823
I106
sS'camisola'
p1824
I106
sS'v'
p1825
I103
sS'apache'
p1826
I106
sS'teacher'
p1827
I106
sS'change'
p1828
I105
sS'sending'
p1829
I106
sS'5ever'
p1830
I106
sS'trial'
p1831
I106
sS'usually'
p1832
I105
sS'pillow'
p1833
I106
sS'italiana'
p1834
I106
sS'extra'
p1835
I106
sS'italiano'
p1836
I105
sS'quenching'
p1837
I106
sS'metros'
p1838
I106
sS'market'
p1839
I106
sS'prove'
p1840
I106
sS'actuaci\xc3\xb3n'
p1841
I106
sS'mitad'
p1842
I105
sS'ca)'
p1843
I97
sS'zapatos'
p1844
I106
sS':keylor'
p1845
I105
sS'coentr\xc3\xa3o'
p1846
I104
sS'club'
p1847
I97
sS'clue'
p1848
I106
sS'anuncio'
p1849
I106
sS'firm\xc3\xb3'
p1850
I106
sS'anuncia'
p1851
I100
sS'1:10.pmreal'
p1852
I106
sS'niggas'
p1853
I105
sS'car'
p1854
I93
sS'cap'
p1855
I106
sS'14:05:43.0,33.9269388,-118.2068745,5402.03,reyes'
p1856
I106
sS'empiesen'
p1857
I106
sS'cat'
p1858
I106
sS'can'
p1859
I67
sS'cabeza'
p1860
I106
sS'agradecerle'
p1861
I106
sS'heart'
p1862
I100
sS'aut\xc3\xb3grafos'
p1863
I104
sS"didn't"
p1864
I92
sS'perder'
p1865
I106
sS'heard'
p1866
I103
sS'anotando'
p1867
I106
sS'judadoraso'
p1868
I106
sS'gastos'
p1869
I106
sS'cardio'
p1870
I106
sS'regalo'
p1871
I105
sS'productive'
p1872
I106
sS'lidera'
p1873
I105
sS'llam\xc3\xb3'
p1874
I105
sS'beautiful\xe2\x9d\xa4\xef\xb8\x8f'
p1875
I106
sS'ligas'
p1876
I106
sS'rspnd'
p1877
I101
sS'14:37:09.0,33.9269652,-118.2069229,5402.03,tres'
p1878
I106
sS'\xe2\x9c\x8b,90262\n481190139545141248,vaniitybree_,2014-06-23'
p1879
I106
sS'remember'
p1880
I101
sS'whenever'
p1881
I105
sS'nozzing'
p1882
I106
sS'13:42:57.0,33.926962,-118.2068641,5402.03,ma\xc3\xb1ana'
p1883
I106
sS'15:32:19.0,33.926934,-118.2068326,5402.03,international'
p1884
I106
sS'michel'
p1885
I106
sS'park,90262\n515988487640993792,maiteesaandoval,2014-09-27'
p1886
I106
sS'whoopin'
p1887
I106
sS'rechaz\xc3\xb3'
p1888
I106
sS'haircut'
p1889
I106
sS'hacia'
p1890
I103
sS'orgullo'
p1891
I104
sS'cold'
p1892
I106
sS'still'
p1893
I97
sS'llegando'
p1894
I105
sS'06:41:43.0,33.9269638,-118.20691,5402.03,fue'
p1895
I106
sS'forma'
p1896
I106
sS'saludos.viva'
p1897
I106
sS'noo'
p1898
I105
sS'ummmkay?,90262\n421157473157152768,sotoyoryin,2014-01-09'
p1899
I106
sS'not'
p1900
I57
sS'now'
p1901
I78
sS'nos'
p1902
I97
sS'robinho'
p1903
I106
sS'james'
p1904
I58
sS'drop'
p1905
I104
sS'cliffy'
p1906
I106
sS'desde'
p1907
I93
sS'\xe2\x9a\xa0\xef\xb8\x8fbruuuuh'
p1908
I106
sS'em'
p1909
I105
sS'el'
p1910
I2
sS'en'
p1911
I18
sS'rodr\xc3\xadguez'
p1912
I91
sS'eh'
p1913
I106
sS'yeah'
p1914
I104
sS'goose'
p1915
I106
sS'recibir'
p1916
I106
sS'curveball'
p1917
I106
sS'ex'
p1918
I97
sS'year'
p1919
I97
sS'ew'
p1920
I106
sS'ronaldinho:-ligabbva-mundial-ucl-libertadores-recopa-copa'
p1921
I106
sS'es'
p1922
I30
sS'eterno'
p1923
I106
sS'album'
p1924
I106
sS'belleza........por'
p1925
I106
sS'"honor"'
p1926
I106
sS'thirst'
p1927
I106
sS'looking'
p1928
I103
sS':cristiano'
p1929
I106
sS'smfh'
p1930
I102
sS'bianchetti'
p1931
I106
sS'medalla'
p1932
I104
sS'cara'
p1933
I105
sS'care'
p1934
I105
sS'm\xc3\xa1s"'
p1935
I106
sS'luego'
p1936
I105
sS'\xc3\x89xitos'
p1937
I106
sS'honest'
p1938
I105
sS'fichen'
p1939
I106
sS'sayin...kbbq'
p1940
I106
sS'blind'
p1941
I104
sS'variables'
p1942
I106
sS'birffffff'
p1943
I106
sS'yourself'
p1944
I106
sS'tenia'
p1945
I106
sS'perdido'
p1946
I106
sS"'en"
p1947
I106
sS'oro*recopa'
p1948
I106
sS'sheet'
p1949
I106
sS'municipal-xelaju'
p1950
I106
sS'llegar'
p1951
I104
sS'caught'
p1952
I105
sS'breed'
p1953
I106
sS'"nunca'
p1954
I106
sS'carson'
p1955
I106
sS'tragic'
p1956
I106
sS'llegan'
p1957
I106
sS'friend'
p1958
I103
sS'morpheme'
p1959
I106
sS'that'
p1960
I35
sS'miranda)'
p1961
I106
sS'baja'
p1962
I105
sS'x3'
p1963
I106
sS'than'
p1964
I99
sS'ingleses'
p1965
I106
sS'colombiano'
p1966
I102
sS'home....oh'
p1967
I106
sS'kak\xc3\xa1'
p1968
I105
sS'angel'
p1969
I105
sS'slap'
p1970
I106
sS'sorprendi\xc3\xb3'
p1971
I106
sS'zizou'
p1972
I105
sS'breakfast'
p1973
I101
sS':dos'
p1974
I106
sS':109318'
p1975
I106
sS'gonz\xc3\xa1lez'
p1976
I106
sS'100000%'
p1977
I106
sS'lb/lakewood'
p1978
I106
sS'neg\xc3\xb3'
p1979
I106
sS'santiago'
p1980
I105
sS'tratamos'
p1981
I106
sS'cordoba'
p1982
I106
sS'dibujar'
p1983
I106
sS'pr\xc3\xb3ximo'
p1984
I104
sS'america'
p1985
I104
sS'forever'
p1986
I98
sS'exitos.,90262\n494060999557644289,axelmerida13,2014-07-29'
p1987
I106
sS'steady'
p1988
I106
sS'actualidad'
p1989
I106
sS'german'
p1990
I106
sS'nena,90262\n411375943546978304,loveseductive,2013-12-13'
p1991
I106
sS'maine'
p1992
I106
sS'help'
p1993
I103
sS'aint'
p1994
I106
sS'snack'
p1995
I106
sS'title'
p1996
I106
sS'zombie'
p1997
I106
sS'internacional'
p1998
I104
sS'only'
p1999
I91
sS'incre\xc3\xadble'
p2000
I106
sS'casillaskeylor'
p2001
I106
sS'pumpkin'
p2002
I106
sS'06:52:03.0,33.9269192,-118.2068118,5402.03,portada'
p2003
I106
sS'icarly'
p2004
I106
sS'halamadrid.,90262\n495835732813312000,axelmerida13,2014-08-03'
p2005
I106
sS'vienen'
p2006
I106
sS'unidos'
p2007
I95
sS"everything's"
p2008
I106
sS'husband'
p2009
I106
sS'seedorf'
p2010
I106
sS'asleep'
p2011
I105
sS'aceptado'
p2012
I106
sS'realizar\xc3\xa1'
p2013
I106
sS'sport'
p2014
I106
sS'resaca'
p2015
I106
sS'concern'
p2016
I106
sS'golazo'
p2017
I106
sS'estan'
p2018
I100
sS'marcador'
p2019
I105
sS'3'
p2020
I90
sS'estar'
p2021
I102
sS'estas'
p2022
I81
sS'disfr\xc3\xbata'
p2023
I106
sS'notice'
p2024
I106
sS'informame'
p2025
I106
sS'mundial"'
p2026
I106
sS"mundial'"
p2027
I106
sS'fichar\xc3\xa1'
p2028
I106
sS'mundial*'
p2029
I106
sS'orb\xc3\xa1n'
p2030
I106
sS'hydrate'
p2031
I106
sS'miroslav'
p2032
I106
sS'javier'
p2033
I100
sS'05:04:52.0,33.9270451,-118.1997405,5402.03,going'
p2034
I106
sS'wheels'
p2035
I106
sS'comes'
p2036
I104
sS'simplemente'
p2037
I105
sS'fichajes'
p2038
I100
sS'cuando'
p2039
I94
sS"couldn't"
p2040
I106
sS'12:23:28.0,33.9269319,-118.2068568,5402.03,\xc2\xa1oficial'
p2041
I106
sS'pedro'
p2042
I106
sS'contrario'
p2043
I106
sS'srsy'
p2044
I106
sS'triunfo'
p2045
I105
sS'21:32:29.0,33.9241425,-118.20082766,5402.03,brazil'
p2046
I106
sS'sesh'
p2047
I105
sS'so\xc3\xb1ado'
p2048
I106
sS'\xe2\x9a\xbd\xe2\x9d\xa4,90262\n481132077681618944,vaniitybree_,2014-06-23'
p2049
I106
sS'beckenbauer'
p2050
I106
sS'jugadores'
p2051
I83
sS'argentina'
p2052
I102
sS'4-0'
p2053
I105
sS'guatemala...desde'
p2054
I106
sS'(ita)kansas'
p2055
I106
sS'these'
p2056
I93
sS'crecer'
p2057
I106
sS'basquetbol'
p2058
I106
sS'buen'
p2059
I43
sS'sssssssscute'
p2060
I106
sS'weellllllp'
p2061
I106
sS'autografiada'
p2062
I106
sS'mediocre'
p2063
I106
sS'develop'
p2064
I106
sS'medio'
p2065
I105
sS'media'
p2066
I106
sS'..yea'
p2067
I106
sS'ya'
p2068
I58
sS'busted'
p2069
I104
sS'fruit'
p2070
I106
sS'mentally'
p2071
I106
sS'\xe2\x9c\x8c\xef\xb8\x8f'
p2072
I106
sS'charger'
p2073
I106
sS'floor'
p2074
I105
sS'starbucks'
p2075
I106
sS'excel'
p2076
I106
sS'restrooms'
p2077
I106
sS'retirada'
p2078
I105
sS'ps3'
p2079
I106
sS'speed'
p2080
I106
sS'ps4'
p2081
I106
sS'death'
p2082
I106
sS'euros'
p2083
I104
sS'thinking'
p2084
I101
sS'm\xe2\x82\xac'
p2085
I104
sS'saldr\xc3\xa1'
p2086
I106
sS'9:31'
p2087
I106
sS'balones'
p2088
I106
sS'real'
p2089
I16
sS'ama'
p2090
I102
sS'06:03:51.0,33.9269564,-118.2068655,5402.03,los'
p2091
I106
sS'lado'
p2092
I106
sS'psg'
p2093
I102
sS'gonna'
p2094
I85
sS'early'
p2095
I98
sS'listening'
p2096
I104
sS'lady'
p2097
I102
sS'05:59:46.0,33.9269757,-118.2068183,5402.03,real'
p2098
I106
sS'mourinho'
p2099
I106
sS'su\xc3\xa1rez'
p2100
I106
sS'40m\xe2\x82\xac'
p2101
I106
sS'moreno'
p2102
I106
sS't'
p2103
I106
sS'15:15:59.0,33.9268792,-118.2068408,5402.03,chicharito'
p2104
I106
sS'laugh'
p2105
I104
sS'equipaci\xc3\xb3n'
p2106
I106
sS'guillermo'
p2107
I104
sS'm\xc3\xa1s'
p2108
I93
sS'04:40:12.0,33.92968675,-118.20025731,5402.03,when'
p2109
I106
sS'heart\xe2\x9d\xa4awwww'
p2110
I106
sS'bonitos'
p2111
I106
sS'.,90262\n505706629032345600,axelmerida13,2014-08-30'
p2112
I106
sS'\xc2\xa1m\xc3\xa1s'
p2113
I106
sS'y...........los'
p2114
I106
sS'squirt'
p2115
I106
sS'\xe2\x9c\x88\xef\xb8\x8f'
p2116
I106
sS'asap'
p2117
I102
sS'frenemies'
p2118
I106
sS'^_^'
p2119
I106
sS'raul'
p2120
I105
sS'francis'
p2121
I99
sS'06:02:01.0,33.9295332,-118.2007767,5402.03,i'
p2122
I106
sS"inside...it's"
p2123
I106
sS'text\xe2\x80\xa6'
p2124
I106
sS'snapchat'
p2125
I103
sS'morir'
p2126
I106
sS'macca'
p2127
I106
sS'bedtime'
p2128
I106
sS'10:59:23.0,33.9268938,-118.206915,5402.03,hoy'
p2129
I106
sS'heated'
p2130
I106
sS"tryin'"
p2131
I106
sS'your'
p2132
I55
sS'transformar'
p2133
I106
sS'stare'
p2134
I106
sS'neymar'
p2135
I103
sS'ofializa'
p2136
I106
sS'premio'
p2137
I102
sS'area'
p2138
I106
sS'lol'
p2139
I24
sS'start'
p2140
I96
sS'cats'
p2141
I106
sS'low'
p2142
I103
sS'lot'
p2143
I101
sS'valencia'
p2144
I100
sS'furbol'
p2145
I106
sS'trying'
p2146
I102
sS'happening'
p2147
I106
sS'wow...tfti'
p2148
I106
sS'freddy'
p2149
I106
sS'miguel'
p2150
I106
sS'siguientes'
p2151
I106
sS'romper\xc3\xa1'
p2152
I106
sS'moved'
p2153
I104
sS'tengo'
p2154
I104
sS'ojala'
p2155
I106
sS'daily'
p2156
I105
sS'due\xc3\xb1o'
p2157
I106
sS'bendadick'
p2158
I106
sS'hospitals'
p2159
I106
sS'enfadosa'
p2160
I106
sS'yoo'
p2161
I106
sS'unwelcome'
p2162
I106
sS'(cazorla'
p2163
I106
sS'partidos*2'
p2164
I106
sS'ringtone'
p2165
I106
sS'you'
p2166
I17
sS'poor'
p2167
I104
sS'chicharito'
p2168
I79
sS'06:02:24.0,33.9269517,-118.2068532,5402.03,xabi'
p2169
I106
sS'wtfgo'
p2170
I106
sS'3-7'
p2171
I105
sS'much\xc3\xadsimo'
p2172
I106
sS'encabezan'
p2173
I106
sS'3-0'
p2174
I106
sS'gv:e'
p2175
I106
sS'famosa'
p2176
I106
sS'messi'
p2177
I97
sS'month'
p2178
I105
sS'ciudad'
p2179
I106
sS'sue\xc3\xb1o'
p2180
I105
sS'monty'
p2181
I106
sS'bosque'
p2182
I106
sS'schleeps'
p2183
I106
sS'"hi'
p2184
I106
sS'estaba'
p2185
I105
sS'1pm'
p2186
I106
sS'very'
p2187
I99
sS'saludos.,90262\n505842885984399360,axelmerida13,2014-08-30'
p2188
I106
sS'selfies'
p2189
I106
sS'decide'
p2190
I105
sS'heaven'
p2191
I106
sS'clausura'
p2192
I106
sS'--'
p2193
I105
sS'//t.co/4cvwe6t7xm'
p2194
I106
sS'manager'
p2195
I106
sS'mile'
p2196
I106
sS'k\xc3\xa4mper'
p2197
I106
sS'mundial'
p2198
I88
sS'throbbing'
p2199
I106
sS"i'll"
p2200
I98
sS'instagram'
p2201
I106
sS'streets'
p2202
I106
sS'atr\xc3\xa1s'
p2203
I106
sS'deportivo]'
p2204
I106
sS'14:01:39.0,33.9269229,-118.2069301,5402.03,me'
p2205
I106
sS'08:15:48.0,33.929654,-118.2007306,5402.03,i'
p2206
I106
sS'diasaludos'
p2207
I106
sS'witnessed'
p2208
I106
sS'ayudar'
p2209
I105
sS"'maestro'"
p2210
I106
sS'learned'
p2211
I106
sS'friday'
p2212
I101
sS'loose'
p2213
I105
sS'answers'
p2214
I106
sS'\xc2\xa1ma\xc3\xb1ana'
p2215
I106
sS'strong'
p2216
I103
sS'8m\xe2\x82\xac'
p2217
I106
sS'gangbang'
p2218
I106
sS'creepy'
p2219
I106
sS'equivocado'
p2220
I106
sS'colores'
p2221
I106
sS'dif\xc3\xadciles'
p2222
I106
sS'family'
p2223
I98
sS'\xc3\xa9l'
p2224
I105
sS'ocubil\xc3\xa1'
p2225
I106
sS'put'
p2226
I98
sS'trained'
p2227
I106
sS'hellas'
p2228
I104
sS'simba'
p2229
I105
sS'takes'
p2230
I106
sS'conmemorativa'
p2231
I106
sS'answered'
p2232
I106
sS'taken'
p2233
I106
sS'condici\xc3\xb3n'
p2234
I106
sS'madrid...............simplemente'
p2235
I106
sS'dios'
p2236
I106
sS'hurry'
p2237
I105
sS'fredy'
p2238
I106
sS'celebraremos'
p2239
I106
sS'nino'
p2240
I106
sS'd.l\xc3\xb3pez'
p2241
I106
sS'\xe2\x98\x95\xef\xb8\x8f'
p2242
I106
sS'hamburgers'
p2243
I106
sS'anota'
p2244
I106
sS'anoto'
p2245
I105
sS'botas'
p2246
I106
sS'sabr\xc3\xa1n'
p2247
I106
sS'california.la'
p2248
I106
sS'ft'
p2249
I106
sS'tried'
p2250
I106
sS'rude'
p2251
I106
sS'</3'
p2252
I105
sS'fc'
p2253
I104
sS'marar'
p2254
I106
sS'fe'
p2255
I106
sS'\xe2\x80\xa2the'
p2256
I106
sS'a'
p2257
I6
sS'doritos'
p2258
I106
sS'read'
p2259
I106
sS'dortmund.\xc2\xa1orgullo'
p2260
I106
sS'logros'
p2261
I106
sS'dream'
p2262
I103
sS'zanetti'
p2263
I106
sS'porfa'
p2264
I106
sS'bici'
p2265
I106
sS'anunci\xc3\xb3'
p2266
I106
sS'sooo'
p2267
I106
sS'soon'
p2268
I102
sS'ashanti'
p2269
I106
sS'torneo'
p2270
I105
sS'wiener'
p2271
I106
sS'recuerdos'
p2272
I104
sS'hell'
p2273
I105
sS'mcdonalds'
p2274
I105
sS'lateral'
p2275
I105
sS'actually'
p2276
I102
sS'>>>'
p2277
I104
sS'cutie'
p2278
I104
sS"haven't"
p2279
I104
sS'fool'
p2280
I105
sS'yo'
p2281
I93
sS'food'
p2282
I100
sS'moaning'
p2283
I106
sS"you've"
p2284
I105
sS'yr'
p2285
I106
sS'humillado'
p2286
I106
sS'bryan'
p2287
I106
sS'bless'
p2288
I105
sS'\xc2\xa1ha'
p2289
I106
sS'piden'
p2290
I106
sS'stopped'
p2291
I104
sS"isn't"
p2292
I104
sS'heavy'
p2293
I106
sS'restless'
p2294
I106
sS'(323)5199335'
p2295
I106
sS'toda'
p2296
I102
sS'beyond'
p2297
I105
sS'todo'
p2298
I96
sS'since'
p2299
I100
sS'7'
p2300
I106
sS'iker'
p2301
I92
sS'ass'
p2302
I84
sS'gander...she'
p2303
I106
sS'team'
p2304
I105
sS'present\xc3\xb3'
p2305
I105
sS'asf'
p2306
I104
sS'ask'
p2307
I104
sS'asi'
p2308
I92
sS'p\xc3\xa9kerman'
p2309
I106
sS'pasado'
p2310
I105
sS'halamadrid...la'
p2311
I106
sS'\xc2\xbfse'
p2312
I105
sS'terrible'
p2313
I106
sS'as]'
p2314
I106
sS'06:51:34.0,33.926921,-118.2068321,5402.03,international'
p2315
I106
sS'american'
p2316
I106
sS'universidad'
p2317
I106
sS'pudieron'
p2318
I106
sS'arsenal'
p2319
I90
sS'seleccion'
p2320
I102
sS'fucked'
p2321
I104
sS'12:52:52.0,33.926962,-118.2068641,5402.03,xabi'
p2322
I106
sS'pasos'
p2323
I106
sS'miss'
p2324
I90
sS'soon\xe2\x80\xa6'
p2325
I106
sS'4loko'
p2326
I106
sS'wonderful'
p2327
I106
sS'delanteras'
p2328
I106
sS'especially.happy'
p2329
I106
sS'selling'
p2330
I106
sS'shinji'
p2331
I104
sS'jordan'
p2332
I106
sS'malaga'
p2333
I104
sS'grey'
p2334
I105
sS'pentapichichi.saludos.,90262\n509160059134169088,axelmerida13,2014-09-09'
p2335
I106
sS'bride'
p2336
I106
sS'store'
p2337
I105
sS'ousted'
p2338
I104
sS'fuck?"'
p2339
I106
sS'philly'
p2340
I106
sS'campa\xc3\xb1a'
p2341
I106
sS'lie'
p2342
I105
sS'lil'
p2343
I101
sS'forshurw'
p2344
I106
sS'nuestras'
p2345
I106
sS'guastatoya'
p2346
I106
sS'forshure'
p2347
I106
sS'hombres'
p2348
I106
sS'freddie'
p2349
I106
sS'titanes'
p2350
I105
sS':rafa'
p2351
I106
sS'muscle'
p2352
I106
sS'5-0'
p2353
I106
sS'chronicle'
p2354
I106
sS'yasiel'
p2355
I106
sS'clear'
p2356
I105
sS'presenciaron'
p2357
I106
sS'm\xc3\xa1laga'
p2358
I105
sS'clean'
p2359
I105
sS't-pain'
p2360
I106
sS'blend'
p2361
I106
sS'shoutout'
p2362
I101
sS'jerseyclubb\xe2\x9a\xa0\xef\xb8\x8f'
p2363
I106
sS'tener'
p2364
I105
sS'debido'
p2365
I106
sS'hyped'
p2366
I106
sS'chiquito'
p2367
I106
sS'paranoid'
p2368
I106
sS'pretty'
p2369
I100
sS'circle'
p2370
I105
sS'firmar\xc3\xada'
p2371
I106
sS'mehdi'
p2372
I106
sS'meanwhile'
p2373
I106
sS'feels'
p2374
I104
sS'formar'
p2375
I106
sS'during'
p2376
I106
sS'\xd9\x84\xd8\xad\xd9\x82\xd8\xaa'
p2377
I106
sS'manchesterunited'
p2378
I105
sS'felicito.....carolina'
p2379
I106
sS'chuleta'
p2380
I106
sS'(lynwood'
p2381
I101
sS'x'
p2382
I106
sS'cultura'
p2383
I106
sS'close'
p2384
I104
sS'usar\xc3\xa1'
p2385
I106
sS'14:18:21.0,33.9269461,-118.206926,5402.03,coentr\xc3\xa3o'
p2386
I106
sS'probable'
p2387
I106
sS'pictures'
p2388
I106
sS'wow'
p2389
I105
sS'juego'
p2390
I105
sS'beautiful?\xe2\x80\x9d'
p2391
I106
sS'won'
p2392
I105
sS'probably'
p2393
I102
sS'queves'
p2394
I106
sS'makeup'
p2395
I106
sS'missing'
p2396
I105
sS'1462810274791'
p2397
I105
sS'disfrutaste'
p2398
I106
sS'quiero'
p2399
I103
sS'henrry'
p2400
I106
sS'pregunta'
p2401
I106
sS'understanding'
p2402
I106
sS'r.sociedad'
p2403
I106
sS'league'
p2404
I104
sS'bota'
p2405
I105
sS'f\xc3\xbatbolancelotti'
p2406
I106
sS"wouldn't"
p2407
I105
sS'salgo'
p2408
I106
sS'anos'
p2409
I105
sS'^~^'
p2410
I106
sS'protector'
p2411
I106
sS'15:08:46.0,33.926939,-118.2069236,5402.03,confiamos'
p2412
I106
sS'jovetic'
p2413
I106
sS'liked'
p2414
I105
sS'jeff'
p2415
I106
sS'battery'
p2416
I105
sS'medios'
p2417
I103
sS'likes'
p2418
I105
sS'buisness'
p2419
I106
sS'damn'
p2420
I95
sS'bugatti'
p2421
I106
sS"carolina's"
p2422
I106
sS'alto'
p2423
I106
sS'lived'
p2424
I106
sS',90262\n481491096841633794,vaniitybree_,2014-06-24'
p2425
I106
sS'entrenamiento'
p2426
I84
sS'miralo'
p2427
I106
sS'else'
p2428
I105
sS'anthony'
p2429
I105
sS'lives'
p2430
I105
sS'look'
p2431
I91
sS'dusty'
p2432
I105
sS'while'
p2433
I101
sS'lynwood)'
p2434
I106
sS'mitchell'
p2435
I106
sS'ready'
p2436
I93
sS'yaaaaaaaaay'
p2437
I106
sS'anymore'
p2438
I104
sS'cumming'
p2439
I106
sS'used'
p2440
I106
sS'classmates'
p2441
I106
sS'brevemente'
p2442
I106
sS'burnley'
p2443
I106
sS'cleaning'
p2444
I106
sS'bahahahah'
p2445
I106
sS"mando'"
p2446
I106
sS'bob'
p2447
I106
sS'manutd'
p2448
I106
sS'obviously'
p2449
I106
sS'(martes'
p2450
I106
sS'izquierdo'
p2451
I105
sS'\xc2\xa1alex'
p2452
I106
sS'05:18:37.0,33.9289743,-118.1990391,5402.03,seshing'
p2453
I106
sS'\xc2\xa1super'
p2454
I106
sS'saludos.,90262\n505948263761969152,axelmerida13,2014-08-31'
p2455
I106
sS'05:10:13.0,33.9269963,-118.2068209,5402.03,el'
p2456
I106
sS'presentado'
p2457
I97
sS'barack'
p2458
I106
sS'marco'
p2459
I105
sS'ight'
p2460
I106
sS'marca'
p2461
I99
sS'game'
p2462
I96
sS'v\xc3\xadctimas'
p2463
I106
sS'eel'
p2464
I106
sS'eeh'
p2465
I106
sS'buff'
p2466
I105
sS"day...it's"
p2467
I106
sS'<333'
p2468
I105
sS'tambi\xc3\xa9n'
p2469
I105
sS'yolo'
p2470
I104
sS'some'
p2471
I77
sS'lips'
p2472
I104
sS'trendy'
p2473
I106
sS'alcanzarlosbuen'
p2474
I106
sS'anti-american'
p2475
I106
sS'aut\xc3\xb3grafo'
p2476
I106
sS'delivered'
p2477
I106
sS'organizaria'
p2478
I106
sS'tendre'
p2479
I106
sS'tendra'
p2480
I106
sS'eating'
p2481
I103
sS'azucar'
p2482
I106
sS'natalicio'
p2483
I106
sS'laker'
p2484
I106
sS'oficial|'
p2485
I106
sS'become'
p2486
I105
sS'finalizar'
p2487
I106
sS'faith'
p2488
I105
sS'awwwh'
p2489
I106
sS'idk'
p2490
I104
sS'idc'
p2491
I106
sS'19:00'
p2492
I106
sS'dude'
p2493
I105
sS'nonsense'
p2494
I106
sS'desata'
p2495
I106
sS'leyenda'
p2496
I105
sS'smells'
p2497
I106
sS'transmisiones'
p2498
I106
sS'pocos'
p2499
I106
sS'\xc2\xbfjames'
p2500
I106
sS'.3'
p2501
I106
sS'0-4'
p2502
I106
sS'0-7'
p2503
I106
sS'0-1'
p2504
I106
sS'segregation'
p2505
I105
sS'similar'
p2506
I106
sS'17:50:00.0,33.92410768,-118.20088131,5402.03,waiting'
p2507
I106
sS'recordad'
p2508
I106
sS'amalas'
p2509
I106
sS'nah'
p2510
I101
sS'nap'
p2511
I105
sS'tits'
p2512
I106
sS'grind'
p2513
I106
sS'draw'
p2514
I105
sS'smiley'
p2515
I106
sS'william'
p2516
I106
sS'dunzo'
p2517
I106
sS'visita'
p2518
I104
sS'earphones'
p2519
I106
sS'\xe2\x9c\x82\xef\xb8\x8f'
p2520
I106
sS'e'
p2521
I99
sS'practically'
p2522
I106
sS'guestssss'
p2523
I106
sS"she's"
p2524
I96
sS'22:16:56.0,33.9276526,-118.2086237,5402.03,my'
p2525
I106
sS'gs'
p2526
I106
sS'bernab\xc3\xa9u'
p2527
I99
sS'ganadores'
p2528
I106
sS'reconocimos'
p2529
I106
sS'confiamos'
p2530
I106
sS'go'
p2531
I51
sS'sesi\xc3\xb3n'
p2532
I106
sS'nuestros'
p2533
I104
sS'18:27:39.0,33.92416466,-118.20078259,5402.03,kick'
p2534
I106
sS'empresario'
p2535
I106
sS'/.-'
p2536
I106
sS'pretemporada'
p2537
I104
sS'felicita'
p2538
I106
sS',90262\n481010822798249984,vaniitybree_,2014-06-23'
p2539
I106
sS'maan'
p2540
I106
sS'telling'
p2541
I105
sS'pussyy'
p2542
I106
sS'michael'
p2543
I104
sS'ryan'
p2544
I106
sS'17:33:03.0,33.9295546,-118.2007788,5402.03,my'
p2545
I106
sS'booty'
p2546
I105
sS'since\xe2\x80\xa6'
p2547
I106
sS'alvaro'
p2548
I105
sS'seeeeee'
p2549
I106
sS'muffs'
p2550
I106
sS'picked'
p2551
I106
sS'download'
p2552
I106
sS'tejutla'
p2553
I106
sS'rotten'
p2554
I106
sS'playa'
p2555
I106
sS'agradezco'
p2556
I105
sS'afcbrit'
p2557
I106
sS'recuerdes'
p2558
I106
sS'recibimiento'
p2559
I105
sS'ramsey'
p2560
I106
sS'weirdo'
p2561
I106
sS'\xe2\x97\x8f'
p2562
I102
sS'14:20:10.0,33.9269439,-118.2068554,5402.03,manchester'
p2563
I106
sS'presale'
p2564
I106
sS'errrbody'
p2565
I106
sS'claro'
p2566
I102
sS'win'
p2567
I104
sS'wit'
p2568
I103
sS'crap'
p2569
I105
sS'barrios'
p2570
I106
sS'camera'
p2571
I106
sS'siguiendo'
p2572
I106
sS'started'
p2573
I104
sS'confused'
p2574
I105
sS'vuelta'
p2575
I106
sS'[goal]'
p2576
I106
sS'wearin'
p2577
I106
sS'ride'
p2578
I105
sS's\xc3\xa1nchez'
p2579
I103
sS'meet'
p2580
I103
sS'hip'
p2581
I105
sS'saludos.,90262\n505827793276375040,axelmerida13,2014-08-30'
p2582
I106
sS'pulling'
p2583
I106
sS'715.4'
p2584
I106
sS'querido'
p2585
I106
sS'stole'
p2586
I106
sS'located'
p2587
I105
sS'cual'
p2588
I105
sS'fart'
p2589
I106
sS'12-10'
p2590
I106
sS'3/3'
p2591
I106
sS'huur'
p2592
I106
sS'(3791'
p2593
I106
sS'petco'
p2594
I106
sS'sperm'
p2595
I106
sS'ticket'
p2596
I103
sS'cuestion'
p2597
I106
sS'mentioned'
p2598
I106
sS'internationalchampionscup'
p2599
I106
sS'sunday'
p2600
I105
sS'[pic]'
p2601
I99
sS'madre'
p2602
I106
sS'14:42:07.0,33.926939,-118.2069236,5402.03,dos'
p2603
I106
sS'bbva'
p2604
I106
sS'jerez'
p2605
I106
sS'camino'
p2606
I104
sS'futbolistas'
p2607
I105
sS'hands'
p2608
I104
sS'front'
p2609
I105
sS'mufc'
p2610
I106
sS'contest...just'
p2611
I106
sS'cupreal'
p2612
I106
sS'shaking'
p2613
I106
sS'|'
p2614
I74
sS'lau-antigua'
p2615
I106
sS'intenci\xc3\xb3n'
p2616
I106
sS'twitts'
p2617
I103
sS'some\xe2\x9d\x93'
p2618
I106
sS'lololololol'
p2619
I106
sS'lalala'
p2620
I106
sS'special'
p2621
I103
sS'dejaron'
p2622
I106
sS'niego'
p2623
I106
sS'aside'
p2624
I106
sS'boateng'
p2625
I106
sS'09:50:16.0,33.9269472,-118.2068663,5402.03,un'
p2626
I106
sS'bobos'
p2627
I106
sS'cause'
p2628
I82
sS'deseamos'
p2629
I105
sS'wiered'
p2630
I106
sS'70s'
p2631
I105
sS'so\xc3\xb1aba'
p2632
I106
sS'jugador....es'
p2633
I106
sS'muslo'
p2634
I106
sS'it:('
p2635
I106
sS'a\xc3\xb1os*5'
p2636
I106
sS'shred'
p2637
I106
sS'cumplas'
p2638
I105
sS'subtweeting'
p2639
I106
sS'\xe2\x9d\xa4\xe2\x9d\xa4'
p2640
I106
sS'cristian'
p2641
I106
sS'congo'
p2642
I106
sS'bitch'
p2643
I71
sS'walnut,90262\n481504740358897666,vaniitybree_,2014-06-24'
p2644
I106
sS'extrane'
p2645
I106
sS'hern\xc3\xa1ndez\xc2\xbb'
p2646
I106
sS"you're"
p2647
I90
sS',90262\n481009831478702080,vaniitybree_,2014-06-23'
p2648
I106
sS'grow'
p2649
I106
sS'esperar\xc3\xada'
p2650
I106
sS'compa\xc3\xb1ero'
p2651
I106
sS'orban'
p2652
I106
sS'final'
p2653
I103
sS'beard'
p2654
I106
sS'2-2'
p2655
I104
sS'2-3'
p2656
I106
sS'malibu'
p2657
I105
sS'craziest'
p2658
I106
sS'exactly'
p2659
I103
sS'listo'
p2660
I106
sS'rsx'
p2661
I106
sS'saludos.,90262\n505828866057723904,axelmerida13,2014-08-30'
p2662
I106
sS'lista'
p2663
I106
sS'deportivo'
p2664
I103
sS'campe\xc3\xb3n'
p2665
I105
sS'bed'
p2666
I100
sS'6th'
p2667
I106
sS'bet'
p2668
I106
sS'ni\xc3\xb1o'
p2669
I106
sS'need'
p2670
I78
sS'fuuuuuuuh'
p2671
I106
sS'border'
p2672
I106
sS'babosa'
p2673
I106
sS'able'
p2674
I104
sS'econ\xc3\xb3micas'
p2675
I106
sS'aww'
p2676
I106
sS'jorge'
p2677
I106
sS'awk'
p2678
I106
sS'awh'
p2679
I106
sS'duelo'
p2680
I106
sS'awe'
p2681
I106
sS'22:17:09.0,33.9241434,-118.20092743,5402.03,lmfao'
p2682
I106
sS'juega'
p2683
I97
sS'upset'
p2684
I105
sS'est\xc3\xa1n'
p2685
I106
sS'\xc3\x9altima'
p2686
I105
sS'zinedine'
p2687
I105
sS'lmao\xe2\x80\x9d'
p2688
I106
sS'acept\xc3\xb3'
p2689
I106
sS'florentino'
p2690
I96
sS'shoes'
p2691
I106
sS'junto'
p2692
I106
sS'asasa'
p2693
I106
sS'earned'
p2694
I106
sS'('
p2695
I105
sS'tiro'
p2696
I103
sS'21:42:59.0,33.92410021,-118.20083035,5402.03,we'
p2697
I106
sS'ayer'
p2698
I104
sS'pel\xc3\x89'
p2699
I106
sS'overall'
p2700
I106
sS'tbt'
p2701
I106
sS'tbh'
p2702
I72
sS'29/07)international'
p2703
I106
sS'scrolling'
p2704
I106
sS'shy'
p2705
I106
sS'meono'
p2706
I106
sS'gran'
p2707
I59
sS'profesional'
p2708
I106
sS'preach'
p2709
I106
sS'prayers'
p2710
I106
sS'\xc2\xa1\xc2\xa1hala'
p2711
I106
sS'entrena'
p2712
I106
sS'line.that'
p2713
I106
sS'humano'
p2714
I103
sS'luv'
p2715
I106
sS'exitos.,90262\n495062171739385856,axelmerida13,2014-08-01'
p2716
I106
sS'concachampions:comunicaciones'
p2717
I106
sS'rossonero'
p2718
I106
sS'debutar'
p2719
I106
sS'correctly'
p2720
I106
sS'llamado'
p2721
I106
sS'frente'
p2722
I106
sS'deleita'
p2723
I106
sS'monitor'
p2724
I106
sS'aqui'
p2725
I91
sS'jersey'
p2726
I104
sS'consigui\xc3\xb3'
p2727
I106
sS'torn'
p2728
I106
sS':v\xc3\x8ddeo-'
p2729
I106
sS'tuesday'
p2730
I106
sS'saludos.,90262\n505730359162445824,axelmerida13,2014-08-30'
p2731
I106
sS'(grajeda'
p2732
I106
sS'kings'
p2733
I106
sS'tiene'
p2734
I96
sS'quit'
p2735
I101
sS'fluently'
p2736
I106
sS'yay'
p2737
I106
sS'dortmund'
p2738
I105
sS'(hq)'
p2739
I106
sS'especiales'
p2740
I101
sS'treat'
p2741
I105
sS'hernandez'
p2742
I103
sS'sanch\xc3\xadz'
p2743
I106
sS'norteamericana'
p2744
I104
sS'both'
p2745
I104
sS'c'
p2746
I106
sS'gusten'
p2747
I106
sS'30mins'
p2748
I105
sS'-.-'
p2749
I105
sS'chivas'
p2750
I104
sS'intimidate'
p2751
I106
sS',90262\n405216478229590016,gabyuniquee,2013-11-26'
p2752
I106
sS'15:15:44.0,33.926939,-118.2069236,5402.03,international'
p2753
I106
sS'demo'
p2754
I106
sS'\xd8\xaa\xd9\x82\xd8\xb1\xd9\x8a\xd8\xa8\xd9\x8b\xd8\xa7'
p2755
I106
sS'despues'
p2756
I105
sS'hearted'
p2757
I106
sS'capture'
p2758
I106
sS'parte'
p2759
I102
sS'party'
p2760
I104
sS'partciparon'
p2761
I106
sS'02:33:11.0,33.9268832,-118.2068427,5402.03,un'
p2762
I106
sS'2months'
p2763
I106
sS'1-0'
p2764
I106
sS'saludarte'
p2765
I105
sS'selecci\xc3\xb3nes'
p2766
I106
sS'vuelve'
p2767
I104
sS'\xee\x90\x91\xee\x90\x91\xee\x90\x91\xee\x90\x91,90262\n412496268896653313,loveseductive,2013-12-16'
p2768
I106
sS'isco'
p2769
I102
sS'estado'
p2770
I105
sS'single'
p2771
I103
sS'keep'
p2772
I101
sS'//'
p2773
I106
sS'cazorla'
p2774
I105
sS'surfboard'
p2775
I106
sS'romelu'
p2776
I105
sS'well'
p2777
I95
sS'km/h'
p2778
I106
sS'awning'
p2779
I106
sS'\xd9\x88\xd8\xa7\xd8\xb0\xd8\xa7'
p2780
I106
sS'sexta'
p2781
I106
sS'mundialchampions'
p2782
I106
sS'09:45:49.0,33.92420576,-118.20079602,5402.03,regardless'
p2783
I106
sS'ahaha'
p2784
I104
sS'vida'
p2785
I100
sS'headed'
p2786
I105
sS'frlicidaded......\xc2\xa1feliz'
p2787
I106
sS'aficionados'
p2788
I102
sS'kick'
p2789
I105
sS'cop:munited'
p2790
I106
sS'pants'
p2791
I106
sS'munich'
p2792
I103
sS'historia'
p2793
I101
sS'america-confederaciones-bal\xc3\xb3n'
p2794
I106
sS'5am'
p2795
I106
sS'burden'
p2796
I106
sS'05:03:46.0,33.926976,-118.2068317,5402.03,es'
p2797
I106
sS'prefieres'
p2798
I106
sS'lost'
p2799
I103
sS'anticipa'
p2800
I106
sS'clown'
p2801
I106
sS'badminton'
p2802
I106
sS'martin'
p2803
I106
sS'page'
p2804
I106
sS'prueva'
p2805
I106
sS'twitter'
p2806
I102
sS'hush'
p2807
I106
sS'motiva'
p2808
I106
sS'home'
p2809
I88
sS'jlo'
p2810
I105
sS"chris's"
p2811
I106
sS'rhinestoooooones'
p2812
I106
sS'fabian'
p2813
I105
sS'puedo'
p2814
I102
sS'usac'
p2815
I106
sS'pueda'
p2816
I105
sS'hour...but'
p2817
I106
sS'puede'
p2818
I100
sS'cuidate'
p2819
I105
sS'madrid.......reus'
p2820
I106
sS'ancioso'
p2821
I106
sS'puppies'
p2822
I106
sS'okkaaaaaay'
p2823
I106
sS'real<3'
p2824
I106
sS'lagged'
p2825
I106
sS'you,90262\n483339748899971074,moeemoee18,2014-06-29'
p2826
I106
sS'noticed'
p2827
I106
sS'say\xe2\x80\xa2'
p2828
I106
sS'ayeeeeeee'
p2829
I106
sS'hr'
p2830
I106
sS'hi'
p2831
I94
sS'goals'
p2832
I106
sS'fuuuuuhhh'
p2833
I106
sS'ear'
p2834
I105
sS'ultimo'
p2835
I106
sS'eat'
p2836
I95
sS'hd'
p2837
I106
sS'galacticoshugo'
p2838
I106
sS'rumbo'
p2839
I106
sS'dmc'
p2840
I106
sS'signed'
p2841
I106
sS'limit'
p2842
I106
sS'sol\xc3\xads'
p2843
I106
sS'xolos'
p2844
I106
sS'piece'
p2845
I106
sS'cuatro'
p2846
I106
sS'etapa'
p2847
I106
sS'tf?,90262\n481505174565814272,vaniitybree_,2014-06-24'
p2848
I106
sS'xabi'
p2849
I98
sS'gira'
p2850
I101
sS'kisses'
p2851
I105
sS'anoeta'
p2852
I104
sS'mejor'
p2853
I79
sS'18:32:34.0,33.92416748,-118.20078334,5402.03,all'
p2854
I106
sS'beatz'
p2855
I106
sS'diego'
p2856
I98
sS'naz\xc3\xa1rio'
p2857
I106
sS'habl\xc3\xb3'
p2858
I105
sS'7/11'
p2859
I106
sS'parecido'
p2860
I106
sS'am\xc3\xa9rica*copa'
p2861
I106
sS'\xc3\x96zil'
p2862
I106
sS'star'
p2863
I106
sS'esposadaniela'
p2864
I106
sS'stay'
p2865
I100
sS'ole'
p2866
I103
sS'ingl\xc3\xa9s'
p2867
I105
sS'friends'
p2868
I93
sS'ocasi\xc3\xb3n'
p2869
I106
sS'"the'
p2870
I106
sS'simpson'
p2871
I106
sS'asian'
p2872
I106
sS'goles*goleador'
p2873
I106
sS'presenta'
p2874
I104
sS'presente'
p2875
I106
sS'marcos'
p2876
I97
sS'inicio'
p2877
I93
sS'aun'
p2878
I103
sS'cuadrado'
p2879
I106
sS'avi\xc3\xb3n'
p2880
I106
sS'sorry'
p2881
I103
sS'complet\xc3\xb3'
p2882
I106
sS'thoooooo'
p2883
I106
sS'cruising'
p2884
I106
sS'algunos'
p2885
I105
sS'updates'
p2886
I106
sS'*mundial*champions'
p2887
I106
sS'recuerdan'
p2888
I102
sS'skills'
p2889
I106
sS'cumplea\xc3\xb1os'
p2890
I104
sS'no.4'
p2891
I106
sS'recuerdas'
p2892
I101
sS'ups'
p2893
I105
sS'9pm'
p2894
I106
sS'eso'
p2895
I102
sS'coraje'
p2896
I106
sS'even'
p2897
I90
sS"tonight's"
p2898
I106
sS'panama'
p2899
I101
sS'galaxi.0-5'
p2900
I106
sS'estuvo'
p2901
I106
sS'sobre'
p2902
I104
sS'new'
p2903
I87
sS'tips'
p2904
I106
sS'ever'
p2905
I95
sS'madrid.david'
p2906
I106
sS'never'
p2907
I91
sS'met'
p2908
I105
sS'\xef\xb8\x8f'
p2909
I106
sS'mes'
p2910
I105
sS'active'
p2911
I104
sS'100'
p2912
I106
sS"aren't"
p2913
I106
sS'mex'
p2914
I106
sS'105'
p2915
I106
sS'dry'
p2916
I105
sS'luther'
p2917
I106
sS'05:30:32.0,33.9269644,-118.2069391,5402.03,la'
p2918
I106
sS'ignoring'
p2919
I106
sS'resto'
p2920
I106
sS'dro'
p2921
I106
sS'serca'
p2922
I105
sS"someone's"
p2923
I106
sS'30min'
p2924
I106
sS'eyebrows'
p2925
I106
sS'fantastic'
p2926
I106
sS'reciente'
p2927
I105
sS'county'
p2928
I106
sS'estar\xc3\xa1'
p2929
I105
sS'fraces'
p2930
I106
sS'estar\xc3\xa9'
p2931
I106
sS'defensor'
p2932
I105
sS'arms'
p2933
I106
sS'.,90262\n505713585188655104,axelmerida13,2014-08-30'
p2934
I106
sS'call'
p2935
I98
sS'ellos'
p2936
I106
sS'tell'
p2937
I96
sS'arma'
p2938
I106
sS'precioso'
p2939
I105
sS'cumplea\xc3\x91os'
p2940
I106
sS'pelear'
p2941
I106
sS'preciosa'
p2942
I105
sS'warm'
p2943
I106
sS'room'
p2944
I100
sS'setup'
p2945
I106
sS'roof'
p2946
I104
sS'regrets'
p2947
I106
sS'hizo'
p2948
I106
sS'lose\xe2\x80\xa6'
p2949
I106
sS'seguros"'
p2950
I106
sS'vodka'
p2951
I106
sS'give'
p2952
I100
sS'04:52:17.0,33.9269415,-118.2069407,5402.03,javier'
p2953
I106
sS'bayam\xc3\xb3n'
p2954
I105
sS'homie'
p2955
I106
sS'madridismo'
p2956
I103
sS'colocado'
p2957
I106
sS'.,90262\n494000980237623297,axelmerida13,2014-07-29'
p2958
I106
sS'ficha'
p2959
I103
sS'titular'
p2960
I102
sS'ganamos'
p2961
I104
sS'dimaria'
p2962
I105
sS'retorno'
p2963
I105
sS'food"'
p2964
I106
sS'believers'
p2965
I106
sS'alegra'
p2966
I105
sS'president'
p2967
I106
sS'lesbian'
p2968
I106
sS'duuuun'
p2969
I106
sS'preciosos............amor'
p2970
I106
sS'gan\xc3\xb3'
p2971
I106
sS'gan\xc3\xa9'
p2972
I106
sS"'06"
p2973
I106
sS'fifa'
p2974
I99
sS'banger'
p2975
I106
sS'wut'
p2976
I105
sS'immagrants'
p2977
I106
sS'05:24:29.0,33.9269389,-118.2068253,5402.03,cristiano'
p2978
I106
sS'before'
p2979
I100
sS'cerrar'
p2980
I106
sS'gente'
p2981
I104
sS'crew'
p2982
I106
sS'better'
p2983
I99
sS'generaciones'
p2984
I106
sS'weeks'
p2985
I101
sS'cree'
p2986
I106
sS'deletion'
p2987
I106
sS'workout'
p2988
I103
sS'brasile\xc3\xb1os'
p2989
I106
sS'griezmann'
p2990
I105
sS'collabs'
p2991
I106
sS'\xe2\x98\xba\xef\xb8\x8f'
p2992
I106
sS'peque\xc3\xb1a'
p2993
I106
sS'one'
p2994
I75
sS'meat'
p2995
I106
sS"fianc\xc3\xa9's"
p2996
I106
sS'vallecnao'
p2997
I106
sS'sido'
p2998
I99
sS'went'
p2999
I95
sS'briana'
p3000
I106
sS'side'
p3001
I105
sS'salud\xc3\xb3'
p3002
I106
sS'mean'
p3003
I90
sS"he's\xe2\x80\xa6"
p3004
I105
sS'liga'
p3005
I99
sS'milan'
p3006
I103
sS'dawg'
p3007
I106
sS'forgot'
p3008
I104
sS'hermoso'
p3009
I104
sS'imaginaba'
p3010
I106
sS'manda'
p3011
I106
sS'surprise'
p3012
I106
sS'venezuela'
p3013
I96
sS'hermosa'
p3014
I103
sS'forever\xe2\x9d\xa4'
p3015
I106
sS'foto'
p3016
I98
sS'turning'
p3017
I105
sS"20's"
p3018
I106
sS'throwbacks'
p3019
I106
sS'revenge'
p3020
I106
sS'v\xc3\xada'
p3021
I106
sS'ramos'
p3022
I95
sS'struggle'
p3023
I105
sS'hoodie'
p3024
I106
sS"'estreno"
p3025
I106
sS'entrar'
p3026
I106
sS'deseos'
p3027
I106
sS'starts'
p3028
I106
sS'ir\xc3\xa1'
p3029
I106
sS'rinde'
p3030
I106
sS'loud'
p3031
I106
sS'fuckin'
p3032
I103
sS'stewart'
p3033
I106
sS'ofwg'
p3034
I106
sS'grade'
p3035
I105
sS'hook'
p3036
I106
sS'campeones'
p3037
I101
sS'podr\xc3\xada'
p3038
I103
sS'ditch'
p3039
I106
sS'hood'
p3040
I104
sS'bonita'
p3041
I106
sS'bonito'
p3042
I56
sS'girls'
p3043
I101
sS'conocian'
p3044
I106
sS'6hours...and'
p3045
I106
sS'segundo'
p3046
I105
sS'segunda'
p3047
I105
sS'gym'
p3048
I84
sS'caba\xc3\xb1as'
p3049
I106
sS'digo'
p3050
I106
sS'diga'
p3051
I106
sS'stocking'
p3052
I105
sS'distance'
p3053
I106
sS'anxiety'
p3054
I106
sS'matteo'
p3055
I106
sS'matter'
p3056
I106
sS'estrellas'
p3057
I99
sS'mini'
p3058
I106
sS'modern'
p3059
I106
sS'mind'
p3060
I103
sS'mine'
p3061
I103
sS'seen'
p3062
I101
sS'seem'
p3063
I104
sS'hago'
p3064
I105
sS'seek'
p3065
I106
sS'it\xe2\x80\x9d'
p3066
I106
sS'21:41:57.0,33.9269749,-118.2068579,5402.03,lo'
p3067
I106
sS'fitting'
p3068
I106
sS'niece'
p3069
I105
sS'sleeper'
p3070
I106
sS'paresido'
p3071
I106
sS'mario'
p3072
I106
sS'maria'
p3073
I105
sS'don'
p3074
I106
sS'doc'
p3075
I105
sS'medical'
p3076
I99
sS'inglaterra'
p3077
I105
sS'dog'
p3078
I105
sS'doe'
p3079
I106
sS'definitely'
p3080
I104
sS'dos'
p3081
I72
sS'/miley'
p3082
I106
sS'yessssssss'
p3083
I106
sS'retiro'
p3084
I103
sS'05:59:52.0,33.9269342,-118.2069097,5402.03,brasil2014'
p3085
I106
sS'hunger'
p3086
I106
sS'andr\xc3\xa9s'
p3087
I106
sS'you</3'
p3088
I106
sS'retira'
p3089
I105
sS'probz'
p3090
I106
sS'nevada'
p3091
I106
sS'\xc2\xa1cracks'
p3092
I106
sS'favoritos'
p3093
I103
sS'anunciar'
p3094
I106
sS'quieres'
p3095
I105
sS'wearing'
p3096
I106
sS'monica'
p3097
I106
sS'stop'
p3098
I96
sS'ahahaha'
p3099
I106
sS'next'
p3100
I95
sS'cracks'
p3101
I106
sS'watermelon'
p3102
I106
sS'ihysfm'
p3103
I106
sS'14'
p3104
I106
sS'pa\xc3\xads'
p3105
I105
sS'vemos'
p3106
I105
sS'bar'
p3107
I106
sS'f50'
p3108
I106
sS'disco'
p3109
I106
sS'bag'
p3110
I105
sS'bad'
p3111
I94
sS'bae'
p3112
I101
sS'brazy'
p3113
I105
sS'momentos'
p3114
I104
sS'cerca'
p3115
I103
sS'"ancelotti'
p3116
I106
sS'giroud'
p3117
I106
sS'poderosa...si'
p3118
I106
sS'brazil'
p3119
I104
sS'said'
p3120
I93
sS'sorta'
p3121
I106
sS'marcar'
p3122
I27
sS'oferta'
p3123
I102
sS"there's"
p3124
I106
sS'benzem\xc3\xa1'
p3125
I106
sS'manolo'
p3126
I106
sS'lazy'
p3127
I105
sS'omg'
p3128
I97
sS'omw'
p3129
I105
sS'estanlished'
p3130
I106
sS'cousin'
p3131
I105
sS'picking'
p3132
I106
sS'against'
p3133
I106
sS'una'
p3134
I75
sS'argelia'
p3135
I106
sS'une'
p3136
I106
sS'uno'
p3137
I95
sS'03:50:41.0,33.92415313,-118.2008552,5402.03,your'
p3138
I106
sS'durante'
p3139
I104
sS'contrato'
p3140
I106
sS'\xc2\xa310m'
p3141
I106
sS'yaaa'
p3142
I106
sS'puts'
p3143
I105
sS'grupos'
p3144
I105
sS'three'
p3145
I106
sS'sobresaldra'
p3146
I106
sS'lovely'
p3147
I106
sS'threw'
p3148
I106
sS'website'
p3149
I106
sS'chug'
p3150
I106
sS'pueden'
p3151
I106
sS'"sorry"'
p3152
I106
sS'olivares'
p3153
I106
sS'puedes'
p3154
I105
sS'difinitivamente'
p3155
I106
sS'165'
p3156
I106
sS'gracias'
p3157
I7
sS'seras'
p3158
I102
sS'ugly'
p3159
I103
sS'near'
p3160
I106
sS'suppose'
p3161
I106
sS'study'
p3162
I106
sS'jese'
p3163
I106
sS'is'
p3164
I29
sS'ir'
p3165
I106
sS'it'
p3166
I32
sS'jess'
p3167
I103
sS'cant'
p3168
I105
sS'im'
p3169
I86
sS'cans'
p3170
I106
sS'in'
p3171
I29
sS'mujer'
p3172
I105
sS'id'
p3173
I105
sS'disappear'
p3174
I106
sS'if'
p3175
I79
sS'bello'
p3176
I98
sS'bottles'
p3177
I106
sS'make'
p3178
I82
sS'bella'
p3179
I104
sS'potentially'
p3180
I106
sS'unfortunate'
p3181
I106
sS'diferencia'
p3182
I106
sS'lunes'
p3183
I101
sS'mexicana\xe2\x80\xa6'
p3184
I106
sS'ella'
p3185
I106
sS'kik'
p3186
I106
sS'kim'
p3187
I106
sS'jealous'
p3188
I106
sS'opportunity'
p3189
I106
sS'"trat\xc3\xb3'
p3190
I106
sS'thoughts'
p3191
I106
sS'hacer'
p3192
I104
sS'.....halamadrid'
p3193
I106
sS'presto'
p3194
I106
sS'exitos.,90262\n504867370557394946,axelmerida13,2014-08-28'
p3195
I106
sS'changes'
p3196
I106
sS'pel\xc3\xadcula'
p3197
I106
sS'roma'
p3198
I97
sS'volver'
p3199
I106
sS'smoked'
p3200
I106
sS'yours'
p3201
I104
sS'rakitic'
p3202
I106
sS'left'
p3203
I104
sS'halamadrid'
p3204
I38
sS'just'
p3205
I45
sS'yea'
p3206
I102
sS'3/4th'
p3207
I106
sS'assigned'
p3208
I106
sS'\xc2\xa1aguas'
p3209
I106
sS'human'
p3210
I106
sS'yes'
p3211
I96
sS'vende'
p3212
I106
sS'royal'
p3213
I106
sS'10:13:34.0,33.9269612,-118.2068663,5402.03,me'
p3214
I106
sS'save'
p3215
I105
sS'calific\xc3\xb3'
p3216
I106
sS'gustas'
p3217
I106
sS'tmrw'
p3218
I97
sS'bruuuh'
p3219
I106
sS'background'
p3220
I106
sS'chorro'
p3221
I106
sS'gustan'
p3222
I105
sS'shoulder'
p3223
I106
sS'frase'
p3224
I105
sS'-_-'
p3225
I102
sS'asistentes'
p3226
I106
sS'deal'
p3227
I106
sS'dead'
p3228
I106
sS'kbbq'
p3229
I106
sS'retwittearten'
p3230
I106
sS'dear'
p3231
I106
sS'up....to'
p3232
I106
sS'normal'
p3233
I102
sS'nipple'
p3234
I106
sS'burd'
p3235
I106
sS'\xe2\x80\x98chicharito\xe2\x80\x99'
p3236
I106
sS'burn'
p3237
I106
sS'copa.,90262\n508844737093054465,axelmerida13,2014-09-08'
p3238
I106
sS'super'
p3239
I93
sS'dif\xc3\xadcil'
p3240
I106
sS'1~4'
p3241
I106
sS'decidi\xc3\xb3'
p3242
I105
sS'ensamble'
p3243
I106
sS'21:26:14.0,33.9269618,-118.2068638,5402.03,como'
p3244
I106
sS'selfie'
p3245
I106
sS'sergio'
p3246
I106
sS'down'
p3247
I86
sS'truelife'
p3248
I106
sS'cardiff'
p3249
I94
sS'\xc2\xbfte'
p3250
I106
sS'sabado'
p3251
I102
sS'initial'
p3252
I106
sS'abrazo'
p3253
I105
sS'enloquecio'
p3254
I106
sS'bolivia'
p3255
I105
sS'encanta'
p3256
I106
sS'ortizjanet10'
p3257
I106
sS'ford'
p3258
I106
sS'bloackage'
p3259
I106
sS'martes'
p3260
I97
sS'saludos.,90262\n494852445722267648,axelmerida13,2014-07-31'
p3261
I106
sS'sapphire'
p3262
I106
sS'daddy'
p3263
I106
sS'28:06:42:12'
p3264
I106
sS'classic'
p3265
I106
sS'recupere'
p3266
I106
sS'drive'
p3267
I104
sS',90262\n481199307907817474,vaniitybree_,2014-06-23'
p3268
I106
sS'apartado'
p3269
I106
sS'shit'
p3270
I65
sS'tarde'
p3271
I104
sS'vista'
p3272
I104
sS'loficial'
p3273
I106
sS'aseguran'
p3274
I106
sS'mosqueteros'
p3275
I106
sS'(eng)'
p3276
I106
sS'why'
p3277
I73
sS'felt'
p3278
I104
sS'fell'
p3279
I105
sS'weekend'
p3280
I101
sS'jones'
p3281
I106
sS'eliaquim'
p3282
I106
sS'dicho'
p3283
I104
sS'21:40:44.0,33.92415958,-118.2008938,5402.03,chicharito'
p3284
I106
sS'managed'
p3285
I106
sS'skip'
p3286
I106
sS'tienda'
p3287
I106
sS'cobra'
p3288
I106
sS'menor'
p3289
I105
sS'menos'
p3290
I105
sS'primer'
p3291
I100
sS'\xe2\x80\x9ccarnival\xe2\x80\x9d'
p3292
I106
sS'imperdible'
p3293
I106
sS'impuso'
p3294
I106
sS'intrrsado'
p3295
I106
sS'lol,90262\n481199697344737280,vaniitybree_,2014-06-23'
p3296
I106
sS'diva-diosa'
p3297
I106
sS'0'
p3298
I98
sS'finally'
p3299
I97
sS'noticia'
p3300
I103
sS':real'
p3301
I106
sS'smartphone'
p3302
I106
sS'jug\xc3\xb3'
p3303
I106
sS'tacos'
p3304
I103
sS"amo's"
p3305
I106
sS'previa'
p3306
I106
sS'did'
p3307
I96
sS'die'
p3308
I104
sS'dig'
p3309
I106
sS'dia'
p3310
I37
sS'somos'
p3311
I105
sS'ganarle'
p3312
I106
sS'dis'
p3313
I106
sS'talked'
p3314
I105
sS'dealing'
p3315
I106
sS'comienza'
p3316
I106
sS'comienzo'
p3317
I106
sS'run'
p3318
I102
sS':ancelotti'
p3319
I106
sS'addy'
p3320
I106
sS'international'
p3321
I94
sS'pachuca'
p3322
I105
sS'13:50:07.0,33.9269322,-118.2068857,5402.03,recordando'
p3323
I106
sS'agosto'
p3324
I96
sS'brasil2014'
p3325
I106
sS'henry'
p3326
I105
sS'french'
p3327
I106
sS'05:42:46.0,33.926962,-118.2068049,5402.03,los'
p3328
I106
sS'entrenamientos'
p3329
I105
sS'wait'
p3330
I96
sS'box'
p3331
I104
sS'boy'
p3332
I102
sS'yessss'
p3333
I106
sS'shift'
p3334
I104
sS'pasquale'
p3335
I106
sS'boo'
p3336
I104
sS'ultimos'
p3337
I106
sS'chapines'
p3338
I106
sS'nueba'
p3339
I106
sS'everybody'
p3340
I105
sS'siempre'
p3341
I85
sS',90262\n466444009070936065,babyloop_,2014-05-14'
p3342
I106
sS'14:54:48.0,33.9269676,-118.2068684,5402.03,\xc3\x9altimahora'
p3343
I106
sS'pero'
p3344
I83
sS'ayy'
p3345
I106
sS'paisaje'
p3346
I105
sS'thru'
p3347
I106
sS'10-04'
p3348
I106
sS'downtown'
p3349
I106
sS'dude...yogurt'
p3350
I106
sS'\xc2\xa1adqui\xc3\xa9relo'
p3351
I106
sS'fly'
p3352
I105
sS'centroamercana'
p3353
I106
sS'negociaciones'
p3354
I106
sS'recuerden'
p3355
I106
sS'soup'
p3356
I104
sS'vistiera'
p3357
I106
sS'making'
p3358
I101
sS"denny's"
p3359
I106
sS'crazy'
p3360
I105
sS'cantidad'
p3361
I106
sS'uruguay'
p3362
I105
sS'fuck'
p3363
I73
sS'ramsey)'
p3364
I106
sS'presentacion'
p3365
I106
sS'pink'
p3366
I106
sS'till'
p3367
I104
sS'pura'
p3368
I103
sS'rayo'
p3369
I105
sS'mas'
p3370
I91
sS'may'
p3371
I104
sS'mac'
p3372
I106
sS'mad'
p3373
I104
sS'rivales'
p3374
I106
sS'mah'
p3375
I106
sS'guys'
p3376
I95
sS'mal'
p3377
I106
sS'man'
p3378
I94
sS'neck'
p3379
I104
sS'preciosos......hermoso'
p3380
I106
sS'maybe'
p3381
I102
sS'q'
p3382
I104
sS'switch'
p3383
I106
sS'talk'
p3384
I103
sS'cute'
p3385
I97
sS'shield'
p3386
I106
sS'seeing'
p3387
I105
sS'bernabeu'
p3388
I106
sS'recoup'
p3389
I106
sS'shake'
p3390
I106
sS'peterson'
p3391
I106
sS'group'
p3392
I106
sS'thank'
p3393
I104
sS'mais'
p3394
I106
sS'thang'
p3395
I102
sS'hat-trick'
p3396
I106
sS'thanx'
p3397
I106
sS'tweets'
p3398
I104
sS'ours'
p3399
I106
sS'main'
p3400
I105
sS'sarcastic'
p3401
I106
sS'16:27:30.0,33.9269179,-118.2068457,5402.03,medio'
p3402
I106
sS'15:37:16.0,33.9269276,-118.2068948,5402.03,lo'
p3403
I106
sS'lunch'
p3404
I106
sS'fuerte'
p3405
I106
sS's\xc3\xbaper'
p3406
I105
sS'killed'
p3407
I106
sS'04:23:14.0,33.926917,-118.2069,5402.03,como'
p3408
I106
sS'fudge'
p3409
I106
sS'bocanegra'
p3410
I106
sS'guardado'
p3411
I106
sS"party's"
p3412
I106
sS'amistoso'
p3413
I100
sS'girl'
p3414
I101
sS'relive'
p3415
I106
sS"06:08:45.0,33.9301938,-118.2108732,5402.03,know'm"
p3416
I106
sS'living'
p3417
I104
sS'jackson'
p3418
I104
sS'3rd'
p3419
I106
sS'ttp://t.co/f9kaqhodae'
p3420
I106
sS'poco'
p3421
I105
sS'dutch'
p3422
I106
sS'nudes'
p3423
I106
sS'defienda'
p3424
I106
sS'cr7jr'
p3425
I106
sS'defensas'
p3426
I106
sS'oro'
p3427
I101
sS'california'
p3428
I95
sS'keita'
p3429
I106
sS'amigos'
p3430
I103
sS'underwear'
p3431
I106
sS'standby'
p3432
I106
sS'venido'
p3433
I106
sS'tigre'
p3434
I105
sS'thing'
p3435
I100
sS'21:57:15.0,33.9297451,-118.2024836,5402.03,i'
p3436
I106
sS'yess'
p3437
I105
sS'think'
p3438
I84
sS'first'
p3439
I97
sS'cheese'
p3440
I105
sS'americana'
p3441
I105
sS'bendiciones'
p3442
I100
sS'estadounidense'
p3443
I106
sS'long'
p3444
I97
sS'21:38:29.0,33.92420671,-118.20079527,5402.03,this'
p3445
I106
sS"is....it's"
p3446
I106
sS'carry'
p3447
I106
sS'sounds'
p3448
I104
sS'crip'
p3449
I106
sS'little'
p3450
I99
sS'tomando'
p3451
I106
sS'slept'
p3452
I101
sS'negocia'
p3453
I106
sS'anyone'
p3454
I102
sS'eyes'
p3455
I105
sS'memo'
p3456
I104
sS'butt'
p3457
I104
sS'esper\xc3\xb3'
p3458
I106
sS"here's"
p3459
I106
sS'11'
p3460
I104
sS'10'
p3461
I101
sS'13'
p3462
I105
sS'12'
p3463
I104
sS'15'
p3464
I101
sS'atleti'
p3465
I106
sS'17'
p3466
I106
sS'16'
p3467
I106
sS'19'
p3468
I106
sS'18'
p3469
I106
sS'gotta'
p3470
I102
sS'aaaaalll'
p3471
I106
sS'were'
p3472
I99
sS'07:36:01.0,33.9269687,-118.2068846,5402.03,xabi'
p3473
I106
sS'marijuana'
p3474
I106
sS'himself'
p3475
I106
sS'adele'
p3476
I106
sS'qued\xc3\xb3'
p3477
I106
sS'prestos'
p3478
I106
sS'squad'
p3479
I105
sS'21:34:05.0,33.92417702,-118.20088526,5402.03,theres'
p3480
I106
sS'wooomp'
p3481
I106
sS'channel'
p3482
I105
sS'pain'
p3483
I105
sS'verona'
p3484
I104
sS'track'
p3485
I106
sS'paid'
p3486
I106
sS'rehearsal'
p3487
I106
sS'pair'
p3488
I106
sS'pais'
p3489
I103
sS'beth'
p3490
I106
sS'.lo'
p3491
I106
sS'cuban'
p3492
I106
sS'temporadas'
p3493
I105
sS'especially'
p3494
I106
sS'huehuetenango'
p3495
I106
sS'shop'
p3496
I106
sS'shot'
p3497
I105
sS'bullis'
p3498
I105
sS'show'
p3499
I96
sS"mama's"
p3500
I106
sS'leaguecopa'
p3501
I106
sS'estoy'
p3502
I103
sS'ca'
p3503
I106
sS'estos'
p3504
I92
sS'paaaaaaaaaid'
p3505
I106
sS'dice'
p3506
I102
sS'dick'
p3507
I105
sS'retwittearpor'
p3508
I106
sS'black'
p3509
I105
sS'end.,90262\n411375435214106624,loveseductive,2013-12-13'
p3510
I106
sS't\xc3\xadtulos:cr7'
p3511
I106
sS'get'
p3512
I50
sS'a\xc3\xban'
p3513
I106
sS'jugadorasos'
p3514
I106
sS'morning'
p3515
I93
sS'stupid'
p3516
I101
sS'podolski'
p3517
I106
sS'worrying'
p3518
I106
sS'punta'
p3519
I105
sS'hickies'
p3520
I106
sS',90262\n481188065130475522,vaniitybree_,2014-06-23'
p3521
I106
sS'wonder'
p3522
I104
sS'sudamericana'
p3523
I105
sS'lloran'
p3524
I106
sS'enough'
p3525
I104
sS'gaga'
p3526
I105
sS'llorar'
p3527
I106
sS'imita'
p3528
I106
sS'podr\xc3\xadan'
p3529
I106
sS'tus'
p3530
I101
sS'genkivape'
p3531
I106
sS'jr'
p3532
I106
sS'timmy'
p3533
I105
sS'muchachas'
p3534
I106
sS'bienvenidochicharito'
p3535
I106
sS'jk'
p3536
I103
sS'nationality'
p3537
I106
sS'killing'
p3538
I103
sS'lopez'
p3539
I104
sS'chelsea'
p3540
I105
sS'cumplir'
p3541
I105
sS'tour'
p3542
I106
sS'preguntaron'
p3543
I106
sS'considering'
p3544
I106
sS'tercer'
p3545
I106
sS'malacateco'
p3546
I106
sS'ucla'
p3547
I100
sS'naruto'
p3548
I106
sS'qu\xc3\xa9'
p3549
I106
sS'shopping'
p3550
I106
sS'partido'
p3551
I95
sS'offered'
p3552
I106
sS'gander'
p3553
I100
sS'>_<'
p3554
I103
sS'dramatic'
p3555
I106
sS'jueves'
p3556
I100
sS'14:30:42.0,33.9301076,-118.2032139,5402.03,buying'
p3557
I106
sS'3:16'
p3558
I106
sS'those'
p3559
I98
sS'sound'
p3560
I105
sS'\xee\x84\xa0\xee\x8c\xbb'
p3561
I106
sS'beach...jammin'
p3562
I106
sS'ratchet'
p3563
I106
sS'rubbing'
p3564
I106
sS'coffee'
p3565
I104
sS'sleeping'
p3566
I98
sS'middle'
p3567
I105
sS'pronuncia'
p3568
I106
sS'everyday'
p3569
I105
sS'pirlo'
p3570
I98
sS'bags'
p3571
I106
sS'different'
p3572
I106
sS'doctor'
p3573
I106
sS'pay'
p3574
I105
sS'atitl\xc3\xa1n'
p3575
I106
sS'pepe'
p3576
I97
sS'eltigre'
p3577
I106
sS'same'
p3578
I99
sS'hecho'
p3579
I103
sS'stepped'
p3580
I106
sS'pan'
p3581
I106
sS'running'
p3582
I106
sS'totally'
p3583
I105
sS'igualmente'
p3584
I106
sS'cannavaro'
p3585
I105
sS'aserquen'
p3586
I106
sS'gladiadores'
p3587
I106
sS'completos'
p3588
I106
sS'\xc2\xbfqui\xc3\xa9n'
p3589
I106
sS'bottle'
p3590
I104
sS'"friends"'
p3591
I106
sS'money'
p3592
I101
sS'lok,90262\n411374374340407296,loveseductive,2013-12-13'
p3593
I106
sS'suchitep\xc3\xa9quez'
p3594
I106
sS"madrid's"
p3595
I106
sS'actividades'
p3596
I106
sS'4'
p3597
I94
sS'recordar'
p3598
I105
sS'\xd9\x87\xd9\x87\xd9\x87\xd9\x87\xd9\x87\xd9\x87\xd9\x87\xd9\x87\xd9\x87\xd9\x87\xd9\x87\xd9\x87\xd9\x87\xd9\x87\xd9\x87\xd9\x87\xd9\x87\xd9\x87'
p3599
I106
sS'mom'
p3600
I95
sS'nooooo'
p3601
I106
sS'disappointed'
p3602
I106
sS'pornhub'
p3603
I106
sS'twin'
p3604
I106
sS'facing'
p3605
I106
sS'either'
p3606
I106
sS'11:04:22.0,33.9269573,-118.2068642,5402.03,ser'
p3607
I106
sS'ventas'
p3608
I106
sS'imagen'
p3609
I103
sS'splash'
p3610
I106
sS'naah'
p3611
I106
sS'l'
p3612
I106
sS'susto'
p3613
I106
sS'paisanos'
p3614
I105
sS'matching'
p3615
I106
sS'futbolsaludos'
p3616
I106
sS'gross'
p3617
I106
sS'lotto'
p3618
I106
sS':nuestra'
p3619
I106
sS'seconds'
p3620
I106
sS'excusas'
p3621
I106
sS'despicable'
p3622
I106
sS'confederacionesbal\xc3\xb3n'
p3623
I106
sS'wudduuuuup'
p3624
I106
sS'"its'
p3625
I106
sS'11:17:49.0,33.9269658,-118.206915,5402.03,hoy'
p3626
I106
sS'blessed'
p3627
I105
sS'inbox'
p3628
I106
sS'dreaming'
p3629
I106
sS'preparandose'
p3630
I106
sS'sue\xc3\xb1os'
p3631
I105
sS'\xe2\x80\x9cel'
p3632
I106
sS'pretende'
p3633
I106
sS'4:30'
p3634
I106
sS'costarrisense'
p3635
I106
sS'pasando'
p3636
I106
sS'haciendo'
p3637
I104
sS':o<3'
p3638
I106
sS'sophisticated'
p3639
I106
sS'st.francis'
p3640
I106
sS'horarios'
p3641
I105
sS'supposably'
p3642
I106
sS'gsxlac'
p3643
I106
sS'doown'
p3644
I106
sS"wasn't"
p3645
I103
sS'ronaldo'
p3646
I66
sS'portadas'
p3647
I103
sS'wuts'
p3648
I106
sS'[mundo'
p3649
I106
sS'planeta'
p3650
I106
sS'saludos.,90262\n494075957037125632,axelmerida13,2014-07-29'
p3651
I106
sS'entiendo'
p3652
I106
sS'generar'
p3653
I106
sS'girlfriend'
p3654
I105
sS'lifetime'
p3655
I106
sS'prestado'
p3656
I106
sS'fill'
p3657
I106
sS'again'
p3658
I97
sS'drivers'
p3659
I106
sS'madrid"'
p3660
I103
sS'bought,90262\n413747186523181056,loveseductive,2013-12-19'
p3661
I106
sS'saldra'
p3662
I106
sS'felicitaci\xc3\xb3n'
p3663
I106
sS'titularidad'
p3664
I106
sS'conquistar'
p3665
I106
sS'students'
p3666
I106
sS"madrid'"
p3667
I106
sS'chris'
p3668
I103
sS'waka'
p3669
I106
sS'tonight\xe2\x80\x99s'
p3670
I106
sS'u'
p3671
I91
sS'alright'
p3672
I104
sS'wake'
p3673
I105
sS'starting'
p3674
I104
sS'entren\xc3\xb3'
p3675
I106
sS'forget'
p3676
I105
sS'describir'
p3677
I106
sS'talks'
p3678
I105
sS'reconocerlo.drogba'
p3679
I106
sS'imma'
p3680
I106
sS'viajar'
p3681
I105
sS'alberts'
p3682
I106
sS'alberto'
p3683
I106
sS'ubiese'
p3684
I106
sS'prework'
p3685
I106
sS'instigating'
p3686
I106
sS'mandela'
p3687
I105
sS'promesas'
p3688
I106
sS'sitting'
p3689
I106
sS'usa:casillas'
p3690
I106
sS'diste'
p3691
I106
sS'alma'
p3692
I106
sS'gf'
p3693
I102
sS'puebla'
p3694
I106
sS'donovan'
p3695
I105
sS'hyu'
p3696
I106
sS'supercopa'
p3697
I102
sS'meses'
p3698
I106
sS'alistandose'
p3699
I106
sS"'goleador'"
p3700
I106
sS'burger'
p3701
I106
sS'red\xe2\x80\x9d'
p3702
I106
sS'halamadrid.,90262\n495069822468628480,axelmerida13,2014-08-01'
p3703
I106
sS'jadens'
p3704
I106
sS'dias'
p3705
I106
sS'tattoos'
p3706
I106
sS'yaaaaay'
p3707
I106
sS"c'mon"
p3708
I106
sS'asistencias*6'
p3709
I106
sS'forlan'
p3710
I106
sS'har\xc3\xa1'
p3711
I105
sS'conte'
p3712
I106
sS'speeches'
p3713
I106
sS'medico'
p3714
I106
sS'stretching'
p3715
I106
sS'13:06:03.0,33.926965,-118.2069109,5402.03,ancelotti'
p3716
I106
sS'stella'
p3717
I106
sS',90262\n489672895623213057,vaniitybree_,2014-07-17'
p3718
I106
sS'arsenal.adri\xc3\xa1n'
p3719
I106
sS'spoil'
p3720
I106
sS'minutos'
p3721
I106
sS'buses'
p3722
I106
sS'atajada'
p3723
I106
sS'rican'
p3724
I106
sS'7-eleven)'
p3725
I98
sS'merecido'
p3726
I106
sS'eye'
p3727
I106
sS'05:51:08.0,33.9269208,-118.2068643,5402.03,atl\xc3\x83\xc2\xa9tico'
p3728
I106
sS'brasile\xc3\xb1o'
p3729
I106
sS'\xe2\x80\x9cgracias'
p3730
I106
sS'two'
p3731
I104
sS'payment...how'
p3732
I106
sS'torre'
p3733
I106
sS'gaal'
p3734
I106
sS'divertido.-ronaldinho'
p3735
I106
sS'llore'
p3736
I106
sS'canon'
p3737
I106
sS'landed'
p3738
I106
sS"ain't"
p3739
I96
sS'seguidores'
p3740
I105
sS'regreso'
p3741
I106
sS'that\xe2\x80\xa6'
p3742
I106
sS'hour'
p3743
I102
sS'dep'
p3744
I106
sS'des'
p3745
I106
sS'sucks'
p3746
I101
sS'del'
p3747
I15
sS'llevaron'
p3748
I106
sS'def'
p3749
I104
sS'stubborn'
p3750
I106
sS'share'
p3751
I106
sS'minimum'
p3752
I106
sS'ecuatorianos'
p3753
I106
sS'sharp'
p3754
I106
sS'ughhhh'
p3755
I105
sS'needs'
p3756
I102
sS'espa\xc3\xb1ola'
p3757
I105
sS'awkward'
p3758
I104
sS'needy'
p3759
I105
sS'needa'
p3760
I105
sS'galactico.....halamadrid'
p3761
I106
sS'"no'
p3762
I106
sS'pleno'
p3763
I105
sS'22:45:01.0,33.9259508,-118.207277,5402.03,i'
p3764
I106
sS'viene'
p3765
I105
sS'05:06:52.0,33.9269143,-118.206949,5402.03,son'
p3766
I106
sS'dia.,90262\n495063268201750528,axelmerida13,2014-08-01'
p3767
I106
sS'coming'
p3768
I101
sS'tweeting'
p3769
I106
sS'levantado'
p3770
I106
sS'triunfar\xc3\xa1'
p3771
I106
sS'playing'
p3772
I100
sS"that's"
p3773
I84
sS'paisana'
p3774
I105
sS'"one"'
p3775
I106
sS'paisano'
p3776
I103
sS'industrial'
p3777
I106
sS'through'
p3778
I106
sS'suffer'
p3779
I106
sS'24'
p3780
I105
sS'messed'
p3781
I106
sS'26'
p3782
I105
sS'27'
p3783
I106
sS'20'
p3784
I104
sS'21'
p3785
I101
sS'22'
p3786
I104
sS'balon'
p3787
I104
sS'28'
p3788
I105
sS'late'
p3789
I102
sS'soy"'
p3790
I106
sS'hurting'
p3791
I106
sS'someone'
p3792
I95
sS'uhh'
p3793
I106
sS'basilea'
p3794
I106
sS'porto'
p3795
I104
sS'pregnant'
p3796
I105
sS'philosophical'
p3797
I106
sS'habits'
p3798
I105
sS"6'2"
p3799
I106
sS'everyone'
p3800
I102
sS'(fotos)'
p3801
I106
sS'house'
p3802
I104
sS'fish'
p3803
I102
sS'hard'
p3804
I93
sS'idea'
p3805
I102
sS'video.,90262\n494858153323163648,axelmerida13,2014-07-31'
p3806
I106
sS'delanteros'
p3807
I106
sS'portland'
p3808
I106
sS'harp'
p3809
I106
sS'childish'
p3810
I106
sS'acting'
p3811
I106
sS'06:09:12.0,33.9301938,-118.2108732,5402.03,fuck'
p3812
I106
sS'sprinkle,90262\n482392536791515137,_zvek,2014-06-27'
p3813
I106
sS'perra'
p3814
I106
sS'far\xc3\xa1ndula'
p3815
I106
sS'cumplir\xc3\xada'
p3816
I106
sS'casillas'
p3817
I84
sS'bulls'
p3818
I106
sS'cobrara'
p3819
I106
sS'whrn'
p3820
I106
sS'bendiga'
p3821
I106
sS'venezolano'
p3822
I106
sS'mpsg'
p3823
I106
sS'varane'
p3824
I99
sS'same...-_-'
p3825
I106
sS'dont'
p3826
I104
sS'jr10'
p3827
I105
sS'cada'
p3828
I103
sS'done'
p3829
I102
sS'respetos'
p3830
I106
sS'brostep'
p3831
I106
sS'least'
p3832
I105
sS'180'
p3833
I106
sS'razon'
p3834
I104
sS'para'
p3835
I55
sS'park'
p3836
I98
sS'05:17:48.0,33.9269256,-118.2068249,5402.03,los'
p3837
I106
sS'dentist'
p3838
I105
sS'part'
p3839
I105
sS'samesies'
p3840
I106
sS'doctors'
p3841
I106
sS'believe'
p3842
I102
sS'emiliano'
p3843
I106
sS'869'
p3844
I105
sS'tiiiiiiiiiiiimee'
p3845
I106
sS'gotten'
p3846
I105
sS'recording'
p3847
I106
sS'you\xe2\x80\xa6'
p3848
I106
sS'2020'
p3849
I106
sS'supposed'
p3850
I105
sS'swerve'
p3851
I106
sS'outta'
p3852
I106
sS'confirmo'
p3853
I106
sS'confirma'
p3854
I102
sS'igual\xc3\xb3'
p3855
I106
sS'showers'
p3856
I105
sS'backseat'
p3857
I106
sS'iight'
p3858
I106
sS'blanco'
p3859
I101
sS'blanca'
p3860
I104
sS'k)'
p3861
I106
sS'happily'
p3862
I106
sS'k1'
p3863
I106
sS'redes'
p3864
I106
sS'desapareciste'
p3865
I106
sS'most'
p3866
I100
sS'sudafricano'
p3867
I106
sS'independencia'
p3868
I106
sS'southampton'
p3869
I106
sS'animales'
p3870
I106
sS'vida.hala'
p3871
I106
sS'futbol'
p3872
I11
sS'\xd9\x88\xd9\x82\xd9\x81\xd8\xaa'
p3873
I106
sS'joining'
p3874
I106
sS'thomas'
p3875
I106
sS'particular.\xc2\xa1rt'
p3876
I106
sS'carne'
p3877
I106
sS'femenina'
p3878
I106
sS'sientan'
p3879
I106
sS'fine'
p3880
I104
sS'find'
p3881
I105
sS'femenino'
p3882
I106
sS'"voy'
p3883
I106
sS'giant'
p3884
I106
sS'oficialel'
p3885
I106
sS'dependen'
p3886
I106
sS'estare'
p3887
I106
sS'estara'
p3888
I106
sS'estadounidensecarlos'
p3889
I106
sS'california)'
p3890
I106
sS'8'
p3891
I103
sS'toronto'
p3892
I106
sS'beyonc\xc3\xa9'
p3893
I105
sS'permission'
p3894
I106
sS'luka'
p3895
I106
sS'estrella'
p3896
I106
sS'20m\xe2\x82\xac'
p3897
I106
sS'suarez'
p3898
I106
sS'eeuu'
p3899
I105
sS'garcia'
p3900
I106
sS'common'
p3901
I106
sS'thanksbabes:*'
p3902
I106
sS'urgullosos'
p3903
I106
sS'orgullo.pura'
p3904
I106
sS"joseph's"
p3905
I106
sS'leslie'
p3906
I106
sS'visiting'
p3907
I105
sS'amoooooo,90262\n515755600597094402,vikyfdez15,2014-09-27'
p3908
I106
sS'please'
p3909
I105
sS'errores'
p3910
I106
sS'fans'
p3911
I103
sS'confianza'
p3912
I105
sS',90262\n510926623365804032,logancrocker2,2014-09-13'
p3913
I106
sS'obtuviste'
p3914
I106
sS'\xc2\xa1el'
p3915
I105
sS'anyone<3'
p3916
I106
sS'halamadrid.,90262\n494063174417514496,axelmerida13,2014-07-29'
p3917
I106
sS'restaurant'
p3918
I106
sS'focused'
p3919
I106
sS'faggots'
p3920
I105
sS'point'
p3921
I105
sS'apuesta'
p3922
I106
sS'andar'
p3923
I106
sS'simply'
p3924
I105
sS'expensive'
p3925
I106
sS"(/'0'\\)dun"
p3926
I106
sS'mikes'
p3927
I104
sS'create'
p3928
I106
sS'14:52:32.0,33.9269503,-118.2069056,5402.03,keylor'
p3929
I106
sS'reto'
p3930
I106
sS'sali\xc3\xb3'
p3931
I106
sS'secret'
p3932
I106
sS'gay'
p3933
I106
sS'edclv'
p3934
I105
sS'headache"'
p3935
I106
sS'seguire'
p3936
I100
sS'fue'
p3937
I90
sS'replaced'
p3938
I106
sS'fun'
p3939
I103
sS'lingo'
p3940
I106
sS'fui'
p3941
I104
sS'either...what'
p3942
I106
sS'cents'
p3943
I106
sS'itself'
p3944
I106
sS'13:31:15.0,33.9269507,-118.2068247,5402.03,exclusiva'
p3945
I106
sS'regueso'
p3946
I106
sS'puig'
p3947
I106
sS'strips'
p3948
I105
sS'autobiograf\xc3\xada'
p3949
I106
sS'yesterday'
p3950
I104
sS'moment'
p3951
I103
sS'purpose'
p3952
I106
sS'bomb,90262\n501862472153042946,gabbagabbie132,2014-08-19'
p3953
I106
sS'13:48:09.0,33.9269451,-118.2068487,5402.03,empate'
p3954
I106
sS'adentro'
p3955
I106
sS'entra'
p3956
I103
sS'entre'
p3957
I103
sS'spent'
p3958
I105
sS'entro'
p3959
I106
sS'olvides'
p3960
I106
sS'$4.00'
p3961
I103
sS'juventus'
p3962
I103
sS'comportamiento'
p3963
I106
sS'y'
p3964
I9
sS'spend'
p3965
I105
sS'cu\xc3\xa1l'
p3966
I106
sS'boutta'
p3967
I106
sS'hierro'
p3968
I106
sS'nuestra'
p3969
I105
sS'confunde'
p3970
I106
sS'nuestro'
p3971
I103
sS'wage'
p3972
I106
sS'cut'
p3973
I104
sS'cup'
p3974
I95
sS'hated'
p3975
I106
sS'05:35:13.0,33.9269253,-118.2068087,5402.03,ronaldinho'
p3976
I106
sS'cuz'
p3977
I102
sS'save\xe2\x80\xa6'
p3978
I106
sS'snap'
p3979
I106
sS'rotura'
p3980
I106
sS'cum'
p3981
I105
sS'convocado'
p3982
I106
sS'excited'
p3983
I106
sS'cuh'
p3984
I106
sS'big'
p3985
I99
sS'someshit'
p3986
I106
sS'edici\xc3\xb3n'
p3987
I106
sS'biz'
p3988
I106
sS'06:09:28.0,33.9269385,-118.2068569,5402.03,kroos'
p3989
I106
sS'incendio'
p3990
I106
sS'bit'
p3991
I105
sS'knock'
p3992
I106
sS'follows'
p3993
I106
sS'mas.....el'
p3994
I106
sS'miroslave'
p3995
I106
sS'coge'
p3996
I106
sS'loaded...maybe'
p3997
I106
sS'entretenido'
p3998
I106
sS'absolutely'
p3999
I106
sS'back'
p4000
I69
sS'30m'
p4001
I106
sS'mirror'
p4002
I106
sS'candle'
p4003
I106
sS'scale'
p4004
I106
sS'alianza'
p4005
I105
sS'pet'
p4006
I106
sS'pel'
p4007
I106
sS'pen'
p4008
I106
sS'hahaha"'
p4009
I106
sS'lard'
p4010
I106
sS'pele'
p4011
I106
sS'inicia'
p4012
I103
sS'inicie'
p4013
I106
sS'regresar\xc3\xa1'
p4014
I106
sS'remembered'
p4015
I106
sS'yeesss'
p4016
I106
sS'chanting'
p4017
I106
sS'&'
p4018
I58
sS'porter\xc3\xada'
p4019
I106
sS'b\xc3\xa9isbol'
p4020
I106
sS'drama'
p4021
I105
sS'bish'
p4022
I106
sS'hahahah'
p4023
I106
sS'hinchas'
p4024
I106
sS'al'
p4025
I49
sS'asistieron'
p4026
I106
sS'\xc3\x81ngel'
p4027
I103
sS'steven'
p4028
I106
sS'"el'
p4029
I103
sS't\xc3\xad'
p4030
I106
sS'infected'
p4031
I106
sS'bored'
p4032
I103
sS'morata'
p4033
I104
sS'poder'
p4034
I106
sS'invite'
p4035
I106
sS'vivan'
p4036
I98
sS',90262\n373733654612041728,ceelow0294,2013-08-31'
p4037
I106
sS'boys'
p4038
I101
sS'yesssss'
p4039
I105
sS'seria'
p4040
I106
sS'serfbort'
p4041
I106
sS'groinmy'
p4042
I106
sS'homenaje'
p4043
I104
sS'halamadrid.,90262\n494382209906642946,axelmerida13,2014-07-30'
p4044
I106
sS"'j10'"
p4045
I106
sS'dia.,90262\n495918519532269568,axelmerida13,2014-08-03'
p4046
I106
sS'07:37:05.0,33.926965,-118.2068567,5402.03,iker'
p4047
I106
sS"momma's"
p4048
I106
sS'freeway'
p4049
I106
sS'partidos:manchester'
p4050
I106
sS'papi'
p4051
I104
sS'papa'
p4052
I105
sS'prepared'
p4053
I106
sS'lent'
p4054
I106
sS'2002'
p4055
I106
sS'hospitals,90262\n501204550234415104,gabbagabbie132,2014-08-18'
p4056
I106
sS'2001'
p4057
I106
sS'2006'
p4058
I106
sS'semajae'
p4059
I106
sS'golaso'
p4060
I106
sS',90262\n495791219533172737,allasynb,2014-08-03'
p4061
I106
sS'bruhh'
p4062
I106
sS'11:30'
p4063
I105
sS'exitos.,90262\n495942706409910272,axelmerida13,2014-08-03'
p4064
I106
sS'ense\xc3\xb1a'
p4065
I106
sS'cansar\xc3\xa9'
p4066
I106
sS'putting'
p4067
I105
sS'anotha'
p4068
I106
sS'd\xc3\x8da'
p4069
I105
sS'100%"'
p4070
I106
sS'thiago'
p4071
I106
sS'40oz'
p4072
I106
sS'uncomfortably'
p4073
I106
sS'est\xc3\xa1'
p4074
I97
sS'carlo'
p4075
I105
sS'chicago'
p4076
I106
sS'giving'
p4077
I104
sS'body'
p4078
I106
sS'acci\xc3\xb3n'
p4079
I105
sS'me...i'
p4080
I106
sS'luiz'
p4081
I105
sS'sino'
p4082
I106
sS'extremo'
p4083
I106
sS'others'
p4084
I106
sS'luis'
p4085
I105
sS'irritating'
p4086
I106
sS'acompa\xc3\xb1ar'
p4087
I106
sS'cero'
p4088
I106
sS'31'
p4089
I106
sS'30'
p4090
I106
sS'34'
p4091
I106
sS'lujan'
p4092
I106
sS'situations'
p4093
I106
sS'slaving'
p4094
I106
sS'honor'
p4095
I105
sS'nanjing'
p4096
I106
sS'twutts'
p4097
I106
sS'egress'
p4098
I106
sS'fracaso'
p4099
I106
sS'festivals'
p4100
I106
sS'lenguaje'
p4101
I106
sS'presidente'
p4102
I105
sS'skyy'
p4103
I106
sS'themselves'
p4104
I105
sS'halamadrid.,90262\n495946279638151168,axelmerida13,2014-08-03'
p4105
I106
sS'halamadrid.,90262\n494058533428547585,axelmerida13,2014-07-29'
p4106
I106
sS'abrazo.s\xc3\xa9'
p4107
I106
sS'drogba....un'
p4108
I106
sS'4am'
p4109
I106
sS'account'
p4110
I106
sS'f):0?5/'
p4111
I106
sS'didnt'
p4112
I106
sS',90262\n481283241005969408,vaniitybree_,2014-06-24'
p4113
I106
sS'a-rsx'
p4114
I106
sS'regresado'
p4115
I106
sS'alegr\xc3\xada'
p4116
I106
sS're\xc3\xbcs'
p4117
I106
sS'tour2014'
p4118
I105
sS'agradec\xc3\xad'
p4119
I106
sS'mill\xc3\xb3n'
p4120
I106
sS'pr\xc3\xb3ximos'
p4121
I105
sS'act'
p4122
I105
sS'lmfaoo'
p4123
I106
sS'frat'
p4124
I106
sS'cup:arsenal'
p4125
I106
sS'lines'
p4126
I105
sS'amazon'
p4127
I106
sS'gigabyte'
p4128
I106
sS'9am'
p4129
I106
sS'primera'
p4130
I103
sS'chevrolet'
p4131
I106
sS'05:07:19.0,33.9269714,-118.2068626,5402.03,real'
p4132
I106
sS'00:06:50.0,33.9270154,-118.2074606,5402.03,broccoli-cheddar'
p4133
I106
sS'imagenes'
p4134
I106
sS'amable'
p4135
I90
sS'galaxi'
p4136
I103
sS'report'
p4137
I106
sS'sleeve.\xe2\x80\x9dgonna'
p4138
I106
sS'galaxy'
p4139
I103
sS'le'
p4140
I82
sS'la'
p4141
I19
sS'lo'
p4142
I57
sS'now...next'
p4143
I106
sS'dad'
p4144
I102
sS'dan'
p4145
I106
sS'diasaludos.,90262\n505033089731395584,axelmerida13,2014-08-28'
p4146
I106
sS'rechazar\xc3\xa9'
p4147
I106
sS'dar'
p4148
I104
sS'das'
p4149
I106
sS'day'
p4150
I76
sS'recuerdo'
p4151
I106
sS'bromance'
p4152
I106
sS'cl\xc3\xa1sico'
p4153
I106
sS'bueno'
p4154
I102
sS'waking'
p4155
I105
sS'popping'
p4156
I106
sS'06:04:29.0,33.9269403,-118.2068432,5402.03,zinedine'
p4157
I106
sS'rez'
p4158
I106
sS'rey'
p4159
I96
sS'defend'
p4160
I106
sS'as\xc3\xad'
p4161
I102
sS'red'
p4162
I104
sS'workflow'
p4163
I106
sS'frank'
p4164
I104
sS'r\xc3\xa1pido'
p4165
I106
sS'concachampionsmartes'
p4166
I106
sS"'chicharito'"
p4167
I106
sS'compra'
p4168
I106
sS'asumir'
p4169
I106
sS':(\xe2\x80\x9d'
p4170
I106
sS'marcelo'
p4171
I103
sS'slurpee'
p4172
I104
sS'franka'
p4173
I106
sS'lagging'
p4174
I106
sS'cuesta'
p4175
I106
sS'sadly'
p4176
I106
sS'messing'
p4177
I106
sS'nobody'
p4178
I106
sS'm\xc3\xa9dico'
p4179
I106
sS'suchi-malacateco'
p4180
I106
sS'loved'
p4181
I105
sS'gamboa'
p4182
I106
sS'loves'
p4183
I104
sS'visited'
p4184
I106
sS'inlove'
p4185
I106
sS'aquino'
p4186
I102
sS'sevilla'
p4187
I102
sS'fukk'
p4188
I106
sS'have'
p4189
I46
sS'21:33:42.0,33.9241425,-118.20082766,5402.03,gooooool'
p4190
I106
sS'throat'
p4191
I106
sS'curved'
p4192
I106
sS'apparently'
p4193
I106
sS'lloramos'
p4194
I106
sS'mil'
p4195
I106
sS'dallas'
p4196
I105
sS'mia'
p4197
I104
sS'mix'
p4198
I105
sS'mis'
p4199
I94
sS'hist\xc3\xb3rico'
p4200
I106
sS'hist\xc3\xb3rica'
p4201
I106
sS"where's"
p4202
I105
sS'2013-14'
p4203
I106
sS'dorsal'
p4204
I106
sS'.,90262\n505034511365570561,axelmerida13,2014-08-28'
p4205
I106
sS'14:10:10.0,33.9269032,-118.2068549,5402.03,xabi'
p4206
I106
sS'aqu\xc3\xad'
p4207
I104
sS'09:41:57.0,33.92415393,-118.2009183,5402.03,tomarrow'
p4208
I106
sS'normally'
p4209
I106
sS'squeegee'
p4210
I106
sS'equipos'
p4211
I104
sS'text'
p4212
I101
sS'\xc3\x89xito'
p4213
I106
sS'permitas'
p4214
I105
sS'\xd8\xa3\xd8\xae\xd8\xb0\xd8\xaa'
p4215
I106
sS'verlos'
p4216
I105
sS'confederaciones*bal\xc3\xb3n'
p4217
I106
sS'baddie'
p4218
I106
sS'04:54:26.0,33.92414365,-118.20078034,5402.03,con'
p4219
I106
sS"anyone's"
p4220
I106
sS'obviamente'
p4221
I106
sS'beat'
p4222
I106
sS'coworker'
p4223
I106
sS'bear'
p4224
I106
sS'equipo"'
p4225
I106
sS'rom\xc3\xa1n'
p4226
I106
sS'05:00:58.0,33.9269573,-118.2068432,5402.03,seg\xc3\x9an'
p4227
I106
sS'sociedad'
p4228
I106
sS'tendr\xc3\xa1'
p4229
I106
sS'05:23:54.0,33.9269559,-118.2067805,5402.03,como'
p4230
I106
sS'calling'
p4231
I105
sS'ganar'
p4232
I103
sS"won't"
p4233
I101
sS'gerardo'
p4234
I106
sS'saludos.,90262\n504875345279868928,axelmerida13,2014-08-28'
p4235
I106
sS'cavani'
p4236
I106
sS'peque\xc3\xb1os'
p4237
I106
sS'ra\xc3\xbal'
p4238
I102
sS'\xd9\x85\xd8\xa7'
p4239
I106
sS'creador'
p4240
I106
sS'progress'
p4241
I106
sS'vrs'
p4242
I104
sS'deporte'
p4243
I105
sS'puasy'
p4244
I106
sS'legit'
p4245
I106
sS'cosa\xe2\x80\xa6'
p4246
I106
sS'instant'
p4247
I106
sS'ofrece'
p4248
I106
sS'joke'
p4249
I106
sS'taking'
p4250
I101
sS'sorprende'
p4251
I106
sS'conseguir'
p4252
I105
sS'mr.president'
p4253
I106
sS'15min'
p4254
I106
sS'despu\xc3\xa9s'
p4255
I105
sS'"buddy"'
p4256
I106
sS'alllllllll'
p4257
I106
sS'world,90262\n481009560384069632,vaniitybree_,2014-06-23'
p4258
I106
sS"it's"
p4259
I75
sS'aprendo'
p4260
I106
sS'05:27:17.0,33.9269304,-118.2068355,5402.03,la'
p4261
I106
sS"selection...i've"
p4262
I106
sS'finished'
p4263
I104
sS'v\xc3\xa1zquez'
p4264
I106
sS'hoy..,90262\n504870262848757761,axelmerida13,2014-08-28'
p4265
I106
sS'bull'
p4266
I106
sS'tweet-per-day'
p4267
I106
sS'recuerda....el'
p4268
I106
sS'demostrar'
p4269
I106
sS'multa'
p4270
I106
sS'7-0'
p4271
I106
sS'saludos.,90262\n505356740485857281,axelmerida13,2014-08-29'
p4272
I106
sS'motivaci\xc3\xb3n'
p4273
I105
sS'locura'
p4274
I106
sS'almost'
p4275
I102
sS'helped'
p4276
I106
sS'jugar\xc3\xa1'
p4277
I103
sS'proxima'
p4278
I106
sS'proximo'
p4279
I105
sS'grande..................roberto'
p4280
I106
sS'marquense'
p4281
I85
sS'ochoa'
p4282
I100
sS'tiempo'
p4283
I104
sS'practice'
p4284
I106
sS'ferguson'
p4285
I106
sS'tambien'
p4286
I90
sS'sigue'
p4287
I105
sS'fucken'
p4288
I98
sS'sisters'
p4289
I106
sS'resultado'
p4290
I106
sS'\xc2\xa1supercampeones'
p4291
I106
sS'siguiente'
p4292
I106
sS'center'
p4293
I99
sS'antonio'
p4294
I106
sS'thought'
p4295
I106
sS'wyd'
p4296
I106
sS'pendiente'
p4297
I106
sS'wya'
p4298
I106
sS'sets'
p4299
I105
sS'my\xe2\x80\xa6'
p4300
I105
sS'usual'
p4301
I106
sS'stores'
p4302
I106
sS'clinic'
p4303
I106
sS'seats'
p4304
I106
sS'adu'
p4305
I106
sS'field'
p4306
I106
sS'quiere'
p4307
I101
sS'quiera'
p4308
I106
sS'add'
p4309
I104
sS"trying<3'"
p4310
I106
sS'ohhh'
p4311
I105
sS'tir\xc3\xb3'
p4312
I106
sS'match'
p4313
I106
sS'daludos'
p4314
I106
sS'ericko'
p4315
I102
sS'vinotinto'
p4316
I106
sS'*22'
p4317
I106
sS'like'
p4318
I43
sS'saludos.,90262\n495929607560777731,axelmerida13,2014-08-03'
p4319
I106
sS'armani'
p4320
I105
sS'works'
p4321
I105
sS'arrodillo'
p4322
I106
sS'xelaj\xc3\xba'
p4323
I106
sS'brandi'
p4324
I106
sS'alive'
p4325
I104
sS'hair'
p4326
I104
sS'"todos'
p4327
I106
sS'iguala'
p4328
I106
sS'happens'
p4329
I105
sS'm\xc3\xb3naco'
p4330
I102
sS'pues'
p4331
I100
sS'llamaria'
p4332
I106
sS'ese'
p4333
I103
sS'esa'
p4334
I106
sS'screwed'
p4335
I106
sS'14:56:21.0,33.9269503,-118.2068886,5402.03,la'
p4336
I106
sS'7.fue'
p4337
I106
sS'tras'
p4338
I98
sS'bird...but'
p4339
I106
sS'19:59:04.0,33.92414733,-118.20099715,5402.03,the'
p4340
I106
sS'about'
p4341
I72
sS'6am'
p4342
I106
sS'reencontraron'
p4343
I106
sS'llevaste'
p4344
I106
sS'\xc2\xbfquien'
p4345
I106
sS'1.del'
p4346
I106
sS'blessings'
p4347
I106
sS'supernacionales'
p4348
I105
sS'gayest'
p4349
I106
sS'panam\xc3\xa1'
p4350
I105
sS'socks'
p4351
I106
sS'playoff'
p4352
I106
sS'termino'
p4353
I106
sS"'keylor"
p4354
I106
sS'termina'
p4355
I106
sS'doooown'
p4356
I106
sS'biggest'
p4357
I106
sS'recordaran'
p4358
I106
sS'buy'
p4359
I95
sS'bus'
p4360
I104
sS'coke'
p4361
I106
sS'but'
p4362
I60
sS'reminds'
p4363
I106
sS'bug'
p4364
I106
sS'seis'
p4365
I104
sS'wise'
p4366
I106
sS'wish'
p4367
I97
sS'j'
p4368
I105
sS'primos'
p4369
I106
sS'minutes'
p4370
I106
sS'madridismola'
p4371
I106
sS'supreme'
p4372
I106
sS'pic'
p4373
I104
sS'pie'
p4374
I104
sS'to......,90262\n411375189931208704,loveseductive,2013-12-13'
p4375
I106
sS'pig'
p4376
I106
sS'pit'
p4377
I106
sS'campus'
p4378
I106
sS'ingles'
p4379
I106
sS'exitos.,90262\n509159411466502144,axelmerida13,2014-09-09'
p4380
I106
sS'lucir\xc3\xa1'
p4381
I106
sS'shouldve'
p4382
I105
sS'dama'
p4383
I106
sS'now....still\xe2\x80\xa6'
p4384
I106
sS'awwwwwww'
p4385
I106
sS'\xe2\x80\xa2'
p4386
I106
sS'\xe2\x80\xa6'
p4387
I106
sS'millones'
p4388
I99
sS'goin'
p4389
I106
sS'baked'
p4390
I106
sS'01:32:07.0,33.92968669,-118.20025704,5402.03,everyone'
p4391
I106
sS'06:26:06.0,33.92691,-118.206914,5402.03,dos'
p4392
I106
sS'pide'
p4393
I106
sS'sleep'
p4394
I86
sS'hate'
p4395
I90
sS'12:59:52.0,33.9269718,-118.2068535,5402.03,esta'
p4396
I106
sS'lukaku'
p4397
I105
sS'paris'
p4398
I106
sS'tweet'
p4399
I103
sS'daley'
p4400
I106
sS'pride'
p4401
I106
sS'trolled'
p4402
I105
sS'lurk'
p4403
I106
sS'risa'
p4404
I106
sS'lololol'
p4405
I106
sS'every'
p4406
I99
sS'jack'
p4407
I106
sS'school'
p4408
I97
sS'21:41:20.0,33.92410321,-118.20082172,5402.03,the'
p4409
I106
sS'venus'
p4410
I106
sS'fairfax'
p4411
I106
sS'enjoy'
p4412
I106
sS'11septiembre'
p4413
I106
sS'bienvenido'
p4414
I105
sS'bienvenida'
p4415
I105
sS'direct'
p4416
I106
sS'play\xe2\x80\xa6'
p4417
I106
sS'street'
p4418
I106
sS'friendships'
p4419
I106
sS'4x4'
p4420
I106
sS'hide'
p4421
I105
sS'ehhhhh'
p4422
I106
sS'lmfao,90262\n481505332842074112,vaniitybree_,2014-06-24'
p4423
I106
sS'disney'
p4424
I105
sS'cambiar'
p4425
I105
sS'chiapas'
p4426
I105
sS'cochina'
p4427
I106
sS'borussia'
p4428
I105
sS'changed'
p4429
I106
sS'precio'
p4430
I106
sS'libertadores*copa'
p4431
I106
sS'jogging'
p4432
I106
sS'stateside...and\xe2\x80\xa6'
p4433
I106
sS'settled'
p4434
I106
sS'julio'
p4435
I106
sS'semanas'
p4436
I106
sS'titulos'
p4437
I106
sS'infantil'
p4438
I106
sS'strap'
p4439
I106
sS'buscar\xc3\xa1'
p4440
I105
sS'buzzzzzzzzzzerrrrrr'
p4441
I106
sS'would'
p4442
I92
sS'hospital'
p4443
I99
sS',90262\n481008820290727936,vaniitybree_,2014-06-23'
p4444
I106
sS'asses'
p4445
I106
sS'volver\xc3\xada'
p4446
I106
sS'breathe'
p4447
I104
sS'ganara'
p4448
I106
sS'(23-0)'
p4449
I106
sS'sabes'
p4450
I106
sS'whoooole'
p4451
I106
sS'phone'
p4452
I97
sS'saben'
p4453
I106
sS'must'
p4454
I103
sS'me'
p4455
I25
sS'amigable'
p4456
I106
sS'ma'
p4457
I103
sS'mi'
p4458
I88
sS'mt'
p4459
I106
sS'hern\xc3\xa1ndez'
p4460
I103
sS'petrolera'
p4461
I106
sS'ms'
p4462
I106
sS'mr'
p4463
I105
sS'my'
p4464
I20
sS'52centro'
p4465
I106
sS'estate'
p4466
I106
sS'15m\xe2\x82\xac'
p4467
I106
sS'times'
p4468
I101
sS'end'
p4469
I105
sS'conocerle'
p4470
I106
sS'rica-panam\xc3\xa1'
p4471
I106
sS'bunt'
p4472
I106
sS'elizabeth'
p4473
I105
sS'mess'
p4474
I106
sS'"wyd"'
p4475
I106
sS'mesi'
p4476
I106
sS'copas'
p4477
I105
sS'plantilla'
p4478
I105
sS'over'
p4479
I89
sS'fichaje..james'
p4480
I106
sS'ima'
p4481
I103
sS'40%'
p4482
I106
sS'imy'
p4483
I106
sS'consolando'
p4484
I106
sS'sueno'
p4485
I97
sS':(('
p4486
I105
sS'galactico.......keylor'
p4487
I106
sS'forreals'
p4488
I106
sS'netherlands'
p4489
I106
sS'alex'
p4490
I103
sS'holdin'
p4491
I106
sS'each'
p4492
I106
sS'enamorado'
p4493
I106
sS'celebrating'
p4494
I106
sS'hija'
p4495
I106
sS'07:18:15.0,33.926921,-118.2068972,5402.03,seydou'
p4496
I106
sS'saturday'
p4497
I104
sS'ancelotti'
p4498
I98
sS'gol'
p4499
I91
sS'gon'
p4500
I104
sS'driving'
p4501
I104
sS'god'
p4502
I101
sS'nunca'
p4503
I101
sS'got'
p4504
I75
sS'gor'
p4505
I106
sS'proyectil'
p4506
I106
sS'verdadera'
p4507
I106
sS'free'
p4508
I105
sS'coachella'
p4509
I98
sS'eternas'
p4510
I106
sS'rain'
p4511
I106
sS'wanted'
p4512
I101
sS'labores'
p4513
I105
sS'days'
p4514
I97
sS'-_____-'
p4515
I106
sS'rettwittear'
p4516
I106
sS'soda'
p4517
I106
sS'onto'
p4518
I106
sS'exitos.,90262\n495933661712105472,axelmerida13,2014-08-03'
p4519
I106
sS'already'
p4520
I99
sS'f\xc3\xa1cil'
p4521
I106
sS'staying'
p4522
I105
sS'fantasy'
p4523
I106
sS":madrid's"
p4524
I106
sS'valerie'
p4525
I106
sS'sober'
p4526
I106
sS'scissors'
p4527
I106
sS'sneijder'
p4528
I106
sS'mercury'
p4529
I106
sS'\xc3\xa9'
p4530
I106
sS'top'
p4531
I101
sS'\xc3\xa0'
p4532
I106
sS'quinto'
p4533
I106
sS'suenes'
p4534
I106
sS'too'
p4535
I83
sS'holand\xc3\xa9s'
p4536
I106
sS'tom'
p4537
I106
sS'toe'
p4538
I106
sS'hangout'
p4539
I105
sS'14:31:37.0,33.926893,-118.2068567,5402.03,cristiano'
p4540
I106
sS'took'
p4541
I103
sS'haaaaaalp'
p4542
I106
sS'prego'
p4543
I106
sS'verte'
p4544
I105
sS'roles'
p4545
I106
sS'coatepeque-marquense'
p4546
I106
sS'classes'
p4547
I105
sS'10th'
p4548
I106
sS'14:46:41.0,33.926939,-118.2069236,5402.03,un'
p4549
I106
sS'2-0'
p4550
I105
sS'talking'
p4551
I97
sS'ray'
p4552
I106
sS'harper'
p4553
I106
sS'-'
p4554
I78
sS'halamadrid.,90262\n495836615860682752,axelmerida13,2014-08-03'
p4555
I106
sS'though'
p4556
I103
sS'ah\xc3\xad'
p4557
I105
sS'insua'
p4558
I106
sS'navas.bienvenido'
p4559
I106
sS'hoochies'
p4560
I106
sS'karina'
p4561
I106
sS'fantas\xc3\xadas'
p4562
I106
sS'random'
p4563
I105
sS'popo'
p4564
I106
sS'v.v'
p4565
I105
sS'radio'
p4566
I106
sS'lists...am'
p4567
I106
sS'aniversario'
p4568
I106
sS'hacerlo'
p4569
I104
sS'pretextos'
p4570
I106
sS'5627469788'
p4571
I106
sS'hacerle'
p4572
I106
sS'mascota'
p4573
I106
sS'spitz'
p4574
I106
sS'inspiraci\xc3\xb3n'
p4575
I106
sS'\xc2\xa1hermoso'
p4576
I106
sS'league*copa'
p4577
I106
sS'watch'
p4578
I96
sS'guatemala'
p4579
I102
sS'\xc2\xbfpel\xc3\xa9'
p4580
I106
sS'12-6'
p4581
I106
sS'gareth'
p4582
I92
sS'public'
p4583
I105
sS't\xc3\xadtulos'
p4584
I105
sS'shots'
p4585
I106
sS'estados'
p4586
I93
sS'21:49:43.0,33.92417325,-118.20078605,5402.03,he'
p4587
I106
sS'hagan'
p4588
I106
sS'zamorano'
p4589
I106
sS'nut'
p4590
I105
sS'nun'
p4591
I106
sS'noodles'
p4592
I105
sS'01:54:34.0,33.9304866,-118.2022773,5402.03,am'
p4593
I106
sS'muy'
p4594
I69
sS'palmitas'
p4595
I106
sS'"oh'
p4596
I106
sS'mud'
p4597
I106
sS'descansa'
p4598
I105
sS'finger'
p4599
I106
sS'atajadas'
p4600
I106
sS'descanso'
p4601
I104
sS'360'
p4602
I104
sS'debutaba'
p4603
I105
sS'lupe'
p4604
I103
sS'(usa)1'
p4605
I106
sS'boss'
p4606
I105
sS'wear'
p4607
I105
sS'news'
p4608
I104
sS'volvi\xc3\xb3'
p4609
I105
sS'playera'
p4610
I106
sS'kagawa'
p4611
I105
sS'vivo]'
p4612
I106
sS'sonr\xc3\xade'
p4613
I106
sS'fault'
p4614
I106
sS'jelly'
p4615
I106
sS'merging'
p4616
I106
sS'dopest'
p4617
I106
sS'17:08:38.0,33.9279574,-118.20404319,5402.03,secretly'
p4618
I106
sS'habran'
p4619
I106
sS'office)'
p4620
I106
sS'negociando'
p4621
I106
sS'trust'
p4622
I106
sS'hijo'
p4623
I105
sS'bathroom'
p4624
I106
sS'"you'
p4625
I106
sS'been'
p4626
I85
sS'beer'
p4627
I99
sS'encara'
p4628
I106
sS'03:10:51.0,33.9257956,-118.2001139,5402.03,porque'
p4629
I106
sS'tenemos'
p4630
I105
sS'drugs'
p4631
I106
sS'blancos'
p4632
I106
sS'reducir'
p4633
I106
sS'n'
p4634
I63
sS'"baking"'
p4635
I106
sS'"a'
p4636
I106
sS'"i'
p4637
I106
sS'errrday'
p4638
I106
sS'06:06:11.0,33.9269212,-118.2068533,5402.03,los'
p4639
I106
sS'14:56:15.0,33.9269503,-118.2069924,5402.03,miralo'
p4640
I106
sS'yung'
p4641
I103
sS'sched'
p4642
I106
sS'l\xc3\xadmited'
p4643
I106
sS'pick'
p4644
I105
sS'30/07/2014'
p4645
I106
sS'siempre................halamadrid'
p4646
I106
sS'halamadrid.,90262\n494068527830036480,axelmerida13,2014-07-29'
p4647
I106
sS'candidatos'
p4648
I105
sS'"quiero'
p4649
I106
sS'dado'
p4650
I105
sS'vacuumed'
p4651
I106
sS'greatest'
p4652
I106
sS'mother'
p4653
I103
sS'dads'
p4654
I106
sS"'james"
p4655
I106
sS'proposed'
p4656
I106
sS'futbolviva'
p4657
I106
sS"'10'"
p4658
I106
sS'enlighten'
p4659
I106
sS'mir\xc3\xa1'
p4660
I106
sS'ell'
p4661
I105
sS'cherry'
p4662
I106
sS'5s'
p4663
I105
sS'\xc2\xa1hasta'
p4664
I106
sS'madrid-roma'
p4665
I106
sS'mencionado'
p4666
I106
sS'trashed'
p4667
I106
sS'gave'
p4668
I106
sS'aprenden'
p4669
I106
sS'aprender'
p4670
I106
sS'05:08:46.0,33.9270018,-118.2068295,5402.03,serena'
p4671
I106
sS'newcastle'
p4672
I104
sS'judge'
p4673
I106
sS'jornada'
p4674
I105
sS'couins'
p4675
I106
sS'ditto'
p4676
I106
sS'gift'
p4677
I101
sS'57'
p4678
I106
sS'56'
p4679
I106
sS'50'
p4680
I106
sS'hung'
p4681
I106
sS'amor'
p4682
I102
sS'frustrations'
p4683
I106
sS'usher'
p4684
I106
sS'escape'
p4685
I106
sS'otros'
p4686
I106
sS'2days'
p4687
I106
sS'f\xc3\xbatbol'
p4688
I90
sS'ice'
p4689
I106
sS'everything'
p4690
I98
sS'420'
p4691
I106
sS'core'
p4692
I106
sS'encima'
p4693
I106
sS'deleted'
p4694
I106
sS'7-eleven'
p4695
I103
sS'pasi\xc3\xb3n'
p4696
I104
sS'notici\xc3\x93n'
p4697
I106
sS'there...smooooooth'
p4698
I106
sS'dinner'
p4699
I106
sS'plus'
p4700
I103
sS'algo'
p4701
I104
sS'mismo'
p4702
I104
sS'nooooooo'
p4703
I106
sS'facetime'
p4704
I106
sS'encuentra'
p4705
I106
sS'aha'
p4706
I99
sS'lol,90262\n481299286198464512,vaniitybree_,2014-06-24'
p4707
I106
sS'texting'
p4708
I106
sS'ppl'
p4709
I102
sS'tribuna'
p4710
I106
sS'day,90262\n501862427882192898,gabbagabbie132,2014-08-19'
p4711
I106
sS'cafeteria'
p4712
I106
sS'intentar.\xc2\xabjavier'
p4713
I106
sS'ayers'
p4714
I106
sS'uhm...ok'
p4715
I106
sS'lago'
p4716
I106
sS'ankle/foot'
p4717
I106
sS'head'
p4718
I102
sS'indicado'
p4719
I106
sS'heat'
p4720
I105
sS'uncle'
p4721
I104
sS'viva'
p4722
I10
sS'06:22:27.0,33.9269389,-118.2068339,5402.03,el'
p4723
I106
sS'vive'
p4724
I105
sS'slo-mo'
p4725
I106
sS'vivi'
p4726
I104
sS'tengas'
p4727
I93
sS'penal'
p4728
I106
sS'descartado'
p4729
I106
sS'zidane'
p4730
I102
sS'sometime'
p4731
I106
sS'juntos'
p4732
I105
sS'annoying'
p4733
I104
sS'check'
p4734
I103
sS'derecho'
p4735
I105
sS'faithful'
p4736
I106
sS'landon'
p4737
I106
sS'ticos'
p4738
I106
sS'commercials'
p4739
I106
sS'when'
p4740
I69
sS'tis'
p4741
I106
sS'2\xe2\x80\xa6'
p4742
I106
sS'bruuuuuuuuh'
p4743
I104
sS'jamessss'
p4744
I106
sS'picture'
p4745
I106
sS'retwittear'
p4746
I26
sS'football'
p4747
I105
sS'siente'
p4748
I106
sS'13:21:45.0,33.926965,-118.2069219,5402.03,gareth'
p4749
I106
sS'siento'
p4750
I106
sS'serious'
p4751
I104
sS':))'
p4752
I104
sS'neighbors'
p4753
I106
sS'coach'
p4754
I106
sS'cesi\xc3\xb3n'
p4755
I106
sS'charge'
p4756
I106
sS'espa\xc3\xb1ol'
p4757
I104
sS'ganados'
p4758
I106
sS'ganador'
p4759
I105
sS'vestido'
p4760
I106
sS'cook'
p4761
I106
sS'libre'
p4762
I104
sS'cool'
p4763
I104
sS'clouds'
p4764
I106
sS'5.9saludos'
p4765
I106
sS'peeps'
p4766
I106
sS'brother'
p4767
I102
sS'pr\xc3\xa1cticamente'
p4768
I106
sS'juegaaaaaa'
p4769
I106
sS'quick'
p4770
I106
sS'\xe2\x80\x9cpin\xe2\x80\x9d'
p4771
I106
sS'says'
p4772
I105
sS'ofrecimos'
p4773
I106
sS'porq'
p4774
I106
sS':foto'
p4775
I105
sS'c\xc3\xa9sped'
p4776
I106
sS'bake'
p4777
I106
sS'fear'
p4778
I106
sS'goes'
p4779
I105
sS'reply'
p4780
I103
sS'crippler'
p4781
I106
sS'hairs'
p4782
I105
sS"'avala'"
p4783
I106
sS'aunque'
p4784
I105
sS'stomache'
p4785
I106
sS'noticeable'
p4786
I106
sS'semana.,90262\n508865799398780928,axelmerida13,2014-09-08'
p4787
I106
sS'weird'
p4788
I103
sS'estadio'
p4789
I105
sS'rafael'
p4790
I106
sS':dallas'
p4791
I106
sS"'9'"
p4792
I106
sS'"me'
p4793
I106
sS'semana'
p4794
I68
sS'acuve'
p4795
I106
sS'bitch</3'
p4796
I106
sS'saludaron'
p4797
I106
sS'vivir'
p4798
I105
sS'todas'
p4799
I106
sS'iphone'
p4800
I103
sS'today'
p4801
I76
sS'compa\xc3\xb1eros'
p4802
I106
sS'riot'
p4803
I106
sS'sessions'
p4804
I106
sS'guapos'
p4805
I106
sS'cashier'
p4806
I106
sS'\xc2\xa1hoooooooooooy'
p4807
I106
sS'beers'
p4808
I105
sS'botella'
p4809
I106
sS'2014/15'
p4810
I105
sS'tribunal'
p4811
I106
sS'descubre'
p4812
I106
sS'lunes.....:-)'
p4813
I106
sS'\xc3\x89l'
p4814
I106
sS'dropped'
p4815
I106
sS'madridistas'
p4816
I96
sS'20.000'
p4817
I106
sS'reece'
p4818
I106
sS'antoine'
p4819
I106
sS'1'
p4820
I91
sS'dep_marquense'
p4821
I106
sS'paramount'
p4822
I106
sS'refuerzo'
p4823
I106
sS'birthday'
p4824
I97
sS'manana'
p4825
I95
sS'ort\xc3\xadz)'
p4826
I106
sS"he's"
p4827
I102
sS'venting'
p4828
I106
sS'gtz'
p4829
I106
sS'mofo'
p4830
I106
sS'happened'
p4831
I104
sS'portero'
p4832
I97
sS'moms'
p4833
I104
sS'...............real'
p4834
I106
sS"04:14:16.0,33.92549181,-118.20182239,5402.03,that's"
p4835
I106
sS'bonitacolor'
p4836
I106
sS'underneath'
p4837
I106
sS'name'
p4838
I96
sS'ahogadas'
p4839
I106
sS'muchas'
p4840
I103
sS'yasssssss'
p4841
I106
sS'padre.,90262\n494143391358140416,axelmerida13,2014-07-29'
p4842
I106
sS'uninhibiter'
p4843
I106
sS'busta'
p4844
I106
sS"shouldn't"
p4845
I106
sS'21:34:52.0,33.92420686,-118.20079555,5402.03,i'
p4846
I106
sS'she'
p4847
I79
sS'liddo'
p4848
I106
sS'unfriendly'
p4849
I106
sS'col'
p4850
I106
sS'valderrama'
p4851
I106
sS'(ii)'
p4852
I106
sS'100%'
p4853
I106
sS'gusto'
p4854
I104
sS'turn'
p4855
I104
sS'place'
p4856
I102
sS'05:15:15.0,33.9268819,-118.206894,5402.03,sabias'
p4857
I106
sS'swing'
p4858
I106
sS'mexicanos'
p4859
I106
sS'con'
p4860
I45
sS'alzaran'
p4861
I106
sS'frid\xc4\xball'
p4862
I106
sS'club.cada'
p4863
I106
sS'lags'
p4864
I106
sS'pokemon'
p4865
I106
sS'millions'
p4866
I106
sS'given'
p4867
I106
sS'(foto)'
p4868
I106
sS'district'
p4869
I106
sS'modric'
p4870
I103
sS'white'
p4871
I106
sS'hug'
p4872
I106
sS'alem\xc3\xa1n'
p4873
I105
sS'season'
p4874
I105
sS'huh'
p4875
I106
sS'released'
p4876
I106
sS'ratchets'
p4877
I106
sS'lmao'
p4878
I100
sS'>;)'
p4879
I106
sS'jam\xc3\xa1s'
p4880
I106
sS'sere'
p4881
I105
sS'sera'
p4882
I98
sS'pre'
p4883
I105
sS'ano'
p4884
I106
sS'mates'
p4885
I106
sS'rent'
p4886
I106
sS'nombrado'
p4887
I106
sS'any'
p4888
I101
sS'pre-temporada'
p4889
I106
sS'gustavo'
p4890
I106
sS'so\xc3\xb1ar'
p4891
I105
sS'ideal'
p4892
I105
sS'you<3'
p4893
I105
sS':(,90262\n477932806320824320,lessslly,2014-06-14'
p4894
I106
sS'entreg\xc3\xb3'
p4895
I106
sS'blunt'
p4896
I106
sS'sure'
p4897
I102
sS'delantero'
p4898
I106
sS'delantera'
p4899
I106
sS'falls'
p4900
I106
sS'dia.,90262\n494067701799596033,axelmerida13,2014-07-29'
p4901
I106
sS'considered'
p4902
I106
sS'im\xc3\xa1genes'
p4903
I106
sS'seafood'
p4904
I106
sS'proud'
p4905
I103
sS'hungry'
p4906
I96
sS'salida'
p4907
I102
sS'ronaldinho'
p4908
I92
sS'posible"'
p4909
I106
sS'nlf'
p4910
I106
sS'hace'
p4911
I102
sS'20:02:30.0,33.92683645,-118.20472523,5402.03,your'
p4912
I106
sS'gulp'
p4913
I106
sS'nadie'
p4914
I103
sS'desea'
p4915
I105
sS'llevar\xc3\xa1'
p4916
I106
sS'partake'
p4917
I106
sS":'d"
p4918
I106
sS'deseo'
p4919
I106
sS'narrows'
p4920
I106
sS'uncles'
p4921
I106
sS"'gol"
p4922
I106
sS'eslovaquia'
p4923
I106
sS":'("
p4924
I104
sS"'arranca'"
p4925
I106
sS'octubre'
p4926
I106
sS"y'all"
p4927
I105
sS'ignored'
p4928
I106
sS"'memo'"
p4929
I105
sS'college'
p4930
I106
sS'lituania'
p4931
I106
sS'optometrist'
p4932
I106
sS'farmers'
p4933
I106
sS'ways'
p4934
I106
sS'equivoca'
p4935
I106
sS'puntos'
p4936
I106
sS'outside'
p4937
I105
sS'05:57:14.0,33.9269209,-118.2068645,5402.03,mi'
p4938
I106
sS'25'
p4939
I103
sS'dinero'
p4940
I106
sS'tortas'
p4941
I106
sS'guitar'
p4942
I102
sS'como'
p4943
I22
sS'$900'
p4944
I106
sS'freakiest'
p4945
I106
sS'come'
p4946
I96
sS'ofert\xc3\xb3n'
p4947
I106
sS'publicar\xc3\xa1'
p4948
I106
sS'\xc3\x81lvaro'
p4949
I106
sS'23'
p4950
I104
sS'quien'
p4951
I101
sS'deported'
p4952
I105
sS'duty'
p4953
I106
sS'6'
p4954
I102
sS'6%'
p4955
I106
sS'thigh:/'
p4956
I106
sS'color'
p4957
I104
sS'por'
p4958
I5
sS'period'
p4959
I105
sS'pop'
p4960
I104
sS'60'
p4961
I105
sS'poo'
p4962
I106
sS'62'
p4963
I106
sS'63'
p4964
I106
sS'colon'
p4965
I106
sS'arribabelbfutbol'
p4966
I106
sS'didier'
p4967
I103
sS'dia.,90262\n494496144592879616,axelmerida13,2014-07-30'
p4968
I106
sS'$100:)'
p4969
I106
sS'hardly'
p4970
I106
sS'isco"'
p4971
I106
sS'robben'
p4972
I106
sS'messi)'
p4973
I106
sS'mancity'
p4974
I106
sS'andrea'
p4975
I100
sS'champions'
p4976
I84
sS'case'
p4977
I106
sS'myself'
p4978
I102
sS'casa'
p4979
I106
sS'casi'
p4980
I106
sS'cash'
p4981
I106
sS'diferenteten'
p4982
I106
sS'muri\xc3\xb3'
p4983
I106
sS'good'
p4984
I75
sS'\xc2\xa1goool'
p4985
I106
sS'siberian'
p4986
I105
sS'trip'
p4987
I105
sS'shifts'
p4988
I106
sS'usara'
p4989
I105
sS'05:57:05.0,33.9269559,-118.2067804,5402.03,adidas'
p4990
I106
sS'buys'
p4991
I106
sS'events'
p4992
I103
sS'todos'
p4993
I94
sS'week'
p4994
I98
sS'tipsy'
p4995
I106
sS'ni'
p4996
I105
sS'lol,90262\n481189331583791105,vaniitybree_,2014-06-23'
p4997
I106
sS'weed'
p4998
I105
sS'abalone'
p4999
I106
sS',90262\n463556165276676096,nat_karrien,2014-05-06'
p5000
I106
sS'dsgpark'
p5001
I106
sS'no'
p5002
I39
sS'without'
p5003
I102
sS'exitos.,90262\n505031555635359744,axelmerida13,2014-08-28'
p5004
I106
sS'tip'
p5005
I106
sS'kill'
p5006
I104
sS'renuncia'
p5007
I106
sS"whore'chata"
p5008
I106
sS'presentaci\xc3\xb3te'
p5009
I106
sS'\xc2\xa1felicidades'
p5010
I106
sS"everyone's"
p5011
I105
sS'seems'
p5012
I106
sS'rosa'
p5013
I106
sS'lets'
p5014
I105
sS'penedo'
p5015
I103
sS'hernandez.radamel'
p5016
I106
sS'contagiar'
p5017
I106
sS'conoc\xc3\xad'
p5018
I105
sS'tanto'
p5019
I106
sS'wbu'
p5020
I106
sS'patrice'
p5021
I106
sS'snort'
p5022
I106
sS'se\xc3\xb1ores'
p5023
I106
sS'20m\xc2\xa3'
p5024
I106
sS'turco'
p5025
I106
sS'interesante'
p5026
I106
sS'...pendiente'
p5027
I106
sS'madrid'
p5028
I14
sS'competition'
p5029
I106
sS'quiz\xc3\xa1'
p5030
I105
sS'mood'
p5031
I106
sS'bar\xc3\xa7a'
p5032
I104
sS'stops'
p5033
I106
sS'moon'
p5034
I106
sS'coatepequete'
p5035
I106
sS'ofreciendome'
p5036
I106
sS'ahahahah'
p5037
I105
sS'saludo'
p5038
I98
sS'lmfao'
p5039
I70
sS'skrillex'
p5040
I106
sS',90262\n481199446168838145,vaniitybree_,2014-06-23'
p5041
I106
sS'comunicado'
p5042
I105
sS'sabiasque'
p5043
I106
sS'on'
p5044
I40
sS'cremas'
p5045
I106
sS'ok'
p5046
I94
sS'oh'
p5047
I99
sS'of'
p5048
I41
sS'ob'
p5049
I106
sS'stank'
p5050
I106
sS'chiva'
p5051
I106
sS'or'
p5052
I72
sS'amber'
p5053
I104
sS'kroos'
p5054
I80
sS'gary'
p5055
I106
sS'whales'
p5056
I106
sS'strictly'
p5057
I106
sS'there'
p5058
I93
sS'ejercitando'
p5059
I106
sS'laquisha'
p5060
I106
sS'valley'
p5061
I106
sS',90262\n501883018093408257,gabbagabbie132,2014-08-20'
p5062
I106
sS'07:12:58.0,33.9269194,-118.2068863,5402.03,el'
p5063
I106
sS'triunfaron'
p5064
I106
sS'costco'
p5065
I106
sS'netos'
p5066
I106
sS'grass'
p5067
I106
sS'mexicanas'
p5068
I106
sS'feliz'
p5069
I52
sS'uman'
p5070
I106
sS'\xd8\xb6\xd9\x8a\xd8\xb9\xd8\xaa'
p5071
I106
sS'pol\xc3\xa9mica'
p5072
I106
sS'ee.uu'
p5073
I104
sS'wuuuut'
p5074
I106
sS'ocaciones'
p5075
I106
sS'5'
p5076
I94
sS'chicharito:estuve'
p5077
I106
sS'dumb!,90262\n489672727033167872,vaniitybree_,2014-07-17'
p5078
I106
sS'selecci\xc3\xb3n'
p5079
I97
sS'championship'
p5080
I106
sS'grupo'
p5081
I105
sS'finals'
p5082
I106
sS'carbs'
p5083
I106
sS'mente'
p5084
I106
sS'barcelona'
p5085
I103
sS'oportunidad'
p5086
I104
sS'arquero'
p5087
I94
sS'all'
p5088
I60
sS'chinese'
p5089
I106
sS'ale'
p5090
I106
sS'enfadarme'
p5091
I106
sS'lacy'
p5092
I106
sS"pizza...i'll"
p5093
I106
sS'welcomme'
p5094
I106
sS'desprender\xc3\xada'
p5095
I106
sS'wassup'
p5096
I106
sS'thursday'
p5097
I106
sS'aaron'
p5098
I106
sS'activities'
p5099
I106
sS'woman'
p5100
I105
sS'worse'
p5101
I106
sS'09:55:08.0,33.926877,-118.2069128,5402.03,sergio'
p5102
I106
sS'song'
p5103
I104
sS'far'
p5104
I102
sS'fav'
p5105
I106
sS'fat'
p5106
I99
sS'worst'
p5107
I104
sS'fuck...i'
p5108
I106
sS'fam'
p5109
I105
sS'bubbles'
p5110
I106
sS'fag'
p5111
I106
sS'vibee'
p5112
I106
sS'gerrard'
p5113
I106
sS'vibes'
p5114
I106
sS'flick'
p5115
I106
sS'ten'
p5116
I36
sS'tea'
p5117
I106
sS'bandera'
p5118
I106
sS'haai'
p5119
I106
sS'lynwood'
p5120
I78
sS'07:26:17.0,33.9239278,-118.2008357,5402.03,starts'
p5121
I106
sS'reina'
p5122
I106
sS'what'
p5123
I70
sS'\xe2\x9d\xa4,90262\n481189624170041344,vaniitybree_,2014-06-23'
p5124
I106
sS'sub'
p5125
I104
sS'womp'
p5126
I105
sS'sus'
p5127
I97
sS'sup'
p5128
I106
sS'vamos'
p5129
I100
sS'saludos.,90262\n495922469744562176,axelmerida13,2014-08-03'
p5130
I106
sS'mar\xc3\xadn'
p5131
I106
sS'posiciones'
p5132
I105
sS'\xe2\x80\x9cmadridista\xe2\x80\x9d'
p5133
I106
sS'therese'
p5134
I106
sS'hungover'
p5135
I106
sS'mar\xc3\xada'
p5136
I86
sS'nena'
p5137
I104
sS'\xe2\x9a\xbd,90262\n481188370454806529,vaniitybree_,2014-06-23'
p5138
I106
sS'p\xc3\xbablico'
p5139
I106
sS'shoulda'
p5140
I105
sS'testigo'
p5141
I106
sS'navas'
p5142
I77
sS'~'
p5143
I105
sS'disneyland'
p5144
I104
sS'gracias"'
p5145
I106
sS'palabras'
p5146
I106
sS'texts'
p5147
I106
sS'snub'
p5148
I106
sS'tho<3'
p5149
I106
sS'mercado.,90262\n505339047749767168,axelmerida13,2014-08-29'
p5150
I106
sS'clifford'
p5151
I105
sS'faint'
p5152
I106
sS'refs'
p5153
I106
sS'israel'
p5154
I106
sS'knows'
p5155
I105
sS'either\xe2\x80\x9d'
p5156
I106
sS'mira'
p5157
I100
sS'floyd'
p5158
I106
sS'stick'
p5159
I106
sS'known'
p5160
I106
sS'glad'
p5161
I101
sS'verano'
p5162
I105
sS'yeaaaaa'
p5163
I106
sS'eden'
p5164
I106
sS'birffday'
p5165
I106
sS'hers&his'
p5166
I106
sS'pony'
p5167
I106
sS'tetwittear'
p5168
I106
sS'azul'
p5169
I105
sS'pone'
p5170
I106
sS'pong'
p5171
I105
sS'delaneo'
p5172
I106
sS'court'
p5173
I105
sS'goal'
p5174
I106
sS'breaking'
p5175
I105
sS'm\xc3\xa1ximos'
p5176
I106
sS'ejecucion'
p5177
I106
sS'musica'
p5178
I106
sS'buenos'
p5179
I105
sS'mejor:kroos'
p5180
I106
sS'okay'
p5181
I105
sS'diferentes'
p5182
I105
sS'adventure'
p5183
I106
sS'marfil'
p5184
I106
sS'saludos.,90262\n494725692089581568,axelmerida13,2014-07-31'
p5185
I106
sS'departure'
p5186
I106
sS'dentro'
p5187
I106
sS'grande'
p5188
I78
sS'carmelo'
p5189
I105
sS'veteranos'
p5190
I106
sS'instalaciones'
p5191
I106
sS"don't"
p5192
I54
sS'mission'
p5193
I106
sS'..orgullo'
p5194
I106
sS'futbol.,90262\n504872834368167936,axelmerida13,2014-08-28'
p5195
I106
sS'1.95'
p5196
I106
sS',90262\n481190707382583297,vaniitybree_,2014-06-23'
p5197
I106
sS'inquiries'
p5198
I106
sS'ponerse'
p5199
I106
sS'senal'
p5200
I106
sS'pray'
p5201
I106
sS'madrid.horarios'
p5202
I106
sS'ricardo'
p5203
I104
sS'argentino'
p5204
I103
sS'bout'
p5205
I102
sS'soccer'
p5206
I106
sS'might'
p5207
I103
sS'naci'
p5208
I106
sS'somebody'
p5209
I106
sS'clippers'
p5210
I106
sS'huskies'
p5211
I105
sS'ausencia'
p5212
I106
sS'bigger'
p5213
I106
sS'james"'
p5214
I106
sS'rodr\xc3\x8dguez'
p5215
I106
sS'saludos.,90262\n494496785486721024,axelmerida13,2014-07-30'
p5216
I106
sS'presentaci\xc3\xb3n'
p5217
I102
sS'madridista'
p5218
I93
sS'unidos:=la'
p5219
I106
sS'weight'
p5220
I104
sS'prolly'
p5221
I106
sS'alcohol'
p5222
I103
sS'significa'
p5223
I106
sS'tenido'
p5224
I106
sS'10:28:09.0,33.9269423,-118.2068425,5402.03,international'
p5225
I106
sS'-2014'
p5226
I106
sS'espanol'
p5227
I106
sS'teach'
p5228
I106
sS'saludos.,90262\n508851325203804160,axelmerida13,2014-09-08'
p5229
I106
sS'thrown'
p5230
I106
sS"europa'"
p5231
I105
sS'introducido'
p5232
I106
sS'hellooooooooo'
p5233
I106
sS'deja'
p5234
I105
sS'marqu\xc3\xa9'
p5235
I106
sS'feed'
p5236
I106
sS'enmarco'
p5237
I106
sS'feel'
p5238
I93
sS'fancy'
p5239
I105
sS'colombia'
p5240
I94
sS'representante'
p5241
I105
sS'story'
p5242
I103
sS'"'
p5243
I105
sS'esas'
p5244
I106
sS'encantara'
p5245
I105
sS'passed'
p5246
I105
sS'ecuador'
p5247
I106
sS'grandes..................halamadrid'
p5248
I106
sS'ospina'
p5249
I101
sS'am\xc3\xa9rica'
p5250
I102
sS'segun'
p5251
I106
sS'"\'chicharito\''
p5252
I106
sS'vaaaaaan'
p5253
I106
sS'\xc2\xa1espectacular'
p5254
I106
sS'$5'
p5255
I106
sS'$3'
p5256
I106
sS'$1'
p5257
I106
sS'king'
p5258
I106
sS'kind'
p5259
I104
sS'i'
p5260
I3
sS'dani'
p5261
I104
sS'marimbas'
p5262
I106
sS'8:30'
p5263
I105
sS'lewandowski'
p5264
I106
sS'aliiiiiive'
p5265
I106
sS'7s'
p5266
I106
sS'disfrutemos'
p5267
I106
sS'importa'
p5268
I106
sS'gal\xc3\xa1cticos'
p5269
I106
sS'breathing'
p5270
I106
sS'hernano'
p5271
I106
sS'finding'
p5272
I106
sS'judar'
p5273
I106
sS'ponen'
p5274
I106
sS'nivel'
p5275
I106
sS'added'
p5276
I106
sS'05:45:35.0,33.9269507,-118.2068272,5402.03,mira'
p5277
I106
sS'english'
p5278
I106
sS'reach'
p5279
I106
sS'75'
p5280
I106
sS'71'
p5281
I106
sS'amar'
p5282
I106
sS'nothing'
p5283
I101
sS'seasons'
p5284
I106
sS'10am'
p5285
I106
sS'ciroc'
p5286
I106
sS'stfu'
p5287
I103
sS'llorente'
p5288
I106
sS'taranchala'
p5289
I106
sS'uniform'
p5290
I106
sS'jugar'
p5291
I95
sS'penalty'
p5292
I106
sS'm\xc3\xa1rquez'
p5293
I106
sS'porque'
p5294
I87
sS'his'
p5295
I99
sS'hit'
p5296
I101
sS'gains'
p5297
I106
sS'aficionado'
p5298
I105
sS'wooooooo'
p5299
I106
sS'him'
p5300
I97
sS'typos'
p5301
I106
sS'acabooo,90262\n481192400434384896,vaniitybree_,2014-06-23'
p5302
I106
sS'blanton'
p5303
I106
sS'vermaelen'
p5304
I106
sS'bars'
p5305
I106
sS'defense'
p5306
I106
sS'dumb'
p5307
I105
sS'are'
p5308
I76
sS'defensa'
p5309
I104
sS'\xe2\x98\xba\xef\xb8\x8f\xe2\x98\xba\xef\xb8\x8f\xe2\x98\xba\xef\xb8\x8f\xe2\x98\xba\xef\xb8\x8f'
p5310
I105
sS'chambers'
p5311
I106
sS'arm'
p5312
I106
sS'2.5'
p5313
I106
sS'slapped'
p5314
I106
sS'consecutivo'
p5315
I106
sS'bellesas'
p5316
I106
sS'abandon\xc3\xb3'
p5317
I106
sS'solo'
p5318
I103
sS'korea'
p5319
I106
sS'attention'
p5320
I105
sS'outfit'
p5321
I105
sS'visit\xc3\xb3'
p5322
I106
sS'cortas'
p5323
I106
sS'license'
p5324
I105
sS'procedente'
p5325
I103
sS'became'
p5326
I106
sS'sweet'
p5327
I106
sS'loveee'
p5328
I106
sS'dudes'
p5329
I106
sS'competici\xc3\xb3n'
p5330
I106
sS'ma\xc3\xb1anaenfrentaremos'
p5331
I106
sS'ps'
p5332
I106
sS'dun'
p5333
I106
sS'\xe2\x9c\x8b,90262\n481193476332081152,vaniitybree_,2014-06-23'
p5334
I106
sS'22:21:56.0,33.9269431,-118.2068476,5402.03,falcao'
p5335
I106
sS'06:38:44.0,33.9269166,-118.2068713,5402.03,karim'
p5336
I106
sS'lol,90262\n481189576044589056,vaniitybree_,2014-06-23'
p5337
I106
sS'pe'
p5338
I106
sS'brick'
p5339
I106
sS'woke'
p5340
I102
sS'pm'
p5341
I106
sS'ifhy'
p5342
I106
sS'ra\xc3\xadces'
p5343
I106
sS'cinco'
p5344
I104
sS'rocking'
p5345
I106
sS'toga'
p5346
I106
sS'marcha'
p5347
I105
sS'lips"'
p5348
I106
sS'ahah'
p5349
I106
sS'acuerdo'
p5350
I102
sS'09:45:57.0,33.9268979,-118.2068671,5402.03,un'
p5351
I106
sS'\xc3\xa9sta'
p5352
I106
sS'rip'
p5353
I104
sS'rim'
p5354
I106
sS'goonies'
p5355
I106
sS'rib'
p5356
I106
sS'shirt'
p5357
I104
sS'listos'
p5358
I104
sS'delicious'
p5359
I106
sS',90262\n481010313790111744,vaniitybree_,2014-06-23'
p5360
I106
sS'9'
p5361
I102
sS'itchy'
p5362
I106
sS'almuada'
p5363
I106
sS"'mejor"
p5364
I105
sS'holidays'
p5365
I106
sS'on...to'
p5366
I106
sS'moving'
p5367
I106
sS'89%'
p5368
I106
sS'dinho'
p5369
I106
sS'lower'
p5370
I106
sS'dancing'
p5371
I105
sS'....halamadrid'
p5372
I106
sS'halcones'
p5373
I106
sS'dark'
p5374
I106
sS'know'
p5375
I67
sS'opinas'
p5376
I106
sS'trouble\xe2\x9a\x93\xef\xb8\x8f\xe2\x99\x8c\xef\xb8\x8f'
p5377
I106
sS'265'
p5378
I106
sS'\xe2\x80\x9cno'
p5379
I106
sS'questions'
p5380
I105
sS'recuperarlo'
p5381
I106
sS'prince'
p5382
I106
sS'also'
p5383
I106
sS'anunciado'
p5384
I106
sS'arriba'
p5385
I60
sS'\xc2\xbfflacao'
p5386
I106
sS'bailar\xc3\xadn'
p5387
I106
sS'spittin'
p5388
I106
sS'empiesa'
p5389
I106
sS'wuuut'
p5390
I105
sS'.,90262\n494056652006367234,axelmerida13,2014-07-29'
p5391
I106
sS'flappy'
p5392
I104
sS'ignore'
p5393
I106
sS'cuesti\xc3\xb3n'
p5394
I106
sS'ignora'
p5395
I106
sS'me\xe2\x80\x9d'
p5396
I106
sS'fucking'
p5397
I83
sS'understood'
p5398
I106
sS'"we'
p5399
I106
sS'\xe2\x96\xb6'
p5400
I105
sS'thotful'
p5401
I106
sS'js'
p5402
I105
sS'prom'
p5403
I104
sS'ojos'
p5404
I106
sS'prob'
p5405
I106
sS'entrenando'
p5406
I103
sS'queremos'
p5407
I101
sS'leones'
p5408
I94
sS's/o'
p5409
I106
sS'nuevo'
p5410
I76
sS'bayern'
p5411
I101
sS'nueva'
p5412
I101
sS'decidete'
p5413
I106
sS'proooove'
p5414
I106
sS'plaza'
p5415
I106
sS'09:47:39.0,33.926934,-118.2068419,5402.03,el'
p5416
I106
sS'range'
p5417
I106
sS'chapin'
p5418
I106
sS'cech'
p5419
I106
sS'wanna'
p5420
I84
sS'amarga'
p5421
I106
sS'mommy'
p5422
I104
sS'momma'
p5423
I106
sS'because'
p5424
I98
sS'you,90262\n482258761617121280,vaniitybree_,2014-06-26'
p5425
I106
sS'ficharlo'
p5426
I106
sS'live'
p5427
I98
sS'fast'
p5428
I104
sS'constipated"'
p5429
I106
sS"we're"
p5430
I102
sS'jesez'
p5431
I106
sS'bruh'
p5432
I97
sS'andy'
p5433
I106
sS'fase'
p5434
I106
sS'fabio'
p5435
I106
sS'girlfriends'
p5436
I106
sS'familia'
p5437
I106
sS'continuar\xc3\xa1'
p5438
I106
sS'calles'
p5439
I106
sS'fries'
p5440
I105
sS"hasn't"
p5441
I104
sS'called'
p5442
I102
sS'bell'
p5443
I106
sS'verdaderos'
p5444
I106
sS'liking'
p5445
I105
sS're\xc3\xadr'
p5446
I106
sS'rainy'
p5447
I106
sS'asssssss'
p5448
I106
sS'peace'
p5449
I106
sS'cuenta'
p5450
I105
sS'perfil'
p5451
I106
sS'income'
p5452
I106
sS'nice'
p5453
I95
sS'desvelarse'
p5454
I106
sS'noche'
p5455
I100
sS'a\xc3\xb1o'
p5456
I103
sS'problema'
p5457
I106
sS'wonton'
p5458
I106
sS'\xd8\xa7\xd9\x84\xd9\x82\xd8\xb7\xd8\xa7\xd8\xb1\xd8\xa7\xd8\xaa\xe2\x80\xa6'
p5459
I106
sS'muchos'
p5460
I103
sS'c.f'
p5461
I106
sS'once'
p5462
I104
sS'edc'
p5463
I96
sS'kross'
p5464
I106
sS'gant'
p5465
I106
sS'arbeloa'
p5466
I106
sS'fichajesferguson'
p5467
I106
sS'underachievers'
p5468
I106
sS'gana'
p5469
I105
sS'gane'
p5470
I106
sS'seguirme'
p5471
I64
sS'gano'
p5472
I106
sS'issues'
p5473
I106
sS'ticket\xe2\x9d\xa4\xef\xb8\x8f'
p5474
I106
sS'confirmation'
p5475
I106
sS'vestir'
p5476
I105
sS'drinking'
p5477
I105
sS'niggas,90262\n502336486126022656,dopeitsdvlce,2014-08-21'
p5478
I106
sS'juvie'
p5479
I106
sS'deals'
p5480
I106
sS'arbitraje'
p5481
I106
sS'atletico'
p5482
I104
sS'\xe2\x9d\xa4'
p5483
I104
sS'\xc2\xa1la'
p5484
I106
sS'usando'
p5485
I106
sS"stella's"
p5486
I106
sS'waiting'
p5487
I101
sS'niggaa'
p5488
I106
sS'\xd9\x88'
p5489
I105
sS'slurpee...and'
p5490
I106
sS'mahoma'
p5491
I106
sS'sext'
p5492
I106
sS'riquelme'
p5493
I106
sS'sexy'
p5494
I103
sS'sayin'
p5495
I106
sS'shades'
p5496
I106
sS'grandes'
p5497
I63
sS'suggests'
p5498
I106
sS'casilla'
p5499
I106
sS'dejar'
p5500
I105
sS'use'
p5501
I104
sS'hahahahaha'
p5502
I106
sS'from'
p5503
I71
sS'usa'
p5504
I91
sS'pr\xc3\xb3ximas'
p5505
I105
sS'feo'
p5506
I106
sS'fem'
p5507
I106
sS'frog'
p5508
I106
sS'scariest'
p5509
I106
sS'sumarse'
p5510
I106
sS'und\xc3\xa9cima."'
p5511
I106
sS'comentan'
p5512
I106
sS'sore'
p5513
I105
sS'equipo...........este'
p5514
I106
sS'women'
p5515
I106
sS'\xe2\x9c\x8b,90262\n482252174437515264,vaniitybree_,2014-06-26'
p5516
I106
sS'cocinero'
p5517
I106
sS'6...grandes'
p5518
I106
sS'aight'
p5519
I106
sS'patron'
p5520
I106
sS'cierra'
p5521
I105
sS'cierre'
p5522
I106
sS'sentimientos'
p5523
I105
sS'something'
p5524
I102
sS'mostr\xc3\xb3'
p5525
I106
sS'tan'
p5526
I104
sS'sis'
p5527
I106
sS'summers'
p5528
I106
sS'united'
p5529
I92
sS'sit'
p5530
I104
sS'ayer....para'
p5531
I106
sS'brian'
p5532
I106
sS'instead'
p5533
I102
sS'panic'
p5534
I106
sS'sin'
p5535
I98
sS'tension'
p5536
I106
sS'puppets'
p5537
I106
sS'hazard'
p5538
I106
sS'wrist'
p5539
I106
sS'reunir\xc3\xa1'
p5540
I106
sS'martins'
p5541
I106
sS'crunchwrap'
p5542
I106
sS'honestly'
p5543
I104
sS'lol,90262\n411374742910689280,loveseductive,2013-12-13'
p5544
I106
sS'descartar'
p5545
I106
sS'21:53:59.0,33.92416069,-118.20078155,5402.03,yyyyyyyyy'
p5546
I106
sS'ganaremos'
p5547
I102
sS'dia.,90262\n494491019170177024,axelmerida13,2014-07-30'
p5548
I106
sS'pigzradio'
p5549
I106
sS'137'
p5550
I106
sS'looks'
p5551
I101
sS'superior'
p5552
I106
sS'lausana'
p5553
I106
sS'material'
p5554
I106
sS'quiera.,90262\n495071395227783168,axelmerida13,2014-08-01'
p5555
I106
sS'halamadrid.,90262\n495926347626074113,axelmerida13,2014-08-03'
p5556
I106
sS'(welbeck'
p5557
I106
sS'trae'
p5558
I105
sS'lesi\xc3\xb3n'
p5559
I106
sS'nfl'
p5560
I106
sS'feast'
p5561
I106
sS'firmaron'
p5562
I106
sS'bills'
p5563
I106
sS'llegar\xc3\xa1'
p5564
I106
sS'our'
p5565
I99
sS'gaaaadayum'
p5566
I106
sS'out'
p5567
I71
sS'thots'
p5568
I106
sS'(rmtv)'
p5569
I106
sS'conflicto'
p5570
I106
sS'o.o'
p5571
I106
sS'bedazzler'
p5572
I106
sS'tom\xc3\xa1sbale'
p5573
I106
sS'york'
p5574
I104
sS'm\xc3\xa9xico'
p5575
I103
sS'g'
p5576
I105
sS'4th'
p5577
I106
sS'esperando'
p5578
I105
sS'*'
p5579
I106
sS"doesn't"
p5580
I100
sS'falcaoes'
p5581
I106
sS'redondo'
p5582
I106
sS'realidad'
p5583
I106
sS'door'
p5584
I106
sS'estemos'
p5585
I106
sS'their'
p5586
I103
sS',90262\n481009254082428928,vaniitybree_,2014-06-23'
p5587
I106
sS'l\xc3\xb3pez'
p5588
I103
sS'july'
p5589
I106
sS'holland'
p5590
I105
sS'mmkay'
p5591
I106
sS'patients'
p5592
I106
sS"leg's"
p5593
I106
sS'fuuuuuuuuck'
p5594
I106
sS'barber>>>'
p5595
I105
sS'north'
p5596
I106
sS'presentar\xc3\xa1n'
p5597
I105
sS'afraid'
p5598
I106
sS'..simplemente'
p5599
I106
sS'--->>'
p5600
I106
sS'negredo'
p5601
I105
sS'which'
p5602
I105
sS'asshole'
p5603
I105
sS'='
p5604
I105
sS'vaya'
p5605
I106
sS'lugar'
p5606
I106
sS'who'
p5607
I87
sS'snacking'
p5608
I106
sS'15:03:44.0,33.926939,-118.2069236,5402.03,el'
p5609
I106
sS'class'
p5610
I104
sS'descargar!en'
p5611
I106
sS'deng'
p5612
I106
sS'uefa'
p5613
I103
sS'dijo'
p5614
I104
sS',90262\n481505005770252288,vaniitybree_,2014-06-24'
p5615
I106
sS'presentando'
p5616
I106
sS'chicken'
p5617
I105
sS'debate'
p5618
I106
sS'informado'
p5619
I106
sS'ha'
p5620
I92
sS'astley'
p5621
I106
sS'//t.co/gfcmxpam4t'
p5622
I106
sS'pensar'
p5623
I105
sS'he'
p5624
I78
sS'local'
p5625
I106
sS'b\xe2\x80\xa6'
p5626
I106
sS'watching'
p5627
I102
sS'dope'
p5628
I105
sS'99%'
p5629
I106
sS'bronce'
p5630
I106
sS'community'
p5631
I106
sS'ones'
p5632
I105
sS'tierra'
p5633
I104
sS'melt,90262\n502336598449475585,dopeitsdvlce,2014-08-21'
p5634
I106
sS'qt'
p5635
I106
sS'gianluigi'
p5636
I106
sS'married'
p5637
I106
sS'jaime'
p5638
I104
sS'b\xe2\x80\x9d'
p5639
I106
sS'view'
p5640
I106
sS'available'
p5641
I105
sS'heathens'
p5642
I106
sS'alistan'
p5643
I106
sS'acquired'
p5644
I106
sS'cmrn'
p5645
I106
sS'\xc3\xbaltimo'
p5646
I105
sS'\xc3\xbaltima'
p5647
I104
sS'mexicana'
p5648
I106
sS'\xc2\xa1leyendas'
p5649
I106
sS'mexicano'
p5650
I97
sS'stories'
p5651
I103
sS'am\xc3\xa9ricacopa'
p5652
I106
sS'bought'
p5653
I103
sS'trynna'
p5654
I101
sS'anotaron'
p5655
I106
sS'job'
p5656
I100
sS'renunciado'
p5657
I106
sS'jog'
p5658
I106
sS'jon'
p5659
I106
sS'benzema'
p5660
I100
sS'papajuan'
p5661
I106
sS'llegada'
p5662
I91
sS'wall'
p5663
I106
sS'llegado'
p5664
I105
sS'walk'
p5665
I106
sS'resuelta'
p5666
I106
sS'tabla'
p5667
I104
sS'amigo'
p5668
I89
sS'salgado'
p5669
I106
sS'jugara'
p5670
I104
sS'gods\xe2\x80\x9d'
p5671
I106
sS'responde'
p5672
I106
sS'liverpool'
p5673
I105
sS'hmu'
p5674
I101
sS'se\xc3\xb1or'
p5675
I106
sS'maldici\xc3\xb3n'
p5676
I106
sS'05:12:23.0,33.928507,-118.208948,5402.03,puroparywey'
p5677
I106
sS'unlike'
p5678
I106
sS'vicki'
p5679
I106
sS'abandonen'
p5680
I106
sS'will'
p5681
I90
sS'madrid..............buenisimoo'
p5682
I106
sS'impensable.,90262\n508858746068414466,axelmerida13,2014-09-08'
p5683
I106
sS'halp'
p5684
I106
sS'vape'
p5685
I106
sS'doblete'
p5686
I106
sS'thug'
p5687
I106
sS'sociales'
p5688
I106
sS'mesican'
p5689
I106
sS'whore'
p5690
I105
sS'cross'
p5691
I105
sS'gets'
p5692
I104
sS'fellaini'
p5693
I106
sS'ganasmotivaci\xc3\xb3n'
p5694
I106
sS'coaches'
p5695
I106
sS'l\xc3\xadderes"'
p5696
I106
sS'deshawn'
p5697
I106
sS'fighting'
p5698
I106
sS'l\xc3\xadder'
p5699
I104
sS'drogba'
p5700
I103
sS"should've"
p5701
I105
sS'obtain'
p5702
I106
sS'drunk'
p5703
I103
sS'sonrisa'
p5704
I102
sS'earthquakes'
p5705
I106
sS'presi'
p5706
I106
sS'myth'
p5707
I106
sS"who's"
p5708
I104
sS'basically...no'
p5709
I106
sS'thoooo'
p5710
I106
sS'miami'
p5711
I106
sS'mundoes'
p5712
I106
sS'bitch"'
p5713
I106
sS',90262\n481008820206845953,vaniitybree_,2014-06-23'
p5714
I106
sS'nigga'
p5715
I94
sS'food...but'
p5716
I106
sS'scared'
p5717
I106
sS'recordando'
p5718
I106
sS'tumblr'
p5719
I106
sS'debuto'
p5720
I106
sS'jeremy'
p5721
I104
sS'lead'
p5722
I106
sS'scoscia,90262\n490011005838036992,superjuan59,2014-07-18'
p5723
I106
sS'debuta'
p5724
I104
sS'totti'
p5725
I106
sS'--t'
p5726
I106
sS'dia.,90262\n494855954001694724,axelmerida13,2014-07-31'
p5727
I106
sS'leader'
p5728
I103
sS'debuts'
p5729
I106
sS'exitos.,90262\n505617037062717440,axelmerida13,2014-08-30'
p5730
I106
sS'04:44:26.0,33.9269151,-118.2068282,5402.03,diego'
p5731
I106
sS'kd7'
p5732
I106
sS'sac\xc3\xb3'
p5733
I106
sS'carried'
p5734
I106
sS'getting'
p5735
I82
sS'ashe'
p5736
I106
sS'daras'
p5737
I106
sS'raro'
p5738
I106
sS'swear'
p5739
I105
sS'sweat'
p5740
I106
sS'own'
p5741
I98
sS'chamo'
p5742
I106
sS'weather'
p5743
I101
sS'champ'
p5744
I106
sS'fired'
p5745
I106
sS'conjunto'
p5746
I106
sS'van'
p5747
I103
sS'transfer'
p5748
I106
sS'appt'
p5749
I106
sS'vas'
p5750
I100
sS'alexa'
p5751
I106
sS"i've"
p5752
I95
sS'estaria'
p5753
I106
sS'\xc2\xa1bienvenido'
p5754
I106
sS'bitches'
p5755
I102
sS'squeeze'
p5756
I106
sS'\xe2\x80\x9cplan'
p5757
I106
sS'made'
p5758
I96
sS'chicharito"'
p5759
I106
sS'karts'
p5760
I106
sS'record'
p5761
I105
sS'05:52:20.0,33.9303112,-118.200483,5402.03,i'
p5762
I106
sS'cake'
p5763
I103
sS'faggot'
p5764
I106
sS'01:22:23.0,33.92973798,-118.20414392,5402.03,i'
p5765
I106
sS'negociar'
p5766
I106
sS'sebasti\xc3\xa1n'
p5767
I99
sS'---'
p5768
I106
sS'humanized'
p5769
I106
sS'mundialistas'
p5770
I106
sS'incredible'
p5771
I106
sS'other'
p5772
I101
sS'empez\xc3\xb3'
p5773
I106
sS'sick'
p5774
I103
sS'boob'
p5775
I105
sS'english\xe2\x9d\xa4\xef\xb8\x8f'
p5776
I106
sS'nacer'
p5777
I106
sS'romareal'
p5778
I106
sS'"gunners"'
p5779
I106
sS'dhod'
p5780
I106
sS'kinda'
p5781
I104
sS'ronaldinho..un'
p5782
I106
sS'sleeves'
p5783
I106
sS'coleccion'
p5784
I106
s.