(dp0
S''
p1
I9
sS'all'
p2
I13
sS'melts'
p3
I15
sS'rt,90221\n454796346705182720,castleeees,2014-04-12'
p4
I15
sS'horseback'
p5
I15
sS'go'
p6
I12
sS'follow'
p7
I15
sS'00:19:51.0,33.90136774,-118.21684043,5416.06,watching'
p8
I15
sS'hate'
p9
I14
sS"13:41:50.0,33.89607652,-118.21979329,5416.06,i'm"
p10
I15
sS'tweet'
p11
I15
sS'to'
p12
I5
sS'retweets'
p13
I15
sS'aveses'
p14
I14
sS':d'
p15
I15
sS'every'
p16
I13
sS'reler'
p17
I15
sS'missionary'
p18
I14
sS'23:25:17.0,33.899192,-118.2172105,5416.06,i'
p19
I15
sS'recreation'
p20
I15
sS'did'
p21
I15
sS'._.,90221\n495367900635467776,boii10,2014-08-02'
p22
I15
sS'wednesday'
p23
I15
sS'01:20:15.0,33.89696707,-118.21968684,5416.06,,90221\n492116573839056896,tiaraanicolee_,2014-07-24'
p24
I15
sS'this'
p25
I12
sS':),90221\n489589727985537025,ivan1goalie,2014-07-17'
p26
I15
sS'bro,90221\n435145334432362497,nonshalaunt__,2014-02-16'
p27
I15
sS'guy'
p28
I15
sS'clothes'
p29
I15
sS"i'll"
p30
I15
sS'17:24:24.0,33.89685593,-118.21587513,5416.06,final'
p31
I15
sS'n'
p32
I15
sS'even'
p33
I13
sS'what'
p34
I12
sS'01:51:10.0,33.89650305,-118.2194695,5416.06,that'
p35
I15
sS'(compton'
p36
I15
sS'while'
p37
I15
sS'lmfao'
p38
I14
sS'new'
p39
I15
sS'23:05:06.0,33.8987832,-118.2182813,5416.06,i'
p40
I15
sS'me,90221\n477512403354005504,cesargv95,2014-06-13'
p41
I15
sS'exercise'
p42
I15
sS'told'
p43
I15
sS'14:24:23.0,33.89648654,-118.21782916,5416.06,trust'
p44
I15
sS'here'
p45
I15
sS'fkla'
p46
I15
sS'\xe2\x9d\xa4\xef\xb8\x8f'
p47
I14
sS'let'
p48
I13
sS'slut'
p49
I14
sS'&&'
p50
I15
sS'\xe2\x9c\x8b'
p51
I15
sS'21:02:16.0,33.89612748,-118.21990166,5416.06,barbershop'
p52
I15
sS'survey'
p53
I15
sS"i'm"
p54
I11
sS'lmfaoooo'
p55
I15
sS'love'
p56
I14
sS'23:36:26.0,33.9013155,-118.2169316,5416.06,jamming'
p57
I15
sS'extra'
p58
I15
sS'bro'
p59
I15
sS'stop,90221\n528326062544285696,jennilo14,2014-10-31'
p60
I15
sS'ash'
p61
I15
sS'would'
p62
I14
sS'&'
p63
I14
sS'kiddos'
p64
I15
sS'ca)'
p65
I15
sS'doubt'
p66
I15
sS'music'
p67
I15
sS'gouting'
p68
I15
sS'today'
p69
I11
sS'loving'
p70
I15
sS'tryna'
p71
I15
sS'on'
p72
I6
sS'halloween'
p73
I15
sS'phone'
p74
I15
sS'stick'
p75
I15
sS'must'
p76
I15
sS'me'
p77
I11
sS'niggas'
p78
I15
sS'tonight.\xe2\x80\x9dit'
p79
I15
sS'car'
p80
I15
sS'work'
p81
I14
sS'can'
p82
I15
sS'elbow'
p83
I15
sS'my'
p84
I4
sS'def'
p85
I15
sS'give'
p86
I14
sS'process'
p87
I15
sS"didn't"
p88
I15
sS'fuck'
p89
I15
sS'want'
p90
I15
sS'clothing'
p91
I15
sS'23:15:08.0,33.899192,-118.2172105,5416.06,that'
p92
I15
sS'rather'
p93
I15
sS'means'
p94
I15
sS'how'
p95
I13
sS'hot'
p96
I15
sS'church,90221\n495407226400432128,tiaraanicolee_,2014-08-02'
p97
I15
sS'interview'
p98
I15
sS'map'
p99
I15
sS'okay'
p100
I14
sS'17:20:02.0,33.8987985,-118.2183099,5416.06,now'
p101
I15
sS'bday'
p102
I15
sS'cuhz'
p103
I15
sS'after'
p104
I15
sS',90221\n515654467992039424,doctorcovington,2014-09-27'
p105
I15
sS'coming'
p106
I15
sS'a'
p107
I2
sS'17:42:17.0,33.89823182,-118.21942708,5416.06,church'
p108
I15
sS'\xe2\x99\xa5,90221\n491694837662375936,_krazy562,2014-07-22'
p109
I15
sS'appreciate'
p110
I15
sS'home,90221\n482660923010580480,jennilo14,2014-06-27'
p111
I15
sS'so'
p112
I10
sS'se'
p113
I15
sS"don't"
p114
I14
sS'over'
p115
I15
sS'move'
p116
I15
sS'idgi'
p117
I15
sS'still'
p118
I15
sS'its'
p119
I12
sS'it,90221\n528317898520281088,jennilo14,2014-10-31'
p120
I15
sS'thank'
p121
I15
sS"he's"
p122
I14
sS"00:59:45.0,33.899192,-118.2172105,5416.06,i'm"
p123
I15
sS'sunday'
p124
I13
sS'[pic]'
p125
I15
sS'late'
p126
I15
sS'tweets'
p127
I15
sS'might'
p128
I15
sS'into'
p129
I15
sS'lot,90221\n477513220609961984,cesargv95,2014-06-13'
p130
I15
sS'dam'
p131
I14
sS'eat'
p132
I15
sS'break'
p133
I15
sS'lunch'
p134
I15
sS"i've"
p135
I15
sS'fingers,90221\n437675709637464065,dajuaa_moneaa,2014-02-23'
p136
I15
sS'st'
p137
I13
sS'not'
p138
I12
sS'now'
p139
I15
sS'ahaha'
p140
I15
sS'day'
p141
I13
sS'wont'
p142
I15
sS',90221\n515579519869419520,jennilo14,2014-09-26'
p143
I15
sS'always'
p144
I15
sS'goodness'
p145
I15
sS'victory'
p146
I11
sS'everyone'
p147
I15
sS'upstairs'
p148
I15
sS'00:20:26.0,33.89655876,-118.21958937,5416.06,im'
p149
I15
sS'me,90221\n492086151398711296,tiaraanicolee_,2014-07-23'
p150
I15
sS',90221\n497185809427357696,jennilo14,2014-08-07'
p151
I15
sS'year'
p152
I15
sS'our'
p153
I10
sS'girl'
p154
I13
sS'out'
p155
I12
sS'01:08:01.0,33.90333024,-118.21745549,5416.06,forgot'
p156
I15
sS'14:44:23.0,33.89865184,-118.21935442,5416.06,church'
p157
I15
sS'missed'
p158
I15
sS'space'
p159
I15
sS'god'
p160
I15
sS'seriously'
p161
I14
sS'smh'
p162
I15
sS'got'
p163
I15
sS'cause'
p164
I15
sS'......ijs'
p165
I15
sS'mascara'
p166
I15
sS'website'
p167
I15
sS'it.me'
p168
I15
sS'backed'
p169
I15
sS'wanted'
p170
I15
sS'01:18:28.0,33.89689616,-118.21978516,5416.06,myyy'
p171
I15
sS'could'
p172
I15
sS'filter'
p173
I15
sS'turn'
p174
I15
sS'go,90221\n528342100325462016,jennilo14,2014-11-01'
p175
I15
sS'w'
p176
I15
sS'think'
p177
I15
sS'cheese'
p178
I14
sS'already'
p179
I15
sS'dont'
p180
I15
sS'feel'
p181
I15
sS'elisa,90221\n474288602931687425,cesargv95,2014-06-04'
p182
I15
sS',90221\n492101965858349056,tiaraanicolee_,2014-07-24'
p183
I15
sS'one'
p184
I15
sS'featured'
p185
I15
sS'long'
p186
I15
sS'thick'
p187
I15
sS'tomorrow'
p188
I15
sS'01:27:49.0,33.899192,-118.2172105,5416.06,i'
p189
I15
sS'city'
p190
I15
sS'guess'
p191
I15
sS'lmao,90221\n474287488798711808,cesargv95,2014-06-04'
p192
I15
sS'nigguhhs'
p193
I15
sS'too'
p194
I15
sS'x)'
p195
I15
sS'bones,90221\n500344184453070849,d3adlights,2014-08-15'
p196
I15
sS'jesus'
p197
I15
sS'hi,90221\n360142982764167168,omgjohnwtf,2013-07-24'
p198
I15
sS'park'
p199
I14
sS'lol,90221\n492382805762908160,danwantsmoar,2014-07-24'
p200
I15
sS'fat!,90221\n509127066621865984,ssabrinao__,2014-09-08'
p201
I15
sS'morning,90221\n477513391011950592,cesargv95,2014-06-13'
p202
I15
sS'boyfriend'
p203
I15
sS'bring,90221\n477512651291889664,cesargv95,2014-06-13'
p204
I15
sS'b'
p205
I15
sS'lmao'
p206
I15
sS'alameda'
p207
I14
sS'bother'
p208
I15
sS'i'
p209
I3
sS'dead,90221\n528357710837080064,jennilo14,2014-11-01'
p210
I15
sS'feeling'
p211
I15
sS'ousted'
p212
I15
sS'and'
p213
I9
sS'weak,90221\n456138373480984577,hoodratdanny,2014-04-15'
p214
I15
sS'23:17:35.0,33.89693594,-118.21945634,5416.06,astronaut'
p215
I15
sS'talking'
p216
I14
sS'18:33:57.0,33.89607526,-118.21807978,5416.06,my'
p217
I15
sS'graffiti'
p218
I14
sS'have'
p219
I11
sS'need'
p220
I14
sS'02:58:58.0,33.89778694,-118.21979759,5416.06,today'
p221
I15
sS'wilson'
p222
I14
sS'morning,90221\n366570799332720640,ashley_lovecali,2013-08-11'
p223
I15
sS'that'
p224
I10
sS'able'
p225
I15
sS'parks'
p226
I15
sS'take'
p227
I14
sS'03:30:32.0,33.9027905,-118.2162946,5416.06,r.i.p'
p228
I15
sS'00:09:40.0,33.89726472,-118.2195192,5416.06,high'
p229
I15
sS'oops'
p230
I15
sS'play'
p231
I15
sS'unless'
p232
I15
sS'shall'
p233
I15
sS'who'
p234
I15
sS'hired'
p235
I15
sS'why'
p236
I15
sS'17:54:14.0,33.8987985,-118.2183099,5416.06,i'
p237
I15
sS'flow'
p238
I15
sS'face'
p239
I15
sS'saying'
p240
I15
sS'lmaoo'
p241
I15
sS'niggggaaaaaaaaaaa'
p242
I15
sS'lmao\xe2\x80\x9d'
p243
I15
sS'weight.me'
p244
I15
sS'fine'
p245
I15
sS'worry,90221\n528324321874563072,jennilo14,2014-10-31'
p246
I15
sS'soon,90221\n399439056108392448,bernanaaa,2013-11-10'
p247
I15
sS'22:49:37.0,33.899192,-118.2172105,5416.06,not'
p248
I15
sS'should'
p249
I15
sS'yea'
p250
I15
sS'only'
p251
I14
sS'going'
p252
I13
sS'04:37:52.0,33.89738352,-118.21883846,5416.06,when'
p253
I15
sS'pretty'
p254
I15
sS'riding'
p255
I15
sS'lol,90221\n360142915823083522,omgjohnwtf,2013-07-24'
p256
I15
sS'do'
p257
I14
sS'get'
p258
I12
sS'(church)'
p259
I15
sS'kind'
p260
I15
sS'awww'
p261
I15
sS'he'
p262
I12
sS":'("
p263
I15
sS'she'
p264
I13
sS":'/"
p265
I15
sS'21:02:32.0,33.8962534,-118.21962926,5416.06,barbershop'
p266
I15
sS'gotta'
p267
I15
sS"y'all"
p268
I15
sS'set'
p269
I15
sS'20:15:06.0,33.8985222,-118.2191439,5416.06,chuch'
p270
I15
sS'sex'
p271
I15
sS'see'
p272
I14
sS'college'
p273
I15
sS'parking'
p274
I15
sS'19:49:55.0,33.8977026,-118.2195947,5416.06,my'
p275
I15
sS'said'
p276
I12
sS'haha,90221\n492382275615461377,danwantsmoar,2014-07-24'
p277
I15
sS'temptation'
p278
I15
sS'mayor'
p279
I15
sS'probably'
p280
I15
sS'me..,90221\n'
p281
I15
sS'we'
p282
I15
sS'omg'
p283
I15
sS'clarifying!,90221\n488373389082390528,ivan1goalie,2014-07-13'
p284
I15
sS'job'
p285
I15
sS',90221\n468551882969845761,boii10,2014-05-20'
p286
I15
sS'blame'
p287
I15
sS'last'
p288
I15
sS'compton'
p289
I13
sS'no!!,90221\n437675426807181312,dajuaa_moneaa,2014-02-23'
p290
I15
sS'19:48:48.0,33.8977026,-118.2195947,5416.06,its'
p291
I15
sS'comment'
p292
I15
sS'02:47:28.0,33.9033157,-118.21656081,5416.06,\xe2\x9c\xa8'
p293
I15
sS'la,90221\n459870784765190144,castleeees,2014-04-26'
p294
I15
sS'ca'
p295
I15
sS'then.,90221\n477671238332973057,armand_fhkabq,2014-06-14'
p296
I15
sS'church'
p297
I9
sS'23:12:20.0,33.899192,-118.2172105,5416.06,well'
p298
I15
sS'fckkkkkkk'
p299
I15
sS'caring'
p300
I15
sS'man..,90221\n418888545420324864,simply_estela,2014-01-02'
p301
I15
sS'asks'
p302
I15
sS'skatepark'
p303
I15
sS"it's"
p304
I14
sS"23:18:03.0,33.899192,-118.2172105,5416.06,it's"
p305
I15
sS'been'
p306
I14
sS'much'
p307
I14
sS'is,90221\n502240875347734529,gabbagabbie132,2014-08-20'
p308
I15
sS'pain.,90221\n509870946019049472,bquerrico,2014-09-11'
p309
I15
sS'meeting'
p310
I15
sS'...ijs'
p311
I15
sS'life'
p312
I14
sS'gay'
p313
I15
sS'hmu'
p314
I15
sS',90221\n492117019332857856,tiaraanicolee_,2014-07-24'
p315
I15
sS'18:05:58.0,33.8987985,-118.2183099,5416.06,why'
p316
I15
sS'xd,90221\n491793915909910528,abrica_karina,2014-07-23'
p317
I15
sS'wish'
p318
I15
sS'hmm'
p319
I15
sS'church)'
p320
I12
sS'chill'
p321
I15
sS'these'
p322
I15
sS'23:52:06.0,33.8963585,-118.2159233,5416.06,gonna'
p323
I15
sS'will'
p324
I13
sS'boo...too'
p325
I15
sS'01:01:48.0,33.8984377,-118.2169831,5416.06,i'
p326
I15
sS'ratchet'
p327
I15
sS'lol,90221\n477513155124293633,cesargv95,2014-06-13'
p328
I15
sS'theres'
p329
I15
sS'\xe2\x9c\x8c\xef\xb8\x8f,90221\n509127759759949825,ssabrinao__,2014-09-08'
p330
I15
sS'tonight,90221\n528350649394954241,jennilo14,2014-11-01'
p331
I15
sS'is'
p332
I9
sS'sushi'
p333
I15
sS'purse'
p334
I15
sS'it'
p335
I9
sS'in'
p336
I9
sS'ironic'
p337
I15
sS'if'
p338
I15
sS'funny'
p339
I15
sS'make'
p340
I15
sS'party'
p341
I15
sS'puttin'
p342
I15
sS'defs'
p343
I15
sS'girl....,90221\n423650476999983105,danwantsmoar,2014-01-16'
p344
I15
sS'kik'
p345
I15
sS'fucken'
p346
I15
sS'jealous'
p347
I15
sS'tracking'
p348
I14
sS'burrito'
p349
I15
sS"00:25:47.0,33.899192,-118.2172105,5416.06,we're"
p350
I15
sS'blesssd'
p351
I15
sS'well'
p352
I15
sS'smoker'
p353
I15
sS'thought'
p354
I15
sS'greatest'
p355
I15
sS'inspirational'
p356
I13
sS'y'
p357
I15
sS'the'
p358
I1
sS'coke?\xe2\x80\x9d,90221\n493575938227982337,ernestitoo_,2014-07-28'
p359
I15
sS'left'
p360
I15
sS'summer'
p361
I15
sS'they'
p362
I15
sS'just'
p363
I9
sS'being'
p364
I15
sS'photo'
p365
I14
sS'thanks'
p366
I15
sS'yes'
p367
I15
sS'homiee'
p368
I15
sS'family'
p369
I13
sS'cup'
p370
I15
sS"everyone's"
p371
I15
sS'killed'
p372
I15
sS'parents'
p373
I15
sS'retreat'
p374
I15
sS'ecmkrew\xc2\xa1,90221\n374225714708357120,ashley_lovecali,2013-09-01'
p375
I15
sS'homies'
p376
I15
sS'excited'
p377
I15
sS'match'
p378
I15
sS'real'
p379
I15
sS'around'
p380
I15
sS'big'
p381
I15
sS"who's"
p382
I15
sS'gonna'
p383
I13
sS'game'
p384
I15
sS'mom'
p385
I15
sS'world'
p386
I15
sS'lady'
p387
I10
sS'projects'
p388
I15
sS',90221\n506996872406241280,bquerrico,2014-09-03'
p389
I15
sS'like'
p390
I13
sS'tonight,90221\n528305254073634816,jennilo14,2014-10-31'
p391
I15
sS't'
p392
I14
sS'lose'
p393
I15
sS'meng,90221\n474289116591316992,cesargv95,2014-06-04'
p394
I15
sS'become'
p395
I15
sS"patrick's"
p396
I15
sS'old'
p397
I15
sS'back'
p398
I15
sS'home'
p399
I15
sS'ehhh'
p400
I15
sS'03:14:21.0,33.9000126,-118.22057021,5416.06,party'
p401
I15
sS'mood'
p402
I15
sS'for'
p403
I7
sS'23:23:01.0,33.899192,-118.2172105,5416.06,plz'
p404
I15
sS'hurting,90221\n480408366611574784,jennilo14,2014-06-21'
p405
I15
sS"21:59:22.0,33.899192,-118.2172105,5416.06,doesn't"
p406
I15
sS'be'
p407
I9
sS'business'
p408
I15
sS':/,90221\n480411319300943872,jennilo14,2014-06-21'
p409
I15
sS'it,90221\n360146412723372033,omgjohnwtf,2013-07-24'
p410
I15
sS'palmer'
p411
I15
sS'puede'
p412
I15
sS'23:43:20.0,33.9011802,-118.2168689,5416.06,i'
p413
I15
sS'super'
p414
I15
sS'by'
p415
I15
sS'faith'
p416
I12
sS'about'
p417
I13
sS'ok'
p418
I15
sS':-/'
p419
I15
sS',90221\n482340328460918784,tiaraanicolee_,2014-06-27'
p420
I15
sS'oh'
p421
I15
sS'of'
p422
I8
sS'02:58:39.0,33.902909,-118.219001,5416.06,this'
p423
I15
sS'day.me'
p424
I15
sS'01:57:28.0,33.89769933,-118.21754338,5416.06,its'
p425
I15
sS'idk'
p426
I15
sS'wanna'
p427
I14
sS'flow,90221\n405897779106422784,bernanaaa,2013-11-28'
p428
I15
sS'17:42:56.0,33.8987985,-118.2183099,5416.06,i'
p429
I15
sS'23:22:03.0,33.899192,-118.2172105,5416.06,stop'
p430
I15
sS'quickly,90221\n362414950171414530,anthonycarball1,2013-07-31'
p431
I15
sS'well,90221\n528323616526831616,jennilo14,2014-10-31'
p432
I15
sS'blessed'
p433
I15
sS'selflessly'
p434
I15
sS'today,90221\n480405522856681472,jennilo14,2014-06-21'
p435
I15
sS'your'
p436
I15
sS'her'
p437
I15
sS'jealousy'
p438
I15
sS'lol'
p439
I14
sS'kidding'
p440
I15
sS'start'
p441
I15
sS'way'
p442
I14
sS'bruh'
p443
I15
sS'bored'
p444
I15
sS'was'
p445
I13
sS'happy'
p446
I14
sS',90221\n528326873466822656,jennilo14,2014-10-31'
p447
I15
sS'fasho'
p448
I14
sS'bus'
p449
I15
sS'but'
p450
I15
sS'larry'
p451
I15
sS'mich'
p452
I15
sS'line'
p453
I15
sS'trying'
p454
I15
sS'with'
p455
I10
sS'inspirational\xe2\x80\xa6'
p456
I15
sS'posted'
p457
I14
sS'compton-downtown'
p458
I15
sS'baptist'
p459
I14
sS"wasn't"
p460
I15
sS',90221\n480399759111233538,jennilo14,2014-06-21'
p461
I15
sS'up'
p462
I13
sS'us'
p463
I15
sS'03:56:21.0,33.8962166,-118.2189151,5416.06,the'
p464
I15
sS'pumped'
p465
I15
sS'gone'
p466
I15
sS'154'
p467
I15
sS'tournament'
p468
I15
sS'am'
p469
I15
sS'as'
p470
I15
sS'at'
p471
I12
sS'aw'
p472
I15
sS'check'
p473
I15
sS'shit'
p474
I15
sS'no'
p475
I14
sS'nah'
p476
I15
sS',90221\n418890280704569345,simply_estela,2014-01-02'
p477
I15
sS"23:48:50.0,33.9015136,-118.216767,5416.06,you're"
p478
I15
sS'nap'
p479
I15
sS'teleported'
p480
I15
sS'you'
p481
I9
sS'really'
p482
I15
sS'19:11:51.0,33.8993384,-118.2172511,5416.06,i'
p483
I15
sS'diet'
p484
I15
sS'stay'
p485
I14
sS"let's"
p486
I15
sS'you,90221\n528326303733518336,jennilo14,2014-10-31'
p487
I15
sS'kinda'
p488
I14
sS'loco,90221\n465038305890140160,boii10,2014-05-10'
p489
I15
sS'e'
p490
I14
sS'together'
p491
I15
sS'mass'
p492
I15
sS'time'
p493
I14
sS'fresh'
p494
I15
sS'no,90221\n528325054804021249,jennilo14,2014-10-31'
p495
I15
s.