(dp0
S''
p1
I1
sS'all'
p2
I16
sS':/'
p3
I27
sS':('
p4
I28
sS':)'
p5
I25
sS'messi'
p6
I27
sS'skip'
p7
I27
sS'ale'
p8
I27
sS'mcdivitt'
p9
I28
sS'dwn-twn'
p10
I28
sS'coach'
p11
I28
sS'go'
p12
I17
sS'meditation'
p13
I28
sS'hate'
p14
I28
sS'woooow'
p15
I28
sS'rd'
p16
I28
sS'nice.\xe2\x80\x9d'
p17
I28
sS'tweet'
p18
I28
sS'young'
p19
I28
sS'send'
p20
I28
sS'to'
p21
I5
sS'finally'
p22
I26
sS'again\xe2\x80\x9d'
p23
I28
sS'chivas'
p24
I28
sS'preview'
p25
I28
sS'lord'
p26
I27
sS'sorry'
p27
I27
sS'worth'
p28
I28
sS'shoot'
p29
I28
sS'rbj3\xe2\x80\x9d'
p30
I28
sS'wished'
p31
I28
sS'worse'
p32
I28
sS'advantage'
p33
I28
sS'song'
p34
I26
sS'horror'
p35
I27
sS'fav'
p36
I28
sS'cypher'
p37
I28
sS'fan'
p38
I27
sS'sunny'
p39
I28
sS'fam'
p40
I28
sS'tutu'
p41
I27
sS'school'
p42
I27
sS'made'
p43
I28
sS'did'
p44
I26
sS'try'
p45
I28
sS'these'
p46
I26
sS'soooo'
p47
I28
sS'team'
p48
I26
sS'small'
p49
I27
sS'lisa'
p50
I28
sS'guy'
p51
I28
sS'artist'
p52
I28
sS'ups'
p53
I28
sS'yall'
p54
I28
sS'tjere'
p55
I28
sS"i'll"
p56
I23
sS'talked'
p57
I28
sS'says'
p58
I28
sS'pasa'
p59
I27
sS'slangin'
p60
I28
sS'till'
p61
I28
sS'miller'
p62
I28
sS'streets'
p63
I27
sS'bacon'
p64
I28
sS'sign'
p65
I28
sS'tires'
p66
I28
sS'burger'
p67
I28
sS'vudu'
p68
I28
sS'video'
p69
I28
sS'picked'
p70
I28
sS'reunion'
p71
I28
sS'download'
p72
I28
sS'6:15'
p73
I28
sS'even'
p74
I27
sS'what'
p75
I14
sS'plays'
p76
I28
sS'anddd'
p77
I28
sS'ugly'
p78
I28
sS'chillin'
p79
I28
sS'cooking'
p80
I28
sS'near'
p81
I28
sS'reunite'
p82
I28
sS'waiting'
p83
I26
sS'version'
p84
I28
sS'valen'
p85
I28
sS'goes'
p86
I28
sS'new'
p87
I26
sS'falling'
p88
I28
sS'racing'
p89
I28
sS'filled'
p90
I28
sS'full'
p91
I27
sS"c'mon"
p92
I26
sS'leg'
p93
I27
sS'never'
p94
I26
sS'here'
p95
I27
sS'10%'
p96
I28
sS'\xe2\x9d\xa4\xef\xb8\x8f'
p97
I27
sS'boii10'
p98
I28
sS'let'
p99
I24
sS'path'
p100
I28
sS'strong'
p101
I28
sS'teacher'
p102
I28
sS'change'
p103
I27
sS'wait'
p104
I27
sS'boy'
p105
I28
sS'great'
p106
I27
sS'kids'
p107
I28
sS'\xe2\x9a\xbd\xef\xb8\x8f'
p108
I28
sS'healthy'
p109
I28
sS'involved'
p110
I28
sS'inspired'
p111
I28
sS'changed'
p112
I27
sS'soldier'
p113
I28
sS'cousins'
p114
I28
sS'weird'
p115
I27
sS'genuinely'
p116
I28
sS'coo'
p117
I28
sS'love'
p118
I27
sS'vid'
p119
I28
sS'extra'
p120
I28
sS'win'
p121
I28
sS'iheartradio'
p122
I28
sS'dedicated'
p123
I28
sS'clout'
p124
I28
sS'bro'
p125
I23
sS'put'
p126
I28
sS'vip'
p127
I27
sS'wit'
p128
I27
sS'crosby'
p129
I28
sS'1st'
p130
I27
sS'stand'
p131
I28
sS'-says'
p132
I28
sS'lime'
p133
I28
sS'everybody'
p134
I28
sS'fee'
p135
I28
sS'eye'
p136
I27
sS'would'
p137
I28
sS'&'
p138
I19
sS'naismith'
p139
I28
sS'dude'
p140
I25
sS'sunday'
p141
I28
sS'live'
p142
I28
sS'recommend'
p143
I28
sS'thru'
p144
I28
sS'angels'
p145
I28
sS'until'
p146
I28
sS'today'
p147
I23
sS'more'
p148
I27
sS'mm'
p149
I28
sS'knows'
p150
I27
sS'conductor'
p151
I28
sS'started'
p152
I28
sS'fredo'
p153
I28
sS'haha'
p154
I28
sS'glass'
p155
I28
sS'warm'
p156
I27
sS'lemons'
p157
I28
sS'lifestyle'
p158
I28
sS'hurry'
p159
I28
sS'95'
p160
I28
sS'me'
p161
I10
sS'none'
p162
I28
sS'word'
p163
I28
sS'room'
p164
I26
sS'salad'
p165
I28
sS'niggas'
p166
I28
sS'this'
p167
I15
sS'9+10'
p168
I28
sS'ride'
p169
I28
sS'work'
p170
I27
sS'sudden'
p171
I25
sS'jrobbin'
p172
I28
sS'can'
p173
I24
sS'making'
p174
I28
sS'my'
p175
I8
sS'beautiful'
p176
I25
sS'heart'
p177
I28
sS'crazy'
p178
I28
sS'pawn'
p179
I28
sS'give'
p180
I25
sS'awesome'
p181
I28
sS'lightweight'
p182
I28
sS"didn't"
p183
I24
sS'fuck'
p184
I25
sS'goooo'
p185
I28
sS'high'
p186
I28
sS'promethazine'
p187
I28
sS'\xe2\x98\x95\xef\xb8\x8f'
p188
I28
sS'something'
p189
I27
sS'want'
p190
I27
sS'allowed'
p191
I28
sS'offense'
p192
I28
sS'times'
p193
I28
sS'unforgettable'
p194
I28
sS'sis'
p195
I28
sS'huge'
p196
I28
sS'needs'
p197
I25
sS'sip'
p198
I28
sS'end'
p199
I28
sS'goal'
p200
I28
sS'vibe'
p201
I28
sS'hol'
p202
I28
sS'six'
p203
I27
sS'american'
p204
I28
sS'stills'
p205
I28
sS'how'
p206
I26
sS'amazing'
p207
I27
sS'swear'
p208
I28
sS'forest'
p209
I28
sS'rookie'
p210
I28
sS'pizza'
p211
I27
sS'okay'
p212
I28
sS'k7lyt66njknp'
p213
I28
sS'flip'
p214
I28
sS'lad'
p215
I28
sS'max'
p216
I28
sS'wallpaper'
p217
I28
sS'?1'
p218
I28
sS'wrong'
p219
I28
sS'united'
p220
I28
sS'mad'
p221
I27
sS'coming'
p222
I28
sS'aisles'
p223
I28
sS'guys'
p224
I28
sS'grow'
p225
I28
sS'man'
p226
I22
sS'a'
p227
I6
sS'horchata'
p228
I28
sS'short'
p229
I27
sS'natural'
p230
I28
sS'waist'
p231
I28
sS'crowded'
p232
I28
sS'6th'
p233
I28
sS'anytime'
p234
I28
sS'1002'
p235
I28
sS'reflexology'
p236
I28
sS'switch'
p237
I28
sS'so'
p238
I19
sS'every'
p239
I28
sS'1000'
p240
I28
sS'best.\xe2\x80\xa6'
p241
I28
sS'counted'
p242
I28
sS'talk'
p243
I27
sS"that's"
p244
I20
sS'banger'
p245
I27
sS'help'
p246
I27
sS"don't"
p247
I21
sS'over'
p248
I28
sS'sooo'
p249
I28
sS'soon'
p250
I26
sS'course'
p251
I28
sS'own'
p252
I28
sS"won't"
p253
I26
sS'hell'
p254
I26
sS'cold'
p255
I27
sS'still'
p256
I22
sS'its'
p257
I27
sS'before'
p258
I28
sS'ima'
p259
I24
sS'blake'
p260
I27
sS'thank'
p261
I28
sS"he's"
p262
I25
sS'bringing'
p263
I28
sS'birthdays'
p264
I28
sS'hot'
p265
I27
sS'chanel'
p266
I28
sS'better'
p267
I28
sS'degrees'
p268
I28
sS'bummer'
p269
I28
sS'2014'
p270
I28
sS'argentina'
p271
I28
sS'soccer'
p272
I27
sS"haven't"
p273
I28
sS'happened'
p274
I28
sS'dad'
p275
I24
sS'then'
p276
I26
sS'them'
p277
I24
sS'good'
p278
I17
sS'yo'
p279
I27
sS'ya'
p280
I27
sS'dam'
p281
I27
sS'practice'
p282
I28
sS'runs'
p283
I28
sS'break'
p284
I28
sS'lunch'
p285
I28
sS"you've"
p286
I28
sS'they'
p287
I20
sS'plates'
p288
I28
sS'not'
p289
I21
sS'mybad'
p290
I26
sS'now'
p291
I23
sS'ahaha'
p292
I27
sS'day'
p293
I21
sS'qpr'
p294
I28
sS'down'
p295
I28
sS'term'
p296
I28
sS'holographic'
p297
I28
sS'name'
p298
I28
sS'always'
p299
I28
sS'drop'
p300
I28
sS'trap'
p301
I28
sS'each'
p302
I28
sS'went'
p303
I27
sS'quarter'
p304
I28
sS'playerbut'
p305
I28
sS"isn't"
p306
I28
sS'luck'
p307
I28
sS'signing'
p308
I28
sS'everyone'
p309
I24
sS'another'
p310
I28
sS'weight'
p311
I28
sS'gunna'
p312
I28
sS'house'
p313
I28
sS'yeah'
p314
I28
sS'taught'
p315
I28
sS'expect'
p316
I28
sS'year'
p317
I26
sS'paramount'
p318
I28
sS'happen'
p319
I27
sS'tuned'
p320
I28
sS'saturday'
p321
I27
sS'out'
p322
I15
sS'100m'
p323
I26
sS'won'
p324
I28
sS'3rd'
p325
I26
sS'washed'
p326
I28
sS'ricky'
p327
I28
sS'smo'
p328
I28
sS'acting'
p329
I28
sS'mate'
p330
I28
sS'rare'
p331
I28
sS'smh'
p332
I22
sS'got'
p333
I15
sS'cause'
p334
I28
sS'red'
p335
I28
sS'ass'
p336
I27
sS'bye'
p337
I27
sS'shut'
p338
I28
sS'after'
p339
I28
sS'hang'
p340
I28
sS'bitches'
p341
I28
sS'molly'
p342
I28
sS'forgive'
p343
I28
sS'free'
p344
I28
sS'3150'
p345
I28
sS'\xe2\x98\xba\xef\xb8\x8f"'
p346
I28
sS'ask'
p347
I27
sS'"presence"'
p348
I28
sS'shortest'
p349
I28
sS'could'
p350
I28
sS'hes'
p351
I28
sS'days'
p352
I28
sS'keep'
p353
I28
sS'thing'
p354
I28
sS'butterflies'
p355
I28
sS'1004'
p356
I28
sS'think'
p357
I26
sS'first'
p358
I27
sS'already'
p359
I26
sS'khana'
p360
I28
sS'feel'
p361
I28
sS'*'
p362
I28
sS'arsenal'
p363
I26
sS'one'
p364
I20
sS'phs'
p365
I28
sS'done'
p366
I27
sS'fast'
p367
I28
sS'bitch\xe2\x80\x9dthen'
p368
I28
sS'sober'
p369
I28
sS"60's"
p370
I28
sS'ring'
p371
I28
sS'open'
p372
I28
sS'tomorrow'
p373
I25
sS'blunts'
p374
I28
sS"you're"
p375
I21
sS'story'
p376
I28
sS'los'
p377
I28
sS'festival'
p378
I28
sS'top'
p379
I28
sS'stack'
p380
I28
sS'2'
p381
I26
sS'too'
p382
I24
sS'passed'
p383
I28
sS'scuuuuuur'
p384
I28
sS'corona'
p385
I28
sS'hollywood'
p386
I28
sS'boii'
p387
I26
sS'final'
p388
I27
sS'store'
p389
I28
sS'headache'
p390
I28
sS'that'
p391
I8
sS'gym'
p392
I28
sS'byyyyyyeeeeee\xe2\x9c\x8c\xef\xb8\x8f'
p393
I28
sS'took'
p394
I27
sS'hut'
p395
I28
sS'push'
p396
I28
sS'smacked'
p397
I28
sS'wasted'
p398
I28
sS'waking'
p399
I28
sS'boyfriend'
p400
I28
sS'10'
p401
I26
sS'photograph'
p402
I28
sS'b'
p403
I25
sS'throttle'
p404
I28
sS'lmao'
p405
I28
sS'17'
p406
I28
sS'alameda'
p407
I28
sS'gotta'
p408
I26
sS'wasup'
p409
I27
sS'genesis'
p410
I28
sS'bride'
p411
I28
sS'future'
p412
I28
sS'exclusive'
p413
I28
sS'were'
p414
I27
sS'college'
p415
I28
sS'feeling'
p416
I24
sS'anyways'
p417
I28
sS'and'
p418
I18
sS'smokes'
p419
I28
sS'ann'
p420
I28
sS'mind'
p421
I28
sS'dispensaries'
p422
I28
sS'sad'
p423
I28
sS'tonight'
p424
I28
sS'talking'
p425
I28
sS'say'
p426
I25
sS'graffiti'
p427
I28
sS'volleyball'
p428
I28
sS'have'
p429
I22
sS'need'
p430
I19
sS'seen'
p431
I27
sS'st'
p432
I28
sS'kevin'
p433
I28
sS'sat'
p434
I28
sS'sell'
p435
I28
sS'thought'
p436
I28
sS'nights'
p437
I27
sS'congrats'
p438
I28
sS'lil'
p439
I28
sS'able'
p440
I28
sS'chest'
p441
I28
sS'square'
p442
I28
sS'take'
p443
I26
sS'which'
p444
I27
sS'performance'
p445
I28
sS'='
p446
I28
sS'soap'
p447
I28
sS'sure'
p448
I28
sS'lion'
p449
I28
sS'aww'
p450
I28
sS"x'd"
p451
I28
sS'who'
p452
I27
sS'most'
p453
I28
sS'sockless'
p454
I28
sS'yawk'
p455
I26
sS'sheets'
p456
I28
sS'tall'
p457
I28
sS'nothing'
p458
I27
sS'knee'
p459
I28
sS'awe'
p460
I28
sS'why'
p461
I23
sS'maria'
p462
I28
sS'mmmm'
p463
I28
sS'won\xe2\x80\x99t'
p464
I28
sS'stupid'
p465
I27
sS'hungry'
p466
I27
sS'exs'
p467
I27
sS'clean'
p468
I28
sS'children"'
p469
I28
sS'senior'
p470
I28
sS'left'
p471
I28
sS'germany'
p472
I28
sS'away'
p473
I28
sS'saying'
p474
I27
sS'walking'
p475
I27
sS'ugh'
p476
I28
sS'cute'
p477
I28
sS'chances'
p478
I28
sS'queen'
p479
I28
sS'bring'
p480
I27
sS'hyped'
p481
I28
sS'stepping'
p482
I27
sS'king'
p483
I28
sS'se'
p484
I27
sS'rough'
p485
I28
sS'\xe2\x9c\x8c'
p486
I28
sS'believe'
p487
I28
sS'grabbed'
p488
I28
sS'bff'
p489
I27
sS'situations'
p490
I28
sS'enough'
p491
I27
sS'should'
p492
I23
sS'being'
p493
I28
sS'only'
p494
I25
sS'going'
p495
I25
sS'truuuu'
p496
I28
sS'pretty'
p497
I28
sS'8'
p498
I28
sS'gangsta'
p499
I26
sS'blacc'
p500
I28
sS'hope'
p501
I28
sS'do'
p502
I16
sS'his'
p503
I26
sS'beyonc\xc3\xa9'
p504
I28
sS'get'
p505
I20
sS'beat'
p506
I25
sS'watch'
p507
I26
sS'congratulations'
p508
I28
sS'tbh'
p509
I23
sS'feels'
p510
I28
sS'ones'
p511
I26
sS'masterplan'
p512
I28
sS'pretending'
p513
I28
sS'wedding'
p514
I28
sS'him'
p515
I24
sS'earn'
p516
I27
sS'champagne'
p517
I28
sS'disguise'
p518
I28
sS'morning'
p519
I27
sS":')"
p520
I28
sS'bad'
p521
I26
sS'miles'
p522
I27
sS'she'
p523
I26
sS'wish'
p524
I28
sS'through'
p525
I28
sS'where'
p526
I28
sS'inside'
p527
I28
sS"y'all"
p528
I27
sS'set'
p529
I28
sS'art'
p530
I28
sS'solo'
p531
I28
sS'throwing'
p532
I28
sS'lemonade'
p533
I28
sS'5"8'
p534
I28
sS"hasn't"
p535
I28
sS'see'
p536
I21
sS'kicked'
p537
I28
sS'dumb'
p538
I28
sS'are'
p539
I24
sS'11th'
p540
I28
sS'best'
p541
I25
sS'said'
p542
I28
sS'wow'
p543
I27
sS'please'
p544
I28
sS'it\xe2\x80\x9d"\xe2\x80\x9dchill'
p545
I28
sS'3'
p546
I27
sS'score'
p547
I28
sS'swansea.chivas'
p548
I28
sS'gives'
p549
I28
sS'we'
p550
I22
sS'di'
p551
I28
sS'mayne'
p552
I28
sS'boss'
p553
I28
sS'nightmares'
p554
I28
sS'wtf'
p555
I28
sS'jk'
p556
I27
sS'come'
p557
I26
sS'21'
p558
I28
sS'faced'
p559
I28
sS'league'
p560
I28
sS'tfti'
p561
I28
sS'last'
p562
I27
sS"wild'n"
p563
I28
sS'many'
p564
I26
sS'taking'
p565
I28
sS'la'
p566
I27
sS'adventures'
p567
I28
sS'minds'
p568
I28
sS'foreign'
p569
I27
sS'games'
p570
I28
sS'suuuuuuuup'
p571
I28
sS'asked'
p572
I28
sS"can't"
p573
I24
sS'drunk'
p574
I28
sS'sky'
p575
I28
sS'ozil'
p576
I27
sS'walk'
p577
I27
sS'church'
p578
I28
sS'respect'
p579
I28
sS'actually'
p580
I28
sS'angeles'
p581
I28
sS'speak'
p582
I28
sS'save'
p583
I28
sS'yay'
p584
I27
sS"it's"
p585
I18
sS'af'
p586
I28
sS'been'
p587
I27
sS'hitting'
p588
I28
sS'\xe2\x9d\x84\xef\xb8\x8f'
p589
I28
sS'secret'
p590
I28
sS'damn'
p591
I26
sS'6-0'
p592
I28
sS'tina'
p593
I28
sS'ah'
p594
I28
sS'freak'
p595
I28
sS'byeeeeeeeeeee\xe2\x9c\x8c\xef\xb8\x8f'
p596
I28
sS'yaa'
p597
I28
sS'balazos'
p598
I28
sS'bullshit'
p599
I28
sS'wants'
p600
I28
sS'life'
p601
I24
sS'tournament'
p602
I28
sS'goodnight'
p603
I27
sS'hmu'
p604
I28
sS"what's"
p605
I28
sS'blessing'
p606
I28
sS'search'
p607
I28
sS'else'
p608
I28
sS'gal'
p609
I27
sS'hmk'
p610
I28
sS'catch'
p611
I28
sS'hardcore'
p612
I28
sS'spin'
p613
I28
sS'those'
p614
I28
sS'chill'
p615
I16
sS'mla'
p616
I28
sS'look'
p617
I26
sS'solid'
p618
I28
sS'7-0'
p619
I28
sS'ahah'
p620
I28
sS'n'
p621
I27
sS'\xee\x81\x8a\xee\x90\xa0'
p622
I28
sS'while'
p623
I28
sS'match'
p624
I28
sS'behavior'
p625
I28
sS'stash'
p626
I28
sS'slapping'
p627
I28
sS'glb'
p628
I28
sS'alike'
p629
I28
sS'fool'
p630
I28
sS'compton'
p631
I27
sS'10000'
p632
I28
sS'hoping'
p633
I28
sS'almost'
p634
I28
sS'is'
p635
I7
sS'losing'
p636
I28
sS'it'
p637
I7
sS'player'
p638
I28
sS'cant'
p639
I28
sS'vs'
p640
I27
sS'im'
p641
I28
sS'in'
p642
I13
sS'ready'
p643
I26
sS'ave'
p644
I28
sS'id'
p645
I28
sS'worry'
p646
I28
sS'if'
p647
I24
sS'funny'
p648
I24
sS'mins'
p649
I28
sS'anymore'
p650
I28
sS'doctor'
p651
I28
sS'things'
p652
I27
sS'make'
p653
I23
sS'(ht'
p654
I28
sS'check'
p655
I28
sS'food'
p656
I27
sS'fatima'
p657
I28
sS'pad'
p658
I28
sS'yessir'
p659
I27
sS'party'
p660
I26
sS'struggling'
p661
I28
sS'gets'
p662
I28
sS"70's"
p663
I28
sS'4.5'
p664
I28
sS'finish'
p665
I28
sS'infinity'
p666
I28
sS'screw'
p667
I28
sS'1-0'
p668
I28
sS'drink'
p669
I28
sS'ios'
p670
I28
sS'yesterday'
p671
I28
sS'rain'
p672
I28
sS'weed'
p673
I28
sS'beast'
p674
I26
sS'ion'
p675
I28
sS'afraid'
p676
I28
sS'moving'
p677
I28
sS'favorites'
p678
I28
sS'scoring'
p679
I28
sS'jealous'
p680
I28
sS'kia'
p681
I28
sS'500'
p682
I28
sS"i'm"
p683
I11
sS'kid'
p684
I25
sS'\xe2\x9c\x8c\xef\xb8\x8f'
p685
I27
sS'tracking'
p686
I28
sS'off'
p687
I25
sS'mention'
p688
I28
sS'i'
p689
I2
sS'well'
p690
I25
sS'tho'
p691
I22
sS'truuu'
p692
I28
sS'cheer'
p693
I27
sS'flags'
p694
I27
sS'jersey'
p695
I28
sS'deserve'
p696
I28
sS'the'
p697
I3
sS'bothering'
p698
I28
sS'>.<'
p699
I28
sS'newest'
p700
I28
sS'ivette'
p701
I28
sS'just'
p702
I17
sS'yea'
p703
I25
sS'money'
p704
I25
sS'half'
p705
I28
sS'rest'
p706
I27
sS'inception'
p707
I28
sS'kill'
p708
I28
sS'thanks'
p709
I28
sS'questions'
p710
I27
sS'seats'
p711
I28
sS'forrest'
p712
I28
sS'letting'
p713
I28
sS'76'
p714
I28
sS'cut'
p715
I28
sS'vibration'
p716
I28
sS'thinking'
p717
I28
sS'remember'
p718
I28
sS'had'
p719
I26
sS'eld'
p720
I28
sS'killed'
p721
I28
sS'treatment'
p722
I28
sS'easy'
p723
I28
sS'goodshit'
p724
I28
sS'bsavage'
p725
I28
sS'has'
p726
I26
sS'homework'
p727
I28
sS'real'
p728
I27
sS'sonic'
p729
I28
sS'(1986)'
p730
I28
sS'kills'
p731
I28
sS'format'
p732
I28
sS'big'
p733
I27
sS'couple'
p734
I28
sS'gonna'
p735
I26
sS'yougin'
p736
I28
sS'game'
p737
I24
sS'eeeeeee'
p738
I28
sS'know'
p739
I18
sS'mom'
p740
I27
sS'world'
p741
I27
sS'lady'
p742
I28
sS'brought'
p743
I28
sS'nevermind'
p744
I28
sS'like'
p745
I23
sS'lost'
p746
I27
sS'wingstop'
p747
I28
sS'bpl'
p748
I28
sS'remind'
p749
I28
sS'either'
p750
I28
sS'night'
p751
I26
sS'served'
p752
I28
sS'thirstay'
p753
I28
sS'replacement'
p754
I28
sS'sharp'
p755
I28
sS'right'
p756
I22
sS'often'
p757
I27
sS'people'
p758
I27
sS'fucking'
p759
I27
sS'twitter'
p760
I28
sS'fake'
p761
I28
sS'some'
p762
I26
sS'back'
p763
I26
sS'oh'
p764
I28
sS'added'
p765
I28
sS'images'
p766
I28
sS'home'
p767
I27
sS'leanin'
p768
I28
sS'thinks'
p769
I27
sS'2days'
p770
I28
sS'for'
p771
I14
sS'bottom'
p772
I28
sS'memories'
p773
I28
sS'noon'
p774
I28
sS'nooo'
p775
I28
sS'everything'
p776
I28
sS'n*gga'
p777
I28
sS'does'
p778
I26
sS'leader'
p779
I28
sS'be'
p780
I19
sS'football'
p781
I26
sS'slight'
p782
I28
sS'seconds'
p783
I26
sS'equivalent'
p784
I28
sS'lose'
p785
I28
sS'laker'
p786
I28
sS'step'
p787
I26
sS'1411'
p788
I28
sS'contracts'
p789
I28
sS'from'
p790
I26
sS'post'
p791
I28
sS'super'
p792
I28
sS'by'
p793
I27
sS'on'
p794
I21
sS'about'
p795
I25
sS'mamash'
p796
I28
sS'ok'
p797
I26
sS'deserved'
p798
I28
sS'getting'
p799
I24
sS'of'
p800
I12
sS'meal'
p801
I28
sS'awwww'
p802
I28
sS'gump'
p803
I27
sS'idk'
p804
I26
sS'stoked'
p805
I28
sS'mouth'
p806
I25
sS'wanna'
p807
I21
sS'or'
p808
I27
sS'aha'
p809
I20
sS'subs'
p810
I28
sS'recruited'
p811
I28
sS'intercom'
p812
I28
sS'into'
p813
I27
sS'tag'
p814
I28
sS'blessed'
p815
I28
sS'snapchat'
p816
I26
sS'yourself'
p817
I28
sS'stop'
p818
I28
sS'pages'
p819
I28
sS'because'
p820
I26
sS'female'
p821
I28
sS'"teach'
p822
I28
sS'your'
p823
I19
sS'naaa'
p824
I27
sS'van'
p825
I28
sS'brownies'
p826
I28
sS'barca'
p827
I28
sS'area'
p828
I28
sS'weekend'
p829
I28
sS'there'
p830
I21
sS'hey'
p831
I26
sS'lol'
p832
I23
sS'fight'
p833
I28
sS'start'
p834
I28
sS'way'
p835
I27
sS'bruh'
p836
I27
sS'slowly'
p837
I28
sS'grew'
p838
I28
sS'was'
p839
I11
sS'shhh'
p840
I28
sS'stupids'
p841
I28
sS'ago'
p842
I28
sS'head'
p843
I28
sS'memory'
p844
I28
sS'forever'
p845
I28
sS'but'
p846
I18
sS'striker'
p847
I28
sS'astro'
p848
I22
sS'hi'
p849
I28
sS'hear'
p850
I27
sS'hopes'
p851
I28
sS'line'
p852
I28
sS'trying'
p853
I27
sS'with'
p854
I21
sS'bud'
p855
I27
sS'he'
p856
I21
sS'count'
p857
I28
sS'pull'
p858
I27
sS'rush'
p859
I28
sS'october'
p860
I28
sS"wasn't"
p861
I26
sS'type'
p862
I28
sS'^~~~~^'
p863
I28
sS'fries'
p864
I28
sS'up'
p865
I9
sS'r.i.p'
p866
I28
sS'convince'
p867
I28
sS'munir'
p868
I28
sS'bbq'
p869
I28
sS'(cont)'
p870
I28
sS'supa'
p871
I28
sS'chelsea'
p872
I28
sS'called'
p873
I28
sS'ohh'
p874
I28
sS'classic'
p875
I28
sS'minutes'
p876
I28
sS'pic'
p877
I28
sS'am'
p878
I27
sS'metrorail'
p879
I28
sS'an'
p880
I26
sS'single'
p881
I27
sS'at'
p882
I24
sS'our'
p883
I28
sS'watched'
p884
I28
sS'annoying'
p885
I27
sS'girl'
p886
I28
sS'shit'
p887
I24
sS'yoo'
p888
I28
sS'again'
p889
I23
sS'codes'
p890
I28
sS'gay'
p891
I28
sS'no'
p892
I19
sS'idiot'
p893
I24
sS'na'
p894
I28
sS'nah'
p895
I27
sS'when'
p896
I17
sS'40'
p897
I28
sS'til'
p898
I28
sS'application'
p899
I28
sS'other'
p900
I28
sS'bool'
p901
I28
sS'sick'
p902
I28
sS'matersacker'
p903
I28
sS'you'
p904
I4
sS'really'
p905
I23
sS'nice'
p906
I24
sS'picture'
p907
I28
sS'trip'
p908
I28
sS'monday'
p909
I28
sS'watchout'
p910
I28
sS'class'
p911
I28
sS'welcome'
p912
I27
sS'forgot'
p913
I28
sS'goo'
p914
I28
sS'stay'
p915
I28
sS'helping'
p916
I28
sS'sickk'
p917
I28
sS'kinda'
p918
I28
sS'fresh'
p919
I28
sS'friends'
p920
I27
sS'ghost'
p921
I28
sS'\xe2\x9c\x82\xef\xb8\x8f'
p922
I28
sS'using'
p923
I28
sS'phone'
p924
I28
sS'assume'
p925
I28
sS'bc'
p926
I28
sS'walked'
p927
I28
sS'u'
p928
I22
sS'time'
p929
I25
sS'alright'
p930
I26
sS"she's"
p931
I28
sS'nash'
p932
I28
sS"he'"
p933
I28
sS'buffalo'
p934
I28
s.