(dp0
S''
p1
I4
sS'raining'
p2
I23
sS'all'
p3
I18
sS':/'
p4
I22
sS'forget'
p5
I23
sS'hashtag'
p6
I23
sS'sleep'
p7
I23
sS'hanging'
p8
I23
sS'go'
p9
I16
sS'follow'
p10
I23
sS'hate'
p11
I20
sS'asada'
p12
I23
sS'to'
p13
I4
sS'finally'
p14
I23
sS'program'
p15
I23
sS'enjoying'
p16
I22
sS'ta'
p17
I23
sS'sitting'
p18
I23
sS'far'
p19
I22
sS'activation'
p20
I23
sS'agua'
p21
I23
sS'cadaver'
p22
I23
sS'worst'
p23
I22
sS'decide'
p24
I23
sS'minute'
p25
I22
sS'cool'
p26
I22
sS'school'
p27
I23
sS'did'
p28
I20
sS'die'
p29
I23
sS'leave'
p30
I23
sS'vibes'
p31
I23
sS'guy'
p32
I21
sS'41\xc2\xb0'
p33
I23
sS"car's"
p34
I23
sS'girland'
p35
I23
sS'booty'
p36
I23
sS'instagram'
p37
I23
sS'tired'
p38
I23
sS'crop'
p39
I23
sS'nail'
p40
I23
sS'crave'
p41
I23
sS'pass'
p42
I23
sS'download'
p43
I23
sS'what'
p44
I17
sS"52'"
p45
I23
sS'yeezus'
p46
I23
sS'giving'
p47
I23
sS'sega'
p48
I23
sS'(compton'
p49
I22
sS"man's"
p50
I23
sS'abt'
p51
I23
sS'new'
p52
I23
sS'ever'
p53
I21
sS'bird'
p54
I23
sS'filled'
p55
I23
sS'gawd'
p56
I23
sS'never'
p57
I20
sS'here'
p58
I23
sS'motherfucker'
p59
I23
sS'hours'
p60
I23
sS'met'
p61
I23
sS'let'
p62
I21
sS'&&'
p63
I23
sS'earthquake'
p64
I23
sS'dork'
p65
I23
sS'knowledge'
p66
I23
sS'every'
p67
I23
sS'great'
p68
I23
sS'kids'
p69
I22
sS'tire'
p70
I23
sS'leaves'
p71
I23
sS'leaving'
p72
I23
sS'boo'
p73
I23
sS"i'm"
p74
I9
sS"dad's"
p75
I23
sS'c\xc3\xa9sar'
p76
I23
sS'love'
p77
I14
sS'family'
p78
I23
sS'jailbreak'
p79
I23
sS'marked'
p80
I23
sS'bro'
p81
I23
sS'celtics'
p82
I23
sS'hatredcopter'
p83
I16
sS'drowned'
p84
I23
sS'colombiacolombia'
p85
I23
sS'from'
p86
I20
sS'takes'
p87
I23
sS'would'
p88
I21
sS'&'
p89
I16
sS'alone:)'
p90
I23
sS'hospital'
p91
I23
sS'next'
p92
I22
sS'ca)'
p93
I22
sS'memory'
p94
I23
sS'means'
p95
I23
sS'deserve'
p96
I23
sS'tell'
p97
I23
sS'today'
p98
I18
sS'more'
p99
I20
sS'flat'
p100
I23
sS"brazil's"
p101
I23
sS'knows'
p102
I23
sS'porch'
p103
I23
sS'company'
p104
I23
sS'haha'
p105
I23
sS'it'
p106
I11
sS'excuse'
p107
I23
sS'broke'
p108
I22
sS'baby'
p109
I22
sS'hahahahahahahahahhahahahaha'
p110
I23
sS'negativity'
p111
I23
sS'me'
p112
I9
sS'anything'
p113
I23
sS'niggas'
p114
I23
sS'this'
p115
I14
sS'car'
p116
I23
sS'ride'
p117
I23
sS'work'
p118
I20
sS'purge'
p119
I23
sS'can'
p120
I22
sS'cal'
p121
I23
sS'already'
p122
I23
sS'making'
p123
I23
sS'my'
p124
I6
sS'history'
p125
I23
sS'beautiful'
p126
I22
sS'heart'
p127
I23
sS'crazy'
p128
I23
sS'loca'
p129
I23
sS'wand'
p130
I23
sS'awesome'
p131
I22
sS"didn't"
p132
I18
sS'fuck'
p133
I18
sS'something'
p134
I22
sS'want'
p135
I18
sS'kys'
p136
I23
sS'station'
p137
I23
sS'hoe'
p138
I23
sS'end'
p139
I23
sS'six'
p140
I23
sS'write'
p141
I23
sS'till'
p142
I23
sS'beach'
p143
I22
sS'pizza'
p144
I23
sS'tried'
p145
I22
sS'watch'
p146
I23
sS'after'
p147
I21
sS'lmfaoo'
p148
I23
sS'birthday'
p149
I17
sS'blood'
p150
I23
sS'destined'
p151
I23
sS'hahahaha'
p152
I23
sS':c'
p153
I23
sS'?"'
p154
I23
sS'man'
p155
I21
sS'a'
p156
I5
sS'remember'
p157
I23
sS'shiny'
p158
I23
sS'borrowing'
p159
I23
sS'so'
p160
I13
sS'goodbye'
p161
I23
sS'putting'
p162
I23
sS'wing'
p163
I23
sS'talk'
p164
I22
sS"that's"
p165
I22
sS'help'
p166
I22
sS"don't"
p167
I15
sS'over'
p168
I21
sS'trade'
p169
I22
sS'ended'
p170
I23
sS'paper'
p171
I21
sS'looks'
p172
I21
sS'kanye'
p173
I23
sS'cold'
p174
I20
sS'still'
p175
I23
sS'blooded'
p176
I23
sS'before'
p177
I21
sS'thank'
p178
I23
sS'how'
p179
I21
sS"'i"
p180
I23
sS'dispose'
p181
I23
sS'late'
p182
I23
sS'resort'
p183
I23
sS'choose'
p184
I23
sS'2014'
p185
I23
sS'"fancy"'
p186
I23
sS'might'
p187
I23
sS"haven't"
p188
I22
sS'greenpoison.com'
p189
I23
sS'dad'
p190
I21
sS'then'
p191
I20
sS'them'
p192
I21
sS'someone'
p193
I21
sS'food'
p194
I23
sS'they'
p195
I18
sS'not'
p196
I18
sS'now'
p197
I17
sS'day'
p198
I20
sS'instructions'
p199
I23
sS'"indiana'
p200
I23
sS'always'
p201
I20
sS'ewwww'
p202
I23
sS'bless'
p203
I23
sS'tear'
p204
I23
sS'stopped'
p205
I23
sS'positions'
p206
I23
sS'doing'
p207
I23
sS'house'
p208
I22
sS'energy'
p209
I23
sS'54.8141'
p210
I23
sS'yeah'
p211
I23
sS'books'
p212
I23
sS'ex'
p213
I23
sS'stealing'
p214
I23
sS'girl'
p215
I23
sS'special'
p216
I23
sS'out'
p217
I16
sS'rt'
p218
I23
sS'driving'
p219
I23
sS'miss'
p220
I23
sS'since'
p221
I23
sS'looking'
p222
I23
sS'attracted'
p223
I23
sS'acting'
p224
I23
sS'discharged'
p225
I23
sS'got'
p226
I20
sS'rn'
p227
I22
sS'cause'
p228
I23
sS'ass'
p229
I22
sS'cutest'
p230
I23
sS"doesn't"
p231
I23
sS'little'
p232
I20
sS'free'
p233
I23
sS'reason'
p234
I23
sS'asf'
p235
I23
sS'ask'
p236
I23
sS'care'
p237
I22
sS'training'
p238
I23
sS'ate'
p239
I23
sS'could'
p240
I23
sS'days'
p241
I20
sS'british'
p242
I21
sS'keep'
p243
I23
sS'>~>'
p244
I23
sS'place'
p245
I23
sS'think'
p246
I22
sS'first'
p247
I23
sS'tropping'
p248
I23
sS'><'
p249
I23
sS'feel'
p250
I23
sS'fancy'
p251
I23
sS'one'
p252
I21
sS'hook'
p253
I23
sS'bitch'
p254
I21
sS'delicious'
p255
I23
sS'pokemon'
p256
I22
sS"'em"
p257
I19
sS"you're"
p258
I19
sS'guess'
p259
I22
sS'long'
p260
I23
sS'top'
p261
I23
sS'night'
p262
I23
sS'girls'
p263
I23
sS'grow'
p264
I23
sS'their'
p265
I23
sS'fml'
p266
I23
sS'2'
p267
I22
sS'too'
p268
I22
sS'white'
p269
I23
sS'you?\'""'
p270
I23
sS'genesis'
p271
I23
sS'store'
p272
I23
sS'beard'
p273
I23
sS'that'
p274
I15
sS'took'
p275
I23
sS'cops'
p276
I23
sS'part'
p277
I23
sS'nigga'
p278
I23
sS'carded'
p279
I23
sS'lmao'
p280
I22
sS'showed'
p281
I23
sS'boring'
p282
I23
sS'goodnight'
p283
I23
sS'bed'
p284
I23
sS'matter'
p285
I22
sS'r'
p286
I23
sS'nervous'
p287
I23
sS'lover'
p288
I23
sS'cards'
p289
I22
sS'"beat'
p290
I23
sS'remembers'
p291
I23
sS'worldand'
p292
I23
sS'and'
p293
I7
sS"week?let's"
p294
I23
sS'mind'
p295
I22
sS'mine'
p296
I23
sS'say'
p297
I21
sS'have'
p298
I12
sS'need'
p299
I21
sS'seen'
p300
I22
sS'any'
p301
I22
sS'it\xe2\x80\x9d'
p302
I23
sS'lie'
p303
I23
sS'min'
p304
I23
sS'-'
p305
I21
sS'hangover'
p306
I23
sS'take'
p307
I21
sS'wanting'
p308
I23
sS'closer'
p309
I23
sS'play'
p310
I22
sS'(excluding'
p311
I23
sS'though'
p312
I23
sS'who'
p313
I15
sS'most'
p314
I22
sS'why'
p315
I21
sS'episode'
p316
I23
sS'cover'
p317
I23
sS'dog'
p318
I22
sS'yours'
p319
I23
sS'definitely'
p320
I23
sS'annoyed'
p321
I23
sS'came'
p322
I21
sS'pi\xc3\xb1a'
p323
I23
sS'saying'
p324
I23
sS'ugh'
p325
I22
sS'bring'
p326
I22
sS'dbz'
p327
I23
sS'find'
p328
I23
sS'sayin'
p329
I23
sS'\xe2\x9c\x8b'
p330
I23
sS'friend?ok'
p331
I23
sS'dick'
p332
I22
sS'fans'
p333
I23
sS'should'
p334
I22
sS'only'
p335
I23
sS'judged'
p336
I23
sS'pretty'
p337
I22
sS'hope'
p338
I23
sS'do'
p339
I19
sS'get'
p340
I20
sS'boston"'
p341
I23
sS'de'
p342
I22
sS'stop'
p343
I22
sS'lucky'
p344
I22
sS'da'
p345
I23
sS'tbh'
p346
I23
sS'ones'
p347
I23
sS'damnit'
p348
I23
sS'him'
p349
I22
sS'celebrate'
p350
I23
sS'bad'
p351
I20
sS'stupid'
p352
I22
sS'she'
p353
I23
sS'18'
p354
I23
sS'x'
p355
I23
sS'grab'
p356
I23
sS'btw'
p357
I23
sS'national'
p358
I23
sS'flip'
p359
I23
sS'see'
p360
I21
sS'are'
p361
I12
sS'close'
p362
I23
sS'o_o'
p363
I23
sS'bleh'
p364
I23
sS'best'
p365
I21
sS'wonder'
p366
I23
sS'brazil'
p367
I22
sS'said'
p368
I20
sS'body-__-'
p369
I23
sS'wow'
p370
I23
sS'missing'
p371
I23
sS'rings'
p372
I23
sS'orgasmic'
p373
I23
sS'3'
p374
I23
sS'nope'
p375
I23
sS'piss'
p376
I23
sS'we'
p377
I19
sS'omg'
p378
I21
sS'rims'
p379
I23
sS'fuck:('
p380
I23
sS'key'
p381
I23
sS'come'
p382
I23
sS'enoughhappy'
p383
I23
sS'roller'
p384
I23
sS'both'
p385
I23
sS'dates'
p386
I23
sS'last'
p387
I23
sS'many'
p388
I23
sS"wouldn't"
p389
I22
sS'compton'
p390
I19
sS'against'
p391
I22
sS'players'
p392
I23
sS'admit'
p393
I23
sS'8am'
p394
I23
sS'whole'
p395
I23
sS"can't"
p396
I21
sS'wtf'
p397
I23
sS'anythingno'
p398
I23
sS'walk'
p399
I22
sS'respect'
p400
I23
sS'trust'
p401
I23
sS'kawaii'
p402
I23
sS'bathroom'
p403
I23
sS'yay'
p404
I23
sS'"you'
p405
I23
sS"it's"
p406
I21
sS'due'
p407
I23
sS'been'
p408
I23
sS'it..they'
p409
I23
sS'beer'
p410
I23
sS'much'
p411
I21
sS'damn'
p412
I23
sS'change'
p413
I23
sS'yogurtland'
p414
I23
sS'affectionate'
p415
I23
sS'life'
p416
I23
sS'verizon'
p417
I23
sS'drugs'
p418
I23
sS"what's"
p419
I23
sS'sooooo'
p420
I23
sS'c'
p421
I23
sS'-.-'
p422
I23
sS'child'
p423
I23
sS'careful'
p424
I22
sS'weeks'
p425
I23
sS'those'
p426
I22
sS'myself'
p427
I23
sS'.__'
p428
I23
sS'look'
p429
I22
sS'fuq'
p430
I23
sS'these'
p431
I23
sS'appearance'
p432
I23
sS'valero'
p433
I23
sS'n'
p434
I23
sS'will'
p435
I21
sS'hahaha'
p436
I22
sS'stupidest'
p437
I23
sS'barely'
p438
I23
sS'you..just'
p439
I23
sS'is'
p440
I15
sS'hurting'
p441
I23
sS'bros'
p442
I23
sS'good'
p443
I23
sS'im'
p444
I21
sS'cans'
p445
I23
sS'in'
p446
I10
sS'thug'
p447
I22
sS'if'
p448
I13
sS'</3'
p449
I23
sS'different'
p450
I23
sS'shirt'
p451
I23
sS'anymore'
p452
I23
sS'things'
p453
I22
sS'bella'
p454
I23
sS'dealer'
p455
I23
sS"coroner's"
p456
I23
sS'babies'
p457
I23
sS'party'
p458
I23
sS'gets'
p459
I23
sS'ochoa'
p460
I23
sS'emotionally'
p461
I23
sS'b.i.g'
p462
I23
sS'rain'
p463
I23
sS'beast'
p464
I23
sS'fucked'
p465
I23
sS'kid'
p466
I23
sS'off'
p467
I21
sS'i'
p468
I1
sS'well'
p469
I23
sS'comes'
p470
I23
sS'pandora'
p471
I23
sS'mother'
p472
I23
sS'y'
p473
I23
sS'five'
p474
I23
sS'the'
p475
I3
sS'awesomeee'
p476
I23
sS'left'
p477
I22
sS'summer'
p478
I23
sS'coaster'
p479
I23
sS'\xe2\x98\xba\xef\xb8\x8f'
p480
I23
sS'just'
p481
I13
sS'less'
p482
I23
sS'being'
p483
I23
sS'sleepy'
p484
I23
sS'rest'
p485
I23
sS'kill'
p486
I23
sS'paul'
p487
I23
sS'tattooed'
p488
I23
sS'yet'
p489
I23
sS'hills'
p490
I23
sS'nas'
p491
I23
sS'thinking'
p492
I23
sS'had'
p493
I23
sS'cuz'
p494
I22
sS'killed'
p495
I23
sS'shout'
p496
I23
sS'bones"'
p497
I23
sS'parents'
p498
I23
sS'4'
p499
I23
sS'has'
p500
I22
sS'humanity'
p501
I23
sS'neymar)'
p502
I23
sS'big'
p503
I23
sS'couple'
p504
I23
sS'calendars'
p505
I23
sS'haus'
p506
I23
sS'gonna'
p507
I20
sS'vises'
p508
I23
sS'dark'
p509
I23
sS'game'
p510
I22
sS'traffic'
p511
I23
sS'know'
p512
I19
sS'listening'
p513
I23
sS'world'
p514
I23
sS'knock'
p515
I23
sS'like'
p516
I16
sS'surgery'
p517
I23
sS'lose'
p518
I21
sS'notorious'
p519
I23
sS'rich'
p520
I23
sS'page'
p521
I22
sS'because'
p522
I18
sS'often'
p523
I23
sS'brakes'
p524
I23
sS'people'
p525
I16
sS'fucking'
p526
I21
sS'twitter'
p527
I23
sS'some'
p528
I22
sS'searching'
p529
I23
sS'dead'
p530
I23
sS'oh'
p531
I23
sS'home'
p532
I21
sS'organizing'
p533
I23
sS'for'
p534
I8
sS'everything'
p535
I23
sS'prom'
p536
I23
sS'iphones'
p537
I23
sS'be'
p538
I12
sS'bf'
p539
I23
sS'run'
p540
I22
sS"fuckin'"
p541
I23
sS'7-eleven'
p542
I23
sS'saaad'
p543
I23
sS'murdered'
p544
I23
sS'super'
p545
I23
sS'by'
p546
I20
sS'on'
p547
I14
sS'about'
p548
I23
sS'ok'
p549
I23
sS'usa'
p550
I23
sS'wouldnt'
p551
I22
sS'getting'
p552
I23
sS'of'
p553
I10
sS'swear'
p554
I23
sS'neighbor'
p555
I23
sS'west'
p556
I23
sS'wanna'
p557
I22
sS'or'
p558
I23
sS'seeing'
p559
I23
sS'nestors'
p560
I23
sS'las\xe2\x80\xa6'
p561
I23
sS'owe'
p562
I23
sS'blessed'
p563
I22
sS'down'
p564
I23
sS'you\xc2\xa0will'
p565
I23
sS'weather'
p566
I23
sS'lovely'
p567
I23
sS'your'
p568
I13
sS'.-'
p569
I23
sS'her'
p570
I23
sS'there'
p571
I20
sS'question'
p572
I23
sS'hey'
p573
I22
sS'lol'
p574
I19
sS"we're"
p575
I22
sS'way'
p576
I23
sS'bruh'
p577
I23
sS'wat'
p578
I23
sS'was'
p579
I13
sS'happy'
p580
I21
sS'north'
p581
I23
sS"i've"
p582
I23
sS'bus'
p583
I22
sS'bitches'
p584
I23
sS'but'
p585
I19
sS'back'
p586
I23
sS'heat'
p587
I23
sS'link'
p588
I23
sS'._'
p589
I23
sS'line'
p590
I23
sS'with'
p591
I17
sS'buying'
p592
I23
sS'he'
p593
I21
sS'made'
p594
I22
sS'nieces'
p595
I23
sS'wish'
p596
I23
sS'up'
p597
I16
sS'us'
p598
I22
sS'un'
p599
I22
sS'agree'
p600
I23
sS'playerssilva'
p601
I23
sS'trim'
p602
I23
sS'nachos'
p603
I23
sS'af'
p604
I23
sS'deep'
p605
I23
sS'an'
p606
I23
sS'as'
p607
I23
sS'right'
p608
I20
sS'at'
p609
I19
sS'girlfriend'
p610
I23
sS'annoying'
p611
I21
sS'campus'
p612
I23
sS'shit'
p613
I21
sS'again'
p614
I23
sS'dying'
p615
I23
sS'no'
p616
I17
sS'na'
p617
I23
sS'nah'
p618
I23
sS'when'
p619
I18
sS'fire'
p620
I23
sS'5'
p621
I22
sS'you'
p622
I2
sS'really'
p623
I21
sS'smell'
p624
I23
sS'tia'
p625
I23
sS'picture'
p626
I22
sS'gas'
p627
I23
sS'prepared'
p628
I23
sS'chance'
p629
I23
sS'bobbys'
p630
I23
sS'nintendo'
p631
I23
sS'hurt'
p632
I20
sS'friends'
p633
I21
sS'died'
p634
I23
sS'ago'
p635
I23
sS'land'
p636
I23
sS'fighter'
p637
I23
sS'longer'
p638
I23
sS'nephews'
p639
I23
sS"he's"
p640
I23
sS'minutesnor'
p641
I23
sS'much:('
p642
I23
sS'u'
p643
I22
sS'fact'
p644
I23
sS'time'
p645
I21
sS'walker'
p646
I23
sS"she's"
p647
I23
sS'starting'
p648
I23
sS'kickin'
p649
I23
sS'rooscrans'
p650
I23
s.