(dp0
S''
p1
I1
sS'raining'
p2
I57
sS'unica'
p3
I58
sS'msgs'
p4
I58
sS'enjoyinggg'
p5
I58
sS'fre$h'
p6
I58
sS'yellow'
p7
I58
sS'catch'
p8
I54
sS'woods'
p9
I58
sS'sleep'
p10
I48
sS"20:30:24.0,33.89771468,-118.224231,5426.02,i'm"
p11
I58
sS'hating'
p12
I55
sS'hijos'
p13
I58
sS'oldest'
p14
I57
sS'hate'
p15
I53
sS'patches'
p16
I58
sS'-\xe2\x80\xa6-'
p17
I58
sS'tweet'
p18
I54
sS"wu's"
p19
I58
sS'otra'
p20
I58
sS'under'
p21
I56
sS'sorry'
p22
I57
sS'errbody'
p23
I58
sS'softener'
p24
I58
sS'yeeeet'
p25
I58
sS'lololol'
p26
I58
sS'every'
p27
I57
sS'ugghhhhhhhh'
p28
I58
sS'bringing'
p29
I58
sS'tagging'
p30
I58
sS'tickets'
p31
I58
sS"yeah...i'm"
p32
I58
sS'school'
p33
I58
sS'[o]overrated'
p34
I58
sS'"don\'t'
p35
I58
sS'heading'
p36
I58
sS'hora'
p37
I58
sS'tired'
p38
I54
sS'convo'
p39
I58
sS'louder'
p40
I58
sS'even'
p41
I55
sS'neo'
p42
I58
sS'>__<'
p43
I58
sS'saved'
p44
I57
sS'cooking'
p45
I56
sS'(compton'
p46
I49
sS'fingers'
p47
I58
sS'lights'
p48
I58
sS'new'
p49
I44
sS'tips'
p50
I58
sS'ever'
p51
I46
sS'told'
p52
I54
sS'culo'
p53
I58
sS'never'
p54
I49
sS'meh'
p55
I58
sS'nawh'
p56
I58
sS'\xe2\x9d\xa4\xef\xb8\x8f'
p57
I58
sS'bomb\xe2\x80\xa6'
p58
I58
sS'studio'
p59
I58
sS'stares'
p60
I58
sS"aren't"
p61
I57
sS'buddy'
p62
I58
sS'luther'
p63
I58
sS'daughter'
p64
I58
sS'taper'
p65
I58
sS'items'
p66
I58
sS'drs'
p67
I58
sS'changed'
p68
I57
sS'nigguhs'
p69
I58
sS'eh'
p70
I58
sS"i'd"
p71
I56
sS'smoke'
p72
I58
sS'loco)'
p73
I58
sS'military'
p74
I58
sS"i'm"
p75
I11
sS'changes'
p76
I58
sS'stinky'
p77
I58
sS'golden'
p78
I58
sS"g's"
p79
I56
sS'spooky'
p80
I58
sS'feelings'
p81
I58
sS'bro'
p82
I50
sS'tp'
p83
I58
sS'jackets'
p84
I58
sS'offf'
p85
I58
sS'feelingg'
p86
I58
sS'<3'
p87
I57
sS'would'
p88
I51
sS'hospital'
p89
I58
sS'played'
p90
I55
sS'bleed'
p91
I58
sS'cali'
p92
I58
sS'music'
p93
I54
sS'unfortunately'
p94
I57
sS'grahams'
p95
I57
sS'tell'
p96
I49
sS'females'
p97
I57
sS'holy'
p98
I58
sS'relax'
p99
I58
sS'oscar'
p100
I58
sS'haha'
p101
I48
sS'award'
p102
I57
sS'phone'
p103
I53
sS"20:39:49.0,33.90286789,-118.22935017,5426.02,i'm"
p104
I58
sS'willowbrook'
p105
I55
sS'90'
p106
I58
sS'hold'
p107
I58
sS'must'
p108
I57
sS'me'
p109
I6
sS'ad0reableee'
p110
I58
sS'te'
p111
I58
sS'room'
p112
I58
sS'work'
p113
I41
sS'mi'
p114
I54
sS'mk'
p115
I58
sS'movies'
p116
I56
sS'cuddle'
p117
I58
sS'ms'
p118
I58
sS'mr'
p119
I57
sS'my'
p120
I4
sS'wana'
p121
I58
sS'give'
p122
I55
sS'dengg'
p123
I58
sS'fronting'
p124
I58
sS'veggies'
p125
I57
sS'want'
p126
I37
sS'03:06:46.0,33.90092901,-118.23093276,5426.02,s/o'
p127
I58
sS'keep'
p128
I53
sS'anal?-'
p129
I58
sS'bangless*'
p130
I58
sS'complaining'
p131
I58
sS'sitting'
p132
I58
sS'duarte!!!!!oh'
p133
I58
sS'how'
p134
I42
sS'hot'
p135
I55
sS'rookie'
p136
I57
sS'yaaaaa'
p137
I57
sS'yum'
p138
I58
sS'beach'
p139
I56
sS'charging'
p140
I58
sS'pizza'
p141
I58
sS'beauty'
p142
I56
sS'after'
p143
I53
sS'lab'
p144
I58
sS'davis'
p145
I58
sS'wrong'
p146
I52
sS'loyal.,90220\n511282893016924160,_letsoverdose,2014-09-14'
p147
I58
sS'las'
p148
I57
sS'peeps!\xe2\x80\xa6'
p149
I58
sS'padre'
p150
I58
sS'third'
p151
I58
sS'chillen'
p152
I58
sS'hasta'
p153
I58
sS'funniest'
p154
I58
sS'things'
p155
I54
sS'yeeeee'
p156
I58
sS'order'
p157
I58
sS'05:59:14.0,33.89964163,-118.22452801,5426.02,when'
p158
I58
sS'casualties"'
p159
I58
sS'bestie'
p160
I58
sS'deck'
p161
I56
sS'over'
p162
I52
sS'fall'
p163
I57
sS"tam's"
p164
I58
sS'bella'
p165
I57
sS'japan'
p166
I58
sS'strangle'
p167
I58
sS'before'
p168
I45
sS'ima'
p169
I51
sS'somewhere'
p170
I56
sS'kaepernick'
p171
I58
sS'fix'
p172
I58
sS'expectations'
p173
I58
sS'better'
p174
I48
sS'goodmorning'
p175
I58
sS'weeks'
p176
I54
sS'inventory'
p177
I58
sS'then'
p178
I49
sS'them'
p179
I47
sS'goool!!!\xe2\x9a\xbd\xef\xb8\x8f\xe2\x9a\xbd\xef\xb8\x8f\xe2\x9a\xbd\xef\xb8\x8f'
p180
I58
sS'weakness'
p181
I58
sS"we'll"
p182
I58
sS'break'
p183
I57
sS'band'
p184
I58
sS'they'
p185
I42
sS'silver'
p186
I58
sS'bread'
p187
I57
sS'several'
p188
I58
sS'meat'
p189
I57
sS'l'
p190
I58
sS'me\xc3\xb1o'
p191
I58
sS'each'
p192
I57
sS'went'
p193
I53
sS'bong'
p194
I57
sS'side'
p195
I55
sS'mean'
p196
I51
sS'jillian'
p197
I58
sS"d'x,90220\n492570846586601472,sisahgonzalez,2014-07-25"
p198
I58
sS'bowls'
p199
I58
sS'392'
p200
I58
sS'dawg'
p201
I58
sS'forgot'
p202
I55
sS'saturday'
p203
I54
sS'brings'
p204
I57
sS'rt'
p205
I58
sS'gol'
p206
I53
sS'gon'
p207
I58
sS'driving'
p208
I57
sS'god'
p209
I55
sS'cuteeeee'
p210
I58
sS'ihop'
p211
I55
sS'smh'
p212
I54
sS'medicine'
p213
I58
sS'got'
p214
I35
sS'rn'
p215
I53
sS'forth'
p216
I58
sS'cutest'
p217
I57
sS'coronona?-'
p218
I58
sS'free'
p219
I58
sS'struggle'
p220
I58
sS'wanted'
p221
I57
sS'westside'
p222
I58
sS'ate'
p223
I54
sS'starts'
p224
I57
sS'days'
p225
I55
sS'outfits'
p226
I58
sS"today's"
p227
I58
sS'soda'
p228
I58
sS'fuckin'
p229
I56
sS'already'
p230
I54
sS'20:50:14.0,33.89749818,-118.22423074,5426.02,me'
p231
I58
sS'grade'
p232
I57
sS'marisol'
p233
I58
sS'wash'
p234
I58
sS'another'
p235
I52
sS'hood'
p236
I55
sS'sisig'
p237
I58
sS'muirranch'
p238
I58
sS'spinach'
p239
I57
sS'guinness'
p240
I58
sS'girls'
p241
I56
sS'needed'
p242
I58
sS'master'
p243
I58
sS'too'
p244
I43
sS'legs'
p245
I58
sS'bitter'
p246
I58
sS'dogs'
p247
I58
sS'listen'
p248
I56
sS'gym'
p249
I58
sS'2am'
p250
I58
sS'serve'
p251
I58
sS'digo'
p252
I57
sS'cereal'
p253
I58
sS'sincerity'
p254
I58
sS'digg'
p255
I58
sS'diga'
p256
I58
sS'begins'
p257
I58
sS'target'
p258
I58
sS'nominate'
p259
I58
sS'mierda'
p260
I58
sS'shower'
p261
I57
sS'matter'
p262
I57
sS'oooooahh'
p263
I58
sS'street'
p264
I57
sS'silly'
p265
I58
sS'williams'
p266
I58
sS'tres'
p267
I58
sS'feeling'
p268
I55
sS'bridge'
p269
I58
sS'humble'
p270
I57
sS'mind'
p271
I56
sS'mine'
p272
I57
sS'chest\xe2\x80\xa6'
p273
I58
sS'seen'
p274
I57
sS'seem'
p275
I58
sS'obviously'
p276
I58
sS'-'
p277
I52
sS'niece'
p278
I58
sS'2010.amazing'
p279
I58
sS'snob'
p280
I58
sS'denggg...pretty'
p281
I58
sS'rides'
p282
I57
sS'belen'
p283
I58
sS'blue'
p284
I58
sS'though'
p285
I55
sS'doin'
p286
I58
sS'af!,90220\n496709603539681280,jakaridub23,2014-08-05'
p287
I58
sS'victoria'
p288
I58
sS'regular'
p289
I57
sS'mouth'
p290
I58
sS'check'
p291
I55
sS'don'
p292
I58
sS'more:-/'
p293
I58
sS'm'
p294
I58
sS'dog'
p295
I58
sS'yours'
p296
I57
sS'definitely'
p297
I57
sS'yankees'
p298
I58
sS'annoyed'
p299
I58
sS'came'
p300
I57
sS'marvel'
p301
I58
sS'saying'
p302
I57
sS'bomb'
p303
I57
sS"thot's"
p304
I58
sS'up...the'
p305
I58
sS'nephew'
p306
I57
sS'fuckn'
p307
I58
sS'sewn'
p308
I58
sS'pain..deal'
p309
I58
sS'menu'
p310
I58
sS'weekends'
p311
I58
sS'hacerla'
p312
I58
sS'rihanna'
p313
I58
sS'bush'
p314
I58
sS'doughnutss'
p315
I58
sS'chipotle'
p316
I57
sS'rica'
p317
I55
sS'wearing'
p318
I58
sS'do'
p319
I34
sS'dm'
p320
I57
sS'sunglasses'
p321
I58
sS"can't\xe2\x80\xa6"
p322
I58
sS'de'
p323
I52
sS'stop'
p324
I57
sS'da'
p325
I55
sS'pocket'
p326
I58
sS'granted.,90220\n453732801410375680,eponce_310,2014-04-09'
p327
I58
sS'poutine'
p328
I58
sS'dr'
p329
I58
sS'peyton'
p330
I58
sS'earl'
p331
I58
sS'runs'
p332
I58
sS'bar'
p333
I58
sS'perros'
p334
I58
sS'emm'
p335
I58
sS'officially'
p336
I58
sS'patch'
p337
I58
sS'w/o'
p338
I58
sS'bae'
p339
I57
sS'shots'
p340
I57
sS'grilled'
p341
I57
sS'wannabe'
p342
I58
sS'steal'
p343
I58
sS"bf's"
p344
I58
sS'fair'
p345
I57
sS'fluffy'
p346
I58
sS'fxckkkkkk'
p347
I58
sS'decided'
p348
I57
sS'depressive'
p349
I58
sS'best'
p350
I52
sS'wantbe'
p351
I58
sS'lancaster'
p352
I57
sS'said'
p353
I51
sS'lots'
p354
I58
sS'away'
p355
I56
sS'gentleman'
p356
I58
sS'game)'
p357
I58
sS'ringo'
p358
I58
sS'future'
p359
I57
sS'2morro'
p360
I58
sS'alguien'
p361
I58
sS'lazy'
p362
I55
sS'men'
p363
I58
sS'omg'
p364
I55
sS'wears'
p365
I58
sS'nature'
p366
I58
sS'sera'
p367
I58
sS'boss'
p368
I58
sS'nightmares'
p369
I58
sS'here'
p370
I48
sS'386'
p371
I58
sS'cousin'
p372
I57
sS'pity'
p373
I58
sS'fair!!!!,90220\n264826884888604672,eriksarni1,2012-11-03'
p374
I58
sS'ill'
p375
I56
sS'compton'
p376
I20
sS'against'
p377
I57
sS'gotten'
p378
I58
sS'players'
p379
I58
sS'games'
p380
I58
sS'lookin'
p381
I56
sS'faces'
p382
I58
sS'plent'
p383
I58
sS'shrimpsss'
p384
I58
sS'asked'
p385
I58
sS'con'
p386
I58
sS'tough'
p387
I58
sS'betting'
p388
I58
sS'ayeee'
p389
I58
sS'imagine\xe2\x80\xa6'
p390
I58
sS'height'
p391
I58
sS'bocande'
p392
I58
sS'shih~tsu'
p393
I58
sS'diff'
p394
I58
sS'blonde'
p395
I58
sS'trust'
p396
I55
sS'100'
p397
I58
sS'hijo'
p398
I58
sS'puts'
p399
I57
sS'"you'
p400
I58
sS'binge'
p401
I57
sS'been'
p402
I41
sS'him\xe2\x80\x9dkk'
p403
I58
sS'confident'
p404
I58
sS'beer'
p405
I58
sS'much'
p406
I48
sS'puta'
p407
I58
sS'tenemos'
p408
I58
sS'administration)'
p409
I58
sS'life'
p410
I48
sS'easy'
p411
I54
sS'relaxing'
p412
I58
sS'drugs'
p413
I58
sS'homie'
p414
I56
sS'dave'
p415
I58
sS'168'
p416
I58
sS'02:10:10.0,33.9021888,-118.2291397,5426.02,blue'
p417
I58
sS'chill'
p418
I58
sS"l's"
p419
I58
sS'kdiceeey'
p420
I58
sS'slyboy'
p421
I58
sS'has'
p422
I49
sS'tank'
p423
I58
sS'n'
p424
I51
sS'ugly'
p425
I57
sS"00:55:26.0,33.89765338,-118.22335719,5426.02,i'm"
p426
I58
sS"vicki's"
p427
I58
sS'suppose'
p428
I58
sS'him/her'
p429
I58
sS'visit'
p430
I58
sS'voice'
p431
I58
sS'chilling'
p432
I58
sS'"joton"'
p433
I58
sS'03:02:16.0,33.9006341,-118.2282021,5426.02,if'
p434
I58
sS'mexico'
p435
I56
sS'is'
p436
I12
sS'it'
p437
I13
sS'ii'
p438
I58
sS'cant'
p439
I58
sS'im'
p440
I55
sS'in'
p441
I8
sS'ig'
p442
I58
sS'if'
p443
I31
sS'grown'
p444
I58
sS'fotos'
p445
I58
sS'lmaoooooo'
p446
I58
sS'make'
p447
I47
sS'toaster'
p448
I58
sS'bacck'
p449
I58
sS'today!!something'
p450
I58
sS'forehead'
p451
I58
sS'split'
p452
I58
sS'big'
p453
I55
sS'sidelines'
p454
I58
sS'toasted'
p455
I58
sS'social'
p456
I58
sS'hang'
p457
I58
sS'rain'
p458
I58
sS'hand'
p459
I57
sS'portal'
p460
I58
sS'lol\xe2\x80\x9d'
p461
I58
sS'jealous'
p462
I58
sS'03:05:43.0,33.8981619,-118.2286921,5426.02,biggest'
p463
I58
sS'aka'
p464
I55
sS'thoughts'
p465
I58
sS'kid'
p466
I58
sS'scenario'
p467
I58
sS'algun'
p468
I58
sS'youre'
p469
I58
sS'tho'
p470
I49
sS'maximo'
p471
I58
sS'contact'
p472
I57
sS'pandora'
p473
I58
sS'hearts'
p474
I58
sS'the'
p475
I3
sS'807'
p476
I58
sS'806'
p477
I58
sS'left'
p478
I57
sS'just'
p479
I26
sS'yea'
p480
I57
sS'sleepy'
p481
I55
sS'hatingg'
p482
I58
sS'thanks'
p483
I55
sS'campbell'
p484
I58
sS'yes'
p485
I53
sS'yet'
p486
I56
sS"could've"
p487
I58
sS'jose'
p488
I58
sS'furry'
p489
I58
sS'had'
p490
I45
sS'beloved'
p491
I58
sS'east'
p492
I58
sS'hat'
p493
I57
sS'5c'
p494
I58
sS'gave'
p495
I58
sS'roflol'
p496
I58
sS'14:44:49.0,33.89644654,-118.22511056,5426.02,another'
p497
I58
sS'bands'
p498
I58
sS'judge'
p499
I58
sS'murder?"'
p500
I58
sS'dreams'
p501
I58
sS'melting'
p502
I58
sS'performing'
p503
I58
sS'ninguna'
p504
I58
sS'officer'
p505
I58
sS'night'
p506
I52
sS'hung'
p507
I58
sS'amor'
p508
I57
sS'security'
p509
I57
sS'artrave'
p510
I58
sS'butterfly'
p511
I58
sS'right'
p512
I50
sS'old'
p513
I55
sS'waitressin'
p514
I58
sS'people'
p515
I49
sS'ustedes'
p516
I58
sS'idgaf'
p517
I58
sS'jennifer'
p518
I55
sS'printer'
p519
I58
sS'trippen'
p520
I58
sS'dear'
p521
I58
sS'tripped'
p522
I58
sS'for'
p523
I15
sS'/'
p524
I57
sS'everything'
p525
I52
sS'fadedd'
p526
I58
sS'17:30:47.0,33.8959894,-118.2278623,5426.02,you'
p527
I58
sS'422'
p528
I58
sS'christmas'
p529
I57
sS'bpt'
p530
I58
sS'extraordinaire'
p531
I58
sS'post'
p532
I55
sS'super'
p533
I58
sS'dollars'
p534
I58
sS'months'
p535
I57
sS'choke'
p536
I58
sS'dinner'
p537
I58
sS'places\xe2\x80\xa6'
p538
I58
sS'overheats'
p539
I58
sS'facetime'
p540
I58
sS'aha'
p541
I58
sS'whats'
p542
I58
sS'wasting'
p543
I58
sS'selfie'
p544
I57
sS'two'
p545
I57
sS'down'
p546
I52
sS'thankful'
p547
I57
sS'soy'
p548
I58
sS'subo'
p549
I58
sS'shoots'
p550
I58
sS"honest..i'm"
p551
I58
sS'often'
p552
I58
sS'wal'
p553
I58
sS'fabric'
p554
I58
sS'[x'
p555
I57
sS'class'
p556
I58
sS'gig'
p557
I57
sS'stuck'
p558
I57
sS'way'
p559
I50
sS'call'
p560
I53
sS'wat'
p561
I58
sS'was'
p562
I27
sS'happy'
p563
I47
sS'amateur'
p564
I58
sS'backrooms'
p565
I58
sS'ratito'
p566
I58
sS'teehee'
p567
I58
sS'recommend'
p568
I58
sS'(voice'
p569
I58
sS'feminine'
p570
I58
sS'hear'
p571
I55
sS'dead'
p572
I56
sS'true'
p573
I56
sS'viva'
p574
I57
sS'rosecrans'
p575
I56
sS'azz'
p576
I58
sS'nerdy'
p577
I58
sS'smashed'
p578
I58
sS'moly'
p579
I58
sS'later'
p580
I56
sS"'3"
p581
I58
sS'fredericks'
p582
I58
sS'scandalous'
p583
I58
sS"17:18:15.0,33.89756467,-118.22429956,5426.02,i'm"
p584
I58
sS'drive'
p585
I56
sS"hahai've"
p586
I58
sS'exist'
p587
I58
sS'mediocre'
p588
I58
sS'annoying'
p589
I57
sS'trip'
p590
I56
sS'shit'
p591
I30
sS'viste'
p592
I58
sS'no'
p593
I35
sS'na'
p594
I57
sS'rogandole'
p595
I58
sS'when'
p596
I38
sS'reality'
p597
I58
sS'til'
p598
I58
sS'interested'
p599
I58
sS'republic'
p600
I58
sS'culver'
p601
I56
sS'test'
p602
I58
sS'fair?!!,90220\n453729579136331776,eponce_310,2014-04-09'
p603
I58
sS'smell'
p604
I58
sS'skirts\xe2\x80\xa6'
p605
I58
sS'scored'
p606
I58
sS'picture'
p607
I55
sS"'s"
p608
I58
sS'brothers'
p609
I58
sS'models'
p610
I58
sS'surprise'
p611
I58
sS'football'
p612
I58
sS'diet'
p613
I58
sS'hahahah'
p614
I58
sS"let's"
p615
I48
sS'fell'
p616
I57
sS'smelling'
p617
I58
sS'weekend'
p618
I56
sS'song....one'
p619
I58
sS'younger'
p620
I58
sS'happening'
p621
I58
sS'together'
p622
I58
sS'songz'
p623
I58
sS'time'
p624
I41
sS'serious'
p625
I57
sS'songs'
p626
I58
sS'coach'
p627
I57
sS':('
p628
I54
sS':)'
p629
I46
sS':*'
p630
I58
sS'laura'
p631
I58
sS'chair'
p632
I58
sS'yummy'
p633
I58
sS',90220\n481915383943671808,jimmyspadez,2014-06-25'
p634
I58
sS'flash'
p635
I57
sS'father'
p636
I58
sS'finally'
p637
I49
sS'decir'
p638
I58
sS'macho'
p639
I58
sS'watts2'
p640
I58
sS':o'
p641
I53
sS'3am'
p642
I58
sS':d'
p643
I52
sS'mixto'
p644
I58
sS'spanking'
p645
I58
sS':|'
p646
I58
sS'vegas'
p647
I57
sS'kitten'
p648
I57
sS':v'
p649
I58
sS'minute'
p650
I58
sS'cool'
p651
I57
sS'beating'
p652
I58
sS'=d'
p653
I58
sS'did'
p654
I47
sS'die'
p655
I58
sS'dig'
p656
I58
sS'brother'
p657
I57
sS'standards'
p658
I58
sS'leave'
p659
I54
sS':]'
p660
I54
sS'team'
p661
I54
sS'quick'
p662
I58
sS'guy'
p663
I54
sS'round'
p664
I58
sS"it'll"
p665
I57
sS'ville'
p666
I58
sS'federales'
p667
I58
sS'droid'
p668
I58
sS'says'
p669
I57
sS'trend'
p670
I58
sS'resisting'
p671
I58
sS'shirts'
p672
I58
sS'sayn'
p673
I58
sS'chicken'
p674
I57
sS'drinks'
p675
I58
sS'nina'
p676
I58
sS'curse'
p677
I58
sS"battery's"
p678
I58
sS'barbie'
p679
I58
sS'mexico!!!\xe2\x9a\xbd\xef\xb8\x8f\xe2\x9a\xbd\xef\xb8\x8f'
p680
I58
sS'melo'
p681
I58
sS'reply'
p682
I58
sS'ihop!\xe2\x98\x95'
p683
I58
sS'supporting'
p684
I57
sS'z0mggg'
p685
I58
sS'jury'
p686
I57
sS'water'
p687
I57
sS'slow'
p688
I58
sS'viajo'
p689
I58
sS'splice'
p690
I58
sS'alone'
p691
I57
sS'along'
p692
I58
sS"='("
p693
I58
sS'teacher'
p694
I58
sS'change'
p695
I57
sS'wait'
p696
I55
sS'boy'
p697
I55
sS'strudel'
p698
I58
sS'garnier'
p699
I58
sS'shooter'
p700
I58
sS'trial'
p701
I58
sS'bangs'
p702
I58
sS'boo'
p703
I56
sS'usually'
p704
I57
sS'weird'
p705
I56
sS'massage'
p706
I58
sS'teenage'
p707
I58
sS'love'
p708
I35
sS'extra'
p709
I56
sS'thrus'
p710
I58
sS'verga'
p711
I56
sS'1st'
p712
I56
sS'touchdown'
p713
I58
sS'rarely'
p714
I58
sS'everybody'
p715
I58
sS'20:22:53.0,33.9030847,-118.2296749,5426.02,-'
p716
I58
sS'siempre'
p717
I58
sS'franco'
p718
I58
sS'working'
p719
I54
sS'23:43:01.0,33.89836306,-118.22256903,5426.02,the'
p720
I58
sS'angry'
p721
I58
sS'pero'
p722
I56
sS'by'
p723
I50
sS'>:3'
p724
I58
sS'ca)'
p725
I48
sS'pre~'
p726
I58
sS'iphone'
p727
I58
sS'nigga"'
p728
I58
sS'memory'
p729
I58
sS'films'
p730
I58
sS'thru'
p731
I58
sS'today'
p732
I49
sS'loving'
p733
I57
sS'do...,90220\n453729200298401792,eponce_310,2014-04-09'
p734
I58
sS'bungholee'
p735
I58
sS'caterpie'
p736
I58
sS'downtown'
p737
I58
sS'>:]'
p738
I58
sS'fly'
p739
I57
sS'niggas'
p740
I52
sS'car'
p741
I53
sS'>:o'
p742
I58
sS'niggaz'
p743
I58
sS'cat'
p744
I55
sS'sour'
p745
I57
sS'can'
p746
I38
sS'cam'
p747
I58
sS'cal'
p748
I58
sS'making'
p749
I58
sS'texted'
p750
I58
sS'crazy'
p751
I53
sS'uruguay'
p752
I57
sS'awesome'
p753
I54
sS'sense'
p754
I58
sS"didn't"
p755
I51
sS'fuck'
p756
I43
sS'heard'
p757
I55
sS'20:15:44.0,33.9031041,-118.2296931,5426.02,seguramente'
p758
I58
sS'dropped'
p759
I57
sS'sharp'
p760
I58
sS'tiran'
p761
I58
sS'pink'
p762
I58
sS'compraron'
p763
I58
sS'rays'
p764
I58
sS'nonchalant'
p765
I58
sS'watching'
p766
I54
sS'1'
p767
I58
sS'sunday'
p768
I57
sS'silog'
p769
I58
sS'maestro'
p770
I58
sS'nonstop'
p771
I58
sS'04:05:23.0,33.89749815,-118.2242313,5426.02,chillin'
p772
I58
sS'mas'
p773
I57
sS'cuhs'
p774
I58
sS'laundry'
p775
I58
sS'may'
p776
I56
sS'max'
p777
I58
sS'spot'
p778
I58
sS'birthday'
p779
I54
sS'mad'
p780
I55
sS'mustve'
p781
I58
sS'date'
p782
I58
sS'end'
p783
I58
sS'suck'
p784
I57
sS'18:02:37.0,33.89749877,-118.22423437,5426.02,chilling'
p785
I58
sS'guys'
p786
I56
sS'mal'
p787
I58
sS'man'
p788
I51
sS'remember'
p789
I57
sS'o.0'
p790
I58
sS'whenever'
p791
I58
sS'maybe'
p792
I57
sS'corona'
p793
I58
sS'st'
p794
I57
sS'si'
p795
I58
sS'so'
p796
I14
sS'crept'
p797
I58
sS'tall'
p798
I57
sS'shinning'
p799
I58
sS'se'
p800
I56
sS'cute'
p801
I56
sS'tagged'
p802
I58
sS'food'
p803
I54
sS'indeed'
p804
I58
sS'haircut'
p805
I58
sS'years'
p806
I57
sS'professors'
p807
I58
sS'course'
p808
I57
sS'cold'
p809
I58
sS'still'
p810
I52
sS'birds'
p811
I58
sS'tendency'
p812
I58
sS'police'
p813
I57
sS'thank'
p814
I57
sS"he's"
p815
I52
sS'interesting'
p816
I58
sS'amazing'
p817
I57
sS'lyin'
p818
I58
sS'tweety'
p819
I58
sS'whole'
p820
I58
sS'ours'
p821
I58
sS':['
p822
I58
sS'abusive'
p823
I58
sS'texas'
p824
I58
sS'happened'
p825
I58
sS'lonely'
p826
I58
sS'vitor'
p827
I58
sS'conversations'
p828
I58
sS'introduce'
p829
I57
sS'lunch'
p830
I58
sS'srsly'
p831
I58
sS'morenita'
p832
I58
sS'half'
p833
I57
sS'not'
p834
I33
sS'now'
p835
I35
sS'ahaha'
p836
I58
sS'bullshit'
p837
I57
sS'hungry\xe2\x80\xa6that'
p838
I58
sS'term'
p839
I58
sS'argentina'
p840
I58
sS'name'
p841
I54
sS'sophomore'
p842
I58
sS'pubesent'
p843
I58
sS'trip!!!\xe2\x80\xa6'
p844
I58
sS'marley"'
p845
I58
sS'reblown'
p846
I58
sS'comptonhow'
p847
I58
sS'em'
p848
I53
sS'el'
p849
I53
sS'en'
p850
I56
sS'unproductive'
p851
I58
sS'fired'
p852
I58
sS'yeah'
p853
I51
sS'azz!!\xe2\x9a\xbd\xef\xb8\x8f\xe2\x9a\xbd\xef\xb8\x8f\xe2\x9a\xbd\xef\xb8\x8flove'
p854
I58
sS'consciencia'
p855
I58
sS'ex'
p856
I58
sS'year'
p857
I56
sS'ft'
p858
I58
sS'girl'
p859
I57
sS'uhuh'
p860
I58
sS'refined'
p861
I58
sS'es'
p862
I54
sS'album'
p863
I56
sS":'("
p864
I58
sS'and\xe2\x80\xa6'
p865
I58
sS'jackson'
p866
I58
sS'opened'
p867
I58
sS'space'
p868
I58
sS'blu'
p869
I57
sS'factory'
p870
I58
sS'taste?\xe2\x80\x9d'
p871
I58
sS'looking'
p872
I55
sS'seriously'
p873
I56
sS"shouldn't"
p874
I54
sS'wainwright'
p875
I57
sS'dominate'
p876
I58
sS'managed'
p877
I58
sS'shows'
p878
I57
sS'smfh'
p879
I58
sS'dodgers'
p880
I58
sS'killuuuum'
p881
I58
sS'cars'
p882
I57
sS'liddo'
p883
I58
sS'walnuts'
p884
I58
sS'capcom'
p885
I58
sS'besides'
p886
I58
sS'darkskinned'
p887
I58
sS'care'
p888
I55
sS'partner'
p889
I58
sS'watts'
p890
I57
sS'gusta'
p891
I58
sS'teachers'
p892
I58
sS'dunno'
p893
I57
sS'19:08:33.0,33.89605825,-118.22376813,5426.02,solid'
p894
I58
sS'punk'
p895
I58
sS'thing'
p896
I53
sS'"police'
p897
I58
sS'place'
p898
I57
sS'think'
p899
I46
sS'first'
p900
I52
sS'emotion'
p901
I58
sS'cheese'
p902
I58
sS'xd'
p903
I51
sS'one'
p904
I34
sS'fast'
p905
I57
sS'spanish'
p906
I58
sS'vote'
p907
I58
sS'sounds'
p908
I56
sS'bkos'
p909
I58
sS'pokemon'
p910
I58
sS'tomorrow'
p911
I55
sS'city'
p912
I33
sS'little'
p913
I53
sS'slept'
p914
I57
sS'anyone'
p915
I57
sS'x['
p916
I58
sS'2'
p917
I39
sS'x]'
p918
I54
sS'white'
p919
I58
sS'friend'
p920
I57
sS'gives'
p921
I58
sS'eyes'
p922
I55
sS'x)'
p923
I56
sS'mostly'
p924
I57
sS'that'
p925
I17
sS'season'
p926
I52
sS'bruh'
p927
I57
sS'released'
p928
I58
sS'uoeno'
p929
I58
sS'flowers'
p930
I58
sS'than'
p931
I54
sS'becuz'
p932
I58
sS'boyfriend'
p933
I58
sS'11'
p934
I58
sS'10'
p935
I58
sS'12'
p936
I58
sS'lmao'
p937
I28
sS'18'
p938
I57
sS'gotta'
p939
I49
sS'recruit'
p940
I58
sS'r'
p941
I54
sS'were'
p942
I52
sS'cards'
p943
I58
sS'asleep'
p944
I58
sS'and'
p945
I7
sS'audioslave'
p946
I58
sS'utah..i'
p947
I58
sS'hoes'
p948
I58
sS'briefs'
p949
I58
sS'sad'
p950
I58
sS'say'
p951
I38
sS'breakfast'
p952
I55
sS'saw'
p953
I55
sS'any'
p954
I57
sS'sat'
p955
I58
sS'cabrones!!!!\xe2\x9a\xbd\xef\xb8\x8f\xe2\x9a\xbd\xef\xb8\x8f'
p956
I58
sS'18:24:08.0,33.90092901,-118.23093276,5426.02,i'
p957
I58
sS'aside'
p958
I58
sS'hookah'
p959
I58
sS'take'
p960
I45
sS'shocker'
p961
I58
sS'green'
p962
I58
sS'heal'
p963
I58
sS'channel'
p964
I58
sS'bets'
p965
I58
sS'begin'
p966
I58
sS'sure'
p967
I56
sS'pain'
p968
I58
sS'normal'
p969
I58
sS'pendejos'
p970
I58
sS'knew'
p971
I58
sS'feckin'
p972
I58
sS'rematch'
p973
I58
sS'assault'
p974
I58
sS'pair'
p975
I58
sS'right?\xe2\x80\x9d'
p976
I58
sS'america'
p977
I58
sS'forever'
p978
I57
sS'adopt'
p979
I58
sS'hungry'
p980
I54
sS'sunset'
p981
I58
sS'senior'
p982
I58
sS'damnn'
p983
I58
sS'playoffs'
p984
I58
sS'show'
p985
I53
sS'therapist'
p986
I58
sS'beautyis_nini'
p987
I58
sS'/\xe2\x80\xa6'
p988
I58
sS'aint'
p989
I58
sS'upgrade'
p990
I58
sS'\xe2\x9c\x8b'
p991
I58
sS'podrian'
p992
I58
sS'holaseria'
p993
I58
sS'3'
p994
I52
sS'crime'
p995
I58
sS'foward'
p996
I58
sS'only'
p997
I49
sS'going'
p998
I34
sS'black'
p999
I50
sS'months.hope'
p1000
I58
sS'carolina'
p1001
I58
sS'beatles'
p1002
I58
sS"keys'"
p1003
I58
sS'get'
p1004
I29
sS'assistant'
p1005
I58
sS'chillies'
p1006
I58
sS'mission'
p1007
I58
sS'whiles'
p1008
I58
sS'arbutus'
p1009
I58
sS'*leaves'
p1010
I58
sS":'3"
p1011
I58
sS'morning'
p1012
I54
sS'naked'
p1013
I58
sS'jokes'
p1014
I58
sS'stupid'
p1015
I56
sS'mixedbycrook\xe2\x80\xa6'
p1016
I58
sS":'/"
p1017
I58
sS'powerade'
p1018
I58
sS'where'
p1019
I55
sS"y'all"
p1020
I53
sS'concert'
p1021
I58
sS'up'
p1022
I27
sS'amor"'
p1023
I57
sS'college'
p1024
I52
sS'anyways'
p1025
I58
sS'parking'
p1026
I57
sS'ur'
p1027
I53
sS'wonder'
p1028
I58
sS'fails'
p1029
I58
sS'taqueria'
p1030
I58
sS'ways'
p1031
I58
sS"father's"
p1032
I58
sS'enough'
p1033
I56
sS'gaga'
p1034
I58
sS'enjoys'
p1035
I58
sS'reading'
p1036
I58
sS'scoring'
p1037
I58
sS'jobs'
p1038
I58
sS'zacatecas'
p1039
I58
sS'dinero'
p1040
I58
sS'tus'
p1041
I58
sS'jp'
p1042
I58
sS'dome'
p1043
I58
sS'jr'
p1044
I58
sS'como'
p1045
I57
sS'jk'
p1046
I56
sS'coma'
p1047
I58
sS'come'
p1048
I52
sS'bianchis'
p1049
I58
sS'many'
p1050
I58
sS'tweeky'
p1051
I58
sS'swervin'
p1052
I58
sS'tour'
p1053
I58
sS'quien'
p1054
I56
sS'backpack'
p1055
I58
sS"can't"
p1056
I46
sS'duty'
p1057
I57
sS'opinen'
p1058
I58
sS'por'
p1059
I58
sS'60'
p1060
I58
sS'62'
p1061
I58
sS"couldn't"
p1062
I58
sS'twig'
p1063
I58
sS'save'
p1064
I58
sS'tuning'
p1065
I58
sS'teddy'
p1066
I58
sS'classic'
p1067
I58
sS'mart'
p1068
I58
sS'sesh'
p1069
I58
sS'featuring'
p1070
I58
sS'robbed'
p1071
I58
sS'andrew'
p1072
I58
sS'wake'
p1073
I57
sS'careful'
p1074
I58
sS'champions'
p1075
I58
sS'those'
p1076
I52
sS'sound'
p1077
I56
sS'myself'
p1078
I58
sS'turtles'
p1079
I58
sS'these'
p1080
I45
sS'ratchet'
p1081
I58
sS'life"'
p1082
I58
sS'pollo'
p1083
I58
sS'mound'
p1084
I58
sS'coolest'
p1085
I58
sS'vest'
p1086
I57
sS'donors'
p1087
I58
sS'nightcap'
p1088
I58
sS'bros'
p1089
I57
sS'sleeping'
p1090
I57
sS'middle'
p1091
I58
sS'someone'
p1092
I56
sS'chinito'
p1093
I58
sS'return'
p1094
I58
sS'stickers'
p1095
I58
sS'everyday'
p1096
I57
sS'worry'
p1097
I57
sS'different'
p1098
I57
sS'absences'
p1099
I58
sS'roscrans'
p1100
I58
sS'bowl'
p1101
I57
sS'same'
p1102
I56
sS'dropdead'
p1103
I58
sS'shifts'
p1104
I58
sS'samy'
p1105
I58
sS'bows'
p1106
I58
sS'pad'
p1107
I58
sS'underestimate'
p1108
I58
sS'reminder'
p1109
I58
sS'emojis'
p1110
I58
sS'week'
p1111
I51
sS'finish'
p1112
I58
sS'rotflmao'
p1113
I58
sS'anecdotas'
p1114
I58
sS'driver'
p1115
I58
sS'entonces'
p1116
I57
sS'20:30:31.0,33.9031306,-118.2296935,5426.02,obvio'
p1117
I58
sS'costa'
p1118
I55
sS'tracking'
p1119
I43
sS'dying'
p1120
I56
sS'charger'
p1121
I58
sS'eerie'
p1122
I58
sS'without'
p1123
I54
sS'comes'
p1124
I56
sS'dimension'
p1125
I58
sS'summer'
p1126
I57
sS'212'
p1127
I58
sS'\xe2\x98\xba\xef\xb8\x8f'
p1128
I58
sS'being'
p1129
I52
sS'money'
p1130
I54
sS'rest'
p1131
I57
sS'20:19:10.0,33.9031212,-118.2296655,5426.02,-'
p1132
I58
sS'thinking'
p1133
I58
sS'man.this'
p1134
I58
sS'seems'
p1135
I58
sS'budddah'
p1136
I58
sS'uncaf'
p1137
I58
sS'4'
p1138
I54
sS'colegio'
p1139
I58
sS'skies'
p1140
I58
sS'real'
p1141
I47
sS'starving'
p1142
I58
sS'around'
p1143
I50
sS'amo'
p1144
I58
sS'read'
p1145
I58
sS'fridge'
p1146
I57
sS'gonna'
p1147
I40
sS'early'
p1148
I57
sS'nando'
p1149
I58
sS'netherlands'
p1150
I58
sS'seahawks'
p1151
I58
sS'mom'
p1152
I51
sS'penalespenalespenales'
p1153
I58
sS'world'
p1154
I52
sS'killn'
p1155
I58
sS'lady'
p1156
I57
sS'bracelet'
p1157
I58
sS'lightning'
p1158
I58
sS'either'
p1159
I58
sS'cinnabon'
p1160
I58
sS'britt'
p1161
I58
sS';d'
p1162
I58
sS'playin'
p1163
I58
sS'snoring'
p1164
I58
sS'gross'
p1165
I58
sS'mood'
p1166
I57
sS'station)'
p1167
I58
sS'welcome'
p1168
I58
sS'assembly'
p1169
I58
sS'business'
p1170
I57
sS'asap'
p1171
I58
sS'lmfao'
p1172
I57
sS'nails'
p1173
I58
sS'fitness'
p1174
I58
sS'nada...!-'
p1175
I58
sS'^_^'
p1176
I58
sS';)'
p1177
I55
sS'exciting'
p1178
I58
sS'earlier'
p1179
I58
sS'on'
p1180
I18
sS'ol'
p1181
I58
sS'ok'
p1182
I52
sS'oh'
p1183
I43
sS'og'
p1184
I57
sS'of'
p1185
I10
sS'favorite'
p1186
I56
sS'mixed'
p1187
I57
sS'ot'
p1188
I56
sS'or'
p1189
I38
sS'9ers'
p1190
I55
sS'tribe'
p1191
I58
sS'ladies'
p1192
I58
sS'westside/cali'
p1193
I58
sS'scores'
p1194
I57
sS'snapchat'
p1195
I58
sS'determine'
p1196
I58
sS'your'
p1197
I37
sS'neymar'
p1198
I57
sS'log'
p1199
I58
sS'her'
p1200
I48
sS'strictly'
p1201
I58
sS'there'
p1202
I51
sS'hey'
p1203
I57
sS'lol'
p1204
I9
sS'start'
p1205
I57
sS'lov'
p1206
I58
sS'lot'
p1207
I57
sS'fadedddd'
p1208
I58
sS'house)'
p1209
I58
sS'complete'
p1210
I57
sS'brahva'
p1211
I58
sS'lmaooo'
p1212
I58
sS'striker'
p1213
I58
sS'sirve'
p1214
I58
sS'chevron)'
p1215
I58
sS'smaug'
p1216
I58
sS';]]'
p1217
I58
sS'trying'
p1218
I53
sS'with'
p1219
I19
sS'buying'
p1220
I57
sS'october'
p1221
I58
sS'stanford'
p1222
I58
sS"wasn't"
p1223
I58
sS'bbs'
p1224
I58
sS'ronaldo'
p1225
I57
sS'vergas'
p1226
I56
sS'strawberry'
p1227
I58
sS"'blah'"
p1228
I58
sS'dirty'
p1229
I58
sS'gone'
p1230
I58
sS'ac'
p1231
I58
sS'af'
p1232
I56
sS'certain'
p1233
I57
sS'4:20pm'
p1234
I58
sS'am'
p1235
I55
sS'al'
p1236
I58
sS'an'
p1237
I44
sS'as'
p1238
I42
sS'at'
p1239
I19
sS'aw'
p1240
I58
sS'girlfriend'
p1241
I58
sS'watched'
p1242
I56
sS'cables'
p1243
I58
sS'nerd'
p1244
I58
sS'gram'
p1245
I58
sS'again'
p1246
I52
sS'idiot'
p1247
I56
sS'bruuhhhhh'
p1248
I58
sS'field'
p1249
I58
sS'valia'
p1250
I57
sS'you'
p1251
I5
sS'poor'
p1252
I57
sS'sushiiii'
p1253
I58
sS'championship'
p1254
I58
sS'desolation'
p1255
I58
sS'teeth'
p1256
I58
sS'brandy'
p1257
I57
sS'unattractive'
p1258
I58
sS"she's"
p1259
I58
sS'of\xe2\x80\xa6'
p1260
I54
sS'finals'
p1261
I58
sS'pool'
p1262
I58
sS'building'
p1263
I58
sS'session\xe2\x80\xa6'
p1264
I58
sS'calls'
p1265
I57
sS'3-1'
p1266
I58
sS'3-0'
p1267
I57
sS'u'
p1268
I25
sS'alright'
p1269
I56
sS'starting'
p1270
I57
sS'represent'
p1271
I58
sS'all'
p1272
I32
sS"nigga's"
p1273
I58
sS'forget'
p1274
I55
sS'messi'
p1275
I58
sS'instincts'
p1276
I58
sS'worms'
p1277
I57
sS'abit'
p1278
I58
sS'month'
p1279
I57
sS'besitos'
p1280
I58
sS'ciudad'
p1281
I58
sS':/'
p1282
I58
sS'follow'
p1283
I55
sS'religious'
p1284
I58
sS'apartment'
p1285
I58
sS'hunting'
p1286
I58
sS'ty'
p1287
I57
sS'imma'
p1288
I58
sS'wassup'
p1289
I57
sS'thursday'
p1290
I58
sS'to'
p1291
I3
sS'aaron'
p1292
I58
sS'14'
p1293
I58
sS'tf'
p1294
I58
sS'smile'
p1295
I55
sS'td'
p1296
I58
sS'enjoying'
p1297
I58
sS'case'
p1298
I58
sS'woman'
p1299
I58
sS'estaba'
p1300
I58
sS'worse'
p1301
I58
sS'song'
p1302
I56
sS'far'
p1303
I57
sS'fat'
p1304
I57
sS'sons'
p1305
I58
sS'worst'
p1306
I58
sS'decide'
p1307
I58
sS'fam'
p1308
I56
sS'prada'
p1309
I58
sS'elena'
p1310
I58
sS'fuckkkk'
p1311
I58
sS'trippin'
p1312
I57
sS'celebrity'
p1313
I58
sS'laying'
p1314
I58
sS'20:58:07.0,33.8962964,-118.2317493,5426.02,i'
p1315
I58
sS'dodger'
p1316
I57
sS"i'll"
p1317
I48
sS'cookies'
p1318
I58
sS'ten'
p1319
I58
sS'tea'
p1320
I57
sS'pass'
p1321
I58
sS'what'
p1322
I40
sS'sub'
p1323
I58
sS'emotions'
p1324
I58
sS'crush'
p1325
I58
sS'full'
p1326
I57
sS'vale'
p1327
I58
sS'forgive'
p1328
I58
sS'hours'
p1329
I57
sS'berkeley'
p1330
I57
sS'november'
p1331
I58
sS'me,90220\n498211645400047617,gabbagabbie132,2014-08-09'
p1332
I58
sS'901'
p1333
I58
sS'ahead'
p1334
I58
sS'pick'
p1335
I58
sS"would've"
p1336
I56
sS'narrow'
p1337
I58
sS'options'
p1338
I58
sS'asf'
p1339
I58
sS'via'
p1340
I58
sS'family'
p1341
I57
sS'transit'
p1342
I58
sS'shift.,90220\n386585538305589248,fernandoc22,2013-10-05'
p1343
I58
sS'put'
p1344
I56
sS'mutant'
p1345
I58
sS'toys'
p1346
I58
sS'corte'
p1347
I58
sS'munchies'
p1348
I58
sS'eye'
p1349
I56
sS'keiveon'
p1350
I58
sS'charge'
p1351
I58
sS'\xe2\x80\xa6fine'
p1352
I58
sS'pitching'
p1353
I58
sS'6'
p1354
I56
sS'20:17:00.0,33.9032405,-118.229772,5426.02,-'
p1355
I58
sS'more'
p1356
I49
sS'tryna'
p1357
I55
sS'company'
p1358
I58
sS"family's"
p1359
I58
sS'b!tches'
p1360
I58
sS"ain't"
p1361
I55
sS'basically'
p1362
I57
sS'glad'
p1363
I56
sS'grill'
p1364
I58
sS'none'
p1365
I58
sS'hour'
p1366
I56
sS'sucks'
p1367
I57
sS'guards'
p1368
I57
sS'pressing'
p1369
I58
sS'del'
p1370
I56
sS'learn'
p1371
I56
sS'knocked'
p1372
I58
sS'aparezca'
p1373
I58
sS'beautiful'
p1374
I56
sS'shark'
p1375
I58
sS'brown'
p1376
I58
sS'share'
p1377
I57
sS'socal'
p1378
I58
sS'lolol'
p1379
I58
sS'azul'
p1380
I58
sS'numbers'
p1381
I58
sS'ave'
p1382
I49
sS'fuentes'
p1383
I57
sS'airplane'
p1384
I58
sS'durian'
p1385
I58
sS'needs'
p1386
I56
sS'court'
p1387
I57
sS'goal'
p1388
I58
sS'awkward'
p1389
I57
sS'breaking'
p1390
I58
sS'stayed'
p1391
I58
sS'ivy'
p1392
I58
sS',90220\n500767113347219456,gabbagabbie132,2014-08-16'
p1393
I58
sS'okay'
p1394
I52
sS'plans'
p1395
I58
sS'fredricks'
p1396
I58
sS'mexico!in'
p1397
I58
sS'16:55:57.0,33.90069737,-118.22818447,5426.02,a'
p1398
I58
sS'bro,90220\n389161717311090688,fernandoc22,2013-10-12'
p1399
I58
sS'fb'
p1400
I58
sS'blood'
p1401
I58
sS'rudy'
p1402
I58
sS'becareful'
p1403
I58
sS'a'
p1404
I4
sS'marico'
p1405
I58
sS'short'
p1406
I58
sS'tweeting'
p1407
I57
sS'anytime'
p1408
I58
sS'gloomy'
p1409
I58
sS'hobbit'
p1410
I58
sS'playing'
p1411
I55
sS"that's"
p1412
I47
sS'help'
p1413
I56
sS"don't"
p1414
I24
sS'stays'
p1415
I58
sS'soon'
p1416
I53
sS'auburn'
p1417
I55
sS'held'
p1418
I58
sS'through'
p1419
I56
sS'signs'
p1420
I58
sS'hell'
p1421
I55
sS'mcdonalds'
p1422
I57
sS'its'
p1423
I50
sS'arelol'
p1424
I58
sS'style'
p1425
I57
sS'20'
p1426
I57
sS'21'
p1427
I57
sS'gaga3'
p1428
I58
sS'23'
p1429
I57
sS'pray'
p1430
I58
sS'(hands'
p1431
I58
sS'actually'
p1432
I57
sS'late'
p1433
I58
sS'ruining'
p1434
I58
sS'tiempos'
p1435
I58
sS'bout'
p1436
I57
sS'soccer'
p1437
I56
sS'might'
p1438
I56
sS"haven't"
p1439
I53
sS'urself'
p1440
I58
sS'fool'
p1441
I58
sS'good'
p1442
I30
sS'somebody'
p1443
I57
sS'ya'
p1444
I55
sS'uhm'
p1445
I57
sS'walls'
p1446
I57
sS'ninja'
p1447
I58
sS'yu'
p1448
I58
sS'complain'
p1449
I58
sS'sucked'
p1450
I58
sS"set...i'll"
p1451
I58
sS'always'
p1452
I50
sS'robbin'
p1453
I58
sS'found'
p1454
I58
sS'difficult'
p1455
I58
sS"isn't"
p1456
I56
sS'everyone'
p1457
I56
sS'england'
p1458
I58
sS'upstairs'
p1459
I58
sS'away!,90220\n496709705662599168,jakaridub23,2014-08-05'
p1460
I58
sS'house'
p1461
I53
sS'hard'
p1462
I52
sS'dia'
p1463
I58
sS'really'
p1464
I46
sS'somos'
p1465
I58
sS'missed'
p1466
I56
sS'<<<'
p1467
I58
sS'walked'
p1468
I57
sS'since'
p1469
I54
sS'krispy'
p1470
I58
sS'7'
p1471
I58
sS'print'
p1472
I57
sS'ass'
p1473
I52
sS'pathetic'
p1474
I58
sS'lawrence'
p1475
I56
sS'friday'
p1476
I55
sS'story'
p1477
I58
sS'mmm'
p1478
I58
sS'reason'
p1479
I56
sS'auerbach'
p1480
I58
sS'fatass'
p1481
I58
sS'imagine'
p1482
I58
sS'ask'
p1483
I57
sS'teach'
p1484
I58
sS'weed'
p1485
I58
sS'kings'
p1486
I58
sS'reynate'
p1487
I58
sS'blister'
p1488
I58
sS'w'
p1489
I55
sS'feed'
p1490
I58
sS'15:57:42.0,33.89629168,-118.22240113,5426.02,being'
p1491
I58
sS'feel'
p1492
I52
sS'slippen'
p1493
I58
sS'pork'
p1494
I58
sS"ramona's"
p1495
I58
sS'feet'
p1496
I56
sS'brave'
p1497
I58
sS'done'
p1498
I51
sS'cerveza'
p1499
I58
sS'colombia'
p1500
I58
sS'miss'
p1501
I51
sS'guess'
p1502
I55
sS'"'
p1503
I56
sS'heads'
p1504
I58
sS'totally'
p1505
I58
sS'least'
p1506
I55
sS'checkpoint'
p1507
I58
sS'paint'
p1508
I57
sS'station'
p1509
I47
sS'passed'
p1510
I58
sS"sometimes...i'll"
p1511
I58
sS'store'
p1512
I58
sS'headache'
p1513
I57
sS'selling'
p1514
I57
sS'para'
p1515
I57
sS'support\xe2\x80\xa6'
p1516
I58
sS'interviewed'
p1517
I58
sS'part'
p1518
I56
sS'$8'
p1519
I58
sS'$4'
p1520
I58
sS'believe'
p1521
I58
sS'king'
p1522
I56
sS'kind'
p1523
I57
sS'b'
p1524
I56
sS'ohmg'
p1525
I58
sS'double'
p1526
I57
sS'kreme'
p1527
I58
sS'estupid'
p1528
I58
sS'youth'
p1529
I57
sS'reus'
p1530
I58
sS'dank'
p1531
I58
sS'dang'
p1532
I58
sS'treated'
p1533
I57
sS'outta'
p1534
I58
sS'[l]over'
p1535
I58
sS'juicy'
p1536
I57
sS'juice'
p1537
I56
sS'graffiti'
p1538
I43
sS'importa'
p1539
I58
sS'lie'
p1540
I56
sS'dancing'
p1541
I58
sS'lil'
p1542
I55
sS'couch'
p1543
I58
sS'also'
p1544
I57
sS'finding'
p1545
I58
sS'pringles'
p1546
I58
sS'play'
p1547
I53
sS'towards'
p1548
I58
sS'quote'
p1549
I58
sS'reach'
p1550
I58
sS'"everybody'
p1551
I58
sS'most'
p1552
I56
sS'74'
p1553
I58
sS'plan'
p1554
I58
sS'nothing'
p1555
I55
sS'wats'
p1556
I58
sS'ke'
p1557
I58
sS'incase'
p1558
I58
sS'kk'
p1559
I58
sS'clear'
p1560
I58
sS'sometimes'
p1561
I55
sS'tues..blaaahh'
p1562
I58
sS'15:33:22.0,33.89615496,-118.22419716,5426.02,this'
p1563
I58
sS'hahah'
p1564
I58
sS'ugh'
p1565
I52
sS'heavens'
p1566
I58
sS'fine'
p1567
I58
sS'find'
p1568
I57
sS'chulito'
p1569
I58
sS'"too'
p1570
I57
sS'nervous'
p1571
I57
sS'ruin'
p1572
I58
sS'poppin'
p1573
I58
sS'idiots'
p1574
I58
sS'wayne'
p1575
I58
sS'pretty'
p1576
I51
sS'8'
p1577
I55
sS'porque'
p1578
I58
sS'his'
p1579
I50
sS'hit'
p1580
I54
sS'alicia'
p1581
I58
sS'sunny'
p1582
I58
sS'feels'
p1583
I57
sS'cote'
p1584
I58
sS'during'
p1585
I58
sS'him'
p1586
I50
sS'merchandise'
p1587
I58
sS'cry'
p1588
I57
sS'croatia'
p1589
I58
sS'dtb'
p1590
I58
sS'x'
p1591
I56
sS'creator'
p1592
I58
sS'sex'
p1593
I57
sS'see'
p1594
I39
sS'individual'
p1595
I58
sS'are'
p1596
I36
sS'close'
p1597
I55
sS'11th'
p1598
I58
sS'greece'
p1599
I58
sS'retweet'
p1600
I58
sS'trey'
p1601
I58
sS'creme'
p1602
I58
sS'pictures'
p1603
I56
sS'wow'
p1604
I56
sS'please'
p1605
I58
sS'slapped'
p1606
I58
sS'fans'
p1607
I58
sS'won'
p1608
I57
sS'rite'
p1609
I58
sS'rlly'
p1610
I58
sS'knowing'
p1611
I57
sS'solo'
p1612
I58
sS'korea'
p1613
I58
sS'missing'
p1614
I58
sS'spray'
p1615
I58
sS'coffee'
p1616
I58
sS'pepsi'
p1617
I58
sS'speakin'
p1618
I58
sS'pissed'
p1619
I57
sS'both'
p1620
I56
sS'c'
p1621
I57
sS'last'
p1622
I49
sS'aloe'
p1623
I58
sS'thou'
p1624
I57
sS"wouldn't"
p1625
I57
sS'breakin'
p1626
I58
sS'yaaay'
p1627
I58
sS'thoo'
p1628
I58
sS'amoeba'
p1629
I58
sS'approve'
p1630
I58
sS'vida'
p1631
I58
sS'liked'
p1632
I57
sS'drunk'
p1633
I56
sS'sweet'
p1634
I58
sS'whatever'
p1635
I57
sS'rofl'
p1636
I57
sS'03:16:13.0,33.9006341,-118.2282021,5426.02,and'
p1637
I58
sS'belt'
p1638
I58
sS'kawaii'
p1639
I57
sS'pallet'
p1640
I58
sS'12-12:30'
p1641
I58
sS'autocorrect'
p1642
I58
sS'due'
p1643
I58
sS'mikey'
p1644
I58
sS'secret'
p1645
I57
sS'damn'
p1646
I51
sS'feliz.dtberes'
p1647
I58
sS'woke'
p1648
I56
sS'gay'
p1649
I58
sS'sending'
p1650
I58
sS'fire'
p1651
I56
sS'~sigh~'
p1652
I58
sS"what's"
p1653
I52
sS'gas'
p1654
I57
sS'remark'
p1655
I58
sS'aye'
p1656
I58
sS'else'
p1657
I58
sS'awake'
p1658
I57
sS'oitnb'
p1659
I58
sS'gah'
p1660
I58
sS'prices'
p1661
I58
sS"what'd"
p1662
I58
sS'look'
p1663
I42
sS'talking'
p1664
I56
sS'straight'
p1665
I58
sS'ahah'
p1666
I58
sS'while'
p1667
I55
sS'kick'
p1668
I58
sS'mimosas'
p1669
I58
sS'fun'
p1670
I54
sS'transcripts'
p1671
I58
sS'robin'
p1672
I58
sS'2night'
p1673
I58
sS'hoping'
p1674
I57
sS'backing'
p1675
I58
sS'rip'
p1676
I58
sS'beautifully'
p1677
I58
sS'ready'
p1678
I56
sS'"look'
p1679
I58
sS'funny'
p1680
I58
sS'italy'
p1681
I58
sS'shirt'
p1682
I58
sS'noooo'
p1683
I58
sS'lengths'
p1684
I58
sS'belong'
p1685
I58
sS'reyna...si'
p1686
I58
sS'peoples'
p1687
I58
sS'9'
p1688
I58
sS'eww'
p1689
I58
sS'used'
p1690
I55
sS'keys'
p1691
I55
sS'cigar'
p1692
I58
sS'leopard'
p1693
I58
sS'flows'
p1694
I58
sS'holidays'
p1695
I57
sS'moment'
p1696
I58
sS'moving'
p1697
I57
sS'peachy'
p1698
I58
sS'wheres'
p1699
I58
sS'lower'
p1700
I58
sS'older'
p1701
I56
sS'salvation'
p1702
I58
sS'blanco'
p1703
I58
sS'kraken'
p1704
I58
sS'spent'
p1705
I58
sS'grind'
p1706
I58
sS'person'
p1707
I57
sS'cheer'
p1708
I57
sS'inflation'
p1709
I58
sS'doris'
p1710
I58
sS'y'
p1711
I48
sS'spend'
p1712
I57
sS'martell'
p1713
I58
sS'know'
p1714
I40
sS'wig'
p1715
I58
sS'abilities'
p1716
I58
sS'listening'
p1717
I58
sS'tanto'
p1718
I58
sS"d'iviore"
p1719
I58
sS'porqu\xc3\xa9'
p1720
I58
sS'using'
p1721
I58
sS'cut'
p1722
I57
sS'cus'
p1723
I56
sS'cup'
p1724
I57
sS'disappointed'
p1725
I58
sS'cuz'
p1726
I52
sS'location'
p1727
I58
sS'soooooo'
p1728
I58
sS'snap'
p1729
I58
sS'hates'
p1730
I58
sS'dvds'
p1731
I58
sS'couple'
p1732
I55
sS'15:42:45.0,33.901024,-118.227592,5426.02,i'
p1733
I58
sS'game'
p1734
I46
sS'quest'
p1735
I58
sS'bit'
p1736
I58
sS'mariah'
p1737
I58
sS'knock'
p1738
I58
sS'd'
p1739
I49
sS'wingstop'
p1740
I58
sS'message'
p1741
I57
sS'translates'
p1742
I58
sS'continue'
p1743
I58
sS'eff'
p1744
I58
sS'google'
p1745
I58
sS"bae's"
p1746
I58
sS'fucking'
p1747
I50
sS'some'
p1748
I35
sS'back'
p1749
I43
sS'b4'
p1750
I57
sS'lips'
p1751
I56
sS'mighty'
p1752
I58
sS'sight'
p1753
I57
sS'mirror'
p1754
I57
sS'classes'
p1755
I57
sS'purdyy'
p1756
I58
sS'chumps'
p1757
I58
sS'"my'
p1758
I58
sS'pet'
p1759
I58
sS'decision'
p1760
I58
sS'03:00:45.0,33.9006341,-118.2282021,5426.02,i'
p1761
I58
sS'religion'
p1762
I58
sS'pelo'
p1763
I58
sS'('
p1764
I51
sS'yoooo'
p1765
I58
sS'dating'
p1766
I58
sS'be'
p1767
I23
sS'bf'
p1768
I58
sS'run'
p1769
I57
sS'zzz'
p1770
I58
sS'tocan'
p1771
I58
sS'remembered'
p1772
I58
sS'martin'
p1773
I58
sS'laker'
p1774
I58
sS's/o'
p1775
I56
sS'juju'
p1776
I58
sS'step'
p1777
I54
sS'improvement\xe2\x80\xa6'
p1778
I58
sS'bs'
p1779
I57
sS'chola'
p1780
I58
sS'tripping'
p1781
I58
sS'skateborting'
p1782
I58
sS'anything'
p1783
I58
sS'netflix'
p1784
I58
sS'iced'
p1785
I58
sS"mcdonald's"
p1786
I56
sS'graduation'
p1787
I57
sS'sake'
p1788
I58
sS'extensions'
p1789
I58
sS'idk'
p1790
I52
sS'gallagher'
p1791
I58
sS'chevron'
p1792
I58
sS'wanna'
p1793
I54
sS'block'
p1794
I58
sS'ppl'
p1795
I56
sS'seeing'
p1796
I57
sS'grammy'
p1797
I58
sS'auntie'
p1798
I58
sS'dude'
p1799
I58
sS'into'
p1800
I56
sS'nigga'
p1801
I49
sS'arcade'
p1802
I58
sS'handles'
p1803
I58
sS'long'
p1804
I55
sS'custom'
p1805
I58
sS"we're"
p1806
I58
sS'suit'
p1807
I57
sS'forward'
p1808
I56
sS'bored'
p1809
I58
sS'scared'
p1810
I58
sS'hot!!dam'
p1811
I58
sS'0-0'
p1812
I58
sS'talked'
p1813
I58
sS'boys'
p1814
I57
sS'larry'
p1815
I58
sS'line'
p1816
I55
sS'nutshell'
p1817
I58
sS'posted'
p1818
I58
sS'info'
p1819
I58
sS'bahahahahahaha'
p1820
I58
sS'cig'
p1821
I58
sS'skull'
p1822
I58
sS'wudnt'
p1823
I58
sS'16:58:19.0,33.89615496,-118.22419716,5426.02,only'
p1824
I58
sS'fries'
p1825
I57
sS'skacore'
p1826
I57
sS'us'
p1827
I50
sS'stalking'
p1828
I58
sS'planet'
p1829
I58
sS'un'
p1830
I58
sS'faded'
p1831
I58
sS'z'
p1832
I58
sS'chelsea'
p1833
I58
sS'called'
p1834
I56
sS'freak'
p1835
I58
sS'evening'
p1836
I58
sS'chat'
p1837
I58
sS'huntelaar'
p1838
I58
sS'1/3'
p1839
I58
sS'modeling'
p1840
I58
sS'kershawn'
p1841
I58
sS'rainbow'
p1842
I58
sS'rainy'
p1843
I58
sS'lemon'
p1844
I58
sS'rains'
p1845
I58
sS'nah'
p1846
I54
sS'peace'
p1847
I58
sS'tard'
p1848
I58
sS'excuses'
p1849
I58
sS'b/c'
p1850
I58
sS'nice'
p1851
I54
sS'explaining'
p1852
I58
sS'draw'
p1853
I58
sS'understatement'
p1854
I58
sS'bussing'
p1855
I58
sS"m&m's"
p1856
I58
sS'sides'
p1857
I58
sS'freeways'
p1858
I58
sS'ago'
p1859
I58
sS'e'
p1860
I56
sS'dvd'
p1861
I57
sS'holes'
p1862
I58
sS"she'd"
p1863
I58
sS'avenge'
p1864
I58
sS'fresh'
p1865
I57
sS'having'
p1866
I57
sS'gg'
p1867
I56
sS'penis'
p1868
I58
sS'gd'
p1869
I58
sS'go'
p1870
I30
sS'chillin'
p1871
I56
sS'17:29:32.0,33.8963439,-118.2246704,5426.02,riding'
p1872
I58
sS'vietnamese'
p1873
I58
sS'concerned'
p1874
I58
sS'young'
p1875
I58
sS'does'
p1876
I57
sS'bruhh'
p1877
I57
sS'lilly'
p1878
I58
sS'sent'
p1879
I58
sS'weekendedition'
p1880
I58
sS'reencontrar'
p1881
I58
sS'halitosis'
p1882
I58
sS'putting'
p1883
I58
sS'garder'
p1884
I57
sS'drinking'
p1885
I55
sS'entire'
p1886
I56
sS'22:52:38.0,33.90272333,-118.229255,5426.02,damn'
p1887
I58
sS'knight'
p1888
I58
sS"home\xe2\x80\xa6i'm"
p1889
I58
sS'shock'
p1890
I58
sS'try'
p1891
I58
sS'slaps'
p1892
I58
sS'min'
p1893
I58
sS'iba'
p1894
I58
sS'havent'
p1895
I58
sS'boots'
p1896
I58
sS'waking'
p1897
I58
sS'jump'
p1898
I58
sS'p0rtableee'
p1899
I58
sS'video'
p1900
I58
sS'picked'
p1901
I57
sS'depression'
p1902
I58
sS'power'
p1903
I58
sS'giving'
p1904
I58
sS'falcons'
p1905
I58
sS'felt'
p1906
I58
sS'cell'
p1907
I57
sS'kafe'
p1908
I58
sS'eating'
p1909
I54
sS'valen'
p1910
I57
sS'bird'
p1911
I57
sS'led'
p1912
I58
sS'leg'
p1913
I58
sS'bubuass'
p1914
I58
sS'pushing'
p1915
I58
sS'commercial'
p1916
I58
sS'punch'
p1917
I57
sS'littlebigplanet2'
p1918
I58
sS'sexo'
p1919
I58
sS'mkay'
p1920
I58
sS'busy'
p1921
I58
sS'let'
p1922
I55
sS'others'
p1923
I58
sS'sexy'
p1924
I58
sS'invented'
p1925
I58
sS'great'
p1926
I53
sS'morherfucker'
p1927
I58
sS'\xe2\x9a\xbd\xef\xb8\x8f'
p1928
I58
sS'metro'
p1929
I49
sS'pressure'
p1930
I58
sS'shades'
p1931
I58
sS'leaving'
p1932
I57
sS'products'
p1933
I58
sS'opinion'
p1934
I58
sS',90220\n497944466695536640,offdatlean,2014-08-09'
p1935
I58
sS'makes'
p1936
I53
sS'01:52:37.0,33.90092901,-118.23093276,5426.02,chillin'
p1937
I58
sS'3%'
p1938
I58
sS'thats'
p1939
I58
sS'sheila'
p1940
I56
sS'control'
p1941
I58
sS'live'
p1942
I58
sS'win'
p1943
I53
sS'manage'
p1944
I58
sS'dedicated'
p1945
I58
sS'wit'
p1946
I56
sS'names'
p1947
I58
sS'blog'
p1948
I58
sS'apply'
p1949
I58
sS'singing'
p1950
I58
sS'lime'
p1951
I58
sS'standing'
p1952
I58
sS'use'
p1953
I58
sS'hahahahaha'
p1954
I58
sS'from'
p1955
I41
sS'usa'
p1956
I57
sS'&'
p1957
I44
sS'chocolates'
p1958
I58
sS'slay!rt'
p1959
I58
sS'next'
p1960
I53
sS'few'
p1961
I54
sS'coldplay'
p1962
I57
sS'1/4'
p1963
I58
sS'babe'
p1964
I54
sS'disgust'
p1965
I58
sS'started'
p1966
I57
sS'u.u,90220\n497531399193522179,gabbagabbie132,2014-08-07'
p1967
I58
sS'sister'
p1968
I58
sS'payne'
p1969
I58
sS'train'
p1970
I55
sS'prizes'
p1971
I58
sS'baby'
p1972
I51
sS'pentacampeones'
p1973
I58
sS'annoy'
p1974
I58
sS'balls'
p1975
I57
sS'practicing'
p1976
I58
sS'orderthosecupcakes'
p1977
I58
sS'this'
p1978
I16
sS'ride'
p1979
I58
sS'nightmaress'
p1980
I58
sS'meet'
p1981
I58
sS'personality'
p1982
I58
sS'proof'
p1983
I58
sS'point'
p1984
I58
sS'waaaay'
p1985
I58
sS'plate'
p1986
I58
sS'chish'
p1987
I58
sS'halloween'
p1988
I58
sS'pieces'
p1989
I58
sS'high'
p1990
I55
sS'something'
p1991
I51
sS'blvd'
p1992
I58
sS'tan'
p1993
I58
sS'high"'
p1994
I56
sS'onions'
p1995
I57
sS'sis'
p1996
I58
sS'lame'
p1997
I56
sS'01:16:27.0,33.90092901,-118.23093276,5426.02,sometimes'
p1998
I58
sS'winners'
p1999
I58
sS'animal'
p2000
I57
sS'cual'
p2001
I58
sS'instead'
p2002
I57
sS'bandana'
p2003
I57
sS'watch'
p2004
I54
sS'collection'
p2005
I58
sS'taco'
p2006
I57
sS'hahahaha'
p2007
I58
sS'coast'
p2008
I58
sS'tongue'
p2009
I58
sS'tomato'
p2010
I58
sS'01:46:01.0,33.8964949,-118.2255569,5426.02,i'
p2011
I58
sS'drop'
p2012
I58
sS'...\xe2\x80\xa6'
p2013
I58
sS'17:29:56.0,33.8963439,-118.2246704,5426.02,that'
p2014
I58
sS's0'
p2015
I58
sS'bunghole'
p2016
I58
sS'move'
p2017
I57
sS'23:55:03.0,33.9030886,-118.2322728,5426.02,ima'
p2018
I58
sS'customer'
p2019
I58
sS"won't"
p2020
I56
sS'looks'
p2021
I57
sS'134'
p2022
I58
sS'bunch'
p2023
I58
sS'cornholio'
p2024
I58
sS'le'
p2025
I57
sS'lb'
p2026
I58
sS'la'
p2027
I52
sS'chosen'
p2028
I57
sS'lo'
p2029
I57
sS"pj's"
p2030
I58
sS"slaps...i'm"
p2031
I58
sS'tyler'
p2032
I58
sS'choose'
p2033
I58
sS'orange'
p2034
I55
sS'linings'
p2035
I58
sS'dad'
p2036
I56
sS'crash'
p2037
I58
sS'contention'
p2038
I58
sS'nada'
p2039
I58
sS'practice'
p2040
I58
sS'tsss'
p2041
I58
sS'flew'
p2042
I58
sS'hands'
p2043
I58
sS'expendables'
p2044
I58
sS'day'
p2045
I27
sS'"trying"'
p2046
I58
sS'betta'
p2047
I58
sS'goodbyes'
p2048
I58
sS'mode'
p2049
I58
sS"04:36:07.0,33.89626576,-118.22372891,5426.02,mother's"
p2050
I58
sS'crossing'
p2051
I58
sS'tabby'
p2052
I58
sS'homeless'
p2053
I58
sS'doing'
p2054
I54
sS'khedira'
p2055
I58
sS'bums'
p2056
I57
sS'snaps'
p2057
I58
sS'motorola'
p2058
I58
sS'our'
p2059
I56
sS'sweatshirt'
p2060
I58
sS'currentlyyy'
p2061
I58
sS'special'
p2062
I58
sS'out'
p2063
I35
sS'armor'
p2064
I58
sS'bad'
p2065
I50
sS'&\xe2\x80\xa6'
p2066
I58
sS'last\xe2\x80\xa6'
p2067
I58
sS'cause'
p2068
I54
sS'red'
p2069
I57
sS'shut'
p2070
I57
sS'uppp'
p2071
I58
sS'o.o'
p2072
I58
sS'07:23:36.0,33.89903471,-118.22117972,5426.02,welcome'
p2073
I58
sS'release'
p2074
I58
sS'completely'
p2075
I58
sS'habibi'
p2076
I58
sS'que'
p2077
I50
sS'22:12:38.0,33.9020839,-118.2320919,5426.02,my'
p2078
I58
sS'princess'
p2079
I58
sS'playerrr'
p2080
I58
sS'1:20am'
p2081
I58
sS'could'
p2082
I58
sS'times'
p2083
I58
sS'conversation'
p2084
I58
sS'rambeau'
p2085
I58
sS'*too'
p2086
I58
sS'grieving'
p2087
I58
sS"babe's"
p2088
I58
sS'appt'
p2089
I58
sS"mexico's"
p2090
I58
sS'powerful'
p2091
I58
sS'bitch'
p2092
I51
sS'activity"'
p2093
I58
sS'such'
p2094
I58
sS"doesn't"
p2095
I55
sS'los'
p2096
I56
sS'u.u,90220\n499388391113629696,gabbagabbie132,2014-08-13'
p2097
I58
sS'grow'
p2098
I58
sS'their'
p2099
I56
sS'ankle'
p2100
I58
sS'racist'
p2101
I58
sS'bosco'
p2102
I58
sS'stomach'
p2103
I58
sS'shorts'
p2104
I58
sS'academy'
p2105
I58
sS'nobody'
p2106
I58
sS'ogp'
p2107
I58
sS'bar?,90220\n71981187899469824,heyross,2011-05-21'
p2108
I58
sS'314'
p2109
I58
sS'loved'
p2110
I56
sS'males'
p2111
I58
sS'holland'
p2112
I58
sS'boring'
p2113
I58
sS'photogenic'
p2114
I58
sS'bed'
p2115
I54
sS'smh.,90220\n484877409033142272,mangodunks,2014-07-04'
p2116
I58
sS'10-2'
p2117
I58
sS'spelled'
p2118
I58
sS'tonight'
p2119
I49
sS'alfonso'
p2120
I58
sS'have'
p2121
I27
sS'need'
p2122
I42
sS'blunt!!lmfao'
p2123
I58
sS'she'
p2124
I47
sS'screw'
p2125
I58
sS'afraid'
p2126
I58
sS'eterno."gracias'
p2127
I58
sS'miseria?-'
p2128
I58
sS'congrats'
p2129
I57
sS'studying'
p2130
I58
sS'(mikey)'
p2131
I58
sS'able'
p2132
I58
sS'323'
p2133
I58
sS'which'
p2134
I53
sS'meeting'
p2135
I58
sS'asshole'
p2136
I55
sS'='
p2137
I58
sS'qt'
p2138
I58
sS'unless'
p2139
I58
sS'who'
p2140
I47
sS"where's"
p2141
I56
sS'why'
p2142
I47
sS'upset'
p2143
I58
sS'thanksgiving'
p2144
I57
sS'brought'
p2145
I58
sS'face'
p2146
I54
sS'sorta'
p2147
I58
sS"you'll"
p2148
I57
sS'near'
p2149
I58
sS'talk'
p2150
I57
sS'movie'
p2151
I58
sS'brew'
p2152
I58
sS'skinny'
p2153
I58
sS'ughhh'
p2154
I58
sS'son'
p2155
I52
sS'=p'
p2156
I58
sS'brenda'
p2157
I58
sS'lmaoo'
p2158
I58
sS'anyway'
p2159
I58
sS'bring'
p2160
I58
sS'playbook'
p2161
I58
sS'fear'
p2162
I58
sS'thicker'
p2163
I58
sS'jay'
p2164
I57
sS'=\\'
p2165
I57
sS'should'
p2166
I53
sS"there's"
p2167
I55
sS'13:57:23.0,33.90092901,-118.23093276,5426.02,damn'
p2168
I58
sS'04:37:03.0,33.89749818,-118.22423074,5426.02,stopped'
p2169
I58
sS'local'
p2170
I58
sS'hope'
p2171
I52
sS'cabrones!!!!\xe2\x9a\xbd\xef\xb8\x8f\xe2\x9a\xbd\xef\xb8\x8fno'
p2172
I58
sS'listened'
p2173
I58
sS'means'
p2174
I56
sS'beat'
p2175
I57
sS'dope'
p2176
I58
sS'flirting'
p2177
I58
sS'cranky'
p2178
I58
sS'gundogan'
p2179
I58
sS'bear'
p2180
I58
sS'joint'
p2181
I58
sS'awww'
p2182
I58
sS'ones'
p2183
I55
sS'=/'
p2184
I58
sS'03:15:04.0,33.9006341,-118.2282021,5426.02,she'
p2185
I58
sS'=('
p2186
I58
sS'xdx'
p2187
I58
sS'joshie'
p2188
I58
sS'temp'
p2189
I58
sS'belts'
p2190
I57
sS'calling'
p2191
I56
sS'stuff'
p2192
I55
sS'mascara'
p2193
I58
sS'generations'
p2194
I58
sS'btw'
p2195
I58
sS'national'
p2196
I58
sS'we'
p2197
I46
sS'oomf'
p2198
I58
sS'buzzed'
p2199
I58
sS'dianita'
p2200
I58
sS'17:44:28.0,33.89685543,-118.22411978,5426.02,okay'
p2201
I58
sS"crap!!they're"
p2202
I58
sS'20:47:22.0,33.90263881,-118.2238073,5426.02,meet'
p2203
I58
sS'state'
p2204
I58
sS'overpay'
p2205
I58
sS'frustrated'
p2206
I56
sS'bought'
p2207
I54
sS'a.f'
p2208
I58
sS'cristiano'
p2209
I58
sS'opening'
p2210
I57
sS'moshpit'
p2211
I58
sS'contest!rules:1'
p2212
I58
sS'job'
p2213
I56
sS'group'
p2214
I58
sS'legit'
p2215
I58
sS'figured'
p2216
I57
sS'sniff'
p2217
I58
sS'career'
p2218
I58
sS'joke'
p2219
I58
sS'taking'
p2220
I55
sS'again....i'
p2221
I58
sS'incident'
p2222
I58
sS'busted'
p2223
I58
sS'wear'
p2224
I57
sS'comment'
p2225
I58
sS'hehehe'
p2226
I58
sS'wtf'
p2227
I58
sS'ca'
p2228
I54
sS'walk'
p2229
I57
sS'laugh'
p2230
I58
sS'heeeeyyyy'
p2231
I58
sS'respect'
p2232
I57
sS'haiir'
p2233
I57
sS'winning'
p2234
I58
sS'gotze'
p2235
I58
sS'quit'
p2236
I58
sS'yay'
p2237
I57
sS'dijeras'
p2238
I58
sS"it's"
p2239
I39
sS'ofwgkta'
p2240
I58
sS'willing'
p2241
I58
sS'treat'
p2242
I58
sS'minded.........nope'
p2243
I58
sS'yaa'
p2244
I58
sS'>'
p2245
I58
sS'puberty'
p2246
I58
sS'league'
p2247
I58
sS'moved'
p2248
I58
sS"c'"
p2249
I58
sS'mail'
p2250
I58
sS'me?\xe2\x98\xba\xef\xb8\x8f\xe2\x80\x9d'
p2251
I58
sS'general'
p2252
I58
sS'shameless'
p2253
I58
sS'restaurant'
p2254
I58
sS'will'
p2255
I50
sS'hahaha'
p2256
I56
sS'd0peskiesss'
p2257
I58
sS'salgo'
p2258
I58
sS'almost'
p2259
I55
sS'refs'
p2260
I58
sS'vs'
p2261
I52
sS'layed'
p2262
I58
sS'cuahutemoc'
p2263
I58
sS'estupid...\xe2\x80\xa6'
p2264
I58
sS'bucks'
p2265
I57
sS'zeppelin-the'
p2266
I58
sS'16:50:27.0,33.9027657,-118.22389567,5426.02,straight'
p2267
I58
sS'-___-'
p2268
I58
sS')'
p2269
I58
sS'balloon'
p2270
I58
sS'member'
p2271
I58
sS'units'
p2272
I58
sS'party'
p2273
I58
sS'gets'
p2274
I57
sS'dan'
p2275
I58
sS'ochoa'
p2276
I57
sS'clap)'
p2277
I58
sS'ball'
p2278
I57
sS'pho'
p2279
I57
sS'1-1'
p2280
I58
sS'samantha'
p2281
I58
sS'drink'
p2282
I56
sS'upon'
p2283
I58
sS'tambien'
p2284
I56
sS'fucken'
p2285
I56
sS'fucked'
p2286
I55
sS'l.a'
p2287
I58
sS'off'
p2288
I40
sS'center'
p2289
I56
sS'i'
p2290
I2
sS'healthyy'
p2291
I58
sS'colour'
p2292
I57
sS'well'
p2293
I50
sS'thought'
p2294
I56
sS'wyd'
p2295
I57
sS'350'
p2296
I58
sS'reseda'
p2297
I58
sS'ily'
p2298
I58
sS'tootleloo'
p2299
I58
sS'less'
p2300
I58
sS"should've"
p2301
I57
sS'games!!!\xe2\x9a\xbd\xef\xb8\x8f'
p2302
I58
sS'flies'
p2303
I58
sS'blvd.,90220\n477869191014260737,jazmineahyee,2014-06-14'
p2304
I58
sS'laurel'
p2305
I58
sS'foo'
p2306
I58
sS'gma'
p2307
I58
sS'bell'
p2308
I57
sS'sky'
p2309
I58
sS'realize'
p2310
I58
sS'drew'
p2311
I58
sS'add'
p2312
I58
sS'attractive'
p2313
I58
sS'crack'
p2314
I58
sS'ohhh'
p2315
I58
sS'homework'
p2316
I56
sS'sonic'
p2317
I58
sS'26%'
p2318
I58
sS"who's"
p2319
I58
sS'cruz'
p2320
I58
sS'bitches!my'
p2321
I58
sS'immediately'
p2322
I58
sS'timing"its'
p2323
I58
sS'fat_girl_princess'
p2324
I56
sS'mhm'
p2325
I58
sS'showing'
p2326
I58
sS'like'
p2327
I21
sS'lost'
p2328
I57
sS'mins..wtf'
p2329
I58
sS'sissy'
p2330
I57
sS'lose'
p2331
I56
sS'chick'
p2332
I57
sS'because'
p2333
I54
sS'ago!\xe2\x80\x9d\xe2\x80\x9d'
p2334
I58
sS'twitter'
p2335
I52
sS'church'
p2336
I58
sS'alive'
p2337
I57
sS'hair'
p2338
I55
sS'home'
p2339
I50
sS'liking'
p2340
I58
sS'peter'
p2341
I58
sS'250'
p2342
I58
sS'heartache'
p2343
I58
sS'moda'
p2344
I58
sS"02:54:05.0,33.9028537,-118.2322454,5426.02,don't"
p2345
I58
sS'detergent'
p2346
I58
sS'ese'
p2347
I57
sS'woohoo'
p2348
I58
sS'eso'
p2349
I57
sS'snuggle'
p2350
I57
sS'sdsu'
p2351
I58
sS'duh'
p2352
I58
sS'southerner'
p2353
I58
sS'[s]ingle[o]only'
p2354
I58
sS'schedule'
p2355
I57
sS'puede'
p2356
I58
sS'jason_mcintyre31'
p2357
I58
sS'liiiaaaarrrrrr'
p2358
I58
sS'although'
p2359
I58
sS'about'
p2360
I40
sS':-)'
p2361
I58
sS'actual'
p2362
I58
sS':-/'
p2363
I58
sS'getting'
p2364
I53
sS'cleann'
p2365
I58
sS'swear'
p2366
I56
sS'go!!!\xe2\x9a\xbd\xef\xb8\x8f\xe2\x9a\xbd\xef\xb8\x8f'
p2367
I58
sS'puppies'
p2368
I58
sS'heung'
p2369
I58
sS"taryn's"
p2370
I58
sS'own'
p2371
I56
sS'keeps'
p2372
I58
sS'owe'
p2373
I58
sS'guard'
p2374
I58
sS'weather'
p2375
I57
sS'promise'
p2376
I58
sS'female'
p2377
I56
sS'artists'
p2378
I58
sS'luck'
p2379
I58
sS'lowkey'
p2380
I58
sS'behind'
p2381
I58
sS'wack'
p2382
I58
sS'transfer'
p2383
I58
sS'19:25:11.0,33.8964437,-118.22501346,5426.02,an'
p2384
I58
sS'*'
p2385
I58
sS'kidding'
p2386
I57
sS'compton....haha'
p2387
I58
sS'biggest'
p2388
I58
sS'recruited'
p2389
I58
sS'buy'
p2390
I57
sS'north'
p2391
I58
sS"i've"
p2392
I50
sS'bus'
p2393
I58
sS'bitches'
p2394
I57
sS'but'
p2395
I22
sS'reminds'
p2396
I58
sS'hi'
p2397
I58
sS'bun'
p2398
I58
sS'goals'
p2399
I55
sS'bum'
p2400
I58
sS'bug'
p2401
I57
sS'he'
p2402
I37
sS'made'
p2403
I50
sS'places'
p2404
I57
sS'wish'
p2405
I57
sS'official'
p2406
I58
sS'fight'
p2407
I58
sS'record'
p2408
I58
sS'carriage'
p2409
I58
sS'empty'
p2410
I57
sS'problem'
p2411
I57
sS'minutes'
p2412
I57
sS'20:31:25.0,33.9031306,-118.2296935,5426.02,-'
p2413
I58
sS'hilfiger'
p2414
I58
sS"13:51:52.0,33.90069737,-118.22818447,5426.02,i'm"
p2415
I58
sS'pic'
p2416
I57
sS'conan'
p2417
I58
sS'brodie'
p2418
I58
sS'happen'
p2419
I58
sS'compared'
p2420
I57
sS'algeria'
p2421
I58
sS'40'
p2422
I58
sS'lately'
p2423
I58
sS'other'
p2424
I54
sS'bool'
p2425
I58
sS'sick'
p2426
I55
sS"you're"
p2427
I52
sS'star'
p2428
I58
sS'monday'
p2429
I57
sS'sooooo'
p2430
I57
sS"kev's"
p2431
I58
sS'stay'
p2432
I56
sS'hood,90220\n489224404128116736,sarygarcia65,2014-07-16'
p2433
I58
sS'kinda'
p2434
I55
sS'badass'
p2435
I57
sS'friends'
p2436
I55
sS'coat'
p2437
I58
sS'over,90220\n389128293376483329,fernandoc22,2013-10-12'
p2438
I58
sS'cpt'
p2439
I57
sS'profit'
p2440
I58
sS'understand'
p2441
I58
sS'"the'
p2442
I58
s.