(dp0
S''
p1
I1
sS'all'
p2
I28
sS':/'
p3
I39
sS':('
p4
I37
sS':)'
p5
I33
sS"he's"
p6
I39
sS'rob'
p7
I39
sS'child'
p8
I39
sS'dollar'
p9
I39
sS'results'
p10
I39
sS'todayy'
p11
I38
sS'month'
p12
I38
sS'baby'
p13
I39
sS'next'
p14
I39
sS'coach'
p15
I39
sS'sleep'
p16
I38
sS'coincidence'
p17
I39
sS'boo'
p18
I39
sS'go'
p19
I26
sS'follow'
p20
I39
sS'hate'
p21
I37
sS'milk'
p22
I39
sS'kickbox'
p23
I39
sS'forget'
p24
I39
sS'21st'
p25
I39
sS'weed'
p26
I39
sS'job.\xe2\x80\x9d'
p27
I39
sS'young'
p28
I39
sS'send'
p29
I39
sS'to'
p30
I9
sS'finally'
p31
I39
sS'helps'
p32
I39
sS'under'
p33
I39
sS'dukes'
p34
I39
sS'ticket)'
p35
I39
sS'women'
p36
I39
sS'ilysm'
p37
I39
sS'sent'
p38
I39
sS'shoot'
p39
I39
sS'nite'
p40
I39
sS'sitting'
p41
I39
sS'very'
p42
I39
sS'end'
p43
I39
sS'fav'
p44
I39
sS'selfies'
p45
I39
sS'every'
p46
I39
sS'join'
p47
I39
sS'12hrs'
p48
I39
sS':p'
p49
I39
sS'cool'
p50
I39
sS'school'
p51
I37
sS'heaven'
p52
I39
sS'salad'
p53
I39
sS'did'
p54
I39
sS'turns'
p55
I38
sS'marry'
p56
I39
sS'peeps'
p57
I39
sS'brother'
p58
I37
sS'turnt'
p59
I39
sS'courthouse)'
p60
I39
sS'try'
p61
I39
sS'solid'
p62
I39
sS'vibes'
p63
I39
sS'team'
p64
I39
sS'quick'
p65
I39
sS'guy'
p66
I39
sS'round'
p67
I39
sS"it'll"
p68
I39
sS"i'll"
p69
I37
sS'dunk'
p70
I39
sS'force'
p71
I39
sS'ten'
p72
I39
sS'tired'
p73
I39
sS'phones'
p74
I39
sS'ripped'
p75
I39
sS'chomp'
p76
I39
sS'waking'
p77
I38
sS'reinserted'
p78
I39
sS'burger'
p79
I39
sS'gator'
p80
I39
sS'worrued'
p81
I39
sS'picked'
p82
I39
sS'utter'
p83
I39
sS'elise'
p84
I39
sS'friendships'
p85
I39
sS'even'
p86
I38
sS'cargo'
p87
I39
sS'what'
p88
I32
sS'ecto'
p89
I38
sS'business'
p90
I39
sS'kris'
p91
I39
sS'filler'
p92
I39
sS'3p-6p'
p93
I39
sS'waiting'
p94
I37
sS'mix'
p95
I39
sS'sooooooo'
p96
I39
sS'cars'
p97
I39
sS'new'
p98
I37
sS'mesoform'
p99
I39
sS'ever'
p100
I35
sS'disney'
p101
I39
sS'told'
p102
I38
sS'body'
p103
I37
sS'full'
p104
I38
sS'morning?,90242\n471709342844977152,heartz456,2014-05-28'
p105
I39
sS'never'
p106
I37
sS'punch'
p107
I39
sS'here'
p108
I35
sS'hours'
p109
I38
sS'\xe2\x9d\xa4\xef\xb8\x8f'
p110
I39
sS'let'
p111
I39
sS'yards'
p112
I39
sS'sexy'
p113
I39
sS"aren't"
p114
I38
sS'wait'
p115
I39
sS'pea'
p116
I39
sS'great'
p117
I36
sS'kids'
p118
I39
sS'else'
p119
I39
sS'my'
p120
I13
sS'googlemaps'
p121
I39
sS'leaving'
p122
I39
sS'mac'
p123
I39
sS'trial'
p124
I36
sS"i'd"
p125
I38
sS'smoke'
p126
I39
sS'pick'
p127
I36
sS'negros'
p128
I39
sS"i'm"
p129
I7
sS'makes'
p130
I39
sS'honor'
p131
I39
sS'king'
p132
I39
sS'love'
p133
I32
sS'family'
p134
I37
sS'shelter)'
p135
I39
sS'brought'
p136
I38
sS'put'
p137
I36
sS'19:20:00.0,33.928368,-118.1570028,5516,palace'
p138
I39
sS'fake'
p139
I39
sS'total'
p140
I39
sS';)'
p141
I39
sS"leon's"
p142
I39
sS'standing'
p143
I39
sS'hommie'
p144
I39
sS'(12514'
p145
I23
sS'from'
p146
I37
sS'working'
p147
I38
sS'&'
p148
I38
sS'hungry'
p149
I39
sS'dude'
p150
I38
sS'hammered'
p151
I39
sS'sports'
p152
I39
sS'few'
p153
I39
sS'live'
p154
I38
sS'call'
p155
I36
sS'wondering'
p156
I39
sS'taken'
p157
I39
sS'..and'
p158
I39
sS'thru'
p159
I39
sS'type'
p160
I39
sS'until'
p161
I38
sS'today'
p162
I30
sS'more'
p163
I35
sS'tryna'
p164
I39
sS'sharing'
p165
I39
sS'$till'
p166
I38
sS'modrate'
p167
I39
sS'riot'
p168
I39
sS'ponytail'
p169
I39
sS'started'
p170
I39
sS'brings'
p171
I39
sS"on'$"
p172
I39
sS'haha'
p173
I37
sS'hurt'
p174
I39
sS'phone'
p175
I39
sS"ain't"
p176
I39
sS'stick'
p177
I39
sS'broke'
p178
I39
sS'smile'
p179
I39
sS'\xe2\x9d\xa4\xef\xb8\x8f\xe2\x9d\xa4\xef\xb8\x8f'
p180
I39
sS'90'
p181
I39
sS"5'7"
p182
I39
sS'glad'
p183
I39
sS'must'
p184
I39
sS'me'
p185
I18
sS'rook'
p186
I39
sS'ma'
p187
I38
sS'hour'
p188
I38
sS'1996'
p189
I39
sS'this'
p190
I23
sS'car'
p191
I36
sS'work'
p192
I35
sS'soul'
p193
I36
sS'dew'
p194
I39
sS'del'
p195
I39
sS'can'
p196
I30
sS'mr'
p197
I39
sS'making'
p198
I39
sS'didnt'
p199
I38
sS'buffness'
p200
I39
sS'gloria'
p201
I39
sS'history'
p202
I39
sS'heart'
p203
I37
sS'valentines'
p204
I39
sS'fun\'"lol'
p205
I39
sS'give'
p206
I38
sS'alba'
p207
I39
sS'lock'
p208
I39
sS"didn't"
p209
I38
sS'fuck'
p210
I35
sS'high'
p211
I38
sS'way'
p212
I38
sS'pulling'
p213
I39
sS'something'
p214
I39
sS'want'
p215
I32
sS'shippuden'
p216
I39
sS'4&5'
p217
I39
sS'times'
p218
I39
sS'cardio'
p219
I39
sS'guarantee'
p220
I39
sS'drama'
p221
I39
sS'sr'
p222
I39
sS'court'
p223
I31
sS'winter'
p224
I39
sS'thing'
p225
I39
sS'rather'
p226
I38
sS'clothing'
p227
I39
sS'plans'
p228
I39
sS'comfort'
p229
I39
sS'dismissed'
p230
I39
sS'everyday'
p231
I39
sS'1'
p232
I37
sS'how'
p233
I34
sS'hot'
p234
I39
sS'chicks'
p235
I39
sS'animal'
p236
I37
sS'instead'
p237
I39
sS'faulty'
p238
I39
sS'sin'
p239
I39
sS'sim'
p240
I37
sS'anime'
p241
I39
sS'okay'
p242
I39
sS'tried'
p243
I38
sS'monica'
p244
I39
sS'may'
p245
I39
sS'watch'
p246
I39
sS'after'
p247
I39
sS'collection'
p248
I38
sS'wrong'
p249
I38
sS'birthday'
p250
I38
sS'meso'
p251
I39
sS'mad'
p252
I38
sS'coming'
p253
I38
sS'fuhk'
p254
I39
sS'president'
p255
I39
sS'law'
p256
I39
sS'guys'
p257
I37
sS'(7500'
p258
I37
sS'lifting'
p259
I38
sS'man'
p260
I38
sS'a'
p261
I8
sS'light'
p262
I39
sS'blows'
p263
I39
sS'appreciate'
p264
I39
sS'20:10:48.0,33.9283537,-118.156997,5516,need'
p265
I39
sS'maintain'
p266
I39
sS'so'
p267
I26
sS'waited'
p268
I39
sS'things'
p269
I39
sS'la,90242\n511232918069329920,sensei_erick,2014-09-14'
p270
I39
sS':x'
p271
I39
sS'playing'
p272
I39
sS'rolando'
p273
I39
sS"that's"
p274
I36
sS'cute'
p275
I38
sS'mexican'
p276
I39
sS'help'
p277
I39
sS"don't"
p278
I33
sS'indeed'
p279
I39
sS'over'
p280
I34
sS'gym/anime'
p281
I39
sS'sabrina'
p282
I39
sS'life:1'
p283
I39
sS'attitude'
p284
I39
sS'paper'
p285
I39
sS'lyric'
p286
I39
sS'looks'
p287
I38
sS'pitch'
p288
I38
sS'hell'
p289
I38
sS'still'
p290
I31
sS'its'
p291
I38
sS'$hit'
p292
I39
sS'ima'
p293
I38
sS'superior'
p294
I31
sS'style'
p295
I39
sS'courthouse'
p296
I30
sS'la'
p297
I39
sS'unforeseen'
p298
I39
sS'workouts'
p299
I39
sS'fix'
p300
I38
sS'sale'
p301
I39
sS'dolla'
p302
I38
sS'actually'
p303
I37
sS'better'
p304
I38
sS'hollyson'
p305
I39
sS'bout'
p306
I39
sS'criminal'
p307
I39
sS'might'
p308
I39
sS'hoop'
p309
I39
sS'outside'
p310
I39
sS'dad'
p311
I38
sS'then'
p312
I39
sS'good'
p313
I30
sS'perdi'
p314
I39
sS'yo'
p315
I39
sS'potter'
p316
I39
sS'encouraging'
p317
I39
sS'break'
p318
I39
sS'lunch'
p319
I38
sS'firebird'
p320
I39
sS'they'
p321
I31
sS'not'
p322
I28
sS'now'
p323
I36
sS'ahaha'
p324
I39
sS'day'
p325
I29
sS'foos'
p326
I39
sS'hearts'
p327
I39
sS'always'
p328
I33
sS'drake'
p329
I38
sS'bless'
p330
I39
sS'weekends'
p331
I39
sS'doesnt'
p332
I39
sS'mode'
p333
I37
sS'truth'
p334
I38
sS'found'
p335
I39
sS'bills'
p336
I39
sS'meal'
p337
I39
sS'mean'
p338
I36
sS'lie'
p339
I39
sS'ankles'
p340
I39
sS'everyone'
p341
I39
sS'weight'
p342
I39
sS'doing'
p343
I39
sS'house'
p344
I38
sS'hard'
p345
I38
sS'yeah'
p346
I37
sS'used'
p347
I39
sS'wednesday'
p348
I39
sS'dawg'
p349
I39
sS'waaaahhh'
p350
I39
sS'aim'
p351
I39
sS'forgot'
p352
I39
sS'our'
p353
I34
sS'girl'
p354
I35
sS'marley'
p355
I39
sS'saturday'
p356
I38
sS'yet'
p357
I39
sS'out'
p358
I36
sS'rt'
p359
I39
sS'types'
p360
I39
sS'miss'
p361
I39
sS'since'
p362
I37
sS'looking'
p363
I36
sS'acting'
p364
I39
sS'qb'
p365
I39
sS'playground'
p366
I39
sS"they'll"
p367
I39
sS'got'
p368
I29
sS'rn'
p369
I39
sS'cause'
p370
I36
sS'ass'
p371
I36
sS'dodgers'
p372
I39
sS'jessica'
p373
I39
sS'rambo'
p374
I39
sS"doesn't"
p375
I39
sS'scumbag'
p376
I39
sS'friday'
p377
I37
sS'given'
p378
I39
sS'free'
p379
I38
sS'reason'
p380
I39
sS'que'
p381
I39
sS'conditioning'
p382
I39
sS'ask'
p383
I38
sS'van'
p384
I39
sS'amigos'
p385
I4
sS'wanted'
p386
I38
sS'beginning'
p387
I38
sS'havent'
p388
I39
sS'card'
p389
I37
sS'care'
p390
I39
sS'yup'
p391
I39
sS'could'
p392
I38
sS'kiss'
p393
I39
sS'days'
p394
I38
sS'keep'
p395
I39
sS'caption'
p396
I39
sS'daisy'
p397
I39
sS'think'
p398
I36
sS'ammo'
p399
I39
sS'first'
p400
I37
sS'key'
p401
I39
sS'enjoy'
p402
I39
sS'already'
p403
I37
sS'dont'
p404
I38
sS'boy-.-'
p405
I39
sS'feel'
p406
I35
sS'frantic'
p407
I39
sS'poofy'
p408
I39
sS'bama'
p409
I39
sS'one'
p410
I38
sS'long'
p411
I38
sS'another'
p412
I36
sS'such'
p413
I39
sS'says'
p414
I39
sS'sounds'
p415
I38
sS'open'
p416
I38
sS'tomorrow'
p417
I36
sS"you're"
p418
I36
sS'little'
p419
I38
sS'start'
p420
I38
sS'obvi'
p421
I39
sS'5th'
p422
I39
sS'girls'
p423
I37
sS'gpa'
p424
I39
sS'least'
p425
I39
sS"he'll"
p426
I39
sS'anyone'
p427
I38
sS'their'
p428
I38
sS'2'
p429
I35
sS'too'
p430
I33
sS'uh'
p431
I39
sS'west'
p432
I39
sS'store'
p433
I39
sS'muscles'
p434
I39
sS'gear'
p435
I38
sS'that'
p436
I25
sS'wendell'
p437
I39
sS'season'
p438
I39
sS'gym'
p439
I39
sS'bleed'
p440
I39
sS"i'ma"
p441
I39
sS'burlesque'
p442
I39
sS'nigga'
p443
I38
sS'josh'
p444
I39
sS'theater'
p445
I39
sS'july'
p446
I39
sS'clubin'
p447
I39
sS'than'
p448
I34
sS'population'
p449
I39
sS'11'
p450
I39
sS'10'
p451
I38
sS'grew'
p452
I39
sS'lmao'
p453
I37
sS'showed'
p454
I39
sS'16'
p455
I39
sS'fucktards'
p456
I39
sS'double'
p457
I36
sS'gotta'
p458
I38
sS'rehab'
p459
I39
sS'r'
p460
I37
sS'20:35:04.0,33.9283584,-118.1570151,5516,if'
p461
I39
sS'were'
p462
I38
sS'college'
p463
I39
sS'ousted'
p464
I39
sS'anyways'
p465
I39
sS'and'
p466
I15
sS'rad'
p467
I39
sS'cheek'
p468
I39
sS'broadway'
p469
I39
sS'look'
p470
I39
sS"wouldn't"
p471
I39
sS'head'
p472
I39
sS'ginger'
p473
I39
sS'sad'
p474
I37
sS'13th'
p475
I39
sS'talking'
p476
I39
sS'say'
p477
I35
sS'1:00'
p478
I39
sS'have'
p479
I30
sS'need'
p480
I33
sS'seen'
p481
I38
sS'breakfast'
p482
I38
sS'turn'
p483
I39
sS'saw'
p484
I39
sS'any'
p485
I38
sS'gators'
p486
I39
sS'coworker'
p487
I39
sS'lil'
p488
I38
sS'shorts'
p489
I39
sS'-'
p490
I37
sS'ideas'
p491
I39
sS'balling'
p492
I39
sS'zoo'
p493
I39
sS'also'
p494
I38
sS'chest'
p495
I39
sS'client'
p496
I39
sS'phone:"i'
p497
I39
sS'take'
p498
I38
sS'green'
p499
I39
sS'puffing'
p500
I39
sS'club'
p501
I39
sS'blue'
p502
I39
sS'sure'
p503
I39
sS'aww'
p504
I39
sS'who'
p505
I36
sS'dubs'
p506
I39
sS'sue'
p507
I39
sS'paid'
p508
I39
sS"where's"
p509
I39
sS'intentions'
p510
I39
sS'representation'
p511
I39
sS'nothing'
p512
I37
sS'seasons'
p513
I39
sS'highschool'
p514
I39
sS'why'
p515
I35
sS'cellphone'
p516
I39
sS'forever'
p517
I39
sS'stupid'
p518
I39
sS'episode'
p519
I39
sS'dom'
p520
I39
sS'doggie'
p521
I39
sS'noone'
p522
I39
sS'sometimes'
p523
I39
sS'dog'
p524
I38
sS'breather'
p525
I39
sS"you'll"
p526
I38
sS'mri'
p527
I12
sS'dyrdek'
p528
I39
sS'annoyed'
p529
I39
sS'saying'
p530
I38
sS'ugh'
p531
I39
sS'bomb'
p532
I39
sS'show'
p533
I36
sS'gentleman'
p534
I39
sS'4.the'
p535
I39
sS'ending'
p536
I39
sS'bring'
p537
I38
sS'woth'
p538
I39
sS'welp'
p539
I39
sS'earth'
p540
I39
sS'asylum'
p541
I38
sS'fine'
p542
I39
sS'find'
p543
I39
sS'meed'
p544
I39
sS'sanchez'
p545
I39
sS'busy'
p546
I39
sS'('
p547
I38
sS'explain'
p548
I39
sS'dick'
p549
I39
sS'fans'
p550
I39
sS'\xe2\x80\x9cdying'
p551
I39
sS'should'
p552
I39
sS'only'
p553
I36
sS'going'
p554
I35
sS'black'
p555
I36
sS'touched'
p556
I39
sS'combo'
p557
I39
sS"landon'$"
p558
I39
sS'halloween'
p559
I39
sS'handsome'
p560
I39
sS'lips'
p561
I39
sS'hope'
p562
I39
sS'meant'
p563
I39
sS'do'
p564
I26
sS'his'
p565
I39
sS'hit'
p566
I39
sS'get'
p567
I26
sS'beat'
p568
I39
sS'stop'
p569
I37
sS'15:46:21.0,33.92707149,-118.1601541,5516,at'
p570
I39
sS'da'
p571
I37
sS'$$$$$'
p572
I39
sS'b'
p573
I39
sS'longest'
p574
I39
sS'reply'
p575
I39
sS'during'
p576
I39
sS'google'
p577
I39
sS'dr'
p578
I39
sS'him'
p579
I39
sS'lobby'
p580
I39
sS'bestest'
p581
I39
sS"'don't"
p582
I39
sS'married'
p583
I39
sS'morning'
p584
I37
sS":'("
p585
I39
sS'bag'
p586
I39
sS'bad'
p587
I39
sS'bae'
p588
I38
sS'she'
p589
I35
sS'18'
p590
I39
sS"won't"
p591
I39
sS'grab'
p592
I39
sS'marries'
p593
I39
sS'worrying'
p594
I39
sS"y'all"
p595
I38
sS'kaws'
p596
I39
sS'w/'
p597
I38
sS'sex'
p598
I39
sS'see'
p599
I34
sS'decided'
p600
I39
sS'asleep'
p601
I39
sS'are'
p602
I27
sS'kanye'
p603
I38
sS'best'
p604
I37
sS'wonder'
p605
I39
sS'said'
p606
I36
sS'ni***'
p607
I39
sS'visiting'
p608
I39
sS'shonen'
p609
I39
sS'wow'
p610
I39
sS'please'
p611
I36
sS'mayor'
p612
I39
sS'cd'
p613
I39
sS'3'
p614
I38
sS'won'
p615
I39
sS'closed'
p616
I39
sS'between'
p617
I39
sS'probably'
p618
I37
sS'curren$y,90242\n491247818674159616,moon_quinn,2014-07-21'
p619
I39
sS'shelter!!\xe2\x80\xa6'
p620
I39
sS'we'
p621
I26
sS'parent'
p622
I38
sS'fearless'
p623
I39
sS'screen'
p624
I39
sS'weak'
p625
I39
sS'ignorance'
p626
I39
sS'killing'
p627
I39
sS'runaround'
p628
I39
sS'add'
p629
I39
sS'wear'
p630
I39
sS'wtf'
p631
I35
sS'jets'
p632
I35
sS'come'
p633
I37
sS'sushi'
p634
I39
sS'thank'
p635
I38
sS'yuhh'
p636
I39
sS'cop'
p637
I36
sS'last'
p638
I39
sS'license'
p639
I39
sS'met'
p640
I39
sS'secrets'
p641
I39
sS'fault'
p642
I39
sS'taking'
p643
I38
sS'annual'
p644
I39
sS'oh'
p645
I39
sS'gotten'
p646
I39
sS'etc'
p647
I39
sS's'
p648
I38
sS'became'
p649
I39
sS'lo'
p650
I39
sS'share'
p651
I39
sS'whole'
p652
I39
sS'asked'
p653
I39
sS'tease'
p654
I39
sS'endoform'
p655
I39
sS'spoil'
p656
I39
sS'seems'
p657
I39
sS'ca'
p658
I39
sS'whatever'
p659
I39
sS'wrk'
p660
I39
sS'running'
p661
I39
sS'needa'
p662
I39
sS'maximize'
p663
I39
sS'kings'
p664
I39
sS'cole'
p665
I39
sS'cokes'
p666
I39
sS'sunday'
p667
I39
sS'agree'
p668
I39
sS"it's"
p669
I31
sS'autocorrect'
p670
I39
sS'daily'
p671
I39
sS'three'
p672
I38
sS'been'
p673
I36
sS'5-10%'
p674
I39
sS'jerks'
p675
I39
sS'municipal'
p676
I39
sS'secret'
p677
I39
sS'much'
p678
I36
sS'damn'
p679
I38
sS'that?""i'
p680
I39
sS'naruto'
p681
I39
sS'taxes2'
p682
I39
sS'life'
p683
I34
sS'citation'
p684
I39
sS'gay'
p685
I39
sS'both'
p686
I39
sS'with'
p687
I29
sS'chanelbro'
p688
I39
sS'face'
p689
I39
sS'(downey'
p690
I16
sS'moment'
p691
I39
sS'snap'
p692
I39
sS'lives'
p693
I39
sS'-.-'
p694
I39
sS'in-n-out\xe2\x80\xa6'
p695
I39
sS'bull'
p696
I39
sS'catch'
p697
I39
sS'drum'
p698
I39
sS'rocking'
p699
I39
sS'hidden'
p700
I39
sS'those'
p701
I39
sS'chill'
p702
I39
sS'case'
p703
I39
sS'tonight'
p704
I39
sS'myself'
p705
I39
sS'handling'
p706
I39
sS'tank'
p707
I39
sS'abandoned'
p708
I39
sS'these'
p709
I38
sS'restaurant'
p710
I39
sS'howwt'
p711
I39
sS'n'
p712
I39
sS'will'
p713
I37
sS'while'
p714
I38
sS'surprised'
p715
I39
sS'hahaha'
p716
I38
sS'fun'
p717
I39
sS'ill'
p718
I39
sS'pack'
p719
I39
sS'*victory'
p720
I39
sS'ive'
p721
I39
sS'pound'
p722
I39
sS'pa$$'
p723
I39
sS'portugal'
p724
I39
sS'violently'
p725
I39
sS'is'
p726
I17
sS'?,90242\n511245702748336129,sensei_erick,2014-09-14'
p727
I39
sS'it'
p728
I20
sS'sleeping'
p729
I38
sS'cant'
p730
I39
sS'someone'
p731
I39
sS'im'
p732
I35
sS'in'
p733
I19
sS'thug'
p734
I39
sS'ave'
p735
I23
sS'id'
p736
I39
sS'if'
p737
I32
sS'yassssss'
p738
I39
sS'different'
p739
I38
sS'mins'
p740
I39
sS'shirt'
p741
I38
sS'fkn'
p742
I39
sS'players'
p743
I39
sS'wearing'
p744
I39
sS'fearless\xe2\x80\xa6\xe2\x80\x9dme'
p745
I39
sS'make'
p746
I34
sS'pepe'
p747
I38
sS'same'
p748
I39
sS'member'
p749
I39
sS'parts'
p750
I39
sS'hahah'
p751
I38
sS'"i'
p752
I39
sS'party'
p753
I39
sS'gets'
p754
I39
sS'vega$'
p755
I39
sS'week'
p756
I37
sS'meets'
p757
I39
sS'coolnobodys'
p758
I39
sS'pontiac'
p759
I39
sS'forced'
p760
I39
sS'drink'
p761
I38
sS'disagree'
p762
I39
sS'evil'
p763
I39
sS'tambien'
p764
I39
sS"entertaining!!'"
p765
I39
sS'fucken'
p766
I39
sS'moving'
p767
I39
sS'cargoshorts'
p768
I39
sS'characters'
p769
I39
sS'fucked'
p770
I39
sS'l.a'
p771
I39
sS'bob'
p772
I39
sS'single'
p773
I39
sS'kid'
p774
I38
sS'dark'
p775
I39
sS"in'n"
p776
I39
sS'off'
p777
I39
sS'center'
p778
I39
sS'jajaja'
p779
I39
sS'i'
p780
I5
sS'hahahahaha'
p781
I39
sS'youre'
p782
I38
sS'well'
p783
I38
sS'blowjob'
p784
I39
sS'grind'
p785
I39
sS'thought'
p786
I38
sS'pride'
p787
I39
sS'without'
p788
I38
sS'mother'
p789
I39
sS'gift'
p790
I39
sS'the'
p791
I10
sS'800'
p792
I39
sS'corporate'
p793
I39
sS'nah'
p794
I39
sS'left'
p795
I39
sS'summer'
p796
I39
sS'sec'
p797
I39
sS'lattes'
p798
I39
sS'\xe2\x98\xba\xef\xb8\x8f'
p799
I39
sS'just'
p800
I25
sS'being'
p801
I37
sS'money'
p802
I35
sS'dancers'
p803
I39
sS'sleepy'
p804
I39
sS'good,90242\n492043270055161856,no_life_me,2014-07-23'
p805
I39
sS'15:45:38.0,33.92708974,-118.16014552,5516,my'
p806
I39
sS'lotteryy'
p807
I39
sS'thanks'
p808
I39
sS'human'
p809
I39
sS'laurel'
p810
I23
sS'yes'
p811
I38
sS'nam'
p812
I39
sS'tattooed'
p813
I39
sS',90242\n474571632078360578,heartz456,2014-06-05'
p814
I39
sS'yr'
p815
I39
sS'$'
p816
I39
sS'majority'
p817
I39
sS'thinking'
p818
I38
sS',90242\n511251810187612160,sensei_erick,2014-09-14'
p819
I39
sS'drive'
p820
I39
sS'had'
p821
I35
sS'-_-'
p822
I39
sS'bullshit'
p823
I39
sS'lets'
p824
I38
sS'9:30'
p825
I39
sS'4'
p826
I36
sS'downey)'
p827
I20
sS'lip'
p828
I39
sS'has'
p829
I37
sS'excited'
p830
I38
sS'smart'
p831
I39
sS'vice-'
p832
I39
sS'sonia'
p833
I39
sS'livin'
p834
I39
sS'read'
p835
I39
sS'big'
p836
I37
sS'showing'
p837
I39
sS'amd'
p838
I39
sS'gonna'
p839
I38
sS'early'
p840
I38
sS'cho'
p841
I39
sS'game'
p842
I39
sS'traffic'
p843
I38
sS'know'
p844
I30
sS'mom'
p845
I36
sS'wanting'
p846
I39
sS'judge'
p847
I39
sS'world'
p848
I39
sS'bit'
p849
I39
sS'walk'
p850
I39
sS'lady'
p851
I38
sS'meaning'
p852
I39
sS'bro'
p853
I37
sS'lincoln'
p854
I39
sS'stuff'
p855
I39
sS'like'
p856
I22
sS'lost'
p857
I39
sS'aching'
p858
I39
sS'kennedy'
p859
I39
sS'honestly'
p860
I39
sS't'
p861
I39
sS'lose'
p862
I38
sS'(even'
p863
I39
sS'harry'
p864
I39
sS'trying'
p865
I39
sS'attorney'
p866
I39
sS'right'
p867
I38
sS'old'
p868
I39
sS'people'
p869
I37
sS'fucking'
p870
I38
sS'yolo'
p871
I39
sS'some'
p872
I36
sS'searching'
p873
I38
sS'idgaf'
p874
I39
sS'eep'
p875
I39
sS'hair'
p876
I38
sS'vata'
p877
I39
sS'jump*'
p878
I39
sS'home'
p879
I37
sS'thinks'
p880
I39
sS'est'
p881
I39
sS'for'
p882
I24
sS'pet'
p883
I39
sS'literally'
p884
I39
sS'shirtless'
p885
I39
sS"most'll"
p886
I39
sS'14th'
p887
I39
sS'everything'
p888
I39
sS'adventuring'
p889
I39
sS'3:33'
p890
I39
sS'christmas'
p891
I39
sS'dia'
p892
I39
sS'either'
p893
I39
sS'be'
p894
I27
sS'pepper'
p895
I39
sS'welcome'
p896
I38
sS'run'
p897
I39
sS'screenshotting'
p898
I39
sS'asap'
p899
I38
sS'lmfao'
p900
I37
sS'yaws'
p901
I39
sS'night'
p902
I36
sS'zombie'
p903
I37
sS"rollthey're"
p904
I39
sS'rancho'
p905
I3
sS'overreact'
p906
I39
sS'santa'
p907
I39
sS'chick'
p908
I39
sS'post'
p909
I39
sS'by'
p910
I39
sS'hnrna'
p911
I39
sS'on'
p912
I21
sS'about'
p913
I35
sS'ok'
p914
I39
sS'would'
p915
I38
sS'anything'
p916
I38
sS'getting'
p917
I39
sS'meow'
p918
I39
sS'of'
p919
I19
sS'dollars'
p920
I39
sS'prove'
p921
I39
sS'nos'
p922
I39
sS'angeles'
p923
I31
sS'swear'
p924
I39
sS'idk'
p925
I39
sS'act'
p926
I38
sS'where'
p927
I39
sS'wanna'
p928
I35
sS'or'
p929
I34
sS'block'
p930
I39
sS'whitey'
p931
I39
sS'own'
p932
I39
sS'infraction'
p933
I39
sS'into'
p934
I39
sS'hwy'
p935
I39
sS'year'
p936
I39
sS'blessed'
p937
I39
sS'snapchat'
p938
I39
sS'negative'
p939
I39
sS'down'
p940
I38
sS'clich\xc3\xa9'
p941
I39
sS'because'
p942
I35
sS'responds'
p943
I39
sS'cheaters'
p944
I39
sS'mark'
p945
I39
sS'your'
p946
I32
sS'eyy'
p947
I39
sS'omfg'
p948
I39
sS'networking'
p949
I39
sS'her'
p950
I36
sS'dnt'
p951
I39
sS'spending'
p952
I39
sS'transfer'
p953
I39
sS'there'
p954
I34
sS'ca)'
p955
I16
sS'lol'
p956
I32
sS'imperial'
p957
I37
sS'fully'
p958
I39
sS'los'
p959
I2
sS'lonely'
p960
I39
sS'downey'
p961
I25
sS"we're"
p962
I39
sS'lot'
p963
I38
sS'suit'
p964
I39
sS'forward'
p965
I39
sS'bored'
p966
I39
sS'was'
p967
I32
sS'happy'
p968
I35
sS're-do'
p969
I39
sS'mornings'
p970
I39
sS'invite'
p971
I39
sS"i've"
p972
I35
sS'bus'
p973
I39
sS'brand'
p974
I39
sS'=_=\xe2\x80\x9d'
p975
I39
sS'hw'
p976
I38
sS'but'
p977
I20
sS'back'
p978
I37
sS'boys'
p979
I39
sS'20:27:11.0,33.9280258,-118.1565218,5516,i'
p980
I39
sS'bun'
p981
I39
sS'tho'
p982
I39
sS'line'
p983
I39
sS'apollo'
p984
I39
sS'true'
p985
I38
sS'bug'
p986
I39
sS'buying'
p987
I39
sS'he'
p988
I34
sS'viva'
p989
I39
sS"they're"
p990
I39
sS'this"'
p991
I39
sS'erick'
p992
I38
sS'restarted'
p993
I39
sS'wish'
p994
I39
sS'inside'
p995
I38
sS'j'
p996
I38
sS'ca$h'
p997
I37
sS'up'
p998
I22
sS'us'
p999
I38
sS'tell'
p1000
I38
sS'patriots\xe2\x80\x9d'
p1001
I39
sS'lemme'
p1002
I39
sS'hahahaa'
p1003
I39
sS'mtn'
p1004
I39
sS'dirty'
p1005
I39
sS'faking'
p1006
I39
sS'problem'
p1007
I39
sS',90242\n491247638499454976,moon_quinn,2014-07-21'
p1008
I39
sS'called'
p1009
I37
sS'delete'
p1010
I39
sS'wrestlers'
p1011
I39
sS'v'
p1012
I39
sS'supervisor'
p1013
I39
sS'chad'
p1014
I39
sS'af'
p1015
I39
sS'feliz'
p1016
I39
sS'pic'
p1017
I38
sS'am'
p1018
I34
sS'1200'
p1019
I39
sS'an'
p1020
I34
sS'as'
p1021
I32
sS'lived'
p1022
I39
sS'at'
p1023
I6
sS'babe'
p1024
I39
sS'doe'
p1025
I39
sS'happen'
p1026
I39
sS'shit'
p1027
I32
sS'knows'
p1028
I39
sS'4.6'
p1029
I39
sS'tix'
p1030
I39
sS'faithful'
p1031
I39
sS'dying'
p1032
I39
sS'no'
p1033
I36
sS'insane'
p1034
I39
sS'when'
p1035
I35
sS'anyday'
p1036
I39
sS'scares'
p1037
I39
sS'til'
p1038
I39
sS'roses'
p1039
I39
sS'sick'
p1040
I39
sS'7/10'
p1041
I39
sS'you'
p1042
I11
sS'really'
p1043
I37
sS'illusion'
p1044
I39
sS'reckless'
p1045
I39
sS'nice'
p1046
I37
sS'brandi'
p1047
I39
sS'repeat'
p1048
I39
sS'hey'
p1049
I38
sS'death3'
p1050
I39
sS'ryans'
p1051
I39
sS'class'
p1052
I39
sS'football'
p1053
I38
sS'carpenter'
p1054
I39
sS'diet'
p1055
I39
sS"let's"
p1056
I35
sS'15:21:08.0,33.9277332,-118.1559939,5516,did'
p1057
I39
sS'mechanical'
p1058
I39
sS'prepares'
p1059
I39
sS'song'
p1060
I39
sS'mri)'
p1061
I14
sS'friends'
p1062
I39
sS'died'
p1063
I39
sS'building'
p1064
I39
sS'tweeting'
p1065
I39
sS'e'
p1066
I38
sS'lead'
p1067
I39
sS'bedd'
p1068
I39
sS'info'
p1069
I39
sS'together'
p1070
I38
sS'bb'
p1071
I39
sS'loyal'
p1072
I39
sS'hella'
p1073
I39
sS'u'
p1074
I32
sS'situations'
p1075
I39
sS'time'
p1076
I33
sS'alright'
p1077
I38
sS'having'
p1078
I39
sS'8th'
p1079
I39
s.