(dp0
S''
p1
I5
sS'raining'
p2
I111
sS'todays'
p3
I111
sS'hats'
p4
I111
sS'personally'
p5
I111
sS'bear'
p6
I111
sS'9/11'
p7
I110
sS'four'
p8
I111
sS'whennnnn'
p9
I111
sS'diss'
p10
I111
sS'sleep'
p11
I71
sS'woody'
p12
I111
sS'oldest'
p13
I111
sS'hate'
p14
I78
sS'tomorrows'
p15
I111
sS'relationships'
p16
I111
sS'swag'
p17
I111
sS'feeding'
p18
I111
sS'buddy'
p19
I110
sS'aug'
p20
I109
sS'tweet'
p21
I101
sS'swan'
p22
I111
sS'popester'
p23
I111
sS'sundy'
p24
I111
sS'messi'
p25
I111
sS'bike'
p26
I111
sS'lori'
p27
I111
sS'swap'
p28
I111
sS'rice\xe2\x80\xa6'
p29
I111
sS'under'
p30
I111
sS'lord'
p31
I81
sS'sorry'
p32
I105
sS'worth'
p33
I106
sS'nooooooooooooo'
p34
I111
sS'illegally'
p35
I111
sS"subway's"
p36
I111
sS'callin'
p37
I111
sS'exempt'
p38
I111
sS'added'
p39
I111
sS"day1's"
p40
I111
sS'deli'
p41
I109
sS'oceans'
p42
I111
sS'dell'
p43
I111
sS'despise'
p44
I111
sS'micaelaaa'
p45
I111
sS'every'
p46
I89
sS'snitchk'
p47
I111
sS'thisniggalooklikeaafricanpoet'
p48
I111
sS'easy\xe2\x80\x9dexactly'
p49
I111
sS'beamount'
p50
I111
sS'functions'
p51
I111
sS'school'
p52
I87
sS"charlie's"
p53
I111
sS'club'
p54
I111
sS'wednesday'
p55
I110
sS'lime'
p56
I111
sS'math'
p57
I110
sS'calendar'
p58
I111
sS"zon't"
p59
I111
sS'ups'
p60
I108
sS'clothes'
p61
I110
sS'enjoy'
p62
I103
sS'heye'
p63
I111
sS'sleeeeeep'
p64
I111
sS'avianna?"'
p65
I111
sS'tired'
p66
I89
sS'miller'
p67
I110
sS'somewhere'
p68
I111
sS'japanese'
p69
I111
sS'down\xe2\x80\xa6'
p70
I111
sS'nail'
p71
I111
sS'across'
p72
I110
sS'second'
p73
I109
sS'louder'
p74
I111
sS'nigz'
p75
I111
sS'chem'
p76
I110
sS'xxyyxx>'
p77
I111
sS'even'
p78
I79
sS'everyones'
p79
I111
sS'hide'
p80
I110
sS'"ima'
p81
I111
sS'thunder'
p82
I111
sS'enchiladas'
p83
I111
sS'boogie'
p84
I111
sS'near'
p85
I110
sS"santa's"
p86
I111
sS'21:55:03.0,33.87329905,-118.13080673,5544.04,sept'
p87
I111
sS'above'
p88
I106
sS'ufo'
p89
I111
sS'new'
p90
I87
sS'net'
p91
I111
sS'ever'
p92
I94
sS'seeks'
p93
I110
sS'told'
p94
I102
sS'med'
p95
I110
sS'mamas'
p96
I111
sS'kicked'
p97
I111
sS'simultaneously'
p98
I111
sS'mineeeeeeee'
p99
I111
sS'pancakes'
p100
I111
sS'join'
p101
I111
sS'never'
p102
I73
sS'wrapping'
p103
I111
sS'nevet'
p104
I111
sS'here'
p105
I85
sS'vapors'
p106
I111
sS'\xe2\x9d\xa4\xef\xb8\x8f'
p107
I108
sS'bookcase'
p108
I111
sS'minne'
p109
I111
sS'yaoi?"'
p110
I111
sS'100'
p111
I111
sS"pauline's"
p112
I107
sS'celebration'
p113
I111
sS'dry'
p114
I109
sS'kids'
p115
I94
sS'daughter'
p116
I106
sS'k'
p117
I105
sS'changed'
p118
I109
sS'"why'
p119
I111
sS'piercing'
p120
I110
sS'jamz'
p121
I111
sS'ignoring'
p122
I110
sS'itunes'
p123
I111
sS'imma'
p124
I111
sS"i'd"
p125
I111
sS'smoke'
p126
I108
sS'stressed'
p127
I110
sS"i'n"
p128
I111
sS"i'm"
p129
I9
sS'pack'
p130
I111
sS'golden'
p131
I108
sS'tu'
p132
I111
sS'daaang'
p133
I111
sS'carl'
p134
I111
sS'spooky'
p135
I111
sS'julie'
p136
I111
sS'explained'
p137
I111
sS'root'
p138
I111
sS'feelings'
p139
I110
sS'bro'
p140
I103
sS'patience'
p141
I110
sS'insta'
p142
I110
sS'bri'
p143
I111
sS'whyyyyy'
p144
I111
sS'txt'
p145
I111
sS'respec'
p146
I111
sS'morae'
p147
I111
sS'bonus'
p148
I111
sS'cheating'
p149
I110
sS'would'
p150
I83
sS'v1.0'
p151
I111
sS'tardiness'
p152
I111
sS'hospital'
p153
I110
sS"ciara's"
p154
I111
sS'negative'
p155
I111
sS'craving'
p156
I111
sS'cali'
p157
I106
sS'noting'
p158
I111
sS'call'
p159
I79
sS'calm'
p160
I111
sS'typo'
p161
I111
sS'rize'
p162
I111
sS'roshes'
p163
I111
sS'reconnection'
p164
I111
sS'type'
p165
I94
sS'until'
p166
I105
sS'breathe'
p167
I111
sS'early..too'
p168
I111
sS'females'
p169
I106
sS'posting'
p170
I111
sS'\xe2\x80\xa6'
p171
I111
sS'relax'
p172
I111
sS'oscar'
p173
I111
sS'expose'
p174
I109
sS'starburst'
p175
I111
sS'haha'
p176
I101
sS'flubber'
p177
I111
sS'apart.\xe2\x80\x9dsleeeep'
p178
I111
sS'hurt'
p179
I109
sS'99'
p180
I111
sS'phone'
p181
I86
sS'job.,90706\n501798812818497536,aj_mosley20,2014-08-19'
p182
I111
sS'91'
p183
I110
sS"5'2"
p184
I111
sS"5'1"
p185
I111
sS'hold'
p186
I109
sS'blocking'
p187
I110
sS'must'
p188
I104
sS'shoot'
p189
I110
sS'9-0'
p190
I111
sS'mf'
p191
I111
sS'ma'
p192
I108
sS'room'
p193
I108
sS'player'
p194
I111
sS'hideous'
p195
I111
sS'mo'
p196
I111
sS'work'
p197
I59
sS'mi'
p198
I111
sS'ik'
p199
I111
sS'worn'
p200
I111
sS'mj'
p201
I111
sS'movies'
p202
I109
sS'era'
p203
I108
sS'ms'
p204
I109
sS'mr'
p205
I109
sS'coldchain'
p206
I111
sS'my'
p207
I2
sS'matilda'
p208
I111
sS'goood'
p209
I110
sS'reply...boohoo'
p210
I111
sS'give'
p211
I98
sS'floor'
p212
I111
sS'laughs'
p213
I110
sS'honey'
p214
I111
sS':30-:40'
p215
I111
sS'fronting'
p216
I111
sS'veggies'
p217
I110
sS'want'
p218
I71
sS'squab'
p219
I111
sS'keep'
p220
I98
sS'guillermo_is_muy_guapo'
p221
I111
sS'santana'
p222
I111
sS'end'
p223
I108
sS'recovery'
p224
I111
sS'trill'
p225
I109
sS'thing'
p226
I97
sS'hoo'
p227
I111
sS'cuh...he'
p228
I111
sS'damage'
p229
I111
sS'zo\xc3\xab'
p230
I111
sS'machine'
p231
I110
sS'how'
p232
I60
sS'hot'
p233
I100
sS'hop'
p234
I106
sS'rewind'
p235
I111
sS'answer'
p236
I110
sS'yum'
p237
I109
sS'beach'
p238
I109
sS'cornrows'
p239
I111
sS'joans'
p240
I111
sS'pizza'
p241
I108
sS'ban\xc2\xa0-'
p242
I111
sS'untill'
p243
I104
sS'rise'
p244
I111
sS'"miss'
p245
I111
sS'beauty'
p246
I111
sS'cuisine'
p247
I111
sS'mess'
p248
I102
sS'"he'
p249
I111
sS'earlier'
p250
I110
sS'...or'
p251
I111
sS'loyalty'
p252
I111
sS'lab'
p253
I111
sS'whyyyy'
p254
I111
sS'complicated'
p255
I111
sS'dinosaurs'
p256
I111
sS'wrong'
p257
I106
sS'lax'
p258
I111
sS'lay'
p259
I107
sS'destinee'
p260
I111
sS'law'
p261
I108
sS'lap'
p262
I111
sS'lesbian'
p263
I111
sS'nipped'
p264
I111
sS'05:30:03.0,33.8741386,-118.1255424,5544.04,you'
p265
I111
sS'elusive'
p266
I111
sS'bro...you'
p267
I111
sS'not._'
p268
I111
sS'chillen'
p269
I111
sS'porn'
p270
I111
sS'aliens'
p271
I111
sS'appreciate'
p272
I111
sS'sorryyyy'
p273
I111
sS'childhood'
p274
I111
sS'backwoods'
p275
I111
sS'thangs'
p276
I111
sS'18th'
p277
I111
sS'funniest'
p278
I111
sS'goodbye'
p279
I111
sS'keeps'
p280
I110
sS'fan'
p281
I111
sS'strippers'
p282
I111
sS'athletes'
p283
I111
sS'order'
p284
I109
sS'wind'
p285
I111
sS'lindsay'
p286
I110
sS'banger'
p287
I111
sS'salon'
p288
I111
sS'shay'
p289
I111
sS'longggggg'
p290
I111
sS'feedback'
p291
I111
sS'office'
p292
I111
sS'wut'
p293
I111
sS'walgreens'
p294
I111
sS'over'
p295
I84
sS'fall'
p296
I104
sS'satisfied'
p297
I110
sS'thousands'
p298
I111
sS'awful'
p299
I111
sS'guyyyy'
p300
I111
sS'loiter'
p301
I111
sS'bubbles'
p302
I111
sS'crumbs'
p303
I111
sS'banged'
p304
I110
sS'talkative'
p305
I111
sS'mayor'
p306
I111
sS'digest'
p307
I111
sS'before'
p308
I85
sS'ima'
p309
I104
sS'fit'
p310
I107
sS'tuned'
p311
I111
sS'personal'
p312
I110
sS'fireplace'
p313
I111
sS'backpack'
p314
I111
sS'revenue'
p315
I111
sS'expectations'
p316
I110
sS'crew'
p317
I110
sS'better'
p318
I85
sS'tramp'
p319
I110
sS'differently'
p320
I111
sS'fade'
p321
I110
sS'400'
p322
I111
sS'whips'
p323
I111
sS'weeks'
p324
I103
sS'easier'
p325
I110
sS'killinngggg'
p326
I111
sS'then'
p327
I77
sS'them'
p328
I76
sS'dammmmmmmmnnnn'
p329
I111
sS'woken'
p330
I111
sS'selective'
p331
I111
sS'weakness'
p332
I111
sS'workout'
p333
I111
sS'safe'
p334
I109
sS'18:27:42.0,33.87659257,-118.13218704,5544.04,hopefully'
p335
I111
sS"we'll"
p336
I107
sS'girl:i'
p337
I111
sS'break'
p338
I102
sS'bang'
p339
I111
sS'heaven'
p340
I111
sS'therapy'
p341
I108
sS'crib'
p342
I111
sS'they'
p343
I51
sS'anit'
p344
I111
sS'one'
p345
I56
sS'rental'
p346
I111
sS'shawty'
p347
I111
sS'bank'
p348
I109
sS'pegs'
p349
I111
sS'alex'
p350
I111
sS'*screenshots'
p351
I111
sS'potatoes'
p352
I111
sS'crunchy'
p353
I111
sS'rocks'
p354
I111
sS'explode'
p355
I111
sS'spotless'
p356
I111
sS'roast'
p357
I111
sS'each'
p358
I109
sS'addicted'
p359
I107
sS'went'
p360
I94
sS'side'
p361
I101
sS'bone'
p362
I110
sS'mean'
p363
I101
sS'fee'
p364
I111
sS'hanger'
p365
I111
sS'adobe'
p366
I111
sS'suspended'
p367
I111
sS'woes'
p368
I111
sS'08:17:30.0,33.873778,-118.126497,5544.04,at'
p369
I111
sS'gunna'
p370
I111
sS'list'
p371
I108
sS'slef'
p372
I111
sS'upload'
p373
I111
sS'tip'
p374
I111
sS'passwords'
p375
I111
sS'court'
p376
I111
sS',90706\n501917369493499904,aj_mosley20,2014-08-20'
p377
I111
sS'forgot'
p378
I108
sS'ragedy'
p379
I110
sS'aids'
p380
I111
sS'dawn'
p381
I110
sS'wordddd'
p382
I111
sS'saturday'
p383
I106
sS'whip'
p384
I110
sS'rt'
p385
I110
sS'independency'
p386
I111
sS'gon'
p387
I105
sS'lemons'
p388
I111
sS'driving'
p389
I103
sS'oprah'
p390
I111
sS'sluts'
p391
I110
sS'god'
p392
I93
sS'cameras'
p393
I111
sS'cool:)'
p394
I111
sS'mason'
p395
I104
sS'content'
p396
I111
sS're'
p397
I110
sS'encourage'
p398
I111
sS'waiiiiiiiiiiit'
p399
I111
sS',90706\n496416892253646848,los_burritos77,2014-08-04'
p400
I111
sS'rare'
p401
I111
sS'nite'
p402
I67
sS'smh'
p403
I103
sS'medicine'
p404
I111
sS'got'
p405
I30
sS'rn'
p406
I108
sS'forth'
p407
I111
sS'foundation'
p408
I111
sS'turning'
p409
I107
sS"you're"
p410
I92
sS'fave'
p411
I111
sS'little'
p412
I101
sS'free'
p413
I108
sS'"hey'
p414
I111
sS'kayla'
p415
I111
sS'struggle'
p416
I108
sS'hoodie'
p417
I111
sS"people's"
p418
I111
sS'wanted'
p419
I109
sS'soundcloud'
p420
I111
sS'whattt'
p421
I111
sS'dammit'
p422
I111
sS'ate'
p423
I109
sS'ethanpala'
p424
I111
sS'starts'
p425
I110
sS'atm'
p426
I111
sS'messages'
p427
I107
sS'days'
p428
I87
sS'outfits'
p429
I111
sS'thanking'
p430
I111
sS"today's"
p431
I109
sS'soda'
p432
I111
sS'kingdom'
p433
I111
sS'moving'
p434
I109
sS'bratwurst'
p435
I111
sS'(opps'
p436
I111
sS'loud'
p437
I110
sS'bite'
p438
I111
sS'fuckin'
p439
I105
sS'key'
p440
I110
sS'already'
p441
I102
sS'daunting'
p442
I111
sS'grade'
p443
I111
sS'longgggggg'
p444
I111
sS'babies!!!$'
p445
I111
sS'primary'
p446
I111
sS'hearing'
p447
I111
sS'restrict'
p448
I111
sS"ani's"
p449
I111
sS'spinning'
p450
I110
sS'awoke'
p451
I109
sS'comin'
p452
I111
sS'sober'
p453
I111
sS'scissors'
p454
I111
sS'thick'
p455
I111
sS'ditch'
p456
I110
sS'ballin'
p457
I111
sS'hood'
p458
I100
sS'22:42:51.0,33.87303091,-118.1308506,5544.04,should'
p459
I111
sS'lorrrrd'
p460
I111
sS'basketball'
p461
I109
sS'loooove'
p462
I111
sS'top'
p463
I102
sS'me"'
p464
I111
sS'girls'
p465
I107
sS'twisted'
p466
I111
sS'elevator'
p467
I111
sS'fiction'
p468
I111
sS'needed'
p469
I106
sS'jamba'
p470
I104
sS'girll'
p471
I111
sS'dumbass'
p472
I111
sS'too'
p473
I50
sS'nigg'
p474
I111
sS'hollywood'
p475
I111
sS'legs'
p476
I105
sS'dogs'
p477
I111
sS'listen'
p478
I108
sS'murder'
p479
I111
sS'arouuuund'
p480
I111
sS'tooo'
p481
I110
sS'gym'
p482
I110
sS'serve'
p483
I111
sS'took'
p484
I103
sS'trippy'
p485
I110
sS'fuckery'
p486
I111
sS'alondra'
p487
I111
sS'somewhat'
p488
I111
sS'evil'
p489
I111
sS'richhhh'
p490
I111
sS'degreezzz'
p491
I111
sS'crawl'
p492
I111
sS'.dollar'
p493
I111
sS'begins'
p494
I109
sS'distance'
p495
I111
sS'target'
p496
I108
sS'ew'
p497
I101
sS'likely'
p498
I111
sS'shower'
p499
I108
sS'matter'
p500
I108
sS'slackin'
p501
I111
sS'classes'
p502
I109
sS'silly'
p503
I111
sS'misinformed'
p504
I111
sS'historical'
p505
I111
sS'spoiled'
p506
I108
sS'lbcc'
p507
I111
sS'feeling'
p508
I95
sS'lbs'
p509
I111
sS'fashion'
p510
I105
sS'palace'
p511
I108
sS'ran'
p512
I109
sS'boston'
p513
I111
sS'mind'
p514
I104
sS'mine'
p515
I99
sS'anybody'
p516
I110
sS'return'
p517
I111
sS'talking'
p518
I101
sS'rat'
p519
I111
sS'lbusd'
p520
I111
sS'dozed'
p521
I111
sS'rap'
p522
I108
sS'seen'
p523
I102
sS'seem'
p524
I106
sS'mins'
p525
I111
sS'mint'
p526
I111
sS'tells'
p527
I111
sS'ohhhhhhh'
p528
I111
sS'forced'
p529
I111
sS'\xd8\xa7\xd9\x84\xd9\x83\xd9\x84\xd8\xa7\xd8\xa8'
p530
I111
sS'impeccable'
p531
I111
sS'flippin'
p532
I111
sS"she'd"
p533
I111
sS'months..not'
p534
I111
sS'-'
p535
I96
sS"do'"
p536
I110
sS'balling'
p537
I109
sS'chest'
p538
I111
sS'practices'
p539
I111
sS'niece'
p540
I108
sS'brains'
p541
I111
sS'panties'
p542
I107
sS'lanie'
p543
I111
sS'hook'
p544
I111
sS'greatest'
p545
I110
sS"girl's"
p546
I109
sS'nobody'
p547
I102
sS'wrists'
p548
I111
sS'though'
p549
I88
sS'memphis'
p550
I111
sS'proving'
p551
I111
sS'doin'
p552
I108
sS'sue'
p553
I111
sS'posner'
p554
I111
sS'pump\xe2\x9b\xbd\xe2\x9b\xbd\xe2\x9b\xbd'
p555
I111
sS'mouth'
p556
I108
sS'addict'
p557
I111
sS'plenty'
p558
I109
sS'gizzle'
p559
I111
sS'contain'
p560
I111
sS'kellz'
p561
I111
sS'episode'
p562
I110
sS'hoe...hoe'
p563
I111
sS'dom'
p564
I105
sS'medical'
p565
I110
sS'flow'
p566
I110
sS'dog'
p567
I109
sS'doe'
p568
I109
sS'freeway'
p569
I111
sS'psychology'
p570
I111
sS'niether'
p571
I111
sS'definitely'
p572
I106
sS'bums'
p573
I111
sS'pineapple'
p574
I111
sS'screensaver'
p575
I111
sS'section'
p576
I111
sS'came'
p577
I102
sS'kristen'
p578
I111
sS"wearin'"
p579
I111
sS'saying'
p580
I109
sS'cooking'
p581
I111
sS'bomb'
p582
I99
sS'inspire'
p583
I111
sS'pope'
p584
I111
sS'tequila'
p585
I109
sS'queen'
p586
I110
sS'ending'
p587
I110
sS'hunged'
p588
I111
sS'unfollows'
p589
I111
sS'radio'
p590
I111
sS'matters'
p591
I111
sS'maleifua'
p592
I111
sS'earth'
p593
I110
sS'bail'
p594
I110
sS'enjoyed'
p595
I108
sS'd1'
p596
I111
sS'busy'
p597
I108
sS'ayyyy'
p598
I107
sS'menu'
p599
I111
sS'weekends'
p600
I111
sS'bellflower'
p601
I97
sS'bust'
p602
I109
sS'abs'
p603
I111
sS'bliss'
p604
I111
sS'rich'
p605
I101
sS'>boosie'
p606
I111
sS'chipotle'
p607
I111
sS'rice'
p608
I111
sS'smaller'
p609
I111
sS'lacma'
p610
I111
sS'wearing'
p611
I110
sS'do'
p612
I35
sS'claritin'
p613
I111
sS'dm'
p614
I110
sS'10'
p615
I108
sS"'i"
p616
I111
sS'de'
p617
I110
sS'watch'
p618
I98
sS'faggot'
p619
I111
sS'da'
p620
I104
sS'pocket'
p621
I111
sS'watermelon'
p622
I111
sS'despite'
p623
I110
sS'report'
p624
I111
sS'nasty'
p625
I108
sS'ds'
p626
I111
sS'14'
p627
I111
sS'bat'
p628
I111
sS'bar'
p629
I110
sS'greens'
p630
I111
sS'officially'
p631
I106
sS'patch'
p632
I111
sS'twice'
p633
I108
sS'bad'
p634
I85
sS'bae'
p635
I106
sS'disney'
p636
I111
sS'shots'
p637
I110
sS'boring'
p638
I111
sS'release'
p639
I111
sS'steak'
p640
I109
sS'secretary'
p641
I111
sS'witchu'
p642
I111
sS'reread'
p643
I111
sS'fair'
p644
I110
sS'habit'
p645
I111
sS'w/'
p646
I110
sS'liquor'
p647
I111
sS'meg'
p648
I111
sS"d's"
p649
I111
sS'goodnight'
p650
I110
sS'toes'
p651
I111
sS'inna'
p652
I111
sS'fail'
p653
I110
sS'miserable'
p654
I111
sS'best'
p655
I81
sS'victoria'
p656
I111
sS'game&'
p657
I111
sS'said'
p658
I86
sS'draws'
p659
I111
sS'temptation'
p660
I111
sS'becareful'
p661
I111
sS'face-'
p662
I111
sS'away'
p663
I103
sS'irs'
p664
I111
sS'purpose.\xe2\x80\x9d'
p665
I111
sS'cellophane'
p666
I111
sS'grandmother'
p667
I111
sS"18:39:44.0,33.8774345,-118.1284996,5544.04,let's"
p668
I111
sS'stamps'
p669
I111
sS"there's"
p670
I107
sS'finger'
p671
I110
sS'hopefully'
p672
I105
sS'we'
p673
I36
sS'men'
p674
I110
sS'omg'
p675
I91
sS'everythingggg'
p676
I111
sS'dumber'
p677
I111
sS'weak'
p678
I109
sS'ignorance'
p679
I111
sS'boss'
p680
I111
sS'halloween'
p681
I111
sS'04:07:55.0,33.87568826,-118.12526756,5544.04,poor'
p682
I111
sS'wear'
p683
I107
sS'wtf'
p684
I93
sS'wth'
p685
I111
sS'cousin'
p686
I106
sS'improve'
p687
I111
sS"01:04:20.0,33.87711322,-118.1304949,5544.04,i'm"
p688
I111
sS'jkjk'
p689
I111
sS'projectsi'
p690
I111
sS'tfti'
p691
I110
sS'37'
p692
I111
sS'met'
p693
I110
sS'timeeee'
p694
I111
sS'country'
p695
I110
sS'ill'
p696
I86
sS'compton'
p697
I111
sS'*are'
p698
I111
sS'jelly'
p699
I111
sS'against'
p700
I110
sS'una'
p701
I111
sS'cob'
p702
I111
sS'games'
p703
I111
sS'planned'
p704
I111
sS'lookin'
p705
I107
sS'faces'
p706
I111
sS'purple/violet'
p707
I111
sS'buried'
p708
I111
sS'asked'
p709
I105
sS'coo'
p710
I110
sS'ily'
p711
I108
sS'10-12'
p712
I111
sS"priefer's"
p713
I111
sS'accusing'
p714
I111
sS'had'
p715
I81
sS'am\xc3\xa9lie'
p716
I111
sS'2nd'
p717
I109
sS'*kent'
p718
I110
sS'tons'
p719
I111
sS'written'
p720
I111
sS'avianna!"'
p721
I111
sS'trust'
p722
I103
sS'speak'
p723
I108
sS"ain't....to"
p724
I111
sS'copycat'
p725
I111
sS'puts'
p726
I111
sS'"you'
p727
I111
sS'marciano'
p728
I111
sS'three'
p729
I108
sS'been'
p730
I63
sS'quickly'
p731
I109
sS'hahahhaha'
p732
I111
sS'beer'
p733
I111
sS'much'
p734
I76
sS'interest'
p735
I111
sS'lovely'
p736
I111
sS'idol'
p737
I110
sS'threw'
p738
I111
sS'website'
p739
I111
sS'digits'
p740
I111
sS'life'
p741
I61
sS'innocent'
p742
I111
sS'relaxing'
p743
I110
sS'drugs'
p744
I111
sS'naye'
p745
I110
sS'ikr'
p746
I111
sS'sooooo'
p747
I111
sS'bladder'
p748
I111
sS'interviewme'
p749
I111
sS'child'
p750
I110
sS'catch'
p751
I107
sS'worked'
p752
I106
sS'church)'
p753
I111
sS'chill'
p754
I108
sS'mykell'
p755
I110
sS'knock.\xe2\x80\x9d'
p756
I111
sS'has'
p757
I91
sS'tank'
p758
I110
sS',90706\n501258606243635200,aj_mosley20,2014-08-18'
p759
I111
sS'tastes'
p760
I111
sS'air'
p761
I110
sS'swallows'
p762
I111
sS'ugly'
p763
I101
sS'evening'
p764
I110
sS'droppin'
p765
I111
sS'suppose'
p766
I110
sS'teachers'
p767
I111
sS'applies'
p768
I111
sS'cracked'
p769
I110
sS'voice'
p770
I109
sS'leaves'
p771
I111
sS'rent'
p772
I111
sS'lol,90706\n501247655222059008,aj_mosley20,2014-08-18'
p773
I111
sS'existence'
p774
I111
sS'surprises'
p775
I111
sS'metropolitan'
p776
I111
sS'played'
p777
I110
sS'is'
p778
I11
sS'"i'
p779
I109
sS'desto'
p780
I111
sS'ii'
p781
I111
sS'shame'
p782
I108
sS'cant'
p783
I110
sS'im'
p784
I99
sS'experience'
p785
I111
sS'in'
p786
I12
sS'ryback'
p787
I111
sS'nekkid'
p788
I111
sS'ib'
p789
I110
sS'id'
p790
I111
sS'if'
p791
I51
sS'rallys'
p792
I111
sS'bottles'
p793
I107
sS'beemer'
p794
I111
sS'credit'
p795
I111
sS'things'
p796
I103
sS'make'
p797
I72
sS'thanks,90706\n423221100466540544,adyyyloca,2014-01-14'
p798
I111
sS'forehead'
p799
I110
sS'.....it'
p800
I111
sS'complex'
p801
I111
sS'patient'
p802
I111
sS'belly'
p803
I111
sS'babies'
p804
I94
sS'filtered'
p805
I111
sS'puttin'
p806
I111
sS'several'
p807
I110
sS'dhs'
p808
I111
sS'wheel'
p809
I106
sS'meets'
p810
I111
sS'buhlee'
p811
I111
sS'mineeeee'
p812
I111
sS'sings'
p813
I111
sS'changeeee'
p814
I111
sS'social'
p815
I110
sS'hang'
p816
I109
sS'coachella'
p817
I111
sS'rain'
p818
I108
sS'hand'
p819
I109
sS'kik'
p820
I111
sS'kim'
p821
I111
sS'jealous'
p822
I111
sS'nip'
p823
I110
sS'closet'
p824
I111
sS'opportunity'
p825
I111
sS'aka'
p826
I111
sS'thoughts'
p827
I109
sS'kid'
p828
I101
sS'walkie'
p829
I111
sS'kept'
p830
I108
sS'thy'
p831
I111
sS'thx'
p832
I111
sS'min'
p833
I111
sS'yet?\xe2\x80\x9d'
p834
I111
sS'tho'
p835
I81
sS'03:35:00.0,33.8748329,-118.13364654,5544.04,i'
p836
I111
sS'savings'
p837
I110
sS'contact'
p838
I110
sS'11:12'
p839
I111
sS'reese'
p840
I109
sS'goals'
p841
I111
sS'the'
p842
I3
sS'smoked'
p843
I111
sS'yours'
p844
I110
sS'tha'
p845
I111
sS'left'
p846
I104
sS'*this'
p847
I111
sS'opinions'
p848
I111
sS'12-16'
p849
I111
sS'just'
p850
I24
sS'yesterdayyyy'
p851
I111
sS'yea'
p852
I95
sS'photo'
p853
I110
sS'sleepy'
p854
I103
sS'grader'
p855
I111
sS'thanks'
p856
I76
sS'victim'
p857
I110
sS'sweated'
p858
I111
sS'yep'
p859
I105
sS'yes'
p860
I97
sS'yet'
p861
I103
sS'sleepiness'
p862
I111
sS'friendshipsfamily'
p863
I111
sS'wayyyyyy'
p864
I110
sS'eli'
p865
I110
sS'unable'
p866
I111
sS'girrrrl'
p867
I111
sS'character'
p868
I110
sS'shout'
p869
I111
sS'spread'
p870
I110
sS'teenager'
p871
I111
sS'easy'
p872
I107
sS'ellipses'
p873
I111
sS'supervisor'
p874
I111
sS'save'
p875
I108
sS'hat'
p876
I110
sS"they's-a-comin"
p877
I111
sS'gave'
p878
I102
sS'*wishing'
p879
I111
sS'vehicles)'
p880
I109
sS'tear'
p881
I111
sS'capo'
p882
I108
sS'birth'
p883
I110
sS'dreamz'
p884
I111
sS'icantstandfakeniggas'
p885
I111
sS'rumor'
p886
I111
sS'apart'
p887
I111
sS'shoulder'
p888
I109
sS'ninjas'
p889
I83
sS'-_-'
p890
I111
sS'gift'
p891
I110
sS'texts'
p892
I110
sS'55'
p893
I111
sS',90706\n501288276674633728,aj_mosley20,2014-08-18'
p894
I111
sS'zoom'
p895
I111
sS'steph'
p896
I110
sS'brendin'
p897
I110
sS'steps'
p898
I111
sS'overrated'
p899
I111
sS'night'
p900
I90
sS'amor'
p901
I111
sS'response'
p902
I111
sS'siiick'
p903
I111
sS'right'
p904
I71
sS'old'
p905
I93
sS'fuuuuuck'
p906
I111
sS'deal'
p907
I104
sS'people'
p908
I82
sS'tonites'
p909
I111
sS'same.,90706\n501801185511079936,aj_mosley20,2014-08-19'
p910
I111
sS'dead'
p911
I110
sS'wwe'
p912
I111
sS'born'
p913
I111
sS'neva'
p914
I108
sS'dear'
p915
I111
sS'pain'
p916
I109
sS'2hours'
p917
I111
sS'enchiz'
p918
I111
sS'finna'
p919
I110
sS'ain\xe2\x80\x99t'
p920
I111
sS'humor'
p921
I111
sS'trace'
p922
I111
sS'for'
p923
I16
sS'bottom'
p924
I107
sS'purple'
p925
I104
sS'dropping'
p926
I111
sS'normal'
p927
I111
sS'ice'
p928
I107
sS'gpoy'
p929
I111
sS'hodgy'
p930
I111
sS'everything'
p931
I101
sS'fog'
p932
I110
sS'boyfriends...so'
p933
I111
sS'dmv....my'
p934
I111
sS'umm'
p935
I111
sS'foo'
p936
I111
sS'christmas'
p937
I109
sS'kopai'
p938
I111
sS'19:28:53.0,33.87360068,-118.13086758,5544.04,wristband'
p939
I111
sS'deleted'
p940
I111
sS'corn'
p941
I110
sS'burn'
p942
I111
sS'plz'
p943
I110
sS'deadly'
p944
I109
sS'sins'
p945
I111
sS'grindin'
p946
I111
sS"thursday...i'm"
p947
I111
sS'losing'
p948
I110
sS'post'
p949
I108
sS'super'
p950
I109
sS"aniece's"
p951
I111
sS'chapter'
p952
I111
sS"something's"
p953
I110
sS':))\xe2\x80\xa6'
p954
I111
sS'21:26:56.0,33.87359213,-118.13104226,5544.04,dmv'
p955
I111
sS'ribs'
p956
I110
sS'months'
p957
I110
sS'cliche'
p958
I110
sS'plus'
p959
I110
sS'afternoon'
p960
I111
sS'donuts'
p961
I111
sS'eight'
p962
I111
sS'curry'
p963
I111
sS'18:26:12.0,33.87253279,-118.13046268,5544.04,at'
p964
I111
sS'match'
p965
I110
sS'nerve'
p966
I110
sS'raised'
p967
I110
sS'sob'
p968
I111
sS'whats'
p969
I107
sS'sheets'
p970
I111
sS'reaping'
p971
I111
sS'pays'
p972
I110
sS'farrrr'
p973
I111
sS'married'
p974
I111
sS'bound'
p975
I108
sS'soo'
p976
I110
sS'bath'
p977
I108
sS'down'
p978
I84
sS'lies'
p979
I109
sS'annoying!-___-,90706\n503047153493999617,allycollette143,2014-08-23'
p980
I111
sS'explain'
p981
I111
sS"society's"
p982
I111
sS'bitting'
p983
I111
sS'amsterdam'
p984
I111
sS'rounds'
p985
I111
sS',90706\n438787161618259969,los_burritos77,2014-02-26'
p986
I111
sS'east'
p987
I111
sS'git'
p988
I111
sS'dnt'
p989
I111
sS'support'
p990
I106
sS'tennis'
p991
I111
sS"1's"
p992
I111
sS'seinfield'
p993
I110
sS'fight'
p994
I108
sS'stuck'
p995
I106
sS'*splits'
p996
I111
sS'waz'
p997
I111
sS'way'
p998
I70
sS'triplets'
p999
I111
sS'pipe'
p1000
I111
sS'music'
p1001
I103
sS'icon'
p1002
I111
sS'was'
p1003
I28
sS'war'
p1004
I111
sS'happy'
p1005
I72
sS'head'
p1006
I98
sS'yolo'
p1007
I110
sS'*sends'
p1008
I111
sS'batman'
p1009
I111
sS'heal'
p1010
I111
sS'fireworks'
p1011
I111
sS'truu'
p1012
I111
sS'freeeeeeee'
p1013
I111
sS'grrrrrrr'
p1014
I111
sS'fallforavi'
p1015
I111
sS'shits'
p1016
I110
sS'heat'
p1017
I110
sS'hear'
p1018
I108
sS'true'
p1019
I103
sS'congratulations'
p1020
I111
sS'responding'
p1021
I111
sS'adults'
p1022
I111
sS'liyah'
p1023
I111
sS'inside'
p1024
I108
sS'enjoyable'
p1025
I111
sS'tell'
p1026
I86
sS'retire'
p1027
I111
sS'adore'
p1028
I111
sS'booo'
p1029
I111
sS'daddy'
p1030
I107
sS'delete'
p1031
I107
sS'kousins'
p1032
I108
sS'proud'
p1033
I109
sS'hotter'
p1034
I111
sS'flat'
p1035
I111
sS'cop'
p1036
I111
sS'drive'
p1037
I105
sS'sometime'
p1038
I110
sS'exist'
p1039
I111
sS'promised'
p1040
I111
sS'prayer'
p1041
I111
sS'emoji\xe2\x80\x9d'
p1042
I111
sS'shines'
p1043
I111
sS'annoying'
p1044
I108
sS'check'
p1045
I104
sS'shit'
p1046
I50
sS'holla'
p1047
I111
sS'lapalux>'
p1048
I111
sS'landon'
p1049
I111
sS'no'
p1050
I39
sS'ends'
p1051
I111
sS'na'
p1052
I110
sS'when'
p1053
I37
sS'handed'
p1054
I111
sS'reality'
p1055
I109
sS'til'
p1056
I104
sS'tooooo'
p1057
I111
sS'dawgs'
p1058
I111
sS'role'
p1059
I111
sS'holding'
p1060
I109
sS'papers'
p1061
I110
sS'test'
p1062
I103
sS'smell'
p1063
I111
sS'roll'
p1064
I110
sS'realize'
p1065
I109
sS'meeeee'
p1066
I109
sS'picture'
p1067
I111
sS'brothers'
p1068
I110
sS"o'clock"
p1069
I109
sS'surprise'
p1070
I111
sS'besty'
p1071
I111
sS'felt'
p1072
I109
sS'2days'
p1073
I111
sS"let's"
p1074
I108
sS'fell'
p1075
I107
sS'cup'
p1076
I111
sS'award'
p1077
I111
sS'sistas'
p1078
I110
sS'snooze'
p1079
I111
sS'pierced'
p1080
I111
sS'weekend'
p1081
I103
sS'died'
p1082
I110
sS'billion'
p1083
I111
sS'instrumental'
p1084
I111
sS'younger'
p1085
I111
sS'longer'
p1086
I111
sS'glass'
p1087
I110
sS'ryder'
p1088
I106
sS'daily'
p1089
I109
sS'jacket'
p1090
I111
sS"up...i'm"
p1091
I111
sS'loyal'
p1092
I110
sS'songz'
p1093
I111
sS'time'
p1094
I45
sS'babyyy'
p1095
I111
sS'serious'
p1096
I104
sS'surprised'
p1097
I111
sS'dust'
p1098
I111
sS'finga'
p1099
I111
sS'songs'
p1100
I109
sS'neighbors'
p1101
I109
sS'gown'
p1102
I111
sS':/'
p1103
I111
sS':('
p1104
I101
sS':)'
p1105
I108
sS'chain'
p1106
I111
sS'switched'
p1107
I111
sS'dance'
p1108
I111
sS'skip'
p1109
I111
sS'rob'
p1110
I111
sS'activated'
p1111
I111
sS'focus'
p1112
I107
sS'rootaaionnnnnn'
p1113
I111
sS'manager'
p1114
I111
sS'ghonna'
p1115
I111
sS'/'
p1116
I111
sS'grateful'
p1117
I101
sS'hole'
p1118
I111
sS'row'
p1119
I111
sS'21st'
p1120
I110
sS'birthdayyyyy'
p1121
I111
sS'baller'
p1122
I111
sS'zone'
p1123
I111
sS'flash'
p1124
I111
sS'father'
p1125
I111
sS'rel'
p1126
I111
sS'countdown'
p1127
I111
sS'06:45:39.0,33.8737833,-118.1266341,5544.04,my'
p1128
I111
sS'finally'
p1129
I83
sS'asking'
p1130
I108
sS'supplies'
p1131
I111
sS'one)'
p1132
I111
sS'ride'
p1133
I108
sS'me'
p1134
I10
sS'supported'
p1135
I111
sS'\xe2\x9a\xbe\xef\xb8\x8f'
p1136
I111
sS'trident'
p1137
I111
sS'dez'
p1138
I111
sS'farrr'
p1139
I111
sS'tacos'
p1140
I111
sS'vegas'
p1141
I111
sS'stays'
p1142
I109
sS'word'
p1143
I106
sS'exact'
p1144
I111
sS'minute'
p1145
I108
sS'cool'
p1146
I95
sS'dating'
p1147
I111
sS'looney'
p1148
I111
sS'lohan'
p1149
I109
sS'level'
p1150
I108
sS'did'
p1151
I66
sS'die'
p1152
I107
sS'philippines'
p1153
I111
sS'dig'
p1154
I111
sS'brother'
p1155
I103
sS'turnt'
p1156
I110
sS'leave'
p1157
I105
sS'p'
p1158
I108
sS'soooo'
p1159
I109
sS'subway'
p1160
I110
sS'team'
p1161
I109
sS'quick'
p1162
I109
sS'guy'
p1163
I96
sS'dip'
p1164
I111
sS'setup'
p1165
I111
sS'yall'
p1166
I104
sS"it'll"
p1167
I110
sS'epar'
p1168
I111
sS'talked'
p1169
I110
sS'says'
p1170
I108
sS'regret'
p1171
I111
sS'.si'
p1172
I111
sS'trend'
p1173
I105
sS'dealing'
p1174
I107
sS'meauli'
p1175
I111
sS'discover'
p1176
I111
sS'sign'
p1177
I108
sS'invaded'
p1178
I111
sS'shirts'
p1179
I111
sS'run'
p1180
I103
sS'migraines'
p1181
I111
sS'port'
p1182
I110
sS'drinks'
p1183
I111
sS'ex-texans'
p1184
I111
sS'stressful'
p1185
I111
sS'kid..the'
p1186
I111
sS'celebrated'
p1187
I110
sS'papa'
p1188
I111
sS'4:00'
p1189
I111
sS'melt'
p1190
I111
sS'current'
p1191
I111
sS'skyzone'
p1192
I111
sS'suspect'
p1193
I111
sS'aux'
p1194
I111
sS'goes'
p1195
I102
sS'eaten'
p1196
I111
sS'reply'
p1197
I109
sS"freakin'"
p1198
I111
sS'ummmm'
p1199
I111
sS'filled'
p1200
I109
sS'hummer'
p1201
I111
sS'pose'
p1202
I111
sS'19:13:07.0,33.87620845,-118.12959219,5544.04,starbucks'
p1203
I111
sS'hairs'
p1204
I111
sS'henry'
p1205
I111
sS',90706\n513759729467011073,aaronraheem,2014-09-21'
p1206
I111
sS'french'
p1207
I111
sS'karams'
p1208
I111
sS'water'
p1209
I106
sS'presley*'
p1210
I111
sS"ricci's"
p1211
I109
sS'alone'
p1212
I104
sS"concert's"
p1213
I111
sS'along'
p1214
I110
sS'hoops'
p1215
I111
sS'teacher'
p1216
I111
sS'change'
p1217
I107
sS'wait'
p1218
I82
sS'boy'
p1219
I92
sS'incoming'
p1220
I111
sS'noticeable'
p1221
I111
sS'bop'
p1222
I110
sS'shift'
p1223
I110
sS'fsho'
p1224
I111
sS'woop'
p1225
I111
sS'awk'
p1226
I111
sS'exams'
p1227
I111
sS'boo'
p1228
I103
sS'usually'
p1229
I110
sS'weird'
p1230
I106
sS'\xd8\xa7\xd9\x84\xd8\xb5\xd9\x88\xd8\xb1\xd9\x87'
p1231
I111
sS'pillow'
p1232
I111
sS'up\xe2\x80\x9dayyy'
p1233
I111
sS'footlocker'
p1234
I111
sS'love'
p1235
I38
sS'22:36:00.0,33.87353932,-118.13102298,5544.04,u'
p1236
I111
sS'extra'
p1237
I108
sS'simplethings>'
p1238
I111
sS'smoothay'
p1239
I111
sS'ipo'
p1240
I111
sS'graduated'
p1241
I111
sS'patriots'
p1242
I111
sS'fake'
p1243
I109
sS'bombbbbbbbbbbb'
p1244
I111
sS'rarely'
p1245
I111
sS'sky'
p1246
I111
sS'everybody'
p1247
I103
sS'franco'
p1248
I111
sS'working'
p1249
I101
sS'prove'
p1250
I111
sS'aye'
p1251
I111
sS'20:35:42.0,33.8766745,-118.1260336,5544.04,so'
p1252
I111
sS'dude'
p1253
I95
sS'only'
p1254
I79
sS'30%'
p1255
I111
sS'nrake'
p1256
I111
sS'live'
p1257
I99
sS'jam'
p1258
I110
sS'ayy'
p1259
I111
sS'iphone'
p1260
I110
sS'wondering'
p1261
I108
sS'ahhh'
p1262
I111
sS'lightskinned'
p1263
I111
sS'thru'
p1264
I110
sS'angels'
p1265
I111
sS'today'
p1266
I92
sS'loving'
p1267
I110
sS'=$1550'
p1268
I111
sS'extensive'
p1269
I111
sS'freestyle'
p1270
I108
sS'\xd8\xaa\xd8\xb3\xd9\x8a\xd8\xb1'
p1271
I111
sS'chocolate'
p1272
I110
sS'listenin'
p1273
I111
sS'everywhere'
p1274
I110
sS'olive'
p1275
I111
sS'party!but'
p1276
I111
sS'fly'
p1277
I109
sS'wouldnt'
p1278
I111
sS"workin'"
p1279
I110
sS'niggas'
p1280
I101
sS'car'
p1281
I98
sS'pretend'
p1282
I111
sS'soul'
p1283
I110
sS'niggaz'
p1284
I110
sS'cat'
p1285
I111
sS'hardest'
p1286
I111
sS'homie'
p1287
I111
sS'drags'
p1288
I111
sS'can'
p1289
I51
sS'kendrick'
p1290
I110
sS'following'
p1291
I106
sS'making'
p1292
I104
sS'funnnn'
p1293
I111
sS'niggah'
p1294
I107
sS'breeds'
p1295
I111
sS'heart'
p1296
I102
sS'crazy'
p1297
I94
sS'valentines'
p1298
I111
sS'fucc'
p1299
I111
sS'figure'
p1300
I111
sS'frogs'
p1301
I111
sS'december'
p1302
I111
sS'awesome'
p1303
I110
sS"didn't"
p1304
I91
sS'fuck'
p1305
I79
sS'heard'
p1306
I104
sS'fuct'
p1307
I111
sS'celsius'
p1308
I111
sS'posing'
p1309
I110
sS'hakeem'
p1310
I110
sS'allowed'
p1311
I111
sS'mmmmmm'
p1312
I111
sS'barbershop'
p1313
I111
sS'counting'
p1314
I111
sS'stole'
p1315
I111
sS'pink'
p1316
I110
sS'awwww'
p1317
I111
sS'reece'
p1318
I111
sS'steve'
p1319
I111
sS'watching'
p1320
I103
sS'dinner'
p1321
I108
sS'write'
p1322
I110
sS'till'
p1323
I110
sS'sunday'
p1324
I105
sS'vital'
p1325
I111
sS'calling...quote'
p1326
I111
sS'pure'
p1327
I111
sS'sworn'
p1328
I111
sS'wooooow'
p1329
I111
sS'like?"'
p1330
I111
sS'community'
p1331
I111
sS'staying'
p1332
I110
sS'leavin'
p1333
I111
sS'laundry'
p1334
I111
sS'may'
p1335
I109
sS'max'
p1336
I111
sS'cuhz'
p1337
I110
sS'spot'
p1338
I111
sS'a$ap,90706\n451847113433837568,allycollette143,2014-04-03'
p1339
I111
sS'applications'
p1340
I111
sS'mac'
p1341
I109
sS'birthday'
p1342
I77
sS'mad'
p1343
I84
sS'mag'
p1344
I111
sS'3phones'
p1345
I111
sS'date'
p1346
I108
sS'such'
p1347
I110
sS'suck'
p1348
I111
sS'guys'
p1349
I107
sS'grow'
p1350
I110
sS'man'
p1351
I78
sS'assley'
p1352
I111
sS'stress'
p1353
I109
sS"hey...you're"
p1354
I111
sS'vehicle'
p1355
I111
sS'remember'
p1356
I101
sS'liquid'
p1357
I109
sS'mayweather'
p1358
I110
sS'whenever'
p1359
I111
sS'maybe'
p1360
I107
sS'hood?\xe2\x80\x9d'
p1361
I111
sS'nosey'
p1362
I111
sS'fluent'
p1363
I111
sS'switch'
p1364
I109
sS'tamera'
p1365
I111
sS'so'
p1366
I19
sS'sn'
p1367
I111
sS'african'
p1368
I110
sS'sc'
p1369
I111
sS'tall'
p1370
I111
sS'ida'
p1371
I111
sS'pulled'
p1372
I108
sS'talk'
p1373
I88
sS'typical'
p1374
I110
sS'refund'
p1375
I111
sS'cute'
p1376
I103
sS'breaking'
p1377
I111
sS'shoes'
p1378
I109
sS'in-class'
p1379
I111
sS'wishing'
p1380
I111
sS'mbn'
p1381
I111
sS'years'
p1382
I107
sS'course'
p1383
I110
sS'episodes'
p1384
I111
sS'aha'
p1385
I111
sS'00:15:25.0,33.87676652,-118.13256542,5544.04,not'
p1386
I111
sS',90706\n501601969635471360,aj_mosley20,2014-08-19'
p1387
I111
sS'shake'
p1388
I109
sS'cold'
p1389
I103
sS'still'
p1390
I68
sS'mom,90706\n336648622525538304,samhithab,2013-05-21'
p1391
I111
sS'tavie'
p1392
I111
sS'blocked'
p1393
I109
sS'dielcie'
p1394
I111
sS'2\xe2\x83\xa35\xe2\x83\xa3'
p1395
I111
sS'accepted'
p1396
I111
sS'swank'
p1397
I111
sS'group'
p1398
I107
sS'thank'
p1399
I64
sS'puffs'
p1400
I111
sS"he's"
p1401
I103
sS'selves'
p1402
I111
sS'thang'
p1403
I103
sS'amazing'
p1404
I109
sS'yams'
p1405
I111
sS'lyin'
p1406
I111
sS"lynch's"
p1407
I111
sS'vein>'
p1408
I111
sS'gtv'
p1409
I109
sS'crafty'
p1410
I111
sS'tweets'
p1411
I107
sS'mail'
p1412
I110
sS'twin\xe2\x80\x9d'
p1413
I111
sS'main'
p1414
I110
sS'into'
p1415
I101
sS'kabobs'
p1416
I111
sS'happened'
p1417
I110
sS'8th-12th'
p1418
I111
sS'furrrr'
p1419
I111
sS'non'
p1420
I109
sS'lonely'
p1421
I111
sS'gassing'
p1422
I111
sS'tucked'
p1423
I111
sS'3'
p1424
I99
sS'moms'
p1425
I110
sS'bein'
p1426
I111
sS'killer'
p1427
I110
sS'sooner'
p1428
I111
sS'feelin'
p1429
I110
sS'lunch'
p1430
I110
sS'myfair'
p1431
I111
sS'cheetah'
p1432
I110
sS'not'
p1433
I27
sS'now'
p1434
I41
sS'ahaha'
p1435
I110
sS'killed'
p1436
I110
sS'nor'
p1437
I111
sS'josh'
p1438
I111
sS'wont'
p1439
I111
sS'tweet*'
p1440
I111
sS'term'
p1441
I110
sS'name'
p1442
I99
sS'realist'
p1443
I110
sS'james'
p1444
I110
sS'drop'
p1445
I107
sS'woooooosah'
p1446
I111
sS'awwwwwwww'
p1447
I111
sS'01:48:42.0,33.8762762,-118.1335665,5544.04,so'
p1448
I111
sS'rock'
p1449
I109
sS'injury'
p1450
I111
sS'photoshoot'
p1451
I111
sS'em'
p1452
I108
sS'knowwww'
p1453
I110
sS'en'
p1454
I111
sS'lowkey'
p1455
I98
sS'qvc'
p1456
I111
sS'ed'
p1457
I107
sS'twatching'
p1458
I109
sS'communication'
p1459
I111
sS'yeah'
p1460
I104
sS'fallin'
p1461
I110
sS'catching'
p1462
I109
sS'ex'
p1463
I111
sS'lennart'
p1464
I111
sS'year'
p1465
I94
sS'okay'
p1466
I110
sS'girl'
p1467
I78
sS'worried'
p1468
I109
sS'sunrise'
p1469
I111
sS'plans'
p1470
I110
sS'album'
p1471
I109
sS'living'
p1472
I109
sS'and\xe2\x80\xa6'
p1473
I111
sS'3rd'
p1474
I111
sS'space'
p1475
I111
sS'whatthefuck'
p1476
I111
sS'ugly.\xe2\x80\x9d'
p1477
I111
sS'thirst'
p1478
I111
sS'looking'
p1479
I102
sS'bday'
p1480
I108
sS'seriously'
p1481
I110
sS'miles'
p1482
I110
sS'bugging'
p1483
I111
sS'correct'
p1484
I111
sS'smfh'
p1485
I110
sS'after'
p1486
I89
sS'hula'
p1487
I111
sS'million'
p1488
I110
sS'quite'
p1489
I110
sS'disrespect'
p1490
I111
sS'unwanted'
p1491
I111
sS'inviting'
p1492
I111
sS'besides'
p1493
I109
sS'ohio'
p1494
I111
sS'though..lol'
p1495
I111
sS'15weeks'
p1496
I111
sS'23:53:15.0,33.8780601,-118.1275052,5544.04,i'
p1497
I111
sS'saint'
p1498
I111
sS'card'
p1499
I108
sS'care'
p1500
I104
sS'thoughhh'
p1501
I111
sS'suenos.good'
p1502
I111
sS'on\xe2\x80\x9dnigga'
p1503
I111
sS'thanks;)'
p1504
I111
sS'deck'
p1505
I111
sS'yup'
p1506
I109
sS'100%'
p1507
I111
sS'punk'
p1508
I111
sS'gusto'
p1509
I111
sS'worrying'
p1510
I111
sS'motion'
p1511
I110
sS'turn'
p1512
I95
sS'place'
p1513
I108
sS'gordon'
p1514
I111
sS'swing'
p1515
I105
sS'candell'
p1516
I111
sS"digit's,90706\n501281567503708160,aj_mosley20,2014-08-18"
p1517
I111
sS'sho'
p1518
I110
sS"buggin'"
p1519
I111
sS'think'
p1520
I85
sS'waited'
p1521
I111
sS'first'
p1522
I98
sS'blind'
p1523
I111
sS'cheese'
p1524
I110
sS'flying'
p1525
I111
sS'saving'
p1526
I110
sS'visit.,90706\n501919701627191296,aj_mosley20,2014-08-20'
p1527
I111
sS'coming'
p1528
I106
sS'nutritional'
p1529
I111
sS'xd'
p1530
I111
sS'yourself'
p1531
I109
sS'your\xe2\x80\xa6'
p1532
I111
sS'reopen'
p1533
I111
sS'twinkie'
p1534
I111
sS'fast'
p1535
I108
sS'tenia'
p1536
I111
sS'carry'
p1537
I111
sS'impossible'
p1538
I108
sS'sounds'
p1539
I106
sS'drove'
p1540
I111
sS'open'
p1541
I108
sS'tomorrow'
p1542
I92
sS'size'
p1543
I110
sS'city'
p1544
I106
sS'given'
p1545
I108
sS'boulevard'
p1546
I111
sS'checked'
p1547
I111
sS'silent'
p1548
I111
sS'arch'
p1549
I111
sS'caught'
p1550
I111
sS'slept'
p1551
I109
sS'bruhh\xe2\x80\x9d'
p1552
I111
sS't'
p1553
I110
sS'anyone'
p1554
I106
sS'2'
p1555
I99
sS'sheee'
p1556
I111
sS'typing'
p1557
I110
sS'legally'
p1558
I111
sS'white'
p1559
I110
sS'3-game'
p1560
I111
sS'puddle'
p1561
I111
sS'friend'
p1562
I101
sS'gives'
p1563
I111
sS'deziree'
p1564
I111
sS'eyes'
p1565
I109
sS'!,90706\n496424454726356994,los_burritos77,2014-08-04'
p1566
I111
sS'that'
p1567
I13
sS'season'
p1568
I109
sS'hun'
p1569
I111
sS'suit'
p1570
I110
sS'huh'
p1571
I107
sS'butt'
p1572
I109
sS'x2'
p1573
I111
sS'eliminated'
p1574
I111
sS'copy'
p1575
I111
sS'than'
p1576
I87
sS"here's"
p1577
I110
sS'boyfriend'
p1578
I108
sS'babyyyyyy'
p1579
I111
sS'wide'
p1580
I105
sS'15'
p1581
I108
sS'lmao'
p1582
I104
sS'17'
p1583
I111
sS'16'
p1584
I111
sS'mannnn'
p1585
I109
sS'18'
p1586
I107
sS'gotta'
p1587
I96
sS'rehab'
p1588
I110
sS'r'
p1589
I104
sS'crips'
p1590
I111
sS'were'
p1591
I101
sS'cards'
p1592
I111
sS'college'
p1593
I107
sS'marines'
p1594
I111
sS'counselor'
p1595
I111
sS'roosta'
p1596
I111
sS'damned'
p1597
I111
sS'and'
p1598
I6
sS'lick'
p1599
I110
sS'san'
p1600
I111
sS'awnz'
p1601
I111
sS'pro'
p1602
I111
sS'parking'
p1603
I110
sS'turned'
p1604
I109
sS'ani'
p1605
I106
sS'busco'
p1606
I111
sS'sad'
p1607
I105
sS'woah'
p1608
I111
sS'say'
p1609
I79
sS'dugay'
p1610
I111
sS'bathed'
p1611
I110
sS'anger'
p1612
I111
sS'breakfast'
p1613
I108
sS'saw'
p1614
I107
sS'any'
p1615
I109
sS'batting'
p1616
I108
sS'sat'
p1617
I111
sS'gem..now'
p1618
I111
sS'$350'
p1619
I111
sS'inches'
p1620
I111
sS'wcw'
p1621
I110
sS'aside'
p1622
I111
sS"premie's"
p1623
I111
sS'omfg'
p1624
I111
sS'squad'
p1625
I111
sS'take'
p1626
I78
sS'online'
p1627
I110
sS'wanting'
p1628
I109
sS'blunt'
p1629
I111
sS'switching'
p1630
I111
sS'channel'
p1631
I111
sS'begin'
p1632
I111
sS'sure'
p1633
I93
sS'multiple'
p1634
I110
sS'wooow'
p1635
I111
sS'opposite'
p1636
I111
sS"beyonce's"
p1637
I111
sS'bitches...named'
p1638
I111
sS'knew'
p1639
I108
sS"18..you're"
p1640
I111
sS'paid'
p1641
I107
sS'netflix'
p1642
I111
sS'boiling'
p1643
I111
sS'barrage'
p1644
I111
sS'voice*'
p1645
I108
sS'freshman'
p1646
I110
sS'knee'
p1647
I111
sS'america'
p1648
I111
sS'pages'
p1649
I111
sS',90706\n447616161023156225,christianesp_,2014-03-23'
p1650
I111
sS'forever'
p1651
I92
sS'especially'
p1652
I108
sS'notifications'
p1653
I111
sS'considered'
p1654
I111
sS'bangin'
p1655
I111
sS'average'
p1656
I111
sS'later'
p1657
I104
sS'girljuslemmeknowwusgood'
p1658
I111
sS'hungry'
p1659
I107
sS'\xd9\x85\xd8\xb3\xd8\xad\xd8\xaa'
p1660
I111
sS'mrs'
p1661
I110
sS'24/7'
p1662
I111
sS'larry'
p1663
I111
sS'slaves'
p1664
I111
sS'\xd8\xa7\xd9\x84\xd8\xad\xd9\x85\xd8\xaf\xd9\x84\xd9\x84\xd9\x87'
p1665
I111
sS'senior'
p1666
I110
sS'wine'
p1667
I111
sS'period"'
p1668
I111
sS'nightmare'
p1669
I111
sS'shop'
p1670
I103
sS'walking'
p1671
I108
sS'shot'
p1672
I111
sS'\xe2\x9c\xa8'
p1673
I110
sS'show'
p1674
I101
sS'sheeee'
p1675
I111
sS'cheap'
p1676
I110
sS'hotta'
p1677
I111
sS"18:36:51.0,33.8738543,-118.1267601,5544.04,i'm"
p1678
I111
sS'flaca'
p1679
I111
sS'shoe'
p1680
I106
sS'pump'
p1681
I111
sS'repierced'
p1682
I111
sS'ca'
p1683
I111
sS'deposit'
p1684
I111
sS'ground'
p1685
I107
sS'aint'
p1686
I110
sS'\xe2\x9c\x8c'
p1687
I111
sS'slow'
p1688
I110
sS'title'
p1689
I110
sS'snapchat?\xe2\x80\x9d'
p1690
I111
sS'dick'
p1691
I105
sS'enough'
p1692
I104
sS'crime'
p1693
I111
sS'tears'
p1694
I105
sS'going'
p1695
I82
sS'black'
p1696
I102
sS'slob'
p1697
I111
sS',90706\n451126425404198913,jillthompp,2014-04-01'
p1698
I111
sS'\xe2\x9c\x94'
p1699
I111
sS'peeped'
p1700
I111
sS'pumpkin'
p1701
I111
sS'presbyterian'
p1702
I111
sS'get'
p1703
I31
sS'lapalux'
p1704
I111
sS'$5'
p1705
I111
sS'diamonds'
p1706
I110
sS'freezing'
p1707
I111
sS'truly'
p1708
I109
sS'funny/cute'
p1709
I111
sS'cannot'
p1710
I111
sS'outlet'
p1711
I111
sS'lighter'
p1712
I111
sS'cryin'
p1713
I111
sS'dye'
p1714
I109
sS'whaaat'
p1715
I110
sS'gem'
p1716
I110
sS'freaking'
p1717
I110
sS'tonight?"rickys'
p1718
I111
sS'morning'
p1719
I92
sS'yayyyy'
p1720
I110
sS'stupid'
p1721
I104
sS'worries'
p1722
I110
sS'finishing'
p1723
I111
sS'bought'
p1724
I105
sS'where'
p1725
I92
sS'kylah'
p1726
I107
sS'-booise'
p1727
I111
sS"y'all"
p1728
I95
sS'concert'
p1729
I111
sS'often'
p1730
I111
sS'burst'
p1731
I111
sS'physically'
p1732
I111
sS'committed'
p1733
I111
sS'notice'
p1734
I111
sS'seat'
p1735
I111
sS'd\xc3\xa9j\xc3\xa0vu'
p1736
I111
sS'asleep'
p1737
I109
sS'anyways'
p1738
I110
sS'sandow'
p1739
I111
sS'hoes'
p1740
I105
sS'surgery'
p1741
I110
sS'ruined'
p1742
I111
sS'stepson'
p1743
I111
sS'hoez'
p1744
I111
sS'wonder'
p1745
I104
sS'suspect,90706\n501623369653956608,aj_mosley20,2014-08-19'
p1746
I111
sS'fails'
p1747
I111
sS'ways'
p1748
I107
sS'opening'
p1749
I111
sS'sites'
p1750
I111
sS'ignorant'
p1751
I111
sS'"is'
p1752
I111
sS'90703'
p1753
I111
sS'outside'
p1754
I107
sS'between'
p1755
I109
sS'it'
p1756
I15
sS'nicest'
p1757
I111
sS'reading'
p1758
I109
sS'checks'
p1759
I108
sS'whipped'
p1760
I109
sS'aslot'
p1761
I111
sS'yearningfor'
p1762
I111
sS'turn-on'
p1763
I111
sS'jobs'
p1764
I110
sS'august'
p1765
I108
sS'parent'
p1766
I110
sS'kool'
p1767
I111
sS'screen'
p1768
I109
sS'jp'
p1769
I111
sS'killing'
p1770
I107
sS'subtweeted'
p1771
I111
sS'somethingggg'
p1772
I111
sS'concentrate'
p1773
I111
sS'awards'
p1774
I111
sS'hurts'
p1775
I108
sS'come'
p1776
I86
sS'jb'
p1777
I111
sS'blame'
p1778
I111
sS'dates'
p1779
I111
sS'mans'
p1780
I111
sS'dominque'
p1781
I111
sS'sitonmymink'
p1782
I111
sS'"because'
p1783
I111
sS'many'
p1784
I102
sS'stupidest'
p1785
I111
sS'tonighhhht'
p1786
I111
sS'millionaire'
p1787
I111
sS'scoo'
p1788
I111
sS'4:20'
p1789
I111
sS'mane'
p1790
I111
sS'"sorry."'
p1791
I111
sS"can't"
p1792
I56
sS'merry'
p1793
I110
sS'color'
p1794
I111
sS'beyonce'
p1795
I111
sS'avianna'
p1796
I107
sS'jeans'
p1797
I111
sS'period'
p1798
I110
sS'football'
p1799
I111
sS'nooooo'
p1800
I110
sS'twin'
p1801
I105
sS'stretched'
p1802
I111
sS'learning'
p1803
I109
sS'polo'
p1804
I111
sS'disliking'
p1805
I111
sS'writing'
p1806
I111
sS'brats'
p1807
I111
sS'caring'
p1808
I110
sS'arts'
p1809
I111
sS'lifes'
p1810
I111
sS'cares'
p1811
I110
sS'west'
p1812
I110
sS'vacation'
p1813
I111
sS'mark'
p1814
I111
sS'breath'
p1815
I109
sS'gutom'
p1816
I111
sS'peaceful'
p1817
I110
sS'sesh'
p1818
I111
sS'mary'
p1819
I111
sS'ruining'
p1820
I111
sS'wants'
p1821
I107
sS'educated'
p1822
I111
sS'shopping'
p1823
I102
sS'graveyard'
p1824
I111
sS'busting'
p1825
I111
sS'blessing'
p1826
I108
sS'walmart'
p1827
I111
sS'wounds'
p1828
I111
sS"baby's"
p1829
I111
sS'asf.,90706\n501803149552664577,aj_mosley20,2014-08-19'
p1830
I111
sS'language'
p1831
I111
sS'dramatic'
p1832
I111
sS'wake'
p1833
I99
sS'bmw'
p1834
I111
sS'yoomp'
p1835
I111
sS'halal'
p1836
I111
sS'hardcore'
p1837
I111
sS'evidence'
p1838
I111
sS'irrelevant'
p1839
I110
sS'argentina'
p1840
I111
sS'those'
p1841
I96
sS'granted'
p1842
I111
sS'paying'
p1843
I109
sS'myself'
p1844
I96
sS'these'
p1845
I75
sS'straighten'
p1846
I111
sS'resturant'
p1847
I109
sS'trick'
p1848
I111
sS'guessed'
p1849
I111
sS'ratchet'
p1850
I107
sS'_a'
p1851
I111
sS'cancelled'
p1852
I111
sS'situation'
p1853
I111
sS'idea,90706\n444604598045528065,_katykate,2014-03-14'
p1854
I111
sS'invited'
p1855
I110
sS'hapoen'
p1856
I111
sS',90706\n497086630692667392,los_burritos77,2014-08-06'
p1857
I111
sS'mhmmm'
p1858
I111
sS'bathrooms'
p1859
I111
sS'fatso'
p1860
I110
sS"boy's"
p1861
I111
sS'sleeping'
p1862
I110
sS'100th'
p1863
I111
sS'blah'
p1864
I109
sS'someone'
p1865
I98
sS'redying'
p1866
I111
sS'baths'
p1867
I111
sS'heels'
p1868
I111
sS'curtis'
p1869
I111
sS'property'
p1870
I111
sS'everyday'
p1871
I106
sS'worry'
p1872
I109
sS'bags'
p1873
I111
sS'intense'
p1874
I111
sS'yet..you'
p1875
I111
sS'scalloped'
p1876
I111
sS'disrespectful'
p1877
I111
sS'paw'
p1878
I110
sS'pay'
p1879
I98
sS'thinkin'
p1880
I110
sS'bowl'
p1881
I110
sS'same'
p1882
I75
sS'trip'
p1883
I108
sS'food'
p1884
I105
sS'pac'
p1885
I111
sS'followers'
p1886
I110
sS'lite'
p1887
I108
sS'that..but'
p1888
I111
sS'emojis'
p1889
I110
sS'lita'
p1890
I111
sS'unemployed'
p1891
I111
sS'disappointment'
p1892
I111
sS'week'
p1893
I96
sS'askin'
p1894
I108
sS'screenshot'
p1895
I111
sS'it"'
p1896
I111
sS'weed'
p1897
I108
sS'running'
p1898
I111
sS'bpg'
p1899
I111
sS'favorites'
p1900
I111
sS'rame'
p1901
I111
sS'(morgan)'
p1902
I111
sS'totally'
p1903
I107
sS'vowed'
p1904
I111
sS'fuuuuuuck'
p1905
I110
sS'mohawk'
p1906
I111
sS'nad'
p1907
I111
sS'charger'
p1908
I110
sS'ranch'
p1909
I110
sS'nothin'
p1910
I111
sS'"how'
p1911
I110
sS'severe'
p1912
I111
sS'without'
p1913
I107
sS'allow'
p1914
I111
sS'comes'
p1915
I105
sS'bottle'
p1916
I106
sS'very'
p1917
I101
sS'bumping'
p1918
I111
sS'dimension'
p1919
I110
sS'justify'
p1920
I111
sS'summer'
p1921
I107
sS'20:44:35.0,33.8766745,-118.1260336,5544.04,take'
p1922
I111
sS'\xe2\x98\xba\xef\xb8\x8f'
p1923
I105
sS'noah'
p1924
I111
sS'being'
p1925
I93
sS'money'
p1926
I85
sS'animalllll'
p1927
I111
sS"dm'd"
p1928
I111
sS'rest'
p1929
I96
sS'recycled'
p1930
I111
sS'kill'
p1931
I106
sS'wifey'
p1932
I111
sS'kilo'
p1933
I111
sS'n'
p1934
I106
sS'now,90706\n501916104327835648,aj_mosley20,2014-08-20'
p1935
I111
sS"dm's"
p1936
I110
sS'halfway'
p1937
I109
sS'blow'
p1938
I108
sS'death'
p1939
I111
sS'gasin'
p1940
I111
sS'thinking'
p1941
I103
sS"we've"
p1942
I111
sS'blondey'
p1943
I111
sS'seems'
p1944
I109
sS'except'
p1945
I109
sS'forever.\xe2\x80\x9d'
p1946
I111
sS'mann'
p1947
I111
sS'lets'
p1948
I108
sS'ahhhh'
p1949
I111
sS'4'
p1950
I97
sS'struck'
p1951
I111
sS'denim'
p1952
I111
sS'skies'
p1953
I111
sS'real'
p1954
I86
sS'starving'
p1955
I110
sS'around'
p1956
I98
sS'read'
p1957
I108
sS'hve'
p1958
I111
sS'gonna'
p1959
I89
sS'makin'
p1960
I111
sS'early'
p1961
I101
sS'instgram'
p1962
I111
sS'traffic'
p1963
I109
sS'pop'
p1964
I111
sS'listening'
p1965
I109
sS'world'
p1966
I100
sS'cd'
p1967
I110
sS'lady'
p1968
I107
sS'gauging'
p1969
I111
sS'furniture'
p1970
I110
sS'tatted'
p1971
I111
sS'whatchu'
p1972
I111
sS'towel'
p1973
I111
sS"thinkin'"
p1974
I110
sS'patrick'
p1975
I111
sS'hotel'
p1976
I111
sS'pregnant'
p1977
I111
sS'long,90706\n503597122344976384,jkimzzz,2014-08-24'
p1978
I111
sS'leek'
p1979
I111
sS'sanity'
p1980
I111
sS'stories,90706\n503594870666440704,jkimzzz,2014-08-24'
p1981
I111
sS'audience'
p1982
I111
sS'thighs'
p1983
I109
sS'smooches'
p1984
I111
sS'view'
p1985
I111
sS'served'
p1986
I111
sS'creeped'
p1987
I111
sS'eternity'
p1988
I111
sS'sneaker'
p1989
I111
sS'sleepless'
p1990
I111
sS"couldn't"
p1991
I110
sS'mall'
p1992
I111
sS'doll'
p1993
I107
sS'karissa'
p1994
I110
sS'okbet'
p1995
I111
sS'period\xe2\x80\x9d'
p1996
I110
sS'eddie'
p1997
I111
sS'baaad'
p1998
I111
sS'laughed'
p1999
I111
sS'playin'
p2000
I109
sS'twitter\xe2\x80\x9domg'
p2001
I111
sS'thinks'
p2002
I109
sS'studyin'
p2003
I111
sS'sextape'
p2004
I111
sS'mood'
p2005
I106
sS'readyyyy'
p2006
I111
sS'memories'
p2007
I110
sS'nooo'
p2008
I111
sS'googled'
p2009
I111
sS'legal'
p2010
I111
sS'readyyyyyy'
p2011
I111
sS'dealership'
p2012
I111
sS'exit'
p2013
I111
sS'provides'
p2014
I111
sS'bbyg'
p2015
I111
sS'payable'
p2016
I111
sS'hustle'
p2017
I109
sS'turkey'
p2018
I111
sS'welcome'
p2019
I105
sS'number:/'
p2020
I111
sS'business'
p2021
I109
sS'asap'
p2022
I109
sS'lmfao'
p2023
I102
sS'\xe2\x98\xba\xef\xb8\x8f\xe2\x98\xba\xef\xb8\x8f'
p2024
I110
sS'nails'
p2025
I110
sS'04:46:10.0,33.87639554,-118.13364937,5544.04,you'
p2026
I111
sS'laurise'
p2027
I109
sS'broken'
p2028
I111
sS'cube'
p2029
I111
sS'throwback'
p2030
I111
sS';)'
p2031
I111
sS'throw'
p2032
I106
sS'on'
p2033
I14
sS'ol'
p2034
I111
sS'ok'
p2035
I85
sS'oh'
p2036
I83
sS'og'
p2037
I111
sS'of'
p2038
I17
sS'marc'
p2039
I111
sS'favorite'
p2040
I108
sS"guy's"
p2041
I111
sS'loveeeeee'
p2042
I111
sS'shrimp'
p2043
I111
sS'dibs'
p2044
I111
sS'journey'
p2045
I111
sS'stand'
p2046
I107
sS'pockets'
p2047
I109
sS'act'
p2048
I106
sS'mixed'
p2049
I111
sS'00:14:35.0,33.8737859,-118.1265238,5544.04,today'
p2050
I111
sS'bond'
p2051
I111
sS'or'
p2052
I67
sS'road'
p2053
I110
sS'kalib'
p2054
I111
sS'howard'
p2055
I111
sS'ladies'
p2056
I111
sS'tweetin'
p2057
I111
sS'burning'
p2058
I111
sS'twister'
p2059
I111
sS'spreading'
p2060
I111
sS'smelling'
p2061
I111
sS'blessed'
p2062
I105
sS'snapchat'
p2063
I107
sS'rain!!!!!\xe2\x98\x94\xe2\x9a\xa1\xe2\x98\x81'
p2064
I111
sS'accounts'
p2065
I111
sS'bedtime'
p2066
I110
sS'heated'
p2067
I111
sS'your'
p2068
I40
sS'soml'
p2069
I111
sS'upstairs'
p2070
I110
sS'stare'
p2071
I111
sS'true..lol'
p2072
I111
sS'fill'
p2073
I111
sS"compton..i'm"
p2074
I111
sS'her'
p2075
I55
sS'area'
p2076
I111
sS'there'
p2077
I79
sS"titus'"
p2078
I111
sS'shelly'
p2079
I110
sS'lol'
p2080
I20
sS'1:20'
p2081
I111
sS'fates'
p2082
I111
sS'start'
p2083
I96
sS'twerk'
p2084
I111
sS'cats'
p2085
I111
sS'downey'
p2086
I111
sS'low'
p2087
I104
sS'lot'
p2088
I109
sS'4:30'
p2089
I111
sS'valley'
p2090
I111
sS'bubble'
p2091
I110
sS'chats'
p2092
I111
sS'jones'
p2093
I111
sS'adidas'
p2094
I111
sS'complete'
p2095
I105
sS'saaaaaaaang'
p2096
I111
sS'fundamentals'
p2097
I111
sS'you"'
p2098
I110
sS'toooooo'
p2099
I111
sS'boudain'
p2100
I111
sS'foreheads'
p2101
I111
sS'whoooohsah'
p2102
I111
sS'juz'
p2103
I111
sS'e'
p2104
I107
sS'trying'
p2105
I100
sS'with'
p2106
I26
sS'buying'
p2107
I111
sS'happening'
p2108
I111
sS"they're"
p2109
I107
sS'hire'
p2110
I110
sS'cena'
p2111
I111
sS'dominican'
p2112
I111
sS'gilvy'
p2113
I111
sS'rage'
p2114
I109
sS"wasn't"
p2115
I99
sS'good.,90706\n501127169666342912,aj_mosley20,2014-08-17'
p2116
I111
sS'tonite'
p2117
I79
sS'dirty'
p2118
I111
sS'pulp'
p2119
I111
sS"enemy's"
p2120
I111
sS'gone'
p2121
I62
sS'ac'
p2122
I111
sS'ohh'
p2123
I108
sS'videos'
p2124
I111
sS'af'
p2125
I109
sS'taste'
p2126
I109
sS'ah'
p2127
I106
sS'"wtf'
p2128
I111
sS'me!!,90706\n501127989770207232,aj_mosley20,2014-08-17'
p2129
I111
sS'am'
p2130
I79
sS'deep'
p2131
I103
sS'an'
p2132
I86
sS'as'
p2133
I80
sS'at'
p2134
I34
sS'aw'
p2135
I104
sS'hobbies'
p2136
I111
sS'ay'
p2137
I103
sS'watched'
p2138
I110
sS'amused'
p2139
I111
sS'operation'
p2140
I111
sS'cream'
p2141
I109
sS'again'
p2142
I93
sS'notttt'
p2143
I111
sS'hateeeee'
p2144
I111
sS'\xd8\xa7\xd9\x84\xd8\xa7'
p2145
I111
sS'deserve'
p2146
I108
sS'drivers'
p2147
I107
sS'somehow'
p2148
I111
sS'tight'
p2149
I110
sS'5'
p2150
I103
sS'besos'
p2151
I111
sS'heathen'
p2152
I111
sS'you'
p2153
I8
sS'trash'
p2154
I110
sS'details"'
p2155
I111
sS'karma'
p2156
I111
sS'poor'
p2157
I109
sS'poop'
p2158
I111
sS"gon'"
p2159
I111
sS'hey'
p2160
I92
sS'students'
p2161
I111
sS'teeth'
p2162
I111
sS'-__-'
p2163
I111
sS'subbing'
p2164
I111
sS'a1'
p2165
I110
sS'gurlz'
p2166
I111
sS'important'
p2167
I110
sS'track'
p2168
I111
sS'redeye'
p2169
I111
sS'chris'
p2170
I110
sS'itches'
p2171
I111
sS'pool'
p2172
I109
sS'22:38:16.0,33.87380729,-118.13126757,5544.04,thank'
p2173
I111
sS'building'
p2174
I111
sS'mase'
p2175
I108
sS'srry'
p2176
I111
sS'calls'
p2177
I104
sS'wife'
p2178
I111
sS'04:17:41.0,33.8692711,-118.1304672,5544.04,going'
p2179
I111
sS'curve'
p2180
I111
sS'stripes'
p2181
I111
sS'hello'
p2182
I110
sS'derrick'
p2183
I108
sS'u'
p2184
I36
sS'wifu'
p2185
I111
sS'alright'
p2186
I108
sS'baddies'
p2187
I111
sS'app.\xe2\x80\x9d'
p2188
I111
sS'starting'
p2189
I106
sS'all'
p2190
I29
sS"nigga's"
p2191
I111
sS'forget'
p2192
I108
sS'chinese'
p2193
I111
sS'06:09:56.0,33.87606324,-118.12597289,5544.04,sometimes'
p2194
I111
sS'zanny'
p2195
I111
sS'lack'
p2196
I111
sS'dollar'
p2197
I111
sS'dollas'
p2198
I107
sS'month'
p2199
I108
sS'subtle'
p2200
I111
sS'tired,90706\n503646793029410816,jkimzzz,2014-08-24'
p2201
I111
sS'miggs'
p2202
I111
sS'smoking'
p2203
I111
sS'messy'
p2204
I108
sS'follow'
p2205
I107
sS'kampung'
p2206
I111
sS'jolly'
p2207
I111
sS'wash'
p2208
I111
sS'carpet'
p2209
I111
sS'woooow'
p2210
I111
sS'heavyy'
p2211
I111
sS'fits'
p2212
I110
sS'ron'
p2213
I111
sS'proof.,90706\n501286853505318912,aj_mosley20,2014-08-18'
p2214
I111
sS'ty'
p2215
I106
sS'tv'
p2216
I109
sS'baddest'
p2217
I111
sS'wassup'
p2218
I109
sS"layin'"
p2219
I111
sS'misses'
p2220
I111
sS'thursday'
p2221
I107
sS'laughing'
p2222
I111
sS'to'
p2223
I4
sS'tl'
p2224
I110
sS'program'
p2225
I111
sS'tj'
p2226
I111
sS'lol,90706\n501801375454339072,aj_mosley20,2014-08-19'
p2227
I111
sS'tf'
p2228
I110
sS'smile'
p2229
I108
sS'enjoying'
p2230
I108
sS'tb'
p2231
I110
sS'trigga'
p2232
I111
sS'sound'
p2233
I108
sS'woman'
p2234
I106
sS'appointment'
p2235
I111
sS'worse'
p2236
I107
sS'lakewood'
p2237
I109
sS'song'
p2238
I94
sS'far'
p2239
I101
sS'puffy'
p2240
I111
sS'fav'
p2241
I108
sS'e40'
p2242
I111
sS'fat'
p2243
I109
sS'...sorry'
p2244
I111
sS'selfies'
p2245
I111
sS"*you're"
p2246
I111
sS'worst'
p2247
I106
sS'know?,90706\n501247729519964162,aj_mosley20,2014-08-18'
p2248
I111
sS'fam'
p2249
I98
sS'fab'
p2250
I111
sS'ticket'
p2251
I109
sS'difference'
p2252
I111
sS'ramen'
p2253
I111
sS'treating'
p2254
I111
sS'trippin'
p2255
I108
sS'sentimental'
p2256
I111
sS'17th'
p2257
I110
sS'laying'
p2258
I108
sS'burritos'
p2259
I111
sS'sana'
p2260
I111
sS'small'
p2261
I109
sS'lisa'
p2262
I111
sS'20th'
p2263
I110
sS'taco)'
p2264
I111
sS"i'll"
p2265
I89
sS'cookies'
p2266
I111
sS'....with'
p2267
I111
sS'instagram'
p2268
I109
sS'\xe2\x98\x80\xef\xb8\x8f\xe2\x98\x80\xef\xb8\x8f\xe2\x98\x80\xef\xb8\x8f'
p2269
I111
sS'sayaaaa'
p2270
I111
sS'streets'
p2271
I110
sS"22:22:01.0,33.8764886,-118.1314742,5544.04,i'm"
p2272
I111
sS'whens'
p2273
I111
sS'healed'
p2274
I111
sS'past'
p2275
I110
sS'burger'
p2276
I111
sS'zero'
p2277
I107
sS'emily.,90706\n501799857535713280,aj_mosley20,2014-08-19'
p2278
I111
sS'design'
p2279
I111
sS'lawyer'
p2280
I111
sS'pass'
p2281
I108
sS'...lol'
p2282
I110
sS'cheeses'
p2283
I111
sS'what'
p2284
I47
sS'waa'
p2285
I111
sS'sub'
p2286
I110
sS'richard'
p2287
I105
sS'clock'
p2288
I110
sS'investing'
p2289
I111
sS'sun'
p2290
I110
sS'youuu'
p2291
I111
sS'vikes'
p2292
I111
sS'fucks'
p2293
I108
sS'emotions'
p2294
I110
sS'jedi'
p2295
I111
sS'twatch'
p2296
I110
sS'learned'
p2297
I111
sS'ang'
p2298
I111
sS'predict'
p2299
I111
sS'handy'
p2300
I111
sS'reprucussions'
p2301
I111
sS'full'
p2302
I100
sS'iran'
p2303
I111
sS'loose'
p2304
I111
sS'answers'
p2305
I110
sS'forgive'
p2306
I110
sS'hours'
p2307
I88
sS'smartest'
p2308
I111
sS'suicide'
p2309
I111
sS'disrespectful\xe2\x80\x9d'
p2310
I111
sS'relaxation'
p2311
I111
sS'directions'
p2312
I111
sS'november'
p2313
I110
sS'strong'
p2314
I108
sS'division'
p2315
I111
sS'd.m'
p2316
I111
sS'jackie'
p2317
I110
sS'cucumbers'
p2318
I111
sS'pics'
p2319
I106
sS'drawers'
p2320
I111
sS'ohhhhh'
p2321
I109
sS'cousins'
p2322
I111
sS'pick'
p2323
I108
sS'action'
p2324
I111
sS"mykell's"
p2325
I111
sS'luck'
p2326
I111
sS'inspires'
p2327
I111
sS'imaging'
p2328
I111
sS'sticking'
p2329
I111
sS'via'
p2330
I110
sS'followed'
p2331
I111
sS'ours'
p2332
I111
sS'family'
p2333
I102
sS'nooooooooo'
p2334
I111
sS'capton'
p2335
I111
sS'vest'
p2336
I111
sS'vil'
p2337
I111
sS'it!\xe2\x80\x9d'
p2338
I111
sS'put'
p2339
I97
sS'semester'
p2340
I110
sS'toys'
p2341
I111
sS'buenas'
p2342
I111
sS'up?"bob'
p2343
I111
sS'orientation'
p2344
I111
sS'up...so'
p2345
I111
sS'casket'
p2346
I111
sS'eye'
p2347
I110
sS'takes'
p2348
I110
sS'trips'
p2349
I111
sS'sbn'
p2350
I111
sS'texting'
p2351
I111
sS'two'
p2352
I103
sS'nowwww'
p2353
I111
sS'omgggg'
p2354
I111
sS'.......,90706\n501613414272086017,aj_mosley20,2014-08-19'
p2355
I111
sS'80-90%'
p2356
I111
sS'6'
p2357
I105
sS'taken'
p2358
I110
sS'kick'
p2359
I110
sS'impression'
p2360
I111
sS'more'
p2361
I82
sS'tryna'
p2362
I104
sS'door'
p2363
I107
sS'knows'
p2364
I105
sS'crazyyyy'
p2365
I110
sS'grabbing'
p2366
I111
sS'company'
p2367
I109
sS'fredo'
p2368
I109
sS'spoils'
p2369
I111
sS'sayingyolo'
p2370
I111
sS'akb48,90706\n503594754958172160,jkimzzz,2014-08-24'
p2371
I111
sS'excuse'
p2372
I111
sS"ain't"
p2373
I74
sS'stick'
p2374
I111
sS'broke'
p2375
I107
sS'18:55:29.0,33.8737777,-118.1267855,5544.04,what'
p2376
I111
sS'that\xe2\x80\x9d'
p2377
I111
sS'hurry'
p2378
I110
sS'thug'
p2379
I111
sS'glad'
p2380
I103
sS'town'
p2381
I110
sS'grill'
p2382
I110
sS'none'
p2383
I109
sS'hour'
p2384
I103
sS'middle'
p2385
I111
sS'recall'
p2386
I111
sS'sucks'
p2387
I105
sS'enchanted'
p2388
I111
sS'remain'
p2389
I109
sS'\xe2\x9d\xa4\xef\xb8\x8f,90706\n467914151067525120,jansen_katie,2014-05-18'
p2390
I111
sS'morgan'
p2391
I108
sS'learn'
p2392
I106
sS'knocked'
p2393
I110
sS'def'
p2394
I106
sS'history'
p2395
I110
sS'beautiful'
p2396
I104
sS'stubborn'
p2397
I111
sS'brown'
p2398
I110
sS'rodriguez'
p2399
I111
sS'nigggas'
p2400
I111
sS'share'
p2401
I111
sS'nyquil'
p2402
I111
sS"'96"
p2403
I111
sS'racing'
p2404
I111
sS'numbers'
p2405
I111
sS'sense'
p2406
I108
sS'around.mmmh...we'
p2407
I111
sS'to!my'
p2408
I111
sS'scar'
p2409
I111
sS'dress'
p2410
I102
sS'plan('
p2411
I111
sS'bogo'
p2412
I111
sS'needs'
p2413
I110
sS'wisely'
p2414
I111
sS'ayyyye'
p2415
I111
sS'awkward'
p2416
I110
sS'rather'
p2417
I108
sS'acts'
p2418
I111
sS'needa'
p2419
I111
sS'glowing'
p2420
I111
sS'ayyyyy'
p2421
I109
sS'classes\xe2\x80\x9d'
p2422
I110
sS'\xe2\x99\xa3\xef\xb8\x8f'
p2423
I111
sS'rooting'
p2424
I111
sS'impression...especially'
p2425
I111
sS'ft'
p2426
I107
sS'tried'
p2427
I107
sS'advice'
p2428
I111
sS'alibaba'
p2429
I111
sS'fireworks.,90706\n483468877217533952,naitsirk_oremor,2014-06-30'
p2430
I111
sS'plane'
p2431
I110
sS'lighting'
p2432
I111
sS'blood'
p2433
I105
sS'softball'
p2434
I110
sS'choice'
p2435
I111
sS'ever-lasting'
p2436
I111
sS'pimpin'
p2437
I111
sS'xxyyxx'
p2438
I111
sS'fo'
p2439
I111
sS'a'
p2440
I7
sS'refuse'
p2441
I110
sS'short'
p2442
I106
sS'tweeting'
p2443
I109
sS'sellin'
p2444
I111
sS'bugs'
p2445
I111
sS'anytime'
p2446
I109
sS'ego'
p2447
I111
sS'dread'
p2448
I111
sS'shade'
p2449
I111
sS'alphabet'
p2450
I111
sS'lmfaooooo'
p2451
I111
sS'pleasure'
p2452
I111
sS'rentals'
p2453
I111
sS'dream'
p2454
I107
sS'playing'
p2455
I107
sS"that's"
p2456
I66
sS'replied'
p2457
I109
sS'chicks'
p2458
I111
sS'life.,90706\n501806481021231104,aj_mosley20,2014-08-19'
p2459
I111
sS'\xe2\x9d\xa4\xef\xb8\x8f,90706\n496413127798693888,los_burritos77,2014-08-04'
p2460
I111
sS'mexican'
p2461
I110
sS'help'
p2462
I106
sS"don't"
p2463
I32
sS'essence'
p2464
I111
sS'sooo'
p2465
I105
sS'soon'
p2466
I108
sS'pilots>'
p2467
I111
sS'radar'
p2468
I111
sS'attitude'
p2469
I108
sS'paper'
p2470
I111
sS'through'
p2471
I93
sS'makeup'
p2472
I111
sS'signs'
p2473
I111
sS'hell'
p2474
I96
sS'mcdonalds'
p2475
I111
sS'markie'
p2476
I111
sS'its'
p2477
I74
sS'24'
p2478
I103
sS'messed'
p2479
I107
sS'style'
p2480
I111
sS'27'
p2481
I107
sS'20'
p2482
I109
sS'21'
p2483
I110
sS'22'
p2484
I109
sS'everday'
p2485
I111
sS'pray'
p2486
I104
sS'28'
p2487
I111
sS'29'
p2488
I110
sS'drinks"'
p2489
I111
sS'actually'
p2490
I104
sS'late'
p2491
I106
sS'>>>'
p2492
I111
sS'boneless'
p2493
I111
sS'macaroni'
p2494
I111
sS'bout'
p2495
I102
sS'might'
p2496
I105
sS"haven't"
p2497
I97
sS'hurting'
p2498
I108
sS'good'
p2499
I60
sS'somebody'
p2500
I100
sS'yo'
p2501
I103
sS'ya'
p2502
I78
sS"it'"
p2503
I111
sS'broken\xe2\x80\x9d'
p2504
I111
sS'youuuuu.,90706\n503595317607288833,jkimzzz,2014-08-24'
p2505
I111
sS'dammmmmnnnnnnn'
p2506
I111
sS'unloyal'
p2507
I111
sS'\xe2\x9c\x94credit'
p2508
I111
sS'hahahahahaha'
p2509
I110
sS'starbucks'
p2510
I111
sS'permmmm'
p2511
I111
sS'ninja'
p2512
I93
sS'okk'
p2513
I111
sS"movie's"
p2514
I111
sS'sucked'
p2515
I111
sS'agooooo'
p2516
I111
sS'easily'
p2517
I110
sS'wal-mart'
p2518
I111
sS'annnoying'
p2519
I111
sS'everytime'
p2520
I110
sS'sundays'
p2521
I110
sS'always'
p2522
I85
sS"fine'"
p2523
I111
sS'vi.\xe2\x80\xa6'
p2524
I111
sS'drake'
p2525
I108
sS'bless'
p2526
I110
sS'fulla'
p2527
I111
sS'stopped'
p2528
I110
sS'found'
p2529
I111
sS'beautifull...lol'
p2530
I111
sS"isn't"
p2531
I104
sS'2k'
p2532
I111
sS'heavy'
p2533
I109
sS'reactions'
p2534
I111
sS'everyone'
p2535
I106
sS'begged'
p2536
I111
sS'another'
p2537
I99
sS'needless'
p2538
I111
sS'house'
p2539
I99
sS'fish'
p2540
I111
sS'hard'
p2541
I100
sS'idea'
p2542
I109
sS'accidentally'
p2543
I109
sS'finish'
p2544
I108
sS'expect'
p2545
I110
sS'fist'
p2546
I111
sS'ahahha'
p2547
I111
sS'blues'
p2548
I111
sS'beyond'
p2549
I108
sS'randolph'
p2550
I111
sS'maidana'
p2551
I111
sS'really'
p2552
I57
sS'travels'
p2553
I111
sS'*does'
p2554
I111
sS'missed'
p2555
I107
sS'songggg'
p2556
I111
sS'since'
p2557
I102
sS'research'
p2558
I110
sS'ceejay'
p2559
I111
sS'acting'
p2560
I110
sS'meaning'
p2561
I111
sS'blunts'
p2562
I111
sS'7'
p2563
I104
sS'print'
p2564
I111
sS'flame'
p2565
I111
sS'planeta'
p2566
I111
sS'ass'
p2567
I43
sS'textin'
p2568
I111
sS'byeeeee'
p2569
I111
sS'bully'
p2570
I111
sS'dirt'
p2571
I110
sS'muhahahaha'
p2572
I111
sS'timeline'
p2573
I111
sS'friday'
p2574
I107
sS'guess'
p2575
I80
sS'blue..which'
p2576
I111
sS'w-2'
p2577
I111
sS'reason'
p2578
I104
sS'bbbbbbbbeeeeeeelllllllllllggggggggggiiiiiuuuuummmmmmmm'
p2579
I111
sS'disneyland'
p2580
I109
sS'members'
p2581
I110
sS'follower'
p2582
I111
sS'ask'
p2583
I105
sS'tati'
p2584
I111
sS'teach'
p2585
I111
sS'ash'
p2586
I111
sS'beginning'
p2587
I109
sS'rideeeee'
p2588
I111
sS'heroic'
p2589
I111
sS'asl'
p2590
I111
sS'thrown'
p2591
I111
sS'opps'
p2592
I108
sS'benefits'
p2593
I110
sS'lamar'
p2594
I111
sS'now..wit'
p2595
I111
sS'needing'
p2596
I111
sS'terrible'
p2597
I111
sS'ladycheetahstank'
p2598
I111
sS'terribly'
p2599
I111
sS'better!!,90706\n501799016774905856,aj_mosley20,2014-08-19'
p2600
I111
sS'scheduled'
p2601
I111
sS'existential'
p2602
I111
sS'\xe2\x80\x94'
p2603
I111
sS'fallen'
p2604
I111
sS'sacrifice'
p2605
I111
sS'major'
p2606
I108
sS'dont'
p2607
I110
sS'feel'
p2608
I77
sS'rong'
p2609
I111
sS'number'
p2610
I104
sS'\xd9\x87\xd9\x87\xd9\x87\xd9\x87\xd9\x87\xd9\x87\xd9\x87\xd9\x87\xd9\x87\xd9\x87\xd9\x87\xd9\x87\xd9\x87\xd9\x87\xd9\x87\xd9\x87\xd9\x87\xd9\x87\xd9\x87\xd9\x87\xd9\x87\xd9\x87\xd9\x87\xd9\x87\xd9\x87\xd9\x87\xd9\x87\xd9\x87\xd9\x87\xd9\x87\xd9\x87\xd9\x87\xd9\x87\xd9\x87\xd9\x87\xd9\x87\xd9\x87\xd9\x87\xd9\x87\xd9\x87\xd9\x87\xd9\x87\xd9\x87\xd9\x87\xd9\x87\xd9\x87\xd9\x87\xd9\x87\xd9\x87\xd9\x87\xd9\x87\xd9\x87\xd9\x87\xd9\x87\xd9\x87\xd9\x87\xd9\x87\xd9\x87\xd9\x87\xd9\x87\xd9\x87\xd9\x87\xd9\x87\xd9\x87\xd9\x87\xd9\x87\xd9\x87\xd9\x87\xd9\x87\xd9\x87\xd9\x87\xd9\x87\xd9\x87\xd9\x87\xd9\x87\xd9\x87\xd9\x87\xd9\x87\xd9\x87\xd9\x87\xd9\x87\xd9\x87\xd9\x87\xd9\x87\xd9\x87\xd9\x87\xd9\x87\xd9\x87\xd9\x87\xd9\x87\xd9\x87\xd9\x87\xd9\x87\xd9\x87\xd9\x87\xd9\x87\xd9\x87'
p2611
I111
sS'feet'
p2612
I108
sS'sisters'
p2613
I110
sS'unexpected'
p2614
I111
sS'done'
p2615
I84
sS'jollibee'
p2616
I111
sS'amen'
p2617
I111
sS'miss'
p2618
I96
sS'gooo'
p2619
I111
sS'story'
p2620
I104
sS'killin'
p2621
I111
sS'heads'
p2622
I111
sS'become'
p2623
I111
sS'together'
p2624
I106
sS'financed'
p2625
I111
sS'group"'
p2626
I111
sS'gpa'
p2627
I111
sS'phil'
p2628
I110
sS'wonderful'
p2629
I110
sS'passed'
p2630
I104
sS'man."'
p2631
I111
sS'mama'
p2632
I90
sS'destruction'
p2633
I110
sS'happening,90706\n501618786185658369,aj_mosley20,2014-08-19'
p2634
I111
sS'store'
p2635
I108
sS'headache'
p2636
I105
sS'selling'
p2637
I111
sS'storm'
p2638
I111
sS'relationship'
p2639
I110
sS'behind'
p2640
I109
sS'relieved'
p2641
I111
sS'mhmm'
p2642
I111
sS'you\xe2\x80\x9d'
p2643
I110
sS"'cedes"
p2644
I111
sS'park'
p2645
I108
sS'back"'
p2646
I111
sS'mmmm'
p2647
I111
sS'assumption'
p2648
I111
sS'part'
p2649
I107
sS'taught'
p2650
I111
sS'boredom'
p2651
I111
sS'doctors'
p2652
I111
sS'chapelle'
p2653
I111
sS'ipads'
p2654
I111
sS'believe'
p2655
I97
sS'obama'
p2656
I111
sS'avi?"'
p2657
I111
sS'kind'
p2658
I111
sS'b'
p2659
I82
sS'tooth'
p2660
I111
sS'double'
p2661
I110
sS'levels'
p2662
I111
sS'youth'
p2663
I110
sS'stall'
p2664
I110
sS'marriage'
p2665
I111
sS'supposed'
p2666
I111
sS'amazes'
p2667
I110
sS'dang'
p2668
I111
sS'trangle'
p2669
I111
sS'lease'
p2670
I110
sS'treated'
p2671
I110
sS'dana'
p2672
I111
sS'swerve'
p2673
I111
sS'outta'
p2674
I106
sS'uncomfortable'
p2675
I111
sS'honeys'
p2676
I111
sS'ages'
p2677
I110
sS'juicy'
p2678
I111
sS'aloneeeeeeeeeeeee'
p2679
I111
sS'hussle'
p2680
I110
sS'juice'
p2681
I102
sS'hangout'
p2682
I111
sS'graffiti'
p2683
I111
sS'alike'
p2684
I111
sS'toadie'
p2685
I111
sS'cleaned'
p2686
I110
sS'gall'
p2687
I111
sS'bhs'
p2688
I111
sS'wish...\xe2\x9c\xa8'
p2689
I111
sS'option'
p2690
I111
sS'sell'
p2691
I110
sS'lie'
p2692
I107
sS'wilson'
p2693
I111
sS'nights'
p2694
I110
sS'built'
p2695
I110
sS'dancing'
p2696
I111
sS'lil'
p2697
I82
sS'self'
p2698
I108
sS'couch'
p2699
I111
sS'also'
p2700
I107
sS'costs'
p2701
I110
sS'lip'
p2702
I111
sS'build'
p2703
I111
sS'k4'
p2704
I110
sS'genetically'
p2705
I111
sS'lazy'
p2706
I111
sS'sneakin'
p2707
I111
sS"mf's"
p2708
I110
sS'stoichiometry'
p2709
I111
sS'forshure'
p2710
I111
sS'waitin'
p2711
I110
sS"jenny's"
p2712
I111
sS'play'
p2713
I95
sS'towards'
p2714
I110
sS'retired'
p2715
I111
sS'quote'
p2716
I106
sS'kai'
p2717
I111
sS'sets'
p2718
I111
sS'allergy'
p2719
I111
sS'most'
p2720
I106
sS'75'
p2721
I111
sS'72'
p2722
I111
sS"'cause"
p2723
I110
sS'nothing'
p2724
I86
sS'seasons'
p2725
I111
sS'extremely'
p2726
I110
sS'refrigerator'
p2727
I111
sS'salary'
p2728
I111
sS'understands'
p2729
I111
sS'hubby'
p2730
I111
sS'bug'
p2731
I111
sS'incase'
p2732
I111
sS'windows'
p2733
I111
sS'sometimes'
p2734
I106
sS'ko'
p2735
I110
sS'shortly'
p2736
I111
sS'cramped'
p2737
I111
sS',90706\n501916297345511424,aj_mosley20,2014-08-20'
p2738
I111
sS'clean'
p2739
I110
sS'stache'
p2740
I111
sS'aeropostale'
p2741
I111
sS'shoutout'
p2742
I111
sS'hips'
p2743
I108
sS'joining'
p2744
I111
sS'stoner'
p2745
I111
sS'thomas'
p2746
I111
sS'ugh'
p2747
I105
sS'chevron'
p2748
I111
sS'02:32:36.0,33.8737837,-118.1265026,5544.04,sends'
p2749
I111
sS'session'
p2750
I111
sS"it'd"
p2751
I111
sS'skeezer'
p2752
I111
sS'hopped'
p2753
I111
sS'fine'
p2754
I108
sS'find'
p2755
I101
sS'wraps'
p2756
I111
sS'subbin'
p2757
I110
sS'5-6-2'
p2758
I111
sS'restaurant)'
p2759
I110
sS'derry'
p2760
I110
sS'nervous'
p2761
I110
sS'ruin'
p2762
I110
sS'poppin'
p2763
I107
sS'sloppyyyy'
p2764
I111
sS'pretty'
p2765
I97
sS'factor'
p2766
I111
sS'8'
p2767
I109
sS'circle'
p2768
I110
sS'$1'
p2769
I111
sS',90706\n496414036075245568,los_burritos77,2014-08-04'
p2770
I111
sS"mom's"
p2771
I111
sS'hip'
p2772
I110
sS'prego'
p2773
I111
sS'his'
p2774
I72
sS'hit'
p2775
I97
sS'triple'
p2776
I111
sS'meanwhile'
p2777
I111
sS'bend'
p2778
I111
sS'banned'
p2779
I111
sS'breee'
p2780
I111
sS'twatch!!on'
p2781
I111
sS'famous'
p2782
I111
sS'feels'
p2783
I108
sS'batter'
p2784
I110
sS'actions'
p2785
I110
sS'theft'
p2786
I111
sS'compass'
p2787
I111
sS'during'
p2788
I108
sS'him'
p2789
I72
sS'illustrator"'
p2790
I111
sS'catches'
p2791
I110
sS'appeal'
p2792
I111
sS'spandex'
p2793
I111
sS'cry'
p2794
I111
sS'timeless'
p2795
I111
sS'craftsy'
p2796
I111
sS'gggggoooooooaaaaaaaalllllllllll'
p2797
I111
sS'thots'
p2798
I111
sS'\xd9\x88\xd8\xa7\xd9\x84\xd9\x82\xd8\xa7\xd9\x81\xd9\x84\xd9\x87'
p2799
I111
sS'common'
p2800
I111
sS'nayah'
p2801
I111
sS'gotten'
p2802
I110
sS'x'
p2803
I107
sS'weaves'
p2804
I111
sS'wrote'
p2805
I109
sS'permit'
p2806
I111
sS'set'
p2807
I110
sS'way\xe2\x80\xa6'
p2808
I111
sS'/bomb'
p2809
I111
sS'devils'
p2810
I111
sS'throwing'
p2811
I108
sS'naked'
p2812
I111
sS'summed'
p2813
I111
sS'vine'
p2814
I111
sS'wtfffff'
p2815
I111
sS'free!,90706\n492875707811237889,xosarita,2014-07-26'
p2816
I111
sS'sex'
p2817
I103
sS'see'
p2818
I65
sS'dumb'
p2819
I97
sS'are'
p2820
I53
sS'close'
p2821
I107
sS'retweet'
p2822
I109
sS'allie'
p2823
I111
sS'pizzurp'
p2824
I111
sS'success'
p2825
I111
sS'trey'
p2826
I111
sS'rewatch'
p2827
I111
sS'pneumonia'
p2828
I111
sS'movie'
p2829
I107
sS'wow'
p2830
I94
sS'currently'
p2831
I111
sS'please'
p2832
I105
sS'slapped'
p2833
I111
sS'double-spaced'
p2834
I111
sS'timberlands'
p2835
I111
sS'case'
p2836
I111
sS'fans'
p2837
I111
sS'won'
p2838
I110
sS'*drawers'
p2839
I111
sS'asthmatic'
p2840
I111
sS'probably'
p2841
I97
sS'beautifullll'
p2842
I111
sS'nope'
p2843
I106
sS'rita'
p2844
I111
sS'watchin'
p2845
I110
sS'knowing'
p2846
I111
sS'wait..who'
p2847
I111
sS'sinned'
p2848
I111
sS'missing'
p2849
I104
sS'attention'
p2850
I106
sS'outfit'
p2851
I108
sS'jealous!!,90706\n493535035048206336,jonnyshirtless,2014-07-27'
p2852
I111
sS'0.95'
p2853
I111
sS'gwaahhh'
p2854
I111
sS'pissed'
p2855
I107
sS'both'
p2856
I98
sS'c'
p2857
I109
sS'retwist'
p2858
I111
sS'last'
p2859
I85
sS'license'
p2860
I111
sS'thou'
p2861
I111
sS'thot'
p2862
I111
sS"wouldn't"
p2863
I106
sS'panther'
p2864
I111
sS"rally's"
p2865
I111
sS'dgfhvhh'
p2866
I111
sS'became'
p2867
I110
sS'*show'
p2868
I111
sS'alot'
p2869
I106
sS'focused'
p2870
I108
sS'whole'
p2871
I107
sS'upgraded'
p2872
I111
sS'liked'
p2873
I109
sS'guts'
p2874
I110
sS'study'
p2875
I111
sS'point'
p2876
I106
sS'simple'
p2877
I108
sS'sweet'
p2878
I109
sS'this!\xe2\x80\xa6'
p2879
I111
sS'address'
p2880
I110
sS'manners'
p2881
I111
sS'whatever'
p2882
I109
sS'coincidence'
p2883
I111
sS'header'
p2884
I111
sS'dommy'
p2885
I111
sS'dancer'
p2886
I111
sS'simply'
p2887
I111
sS'likes'
p2888
I111
sS'sexy'
p2889
I110
sS'raw'
p2890
I111
sS'mission'
p2891
I111
sS',90706\n501915867597123584,aj_mosley20,2014-08-20'
p2892
I111
sS'ps'
p2893
I111
sS'workbarbershop&'
p2894
I111
sS'devil'
p2895
I110
sS'selfie'
p2896
I111
sS'keisha'
p2897
I111
sS'chick'
p2898
I111
sS'furball'
p2899
I111
sS'due'
p2900
I109
sS'mikey'
p2901
I111
sS'whos'
p2902
I111
sS'quench'
p2903
I111
sS'mr.banks'
p2904
I108
sS'pa'
p2905
I111
sS'damn'
p2906
I73
sS'meeting'
p2907
I111
sS'woke'
p2908
I103
sS'resting'
p2909
I109
sS'\xd9\x88\xd8\xa7\xd9\x84\xd8\xb4\xd9\x83\xd8\xb1'
p2910
I111
sS'lived'
p2911
I111
sS'flight'
p2912
I106
sS'gay'
p2913
I109
sS'sending'
p2914
I110
sS"what's"
p2915
I105
sS',90706\n496414423427608576,los_burritos77,2014-08-04'
p2916
I111
sS'exposed'
p2917
I111
sS'else'
p2918
I105
sS'awake'
p2919
I109
sS'prices'
p2920
I110
sS'wedding'
p2921
I111
sS'revenge'
p2922
I111
sS"what'd"
p2923
I110
sS'fwy.\xe2\x80\x9d'
p2924
I111
sS'kousin'
p2925
I93
sS'x-men'
p2926
I111
sS'look'
p2927
I73
sS'sandiego'
p2928
I111
sS'06:43:25.0,33.8737567,-118.126611,5544.04,me'
p2929
I111
sS'straight'
p2930
I109
sS'bill'
p2931
I110
sS'convo'
p2932
I108
sS'twenty'
p2933
I111
sS"papoose's"
p2934
I111
sS'healthy'
p2935
I111
sS'while'
p2936
I100
sS'bachelors'
p2937
I111
sS'pressed'
p2938
I110
sS'behavior'
p2939
I111
sS'involved'
p2940
I111
sS'fun'
p2941
I98
sS'skull-loving'
p2942
I111
sS'diagnosing'
p2943
I111
sS'heyyyyyyy'
p2944
I111
sS'cages'
p2945
I108
sS'theres'
p2946
I110
sS'swim'
p2947
I110
sS'categorized'
p2948
I111
sS'snapchat.,90706\n501799975211134978,aj_mosley20,2014-08-19'
p2949
I111
sS'chirping'
p2950
I111
sS'jaden'
p2951
I111
sS'nigga,90706\n501617238378434560,aj_mosley20,2014-08-19'
p2952
I111
sS'vow'
p2953
I110
sS'yeeeeeee'
p2954
I111
sS'owes'
p2955
I111
sS'ready'
p2956
I93
sS'goonies'
p2957
I111
sS'ohhhh'
p2958
I109
sS'funny'
p2959
I93
sS'nigga"'
p2960
I111
sS'shirt'
p2961
I109
sS'anymore'
p2962
I111
sS'noooo'
p2963
I111
sS'migraine'
p2964
I111
sS'belong'
p2965
I111
sS'sandwish'
p2966
I111
sS'grand'
p2967
I111
sS'9'
p2968
I104
sS'something...it'
p2969
I111
sS'hallway'
p2970
I111
sS'used'
p2971
I102
sS'paths'
p2972
I111
sS'keys'
p2973
I110
sS'later,90706\n480790605459513345,coreyhess43,2014-06-22'
p2974
I111
sS'yesterday'
p2975
I108
sS'holidays'
p2976
I111
sS'moment'
p2977
I107
sS'u.s'
p2978
I111
sS'arrived'
p2979
I110
sS'necessity'
p2980
I111
sS'hello,90706\n503603425951875072,jkimzzz,2014-08-24'
p2981
I111
sS'dine'
p2982
I110
sS'nickname'
p2983
I111
sS'stack'
p2984
I111
sS'sweating'
p2985
I111
sS'dark'
p2986
I111
sS'beanie'
p2987
I111
sS'task'
p2988
I111
sS'whatching'
p2989
I111
sS'depending'
p2990
I111
sS'spent'
p2991
I109
sS'iffy'
p2992
I111
sS'grind'
p2993
I104
sS'person'
p2994
I106
sS'cheer'
p2995
I111
sS'dreadlock'
p2996
I111
sS'y'
p2997
I111
sS'wedges'
p2998
I111
sS'chemistry'
p2999
I110
sS'spend'
p3000
I107
sS'ungrateful'
p3001
I111
sS'>.<'
p3002
I111
sS'empathy'
p3003
I111
sS'mom'
p3004
I101
sS'ilysm'
p3005
I111
sS'lottery'
p3006
I111
sS',90706\n501281721208152064,aj_mosley20,2014-08-18'
p3007
I111
sS'"like'
p3008
I111
sS'*gucci'
p3009
I111
sS'..a'
p3010
I111
sS'press'
p3011
I111
sS'questions'
p3012
I110
sS'stunt'
p3013
I110
sS'regardless'
p3014
I111
sS'...no'
p3015
I111
sS'praying'
p3016
I109
sS'bouta'
p3017
I111
sS'dollars,90706\n443498331482750976,_katykate,2014-03-11'
p3018
I111
sS'letting'
p3019
I110
sS'cut'
p3020
I109
sS'cus'
p3021
I111
sS'diary'
p3022
I111
sS'swallowing'
p3023
I111
sS'hated'
p3024
I109
sS"men's"
p3025
I111
sS'education'
p3026
I111
sS'cuz'
p3027
I109
sS'card\xe2\x9c\x94phone\xe2\x9c\x94my'
p3028
I111
sS'henny'
p3029
I111
sS'location'
p3030
I111
sS'crying'
p3031
I108
sS'snap'
p3032
I109
sS'limes'
p3033
I111
sS'excited'
p3034
I104
sS'hates'
p3035
I110
sS'cuh'
p3036
I108
sS'indonesian'
p3037
I111
sS'confession'
p3038
I111
sS'victims'
p3039
I111
sS'big'
p3040
I99
sS'couple'
p3041
I110
sS'sittin'
p3042
I110
sS'mcm'
p3043
I111
sS'ruff'
p3044
I106
sS'finding'
p3045
I111
sS'game'
p3046
I97
sS'bit'
p3047
I106
sS'wings'
p3048
I110
sS'projects'
p3049
I109
sS'mariah'
p3050
I111
sS'knock'
p3051
I109
sS'faaaaannnnnn'
p3052
I111
sS'd'
p3053
I107
sS'follows'
p3054
I111
sS'message'
p3055
I110
sS'lifestyle'
p3056
I111
sS'ignore'
p3057
I111
sS'collect'
p3058
I111
sS'aggravation'
p3059
I111
sS'continue'
p3060
I108
sS"vma's"
p3061
I111
sS'popular'
p3062
I110
sS'fault'
p3063
I110
sS'me\xe2\x80\x9d'
p3064
I111
sS'names'
p3065
I111
sS'bacc'
p3066
I111
sS'gasing'
p3067
I111
sS'fucking'
p3068
I99
sS'spring'
p3069
I110
sS'fathers'
p3070
I111
sS'1st'
p3071
I110
sS'some'
p3072
I46
sS'back'
p3073
I52
sS'greeting'
p3074
I111
sS'lips'
p3075
I108
sS'isleys'
p3076
I111
sS'clown'
p3077
I111
sS'mirror'
p3078
I111
sS'candle'
p3079
I111
sS'lightning'
p3080
I111
sS'lol,90706\n501804665399287808,aj_mosley20,2014-08-19'
p3081
I111
sS'investigating'
p3082
I111
sS'obviously'
p3083
I111
sS'contacts'
p3084
I111
sS'bored..making'
p3085
I111
sS'thotful'
p3086
I111
sS'absolutely'
p3087
I110
sS'shall'
p3088
I109
sS'gimme'
p3089
I111
sS'prom'
p3090
I109
sS'behave'
p3091
I110
sS'('
p3092
I111
sS',90706\n501949486868860930,aj_mosley20,2014-08-20'
p3093
I111
sS'\xe2\x9b\xbd'
p3094
I111
sS'epic'
p3095
I106
sS'eggs'
p3096
I111
sS'girrrrrl'
p3097
I111
sS'either'
p3098
I105
sS'bd'
p3099
I110
sS'be'
p3100
I22
sS'bg'
p3101
I111
sS'eating'
p3102
I109
sS'bc'
p3103
I111
sS'bartender'
p3104
I111
sS'hahahahahahaha'
p3105
I111
sS'martin'
p3106
I110
sS'bh'
p3107
I109
sS'fed'
p3108
I110
sS'step'
p3109
I110
sS'mamamorganmegan'
p3110
I111
sS'bp'
p3111
I109
sS'santa'
p3112
I109
sS'bs'
p3113
I109
sS'ache'
p3114
I109
sS'raider'
p3115
I111
sS'smothered'
p3116
I111
sS'by'
p3117
I87
sS'nauseated'
p3118
I111
sS'shine'
p3119
I109
sS'faith'
p3120
I110
sS'hidden'
p3121
I111
sS'anything'
p3122
I102
sS'wore'
p3123
I110
sS'finnily'
p3124
I110
sS'iced'
p3125
I111
sS'day,90706\n453987092599562240,_shainapple,2014-04-09'
p3126
I111
sS'graduation'
p3127
I111
sS'drama'
p3128
I104
sS'shleep'
p3129
I111
sS'idk'
p3130
I99
sS'today."'
p3131
I111
sS'germany'
p3132
I111
sS'cusin'
p3133
I109
sS'wanna'
p3134
I58
sS'idc'
p3135
I110
sS'silence'
p3136
I110
sS'girl:college'
p3137
I111
sS'ppl'
p3138
I110
sS'seeing'
p3139
I110
sS'back?,90706\n501287138625736705,aj_mosley20,2014-08-18'
p3140
I111
sS'aboutchu'
p3141
I111
sS'letter'
p3142
I109
sS'hears'
p3143
I111
sS'auntie'
p3144
I110
sS'visit'
p3145
I111
sS'mommy'
p3146
I109
sS'within'
p3147
I110
sS'nonsense'
p3148
I111
sS'!!!,90706\n470433378588577793,xosarita,2014-05-25'
p3149
I111
sS'watt'
p3150
I110
sS'momma'
p3151
I109
sS'nigga'
p3152
I79
sS'ayyy'
p3153
I107
sS'lesson'
p3154
I111
sS'cho'
p3155
I111
sS'lebron'
p3156
I111
sS'rolls'
p3157
I111
sS'smells'
p3158
I111
sS'katie'
p3159
I111
sS'tonight....i'
p3160
I111
sS'sonny'
p3161
I111
sS'spam'
p3162
I111
sS'spending'
p3163
I109
sS'ok!!,90706\n501649158747324416,aj_mosley20,2014-08-19'
p3164
I111
sS'apartments'
p3165
I111
sS'question'
p3166
I107
sS'ca)'
p3167
I96
sS'long'
p3168
I100
sS'custom'
p3169
I111
sS'doubt'
p3170
I111
sS"we're"
p3171
I110
sS'summertime'
p3172
I111
sS'bruh'
p3173
I108
sS'bored'
p3174
I107
sS'scared'
p3175
I110
sS'you.\xe2\x9c\xa8'
p3176
I111
sS'invite'
p3177
I110
sS'0-2'
p3178
I111
sS'dips'
p3179
I111
sS'memory'
p3180
I111
sS'pastor'
p3181
I110
sS'boys'
p3182
I111
sS'properly'
p3183
I111
sS'filed'
p3184
I110
sS',90706\n501191278743130113,aj_mosley20,2014-08-18'
p3185
I111
sS'coldest'
p3186
I111
sS'line'
p3187
I109
sS'but...you'
p3188
I111
sS'themselves'
p3189
I111
sS'posted'
p3190
I111
sS'consist'
p3191
I111
sS"spendin'"
p3192
I111
sS'tia'
p3193
I111
sS'"accidently"'
p3194
I111
sS'gaby'
p3195
I111
sS'up'
p3196
I23
sS'us'
p3197
I98
sS'ur'
p3198
I88
sS'um'
p3199
I110
sS'un'
p3200
I111
sS'uh'
p3201
I111
sS'fried'
p3202
I111
sS'agenda'
p3203
I111
sS'called'
p3204
I102
sS'freak'
p3205
I111
sS'curs'
p3206
I111
sS'cover'
p3207
I111
sS'and.....no'
p3208
I111
sS'disrespected'
p3209
I111
sS'coordinator'
p3210
I111
sS'single'
p3211
I105
sS'warning'
p3212
I110
sS'chat'
p3213
I109
sS'carmen'
p3214
I111
sS'modeling'
p3215
I111
sS'phantom'
p3216
I111
sS'22:03:22.0,33.8737573,-118.1264896,5544.04,for'
p3217
I111
sS'crip'
p3218
I110
sS'nah'
p3219
I103
sS'buck'
p3220
I111
sS'backs'
p3221
I111
sS'cuenta'
p3222
I111
sS'flowerrrrr'
p3223
I111
sS'nick'
p3224
I110
sS'nap'
p3225
I102
sS'coded'
p3226
I111
sS'naw'
p3227
I111
sS'income'
p3228
I107
sS'department'
p3229
I92
sS'nay'
p3230
I111
sS',90706\n501916937467613184,aj_mosley20,2014-08-20'
p3231
I111
sS'nice'
p3232
I102
sS'brushing'
p3233
I111
sS'smiles'
p3234
I111
sS'papi'
p3235
I111
sS'like"she'
p3236
I111
sS'beginnings'
p3237
I111
sS'bye!!!!!!\xe2\x9c\x8b\xe2\x9c\x8c'
p3238
I111
sS'problems'
p3239
I109
sS'ooooooh'
p3240
I111
sS'helping'
p3241
I109
sS'sideline'
p3242
I111
sS'fertilizer'
p3243
I111
sS'flowin'
p3244
I111
sS'dolla'
p3245
I111
sS'freeways'
p3246
I111
sS'kors'
p3247
I111
sS'ago'
p3248
I107
sS'vaseline'
p3249
I111
sS'lane'
p3250
I111
sS'land'
p3251
I111
sS'texted'
p3252
I109
sS'meek'
p3253
I111
sS'stressin'
p3254
I111
sS'age'
p3255
I108
sS'vehicles'
p3256
I95
sS'geeee'
p3257
I111
sS'annoyed'
p3258
I111
sS'alrighhtttttttttttt'
p3259
I111
sS'cooked'
p3260
I110
sS'kay1'
p3261
I111
sS'literally'
p3262
I110
sS"she's"
p3263
I108
sS'menace'
p3264
I111
sS'buffalo'
p3265
I111
sS'having'
p3266
I101
sS'once'
p3267
I100
sS'essay'
p3268
I111
sS'chillis'
p3269
I111
sS'\xe2\x98\xba\xef\xb8\x8f\xe2\x98\xba\xef\xb8\x8f\xe2\x98\xba\xef\xb8\x8f'
p3270
I110
sS'code'
p3271
I110
sS'jason'
p3272
I111
sS'laziness'
p3273
I111
sS'results'
p3274
I111
sS'06:02:26.0,33.8737594,-118.1264853,5544.04,i'
p3275
I111
sS'soften'
p3276
I111
sS'yayyeee'
p3277
I111
sS'dayyyy'
p3278
I111
sS'stops'
p3279
I111
sS'freakin'
p3280
I111
sS'go'
p3281
I51
sS'gn'
p3282
I111
sS'gm'
p3283
I111
sS'tweeted'
p3284
I111
sS'chillin'
p3285
I110
sS'kate'
p3286
I111
sS'lmaooooo'
p3287
I111
sS'young'
p3288
I103
sS'send'
p3289
I99
sS'nose'
p3290
I106
sS'gummed'
p3291
I111
sS'suite'
p3292
I111
sS'include'
p3293
I111
sS'18:40:39.0,33.8751342,-118.1324666,5544.04,too'
p3294
I111
sS'rememberable'
p3295
I111
sS'sent'
p3296
I109
sS'starbursts'
p3297
I110
sS'browns'
p3298
I111
sS'lust'
p3299
I111
sS'breathing'
p3300
I110
sS'garden'
p3301
I111
sS'continues'
p3302
I110
sS'putting'
p3303
I110
sS'sunny'
p3304
I111
sS'homework'
p3305
I110
sS'telling'
p3306
I106
sS'song\xe2\x80\x9d'
p3307
I111
sS'drinking'
p3308
I110
sS'wipe'
p3309
I110
sS'salad'
p3310
I111
sS'relived'
p3311
I111
sS'button'
p3312
I111
sS'gettin'
p3313
I109
sS'michael'
p3314
I111
sS"they've"
p3315
I111
sS'leader'
p3316
I111
sS'try'
p3317
I99
sS'skipped'
p3318
I111
sS'race'
p3319
I110
sS'verdict'
p3320
I111
sS'dealt'
p3321
I111
sS'havent'
p3322
I111
sS'tru'
p3323
I111
sS'rack'
p3324
I109
sS'carls'
p3325
I111
sS'odz'
p3326
I111
sS'cap'
p3327
I111
sS'booty'
p3328
I110
sS's.c'
p3329
I110
sS'khalifa'
p3330
I111
sS'stellarose'
p3331
I111
sS'wrestling'
p3332
I109
sS'ham'
p3333
I111
sS'licensed'
p3334
I110
sS'jump'
p3335
I110
sS'fina'
p3336
I111
sS'back,90706\n483318918388256768,asap_falcon,2014-06-29'
p3337
I111
sS'video'
p3338
I110
sS'traveling'
p3339
I111
sS'picked'
p3340
I111
sS'nephew'
p3341
I109
sS'ummm'
p3342
I111
sS'acid'
p3343
I111
sS'odd'
p3344
I110
sS'ever,90706\n489148443604971520,asap_falcon,2014-07-15'
p3345
I111
sS'plays'
p3346
I111
sS'power'
p3347
I111
sS'junior'
p3348
I111
sS'chicago'
p3349
I110
sS'giving'
p3350
I111
sS'anthem'
p3351
I111
sS'networks'
p3352
I111
sS'waiting'
p3353
I97
sS'twins'
p3354
I109
sS'it.,90706\n453987397219262464,_shainapple,2014-04-09'
p3355
I111
sS'undone"'
p3356
I111
sS'twinz'
p3357
I111
sS'wednesdays'
p3358
I111
sS'body'
p3359
I106
sS'locked'
p3360
I111
sS'caza'
p3361
I111
sS'degree'
p3362
I109
sS'communicate'
p3363
I111
sS'16:41:15.0,33.8765761,-118.1308667,5544.04,ppl'
p3364
I111
sS'cal'
p3365
I111
sS'commercial'
p3366
I111
sS'...see'
p3367
I111
sS'packing'
p3368
I110
sS'let'
p3369
I81
sS'others'
p3370
I109
sS'sing'
p3371
I108
sS'invented'
p3372
I111
sS'....denzel'
p3373
I111
sS'extreme'
p3374
I111
sS'nites'
p3375
I111
sS'great'
p3376
I102
sS'05:17:12.0,33.87625619,-118.12746981,5544.04,out'
p3377
I111
sS'laughter'
p3378
I110
sS'31'
p3379
I111
sS'30'
p3380
I109
sS'shades'
p3381
I111
sS'leaving'
p3382
I110
sS'ment'
p3383
I111
sS'ovo'
p3384
I111
sS"weren't"
p3385
I111
sS'bizzzz'
p3386
I111
sS'popcorn'
p3387
I111
sS'proof'
p3388
I111
sS'makes'
p3389
I107
sS'20:06:44.0,33.8737604,-118.13130495,5544.04,dmv'
p3390
I111
sS'thats'
p3391
I100
sS'named'
p3392
I110
sS'"probably"'
p3393
I111
sS'wic'
p3394
I111
sS'mannn'
p3395
I110
sS'bittersweet'
p3396
I111
sS'attend'
p3397
I111
sS'win'
p3398
I107
sS'app'
p3399
I111
sS'manage'
p3400
I111
sS'snapped'
p3401
I111
sS'wit'
p3402
I103
sS'limo'
p3403
I111
sS'motor'
p3404
I92
sS'duck'
p3405
I111
sS'singing'
p3406
I111
sS'wiz'
p3407
I111
sS'buenos.momentos'
p3408
I111
sS'standing'
p3409
I110
sS'no..lol'
p3410
I111
sS'use'
p3411
I106
sS'hahahahaha'
p3412
I110
sS'from'
p3413
I72
sS'klowing'
p3414
I111
sS'clocking'
p3415
I111
sS'&'
p3416
I103
sS'4am..after'
p3417
I111
sS"08:02:56.0,33.8737742,-118.1264966,5544.04,i'm"
p3418
I111
sS"braini'm"
p3419
I111
sS'next'
p3420
I95
sS'procrastinate'
p3421
I111
sS'few'
p3422
I96
sS'righhhht'
p3423
I111
sS'camera'
p3424
I109
sS'scariest'
p3425
I111
sS'crab'
p3426
I111
sS'lock'
p3427
I110
sS'21:28:01.0,33.87355064,-118.13100362,5544.04,waiting'
p3428
I111
sS'chucke'
p3429
I111
sS'monae'
p3430
I111
sS'mine>'
p3431
I111
sS'popped'
p3432
I111
sS'clever'
p3433
I111
sS'babe'
p3434
I110
sS'now,90706\n425705587632918528,kkkaptainhook,2014-01-21'
p3435
I111
sS'today,90706\n477567321775415296,asap_falcon,2014-06-13'
p3436
I111
sS'started'
p3437
I107
sS'becomes'
p3438
I111
sS'econ'
p3439
I111
sS'wanted/invited._'
p3440
I111
sS'about'
p3441
I54
sS'confused'
p3442
I110
sS'!\xe2\x80\x9d'
p3443
I111
sS'sore'
p3444
I109
sS'soooooooo'
p3445
I111
sS'carrying'
p3446
I111
sS'talks'
p3447
I111
sS'baby'
p3448
I70
sS'4am'
p3449
I111
sS'whatsoever'
p3450
I111
sS'women'
p3451
I111
sS'.uugh'
p3452
I111
sS'balls'
p3453
I111
sS'practicing'
p3454
I111
sS'us"'
p3455
I111
sS'becoming'
p3456
I111
sS'locks'
p3457
I110
sS'this'
p3458
I18
sS'challenge'
p3459
I108
sS'package'
p3460
I110
sS'stroke'
p3461
I111
sS'anywhere'
p3462
I111
sS'coachella*\xe2\x80\x9d'
p3463
I111
sS'island'
p3464
I111
sS'meet'
p3465
I109
sS'criiiiip'
p3466
I111
sS'spilled'
p3467
I111
sS'dropped'
p3468
I111
sS'control'
p3469
I111
sS'giants'
p3470
I110
sS'perfecting'
p3471
I111
sS'yeaaaa'
p3472
I110
sS'bent'
p3473
I111
sS'thirsty'
p3474
I110
sS'aniece'
p3475
I95
sS'pad'
p3476
I111
sS'tax'
p3477
I108
sS'pieces'
p3478
I110
sS'high'
p3479
I105
sS'professor'
p3480
I111
sS'something'
p3481
I101
sS'tab'
p3482
I111
sS'$35+'
p3483
I111
sS'blvd'
p3484
I111
sS'skirt'
p3485
I110
sS'sis'
p3486
I110
sS'revaluation'
p3487
I111
sS'mindgone'
p3488
I111
sS'sit'
p3489
I109
sS'vibe'
p3490
I111
sS'sib'
p3491
I110
sS'responsibilities'
p3492
I111
sS'chisom'
p3493
I111
sS'pair'
p3494
I111
sS'sid'
p3495
I111
sS'suspend'
p3496
I111
sS'instead'
p3497
I103
sS'believes'
p3498
I111
sS'sighting'
p3499
I111
sS'thee'
p3500
I111
sS'thotful...u'
p3501
I111
sS'....so'
p3502
I111
sS'stop'
p3503
I95
sS'lmfaoo'
p3504
I109
sS'bothered'
p3505
I111
sS'homegirls'
p3506
I111
sS'cheeer'
p3507
I111
sS"06:20:54.0,33.8737392,-118.1264846,5544.04,i'm"
p3508
I111
sS'puppies'
p3509
I111
sS'hahahaha'
p3510
I107
sS'*whose'
p3511
I111
sS'17:19:02.0,33.8768351,-118.1284255,5544.04,i'
p3512
I111
sS'somethin'
p3513
I110
sS'realized'
p3514
I111
sS'dolled'
p3515
I110
sS'light'
p3516
I111
sS'lame'
p3517
I111
sS'lines'
p3518
I111
sS'meany'
p3519
I111
sS'9am'
p3520
I111
sS'h-town'
p3521
I111
sS'honestly'
p3522
I111
sS'noches'
p3523
I111
sS'addiction'
p3524
I110
sS'lined'
p3525
I111
sS'(281)-330-8004\xe2\x80\x9d'
p3526
I111
sS'nordstroms'
p3527
I111
sS'thigh'
p3528
I111
sS'knotting'
p3529
I111
sS'baddie'
p3530
I110
sS'move'
p3531
I110
sS'dming'
p3532
I111
sS'130'
p3533
I111
sS"won't"
p3534
I93
sS'looks'
p3535
I100
sS'avinna'
p3536
I111
sS'horny'
p3537
I111
sS'bunch'
p3538
I110
sS'perfect'
p3539
I109
sS'1'
p3540
I106
sS'blake'
p3541
I111
sS'slim400'
p3542
I111
sS'la'
p3543
I110
sS'chosen'
p3544
I111
sS'lo'
p3545
I108
sS'perf'
p3546
I111
sS'though.,90706\n501278057487818752,aj_mosley20,2014-08-18'
p3547
I111
sS'[pic]'
p3548
I111
sS'willing'
p3549
I111
sS'spoiling'
p3550
I110
sS'johnny'
p3551
I111
sS'pussy'
p3552
I110
sS'orange'
p3553
I108
sS'puerto'
p3554
I111
sS'criminal'
p3555
I109
sS'2013'
p3556
I108
sS'dad'
p3557
I104
sS'flex'
p3558
I111
sS'designs'
p3559
I110
sS'seatbelt'
p3560
I111
sS'staay'
p3561
I111
sS'docs'
p3562
I111
sS'practice'
p3563
I109
sS'dat'
p3564
I108
sS'mention'
p3565
I110
sS'11'
p3566
I111
sS'kiss'
p3567
I109
sS'hands'
p3568
I108
sS'front'
p3569
I108
sS'biggaaa'
p3570
I111
sS'cage'
p3571
I111
sS'day'
p3572
I53
sS'daz'
p3573
I111
sS'canaan'
p3574
I111
sS'february'
p3575
I111
sS'feast'
p3576
I111
sS'betta'
p3577
I110
sS'ohhhhhh'
p3578
I110
sS'slide'
p3579
I110
sS'mode'
p3580
I110
sS'truth'
p3581
I103
sS'crossing'
p3582
I111
sS'champ'
p3583
I111
sS'michaels'
p3584
I111
sS'bills'
p3585
I108
sS'shaking'
p3586
I110
sS'patron'
p3587
I111
sS'glasses'
p3588
I110
sS'funny\xe2\x80\x9d'
p3589
I111
sS'doing'
p3590
I94
sS'apologize'
p3591
I111
sS'snaps'
p3592
I111
sS'bowled'
p3593
I111
sS'society'
p3594
I111
sS'-sad'
p3595
I111
sS'books'
p3596
I110
sS'do.\xe2\x80\x9d'
p3597
I111
sS'weave'
p3598
I111
sS'our'
p3599
I99
sS'salesman'
p3600
I111
sS'special'
p3601
I111
sS'out'
p3602
I42
sS'butch'
p3603
I111
sS'no..hoe'
p3604
I111
sS'entertainment'
p3605
I111
sS'butt\xe2\x80\x9d'
p3606
I111
sS'w/o'
p3607
I111
sS'ricky'
p3608
I111
sS'stayin'
p3609
I111
sS'stud'
p3610
I111
sS'hilarious'
p3611
I107
sS',90706\n485276305043103744,naitsirk_oremor,2014-07-05'
p3612
I111
sS',90706\n501130418209308673,aj_mosley20,2014-08-17'
p3613
I111
sS'cause'
p3614
I100
sS'reg'
p3615
I110
sS'red'
p3616
I109
sS"one's"
p3617
I111
sS'afford'
p3618
I111
sS'shut'
p3619
I104
sS'over..lol'
p3620
I111
sS'do!!,90706\n501800813639921664,aj_mosley20,2014-08-19'
p3621
I111
sS'ugliest'
p3622
I111
sS'mu\xc3\xb1eca'
p3623
I111
sS'duffle'
p3624
I111
sS'bleek'
p3625
I111
sS'york'
p3626
I111
sS'answers\xe2\x80\x9d'
p3627
I111
sS'embarrass'
p3628
I111
sS'sitting'
p3629
I111
sS"rey's"
p3630
I111
sS'princess'
p3631
I111
sS'baptism'
p3632
I111
sS'"can'
p3633
I111
sS'scary'
p3634
I111
sS'$200$400$300$500$150'
p3635
I111
sS'nigga.,90706\n501116987003502593,aj_mosley20,2014-08-17'
p3636
I111
sS'yard'
p3637
I111
sS'g'
p3638
I111
sS'determining'
p3639
I111
sS'could'
p3640
I88
sS'scars'
p3641
I111
sS'nipsey'
p3642
I111
sS'times'
p3643
I105
sS'conversation'
p3644
I111
sS'keem'
p3645
I111
sS'4th'
p3646
I107
sS'davis'
p3647
I108
sS'wrist'
p3648
I111
sS'retail'
p3649
I108
sS'designed'
p3650
I111
sS'marmar'
p3651
I111
sS'student'
p3652
I111
sS'vh1'
p3653
I111
sS'*have'
p3654
I111
sS'bars'
p3655
I111
sS'jesus'
p3656
I106
sS'whoop'
p3657
I110
sS'$45+'
p3658
I110
sS'nigggga'
p3659
I111
sS'bitch'
p3660
I69
sS'suehiro'
p3661
I111
sS'reached'
p3662
I111
sS'chilllllll'
p3663
I111
sS'"turnt'
p3664
I111
sS'quality'
p3665
I111
sS"doesn't"
p3666
I103
sS'sadly'
p3667
I111
sS'monkey'
p3668
I109
sS'10x'
p3669
I111
sS'los'
p3670
I111
sS'ordering'
p3671
I111
sS'myspace'
p3672
I111
sS'accent'
p3673
I111
sS'system'
p3674
I110
sS'their'
p3675
I103
sS'attack'
p3676
I110
sS'idea.,90706\n501252377215660033,aj_mosley20,2014-08-18'
p3677
I111
sS'wrapped'
p3678
I111
sS'mondays'
p3679
I111
sS'messing'
p3680
I110
sS'realshit'
p3681
I111
sS'22:32:28.0,33.87486313,-118.12617996,5544.04,only'
p3682
I111
sS"07:00:10.0,33.87441737,-118.12546193,5544.04,it's"
p3683
I111
sS'2-1'
p3684
I111
sS'stomach'
p3685
I109
sS'stars'
p3686
I111
sS'\xd8\xaa\xd9\x86\xd8\xa8\xd8\xad'
p3687
I111
sS'shorts'
p3688
I108
sS'behindddd'
p3689
I111
sS'completed'
p3690
I111
sS'exactly'
p3691
I108
sS'putos'
p3692
I111
sS'megan'
p3693
I106
sS'vouch'
p3694
I110
sS'verse'
p3695
I110
sS'nailshop'
p3696
I107
sS'july'
p3697
I109
sS'tajah'
p3698
I111
sS'herself'
p3699
I111
sS'hatelove'
p3700
I111
sS'neck'
p3701
I110
sS'loved'
p3702
I109
sS'males'
p3703
I111
sS'readyyyyyyyy'
p3704
I111
sS'ben'
p3705
I111
sS'22nd'
p3706
I111
sS'bloodiest'
p3707
I111
sS'wet'
p3708
I111
sS'reyes'
p3709
I111
sS'bed'
p3710
I91
sS'd(^>~)b......finally'
p3711
I111
sS'patients'
p3712
I111
sS'rum'
p3713
I111
sS'cravings'
p3714
I111
sS'loves'
p3715
I106
sS'candles'
p3716
I108
sS'identical'
p3717
I111
sS'bet'
p3718
I106
sS'*dye'
p3719
I111
sS'are\xe2\x80\xa6'
p3720
I111
sS'aoki'
p3721
I111
sS'false'
p3722
I111
sS'wakes'
p3723
I111
sS'julian'
p3724
I111
sS'teenagers'
p3725
I111
sS'tonight'
p3726
I99
sS'discussions'
p3727
I111
sS'defending'
p3728
I111
sS'have'
p3729
I30
sS'need'
p3730
I44
sS'curved'
p3731
I111
sS'rican'
p3732
I111
sS'dementia'
p3733
I111
sS'clearly'
p3734
I110
sS'catholic'
p3735
I110
sS'afraid'
p3736
I111
sS'angle'
p3737
I111
sS'mil'
p3738
I111
sS'congrats'
p3739
I105
sS'mia'
p3740
I111
sS'studying'
p3741
I111
sS'pharrell'
p3742
I111
sS'able'
p3743
I107
sS'tendencies'
p3744
I111
sS'battles'
p3745
I111
sS'arm'
p3746
I111
sS'mix'
p3747
I111
sS'sexier'
p3748
I111
sS'gahwww'
p3749
I111
sS'which'
p3750
I108
sS'funds'
p3751
I111
sS'fetish'
p3752
I111
sS'korean'
p3753
I111
sS'='
p3754
I111
sS'youuuu'
p3755
I110
sS',90706\n501612157524385792,aj_mosley20,2014-08-19'
p3756
I111
sS'worldwide'
p3757
I111
sS'unless'
p3758
I107
sS'delvy'
p3759
I110
sS'tatiana'
p3760
I111
sS'aww'
p3761
I103
sS'jaay'
p3762
I111
sS'who'
p3763
I80
sS'20:44:11.0,33.8766745,-118.1260336,5544.04,take'
p3764
I111
sS'lmaooo'
p3765
I111
sS"where's"
p3766
I109
sS'jaleyn'
p3767
I111
sS'sats'
p3768
I111
sS'montana'
p3769
I111
sS'connected'
p3770
I111
sS'future'
p3771
I108
sS'why'
p3772
I70
sS'fuxking'
p3773
I111
sS'crazyyyyyyy'
p3774
I111
sS'haaaate'
p3775
I111
sS'\xd8\xa7\xd8\xa8\xd8\xaa\xd8\xaf\xd8\xa7\xd8\xa6\xd9\x8a'
p3776
I111
sS'brought'
p3777
I111
sS'face'
p3778
I105
sS'looked'
p3779
I109
sS"you'll"
p3780
I107
sS';-d'
p3781
I111
sS'park)'
p3782
I110
sS'turk'
p3783
I111
sS'pictures'
p3784
I110
sS'contradictory'
p3785
I111
sS'skinny'
p3786
I109
sS'mell!!,90706\n501240592077053952,aj_mosley20,2014-08-18'
p3787
I111
sS'indi'
p3788
I110
sS'fact'
p3789
I109
sS'gain'
p3790
I111
sS'son'
p3791
I107
sS'booked'
p3792
I111
sS'kiddio'
p3793
I111
sS'madder'
p3794
I111
sS'chassidy!!!,90706\n501285651505893376,aj_mosley20,2014-08-18'
p3795
I111
sS'tye-dye'
p3796
I111
sS'text'
p3797
I90
sS'stove'
p3798
I111
sS'granny'
p3799
I109
sS'anyway'
p3800
I110
sS'bring'
p3801
I108
sS'biker'
p3802
I111
sS'him????????????this'
p3803
I111
sS'mjcorn'
p3804
I111
sS'chicken'
p3805
I111
sS'$50+'
p3806
I110
sS'yaoi!,90706\n503596260465836032,jkimzzz,2014-08-24'
p3807
I111
sS'ayee'
p3808
I111
sS'meeeeee'
p3809
I111
sS'knowledge'
p3810
I111
sS'tire'
p3811
I110
sS'sparks'
p3812
I111
sS'downstairs'
p3813
I110
sS'2for1'
p3814
I111
sS'jar'
p3815
I111
sS'woo'
p3816
I111
sS'should'
p3817
I89
sS'mean?\xe2\x80\x9d'
p3818
I111
sS'bernard'
p3819
I111
sS'sista'
p3820
I106
sS'tape'
p3821
I110
sS'lemme'
p3822
I111
sS'combo'
p3823
I111
sS'local'
p3824
I111
sS'hope'
p3825
I90
sS'isha'
p3826
I111
sS'meant'
p3827
I110
sS'workaholics'
p3828
I109
sS'handle'
p3829
I110
sS'listened'
p3830
I110
sS'means'
p3831
I106
sS'beat'
p3832
I106
sS'mr.baker'
p3833
I111
sS'dope'
p3834
I110
sS'flirting'
p3835
I110
sS'lucky'
p3836
I106
sS"angela's"
p3837
I111
sS'tbh'
p3838
I111
sS'awww'
p3839
I107
sS'ones'
p3840
I105
sS'words'
p3841
I108
sS'score'
p3842
I111
sS'christie'
p3843
I111
sS'kong'
p3844
I111
sS"macy's"
p3845
I111
sS'ghetto'
p3846
I109
sS'gray'
p3847
I110
sS'donate'
p3848
I111
sS'scene'
p3849
I111
sS"kobe's"
p3850
I111
sS'brain'
p3851
I111
sS'monopoly'
p3852
I111
sS'ughh'
p3853
I111
sS'taxes'
p3854
I111
sS'calling'
p3855
I109
sS'stuff'
p3856
I105
sS'she'
p3857
I49
sS'havin'
p3858
I111
sS"end's"
p3859
I111
sS'lyric'
p3860
I111
sS'grab'
p3861
I111
sS'fixed'
p3862
I110
sS'b\xe2\x80\x9d'
p3863
I111
sS'motorcycle'
p3864
I110
sS'spotted'
p3865
I111
sS'ikaw'
p3866
I111
sS'btw'
p3867
I111
sS'lives'
p3868
I111
sS'brendino'
p3869
I111
sS'prayers'
p3870
I105
sS'tossing'
p3871
I111
sS'national'
p3872
I110
sS'cruise'
p3873
I111
sS'thankss'
p3874
I111
sS'packet'
p3875
I111
sS'freeze'
p3876
I111
sS'butt-'
p3877
I111
sS'molly'
p3878
I111
sS'violet'
p3879
I107
sS'sorry,90706\n468452916898975747,spacejamjr_,2014-05-19'
p3880
I111
sS',90706\n453043908067336192,ritalakee,2014-04-07'
p3881
I111
sS'packed'
p3882
I111
sS'closer'
p3883
I111
sS'unzip'
p3884
I111
sS'destiny'
p3885
I110
sS'luv'
p3886
I95
sS'record'
p3887
I110
sS'gabby'
p3888
I111
sS'chapstick'
p3889
I111
sS'playas'
p3890
I111
sS'dodgers'
p3891
I111
sS'state'
p3892
I108
sS'miguel'
p3893
I110
sS'closed'
p3894
I111
sS'luh'
p3895
I110
sS'limit'
p3896
I111
sS'derulo'
p3897
I111
sS'email'
p3898
I111
sS'midnight'
p3899
I111
sS'tent'
p3900
I109
sS'lately?,90706\n503595464923820032,jkimzzz,2014-08-24'
p3901
I111
sS'jos'
p3902
I111
sS'exam'
p3903
I111
sS'p2b'
p3904
I110
sS'word\xe2\x80\x9d'
p3905
I111
sS'curious'
p3906
I111
sS'deliver'
p3907
I111
sS'\xd9\x8a\xd8\xa7\xd9\x84\xd9\x8a\xd8\xaa'
p3908
I111
sS'kicking'
p3909
I111
sS'job'
p3910
I99
sS'apes'
p3911
I111
sS'joe'
p3912
I111
sS'spoil'
p3913
I110
sS'felicia'
p3914
I111
sS'precious'
p3915
I111
sS'23:14:56.0,33.87610196,-118.12529647,5544.04,you'
p3916
I111
sS'hits'
p3917
I110
sS'figured'
p3918
I110
sS'career'
p3919
I110
sS'joke'
p3920
I106
sS'taking'
p3921
I107
sS'sayin'
p3922
I111
sS'22:06:37.0,33.8737789,-118.1264842,5544.04,my'
p3923
I111
sS'agree'
p3924
I111
sS'april'
p3925
I111
sS'atleast'
p3926
I106
sS'night!!,90706\n501259432806715392,aj_mosley20,2014-08-18'
p3927
I111
sS'puff'
p3928
I110
sS':*'
p3929
I111
sS'rodney'
p3930
I111
sS'kinds'
p3931
I111
sS'glorious'
p3932
I111
sS'otherwise'
p3933
I110
sS'comment'
p3934
I111
sS'vent'
p3935
I111
sS'adjusted'
p3936
I111
sS'gooood'
p3937
I111
sS'co'
p3938
I109
sS'together>'
p3939
I111
sS'toilet'
p3940
I111
sS'tuesday'
p3941
I110
sS'bikini'
p3942
I111
sS'growin'
p3943
I111
sS'walk'
p3944
I109
sS'laugh'
p3945
I106
sS'news'
p3946
I111
sS'deez'
p3947
I111
sS'strikeouts'
p3948
I111
sS'eyelashes'
p3949
I111
sS'remix'
p3950
I111
sS'yay'
p3951
I107
sS'(bellflower'
p3952
I96
sS'birthdayyyy'
p3953
I111
sS"it's"
p3954
I48
sS'eyez'
p3955
I111
sS'quiz'
p3956
I108
sS'yam'
p3957
I111
sS'tutor'
p3958
I111
sS'drank'
p3959
I111
sS'treat'
p3960
I107
sS'bby'
p3961
I110
sS'certain'
p3962
I110
sS',90706\n468450677585620992,spacejamjr_,2014-05-19'
p3963
I111
sS'hottest'
p3964
I111
sS'favoriting'
p3965
I111
sS'bbq'
p3966
I111
sS'>'
p3967
I110
sS'peeee'
p3968
I111
sS'mike'
p3969
I107
sS'glock'
p3970
I111
sS'verizon'
p3971
I111
sS'22:36:27.0,33.87363988,-118.13103106,5544.04,officially'
p3972
I111
sS'"unfollows"\xe2\x80\x9d'
p3973
I111
sS'hmu'
p3974
I110
sS'$1750'
p3975
I111
sS'$65-85'
p3976
I111
sS'finished'
p3977
I109
sS'accident'
p3978
I110
sS'-.-'
p3979
I111
sS'showered'
p3980
I111
sS'kicks'
p3981
I110
sS'man...i'
p3982
I111
sS'06:26:41.0,33.87580767,-118.125724,5544.04,lol'
p3983
I111
sS'bye'
p3984
I109
sS'ysl'
p3985
I111
sS'harder'
p3986
I110
sS'choices'
p3987
I110
sS'will'
p3988
I56
sS'gucci'
p3989
I111
sS"richard's"
p3990
I111
sS'hahaha'
p3991
I108
sS'wild'
p3992
I109
sS'is?\xe2\x80\x9d'
p3993
I111
sS'~'
p3994
I111
sS'supply'
p3995
I111
sS'file'
p3996
I110
sS'vg'
p3997
I111
sS'almost'
p3998
I105
sS'mannnnnn'
p3999
I111
sS'\xd8\xa7\xd9\x86\xd8\xa7'
p4000
I111
sS'weighed'
p4001
I111
sS'girlfriend'
p4002
I111
sS'vs'
p4003
I109
sS'closets'
p4004
I111
sS'avi'
p4005
I109
sS'tho?"'
p4006
I111
sS'lifetime'
p4007
I111
sS'"over"'
p4008
I111
sS'ave'
p4009
I111
sS'uggs'
p4010
I110
sS'tattoo'
p4011
I109
sS'shooting'
p4012
I110
sS'-___-'
p4013
I110
sS')'
p4014
I111
sS'cross'
p4015
I111
sS'worreed'
p4016
I111
sS'wantin'
p4017
I111
sS'auto'
p4018
I111
sS'party'
p4019
I102
sS'strawberries'
p4020
I111
sS'gets'
p4021
I102
sS'difficult'
p4022
I111
sS'\xd8\xa7\xd9\x84\xd9\x82\xd9\x85\xd8\xb1'
p4023
I111
sS'marlon'
p4024
I111
sS'ball'
p4025
I109
sS'lol,90706\n501218913724534784,ceelesterobles,2014-08-18'
p4026
I111
sS'brag'
p4027
I111
sS'toooo'
p4028
I111
sS'domonican'
p4029
I111
sS'gorgeous'
p4030
I111
sS'drink'
p4031
I109
sS'band,90706\n501267637536428032,aj_mosley20,2014-08-18'
p4032
I111
sS'whewwwww'
p4033
I111
sS'disconnect'
p4034
I111
sS'compared'
p4035
I111
sS',90706\n497086251582124032,los_burritos77,2014-08-06'
p4036
I111
sS"d13n's"
p4037
I111
sS'fucked'
p4038
I100
sS'croissants'
p4039
I111
sS'spree'
p4040
I111
sS'snuggie'
p4041
I111
sS'l.a'
p4042
I108
sS'cultch'
p4043
I111
sS'pull'
p4044
I106
sS'clips'
p4045
I111
sS'off'
p4046
I65
sS'center'
p4047
I111
sS'fully'
p4048
I111
sS'i'
p4049
I1
sS'weapon'
p4050
I111
sS'well'
p4051
I87
sS'tuesdays'
p4052
I111
sS'bran'
p4053
I111
sS'thought'
p4054
I96
sS'theses'
p4055
I110
sS'wya'
p4056
I111
sS'english'
p4057
I109
sS'slummmmped'
p4058
I111
sS'usual'
p4059
I111
sS'11/18'
p4060
I111
sS'excessive'
p4061
I110
sS'cried'
p4062
I110
sS'less'
p4063
I111
sS"should've"
p4064
I111
sS"morning!!!'n"
p4065
I111
sS'obtain'
p4066
I111
sS'arriving'
p4067
I111
sS'soulja'
p4068
I111
sS'rooms'
p4069
I111
sS'seats'
p4070
I110
sS'graduate'
p4071
I111
sS'up.,90706\n501619040586977280,aj_mosley20,2014-08-19'
p4072
I111
sS'generous'
p4073
I111
sS'titty'
p4074
I111
sS'ranchers'
p4075
I111
sS'bragging'
p4076
I110
sS'*fell'
p4077
I111
sS'drunk'
p4078
I107
sS'smith'
p4079
I110
sS'gum'
p4080
I111
sS'capabilities'
p4081
I111
sS'bullshit'
p4082
I106
sS'other'
p4083
I103
sS'attractive'
p4084
I111
sS'showers'
p4085
I111
sS'crack'
p4086
I110
sS'destroy'
p4087
I111
sS'ohhh'
p4088
I107
sS'jars'
p4089
I111
sS'smart'
p4090
I106
sS'08:37:34.0,33.8707251,-118.1282478,5544.04,happpy'
p4091
I111
sS'knob'
p4092
I111
sS'still,90706\n423698615870042112,rayminder,2014-01-16'
p4093
I111
sS'talkie'
p4094
I111
sS'government'
p4095
I111
sS'boooomb'
p4096
I111
sS"somethin'"
p4097
I111
sS"who's"
p4098
I106
sS'pants'
p4099
I110
sS'fyl'
p4100
I111
sS'yeeeeeeee'
p4101
I111
sS'five'
p4102
I110
sS'know'
p4103
I43
sS'dish'
p4104
I111
sS'bottoms'
p4105
I111
sS'belgium'
p4106
I110
sS'.:-('
p4107
I111
sS'like'
p4108
I21
sS'lost'
p4109
I107
sS'"and'
p4110
I111
sS'ring'
p4111
I109
sS'tinted'
p4112
I111
sS'chica'
p4113
I111
sS'payments'
p4114
I111
sS'lose'
p4115
I109
sS'nerves'
p4116
I110
sS'boo!!!!,90706\n453977925168025600,_shainapple,2014-04-09'
p4117
I111
sS'page'
p4118
I111
sS'italian'
p4119
I108
sS'shed'
p4120
I111
sS'because'
p4121
I78
sS'fuvk'
p4122
I111
sS'twitter'
p4123
I95
sS'church'
p4124
I107
sS'searching'
p4125
I110
sS'alive'
p4126
I110
sS'remy'
p4127
I111
sS'hair'
p4128
I85
sS'wider'
p4129
I111
sS"celebrity's"
p4130
I111
sS'twatchers'
p4131
I111
sS'otunga'
p4132
I111
sS'home'
p4133
I77
sS'supportive'
p4134
I111
sS'$400'
p4135
I110
sS'cribbo'
p4136
I111
sS'happens'
p4137
I110
sS'"what'
p4138
I111
sS'jeremy'
p4139
I111
sS'lead'
p4140
I110
sS'wr'
p4141
I111
sS'broad'
p4142
I106
sS'lean'
p4143
I111
sS'grinding'
p4144
I111
sS'162009'
p4145
I111
sS'appreciative'
p4146
I111
sS'does'
p4147
I102
sS'passion'
p4148
I111
sS'shouldve'
p4149
I111
sS'f'
p4150
I111
sS'schedule'
p4151
I111
sS'acronym'
p4152
I111
sS'sasha'
p4153
I111
sS'tae'
p4154
I111
sS'teams'
p4155
I111
sS'although'
p4156
I109
sS'a-1'
p4157
I110
sS'naps'
p4158
I111
sS'nga'
p4159
I111
sS'stage'
p4160
I111
sS'gained'
p4161
I111
sS'gifts'
p4162
I111
sS'sister'
p4163
I106
sS':-)'
p4164
I111
sS'actual'
p4165
I110
sS'knowin'
p4166
I111
sS'getting'
p4167
I93
sS'rari'
p4168
I111
sS'waist'
p4169
I111
sS'basis'
p4170
I111
sS'hotlinks'
p4171
I111
sS'glade'
p4172
I111
sS'toko'
p4173
I111
sS'mofo'
p4174
I111
sS'swear'
p4175
I91
sS'sweat'
p4176
I110
sS'ti'
p4177
I111
sS'tongue'
p4178
I108
sS'niggggaaaaaa'
p4179
I111
sS'own'
p4180
I100
sS'el'
p4181
I111
sS'owe'
p4182
I108
sS'payment'
p4183
I110
sS'theyy'
p4184
I111
sS'!*'
p4185
I111
sS'washington'
p4186
I111
sS'cocoa'
p4187
I111
sS'damnnn'
p4188
I110
sS'weather'
p4189
I111
sS'promise'
p4190
I108
sS'female'
p4191
I110
sS'impatient'
p4192
I111
sS'21:44:56.0,33.8768108,-118.1270296,5544.04,okay'
p4193
I111
sS'mere'
p4194
I110
sS'eh'
p4195
I111
sS'wack'
p4196
I110
sS'meeee'
p4197
I111
sS'mell.,90706\n501915569482764289,aj_mosley20,2014-08-20'
p4198
I111
sS'apps'
p4199
I111
sS'secret'
p4200
I109
sS'spots'
p4201
I111
sS'kidding'
p4202
I106
sS'bump'
p4203
I111
sS'trigger'
p4204
I111
sS'omgggggg'
p4205
I111
sS'frustration'
p4206
I111
sS'congrats,90706\n493550254474555393,_fashizzlee_,2014-07-28'
p4207
I111
sS'biggest'
p4208
I111
sS"tweakin'"
p4209
I111
sS'tamar'
p4210
I111
sS'yrs'
p4211
I111
sS'function'
p4212
I108
sS'scouting'
p4213
I111
sS'bitchez'
p4214
I109
sS'buy'
p4215
I109
sS'alexa'
p4216
I111
sS'mkaaayy'
p4217
I111
sS"i've"
p4218
I84
sS'fasho'
p4219
I107
sS'hs'
p4220
I110
sS'thunda'
p4221
I111
sS'bitches'
p4222
I85
sS'hw'
p4223
I103
sS'but'
p4224
I25
sS'jkjkjkjk'
p4225
I111
sS'reminds'
p4226
I111
sS'hi'
p4227
I107
sS'bun'
p4228
I109
sS'ho'
p4229
I111
sS'mugshot'
p4230
I111
sS'bum'
p4231
I105
sS'bub'
p4232
I111
sS'micaelllaa'
p4233
I111
sS'predicaments'
p4234
I111
sS'ha'
p4235
I101
sS'gwop'
p4236
I111
sS'eat'
p4237
I106
sS'bud'
p4238
I111
sS'he'
p4239
I33
sS'chis'
p4240
I111
sS'coool'
p4241
I111
sS'made'
p4242
I96
sS'beds'
p4243
I111
sS'glory'
p4244
I110
sS'wish'
p4245
I92
sS'cells'
p4246
I111
sS'j'
p4247
I110
sS'smooth'
p4248
I111
sS'flip'
p4249
I111
sS'signed'
p4250
I111
sS'broads'
p4251
I106
sS'easyyyyyy'
p4252
I111
sS'levis'
p4253
I111
sS'empty'
p4254
I111
sS'dmv'
p4255
I94
sS'\xd9\x85\xd8\xaa\xd9\x88\xd8\xb3\xd8\xb7'
p4256
I111
sS'problem'
p4257
I108
sS'piece'
p4258
I110
sS'minutes'
p4259
I106
sS'home..:('
p4260
I111
sS'dots'
p4261
I111
sS'successfully'
p4262
I111
sS'wine"'
p4263
I111
sS'05:12:42.0,33.87806,-118.1275052,5544.04,lil'
p4264
I111
sS'cordial'
p4265
I111
sS'recognize'
p4266
I107
sS'pic'
p4267
I95
sS'meetin'
p4268
I111
sS'frames'
p4269
I111
sS'hopkins'
p4270
I111
sS'conan'
p4271
I111
sS'periods'
p4272
I111
sS'budget'
p4273
I111
sS'reflecting'
p4274
I110
sS'kissed'
p4275
I110
sS'happen'
p4276
I110
sS'diego'
p4277
I111
sS'spell'
p4278
I111
sS'avoided'
p4279
I111
sS'truth\xe2\x80\x9d'
p4280
I111
sS'variety'
p4281
I111
sS'yayyyyyy'
p4282
I111
sS'dressed'
p4283
I109
sS'45'
p4284
I111
sS'no\xe2\x80\x9d'
p4285
I111
sS'bushes'
p4286
I111
sS'lately'
p4287
I108
sS'fuck,90706\n503691538296090624,allycollette143,2014-08-24'
p4288
I111
sS'book'
p4289
I107
sS'popping'
p4290
I111
sS'sick'
p4291
I104
sS'weekend.,90706\n501620433016197121,aj_mosley20,2014-08-19'
p4292
I111
sS'7/11'
p4293
I111
sS'*miguel'
p4294
I111
sS'dresses'
p4295
I111
sS'conclusion'
p4296
I111
sS'ora'
p4297
I111
sS'star'
p4298
I107
sS'monday'
p4299
I109
sS'duudes'
p4300
I111
sS'class'
p4301
I103
sS'raping'
p4302
I111
sS'stay'
p4303
I85
sS'righr'
p4304
I111
sS'chance'
p4305
I110
sS'plannin'
p4306
I111
sS'log'
p4307
I111
sS'kinda'
p4308
I105
sS'time\xe2\x80\xa6.meaning'
p4309
I111
sS'leggings'
p4310
I111
sS'at?._'
p4311
I111
sS'over?"'
p4312
I111
sS'friends'
p4313
I97
sS'goin'
p4314
I106
sS'w/flat'
p4315
I111
sS'jammmm'
p4316
I111
sS'using'
p4317
I111
sS'baker'
p4318
I111
sS'ughhhhh'
p4319
I111
sS'killa'
p4320
I111
sS'lasted'
p4321
I111
sS'gardena'
p4322
I111
sS'$2.10'
p4323
I110
sS'situations'
p4324
I111
sS'uneducated'
p4325
I111
sS'understand'
p4326
I109
sS'8th'
p4327
I111
sS'it.,90706\n508069247382470657,jkimzzz,2014-09-06'
p4328
I111
sS'corey'
p4329
I111
s.