(dp0
S''
p1
I7
sS'raining'
p2
I28
sS'all'
p3
I16
sS':)'
p4
I27
sS'love/fear/business/pleasure'
p5
I28
sS'bull'
p6
I28
sS'steve'
p7
I28
sS'sleep'
p8
I27
sS'asian'
p9
I28
sS'hanging'
p10
I28
sS'go'
p11
I23
sS'totez'
p12
I28
sS'hate'
p13
I28
sS'cuzins'
p14
I28
sS'peanut'
p15
I28
sS'thursday'
p16
I28
sS'to'
p17
I4
sS'smile'
p18
I28
sS'dislike'
p19
I28
sS'circumstances'
p20
I28
sS'quilts'
p21
I28
sS'worth'
p22
I28
sS'(sarcasm)'
p23
I28
sS'regional'
p24
I28
sS'fav'
p25
I28
sS'fat'
p26
I28
sS'innout'
p27
I28
sS'fan'
p28
I27
sS'fall'
p29
I28
sS'casa'
p30
I27
sS'bubbles'
p31
I28
sS'trailer'
p32
I28
sS'cool'
p33
I28
sS'looney'
p34
I28
sS'staples'
p35
I28
sS'cable'
p36
I28
sS'did'
p37
I27
sS'companies'
p38
I28
sS'brother'
p39
I28
sS'intravenous'
p40
I28
sS'leave'
p41
I28
sS'hustle'
p42
I28
sS'straight'
p43
I28
sS"i'll"
p44
I27
sS'says'
p45
I28
sS'capitalisma'
p46
I28
sS'ten'
p47
I28
sS'tired'
p48
I28
sS'waking'
p49
I28
sS'past'
p50
I28
sS'video'
p51
I27
sS'even'
p52
I27
sS'what'
p53
I23
sS'giving'
p54
I28
sS'saved'
p55
I28
sS'goes'
p56
I28
sS"bobby's"
p57
I28
sS'new'
p58
I28
sS'learned'
p59
I28
sS'ever'
p60
I23
sS'christian'
p61
I28
sS'never'
p62
I24
sS'water'
p63
I27
sS'growing'
p64
I28
sS'let'
p65
I27
sS'healing'
p66
I28
sS'alone'
p67
I28
sS'sexy'
p68
I28
sS'paquiao'
p69
I28
sS'legend'
p70
I28
sS'wait'
p71
I27
sS'boy'
p72
I27
sS'great'
p73
I27
sS'kids'
p74
I26
sS'30'
p75
I28
sS'34'
p76
I28
sS'spheres'
p77
I28
sS"i'd"
p78
I28
sS'backtrue'
p79
I28
sS'smoke'
p80
I28
sS'graph'
p81
I28
sS"i'm"
p82
I22
sS'makes'
p83
I28
sS'via'
p84
I28
sS'love'
p85
I25
sS'family'
p86
I28
sS'win'
p87
I28
sS'bro'
p88
I27
sS'buble'
p89
I28
sS'market'
p90
I28
sS'use'
p91
I28
sS'from'
p92
I20
sS'working'
p93
I26
sS'&'
p94
I22
sS'"experiences"'
p95
I28
sS'give'
p96
I28
sS'visit'
p97
I28
sS'love."'
p98
I28
sS'next'
p99
I27
sS'few'
p100
I27
sS'music'
p101
I28
sS'means'
p102
I28
sS'today'
p103
I27
sS'more'
p104
I27
sS'ramone'
p105
I28
sS'rich'
p106
I28
sS'holy'
p107
I28
sS'successful'
p108
I28
sS'tennis'
p109
I28
sS'duper'
p110
I28
sS'haha'
p111
I28
sS'wars'
p112
I28
sS'warm'
p113
I28
sS"ain't"
p114
I27
sS'varsity'
p115
I28
sS'biatch'
p116
I28
sS'baby'
p117
I27
sS"make'ya"
p118
I28
sS'glad'
p119
I28
sS'must'
p120
I28
sS'me'
p121
I15
sS'keeping'
p122
I28
sS'niggas'
p123
I28
sS'this'
p124
I20
sS'car'
p125
I28
sS'work'
p126
I24
sS'mi'
p127
I28
sS'marky'
p128
I28
sS'can'
p129
I22
sS'cam'
p130
I27
sS'mr'
p131
I28
sS'following'
p132
I28
sS'making'
p133
I28
sS'my'
p134
I8
sS'heart'
p135
I28
sS'"mina'
p136
I28
sS'snacks'
p137
I28
sS'awesome'
p138
I23
sS'share'
p139
I28
sS'fuck'
p140
I27
sS'high'
p141
I27
sS'heard'
p142
I28
sS'his'
p143
I28
sS'want'
p144
I24
sS'advancing'
p145
I28
sS'needs'
p146
I28
sS'dying.\xe2\x80\x9dask'
p147
I28
sS'sit'
p148
I28
sS'watching'
p149
I28
sS'1'
p150
I27
sS'how'
p151
I25
sS'amazing'
p152
I28
sS'\xe2\x80\x9cten'
p153
I28
sS'instead'
p154
I28
sS"okc's"
p155
I28
sS'pizza'
p156
I27
sS'profile'
p157
I28
sS'elizabeth'
p158
I28
sS'helmet'
p159
I28
sS'stop'
p160
I27
sS'after'
p161
I26
sS'different'
p162
I28
sS'birthday'
p163
I27
sS'coming'
p164
I26
sS'gasp'
p165
I28
sS'psychedelic'
p166
I28
sS'man'
p167
I26
sS'a'
p168
I3
sS'startups\xe2\x80\x9d'
p169
I28
sS'surfing'
p170
I28
sS'brady'
p171
I28
sS'nerd'
p172
I28
sS'wins'
p173
I28
sS'lame'
p174
I28
sS'trevor'
p175
I28
sS'meza'
p176
I28
sS'18th'
p177
I28
sS'so'
p178
I17
sS'road'
p179
I28
sS'operate'
p180
I28
sS'order'
p181
I28
sS'talk'
p182
I24
sS"that's"
p183
I25
sS'cute'
p184
I27
sS'bathing'
p185
I28
sS"don't"
p186
I26
sS'fam'
p187
I28
sS'soon'
p188
I28
sS'paper'
p189
I28
sS'looks'
p190
I27
sS'sony'
p191
I28
sS'still'
p192
I27
sS'gramps'
p193
I27
sS'worship'
p194
I28
sS'thank'
p195
I27
sS'la'
p196
I25
sS'pray'
p197
I28
sS'banner'
p198
I28
sS'late'
p199
I27
sS'401'
p200
I28
sS'weeks'
p201
I28
sS'lineup--woo'
p202
I28
sS"haven't"
p203
I28
sS'then'
p204
I27
sS'them'
p205
I24
sS'good'
p206
I25
sS'somebody'
p207
I28
sS'3'
p208
I28
sS'food'
p209
I26
sS'docs'
p210
I28
sS'team+family'
p211
I28
sS'okc'
p212
I28
sS'snake'
p213
I28
sS'they'
p214
I24
sS'hands'
p215
I28
sS'not'
p216
I23
sS'now'
p217
I27
sS'day'
p218
I27
sS'777-'
p219
I28
sS'february'
p220
I28
sS'thankful'
p221
I28
sS'sundays'
p222
I28
sS'always'
p223
I26
sS'goofy'
p224
I28
sS'"happy'
p225
I28
sS'rock'
p226
I28
sS"isn't"
p227
I28
sS'bitch'
p228
I28
sS'everyone'
p229
I26
sS'eh'
p230
I28
sS'doing'
p231
I28
sS'house'
p232
I27
sS'fish'
p233
I27
sS'hard'
p234
I28
sS'yeah'
p235
I27
sS'dawg'
p236
I28
sS'year'
p237
I27
sS'our'
p238
I27
sS'girl'
p239
I25
sS'special'
p240
I28
sS'really'
p241
I24
sS'try'
p242
I28
sS'won'
p243
I28
sS'"wow'
p244
I28
sS'__-'
p245
I28
sS'god'
p246
I28
sS'tried'
p247
I26
sS'since'
p248
I28
sS'looking'
p249
I28
sS'miles'
p250
I28
sS'7'
p251
I28
sS'tidbits'
p252
I28
sS'got'
p253
I23
sS'rn'
p254
I28
sS'cause'
p255
I26
sS'red'
p256
I28
sS'fomie'
p257
I28
sS'jessica'
p258
I27
sS'cutest'
p259
I28
sS'little'
p260
I28
sS'duffle'
p261
I28
sS'reason'
p262
I28
sS'put'
p263
I28
sS'favs'
p264
I28
sS'mvp'
p265
I28
sS'scary'
p266
I28
sS'steal'
p267
I28
sS'could'
p268
I27
sS'punk'
p269
I28
sS'days'
p270
I24
sS'honest'
p271
I28
sS'thing'
p272
I28
sS'blush'
p273
I28
sS'think'
p274
I24
sS'first'
p275
I25
sS'already'
p276
I27
sS'anymore-'
p277
I28
sS'feel'
p278
I28
sS'waves'
p279
I28
sS'one'
p280
I27
sS'sisters'
p281
I28
sS'done'
p282
I28
sS'lol'
p283
I16
sS'open'
p284
I28
sS"you'd"
p285
I28
sS'bitten'
p286
I28
sS"you're"
p287
I24
sS'playlist'
p288
I28
sS'basketball'
p289
I28
sS'potty'
p290
I28
sS'top'
p291
I28
sS'girls'
p292
I26
sS'least'
p293
I28
sS'their'
p294
I28
sS'2'
p295
I26
sS'dumbass'
p296
I28
sS'too'
p297
I25
sS'tom'
p298
I28
sS'final'
p299
I28
sS'friend'
p300
I28
sS'hella'
p301
I28
sS'free'
p302
I28
sS'way'
p303
I28
sS'that'
p304
I9
sS'season'
p305
I28
sS'gym'
p306
I28
sS'bruh'
p307
I28
sS'park'
p308
I27
sS'took'
p309
I27
sS'kindest'
p310
I28
sS'taiwanese'
p311
I28
sS'danny'
p312
I28
sS'because'
p313
I27
sS'butt'
p314
I27
sS'patitos'
p315
I28
sS'10'
p316
I28
sS'b'
p317
I27
sS'fufu'
p318
I28
sS'saaame'
p319
I28
sS'toons'
p320
I28
sS'tommy'
p321
I28
sS'recording'
p322
I28
sS'future'
p323
I28
sS'store'
p324
I28
sS'were'
p325
I28
sS'dang'
p326
I27
sS'dumb'
p327
I28
sS'intercepted.\xe2\x80\x9d'
p328
I28
sS'and'
p329
I6
sS'talking'
p330
I27
sS'say'
p331
I28
sS'homemade'
p332
I28
sS'have'
p333
I17
sS'need'
p334
I27
sS'seen'
p335
I27
sS'tellllll'
p336
I28
sS'kevin'
p337
I28
sS'lie'
p338
I28
sS'congrats'
p339
I24
sS'check'
p340
I28
sS'989-'
p341
I28
sS'able'
p342
I28
sS'overcoming'
p343
I28
sS'also'
p344
I28
sS'take'
p345
I26
sS'honestly'
p346
I28
sS'game-winning'
p347
I28
sS'blue'
p348
I28
sS'play'
p349
I26
sS'nobody'
p350
I28
sS'track'
p351
I28
sS'paid'
p352
I28
sS'netflix'
p353
I28
sS'most'
p354
I27
sS'realized...trisha'
p355
I28
sS'class'
p356
I28
sS'queens'
p357
I28
sS'forever'
p358
I28
sS'loveeeeeee'
p359
I28
sS'alarm'
p360
I28
sS'camp'
p361
I28
sS'dog'
p362
I27
sS'drugs?\xe2\x80\x9d'
p363
I28
sS"you'll"
p364
I28
sS'nobodys'
p365
I28
sS'aunt'
p366
I28
sS'michel'
p367
I28
sS'grandpa'
p368
I28
sS'sd'
p369
I28
sS'attacking'
p370
I28
sS'came'
p371
I28
sS'saying'
p372
I27
sS'playoffs'
p373
I28
sS'chances'
p374
I28
sS'text'
p375
I28
sS'planning'
p376
I28
sS'feat'
p377
I28
sS'find'
p378
I28
sS'durant'
p379
I28
sS'slow'
p380
I28
sS'outside'
p381
I28
sS'locals'
p382
I28
sS'should'
p383
I28
sS'only'
p384
I27
sS'going'
p385
I25
sS'black'
p386
I28
sS'rick'
p387
I27
sS'pretty'
p388
I27
sS'riding'
p389
I28
sS'food/drink'
p390
I28
sS'hope'
p391
I28
sS'do'
p392
I23
sS'haircut'
p393
I28
sS'asians'
p394
I28
sS'get'
p395
I26
sS'a77'
p396
I28
sS'dope'
p397
I28
sS'naw'
p398
I28
sS'watch'
p399
I26
sS'fluid'
p400
I28
sS'da'
p401
I28
sS'bean'
p402
I28
sS'ones'
p403
I26
sS'fastest'
p404
I28
sS'report'
p405
I28
sS'maloreando'
p406
I28
sS'dr'
p407
I28
sS'abby'
p408
I28
sS'runs'
p409
I28
sS'withh'
p410
I28
sS"gf's"
p411
I28
sS'morning'
p412
I28
sS'19'
p413
I28
sS'stupid'
p414
I25
sS'she'
p415
I25
sS'where'
p416
I27
sS"y'all"
p417
I28
sS'learn'
p418
I28
sS'science."'
p419
I28
sS'w/'
p420
I27
sS'branding'
p421
I28
sS'liquor'
p422
I28
sS'charlete'
p423
I28
sS'see'
p424
I26
sS'asleep'
p425
I28
sS'are'
p426
I18
sS'best'
p427
I27
sS'feared'
p428
I28
sS'closer'
p429
I28
sS'shower'
p430
I28
sS'said'
p431
I28
sS'movie'
p432
I28
sS'its'
p433
I28
sS'pump'
p434
I28
sS'sweat'
p435
I28
sS'routine'
p436
I27
sS'psychedelics'
p437
I26
sS'we'
p438
I22
sS'omg'
p439
I27
sS'opening'
p440
I28
sS'attention'
p441
I28
sS'stress'
p442
I28
sS'coffee'
p443
I28
sS'joe'
p444
I28
sS'key'
p445
I28
sS'article'
p446
I28
sS'come'
p447
I26
sS'pull'
p448
I28
sS'hours'
p449
I28
sS'last'
p450
I28
sS'many'
p451
I28
sS"he's"
p452
I27
sS'edgar'
p453
I28
sS'tour'
p454
I28
sS'faces'
p455
I28
sS'baseball'
p456
I28
sS'whole'
p457
I27
sS"can't"
p458
I28
sS'flies'
p459
I28
sS'\xe2\x98\xba'
p460
I28
sS'spear'
p461
I28
sS'pot'
p462
I28
sS'2nd'
p463
I28
sS'lex'
p464
I28
sS'laugh'
p465
I27
sS'slater'
p466
I28
sS'raining....what'
p467
I28
sS'devil'
p468
I28
sS"it's"
p469
I24
sS'classic'
p470
I28
sS'vacation'
p471
I27
sS'been'
p472
I26
sS'secret'
p473
I28
sS'much'
p474
I27
sS'damn'
p475
I28
sS'basic'
p476
I28
sS'lovely'
p477
I28
sS'meeting'
p478
I27
sS'whoa'
p479
I28
sS'woke'
p480
I28
sS'mcm'
p481
I28
sS'goodnight'
p482
I28
sS'fire'
p483
I28
sS'hmu'
p484
I28
sS"what's"
p485
I26
sS'crack'
p486
I28
sS'cosmetology'
p487
I28
sS'frustration'
p488
I28
sS'lives'
p489
I28
sS'ooh'
p490
I28
sS'graphics'
p491
I28
sS'smoking'
p492
I28
sS'haters'
p493
I28
sS'felling'
p494
I28
sS'mlb'
p495
I28
sS'bye'
p496
I28
sS'stacked'
p497
I28
sS'look'
p498
I26
sS'these'
p499
I26
sS'"do'
p500
I28
sS'cash'
p501
I28
sS'governor'
p502
I28
sS'air'
p503
I28
sS'will'
p504
I28
sS'krissy'
p505
I28
sS'while'
p506
I26
sS'itinerary'
p507
I28
sS'hahaha'
p508
I28
sS'reality."\xe2\x80\x9d'
p509
I28
sS'<3'
p510
I28
sS'iq'
p511
I28
sS'is'
p512
I10
sS'it'
p513
I16
sS'fantastics'
p514
I28
sS'cant'
p515
I28
sS'someone'
p516
I26
sS'im'
p517
I28
sS'against'
p518
I28
sS'in'
p519
I11
sS'boom'
p520
I28
sS'disappear'
p521
I28
sS'if'
p522
I24
sS'funny'
p523
I26
sS'intense'
p524
I28
sS'author'
p525
I28
sS'things'
p526
I28
sS'make'
p527
I27
sS'tells'
p528
I28
sS'ya'
p529
I28
sS'bently'
p530
I28
sS'speech'
p531
I28
sS'society\xe2\x80\x9d'
p532
I28
sS'code...i'
p533
I28
sS'party'
p534
I27
sS'sidelines'
p535
I28
sS'used'
p536
I28
sS'retarded'
p537
I28
sS'hang'
p538
I26
sS'liiiife'
p539
I28
sS'fridays'
p540
I28
sS'boo?"'
p541
I28
sS'jealous'
p542
I28
sS'kid'
p543
I28
sS'off'
p544
I26
sS'traina'
p545
I28
sS'i'
p546
I2
sS'youre'
p547
I28
sS'well'
p548
I28
sS'anybody'
p549
I28
sS'tho'
p550
I28
sS'fisherlishaous'
p551
I28
sS'without'
p552
I28
sS'coming"'
p553
I28
sS'studying'
p554
I28
sS'gawds'
p555
I28
sS'the'
p556
I1
sS'spend'
p557
I28
sS'psst'
p558
I28
sS'latest'
p559
I28
sS'summer'
p560
I28
sS'just'
p561
I24
sS'being'
p562
I28
sS'tossing'
p563
I28
sS'rest'
p564
I28
sS'front'
p565
I28
sS'clocks'
p566
I28
sS'kill'
p567
I28
sS'thanks'
p568
I24
sS'nutz'
p569
I28
sS'yet'
p570
I27
sS'letting'
p571
I28
sS'thinking'
p572
I26
sS'had'
p573
I28
sS'killed'
p574
I28
sS'book'
p575
I28
sS'crying'
p576
I28
sS'wet'
p577
I28
sS'has'
p578
I26
sS'tuff'
p579
I28
sS'real'
p580
I27
sS'starving'
p581
I28
sS'fucked'
p582
I28
sS'gonna'
p583
I26
sS'early'
p584
I28
sS'matters'
p585
I28
sS'game'
p586
I27
sS'dryer'
p587
I28
sS'reaallly'
p588
I28
sS'know'
p589
I25
sS'mom'
p590
I28
sS'nvm'
p591
I28
sS'dare'
p592
I28
sS'd'
p593
I28
sS'buhahaha'
p594
I28
sS'like'
p595
I19
sS'stranger'
p596
I28
sS'bobby'
p597
I28
sS'toilet"'
p598
I28
sS'garage'
p599
I28
sS'either'
p600
I28
sS'night'
p601
I25
sS'hung'
p602
I28
sS'works'
p603
I28
sS'me\xe2\x80\x9d'
p604
I28
sS'f**k'
p605
I28
sS'jaimee'
p606
I28
sS'nigga'
p607
I25
sS'old'
p608
I27
sS'people'
p609
I23
sS'fucking'
p610
I28
sS'scared'
p611
I28
sS'some'
p612
I22
sS'back'
p613
I27
sS'oh'
p614
I28
sS'home'
p615
I25
sS'guess'
p616
I28
sS'"meh."'
p617
I28
sS'for'
p618
I16
sS'pet'
p619
I28
sS'filming'
p620
I28
sS'h.s'
p621
I28
sS'critical'
p622
I28
sS'pee'
p623
I28
sS'anne'
p624
I27
sS'christmas'
p625
I28
sS'world\xe2\x80\x99s'
p626
I28
sS'be'
p627
I23
sS'run'
p628
I28
sS'lmfao'
p629
I28
sS'lmaoooo'
p630
I28
sS'chefs'
p631
I28
sS'burn'
p632
I28
sS'santa'
p633
I28
sS'hsu'
p634
I28
sS'keeper'
p635
I28
sS'super'
p636
I28
sS'by'
p637
I27
sS'on'
p638
I13
sS'about'
p639
I22
sS':-)'
p640
I28
sS'ok'
p641
I28
sS'meth'
p642
I28
sS'getting'
p643
I26
sS'of'
p644
I12
sS'dinex'
p645
I28
sS'swear'
p646
I28
sS'afternoon'
p647
I28
sS'wanna'
p648
I27
sS'or'
p649
I28
sS'dancing'
p650
I28
sS'real-world'
p651
I28
sS'researching'
p652
I28
sS'acceptance'
p653
I28
sS'grammy'
p654
I28
sS'bound'
p655
I27
sS'three'
p656
I28
sS'down'
p657
I28
sS'scnorwalk'
p658
I28
sS'right'
p659
I27
sS'mamba'
p660
I28
sS'great!\xe2\x80\x9d'
p661
I28
sS'freaken'
p662
I28
sS'your'
p663
I23
sS'her'
p664
I25
sS'there'
p665
I27
sS'sock'
p666
I28
sS'long'
p667
I26
sS'why'
p668
I28
sS'-'
p669
I28
sS'los'
p670
I28
sS'inner'
p671
I28
sS'lot'
p672
I27
sS'suit'
p673
I27
sS'dynamite'
p674
I28
sS'though?all'
p675
I28
sS'was'
p676
I19
sS'war'
p677
I28
sS'happy'
p678
I25
sS'buy'
p679
I28
sS'enough'
p680
I28
sS'but'
p681
I16
sS'idea'
p682
I28
sS'boys'
p683
I28
sS'hi'
p684
I28
sS'episode'
p685
I28
sS'with'
p686
I14
sS'eat'
p687
I28
sS'he'
p688
I28
sS"they're"
p689
I27
sS'throw'
p690
I28
sS'maaan'
p691
I28
sS'monday"'
p692
I28
sS"wasn't"
p693
I28
sS'wish'
p694
I28
sS'inside'
p695
I28
sS'up'
p696
I22
sS'us'
p697
I27
sS'customers'
p698
I28
sS'uh'
p699
I28
sS'piece'
p700
I28
sS'agree'
p701
I28
sS'ac'
p702
I28
sS'later'
p703
I28
sS'deez'
p704
I28
sS'af'
p705
I27
sS'am'
p706
I26
sS'an'
p707
I28
sS'as'
p708
I27
sS'sometime'
p709
I28
sS'at'
p710
I12
sS'girlfriend'
p711
I28
sS'dawn'
p712
I28
sS'shit'
p713
I23
sS'again'
p714
I28
sS'soccer'
p715
I28
sS'ehhh'
p716
I28
sS'no'
p717
I26
sS'when'
p718
I25
sS'zelda'
p719
I28
sS'reality'
p720
I28
sS'drugs'
p721
I28
sS'other'
p722
I28
sS'es'
p723
I28
sS'gav'
p724
I28
sS'7/11'
p725
I28
sS'you'
p726
I5
sS'out'
p727
I21
sS'95%'
p728
I28
sS'squeals'
p729
I28
sS'star'
p730
I28
sS'finale'
p731
I28
sS'stay'
p732
I28
sS"let's"
p733
I28
sS'chance'
p734
I28
sS'friends'
p735
I28
sS'finals'
p736
I27
sS'pool'
p737
I26
sS'"the'
p738
I26
sS'longer'
p739
I28
sS'"mad"'
p740
I28
sS'napping'
p741
I28
sS'walked'
p742
I28
sS'gal'
p743
I28
sS'u'
p744
I27
sS'doubted'
p745
I28
sS'time'
p746
I21
sS'12'
p747
I27
sS'once'
p748
I27
s.