(dp0
S''
p1
I1
sS'represent'
p2
I30
sS'all'
p3
I25
sS'gt'
p4
I30
sS'jason'
p5
I30
sS':)'
p6
I29
sS'ali'
p7
I30
sS'dance'
p8
I30
sS'dynamic'
p9
I30
sS'month'
p10
I29
sS'sleep'
p11
I30
sS'hating'
p12
I30
sS'go'
p13
I22
sS'gossip'
p14
I29
sS'chair'
p15
I30
sS'liam'
p16
I29
sS'mucho'
p17
I30
sS'pedro'
p18
I30
sS'norv'
p19
I30
sS'tweet'
p20
I29
sS'overachiever'
p21
I30
sS'young'
p22
I30
sS'send'
p23
I30
sS'to'
p24
I4
sS'aaron'
p25
I30
sS'present'
p26
I30
sS'daze'
p27
I30
sS'sorry'
p28
I30
sS'te'
p29
I29
sS"a's"
p30
I30
sS"parker's"
p31
I30
sS'7'
p32
I29
sS'sitting'
p33
I29
sS'ticked'
p34
I30
sS'fat'
p35
I30
sS'tacos'
p36
I30
sS'selfies'
p37
I30
sS'fan'
p38
I26
sS'kick'
p39
I30
sS'word'
p40
I30
sS'ticket'
p41
I30
sS'bryant'
p42
I30
sS'duffy'
p43
I29
sS'tickets'
p44
I30
sS'entire'
p45
I30
sS'school'
p46
I27
sS'did'
p47
I27
sS'marry'
p48
I30
sS'brother'
p49
I30
sS'try'
p50
I29
sS'race'
p51
I30
sS'team'
p52
I30
sS"yesterday's"
p53
I30
sS'guy'
p54
I30
sS'trout'
p55
I30
sS'challenge'
p56
I30
sS'retweeted'
p57
I30
sS"i'll"
p58
I29
sS'work'
p59
I27
sS'carter'
p60
I30
sS'jump'
p61
I30
sS'street'
p62
I30
sS'picked'
p63
I30
sS'reunion'
p64
I30
sS'even'
p65
I29
sS'what'
p66
I24
sS'poke'
p67
I30
sS'jumanji'
p68
I30
sS'lolll'
p69
I30
sS'sun'
p70
I30
sS'\xd9\x85\xd9\x88\xd8\xa8'
p71
I30
sS'waiting'
p72
I30
sS'her.\xe2\x80\x9d'
p73
I30
sS'new'
p74
I29
sS'ever'
p75
I28
sS'3d'
p76
I30
sS'supporting'
p77
I30
sS'advice...know'
p78
I30
sS"c'mon"
p79
I30
sS'pancakes'
p80
I30
sS'never'
p81
I27
sS'here'
p82
I30
sS'hundreds'
p83
I30
sS'water'
p84
I30
sS'\xe2\x9d\xa4\xef\xb8\x8f'
p85
I29
sS'bachelor'
p86
I30
sS'coloring'
p87
I30
sS'let'
p88
I29
sS'peed'
p89
I30
sS"california!can't"
p90
I30
sS'others'
p91
I30
sS'alone'
p92
I30
sS"aren't"
p93
I30
sS'earthquake'
p94
I30
sS'wait'
p95
I29
sS'boy'
p96
I29
sS'great'
p97
I28
sS'daughter'
p98
I29
sS"i'd"
p99
I29
sS"weren't"
p100
I30
sS'waaaant'
p101
I30
sS'boo'
p102
I30
sS"i'm"
p103
I19
sS'makes'
p104
I30
sS'reds'
p105
I30
sS'via'
p106
I30
sS'love'
p107
I21
sS'family'
p108
I30
sS'win'
p109
I30
sS'strap'
p110
I29
sS'bro'
p111
I27
sS'texts'
p112
I28
sS'thursday'
p113
I30
sS'dumbest'
p114
I30
sS'handfuls'
p115
I30
sS'alamitos'
p116
I30
sS'strapped'
p117
I30
sS'from'
p118
I26
sS'would'
p119
I25
sS'&'
p120
I23
sS'sends'
p121
I30
sS'snacks'
p122
I30
sS'visit'
p123
I30
sS"world's"
p124
I30
sS'next'
p125
I30
sS'23:25:08.0,33.8143032,-118.0808153,5739.02,you'
p126
I30
sS'cali'
p127
I27
sS'live'
p128
I30
sS'taken'
p129
I29
sS'thru'
p130
I30
sS'tell'
p131
I29
sS'today'
p132
I27
sS'more'
p133
I27
sS'tryna'
p134
I29
sS'besch)'
p135
I30
sS'holy'
p136
I30
sS'successful'
p137
I30
sS'haha'
p138
I29
sS'flubber'
p139
I30
sS'chocolate'
p140
I30
sS'phone'
p141
I30
sS"ain't"
p142
I29
sS'broke'
p143
I30
sS'hold'
p144
I30
sS'glad'
p145
I30
sS'me'
p146
I8
sS'erv'
p147
I30
sS'hennessey'
p148
I30
sS'ma'
p149
I30
sS'anything'
p150
I30
sS'hour'
p151
I29
sS'niggas'
p152
I29
sS'this'
p153
I20
sS'car'
p154
I30
sS'ride'
p155
I30
sS'oh'
p156
I29
sS'movies'
p157
I30
sS'can'
p158
I28
sS'morgan'
p159
I30
sS'growing'
p160
I30
sS'making'
p161
I30
sS'my'
p162
I6
sS'100%'
p163
I30
sS'def'
p164
I30
sS'social'
p165
I30
sS'heart'
p166
I30
sS'crazy'
p167
I28
sS'patrol'
p168
I30
sS'want'
p169
I29
sS'give'
p170
I29
sS'calories'
p171
I30
sS'chip'
p172
I30
sS'benz'
p173
I30
sS"didn't"
p174
I30
sS'fuck'
p175
I27
sS'high'
p176
I30
sS'heard'
p177
I30
sS'overheard'
p178
I30
sS'something'
p179
I28
sS'slip'
p180
I30
sS'offense'
p181
I29
sS'huge'
p182
I30
sS'thing'
p183
I30
sS'vibe'
p184
I30
sS'moves'
p185
I30
sS'niiiice'
p186
I30
sS'write'
p187
I30
sS'how'
p188
I24
sS'amazing'
p189
I29
sS'interview'
p190
I30
sS'beach'
p191
I28
sS"doesn't"
p192
I27
sS'gurl'
p193
I30
sS'community'
p194
I30
sS'heard/saw'
p195
I30
sS'gtfo'
p196
I30
sS'tried'
p197
I29
sS'attend'
p198
I30
sS'watch'
p199
I30
sS'wonderful'
p200
I30
sS'after'
p201
I28
sS'sneak'
p202
I30
sS'wrong'
p203
I30
sS'birthday'
p204
I28
sS'wrist'
p205
I30
sS'taco'
p206
I23
sS'hahahaha'
p207
I30
sS'lb'
p208
I30
sS'guys'
p209
I26
sS'narrating'
p210
I30
sS'wtf\xe2\x80\x9d'
p211
I30
sS'man'
p212
I24
sS'a'
p213
I7
sS'stress'
p214
I30
sS'remember'
p215
I30
sS'lines'
p216
I30
sS'st'
p217
I29
sS'slutastic'
p218
I30
sS'so'
p219
I24
sS'goodbye'
p220
I30
sS'keeps'
p221
I30
sS'every'
p222
I29
sS'fireball'
p223
I30
sS'playing'
p224
I30
sS'talk'
p225
I28
sS"that's"
p226
I28
sS'help'
p227
I30
sS"don't"
p228
I22
sS'"if'
p229
I30
sS'over'
p230
I27
sS'move'
p231
I30
sS'soon'
p232
I29
sS'years'
p233
I30
sS'professors'
p234
I30
sS'course'
p235
I30
sS'paper'
p236
I30
sS'through'
p237
I30
sS'motorcycle'
p238
I30
sS'cruise'
p239
I30
sS'hell'
p240
I30
sS'still'
p241
I29
sS'its'
p242
I30
sS'before'
p243
I28
sS'24'
p244
I30
sS'police'
p245
I29
sS'thank'
p246
I29
sS'22'
p247
I30
sS"he's"
p248
I30
sS'avocado'
p249
I30
sS'hot'
p250
I27
sS'tex'
p251
I30
sS'actually'
p252
I30
sS'450'
p253
I30
sS'weeks'
p254
I30
sS'freaking'
p255
I30
sS'sauce'
p256
I30
sS"before?it's"
p257
I30
sS'fil'
p258
I30
sS'happened'
p259
I29
sS'burping'
p260
I30
sS'then'
p261
I27
sS'good'
p262
I21
sS'food'
p263
I30
sS'workout'
p264
I30
sS'practice'
p265
I30
sS'cowboy'
p266
I30
sS'break'
p267
I30
sS'morningall'
p268
I30
sS'drinking'
p269
I30
sS'starbucks'
p270
I30
sS'they'
p271
I28
sS'not'
p272
I26
sS'hunted'
p273
I30
sS'now'
p274
I22
sS'day'
p275
I27
sS'09:20:54.0,33.8146798,-118.0806706,5739.02,ok'
p276
I30
sS'name'
p277
I29
sS'everytime'
p278
I30
sS'always'
p279
I27
sS'kayaking'
p280
I30
sS'baylor'
p281
I30
sS'letting'
p282
I30
sS'found'
p283
I30
sS'side'
p284
I30
sS"isn't"
p285
I30
sS'mean'
p286
I29
sS'house"'
p287
I30
sS'ankles'
p288
I30
sS'everyone'
p289
I30
sS'fired'
p290
I29
sS'doing'
p291
I26
sS'series'
p292
I30
sS'hard'
p293
I30
sS'yeah'
p294
I30
sS'faroes'
p295
I30
sS'accidentally'
p296
I30
sS'ayyy'
p297
I30
sS'rape-van'
p298
I30
sS'books'
p299
I29
sS'ex'
p300
I30
sS'year'
p301
I29
sS'girl'
p302
I27
sS'calling'
p303
I30
sS'saturday'
p304
I30
sS'out'
p305
I22
sS'album'
p306
I30
sS'leave'
p307
I29
sS'matt'
p308
I30
sS'trending'
p309
I30
sS'missed'
p310
I30
sS'driving'
p311
I30
sS'blu'
p312
I30
sS'open'
p313
I30
sS'since'
p314
I29
sS'looking'
p315
I28
sS'seriously'
p316
I30
sS'bae'
p317
I30
sS'safety'
p318
I30
sS'zeppy'
p319
I30
sS'nite'
p320
I30
sS'\xd9\x88\xd8\xa7\xd9\x84\xd9\x84\xd9\x8a'
p321
I30
sS'got'
p322
I26
sS'rn'
p323
I30
sS'humble'
p324
I30
sS'ass'
p325
I30
sS'shut'
p326
I30
sS'dirt'
p327
I30
sS'cars'
p328
I30
sS'bitches'
p329
I30
sS'motherfucker'
p330
I30
sS'free'
p331
I30
sS'quite'
p332
I30
sS'que'
p333
I30
sS'care'
p334
I30
sS'mvp'
p335
I29
sS'g'
p336
I30
sS'teachers'
p337
I30
sS'snapchats'
p338
I30
sS'could'
p339
I30
sS'hollywood'
p340
I30
sS'\xe2\x9d\x8c\xe2\x9d\x8c'
p341
I30
sS'days'
p342
I28
sS'keep'
p343
I30
sS'do!\xe2\x80\x9d'
p344
I30
sS'ashton'
p345
I30
sS'kimi\xe2\x80\x9d'
p346
I30
sS'yess'
p347
I30
sS'think'
p348
I28
sS'fuckin'
p349
I30
sS'first'
p350
I28
sS'feed'
p351
I30
sS'constantly'
p352
I30
sS'dont'
p353
I29
sS'feel'
p354
I29
sS'*'
p355
I30
sS'hoop'
p356
I30
sS'coming'
p357
I30
sS'number'
p358
I30
sS'one'
p359
I27
sS'stashes'
p360
I30
sS'talked'
p361
I30
sS'long'
p362
I30
sS'another'
p363
I30
sS'kobe'
p364
I30
sS'miss'
p365
I27
sS'tomorrow'
p366
I29
sS'hood'
p367
I30
sS"you're"
p368
I27
sS'little'
p369
I30
sS'shoreline?,90808\n482336549107814400,robbiepsick,2014-06-27'
p370
I30
sS'slept'
p371
I30
sS'girls'
p372
I30
sS'their'
p373
I30
sS'2'
p374
I28
sS'rates'
p375
I30
sS'too'
p376
I28
sS'draft'
p377
I30
sS'white'
p378
I26
sS'dogs'
p379
I30
sS'friend'
p380
I30
sS'toe'
p381
I29
sS'that'
p382
I15
sS'exactly'
p383
I30
sS'took'
p384
I30
sS'released'
p385
I30
sS'part'
p386
I29
sS'because'
p387
I30
sS'butt'
p388
I30
sS'theater'
p389
I30
sS'believe'
p390
I29
sS'than'
p391
I29
sS'ipad'
p392
I29
sS'past'
p393
I30
sS'12'
p394
I30
sS'ben'
p395
I30
sS'holland'
p396
I30
sS'yay!!!this'
p397
I30
sS'gotta'
p398
I30
sS'aztec'
p399
I29
sS'shower'
p400
I30
sS'aztecs'
p401
I30
sS'were'
p402
I30
sS'dumb'
p403
I30
sS'listen'
p404
I29
sS'ousted'
p405
I30
sS'minus'
p406
I30
sS'spurs'
p407
I30
sS'result'
p408
I30
sS'and'
p409
I9
sS'youre'
p410
I30
sS'san'
p411
I30
sS'sam'
p412
I30
sS'look'
p413
I30
sS'appreciate'
p414
I30
sS'chi-ali'
p415
I30
sS'sad'
p416
I30
sS'tonight'
p417
I26
sS'woah'
p418
I30
sS'say'
p419
I29
sS'have'
p420
I22
sS'need'
p421
I29
sS'seen'
p422
I30
sS'turner'
p423
I30
sS'grind'
p424
I30
sS'saw'
p425
I30
sS'any'
p426
I28
sS'marathon'
p427
I30
sS'ray'
p428
I30
sS'offering'
p429
I30
sS'drunk'
p430
I30
sS'dallas'
p431
I30
sS'lil'
p432
I30
sS'paramedics'
p433
I30
sS'able'
p434
I29
sS'ruega'
p435
I30
sS'balling'
p436
I30
sS'zoo'
p437
I30
sS'walk'
p438
I30
sS'ideal'
p439
I30
sS'without'
p440
I30
sS'take'
p441
I27
sS'homeboi'
p442
I30
sS'surf'
p443
I30
sS'play'
p444
I30
sS'sure'
p445
I30
sS'unless'
p446
I30
sS'electric'
p447
I30
sS'arguing'
p448
I30
sS'doin'
p449
I30
sS'who'
p450
I26
sS'doug'
p451
I30
sS'hw'
p452
I30
sS'wire'
p453
I30
sS'bioshock'
p454
I30
sS'freshman'
p455
I30
sS'america'
p456
I30
sS'class'
p457
I28
sS'kc'
p458
I30
sS'forever'
p459
I30
sS'backhanded'
p460
I30
sS'don'
p461
I30
sS'roscoes'
p462
I30
sS'camp'
p463
I30
sS'cover'
p464
I30
sS'dog'
p465
I29
sS'face'
p466
I30
sS'freeway'
p467
I30
sS"you'll"
p468
I30
sS'definitely'
p469
I30
sS'\xe2\x98\x80\xef\xb8\x8f'
p470
I30
sS'wow'
p471
I27
sS'lying'
p472
I30
sS'saying'
p473
I30
sS'bomb'
p474
I30
sS'show'
p475
I27
sS'escobar'
p476
I29
sS'anyway'
p477
I30
sS'ants'
p478
I30
sS'planning'
p479
I30
sS'radio'
p480
I30
sS'\xd9\x84\xd8\xa7\xd9\x8a\xd9\x86\xd8\xa7\xd8\xb8\xd8\xb1\xd9\x86'
p481
I30
sS'find'
p482
I30
sS'd1'
p483
I30
sS'coverin'
p484
I30
sS'\xd8\xb1\xd8\xa7\xd8\xac\xd8\xb9'
p485
I30
sS'nominate\xe2\x80\xa6'
p486
I30
sS'menu'
p487
I30
sS'at?what'
p488
I30
sS'enough'
p489
I30
sS'should'
p490
I29
sS'only'
p491
I30
sS'going'
p492
I25
sS'pretty'
p493
I30
sS'partake'
p494
I30
sS'california)'
p495
I30
sS'95000'
p496
I30
sS'brotha'
p497
I30
sS'hope'
p498
I26
sS'loved'
p499
I30
sS"brett's"
p500
I30
sS'do'
p501
I27
sS'his'
p502
I29
sS'hit'
p503
I28
sS'get'
p504
I22
sS'stop'
p505
I28
sS'watson'
p506
I30
sS'ones'
p507
I30
sS'baskin'
p508
I30
sS'wedding'
p509
I30
sS'during'
p510
I30
sS'him'
p511
I28
sS'tadstill'
p512
I30
sS'rlly'
p513
I30
sS'motorcycles'
p514
I30
sS'artist'
p515
I30
sS'ummmm'
p516
I30
sS'licking'
p517
I30
sS'morning'
p518
I29
sS'bad'
p519
I27
sS'stuff'
p520
I30
sS'she'
p521
I29
sS'shots'
p522
I30
sS'tourney'
p523
I29
sS'wrote'
p524
I30
sS'preach'
p525
I30
sS"y'all"
p526
I29
sS'set'
p527
I30
sS'fair'
p528
I30
sS'.if'
p529
I30
sS'reefer'
p530
I30
sS'see'
p531
I20
sS'college'
p532
I30
sS'are'
p533
I13
sS'callahan'
p534
I30
sS'flavor'
p535
I30
sS'best'
p536
I26
sS'said'
p537
I28
sS'visiting'
p538
I30
sS'movie'
p539
I30
sS'away'
p540
I27
sS'please'
p541
I29
sS'calhoun'
p542
I30
sS'mayor'
p543
I30
sS'gottlieb'
p544
I30
sS'whatever"'
p545
I30
sS"wife's"
p546
I30
sS'bought'
p547
I30
sS'gives'
p548
I29
sS'we'
p549
I28
sS'loose'
p550
I30
sS'omg'
p551
I30
sS'bed'
p552
I30
sS'god'
p553
I30
sS',90808\n487526936713781249,robbiepsick,2014-07-11'
p554
I30
sS'farts'
p555
I30
sS'nerdy'
p556
I30
sS'jp'
p557
I30
sS'taping'
p558
I30
sS'am'
p559
I30
sS'succeed'
p560
I30
sS'....,90808\n482356684086468608,robbiepsick,2014-06-27'
p561
I30
sS'wtf'
p562
I30
sS'tackled'
p563
I30
sS'group'
p564
I30
sS'picking'
p565
I30
sS'chick'
p566
I30
sS'come'
p567
I28
sS'pissed'
p568
I30
sS'pull'
p569
I30
sS'hours'
p570
I30
sS'feeling'
p571
I30
sS'last'
p572
I28
sS'license'
p573
I30
sS'restaurant'
p574
I29
sS'olga'
p575
I30
sS"wouldn't"
p576
I30
sS'against'
p577
I30
sS'shmurf'
p578
I30
sS'players'
p579
I30
sS'putem'
p580
I30
sS'lookin'
p581
I30
sS'quien'
p582
I30
sS'whole'
p583
I30
sS'asked'
p584
I30
sS"can't"
p585
I27
sS'faggots'
p586
I30
sS'1in'
p587
I30
sS'injury'
p588
I30
sS'madness'
p589
I30
sS'bell'
p590
I25
sS'seems'
p591
I30
sS'tuesday'
p592
I30
sS'whatever'
p593
I29
sS'2nd'
p594
I29
sS'satisfaction'
p595
I30
sS'dances'
p596
I30
sS'likes'
p597
I30
sS'respect'
p598
I30
sS'flowers'
p599
I30
sS'priscilla'
p600
I30
sS'snapchat'
p601
I30
sS'chlo'
p602
I30
sS'duo'
p603
I30
sS"it's"
p604
I25
sS'dub'
p605
I30
sS'yas'
p606
I30
sS'mex'
p607
I30
sS'oooooo'
p608
I30
sS'much'
p609
I29
sS'damn'
p610
I30
sS'freak'
p611
I30
sS'waste'
p612
I30
sS'meeting'
p613
I30
sS'woke'
p614
I29
sS'jgarrett'
p615
I30
sS'website'
p616
I30
sS'life'
p617
I27
sS'pic'
p618
I30
sS'shopping'
p619
I30
sS'hiciste'
p620
I30
sS'puberty'
p621
I30
sS'50k'
p622
I30
sS'fire'
p623
I29
sS'thedirt'
p624
I30
sS"what's"
p625
I30
sS'blessing'
p626
I30
sS'diplo'
p627
I30
sS'voices'
p628
I30
sS'ruby'
p629
I30
sS'spirit'
p630
I30
sS'those'
p631
I30
sS'mang'
p632
I30
sS'bradly'
p633
I30
sS'volcom'
p634
I30
sS'myself'
p635
I28
sS'casa'
p636
I30
sS'splits'
p637
I30
sS'these'
p638
I28
sS'at\xe2\x80\xa6'
p639
I30
sS'nd'
p640
I30
sS'announcer'
p641
I30
sS'n'
p642
I29
sS'will'
p643
I28
sS'micheal'
p644
I30
sS"haven't"
p645
I30
sS'hahaha'
p646
I30
sS'fun'
p647
I30
sS'frustrating'
p648
I30
sS'chilling'
p649
I30
sS'ive'
p650
I30
sS'vb'
p651
I30
sS'nominating'
p652
I30
sS'ridea'
p653
I30
sS'almost'
p654
I30
sS'is'
p655
I14
sS'sushi'
p656
I30
sS'purse'
p657
I30
sS'it'
p658
I14
sS'weirdness'
p659
I30
sS'girlfriend'
p660
I30
sS'someone'
p661
I28
sS'triple'
p662
I30
sS'in'
p663
I10
sS'ready'
p664
I30
sS'march'
p665
I30
sS'everyday'
p666
I30
sS'gods'
p667
I30
sS'if'
p668
I23
sS'funny'
p669
I30
sS'annoying'
p670
I30
sS'make'
p671
I29
sS'cross'
p672
I30
sS'ya'
p673
I30
sS'parts'
p674
I30
sS'pad'
p675
I30
sS'venom'
p676
I30
sS'9'
p677
I30
sS'party'
p678
I30
sS'stepped'
p679
I30
sS'cotton'
p680
I30
sS'favorited'
p681
I30
sS'ball'
p682
I30
sS'again'
p683
I30
sS'1-0'
p684
I30
sS'drink'
p685
I29
sS'hang'
p686
I30
sS'yesterday'
p687
I30
sS'cranky'
p688
I30
sS'cetaceans'
p689
I30
sS'fucked'
p690
I30
sS'nation'
p691
I30
sS'steals'
p692
I30
sS'premiers'
p693
I30
sS'off'
p694
I29
sS'i'
p695
I3
sS'tp'
p696
I30
sS'well'
p697
I28
sS'ashleys'
p698
I30
sS'da\xc3\xb1o'
p699
I30
sS'person'
p700
I30
sS'knotts'
p701
I30
sS"bj's"
p702
I30
sS'bottle'
p703
I30
sS'romo'
p704
I29
sS'the'
p705
I2
sS'mad\xe2\x80\x9d'
p706
I30
sS'drawing'
p707
I30
sS'sec'
p708
I30
sS'manicure'
p709
I30
sS'just'
p710
I12
sS'being'
p711
I27
sS'-'
p712
I30
sS'dancers'
p713
I30
sS"early...i'll"
p714
I30
sS'rest'
p715
I30
sS'foot'
p716
I30
sS'thanks'
p717
I27
sS'aspect'
p718
I30
sS'touch'
p719
I30
sS'followed'
p720
I30
sS'yes'
p721
I28
sS'up.....\xe2\x80\x9dtu!\xe2\x80\x9d'
p722
I29
sS'insight'
p723
I30
sS'cut'
p724
I29
sS'toescape&tripped'
p725
I30
sS'01:39:46.0,33.8151825,-118.0807792,5739.02,i'
p726
I30
sS'(long'
p727
I30
sS'hated'
p728
I30
sS'drive'
p729
I29
sS'had'
p730
I28
sS'quiera'
p731
I30
sS'killed'
p732
I30
sS'lets'
p733
I30
sS'book'
p734
I30
sS'ahhhh'
p735
I30
sS'board'
p736
I30
sS'easy'
p737
I29
sS'crack'
p738
I30
sS'ohhh'
p739
I30
sS'has'
p740
I29
sS'city'
p741
I30
sS"23:22:24.0,33.8142546,-118.0807184,5739.02,don't"
p742
I30
sS'omission'
p743
I30
sS'around'
p744
I30
sS'read'
p745
I30
sS'big'
p746
I28
sS'couple'
p747
I30
sS'gonna'
p748
I26
sS'early'
p749
I30
sS'shitty'
p750
I30
sS'game'
p751
I26
sS'long-day'
p752
I30
sS'traffic'
p753
I29
sS'know'
p754
I24
sS'mom'
p755
I30
sS'rofl'
p756
I30
sS'sliced'
p757
I30
sS"kutcher's"
p758
I30
sS'emma'
p759
I30
sS'like'
p760
I23
sS'dyed'
p761
I30
sS'cool'
p762
I30
sS'matte'
p763
I30
sS'candy'
p764
I29
sS'eli'
p765
I30
sS'true'
p766
I30
sS't'
p767
I29
sS'night'
p768
I30
sS'served'
p769
I30
sS'nice'
p770
I30
sS'homself&'
p771
I30
sS'harts'
p772
I30
sS'right'
p773
I25
sS'old'
p774
I29
sS'people'
p775
I28
sS'fucking'
p776
I28
sS'spring'
p777
I30
sS'successfully'
p778
I30
sS'some'
p779
I28
sS'back'
p780
I29
sS'alive'
p781
I30
sS'\xd8\xb9\xd8\xa7\xd8\xac\xd8\xa8\xd9\x87'
p782
I30
sS'clubs'
p783
I30
sS'cowboys'
p784
I28
sS'dear'
p785
I30
sS'home'
p786
I28
sS'guess'
p787
I30
sS'scares'
p788
I30
sS'sister'
p789
I30
sS'happens'
p790
I30
sS'me\xe2\x80\x9d'
p791
I30
sS'mood'
p792
I30
sS'for'
p793
I16
sS'literally'
p794
I30
sS'shirtless'
p795
I30
sS'thanksgiving'
p796
I30
sS'ice'
p797
I29
sS'moon'
p798
I30
sS'feet&threw'
p799
I30
sS'does'
p800
I30
sS'spoilers'
p801
I30
sS'umm'
p802
I30
sS'sdsu'
p803
I29
sS'insideeee'
p804
I30
sS'either'
p805
I30
sS'uhhhh'
p806
I30
sS'be'
p807
I18
sS'knew'
p808
I30
sS'eating'
p809
I29
sS'bb'
p810
I30
sS'bc'
p811
I29
sS'molecule'
p812
I30
sS'nails'
p813
I30
sS'whatcha'
p814
I30
sS'plz'
p815
I30
sS'slaughter'
p816
I30
sS'baha'
p817
I30
sS'putting'
p818
I30
sS'post'
p819
I27
sS'by'
p820
I28
sS'chapter'
p821
I30
sS'on'
p822
I14
sS'about'
p823
I26
sS'luz'
p824
I30
sS'ok'
p825
I29
sS'beef'
p826
I30
sS'deserved'
p827
I30
sS'getting'
p828
I28
sS'of'
p829
I11
sS'$4.75,90808\n482337458948812801,robbiepsick,2014-06-27'
p830
I30
sS'favorite'
p831
I29
sS'headed'
p832
I30
sS'idk'
p833
I29
sS'bish'
p834
I30
sS'b]'
p835
I30
sS'luck'
p836
I30
sS'wanna'
p837
I30
sS'or'
p838
I30
sS'automatically'
p839
I30
sS'-auntie'
p840
I30
sS'own'
p841
I29
sS'dagger'
p842
I30
sS'dude'
p843
I28
sS'ahh'
p844
I30
sS'prius'
p845
I30
sS'bound'
p846
I29
sS'soo'
p847
I30
sS'two'
p848
I30
sS'down'
p849
I30
sS'nigga'
p850
I29
sS'been'
p851
I30
sS'jena'
p852
I30
sS'annoys'
p853
I30
sS'your'
p854
I28
sS'wife'
p855
I30
sS'her'
p856
I21
sS'there'
p857
I22
sS'xoxo'
p858
I30
sS'lol'
p859
I25
sS'why'
p860
I26
sS'ordered'
p861
I30
sS'los'
p862
I30
sS'i-605'
p863
I30
sS"we're"
p864
I30
sS'way'
p865
I24
sS'house'
p866
I30
sS'was'
p867
I20
sS'happy'
p868
I28
sS'you/'
p869
I30
sS'head'
p870
I30
sS'hawaiian'
p871
I30
sS'hahhaha'
p872
I30
sS'eymans'
p873
I30
sS'slide,90808\n482303354815520768,robbiepsick,2014-06-26'
p874
I30
sS'but'
p875
I27
sS'boys'
p876
I28
sS'hi'
p877
I30
sS'ended'
p878
I30
sS'ewww'
p879
I30
sS'sick'
p880
I30
sS'ha'
p881
I30
sS'with'
p882
I19
sS'eat'
p883
I29
sS'he'
p884
I26
sS"they're"
p885
I30
sS'\xd9\x85\xd8\xa7\xd9\x86\xd9\x8a\xd8\xa8'
p886
I30
sS'tab'
p887
I30
sS'wish'
p888
I30
sS'01:36:09.0,33.8145018,-118.0807877,5739.02,i'
p889
I30
sS'bucket'
p890
I30
sS'up'
p891
I21
sS'us'
p892
I30
sS'flirt'
p893
I30
sS'faded'
p894
I30
sS'faggots\xe2\x80\x9d'
p895
I30
sS'homegirl'
p896
I30
sS'agree'
p897
I30
sS'whateva'
p898
I30
sS'nachos'
p899
I30
sS'supreme'
p900
I30
sS'money'
p901
I30
sS'videos'
p902
I29
sS'ah'
p903
I30
sS'aj'
p904
I29
sS'listening'
p905
I30
sS'direction'
p906
I30
sS'an'
p907
I26
sS'as'
p908
I27
sS'at'
p909
I17
sS'ay'
p910
I29
sS'mrs'
p911
I30
sS'happen'
p912
I30
sS'shit'
p913
I26
sS'jesse'
p914
I30
sS'holla'
p915
I30
sS'follow.the'
p916
I30
sS'engines'
p917
I30
sS'wild'
p918
I30
sS'no'
p919
I30
sS'nah'
p920
I30
sS'when'
p921
I19
sS'other'
p922
I30
sS'naw'
p923
I30
sS'thugg'
p924
I30
sS'u'
p925
I27
sS'you'
p926
I5
sS'really'
p927
I28
sS'10'
p928
I30
sS'picture'
p929
I30
sS'students'
p930
I30
sS'robbins'
p931
I30
sS'welcome'
p932
I30
sS'forgot'
p933
I30
sS'serious'
p934
I30
sS'hair'
p935
I30
sS'dad'
p936
I30
sS'friends'
p937
I30
sS'died'
p938
I30
sS'spend'
p939
I30
sS'suit'
p940
I30
sS'socks'
p941
I30
sS'ho*e'
p942
I30
sS'together'
p943
I30
sS'shoutout'
p944
I30
sS"life's"
p945
I30
sS'fresh'
p946
I30
sS'compete'
p947
I29
sS'came'
p948
I30
sS'time'
p949
I27
sS"she's"
p950
I29
sS'gardens'
p951
I30
s.