(dp0
S''
p1
I1
sS'raining'
p2
I136
sS'half.\xe2\x80\x9d'
p3
I138
sS'four'
p4
I137
sS'ocean)'
p5
I123
sS'spiders'
p6
I138
sS"friend's"
p7
I137
sS'hanging'
p8
I129
sS'woody'
p9
I137
sS'lori'
p10
I138
sS'lord'
p11
I136
sS'deli'
p12
I135
sS'wood)'
p13
I138
sS'crackin'
p14
I135
sS'bringing'
p15
I135
sS'fingers)'
p16
I138
sS'betch'
p17
I138
sS'zabte'
p18
I138
sS'voyeur'
p19
I137
sS'wednesday'
p20
I135
sS'grifters'
p21
I138
sS'choice...\xc2\xbf'
p22
I138
sS'nigh'
p23
I138
sS'tired'
p24
I130
sS'trailblazers'
p25
I138
sS'second'
p26
I128
sS'tether'
p27
I138
sS'errors'
p28
I138
sS'inglewood'
p29
I138
sS'w/jessica'
p30
I138
sS'cooking'
p31
I136
sS'fingers'
p32
I134
sS'(how'
p33
I138
sS'woulda'
p34
I138
sS'dahh'
p35
I138
sS'crouch'
p36
I138
sS'herb'
p37
I138
sS'here'
p38
I78
sS'\xe2\x9d\xa4\xef\xb8\x8f'
p39
I115
sS'ching'
p40
I138
sS'hers'
p41
I138
sS'bbq)'
p42
I136
sS'kids'
p43
I117
sS'k'
p44
I135
sS"i'd"
p45
I127
sS"i'm"
p46
I8
sS'ojal\xc3\xa1'
p47
I138
sS'explained'
p48
I138
sS'koji'
p49
I138
sS'brought'
p50
I137
sS'hahahahah'
p51
I135
sS'bricks\xe2\x80\x9dbricks'
p52
I138
sS'txt'
p53
I137
sS'<3'
p54
I132
sS'browse'
p55
I138
sS'girlfriends)'
p56
I138
sS'music'
p57
I131
sS'twistification'
p58
I137
sS'strike'
p59
I137
sS'until'
p60
I127
sS'off....sleeping'
p61
I138
sS'suffocated'
p62
I138
sS'holy'
p63
I121
sS'relax'
p64
I133
sS'holt'
p65
I137
sS'subtweet'
p66
I137
sS'hurt'
p67
I132
sS'glass'
p68
I137
sS'teaching'
p69
I137
sS'hole'
p70
I138
sS'hold'
p71
I137
sS'drella'
p72
I138
sS'example'
p73
I138
sS'bizzy'
p74
I138
sS'kavinsky'
p75
I138
sS'triple'
p76
I138
sS'shore)'
p77
I129
sS'organized'
p78
I138
sS'polaroids'
p79
I133
sS'absolute'
p80
I138
sS'ones\xe2\x80\x9di'
p81
I138
sS'complaining'
p82
I138
sS'hoo'
p83
I136
sS'smalls!"'
p84
I138
sS'how'
p85
I77
sS'hot'
p86
I122
sS'few\xe2\x80\xa6'
p87
I138
sS'hop'
p88
I138
sS'place'
p89
I102
sS'beauty'
p90
I135
sS'funny'
p91
I132
sS'"sunsets'
p92
I138
sS'shores'
p93
I120
sS'wrong'
p94
I133
sS'"live'
p95
I138
sS'comparto'
p96
I138
sS'types'
p97
I138
sS'ho'
p98
I137
sS'keeps'
p99
I138
sS'wing'
p100
I138
sS'wind'
p101
I138
sS'wine'
p102
I130
sS'tetherme'
p103
I138
sS'welcomed'
p104
I138
sS'partnered'
p105
I138
sS'"put'
p106
I138
sS'beachlife'
p107
I135
sS'4evr'
p108
I138
sS'fix'
p109
I135
sS'easier'
p110
I137
sS'now...crowds)'
p111
I138
sS'thrones'
p112
I136
sS'lambert'
p113
I138
sS'beaut'
p114
I138
sS'awfully'
p115
I138
sS'silver'
p116
I138
sS'mani/pediatric'
p117
I138
sS'debut'
p118
I138
sS'addicted'
p119
I137
sS'jay-z'
p120
I138
sS'65\xc2\xb0'
p121
I138
sS'series'
p122
I124
sS'turnin'
p123
I138
sS'spider'
p124
I137
sS'rooftop\xe2\x80\xa6'
p125
I138
sS'92886'
p126
I138
sS"we'd"
p127
I138
sS'ofam4'
p128
I138
sS'whip'
p129
I138
sS'rt'
p130
I129
sS'ru'
p131
I138
sS'neff'
p132
I138
sS'rd'
p133
I135
sS're'
p134
I138
sS'rn'
p135
I134
sS"joe's)"
p136
I137
sS'foundation'
p137
I138
sS'kayla'
p138
I137
sS'grapes'
p139
I138
sS'(4800'
p140
I136
sS'couture)'
p141
I138
sS'speedo'
p142
I138
sS'ate'
p143
I131
sS'maya)'
p144
I136
sS'heading'
p145
I137
sS'shipped'
p146
I138
sS'musicians'
p147
I138
sS"msg's"
p148
I138
sS"today's"
p149
I127
sS'2-time'
p150
I138
sS'dodgeball'
p151
I138
sS'10k'
p152
I138
sS'wasp'
p153
I138
sS'veggie'
p154
I138
sS'wash'
p155
I138
sS'spinning'
p156
I135
sS'kfc'
p157
I138
sS'clarity'
p158
I138
sS'chalet)'
p159
I132
sS'olds'
p160
I138
sS'basketball'
p161
I136
sS'esos'
p162
I138
sS'service'
p163
I136
sS'needed'
p164
I134
sS'chugging'
p165
I138
sS'sure)'
p166
I138
sS"feelin'"
p167
I138
sS'genesis'
p168
I136
sS'listen'
p169
I134
sS'wisdon'
p170
I138
sS'wisdom'
p171
I138
sS'crawl'
p172
I137
sS'shoppe)'
p173
I138
sS'0-12'
p174
I138
sS'showed'
p175
I137
sS'tree'
p176
I138
sS'shower'
p177
I136
sS'trex'
p178
I138
sS'heyyo'
p179
I138
sS'feeling'
p180
I127
sS'unintended'
p181
I138
sS'esta'
p182
I137
sS'runner'
p183
I138
sS'boston'
p184
I137
sS'\xd9\x87\xd8\xa7\xd9\x84\xd9\x85\xd8\xa8\xd8\xa7\xd8\xb1\xd9\x8a\xd8\xa7\xd8\xaa'
p185
I138
sS'corny'
p186
I138
sS"guys'"
p187
I138
sS'finale.\xe2\x80\xa6'
p188
I138
sS'causing'
p189
I138
sS'responsibly'
p190
I138
sS"dori's"
p191
I138
sS'...turns'
p192
I138
sS'shall'
p193
I138
sS'thrilled'
p194
I138
sS'doin'
p195
I137
sS'"black'
p196
I138
sS'victoria'
p197
I138
sS'welli'
p198
I138
sS'addict'
p199
I138
sS'letter'
p200
I138
sS'singer'
p201
I138
sS'episode'
p202
I136
sS'grove'
p203
I138
sS'professor'
p204
I137
sS'camp'
p205
I138
sS'tech'
p206
I138
sS'\xd0\xb1\xd1\x8b'
p207
I138
sS'scream'
p208
I138
sS'came'
p209
I120
sS'saying'
p210
I128
sS'boogie'
p211
I136
sS'bomb'
p212
I134
sS'tequila'
p213
I136
sS'bonnie'
p214
I138
sS'prix'
p215
I138
sS'tempted'
p216
I137
sS'hahahahahahaah'
p217
I138
sS'die-hard'
p218
I138
sS'busy'
p219
I134
sS'louise'
p220
I138
sS'menu'
p221
I137
sS'bust'
p222
I138
sS'than'
p223
I107
sS'touched'
p224
I138
sS'rich'
p225
I138
sS"bryce's"
p226
I138
sS'rice'
p227
I137
sS'sufficienteeeeee'
p228
I138
sS"sayin'"
p229
I138
sS'honda'
p230
I138
sS'psychiatric'
p231
I138
sS'pocket'
p232
I138
sS'aroma'
p233
I136
sS'net'
p234
I138
sS'unfortunately'
p235
I138
sS'spilling'
p236
I138
sS'nicely'
p237
I138
sS'release'
p238
I137
sS'respond'
p239
I138
sS'blew'
p240
I136
sS'beso'
p241
I138
sS'fair'
p242
I136
sS'so...with'
p243
I138
sS'\xd0\xb2\xd1\x8b'
p244
I138
sS'rupaul'
p245
I137
sS'goodnight'
p246
I135
sS'for\xe2\x80\xa6'
p247
I136
sS'fail'
p248
I135
sS'hammer'
p249
I138
sS'lakers"'
p250
I138
sS'best'
p251
I98
sS'stampd'
p252
I137
sS'manson'
p253
I138
sS'lots'
p254
I137
sS'sombrero'
p255
I138
sS'rings'
p256
I137
sS'sista'
p257
I138
sS'prada'
p258
I138
sS'pirate'
p259
I138
sS'men'
p260
I133
sS'nature'
p261
I137
sS'wtf'
p262
I121
sS'wth'
p263
I138
sS'nahhhh'
p264
I138
sS'accident'
p265
I138
sS'country'
p266
I137
sS'pits'
p267
I138
sS'adventures'
p268
I138
sS'followill'
p269
I137
sS'lookin'
p270
I137
sS'argue'
p271
I138
sS'asked'
p272
I133
sS'30th'
p273
I137
sS'jamaicans'
p274
I138
sS'2nd'
p275
I45
sS'beachy'
p276
I137
sS'blonde'
p277
I137
sS'anti-valentines'
p278
I138
sS'lighthouse'
p279
I137
sS'\xd0\xbb\xd1\x8e\xd0\xb1\xd0\xb8\xd0\xbc\xd1\x8b\xd1\x85'
p280
I138
sS'bothers'
p281
I138
sS'much'
p282
I93
sS'"unfollow"'
p283
I138
sS'fry'
p284
I138
sS'tallest'
p285
I138
sS'"one'
p286
I138
sS'dots'
p287
I138
sS'life'
p288
I81
sS'beach)'
p289
I52
sS'crying'
p290
I132
sS'eastern'
p291
I138
sS'beach"'
p292
I133
sS'sosososo'
p293
I138
sS'child'
p294
I136
sS'chili'
p295
I138
sS'haters'
p296
I138
sS'spin'
p297
I138
sS'cunt'
p298
I138
sS'chill'
p299
I132
sS'gimic'
p300
I138
sS'linkin'
p301
I138
sS'participatory'
p302
I138
sS'contemplated'
p303
I138
sS'mechele'
p304
I138
sS'visit'
p305
I133
sS'remembering'
p306
I138
sS'streeeeettt'
p307
I138
sS'played'
p308
I136
sS'piercings'
p309
I137
sS'conditioner'
p310
I138
sS'top"'
p311
I138
sS'memorial'
p312
I138
sS'things'
p313
I121
sS'format'
p314
I138
sS'split'
p315
I137
sS'babies'
p316
I133
sS'electro'
p317
I138
sS'couple'
p318
I127
sS'\xd0\xbf\xd0\xbe\xd0\xbb\xd1\x8e\xd0\xb1\xd0\xb8\xd0\xbb\xd0\xb0'
p319
I138
sS'inadvertently'
p320
I138
sS'tops'
p321
I136
sS'tuna'
p322
I138
sS'"who'
p323
I137
sS'damage"'
p324
I138
sS'burgers'
p325
I138
sS'corporate'
p326
I138
sS'eyebrows'
p327
I138
sS'krob'
p328
I138
sS'sleepy'
p329
I138
sS'forsaken'
p330
I138
sS'sheena'
p331
I138
sS'rushing'
p332
I138
sS'however...ben'
p333
I138
sS'hah'
p334
I136
sS'broncos'
p335
I136
sS'ham'
p336
I137
sS'had'
p337
I90
sS'projects'
p338
I137
sS'easy'
p339
I134
sS'prison'
p340
I138
sS'has'
p341
I108
sS'hat'
p342
I137
sS'...my'
p343
I138
sS'possible'
p344
I137
sS'possibly'
p345
I138
sS'etiquette'
p346
I138
sS'pizookie'
p347
I135
sS'shadow'
p348
I138
sS'd'
p349
I138
sS'county'
p350
I138
sS'steph'
p351
I138
sS'remind'
p352
I137
sS'right'
p353
I71
sS'old'
p354
I119
sS'people'
p355
I75
sS'weds'
p356
I138
sS'crows'
p357
I138
sS'left)'
p358
I137
sS'creep'
p359
I136
sS'cocaine'
p360
I138
sS'ump'
p361
I138
sS'for'
p362
I13
sS'bottom'
p363
I138
sS'know!!('
p364
I138
sS'creative'
p365
I138
sS'fog'
p366
I137
sS'uma'
p367
I138
sS'umm'
p368
I135
sS"stamp'd"
p369
I136
sS'loranda'
p370
I138
sS"ol'"
p371
I138
sS'palapa)'
p372
I135
sS'bbbuuuurrrrrrrr'
p373
I138
sS'annas'
p374
I136
sS'shaken'
p375
I138
sS'most\xe2\x80\xa6'
p376
I138
sS'thealexschneider'
p377
I132
sS'dollars'
p378
I137
sS'o'
p379
I137
sS'catchy'
p380
I138
sS'stoked'
p381
I134
sS'slightly'
p382
I137
sS'raised'
p383
I138
sS'soo'
p384
I135
sS'son'
p385
I133
sS'thankful'
p386
I136
sS'beings'
p387
I138
sS'mangos'
p388
I138
sS'soy'
p389
I138
sS'mamba'
p390
I137
sS'support'
p391
I136
sS'constantly'
p392
I138
sS'knowing'
p393
I137
sS'joseph'
p394
I137
sS'spring'
p395
I133
sS'icon'
p396
I138
sS'happy'
p397
I56
sS'so)'
p398
I138
sS'paypal'
p399
I138
sS'(4828'
p400
I137
sS':;)'
p401
I138
sS'reinventing'
p402
I138
sS'inside'
p403
I135
sS'(wow'
p404
I138
sS'frands'
p405
I138
sS'\xe2\x9b\xb5\xef\xb8\x8f'
p406
I138
sS'later'
p407
I132
sS'..time'
p408
I138
sS'tournament'
p409
I138
sS'jaimie'
p410
I137
sS'soothe'
p411
I138
sS'gemini'
p412
I136
sS"rollin'"
p413
I138
sS'amarista'
p414
I138
sS'posting'
p415
I138
sS'floor'
p416
I133
sS'actor'
p417
I138
sS'pasadena'
p418
I138
sS'smell'
p419
I136
sS'roll'
p420
I129
sS"'s"
p421
I138
sS'vadge."'
p422
I138
sS'models'
p423
I137
sS'~ns'
p424
I138
sS'rolling'
p425
I134
sS'(5274'
p426
I137
sS'pet'
p427
I138
sS'time'
p428
I51
sS'push'
p429
I137
sS'banners'
p430
I138
sS':/'
p431
I137
sS':('
p432
I116
sS':)'
p433
I105
sS'chain'
p434
I138
sS'whoever'
p435
I138
sS'legends\xe2\x80\xa6'
p436
I136
sS'goddammit'
p437
I138
sS'burritos'
p438
I137
sS'skate'
p439
I134
sS'they\xe2\x80\xa6'
p440
I138
sS'chair'
p441
I138
sS'venice'
p442
I136
sS'la~~~>london\xe2\x80\x9d'
p443
I138
sS"when's"
p444
I138
sS'vez'
p445
I138
sS'bicycles'
p446
I137
sS'paychecks'
p447
I138
sS'icing'
p448
I137
sS':d'
p449
I134
sS'debbiecakes420'
p450
I138
sS'choice'
p451
I138
sS'pee'
p452
I138
sS':p'
p453
I136
sS'minute'
p454
I136
sS'mahi'
p455
I138
sS'dude!\xe2\x80\x9d'
p456
I138
sS'tear'
p457
I138
sS'teas'
p458
I138
sS'minnie'
p459
I138
sS'leave'
p460
I129
sS'solved'
p461
I138
sS'settle'
p462
I134
sS'subway'
p463
I138
sS'team'
p464
I90
sS'multi-talented\xe2\x80\xa6'
p465
I138
sS'steaks'
p466
I138
sS'shirts'
p467
I138
sS'bb'
p468
I137
sS'melt'
p469
I138
sS'current'
p470
I135
sS'300'
p471
I138
sS'\xee\x90\xbe'
p472
I138
sS'falling'
p473
I136
sS'ground'
p474
I138
sS'freaky'
p475
I138
sS'ufc'
p476
I138
sS'oldies'
p477
I138
sS'likewhere'
p478
I138
sS'lange'
p479
I138
sS'address'
p480
I137
sS'alone'
p481
I131
sS'missturnbo'
p482
I130
sS'brilliant'
p483
I138
sS'accomplished'
p484
I137
sS'ipa'
p485
I135
sS'love'
p486
I31
sS'bloods'
p487
I138
sS'willl(('
p488
I138
sS'prefer'
p489
I138
sS'bloody'
p490
I135
sS'fake'
p491
I129
sS"nick's"
p492
I138
sS'working'
p493
I118
sS"1d's"
p494
I138
sS'angry'
p495
I138
sS'wondering'
p496
I138
sS'wicked'
p497
I138
sS'oregon'
p498
I138
sS'everywhere'
p499
I133
sS'have\xe2\x80\xa6'
p500
I138
sS"cody's"
p501
I138
sS'\xe2\x9d\xa4\xef\xb8\x8f\xe2\x9d\xa4\xef\xb8\x8f'
p502
I138
sS're-re-watching'
p503
I138
sS'deserved'
p504
I138
sS'whaaaat'
p505
I136
sS'catbox'
p506
I138
sS'pretend'
p507
I138
sS'\xd9\xbe\xd9\x8a\xd8\xb4\xd9\x85'
p508
I138
sS'following'
p509
I135
sS'quarter...the'
p510
I138
sS'want'
p511
I86
sS'23%'
p512
I138
sS'awesome'
p513
I123
sS'gza'
p514
I138
sS'graduation'
p515
I138
sS'allowed'
p516
I135
sS'winter'
p517
I134
sS'pimp-hoe'
p518
I138
sS'savor'
p519
I135
sS'buttered'
p520
I138
sS'divided'
p521
I138
sS'feudevenus'
p522
I138
sS's4'
p523
I138
sS'snaps'
p524
I137
sS'laundry'
p525
I138
sS'cuhz'
p526
I138
sS'spot'
p527
I133
sS'latte'
p528
I138
sS"client's"
p529
I138
sS'date'
p530
I130
sS'such'
p531
I121
sS'suck'
p532
I136
sS'data'
p533
I138
sS'rude"'
p534
I138
sS'stress'
p535
I136
sS'natural'
p536
I138
sS'wheelchair'
p537
I138
sS'st'
p538
I81
sS'sandbox'
p539
I136
sS'sh'
p540
I138
sS'so'
p541
I27
sS'soon...everyday'
p542
I138
sS'sa'
p543
I138
sS'sf'
p544
I138
sS'se'
p545
I138
sS'sd'
p546
I137
sS'drunken'
p547
I138
sS'\xd1\x82\xd0\xb0\xd0\xba'
p548
I138
sS'years'
p549
I127
sS'course'
p550
I132
sS'episodes'
p551
I138
sS'jimmy'
p552
I138
sS'julestasha'
p553
I138
sS'kanye'
p554
I138
sS'ttg'
p555
I138
sS'fasheditorials'
p556
I138
sS'happ'
p557
I138
sS'djs'
p558
I138
sS'disconnect'
p559
I138
sS'solace'
p560
I138
sS'cleanest'
p561
I138
sS'jim'
p562
I138
sS'hoho'
p563
I138
sS'amazing'
p564
I105
sS'faves'
p565
I137
sS'stroll'
p566
I134
sS'jiz'
p567
I137
sS'petition'
p568
I138
sS'smarter'
p569
I138
sS'nation'
p570
I137
sS'6.4m'
p571
I138
sS'ahaha'
p572
I136
sS'runners'
p573
I138
sS'(4020'
p574
I136
sS'parade)'
p575
I138
sS'brody'
p576
I138
sS'gnarnia'
p577
I137
sS'veins'
p578
I138
sS'photoshoot'
p579
I136
sS'lowkey'
p580
I138
sS'receipt'
p581
I138
sS'joker'
p582
I138
sS'sunburnt'
p583
I138
sS'*crying'
p584
I138
sS'seriously'
p585
I127
sS'internet'
p586
I136
sS'suggesting'
p587
I138
sS'formula'
p588
I138
sS'squares'
p589
I137
sS'dodgers'
p590
I138
sS'huevos'
p591
I138
sS'million'
p592
I135
sS'agavesbar'
p593
I138
sS'quite'
p594
I138
sS'allstar'
p595
I138
sS'complicated'
p596
I138
sS'besides'
p597
I138
sS'grandma'
p598
I137
sS'salad6'
p599
I138
sS'twinsies'
p600
I138
sS'whittier'
p601
I138
sS'sam_stagram1'
p602
I138
sS'brasil'
p603
I136
sS'spam'
p604
I136
sS'punk'
p605
I138
sS'punt'
p606
I138
sS'are...\xe2\x80\x9d'
p607
I138
sS'fam...:)'
p608
I138
sS'ono'
p609
I138
sS'spoken'
p610
I138
sS'potter'
p611
I136
sS'one'
p612
I67
sS'mignon'
p613
I138
sS'punishable'
p614
I138
sS'vote'
p615
I137
sS'jaaaaaaws'
p616
I138
sS'open'
p617
I129
sS'city'
p618
I128
sS'crossfitreality'
p619
I138
sS'bite'
p620
I137
sS'shoebox'
p621
I138
sS'lesbian'
p622
I138
sS'fml'
p623
I136
sS'2'
p624
I66
sS'draft'
p625
I138
sS'typing'
p626
I138
sS'500-1000'
p627
I138
sS'on)'
p628
I138
sS'loud\xe2\x80\x9dnigga'
p629
I138
sS'hard.\xe2\x80\x9d'
p630
I138
sS'assssss'
p631
I138
sS'boyfriend'
p632
I132
sS'rza'
p633
I138
sS"irsay's"
p634
I138
sS'depressed'
p635
I138
sS'musgrave'
p636
I138
sS'future'
p637
I136
sS'sophie'
p638
I137
sS'russia'
p639
I138
sS'prospect'
p640
I138
sS'san'
p641
I129
sS'sam'
p642
I136
sS'\xd8\xa8\xd8\xa8\xd9\x8a\xd9\x86\xd9\x8a\xd9\x86'
p643
I138
sS'locations'
p644
I138
sS'sad'
p645
I123
sS'say'
p646
I122
sS'buried'
p647
I138
sS'saw'
p648
I117
sS'sav'
p649
I138
sS'sat'
p650
I134
sS'zoe'
p651
I138
sS'aside'
p652
I138
sS'zoo'
p653
I138
sS'omfg'
p654
I135
sS'take'
p655
I112
sS'wanting'
p656
I133
sS'mayer'
p657
I138
sS'butterfly'
p658
I138
sS'printer'
p659
I138
sS'knew'
p660
I128
sS'reaaaallly'
p661
I138
sS'knee'
p662
I138
sS'pages'
p663
I137
sS'lawd'
p664
I138
sS'average'
p665
I138
sS'phil'
p666
I138
sS'drive'
p667
I126
sS'crooked'
p668
I138
sS'bada'
p669
I137
sS'salt'
p670
I137
sS'walking'
p671
I125
sS'peaches'
p672
I138
sS'shower\xe2\x80\x9d'
p673
I138
sS'dba??\xe2\x80\x9d'
p674
I138
sS'\xe2\x9c\x8c'
p675
I137
sS'slow'
p676
I138
sS'\xe2\x9c\x8b'
p677
I136
sS'\xe2\x9c\x8a'
p678
I137
sS'blinde'
p679
I138
sS'\xe2\x98\x95\xef\xb8\x8f\xe2\x98\x95\xef\xb8\x8f\xe2\x98\x95\xef\xb8\x8f'
p680
I138
sS'aimlessly'
p681
I138
sS'tears'
p682
I136
sS'going'
p683
I93
sS'hockey'
p684
I137
sS'pinkberry'
p685
I138
sS'indycar/irl'
p686
I138
sS'freezing'
p687
I138
sS'mate.\xe2\x80\x9d'
p688
I138
sS'compliments'
p689
I138
sS'laguna'
p690
I137
sS'pre-sale'
p691
I138
sS'pimp'
p692
I138
sS'artist'
p693
I138
sS'borrow'
p694
I137
sS'worried'
p695
I137
sS'tiki'
p696
I137
sS'worries'
p697
I136
sS'hotness'
p698
I137
sS'where'
p699
I109
sS'snapback'
p700
I138
sS'anyways'
p701
I137
sS'erica'
p702
I138
sS"alex's"
p703
I138
sS'planet'
p704
I138
sS'humanda'
p705
I138
sS'jumped'
p706
I137
sS'teeny'
p707
I138
sS"man'"
p708
I138
sS'home-cooked'
p709
I138
sS'screen'
p710
I135
sS'mosquitos'
p711
I138
sS'clayton'
p712
I137
sS'awards'
p713
I138
sS'mans'
p714
I138
sS'u!!!!!!\xe2\x80\x9d'
p715
I138
sS'many'
p716
I118
sS'flipped'
p717
I138
sS's'
p718
I135
sS'mani'
p719
I138
sS'expression'
p720
I138
sS"can't"
p721
I67
sS'mano'
p722
I138
sS'more.,90803\n487794302047629312,shannontucknies,2014-07-12'
p723
I138
sS'stream'
p724
I138
sS"joe's\xe2\x80\xa6"
p725
I138
sS'nooooo'
p726
I138
sS'twin'
p727
I137
sS'anti'
p728
I137
sS'3000'
p729
I136
sS'boat'
p730
I136
sS'caring'
p731
I138
sS'now\xe2\x80\x9d'
p732
I138
sS'stretch'
p733
I138
sS'west'
p734
I135
sS'vacation'
p735
I138
sS'hanooz'
p736
I138
sS'crawford'
p737
I138
sS'wants'
p738
I131
sS'photog'
p739
I138
sS'benoit'
p740
I138
sS'300l'
p741
I138
sS'thousand'
p742
I138
sS'gisa'
p743
I135
sS'photos'
p744
I138
sS'hashtag'
p745
I136
sS'psychotherapy'
p746
I138
sS'wilco'
p747
I138
sS'polly'
p748
I138
sS'policies'
p749
I138
sS'hayek'
p750
I138
sS'situation'
p751
I138
sS'onerepublic'
p752
I138
sS'brow'
p753
I138
sS'purse'
p754
I138
sS'bros'
p755
I138
sS'pinks'
p756
I138
sS'technology'
p757
I138
sS'fame'
p758
I138
sS'dragging'
p759
I138
sS'even...you'
p760
I138
sS'rooting'
p761
I136
sS'surveillance'
p762
I138
sS'otto'
p763
I138
sS'wolflife'
p764
I138
sS'breakdown'
p765
I138
sS'hideaway'
p766
I130
sS'latrice'
p767
I138
sS'cheers'
p768
I133
sS'bulletproof'
p769
I138
sS'internet"'
p770
I138
sS'costa'
p771
I136
sS'costs'
p772
I138
sS'\xd1\x81\xd1\x82\xd0\xbe\xd0\xb8\xd1\x82'
p773
I138
sS'alfredo'
p774
I138
sS'summer'
p775
I111
sS'being'
p776
I114
sS'composing'
p777
I138
sS'rest'
p778
I130
sS'clanderos'
p779
I138
sS'(a'
p780
I138
sS'afterwards'
p781
I138
sS'rover'
p782
I138
sS'bricks'
p783
I138
sS"tiffany's"
p784
I138
sS'skies'
p785
I138
sS'around'
p786
I122
sS'(1'
p787
I138
sS'sums'
p788
I137
sS'veggies3'
p789
I138
sS'campis87'
p790
I138
sS'(('
p791
I137
sS'traffic'
p792
I135
sS'darn'
p793
I138
sS'2geva'
p794
I138
sS'world'
p795
I125
sS'dare'
p796
I137
sS'stranger'
p797
I138
sS"mojito's"
p798
I138
sS'overhyped'
p799
I138
sS'dwntwn'
p800
I138
sS'bail'
p801
I138
sS'glamor'
p802
I138
sS'(102'
p803
I119
sS'epiode'
p804
I138
sS'clap'
p805
I138
sS'seating'
p806
I138
sS'marshawn'
p807
I138
sS'grub'
p808
I138
sS'yayuuuh'
p809
I138
sS'kole'
p810
I137
sS'lobster'
p811
I137
sS';d'
p812
I138
sS'playin'
p813
I138
sS'pickles'
p814
I138
sS'thinks'
p815
I136
sS'yesss'
p816
I135
sS'fighttttt'
p817
I138
sS'noon'
p818
I138
sS'30-minute'
p819
I128
sS'joeswah'
p820
I137
sS'23rd'
p821
I138
sS'turkey'
p822
I137
sS'open...should'
p823
I138
sS'throwback'
p824
I138
sS';)'
p825
I127
sS';('
p826
I137
sS'stone'
p827
I137
sS'ace'
p828
I138
sS'industry'
p829
I138
sS'favorite'
p830
I114
sS'side'
p831
I133
sS'niall'
p832
I137
sS'neighbor'
p833
I137
sS'act'
p834
I134
sS'luck'
p835
I136
sS'burning'
p836
I137
sS'|h&mu'
p837
I138
sS'freaked'
p838
I137
sS'bjs'
p839
I138
sS'lively'
p840
I138
sS'homeless'
p841
I138
sS'parties'
p842
I135
sS'besar'
p843
I138
sS'legacy'
p844
I138
sS"how's"
p845
I135
sS'her'
p846
I102
sS'trip"'
p847
I138
sS'hey'
p848
I115
sS'lmfaooo'
p849
I138
sS'bubble'
p850
I138
sS'\xd1\x81\xd0\xb0\xd0\xbc\xd1\x8b\xd1\x85'
p851
I138
sS'complete'
p852
I137
sS'thelma'
p853
I138
sS'with'
p854
I17
sS'buying'
p855
I137
sS'brivip'
p856
I138
sS"they're"
p857
I127
sS'rage'
p858
I138
sS'flirt'
p859
I137
sS'dirty'
p860
I138
sS'awwhhh'
p861
I138
sS'age'
p862
I135
sS'gone'
p863
I136
sS'ad'
p864
I138
sS'af'
p865
I132
sS'ai'
p866
I137
sS'ah'
p867
I134
sS'accents'
p868
I138
sS'aj'
p869
I138
sS'am'
p870
I108
sS'al'
p871
I135
sS'watches'
p872
I138
sS'an'
p873
I83
sS'ap'
p874
I138
sS'as'
p875
I77
sS'ar'
p876
I138
sS'at'
p877
I6
sS"harding's"
p878
I138
sS'walks'
p879
I138
sS'ay'
p880
I138
sS'watched'
p881
I137
sS'swaggg'
p882
I138
sS'cream'
p883
I131
sS'angelica'
p884
I138
sS'graduate'
p885
I138
sS'tight'
p886
I138
sS'friggin'
p887
I138
sS'puppy'
p888
I137
sS'walk"'
p889
I138
sS'annex'
p890
I138
sS'andrew'
p891
I138
sS'gifts'
p892
I138
sS'natalie'
p893
I137
sS'dyen'
p894
I138
sS'sox/'
p895
I138
sS'snagged'
p896
I138
sS'tricks'
p897
I138
sS'groom'
p898
I138
sS'hello'
p899
I134
sS'mass'
p900
I138
sS'adam'
p901
I138
sS'original'
p902
I137
sS'essay'
p903
I138
sS'9/11'
p904
I138
sS'(it'
p905
I138
sS'consider'
p906
I137
sS'caused'
p907
I138
sS'(awesome...have'
p908
I138
sS"amo.that's"
p909
I138
sS'dso'
p910
I138
sS'tv'
p911
I118
sS'8/830'
p912
I138
sS'tu'
p913
I138
sS'including'
p914
I137
sS"half's"
p915
I138
sS'tn'
p916
I137
sS'to'
p917
I4
sS'tl'
p918
I138
sS'tj'
p919
I137
sS'ti'
p920
I137
sS'smile'
p921
I138
sS'te'
p922
I135
sS'homepage'
p923
I138
sS'tore.it'
p924
I138
sS'ghana'
p925
I138
sS'case'
p926
I137
sS'ofthe'
p927
I138
sS'frieri'
p928
I138
sS'24th'
p929
I138
sS'condition'
p930
I138
sS'`'
p931
I138
sS'17th'
p932
I136
sS'cable'
p933
I138
sS'pbr'
p934
I138
sS'shenanigans'
p935
I136
sS'val_lov3r'
p936
I138
sS'laying'
p937
I136
sS'large'
p938
I138
sS'sang'
p939
I138
sS'sand'
p940
I137
sS'hermosa'
p941
I138
sS'harry'
p942
I121
sS'small'
p943
I136
sS'pigskin'
p944
I138
sS'it..lol'
p945
I138
sS'paso'
p946
I138
sS'past'
p947
I134
sS'grease'
p948
I138
sS'pass'
p949
I135
sS'\xe2\x95\xae(\xe2\x95\xaf_\xe2\x95\xb0)\xe2\x95\xad'
p950
I138
sS'handicapped'
p951
I138
sS'richard'
p952
I138
sS'clock'
p953
I138
sS'section'
p954
I136
sS'(thanks'
p955
I138
sS'fucks'
p956
I138
sS'\xe2\x9d\xa4\xef\xb8\x8f\xe2\x9d\xa4\xef\xb8\x8f\xe2\x9d\xa4\xef\xb8\x8f\xe2\x80\x9d'
p957
I138
sS'avenues'
p958
I136
sS'luxuries'
p959
I138
sS'method'
p960
I138
sS'pic"'
p961
I138
sS'full'
p962
I133
sS'hash'
p963
I138
sS'diapers'
p964
I138
sS'bldg'
p965
I138
sS'hours'
p966
I126
sS'it--just'
p967
I138
sS'(5236'
p968
I138
sS'november'
p969
I137
sS'shops'
p970
I138
sS'halftime\xe2\x80\xa6'
p971
I138
sS'melancholia'
p972
I138
sS'experience'
p973
I133
sS'pics'
p974
I133
sS'healthier'
p975
I138
sS'perfetto'
p976
I138
sS'social'
p977
I137
sS"would've"
p978
I135
sS"day's"
p979
I138
sS'via'
p980
I137
sS'followed'
p981
I137
sS'strolling'
p982
I138
sS'young'
p983
I132
sS'viv'
p984
I138
sS'seester'
p985
I138
sS'iglesias'
p986
I138
sS'kaitlyn'
p987
I138
sS'smolinski'
p988
I138
sS'pitching'
p989
I136
sS'gorgeous'
p990
I134
sS'stretchy'
p991
I138
sS'more'
p992
I92
sS'teen'
p993
I138
sS'door'
p994
I136
sS'company'
p995
I137
sS'(not'
p996
I138
sS'chucks'
p997
I138
sS'dood'
p998
I138
sS'dooooone'
p999
I138
sS'keeping'
p1000
I138
sS'bandach'
p1001
I138
sS'(early'
p1002
I138
sS'\xc2\xa9helmut'
p1003
I138
sS'"convenient."'
p1004
I138
sS'learn'
p1005
I131
sS'male'
p1006
I138
sS'beautiful'
p1007
I115
sS'(with'
p1008
I137
sS'scan'
p1009
I135
sS'40mph'
p1010
I138
sS'accept'
p1011
I138
sS'states'
p1012
I138
sS'heels'
p1013
I134
sS'sense'
p1014
I137
sS'dress'
p1015
I134
sS"'99"
p1016
I138
sS'huge'
p1017
I133
sS'(got'
p1018
I137
sS'ahhhhhh.....:)'
p1019
I138
sS'kameleon'
p1020
I138
sS'hugs'
p1021
I138
sS'tempting'
p1022
I138
sS'brett'
p1023
I138
sS'plane'
p1024
I138
sS'waves'
p1025
I138
sS'fan.\xe2\x80\x9d'
p1026
I138
sS'funday'
p1027
I131
sS'"before"'
p1028
I138
sS'volleyball'
p1029
I136
sS'overcooked'
p1030
I138
sS'asparagus'
p1031
I138
sS'geographic'
p1032
I138
sS"charlie's"
p1033
I137
sS'patio'
p1034
I137
sS'replied'
p1035
I138
sS'wondertwin'
p1036
I138
sS'brix'
p1037
I134
sS'mexican'
p1038
I131
sS'"moonlight'
p1039
I134
sS'bowl'
p1040
I138
sS'mousse'
p1041
I138
sS'trade'
p1042
I134
sS'attitude'
p1043
I138
sS'paper'
p1044
I133
sS'looks"'
p1045
I138
sS'signs'
p1046
I137
sS'smiling'
p1047
I138
sS'its'
p1048
I122
sS'roots'
p1049
I138
sS'bummed'
p1050
I138
sS'roemer'
p1051
I135
sS'shifts'
p1052
I138
sS'"accidentally"'
p1053
I138
sS'symptoms'
p1054
I138
sS'11:00am'
p1055
I138
sS'sauce'
p1056
I137
sS"bestie's"
p1057
I138
sS'lacey'
p1058
I138
sS'sisters'
p1059
I138
sS'fios'
p1060
I138
sS'reminder'
p1061
I138
sS'\xd1\x83\xd1\x82\xd1\x80\xd0\xbe'
p1062
I138
sS'everytime'
p1063
I136
sS'nugget'
p1064
I136
sS'always'
p1065
I93
sS'again\xe2\x80\x9d'
p1066
I138
sS'swimsuit'
p1067
I138
sS'found'
p1068
I128
sS'week'
p1069
I119
sS'brunette'
p1070
I138
sS'england'
p1071
I137
sS'2013.07.23'
p1072
I138
sS'chrissy'
p1073
I138
sS'doses'
p1074
I138
sS'really'
p1075
I97
sS'silky'
p1076
I138
sS'psychology'
p1077
I138
sS'candlelight'
p1078
I138
sS'darling'
p1079
I137
sS'silke'
p1080
I138
sS'belief'
p1081
I138
sS'luke_vicious\xe2\x80\xa6'
p1082
I138
sS'drives'
p1083
I138
sS'abnormally'
p1084
I138
sS'imagine'
p1085
I137
sS'bonita'
p1086
I138
sS'definition'
p1087
I138
sS'sinjin'
p1088
I138
sS'b_shank'
p1089
I138
sS'retainer'
p1090
I138
sS"tomlinson's"
p1091
I138
sS'dimes'
p1092
I138
sS'major'
p1093
I137
sS'babyyyy'
p1094
I138
sS"kendall's"
p1095
I138
sS'number'
p1096
I135
sS'kobe'
p1097
I138
sS'glitter'
p1098
I138
sS'bleeped'
p1099
I138
sS'guess'
p1100
I132
sS'hott'
p1101
I138
sS'heads'
p1102
I138
sS'jet'
p1103
I138
sS'them\xe2\x80\x9d'
p1104
I138
sS'checkpoint'
p1105
I138
sS'nomz'
p1106
I138
sS'tatt'
p1107
I138
sS'jen'
p1108
I138
sS"paul's"
p1109
I138
sS'relationship'
p1110
I137
sS'hallaham'
p1111
I138
sS'mmmm'
p1112
I136
sS'ilyyyyu'
p1113
I138
sS'stairs'
p1114
I138
sS'hollywood'
p1115
I135
sS'ungrateful'
p1116
I138
sS'legs'
p1117
I131
sS'getaway'
p1118
I138
sS'tummy'
p1119
I137
sS'remembers'
p1120
I138
sS'1/f1'
p1121
I138
sS'basically'
p1122
I138
sS'pedestrian'
p1123
I138
sS'nonono'
p1124
I138
sS'weeeek'
p1125
I138
sS'sell'
p1126
I135
sS'self'
p1127
I136
sS'fashion/'
p1128
I138
sS'so.....stinky'
p1129
I138
sS'now.....oops'
p1130
I138
sS'also'
p1131
I130
sS'play'
p1132
I122
sS'swiftly'
p1133
I138
sS'plan'
p1134
I137
sS'funnier'
p1135
I138
sS'understands'
p1136
I137
sS'"sittin'
p1137
I138
sS'sometimes'
p1138
I123
sS'cover'
p1139
I137
sS'is...,90803\n487800294139383809,shannontucknies,2014-07-12'
p1140
I138
sS'attacking'
p1141
I138
sS'day...just'
p1142
I138
sS'ugh'
p1143
I129
sS'golf'
p1144
I137
sS'roundcar_fonz'
p1145
I138
sS'gold'
p1146
I134
sS'\xd0\xa2\xd0\xb0\xd0\xba\xd0\xbe\xd0\xb5'
p1147
I138
sS'session'
p1148
I137
sS'w/civilians'
p1149
I138
sS'goofballs'
p1150
I138
sS'uppppp'
p1151
I138
sS'juju'
p1152
I138
sS'impact'
p1153
I138
sS'arsenicmagazine'
p1154
I138
sS'condos'
p1155
I138
sS'writes'
p1156
I138
sS'writer'
p1157
I138
sS'bestfriends'
p1158
I138
sS'failed'
p1159
I138
sS'wayne'
p1160
I138
sS'roughin'
p1161
I138
sS'condom'
p1162
I138
sS'begins'
p1163
I136
sS'amberdawwwn'
p1164
I138
sS'sunny'
p1165
I137
sS'alive)'
p1166
I138
sS"they'd"
p1167
I138
sS'gratitude?us'
p1168
I138
sS'damnit'
p1169
I138
sS'enemy'
p1170
I138
sS'sleeve'
p1171
I138
sS'necesitar'
p1172
I138
sS'cry'
p1173
I133
sS'(via'
p1174
I138
sS'bird'
p1175
I137
sS'thots'
p1176
I138
sS'caramel'
p1177
I137
sS'tanker'
p1178
I138
sS'insane'
p1179
I134
sS'usssssss'
p1180
I138
sS'set'
p1181
I132
sS'nibble'
p1182
I138
sS'sex'
p1183
I133
sS"dimples...that's"
p1184
I138
sS'see'
p1185
I65
sS'sec'
p1186
I137
sS'sea'
p1187
I137
sS'overboard'
p1188
I137
sS'allie'
p1189
I138
sS'project'
p1190
I138
sS'more.\xe2\x80\x9d'
p1191
I138
sS'don\xe2\x80\x99t'
p1192
I138
sS'hero\xe2\x80\x9d'
p1193
I138
sS'movie'
p1194
I118
sS'currently'
p1195
I136
sS'diluted'
p1196
I138
sS'rite'
p1197
I136
sS'nope'
p1198
I137
sS'monsters'
p1199
I138
sS'15th'
p1200
I135
sS'available'
p1201
I138
sS'leta'
p1202
I138
sS'hahahahahahahhahaha'
p1203
I138
sS'tristan'
p1204
I137
sS'"think'
p1205
I138
sS'sins."'
p1206
I138
sS'improved'
p1207
I138
sS'thot'
p1208
I137
sS'barely'
p1209
I136
sS'oriente'
p1210
I138
sS"we've"
p1211
I138
sS'turns\xe2\x80\xa6'
p1212
I138
sS'let'
p1213
I117
sS'whole'
p1214
I130
sS'somewhereinamerica'
p1215
I137
sS'loaf'
p1216
I138
sS'\xe2\x98\xba'
p1217
I138
sS'bell'
p1218
I135
sS'community'
p1219
I137
sS'church'
p1220
I137
sS'sammy'
p1221
I138
sS'devil'
p1222
I138
sS'filth'
p1223
I138
sS'monthly'
p1224
I137
sS'its_emelyyy'
p1225
I138
sS'hitting'
p1226
I138
sS'suburbs'
p1227
I138
sS'\xe2\x98\x80'
p1228
I137
sS'extreme'
p1229
I138
sS'resting'
p1230
I138
sS'champion'
p1231
I138
sS'fire'
p1232
I134
sS"what's"
p1233
I118
sS'nrg'
p1234
I138
sS'bitchy'
p1235
I137
sS'awake'
p1236
I136
sS'(cool)'
p1237
I138
sS'mlb'
p1238
I134
sS'mlk'
p1239
I124
sS'straight'
p1240
I134
sS'budget'
p1241
I138
sS'forgetting'
p1242
I137
sS'robin'
p1243
I138
sS'scheduled'
p1244
I138
sS'beautifulll'
p1245
I138
sS'pound'
p1246
I138
sS'hoping'
p1247
I136
sS'lynette'
p1248
I138
sS'belmont'
p1249
I28
sS"jyoungover'd"
p1250
I138
sS'owes'
p1251
I138
sS'vos'
p1252
I138
sS'<-'
p1253
I138
sS'niiiice'
p1254
I138
sS'chase'
p1255
I130
sS'cuisine'
p1256
I138
sS'decor'
p1257
I137
sS'spectacular'
p1258
I138
sS'read'
p1259
I127
sS'thai)'
p1260
I138
sS'(delicious'
p1261
I138
sS'\xd8\xa7\xd9\x86\xd8\xaf'
p1262
I138
sS'alert'
p1263
I138
sS'viewing'
p1264
I138
sS'psd'
p1265
I138
sS'its\xe2\x80\xa6'
p1266
I138
sS'infamous'
p1267
I132
sS'amy'
p1268
I136
sS'inches"'
p1269
I138
sS'gutta'
p1270
I138
sS'person'
p1271
I130
sS'kelly'
p1272
I137
sS'tim'
p1273
I136
sS'sauce....mmm'
p1274
I138
sS'watchin'
p1275
I138
sS'lester'
p1276
I138
sS'danks'
p1277
I138
sS'wzrd'
p1278
I138
sS'rangers'
p1279
I136
sS'parents'
p1280
I136
sS'location'
p1281
I131
sS'sydney'
p1282
I138
sS'courtney'
p1283
I136
sS'surprised'
p1284
I136
sS'emergency'
p1285
I138
sS'demands'
p1286
I138
sS'skateboards'
p1287
I137
sS'shitty'
p1288
I135
sS'quest'
p1289
I138
sS'cuteness'
p1290
I138
sS"(pj's)"
p1291
I126
sS'"cali'
p1292
I138
sS'formal'
p1293
I138
sS'thurman'
p1294
I138
sS'stylist'
p1295
I138
sS'individuals'
p1296
I138
sS'alexandra'
p1297
I137
sS'disorder'
p1298
I138
sS'spins'
p1299
I137
sS'partying'
p1300
I138
sS'goddamn'
p1301
I138
sS'tacoooooooo'
p1302
I138
sS'mighty'
p1303
I138
sS'palo'
p1304
I138
sS'curious'
p1305
I137
sS'firecracker'
p1306
I138
sS'religion'
p1307
I138
sS'dating'
p1308
I137
sS'temple'
p1309
I137
sS'inserting'
p1310
I138
sS'be'
p1311
I36
sS'bf'
p1312
I136
sS'ba'
p1313
I138
sS'shhhrage'
p1314
I138
sS'bc'
p1315
I134
sS'terrorist--cool'
p1316
I138
sS'bh'
p1317
I138
sS'bu'
p1318
I138
sS'cholo'
p1319
I138
sS'bp'
p1320
I138
sS'nowhere'
p1321
I137
sS'santa'
p1322
I135
sS'asap\xe2\x80\x9d'
p1323
I138
sS'singin00'
p1324
I138
sS'by'
p1325
I58
sS'anything'
p1326
I126
sS'netflix'
p1327
I134
sS'non-celebration\xe2\x80\xa6'
p1328
I138
sS'deserves'
p1329
I138
sS'mom\xe2\x80\x9d//yes'
p1330
I138
sS'mouth'
p1331
I138
sS'every1'
p1332
I138
sS'garbage'
p1333
I138
sS'hometown'
p1334
I138
sS'into'
p1335
I116
sS'sparknotes'
p1336
I138
sS'awaited'
p1337
I138
sS'servers'
p1338
I138
sS'yezzir'
p1339
I138
sS'penis?wise'
p1340
I138
sS'marie'
p1341
I138
sS'arcade'
p1342
I138
sS'bombest'
p1343
I138
sS'spending'
p1344
I134
sS'sock'
p1345
I138
sS'submit'
p1346
I138
sS'custom'
p1347
I138
sS'southern\xe2\x80\xa6'
p1348
I138
sS'suit'
p1349
I135
sS'panama\xe2\x80\xa6'
p1350
I138
sS'\xd1\x81\xd0\xb5\xd0\xb3\xd0\xbe\xd0\xb4\xd0\xbd\xd1\x8f'
p1351
I138
sS'hawaiian'
p1352
I138
sS'poster'
p1353
I138
sS'relaxed'
p1354
I138
sS'buttery'
p1355
I138
sS'link'
p1356
I138
sS'ling'
p1357
I138
sS'line'
p1358
I131
sS'posted'
p1359
I114
sS'fader'
p1360
I138
sS'former\xe2\x80\xa6'
p1361
I138
sS'up'
p1362
I33
sS'us'
p1363
I108
sS'ur'
p1364
I122
sS'um'
p1365
I138
sS'un'
p1366
I137
sS'uh'
p1367
I136
sS'faded'
p1368
I137
sS'hrmmmm'
p1369
I137
sS'foxylace'
p1370
I138
sS'yelled'
p1371
I138
sS'supervisor'
p1372
I138
sS'side)'
p1373
I138
sS'influence'
p1374
I138
sS'chat'
p1375
I138
sS'stoping'
p1376
I138
sS'codes'
p1377
I138
sS'granada'
p1378
I102
sS'sunken'
p1379
I133
sS'95-96'
p1380
I138
sS'fixing'
p1381
I138
sS'slice'
p1382
I136
sS'dos'
p1383
I138
sS'meals'
p1384
I137
sS'ago'
p1385
I131
sS'hells'
p1386
I138
sS'land'
p1387
I138
sS'agh'
p1388
I138
sS'napping'
p1389
I138
sS'walked'
p1390
I133
sS'\xd8\xa7\xd9\x84\xd8\xa7'
p1391
I138
sS'texter'
p1392
I138
sS'hella'
p1393
I138
sS'walker'
p1394
I136
sS'fresh'
p1395
I134
sS'having'
p1396
I118
sS'cheetos'
p1397
I138
sS'nnooooo'
p1398
I138
sS'pint\xe2\x80\xa6'
p1399
I138
sS'\xe2\x99\xa5\xe2\x99\xa1'
p1400
I138
sS'legal'
p1401
I138
sS'freakin'
p1402
I137
sS'chillin'
p1403
I138
sS'seemed'
p1404
I138
sS'concerned'
p1405
I138
sS'crossfitters'
p1406
I138
sS'send'
p1407
I133
sS'dickinson'
p1408
I138
sS'oceanfront'
p1409
I138
sS'dislike'
p1410
I138
sS'shainas'
p1411
I138
sS'w/you'
p1412
I138
sS'garden'
p1413
I137
sS'continues'
p1414
I137
sS'center"'
p1415
I138
sS'nieto'
p1416
I134
sS'magic'
p1417
I130
sS'harbor'
p1418
I132
sS'sculpture'
p1419
I138
sS'gettin'
p1420
I133
sS"they've"
p1421
I138
sS'try'
p1422
I120
sS'race'
p1423
I136
sS'kickings'
p1424
I138
sS'today...lol'
p1425
I138
sS'tru'
p1426
I137
sS'pledge'
p1427
I138
sS'owwww'
p1428
I138
sS'.......done'
p1429
I138
sS'pants"'
p1430
I138
sS'mediterranean'
p1431
I133
sS'video'
p1432
I129
sS'*of'
p1433
I138
sS'odd'
p1434
I138
sS'sweaty'
p1435
I138
sS'consistently'
p1436
I138
sS'birk'
p1437
I138
sS'indian'
p1438
I138
sS'twins'
p1439
I137
sS'raw-emily'
p1440
I138
sS'ahhhhh'
p1441
I138
sS'pre-order'
p1442
I138
sS'lessons'
p1443
I138
sS'led'
p1444
I138
sS'leg'
p1445
I137
sS'gathered'
p1446
I138
sS'punch'
p1447
I138
sS'poverty'
p1448
I138
sS"kevin's"
p1449
I138
sS'kleenex'
p1450
I138
sS"lucille's"
p1451
I105
sS'great'
p1452
I78
sS'receive'
p1453
I138
sS'titanic'
p1454
I138
sS'survey'
p1455
I138
sS'derby'
p1456
I138
sS'popcorn'
p1457
I138
sS'opinion'
p1458
I137
sS'makes'
p1459
I121
sS'maker'
p1460
I138
sS'thats'
p1461
I137
sS'siri'
p1462
I138
sS'$90'
p1463
I138
sS'330'
p1464
I137
sS'melini'
p1465
I138
sS'mariners'
p1466
I137
sS'show....a'
p1467
I138
sS'yeeeeee'
p1468
I138
sS'dumbest'
p1469
I138
sS'tools'
p1470
I138
sS'standing'
p1471
I137
sS'illegal'
p1472
I137
sS'next'
p1473
I111
sS'doubt'
p1474
I136
sS'babe'
p1475
I123
sS'traded"'
p1476
I138
sS'occurred'
p1477
I138
sS'baby'
p1478
I108
sS'charity'
p1479
I137
sS'customer'
p1480
I138
sS'this'
p1481
I21
sS'challenge'
p1482
I138
sS'clients'
p1483
I138
sS'jeep'
p1484
I138
sS'thin'
p1485
I138
sS'lie-'
p1486
I138
sS'(yes'
p1487
I138
sS'plate'
p1488
I136
sS'process'
p1489
I138
sS'benz'
p1490
I137
sS'rode'
p1491
I138
sS'brittany'
p1492
I138
sS'high'
p1493
I125
sS'tantrums'
p1494
I138
sS'blvd'
p1495
I132
sS'starbz'
p1496
I138
sS'meals:1'
p1497
I138
sS'delay'
p1498
I138
sS'animal'
p1499
I138
sS'doritheexplori'
p1500
I138
sS'long-term'
p1501
I138
sS'oz'
p1502
I136
sS'blocks'
p1503
I138
sS'halter'
p1504
I138
sS'me\xe2\x80\x9dthis'
p1505
I138
sS'coast'
p1506
I136
sS'stank'
p1507
I138
sS'npr'
p1508
I138
sS'tomato'
p1509
I137
sS'realized'
p1510
I134
sS'22nd'
p1511
I138
sS'\xd0\xbc\xd0\xbe\xd0\xb3\xd1\x83'
p1512
I138
sS'brittani'
p1513
I138
sS'noches'
p1514
I138
sS'classy'
p1515
I138
sS'houston'
p1516
I138
sS'move'
p1517
I132
sS'motorcycle'
p1518
I138
sS'peavy'
p1519
I138
sS'likes/comments'
p1520
I138
sS"wife's"
p1521
I138
sS'perfect'
p1522
I128
sS'benjamins'
p1523
I138
sS'\xd8\xa7\xd9\x84\xd8\xa8\xd8\xb7\xd9\x88\xd9\x84\xd8\xa9'
p1524
I138
sS'chosen'
p1525
I137
sS'degrees'
p1526
I138
sS'2015'
p1527
I138
sS'2014'
p1528
I138
sS'2017'
p1529
I138
sS'2013'
p1530
I133
sS'2012'
p1531
I138
sS'kiss'
p1532
I136
sS'cage'
p1533
I138
sS'realize'
p1534
I133
sS'damian'
p1535
I138
sS'"neighborhood"'
p1536
I138
sS'(flaunt'
p1537
I138
sS'betty'
p1538
I138
sS'fucknuckles'
p1539
I138
sS'(party'
p1540
I138
sS'doing'
p1541
I121
sS'books'
p1542
I136
sS'\xd1\x84\xd1\x80\xd0\xb0\xd0\xbd\xd1\x86\xd1\x83\xd0\xb7\xd1\x81\xd0\xba\xd1\x83\xd1\x8e'
p1543
I138
sS'luhh'
p1544
I138
sS'witness'
p1545
I138
sS'alejandra'
p1546
I138
sS'havasu'
p1547
I138
sS'unbeatable.i'
p1548
I138
sS'matrix'
p1549
I138
sS'done.i'
p1550
I138
sS'hilarious'
p1551
I137
sS'contigo'
p1552
I138
sS'architecture'
p1553
I138
sS'cheadsmagazine'
p1554
I138
sS'shut'
p1555
I137
sS'video....just'
p1556
I138
sS'fishnets'
p1557
I138
sS'craving'
p1558
I138
sS'godfrey'
p1559
I138
sS'scary'
p1560
I137
sS'things-'
p1561
I138
sS'gwennnny'
p1562
I138
sS'replaying'
p1563
I138
sS'david'
p1564
I137
sS'chilly'
p1565
I137
sS'mcveety'
p1566
I138
sS'davis'
p1567
I138
sS'coleen'
p1568
I138
sS'blown'
p1569
I138
sS'elyse'
p1570
I138
sS'scene'
p1571
I136
sS'owned'
p1572
I137
sS'jesus'
p1573
I133
sS'milagro'
p1574
I138
sS'fits'
p1575
I138
sS'chinky'
p1576
I138
sS'owner'
p1577
I138
sS'letas'
p1578
I138
sS'scent'
p1579
I137
sS'45%'
p1580
I138
sS'start'
p1581
I124
sS'ordering'
p1582
I138
sS'fuckers'
p1583
I138
sS'bartend'
p1584
I138
sS'belligerently'
p1585
I138
sS'painful'
p1586
I138
sS'stomach'
p1587
I138
sS'stars'
p1588
I136
sS'shorts'
p1589
I136
sS'megan'
p1590
I138
sS'chong'
p1591
I138
sS'gotchu'
p1592
I138
sS'meanie'
p1593
I138
sS'roberto'
p1594
I138
sS'roberts'
p1595
I138
sS'\xd9\x82\xd9\x8a\xd9\x81\xd9\x8a'
p1596
I138
sS'steez'
p1597
I138
sS'gays'
p1598
I138
sS'lunchy'
p1599
I138
sS'viewer'
p1600
I138
sS'tonight'
p1601
I80
sS'clearly'
p1602
I136
sS'lindy'
p1603
I138
sS'hangover'
p1604
I138
sS'waffles'
p1605
I138
sS'linda'
p1606
I137
sS'korean'
p1607
I137
sS'latino'
p1608
I138
sS';-)'
p1609
I138
sS'accuracy'
p1610
I138
sS'worldwide'
p1611
I138
sS'allow'
p1612
I137
sS'3620'
p1613
I138
sS'dustinkeoni21'
p1614
I138
sS'tanaka'
p1615
I138
sS"joe's"
p1616
I81
sS'segment'
p1617
I137
sS'fack'
p1618
I138
sS'bree'
p1619
I137
sS'thanksgiving'
p1620
I136
sS'brea'
p1621
I137
sS'face'
p1622
I128
sS"you'll"
p1623
I129
sS'skittles'
p1624
I138
sS'brew'
p1625
I138
sS'the"official'
p1626
I138
sS'atmosphere'
p1627
I138
sS'hoodies'
p1628
I138
sS'lmaoo'
p1629
I138
sS'g-pa'
p1630
I138
sS'bring'
p1631
I135
sS'bikes'
p1632
I138
sS"90's"
p1633
I138
sS'rough'
p1634
I137
sS'mlk\xe2\x80\xa6'
p1635
I138
sS'decade'
p1636
I138
sS'|mua'
p1637
I138
sS'taps'
p1638
I138
sS'jay'
p1639
I133
sS'hops'
p1640
I138
sS'rectangle\xe2\x80\x9d'
p1641
I138
sS'should'
p1642
I105
sS'terminal'
p1643
I138
sS'jam'
p1644
I138
sS'riding'
p1645
I136
sS'hope'
p1646
I113
sS'exchanged'
p1647
I138
sS'mylessss'
p1648
I138
sS'handle'
p1649
I137
sS'sweetie'
p1650
I138
sS'listened'
p1651
I138
sS'means'
p1652
I131
sS'lucky'
p1653
I133
sS'...uhh....obviously'
p1654
I138
sS'meano'
p1655
I138
sS'=)'
p1656
I138
sS'smash'
p1657
I138
sS'h'
p1658
I137
sS'-jennifer'
p1659
I138
sS'rapper'
p1660
I138
sS'stuff'
p1661
I124
sS'ohio'
p1662
I138
sS'benikokenobi'
p1663
I138
sS'anabettyy'
p1664
I138
sS'bts'
p1665
I135
sS'heartburn'
p1666
I138
sS'lazy'
p1667
I136
sS'travis'
p1668
I138
sS'btl'
p1669
I138
sS'teeeeenuh'
p1670
I138
sS'siiiiicckkkk'
p1671
I138
sS"s'more"
p1672
I138
sS'wirk'
p1673
I138
sS'horny'
p1674
I119
sS'melrose'
p1675
I138
sS'...so'
p1676
I138
sS'email'
p1677
I136
sS'ends'
p1678
I138
sS'\xd0\xbf\xd0\xb5\xd0\xba\xd0\xb0\xd1\x80\xd0\xbd\xd1\x8e'
p1679
I138
sS'rugrats'
p1680
I138
sS'figured'
p1681
I137
sS'ramp'
p1682
I138
sS'drug'
p1683
I138
sS'etc'
p1684
I138
sS'figures'
p1685
I138
sS'apostrophe'
p1686
I138
sS'ck'
p1687
I137
sS'co'
p1688
I137
sS'party/social'
p1689
I138
sS'toilet'
p1690
I136
sS'cc'
p1691
I138
sS'ca'
p1692
I90
sS'cd'
p1693
I138
sS'labor'
p1694
I137
sS'motto'
p1695
I138
sS'\xd0\xb7\xd0\xbd\xd0\xb0\xd0\xbb\xd0\xb8'
p1696
I138
sS'hottest'
p1697
I138
sS'waste'
p1698
I138
sS'trinity'
p1699
I138
sS'>'
p1700
I136
sS'borrachito'
p1701
I138
sS'graphics'
p1702
I138
sS'hahaha'
p1703
I100
sS'maui'
p1704
I138
sS'schnide'
p1705
I138
sS'artisanal'
p1706
I138
sS'vb'
p1707
I138
sS'gurrl'
p1708
I138
sS'surprisingly'
p1709
I138
sS'hardware'
p1710
I138
sS'vs'
p1711
I137
sS'h&mu'
p1712
I138
sS'vu'
p1713
I138
sS'jenner'
p1714
I138
sS'tattoo'
p1715
I137
sS'matt_mtchell'
p1716
I138
sS'verne'
p1717
I137
sS'android'
p1718
I138
sS'texas-not'
p1719
I138
sS'4.5'
p1720
I137
sS'ball'
p1721
I130
sS'drink'
p1722
I127
sS'upon'
p1723
I138
sS'(was'
p1724
I138
sS'peir'
p1725
I138
sS'infinite'
p1726
I138
sS'(call'
p1727
I138
sS'off'
p1728
I92
sS'shotgun'
p1729
I138
sS'colour'
p1730
I138
sS'idiot'
p1731
I136
sS'babewatch'
p1732
I138
sS'less'
p1733
I132
sS'moments'
p1734
I138
sS'11/15'
p1735
I138
sS'paul'
p1736
I137
sS'agness'
p1737
I138
sS'web'
p1738
I138
sS'19:27:23.0,33.7594664,-118.1450983,5773,los'
p1739
I138
sS'wes'
p1740
I138
sS'wet'
p1741
I137
sS"dwight's"
p1742
I138
sS'macklewis'
p1743
I138
sS'banana2'
p1744
I138
sS'government'
p1745
I138
sS'checking'
p1746
I133
sS'duree'
p1747
I138
sS'monique'
p1748
I138
sS'whispers'
p1749
I138
sS'five'
p1750
I138
sS'desi'
p1751
I138
sS'mrspatterson27'
p1752
I138
sS'belgium'
p1753
I138
sS'nvm'
p1754
I137
sS'password'
p1755
I138
sS'pier'
p1756
I135
sS'benadryl'
p1757
I138
sS'emma'
p1758
I138
sS'onion'
p1759
I137
sS'garage'
p1760
I137
sS'become'
p1761
I136
sS'lamest'
p1762
I138
sS"patrick's"
p1763
I138
sS'gaining'
p1764
I138
sS'soakin'
p1765
I138
sS'footage'
p1766
I137
sS'\xd0\xbd\xd1\x83\xd0\xb6\xd0\xbd\xd1\x8b'
p1767
I138
sS'thief'
p1768
I138
sS'immortal'
p1769
I138
sS'truuuuuu'
p1770
I138
sS'"what'
p1771
I138
sS'quidditch'
p1772
I138
sS'literally'
p1773
I127
sS'togedder\xe2\x80\x9d'
p1774
I138
sS'\xd0\xb4\xd0\xb5\xd0\xbd\xd1\x8c'
p1775
I138
sS'passion'
p1776
I138
sS'blurry'
p1777
I138
sS'blowing'
p1778
I138
sS'hawthorne'
p1779
I138
sS'brewhouse'
p1780
I137
sS'\xd9\x85\xd9\x86'
p1781
I138
sS'\xd9\x85\xd9\x83'
p1782
I138
sS'stage'
p1783
I138
sS'gained'
p1784
I138
sS'sister'
p1785
I131
sS'lifestyle'
p1786
I137
sS'angeles'
p1787
I134
sS'jhene'
p1788
I138
sS'sigur'
p1789
I138
sS'swimming'
p1790
I134
sS'"eat'
p1791
I138
sS'pussy'
p1792
I138
sS'yeessssssssssss'
p1793
I138
sS'screamed'
p1794
I138
sS'luna'
p1795
I138
sS'donde'
p1796
I136
sS'shoppe'
p1797
I131
sS'dixie'
p1798
I138
sS'brownies'
p1799
I138
sS'hehe'
p1800
I135
sS'(topped'
p1801
I138
sS"o'"
p1802
I138
sS'spots'
p1803
I138
sS'yrs'
p1804
I138
sS'place)'
p1805
I134
sS'stokedville'
p1806
I138
sS'delivery'
p1807
I136
sS'work\xe2\x9a\xa1\xef\xb8\x8ffeaturing'
p1808
I138
sS'"pisspig"'
p1809
I138
sS'count'
p1810
I134
sS'unfollow'
p1811
I138
sS'tossed'
p1812
I138
sS'deltopia'
p1813
I138
sS'official'
p1814
I136
sS'convince'
p1815
I138
sS'problem'
p1816
I134
sS'\xc2\xbf'
p1817
I137
sS'irish'
p1818
I137
sS'victorville'
p1819
I138
sS'compared'
p1820
I138
sS'deadly'
p1821
I138
sS'maudite'
p1822
I138
sS'lately'
p1823
I137
sS'compares'
p1824
I138
sS'behold'
p1825
I138
sS'tooney'
p1826
I138
sS'ooooooops'
p1827
I138
sS'francisco'
p1828
I138
sS'monday'
p1829
I130
sS'chance'
p1830
I136
sS'calum'
p1831
I138
sS'badass'
p1832
I138
sS'irvine'
p1833
I137
sS'inspiration'
p1834
I128
sS'ghost'
p1835
I138
sS'buon'
p1836
I138
sS'rule'
p1837
I135
sS'gardena'
p1838
I138
sS'(2nd'
p1839
I137
sS'syllabi'
p1840
I138
sS'res'
p1841
I138
sS'inning'
p1842
I138
sS'personality.\xe2\x80\x9d'
p1843
I138
sS'saves'
p1844
I138
sS'"shocking"'
p1845
I138
sS'saved'
p1846
I137
sS'worked'
p1847
I132
sS'relationships'
p1848
I138
sS'pedro'
p1849
I135
sS'bike'
p1850
I120
sS'03:27:07.0,33.7601168,-118.1412108,5773,tears'
p1851
I138
sS'it...thank'
p1852
I138
sS'worth'
p1853
I124
sS'hayyyweeeeee'
p1854
I138
sS'table.\xe2\x80\xa6'
p1855
I138
sS'sellers'
p1856
I138
sS'mania'
p1857
I138
sS'month'
p1858
I128
sS'tickets'
p1859
I134
sS"we'll"
p1860
I134
sS'$50mil'
p1861
I138
sS'errands'
p1862
I135
sS'cmd'
p1863
I138
sS'upload'
p1864
I137
sS'humidity'
p1865
I138
sS'vote"'
p1866
I138
sS'red'
p1867
I89
sS'298'
p1868
I138
sS"yesterday's"
p1869
I136
sS'hora'
p1870
I138
sS'chef'
p1871
I138
sS'7th'
p1872
I135
sS'others)'
p1873
I108
sS'machines'
p1874
I138
sS'(just'
p1875
I138
sS'+'
p1876
I134
sS'officially'
p1877
I136
sS'told'
p1878
I131
sS'equals'
p1879
I138
sS'celebration'
p1880
I137
sS'study'
p1881
I136
sS'nigguhs'
p1882
I138
sS'itunes'
p1883
I138
sS'freedom.\xe2\x80\x9d'
p1884
I138
sS'goddamnit'
p1885
I137
sS'smoke'
p1886
I136
sS'aka'
p1887
I136
sS'secure'
p1888
I137
sS'graders'
p1889
I138
sS'bro'
p1890
I126
sS'thursday'
p1891
I134
sS'total'
p1892
I138
sS'bra'
p1893
I138
sS'sarah'
p1894
I134
sS'lorre'
p1895
I138
sS'rancho'
p1896
I138
sS'pier)'
p1897
I138
sS"7...everybody's"
p1898
I138
sS'sweater'
p1899
I137
sS"world's"
p1900
I137
sS'insult'
p1901
I138
sS'bundled'
p1902
I138
sS'haha'
p1903
I87
sS'award'
p1904
I138
sS'aware'
p1905
I138
sS'blocking'
p1906
I138
sS'boobies'
p1907
I138
sS'bunnies'
p1908
I137
sS'word'
p1909
I136
sS'wore'
p1910
I138
sS'after\xe2\x80\xa6'
p1911
I138
sS'1999'
p1912
I138
sS'work'
p1913
I72
sS'worn'
p1914
I138
sS'peaks)'
p1915
I138
sS':(\xe2\x80\x9d'
p1916
I137
sS'cuddle'
p1917
I138
sS'era'
p1918
I137
sS'criticizing'
p1919
I138
sS'"late'
p1920
I138
sS'could'
p1921
I113
sS'goooo'
p1922
I138
sS"ig'nant"
p1923
I138
sS'madonna'
p1924
I138
sS'yaaaay'
p1925
I138
sS'provide'
p1926
I138
sS'debauchery'
p1927
I138
sS'blackberrydaryl'
p1928
I137
sS'rewind'
p1929
I137
sS'interview'
p1930
I137
sS'beach'
p1931
I5
sS'pizza'
p1932
I133
sS'fever'
p1933
I138
sS'bday'
p1934
I123
sS'jalen'
p1935
I138
sS'after'
p1936
I103
sS'lax'
p1937
I136
sS'lay'
p1938
I135
sS'law'
p1939
I137
sS'lap'
p1940
I138
sS'las'
p1941
I135
sS'\xd0\x97\xd0\xb0\xd1\x87\xd0\xb5\xd0\xbc'
p1942
I138
sS'appreciate'
p1943
I136
sS'-ghandi'
p1944
I138
sS'greek'
p1945
I136
sS'green'
p1946
I134
sS'south'
p1947
I137
sS'fan'
p1948
I131
sS'order'
p1949
I133
sS'salon'
p1950
I137
sS'office'
p1951
I136
sS'//eeeeee'
p1952
I138
sS'mayor'
p1953
I128
sS'venti'
p1954
I138
sS'somewhere'
p1955
I136
sS'highlights'
p1956
I136
sS'kissezzz'
p1957
I138
sS'acupuncture'
p1958
I138
sS'shear'
p1959
I138
sS'theo'
p1960
I137
sS'then'
p1961
I89
sS'coffee'
p1962
I101
sS'satisfyings'
p1963
I138
sS'thee'
p1964
I138
sS'safe'
p1965
I136
sS'cuties'
p1966
I138
sS'break'
p1967
I132
sS'band'
p1968
I132
sS'halstonlux'
p1969
I138
sS'they'
p1970
I73
sS'ther'
p1971
I138
sS'pjs'
p1972
I134
sS'bread'
p1973
I138
sS'savor)'
p1974
I138
sS'hahaa'
p1975
I138
sS'l'
p1976
I135
sS'anastasia'
p1977
I137
sS'$50'
p1978
I138
sS'monteith'
p1979
I138
sS'whining'
p1980
I138
sS'network'
p1981
I136
sS'tonight.........does'
p1982
I138
sS'hooked'
p1983
I136
sS'drinking???\xe2\x80\x9ddoes'
p1984
I138
sS'leftovers'
p1985
I138
sS'lagangle'
p1986
I138
sS"everythingi've"
p1987
I138
sS'lollipop'
p1988
I138
sS'mvp'
p1989
I138
sS'so0oo'
p1990
I138
sS'dammit'
p1991
I138
sS'unfulfilled'
p1992
I138
sS'recovering'
p1993
I138
sS'sprit'
p1994
I138
sS'raisin'
p1995
I138
sS'festival'
p1996
I127
sS'"no'
p1997
I137
sS'louie'
p1998
I138
sS'(at'
p1999
I108
sS'organize'
p2000
I138
sS'>>'
p2001
I138
sS'hamstring'
p2002
I138
sS'sept'
p2003
I138
sS'another'
p2004
I121
sS'strike...almost'
p2005
I138
sS'ballin'
p2006
I138
sS'...and'
p2007
I136
sS'elevator'
p2008
I137
sS'mobbin'
p2009
I138
sS'plentiful'
p2010
I138
sS'dogz'
p2011
I74
sS'tea'
p2012
I120
sS'john'
p2013
I136
sS'dogs'
p2014
I130
sS'kiwi'
p2015
I132
sS'albert'
p2016
I136
sS'cereal'
p2017
I138
sS'wasted'
p2018
I133
sS'air"'
p2019
I138
sS'byrnes'
p2020
I138
sS'tavern'
p2021
I128
sS'xanadu'
p2022
I138
sS'forensic'
p2023
I136
sS'scenes'
p2024
I138
sS'guilt'
p2025
I138
sS'tipping'
p2026
I138
sS'lol\xe2\x9d\xa4\xef\xb8\x8f'
p2027
I138
sS'sorrenti'
p2028
I138
sS"04:22:42.0,33.7601168,-118.1412108,5773,can't"
p2029
I138
sS'strength'
p2030
I138
sS'fineeeee'
p2031
I137
sS'laden'
p2032
I138
sS'what\xc2\xbf'
p2033
I138
sS'rome'
p2034
I138
sS'forces'
p2035
I138
sS'reals'
p2036
I134
sS'pro-am'
p2037
I138
sS'shorty'
p2038
I138
sS'germany'
p2039
I138
sS'grave'
p2040
I138
sS'mate\xe2\x80\x9d'
p2041
I138
sS'calculated'
p2042
I138
sS'vuvuzelas'
p2043
I138
sS'swamp'
p2044
I138
sS'aunt'
p2045
I138
sS'boyfriends'
p2046
I138
sS'reserve'
p2047
I138
sS"kneehow's"
p2048
I138
sS'rescuer-global'
p2049
I138
sS'kc/cron'
p2050
I138
sS'*principal'
p2051
I138
sS'nephew'
p2052
I138
sS'12-3pm'
p2053
I138
sS'd5'
p2054
I138
sS'enjoyed'
p2055
I138
sS'bears...hike'
p2056
I138
sS'photobomb'
p2057
I138
sS'1wisch'
p2058
I138
sS'hrm'
p2059
I138
sS'||'
p2060
I137
sS'do'
p2061
I53
sS'dl'
p2062
I138
sS'dm'
p2063
I138
sS'dj'
p2064
I137
sS'dk'
p2065
I138
sS'di'
p2066
I136
sS'dd'
p2067
I138
sS'de'
p2068
I128
sS'dope"'
p2069
I138
sS'da'
p2070
I131
sS'nasty'
p2071
I135
sS'dr'
p2072
I137
sS'peyton'
p2073
I138
sS'super.../'
p2074
I138
sS'runs'
p2075
I135
sS'covering'
p2076
I138
sS'w/o'
p2077
I134
sS'last\xe2\x80\xa6'
p2078
I138
sS'gears'
p2079
I138
sS'pussyless'
p2080
I138
sS'steak'
p2081
I135
sS'w/a'
p2082
I137
sS'bar...sorry'
p2083
I138
sS'besties'
p2084
I138
sS'w/'
p2085
I57
sS'lemonade'
p2086
I138
sS"holly's"
p2087
I138
sS'depends'
p2088
I138
sS'miserable'
p2089
I137
sS'hahahahahahahaha'
p2090
I137
sS'away'
p2091
I118
sS'gentleman'
p2092
I138
sS'bien'
p2093
I138
sS'pfft'
p2094
I137
sS'we'
p2095
I46
sS'scusi'
p2096
I138
sS'kitchen'
p2097
I120
sS'bras'
p2098
I138
sS'received'
p2099
I138
sS'cos'
p2100
I138
sS'tfti'
p2101
I137
sS"g'knight"
p2102
I138
sS'cow'
p2103
I138
sS'ill'
p2104
I135
sS'ncaa'
p2105
I138
sS'ahora'
p2106
I137
sS'candeland'
p2107
I138
sS'fadeddd'
p2108
I138
sS'brad'
p2109
I138
sS'com'
p2110
I138
sS'bran'
p2111
I138
sS'con'
p2112
I135
sS'what\xe2\x9d\x97\xef\xb8\x8f\xe2\x9d\x94\xe2\x9d\x93\xe2\x9d\x95'
p2113
I138
sS'tough'
p2114
I138
sS'toni'
p2115
I138
sS'tons'
p2116
I137
sS'speak'
p2117
I137
sS'gratitude'
p2118
I138
sS'petty'
p2119
I138
sS'$300'
p2120
I137
sS'ai)'
p2121
I137
sS'relaxing'
p2122
I136
sS'attacked'
p2123
I137
sS'hennessy'
p2124
I138
sS'catering'
p2125
I138
sS'fest'
p2126
I135
sS'kimberlulay'
p2127
I138
sS'postmodern'
p2128
I138
sS'east'
p2129
I128
sS'air'
p2130
I133
sS'b-day'
p2131
I138
sS'aid'
p2132
I136
sS'voice'
p2133
I137
sS'mistake'
p2134
I137
sS'cons'
p2135
I138
sS'cont'
p2136
I138
sS'week\xe2\x98\xba\xef\xb8\x8f'
p2137
I138
sS'skipping'
p2138
I138
sS'braaaaa'
p2139
I138
sS'girls"'
p2140
I138
sS"hoppin'"
p2141
I138
sS'perform'
p2142
I138
sS'centre)'
p2143
I138
sS':(('
p2144
I136
sS'sammydeeznuts'
p2145
I138
sS'bunny'
p2146
I137
sS'hank'
p2147
I138
sS'hang'
p2148
I133
sS'rain'
p2149
I134
sS'hand'
p2150
I137
sS'darle'
p2151
I138
sS'blamed'
p2152
I138
sS'windowto'
p2153
I138
sS'kept'
p2154
I138
sS'thx'
p2155
I136
sS'1976'
p2156
I138
sS'congrats'
p2157
I135
sS'eps'
p2158
I138
sS'tho'
p2159
I121
sS'client'
p2160
I138
sS'yoenis'
p2161
I138
sS'the'
p2162
I2
sS"she'll"
p2163
I137
sS'traditions'
p2164
I138
sS'quoted'
p2165
I138
sS'photo'
p2166
I97
sS'(gina)'
p2167
I138
sS'newton'
p2168
I138
sS'gravity'
p2169
I138
sS'thanks'
p2170
I83
sS'july\xe2\x80\xa6'
p2171
I138
sS'repost'
p2172
I138
sS'adding'
p2173
I138
sS'v\xe2\x80\xa6'
p2174
I138
sS'photographer'
p2175
I137
sS'josh'
p2176
I137
sS"ma'am"
p2177
I138
sS'belongs'
p2178
I137
sS'board'
p2179
I138
sS'righteous'
p2180
I138
sS'viking'
p2181
I138
sS'maya'
p2182
I124
sS'mayo'
p2183
I138
sS'caps'
p2184
I137
sS'picasso'
p2185
I138
sS'retreat'
p2186
I138
sS'skanky'
p2187
I138
sS'53%'
p2188
I138
sS'glitch'
p2189
I138
sS'cooler'
p2190
I135
sS'mani/pedi'
p2191
I137
sS'tebow'
p2192
I138
sS'xbox'
p2193
I137
sS'milla'
p2194
I138
sS'night'
p2195
I62
sS'security'
p2196
I138
sS'portuguese'
p2197
I138
sS'virtudes'
p2198
I138
sS'honored'
p2199
I138
sS'dimitri'
p2200
I113
sS'ekcorrigan\xe2\x80\xa6'
p2201
I138
sS'born'
p2202
I137
sS'couture'
p2203
I137
sS'favoriting'
p2204
I138
sS'humor'
p2205
I138
sS'purple'
p2206
I137
sS'many\xe2\x80\xa6'
p2207
I138
sS'/'
p2208
I60
sS'filming'
p2209
I138
sS'asking'
p2210
I137
sS'denied'
p2211
I138
sS'adorable'
p2212
I138
sS'strada'
p2213
I135
sS'pls'
p2214
I138
sS'marketing'
p2215
I138
sS'plz'
p2216
I138
sS'ply'
p2217
I138
sS'phew'
p2218
I138
sS'post'
p2219
I125
sS"where's"
p2220
I135
sS'now...and'
p2221
I138
sS'months'
p2222
I134
sS'book'
p2223
I132
sS'dilemma'
p2224
I138
sS'wasting'
p2225
I138
sS'pays'
p2226
I138
sS'rendering'
p2227
I138
sS'2chase'
p2228
I138
sS'ahahah'
p2229
I137
sS'fight'
p2230
I132
sS'clinical'
p2231
I137
sS'way'
p2232
I109
sS'wat'
p2233
I138
sS'was'
p2234
I30
sS'war'
p2235
I138
sS'sagging'
p2236
I138
sS'tints'
p2237
I138
sS'infomercial'
p2238
I138
sS'snowy'
p2239
I138
sS'something'
p2240
I120
sS'becoming'
p2241
I137
sS'converse'
p2242
I138
sS'astonished'
p2243
I138
sS'true'
p2244
I121
sS'hehe)'
p2245
I138
sS'ex-neighbs'
p2246
I138
sS'mtn'
p2247
I138
sS'emotional'
p2248
I137
sS'emir'
p2249
I138
sS'flat'
p2250
I135
sS'new\xe2\x80\xa6'
p2251
I138
sS'evidence'
p2252
I138
sS'promised'
p2253
I137
sS')))'
p2254
I138
sS'dying'
p2255
I134
sS'reality'
p2256
I125
sS'holding'
p2257
I135
sS'test'
p2258
I131
sS'pot-pie'
p2259
I138
sS'scored'
p2260
I138
sS'brothers'
p2261
I138
sS"o'clock"
p2262
I137
sS'already,90803\n358777269847728129,hometourjay,2013-07-21'
p2263
I138
sS'welcome'
p2264
I126
sS'update'
p2265
I137
sS'mira'
p2266
I138
sS"let's"
p2267
I122
sS'walton'
p2268
I138
sS'scores'
p2269
I138
sS'tunight'
p2270
I138
sS'luke_vicious'
p2271
I134
sS'loyal'
p2272
I137
sS'fact'
p2273
I136
sS'lineup'
p2274
I137
sS'paced'
p2275
I138
sS'songs'
p2276
I138
sS"drankin'"
p2277
I138
sS'concept'
p2278
I138
sS'dance'
p2279
I129
sS'selection'
p2280
I138
sS'grateful'
p2281
I137
sS'zone'
p2282
I138
sS"a'f"
p2283
I138
sS'hump'
p2284
I138
sS'obamacare'
p2285
I138
sS'flopping'
p2286
I137
sS'unhappiest'
p2287
I138
sS'rhythm'
p2288
I138
sS'rainbows'
p2289
I138
sS"a's"
p2290
I137
sS'brown'
p2291
I137
sS'3am'
p2292
I137
sS'hannah'
p2293
I129
sS'exchange)'
p2294
I137
sS'vegas'
p2295
I136
sS'"mum'
p2296
I138
sS'kitten'
p2297
I138
sS'trouble'
p2298
I134
sS'blast'
p2299
I135
sS'happiness....my'
p2300
I138
sS'margarita'
p2301
I138
sS'12th'
p2302
I138
sS'gun'
p2303
I138
sS'p'
p2304
I137
sS'soooo'
p2305
I135
sS'gut'
p2306
I138
sS'guy'
p2307
I124
sS'upper'
p2308
I138
sS'brave'
p2309
I138
sS'repetitive'
p2310
I137
sS'cost'
p2311
I138
sS'cargo'
p2312
I138
sS'assistance'
p2313
I138
sS'rollup'
p2314
I138
sS'uniform'
p2315
I138
sS'rockrolla'
p2316
I138
sS'benzino*'
p2317
I138
sS'kooiman'
p2318
I138
sS'birffday'
p2319
I138
sS'downloaded'
p2320
I138
sS'hoops'
p2321
I138
sS'change'
p2322
I131
sS'buck'
p2323
I138
sS'kristenbullo'
p2324
I133
sS'"guinness"'
p2325
I138
sS'la/oc'
p2326
I138
sS'lakers'
p2327
I115
sS'5ever'
p2328
I138
sS'usually'
p2329
I135
sS'omggggg'
p2330
I138
sS"bobby's"
p2331
I138
sS'regardless'
p2332
I138
sS'extra'
p2333
I138
sS'marked'
p2334
I138
sS'italiano'
p2335
I137
sS'retires'
p2336
I138
sS'market'
p2337
I130
sS'flavors'
p2338
I138
sS'win/win'
p2339
I138
sS'prove'
p2340
I138
sS'\xe2\x9c\x8c\xef\xb8\x8f\xe2\x9c\x8c\xef\xb8\x8f\xe2\x9c\x8c\xef\xb8\x8f\xe2\x9c\x8c\xef\xb8\x8f'
p2341
I138
sS'bury'
p2342
I138
sS'retweeted'
p2343
I138
sS'live'
p2344
I116
sS'cuter'
p2345
I137
sS'angels'
p2346
I133
sS'chloshow'
p2347
I138
sS'ricky>everyone'
p2348
I138
sS'club'
p2349
I114
sS'mikhoone'
p2350
I138
sS'hesitated'
p2351
I138
sS'niggas'
p2352
I136
sS'indescribable'
p2353
I138
sS'car'
p2354
I122
sS'cat'
p2355
I130
sS'purge'
p2356
I137
sS'can'
p2357
I66
sS'cam'
p2358
I137
sS'cal'
p2359
I135
sS'heart'
p2360
I123
sS'chip'
p2361
I138
sS"didn't"
p2362
I108
sS'weekend...weird'
p2363
I138
sS'heard'
p2364
I131
sS'nextla'
p2365
I138
sS'productive'
p2366
I137
sS'6.39mi'
p2367
I138
sS'tatiana_dieteman'
p2368
I134
sS'discussion'
p2369
I137
sS'spreads'
p2370
I138
sS'freezer'
p2371
I138
sS'lounge'
p2372
I136
sS"kmac1522's"
p2373
I138
sS'\xe2\x9d\xa4\xef\xb8\x8f\xe2\x9d\xa4\xef\xb8\x8f\xe2\x9d\xa4\xef\xb8\x8f'
p2374
I138
sS'nonstop'
p2375
I138
sS'product'
p2376
I138
sS'sacrifice'
p2377
I138
sS're-tweet'
p2378
I138
sS'southern'
p2379
I137
sS'diva'
p2380
I138
sS'produce'
p2381
I138
sS'remember'
p2382
I127
sS'whenever'
p2383
I135
sS'candles'
p2384
I138
sS'benny'
p2385
I138
sS'corona'
p2386
I135
sS'fireball'
p2387
I138
sS'before/after'
p2388
I138
sS'typical'
p2389
I138
sS'tagged'
p2390
I137
sS'serving'
p2391
I138
sS'usc'
p2392
I138
sS'indeed'
p2393
I135
sS'haircut'
p2394
I137
sS'brain'
p2395
I136
sS'cold'
p2396
I130
sS'still'
p2397
I88
sS'birds'
p2398
I137
sS'rickjamesbitch'
p2399
I138
sS'rooftop'
p2400
I134
sS'lied'
p2401
I138
sS'curly'
p2402
I138
sS'birthdays'
p2403
I138
sS'sexiest'
p2404
I138
sS'window'
p2405
I137
sS'...last'
p2406
I138
sS'halt'
p2407
I138
sS'fling'
p2408
I138
sS'woodstocks'
p2409
I138
sS'norah'
p2410
I138
sS'half'
p2411
I128
sS'not'
p2412
I38
sS'now'
p2413
I56
sS'nor'
p2414
I136
sS'calitamaz'
p2415
I138
sS'lies'
p2416
I138
sS'january'
p2417
I138
sS'drop'
p2418
I137
sS'pre-wedding'
p2419
I138
sS'concerts'
p2420
I138
sS'em'
p2421
I137
sS'el'
p2422
I134
sS'en'
p2423
I137
sS'eh'
p2424
I138
sS'challenged'
p2425
I138
sS'ed'
p2426
I135
sS'yeah'
p2427
I102
sS'wrap'
p2428
I138
sS'ex'
p2429
I136
sS'year'
p2430
I122
sS'^ez'
p2431
I138
sS'happen'
p2432
I125
sS'teams'
p2433
I136
sS'pills'
p2434
I138
sS'es'
p2435
I134
sS'tried'
p2436
I136
sS'album'
p2437
I131
sS'shown'
p2438
I137
sS'wins...and'
p2439
I138
sS'space'
p2440
I136
sS'looking'
p2441
I127
sS'shows'
p2442
I134
sS'cars'
p2443
I134
sS'cart'
p2444
I138
sS'berit'
p2445
I138
sS'marina'
p2446
I137
sS'nope.pitchers'
p2447
I138
sS'marine'
p2448
I138
sS'card'
p2449
I136
sS'care'
p2450
I135
sS'show)'
p2451
I133
sS'july/august'
p2452
I138
sS'british'
p2453
I137
sS'honest'
p2454
I138
sS'"lessons"'
p2455
I138
sS'(119.6m'
p2456
I138
sS'blind'
p2457
I138
sS'flying'
p2458
I134
sS'xo'
p2459
I138
sS'zac'
p2460
I138
sS'xd'
p2461
I138
sS'yourself'
p2462
I131
sS'impossible'
p2463
I136
sS'message'
p2464
I138
sS'drove'
p2465
I138
sS'tomorrow'
p2466
I111
sS"'em"
p2467
I137
sS'size'
p2468
I138
sS'checked'
p2469
I136
sS'silent'
p2470
I138
sS'caught'
p2471
I134
sS'remotely'
p2472
I138
sS'friend'
p2473
I119
sS'nutrition'
p2474
I138
sS'that'
p2475
I24
sS'enojada'
p2476
I138
sS'baja'
p2477
I138
sS'thai'
p2478
I112
sS'flowers'
p2479
I136
sS'braing'
p2480
I138
sS'semantics'
p2481
I138
sS'$15'
p2482
I137
sS'optimism'
p2483
I138
sS'fruits'
p2484
I137
sS"club's"
p2485
I133
sS'fruity'
p2486
I138
sS'grotto'
p2487
I138
sS'craig'
p2488
I136
sS'slap'
p2489
I138
sS'(and'
p2490
I138
sS'13th'
p2491
I138
sS'slam'
p2492
I138
sS'anger'
p2493
I138
sS'breakfast'
p2494
I127
sS'message-called'
p2495
I138
sS'offering'
p2496
I138
sS'veteran'
p2497
I138
sS'(lol...oh'
p2498
I138
sS'packed'
p2499
I137
sS'online'
p2500
I136
sS'begin'
p2501
I137
sS'deli)'
p2502
I137
sS'anissa'
p2503
I138
sS'carlala89'
p2504
I138
sS'shitter'
p2505
I138
sS'america'
p2506
I134
sS'forever'
p2507
I130
sS'dream'
p2508
I130
sS'12am-2am'
p2509
I138
sS'pitchers.players'
p2510
I138
sS'2am-'
p2511
I138
sS'sunset'
p2512
I130
sS'professional'
p2513
I138
sS'abraham'
p2514
I138
sS'basemen'
p2515
I138
sS'mains'
p2516
I138
sS'discovered'
p2517
I137
sS'la\xe2\x80\xa6'
p2518
I138
sS'realizing'
p2519
I138
sS'snack'
p2520
I138
sS'ilyyyy'
p2521
I138
sS'texture'
p2522
I138
sS'only'
p2523
I96
sS'inventions'
p2524
I138
sS'stain'
p2525
I138
sS'pumpkin'
p2526
I137
sS'gensis'
p2527
I138
sS'pastrami'
p2528
I138
sS'harrywood'
p2529
I138
sS'truly'
p2530
I136
sS'leon'
p2531
I138
sS'cannot'
p2532
I135
sS'celebrate'
p2533
I136
sS"walli'm"
p2534
I138
sS'friends"'
p2535
I138
sS"everything's"
p2536
I138
sS'concert'
p2537
I137
sS'physically'
p2538
I137
sS"ed's"
p2539
I138
sS'asleep'
p2540
I136
sS'sandow'
p2541
I138
sS'hoes'
p2542
I134
sS'estamos'
p2543
I138
sS'hoez'
p2544
I138
sS'europeans'
p2545
I136
sS'skyroom'
p2546
I138
sS'me..johnny'
p2547
I138
sS'3'
p2548
I108
sS'between'
p2549
I133
sS'whipped'
p2550
I138
sS'notice'
p2551
I137
sS'connection...just'
p2552
I138
sS'hurts'
p2553
I137
sS'article'
p2554
I136
sS'talented'
p2555
I136
sS"'thrift"
p2556
I138
sS'comes'
p2557
I134
sS'madness'
p2558
I138
sS'stlyed'
p2559
I138
sS'jeans'
p2560
I137
sS"couldn't"
p2561
I131
sS'oliver'
p2562
I138
sS'cares'
p2563
I138
sS'*tear'
p2564
I138
sS"friendthat's"
p2565
I138
sS'jerks'
p2566
I138
sS'sesh'
p2567
I131
sS'tawnya'
p2568
I138
sS'i\xe2\x80\xa6'
p2569
I135
sS'fours'
p2570
I138
sS'foggy'
p2571
I138
sS'ruby'
p2572
I138
sS'bout'
p2573
I135
sS'these'
p2574
I106
sS'wealthiest'
p2575
I138
sS"w/bobbyrahal's"
p2576
I138
sS'trick'
p2577
I138
sS'"kev'
p2578
I138
sS"haven't"
p2579
I123
sS'editorial'
p2580
I137
sS'scum'
p2581
I138
sS'coolest'
p2582
I137
sS'cigs'
p2583
I138
sS'\xd0\xbc\xd0\xbe\xd0\xb8\xd1\x85'
p2584
I138
sS'donating'
p2585
I138
sS'return'
p2586
I138
sS'ilyyy'
p2587
I138
sS'worry'
p2588
I133
sS'<<<<<<<<<<<<<<<<<<<<<<<<<<<<<'
p2589
I138
sS'followers'
p2590
I138
sS'w/them'
p2591
I138
sS'coworkers'
p2592
I138
sS':-)\xe2\x80\x9d'
p2593
I138
sS"photo's"
p2594
I138
sS'extravaganza'
p2595
I138
sS'finish'
p2596
I134
sS'closest'
p2597
I138
sS'fruit'
p2598
I138
sS'clippers'
p2599
I137
sS'favorites'
p2600
I138
sS'ringside'
p2601
I138
sS'mentally'
p2602
I138
sS'\xe2\x9c\x8c\xef\xb8\x8f'
p2603
I128
sS'burrito'
p2604
I138
sS'breezy'
p2605
I127
sS'breeze'
p2606
I137
sS'otherwise'
p2607
I138
sS'starbucks'
p2608
I120
sS'taxi'
p2609
I138
sS'dancers'
p2610
I138
sS'neon'
p2611
I138
sS'foot'
p2612
I136
sS'greetings'
p2613
I137
sS'touch'
p2614
I134
sS'speed'
p2615
I138
sS'death'
p2616
I137
sS'thinking'
p2617
I130
sS'gooooo'
p2618
I138
sS'everyone\xe2\x80\xa6'
p2619
I138
sS'momentum'
p2620
I138
sS'kareem'
p2621
I138
sS'real'
p2622
I114
sS'amo'
p2623
I138
sS'rules'
p2624
I133
sS'gonna'
p2625
I115
sS'amf'
p2626
I138
sS'early'
p2627
I127
sS'(p.s'
p2628
I138
sS'listening'
p2629
I130
sS'using'
p2630
I132
sS'lady'
p2631
I131
sS'martyrs'
p2632
I138
sS'fortune'
p2633
I138
sS'pounds'
p2634
I138
sS'collective'
p2635
I138
sS'csulb'
p2636
I137
sS'benefit'
p2637
I137
sS't'
p2638
I136
sS'"creepo"'
p2639
I138
sS'exposed'
p2640
I138
sS'oscars'
p2641
I138
sS'ahhhhhh'
p2642
I138
sS'withoutu'
p2643
I138
sS'oakland'
p2644
I136
sS'squirt'
p2645
I137
sS"doodle's"
p2646
I135
sS'business'
p2647
I135
sS'asap'
p2648
I136
sS'(51.3m'
p2649
I138
sS'artie'
p2650
I138
sS'\xd0\xbf\xd1\x80\xd0\xbe\xd0\xb2\xd0\xbe\xd0\xb6\xd1\x83'
p2651
I138
sS'katcneff'
p2652
I130
sS':)))'
p2653
I138
sS'throw'
p2654
I135
sS'now...researching'
p2655
I138
sS'choc'
p2656
I138
sS'central'
p2657
I138
sS'sri'
p2658
I121
sS"isn't"
p2659
I124
sS'dancing'
p2660
I138
sS'heavy'
p2661
I138
sS'researching'
p2662
I138
sS'snapchat'
p2663
I135
sS'bedtime'
p2664
I138
sS'your'
p2665
I40
sS'stare'
p2666
I138
sS'engagement...to'
p2667
I138
sS'neymar'
p2668
I138
sS'area'
p2669
I135
sS'lol'
p2670
I34
sS'los'
p2671
I133
sS'cats'
p2672
I138
sS'low'
p2673
I138
sS'lot'
p2674
I131
sS'lou'
p2675
I138
sS'jones'
p2676
I136
sS'waze'
p2677
I138
sS'you)'
p2678
I138
sS'dlooves'
p2679
I127
sS'pitches'
p2680
I138
sS'electroclash'
p2681
I138
sS'trying'
p2682
I118
sS'backkkk'
p2683
I138
sS'whirring'
p2684
I138
sS'hire'
p2685
I138
sS'are"'
p2686
I138
sS'pharrell'
p2687
I138
sS'bucket'
p2688
I137
sS'(boi)'
p2689
I138
sS'miguel'
p2690
I138
sS'moved'
p2691
I135
sS'sales'
p2692
I138
sS'-____-'
p2693
I138
sS'nerd'
p2694
I138
sS'excusing'
p2695
I138
sS'core"'
p2696
I138
sS'chikitiboom'
p2697
I137
sS'day47'
p2698
I138
sS'you'
p2699
I11
sS'forcing'
p2700
I138
sS'poor'
p2701
I135
sS'diaries'
p2702
I138
sS'peas'
p2703
I138
sS'peak'
p2704
I137
sS'tendencies'
p2705
I138
sS'overturned'
p2706
I138
sS'pool'
p2707
I124
sS'alcohol'
p2708
I138
sS'me...........lol'
p2709
I138
sS'moonlight'
p2710
I136
sS'posts'
p2711
I137
sS'from?"'
p2712
I138
sS'shabu-y'
p2713
I138
sS'cruisin'
p2714
I137
sS'since'
p2715
I132
sS'messi'
p2716
I138
sS'glendora'
p2717
I128
sS'12hrs'
p2718
I138
sS'messy'
p2719
I137
sS'religious'
p2720
I138
sS'waco\xe2\x80\xa6'
p2721
I137
sS'asada'
p2722
I138
sS'griffin'
p2723
I138
sS'-a'
p2724
I138
sS'referring'
p2725
I138
sS'-k'
p2726
I138
sS':$'
p2727
I138
sS'icona'
p2728
I138
sS':sigh'
p2729
I138
sS'volunteer'
p2730
I138
sS'lakewood'
p2731
I138
sS'\xd8\xa7\xd9\x88\xd9\x85\xd8\xaf\xd9\x87'
p2732
I138
sS'very'
p2733
I125
sS'lamodels'
p2734
I136
sS'hahahahahahaha'
p2735
I137
sS'decide'
p2736
I136
sS'heaven'
p2737
I138
sS'w/my'
p2738
I138
sS'--'
p2739
I137
sS'louis'
p2740
I138
sS'w/me'
p2741
I138
sS'throbbing'
p2742
I138
sS'blackout'
p2743
I138
sS"i'll"
p2744
I104
sS'ass'
p2745
I121
sS'cookies'
p2746
I135
sS'repeat!\xe2\x80\xa6'
p2747
I138
sS'instagram'
p2748
I135
sS'fence'
p2749
I138
sS'murder.....and'
p2750
I138
sS'casual'
p2751
I137
sS'nataliepiscopo'
p2752
I133
sS'witnessed'
p2753
I138
sS'emotions'
p2754
I136
sS'jedi'
p2755
I138
sS'learned'
p2756
I133
sS'edited'
p2757
I138
sS'loose'
p2758
I137
sS'i.q'
p2759
I138
sS'answers'
p2760
I138
sS'excess'
p2761
I138
sS'strong'
p2762
I136
sS'brittttles_'
p2763
I138
sS'ahead'
p2764
I136
sS'inspired'
p2765
I137
sS'creepy'
p2766
I138
sS'caldwell'
p2767
I138
sS'amount'
p2768
I137
sS'inspires'
p2769
I138
sS'\xd0\x9a\xd0\xb0\xd0\xb6\xd0\xb4\xd0\xbe\xd0\xb5'
p2770
I138
sS'trainer'
p2771
I138
sS"'twas"
p2772
I136
sS'family'
p2773
I127
sS'twitter.\xe2\x80\x9d'
p2774
I138
sS'put'
p2775
I124
sS'limon'
p2776
I138
sS'yummm'
p2777
I138
sS'takes'
p2778
I137
sS'price.and'
p2779
I138
sS'taken'
p2780
I138
sS'thrown'
p2781
I138
sS'yuck'
p2782
I138
sS'site'
p2783
I135
sS'excuse'
p2784
I138
sS'broke'
p2785
I133
sS'grill'
p2786
I75
sS'offended'
p2787
I137
sS'spontaneous'
p2788
I137
sS'\xd0\xba\xd0\xb0\xd0\xba\xd0\xbe\xd0\xb9'
p2789
I138
sS'history'
p2790
I137
sS'bffs'
p2791
I138
sS'boycott'
p2792
I137
sS'pushed'
p2793
I138
sS'\xe2\x98\x95\xef\xb8\x8f'
p2794
I137
sS'phrase'
p2795
I138
sS'bank)'
p2796
I137
sS'chops'
p2797
I138
sS'stayed'
p2798
I138
sS'surpassed'
p2799
I138
sS'ayyyyy'
p2800
I138
sS'e.t'
p2801
I138
sS'years...,90803\n487806941297528833,shannontucknies,2014-07-12'
p2802
I138
sS'millikan'
p2803
I138
sS'ft'
p2804
I137
sS'fu'
p2805
I138
sS'rude'
p2806
I137
sS'fw'
p2807
I138
sS'sneak'
p2808
I137
sS'bicoastal'
p2809
I138
sS'fb'
p2810
I137
sS'fe'
p2811
I138
sS'arrrrr'
p2812
I138
sS'invasion'
p2813
I138
sS'a'
p2814
I7
sS'bugs'
p2815
I138
sS'ego'
p2816
I138
sS'chopsticks'
p2817
I138
sS'crafts'
p2818
I138
sS'banks'
p2819
I138
sS'egg'
p2820
I138
sS'chicks'
p2821
I135
sS'help'
p2822
I128
sS'of....odd'
p2823
I138
sS'sooo'
p2824
I134
sS'soon'
p2825
I119
sS'held'
p2826
I138
sS'committed'
p2827
I138
sS'hell'
p2828
I119
sS'mcdonalds'
p2829
I138
sS'actually'
p2830
I123
sS'sunday)'
p2831
I138
sS'brittney'
p2832
I138
sS'relate'
p2833
I138
sS'peanuts'
p2834
I138
sS'cutie'
p2835
I138
sS'goodmorning'
p2836
I138
sS'fool'
p2837
I138
sS'evening'
p2838
I135
sS'curtis'
p2839
I138
sS'yo'
p2840
I130
sS'ya'
p2841
I132
sS'munito'
p2842
I138
sS'cupcake'
p2843
I138
sS'hahahahahaha'
p2844
I138
sS"you've"
p2845
I132
sS'\xd0\xbb\xd1\x8e\xd0\xb1\xd0\xbe\xd0\xb2\xd1\x8c'
p2846
I138
sS'bryan'
p2847
I138
sS'sundays'
p2848
I138
sS'kayaking'
p2849
I135
sS'"panties"'
p2850
I138
sS'bless'
p2851
I136
sS'stopped'
p2852
I137
sS'"quick'
p2853
I138
sS'fairy'
p2854
I138
sS'trailer'
p2855
I137
sS'barrels'
p2856
I138
sS'beyond'
p2857
I138
sS'event'
p2858
I131
sS'lemongrass'
p2859
I138
sS'hooray'
p2860
I138
sS'dominates'
p2861
I138
sS'visions'
p2862
I138
sS'robert'
p2863
I138
sS'surrounded'
p2864
I138
sS'meditating'
p2865
I138
sS'superfans'
p2866
I138
sS'tremendo'
p2867
I138
sS'7'
p2868
I128
sS'haydeh'
p2869
I138
sS'issue'
p2870
I137
sS'dunk'
p2871
I138
sS'textin'
p2872
I138
sS'asu'
p2873
I138
sS'ending...u'
p2874
I138
sS'timeline'
p2875
I138
sS'pug'
p2876
I136
sS'pub'
p2877
I138
sS'reason'
p2878
I136
sS'asg'
p2879
I137
sS'ask'
p2880
I133
sS'bonehoe$'
p2881
I138
sS'ash'
p2882
I136
sS'pup'
p2883
I138
sS'bash'
p2884
I138
sS'alwest'
p2885
I138
sS'launch'
p2886
I137
sS'terrible'
p2887
I138
sS'cheering'
p2888
I137
sS'american'
p2889
I125
sS'expecting'
p2890
I138
sS"it'll"
p2891
I138
sS'miso'
p2892
I138
sS'byebye'
p2893
I138
sS'misc'
p2894
I138
sS'scrolled'
p2895
I138
sS'dust'
p2896
I138
sS'minutes*'
p2897
I138
sS'trader""'
p2898
I138
sS'miss'
p2899
I109
sS'horse'
p2900
I138
sS'obtainable'
p2901
I138
sS'station'
p2902
I138
sS'banana'
p2903
I138
sS'selling'
p2904
I136
sS'passed'
p2905
I138
sS'nooooooooooooooo'
p2906
I138
sS'overdrive'
p2907
I138
sS'boredom'
p2908
I138
sS'grocery'
p2909
I138
sS'squeaky'
p2910
I138
sS'again.\xe2\x80\xa6'
p2911
I138
sS'stt'
p2912
I138
sS'greg'
p2913
I137
sS'nuthin'
p2914
I138
sS'ousted'
p2915
I130
sS'deciding'
p2916
I138
sS'petiteretreat'
p2917
I138
sS'off.being'
p2918
I138
sS'yeee'
p2919
I138
sS'randomly'
p2920
I138
sS'juice'
p2921
I137
sS'philly'
p2922
I137
sS'lie'
p2923
I137
sS'lif'
p2924
I138
sS'semifinals'
p2925
I138
sS'jour'
p2926
I138
sS'lil'
p2927
I125
sS'henna'
p2928
I138
sS'lit'
p2929
I137
sS'lip'
p2930
I138
sS'"school"'
p2931
I138
sS"angel's"
p2932
I138
sS'quote'
p2933
I137
sS'kai'
p2934
I138
sS'experiences'
p2935
I138
sS'eaten'
p2936
I138
sS"x's"
p2937
I138
sS'yasiel'
p2938
I138
sS'performances'
p2939
I138
sS'clear'
p2940
I138
sS'calling'
p2941
I135
sS'clean'
p2942
I132
sS'\xe2\x98\x80\xef\xb8\x8f'
p2943
I135
sS'hips'
p2944
I138
sS'ugggghhh'
p2945
I138
sS'humid'
p2946
I138
sS'booze'
p2947
I138
sS'rando'
p2948
I138
sS'convinced'
p2949
I138
sS'scooter'
p2950
I138
sS'flights'
p2951
I138
sS'randy'
p2952
I138
sS'pretty'
p2953
I121
sS'juke'
p2954
I138
sS'dominant'
p2955
I138
sS'yaaiii'
p2956
I138
sS'famous'
p2957
I138
sS'feels'
p2958
I129
sS'*doesnt'
p2959
I138
sS'pretending'
p2960
I138
sS"choura's"
p2961
I138
sS'during'
p2962
I137
sS'rocco'
p2963
I138
sS'postalpix'
p2964
I138
sS'frickin'
p2965
I138
sS'x'
p2966
I115
sS"dough....i've"
p2967
I138
sS'throwing'
p2968
I135
sS'unknownphenom'
p2969
I138
sS'manning'
p2970
I138
sS'drenching'
p2971
I138
sS'close'
p2972
I132
sS'angie'
p2973
I138
sS'tatiana'
p2974
I132
sS'glue'
p2975
I138
sS'pictures'
p2976
I135
sS'wow'
p2977
I119
sS'terrified'
p2978
I138
sS'woo'
p2979
I138
sS'won'
p2980
I133
sS'probably'
p2981
I130
sS'steelers'
p2982
I138
sS'makeup'
p2983
I137
sS'missing'
p2984
I135
sS'2moro'
p2985
I138
sS'ranked'
p2986
I138
sS'both'
p2987
I133
sS"wouldn't"
p2988
I133
sS'sensitive'
p2989
I137
sS'kazmir'
p2990
I138
sS'eggplant'
p2991
I138
sS'buzz'
p2992
I138
sS'math:100k'
p2993
I138
sS'ahdddddddd'
p2994
I138
sS'liked'
p2995
I136
sS'grill)'
p2996
I132
sS'sunblock'
p2997
I138
sS'battery'
p2998
I137
sS'winners?)'
p2999
I138
sS'whatever'
p3000
I137
sS'header'
p3001
I138
sS'likes'
p3002
I136
sS'yesssssssss'
p3003
I138
sS'along'
p3004
I138
sS'punished..but'
p3005
I138
sS'naps'
p3006
I138
sS'www.redwagonteam'
p3007
I138
sS'resellers'
p3008
I138
sS'damn'
p3009
I120
sS'ok.i'
p3010
I138
sS'richards&'
p3011
I138
sS'empty'
p3012
I138
sS'crack'
p3013
I136
sS'imac'
p3014
I136
sS'grille'
p3015
I138
sS'anthony'
p3016
I137
sS'lives'
p3017
I137
sS'dillonmeiche'
p3018
I138
sS'yessss'
p3019
I137
sS'assigning'
p3020
I138
sS'drink\xe2\x80\x9d'
p3021
I138
sS'w/the'
p3022
I137
sS'look'
p3023
I114
sS'rope'
p3024
I138
sS'while'
p3025
I111
sS'guido'
p3026
I138
sS'luciano'
p3027
I138
sS'biking'
p3028
I138
sS'pack'
p3029
I136
sS'cheetara'
p3030
I138
sS'sports\xe2\x80\xa6'
p3031
I138
sS'hb\xe2\x80\x9d"'
p3032
I138
sS'ready'
p3033
I118
sS'shaq'
p3034
I138
sS'-jb'
p3035
I138
sS'grant'
p3036
I138
sS'steelernation'
p3037
I138
sS'shay'
p3038
I138
sS'grand'
p3039
I138
sS'estes'
p3040
I138
sS'catsuits'
p3041
I138
sS'used'
p3042
I130
sS'temporary'
p3043
I138
sS'dime'
p3044
I138
sS'backstreet'
p3045
I138
sS'realreal'
p3046
I138
sS'user'
p3047
I137
sS'brussels'
p3048
I138
sS'sorrry'
p3049
I138
sS'older'
p3050
I137
sS'poland'
p3051
I138
sS'obviously'
p3052
I137
sS'tejo'
p3053
I138
sS'cave'
p3054
I138
sS'praying'
p3055
I136
sS'tick'
p3056
I138
sS'fanfic'
p3057
I138
sS'throats'
p3058
I138
sS'cherries'
p3059
I138
sS'13000'
p3060
I138
sS'tippers'
p3061
I138
sS'ventures'
p3062
I138
sS'lacking'
p3063
I138
sS'sofi'
p3064
I138
sS'showing'
p3065
I137
sS'albino'
p3066
I138
sS'other--suspicious'
p3067
I138
sS'game'
p3068
I109
sS'k_paulina'
p3069
I138
sS'wings'
p3070
I138
sS'toyota'
p3071
I137
sS'donny'
p3072
I138
sS'parade'
p3073
I113
sS'brakes'
p3074
I138
sS'creation'
p3075
I138
sS'some'
p3076
I64
sS'haahhahaa'
p3077
I138
sS'escargot'
p3078
I138
sS'trendy'
p3079
I138
sS'sheckler'
p3080
I138
sS'pounding'
p3081
I138
sS'trotters'
p3082
I138
sS'goooooo'
p3083
I136
sS'run'
p3084
I126
sS'rum'
p3085
I138
sS'rub'
p3086
I138
sS'laker'
p3087
I136
sS'step'
p3088
I135
sS'chick'
p3089
I133
sS'alleyway'
p3090
I137
sS'ache'
p3091
I138
sS'pitchers'
p3092
I138
sS'raspberry'
p3093
I137
sS'reputation)'
p3094
I138
sS'franco'
p3095
I138
sS'faith'
p3096
I138
sS'seewhateyesee'
p3097
I130
sS'emmy'
p3098
I138
sS'kingda-ka'
p3099
I138
sS'awwww'
p3100
I136
sS'sake'
p3101
I138
sS'idk'
p3102
I136
sS'shins'
p3103
I138
sS'a-man'
p3104
I138
sS'block'
p3105
I138
sS'miracles'
p3106
I138
sS'seeing'
p3107
I122
sS"'cause"
p3108
I138
sS'pero'
p3109
I138
sS'within'
p3110
I138
sS"flight's"
p3111
I138
sS'smells'
p3112
I136
sS'sashay'
p3113
I138
sS'blow'
p3114
I138
sS'0-4'
p3115
I138
sS'himself'
p3116
I138
sS'0-0'
p3117
I138
sS'today...wow'
p3118
I137
sS'russian'
p3119
I129
sS'dull'
p3120
I138
sS'ceremonies'
p3121
I138
sS'info'
p3122
I135
sS'chelsey'
p3123
I138
sS'street....wish'
p3124
I138
sS'loving'
p3125
I134
sS'chelsea'
p3126
I137
sS'ordered'
p3127
I137
sS'adults'
p3128
I138
sS'fashionista'
p3129
I138
sS'be."so'
p3130
I138
sS'right...sorry'
p3131
I138
sS'curliest'
p3132
I138
sS'living\xe2\x80\x9d'
p3133
I138
sS'kidney'
p3134
I138
sS'cotton'
p3135
I138
sS'...from'
p3136
I138
sS'btwn'
p3137
I137
sS'nah'
p3138
I137
sS'fears'
p3139
I137
sS'nap'
p3140
I135
sS'naw'
p3141
I138
sS'hydrated'
p3142
I138
sS'acceptable'
p3143
I138
sS'smiles'
p3144
I135
sS'draw'
p3145
I138
sS'\xe2\x98\xba\xef\xb8\x8f\xe2\x98\xba\xef\xb8\x8f'
p3146
I138
sS'william'
p3147
I138
sS'drag'
p3148
I134
sS'tundra'
p3149
I138
sS'dram'
p3150
I138
sS'e'
p3151
I82
sS"'thinking"
p3152
I138
sS'dvd'
p3153
I137
sS'required'
p3154
I138
sS'youtube'
p3155
I138
sS"she's"
p3156
I123
sS'underrated'
p3157
I138
sS'dvr'
p3158
I137
sS'gf'
p3159
I138
sS'go'
p3160
I55
sS'gn'
p3161
I138
sS'tweeted'
p3162
I138
sS'kate'
p3163
I137
sS'pervert'
p3164
I138
sS'rhonda'
p3165
I138
sS'wizard'
p3166
I137
sS'does'
p3167
I120
sS'discretion'
p3168
I138
sS'friendly'
p3169
I136
sS'nichole'
p3170
I138
sS'wave'
p3171
I137
sS'facebook'
p3172
I137
sS'telling'
p3173
I136
sS'sombreros'
p3174
I138
sS'cried...its'
p3175
I138
sS'stiff'
p3176
I138
sS'meant'
p3177
I134
sS'button'
p3178
I137
sS'ryan'
p3179
I132
sS'verdict'
p3180
I138
sS'inspection'
p3181
I138
sS'puke'
p3182
I138
sS'booty'
p3183
I136
sS'carter'
p3184
I138
sS'waking'
p3185
I136
sS'jump'
p3186
I138
sS'noise'
p3187
I138
sS'booth'
p3188
I138
sS'picked'
p3189
I136
sS'sausage'
p3190
I137
sS'cupcakes'
p3191
I138
sS'plays'
p3192
I137
sS'cristo'
p3193
I138
sS'cell'
p3194
I138
sS'rotten'
p3195
I138
sS'playa'
p3196
I137
sS'nicholas'
p3197
I138
sS'shoreline'
p3198
I138
sS'commercial'
p3199
I138
sS'eminem'
p3200
I137
sS'defectos'
p3201
I138
sS'dudes..all'
p3202
I138
sS'roselle'
p3203
I138
sS'products'
p3204
I138
sS"weren't"
p3205
I138
sS'lochte'
p3206
I138
sS'wig'
p3207
I138
sS'\xd8\xa8\xd9\x87\xd8\xaa\xd8\xb1\xd9\x8a\xd9\x86'
p3208
I138
sS'addresses'
p3209
I138
sS'pitch'
p3210
I137
sS'win'
p3211
I124
sS'kimbosclownroom'
p3212
I133
sS'wit'
p3213
I137
sS'routine!\xe2\x80\xa6'
p3214
I138
sS'singing'
p3215
I136
sS'crap'
p3216
I131
sS'cheeky'
p3217
I137
sS'crab'
p3218
I138
sS'tcal'
p3219
I138
sS'camero'
p3220
I138
sS'cheeks'
p3221
I137
sS'ponelo'
p3222
I138
sS'optimizing'
p3223
I138
sS'citabria'
p3224
I137
sS'1/2'
p3225
I137
sS'started'
p3226
I129
sS'becomes'
p3227
I136
sS'confused'
p3228
I136
sS'justin'
p3229
I138
sS'salad'
p3230
I135
sS'ride'
p3231
I123
sS'crossed'
p3232
I138
sS'shelton'
p3233
I138
sS'valyrian'
p3234
I138
sS'meet'
p3235
I115
sS'potus'
p3236
I138
sS'clagus1/'
p3237
I138
sS'control'
p3238
I138
sS'hip'
p3239
I138
sS'halloween'
p3240
I136
sS'wonderful'
p3241
I137
sS'zobrist.we'
p3242
I138
sS'poetry'
p3243
I138
sS'located'
p3244
I138
sS'catwang'
p3245
I138
sS'hafta'
p3246
I138
sS'fare'
p3247
I138
sS'farm'
p3248
I138
sS'boooooo'
p3249
I138
sS'chiefs'
p3250
I138
sS'purp'
p3251
I138
sS'torn.....because'
p3252
I138
sS'catty'
p3253
I138
sS'chungashley'
p3254
I129
sS'baird'
p3255
I138
sS'agenda'
p3256
I136
sS'barrelofmandys'
p3257
I137
sS'bathing'
p3258
I138
sS'(5300'
p3259
I127
sS'(5305'
p3260
I138
sS'cruise'
p3261
I138
sS'blake'
p3262
I137
sS'broom'
p3263
I137
sS'dancin'
p3264
I138
sS"pj's"
p3265
I137
sS'[pic]'
p3266
I114
sS'auto'
p3267
I138
sS'jpat7'
p3268
I121
sS'hands'
p3269
I137
sS'front'
p3270
I76
sS'oxy'
p3271
I138
sS'masters'
p3272
I138
sS'university'
p3273
I137
sS'guard'
p3274
I138
sS'mode'
p3275
I138
sS'|'
p3276
I69
sS'modo'
p3277
I138
sS'seniors'
p3278
I138
sS'mas'
p3279
I136
sS'climatic'
p3280
I138
sS'designer'
p3281
I138
sS'lalala'
p3282
I138
sS'special'
p3283
I135
sS'1:30am'
p3284
I138
sS'secretly'
p3285
I138
sS'ricky'
p3286
I138
sS'critics'
p3287
I138
sS'calif'
p3288
I138
sS'blasting'
p3289
I138
sS'trashy'
p3290
I138
sS'chase_johnston'
p3291
I138
sS'70s'
p3292
I138
sS'completely'
p3293
I137
sS'jill'
p3294
I138
sS"ariel's"
p3295
I138
sS'drowning'
p3296
I138
sS'membership'
p3297
I138
sS'timer'
p3298
I138
sS'keep'
p3299
I123
sS'intoxicated'
p3300
I138
sS'margaritas'
p3301
I135
sS'powerful'
p3302
I138
sS'1673098'
p3303
I138
sS'bitch'
p3304
I122
sS'quality'
p3305
I137
sS'sosh'
p3306
I138
sS"you're"
p3307
I97
sS'playlist'
p3308
I138
sS'ltothebc'
p3309
I138
sS'relations'
p3310
I138
sS'mal'
p3311
I138
sS'attack'
p3312
I138
sS'final'
p3313
I133
sS'beard'
p3314
I136
sS'2-0'
p3315
I138
sS'mhhhmm'
p3316
I138
sS'evening....in'
p3317
I138
sS'craziest'
p3318
I137
sS'dtla'
p3319
I125
sS'exactly'
p3320
I124
sS'fuzzy'
p3321
I138
sS'herself'
p3322
I137
sS'updating'
p3323
I138
sS'ben'
p3324
I138
sS'bel'
p3325
I135
sS'bed'
p3326
I122
sS'anaheim'
p3327
I137
sS'6th'
p3328
I138
sS'dumb'
p3329
I131
sS'spurs'
p3330
I136
sS'serfdom'
p3331
I138
sS'villains'
p3332
I137
sS'p.s'
p3333
I138
sS'mani-pedi'
p3334
I138
sS'radio\xe2\x80\x9d'
p3335
I138
sS'portrait'
p3336
I136
sS'need'
p3337
I94
sS'border'
p3338
I138
sS'screw'
p3339
I138
sS"river's"
p3340
I138
sS'able'
p3341
I137
sS'sprinkled'
p3342
I138
sS'has\xe2\x80\xa6'
p3343
I138
sS'coke'
p3344
I138
sS'simpkins'
p3345
I138
sS'kellysmith562'
p3346
I138
sS'aww'
p3347
I136
sS'candyman'
p3348
I138
sS'mimosa'
p3349
I138
sS'biplane'
p3350
I138
sS'awk'
p3351
I137
sS'enrique'
p3352
I138
sS'scrambler'
p3353
I138
sS'eachother'
p3354
I137
sS'upset'
p3355
I138
sS'funtasia'
p3356
I138
sS'snapshot'
p3357
I137
sS'1995'
p3358
I137
sS'babeness'
p3359
I138
sS"rob's"
p3360
I138
sS'$500'
p3361
I138
sS'liters'
p3362
I138
sS'anyway'
p3363
I137
sS'lmao\xe2\x80\x9d'
p3364
I138
sS'parked'
p3365
I137
sS'today...yummy)'
p3366
I138
sS'based'
p3367
I138
sS'tire'
p3368
I137
sS'earned'
p3369
I138
sS'('
p3370
I125
sS'rasp'
p3371
I138
sS'employee'
p3372
I138
sS'boris'
p3373
I138
sS'mga'
p3374
I138
sS'tbt'
p3375
I138
sS'joint'
p3376
I137
sS'123'
p3377
I138
sS'borin'
p3378
I138
sS'endless'
p3379
I138
sS'surf)'
p3380
I137
sS'bestest'
p3381
I138
sS"rt'ing"
p3382
I138
sS"them.we'll"
p3383
I138
sS'quarantine'
p3384
I138
sS'tuned'
p3385
I138
sS'she'
p3386
I92
sS'yassss'
p3387
I137
sS'grab'
p3388
I137
sS'piss'
p3389
I138
sS'grad'
p3390
I138
sS'spotted'
p3391
I136
sS'ad_cfreality_coach'
p3392
I138
sS'v\xc3\xa4ns'
p3393
I138
sS'shake'
p3394
I136
sS'computer'
p3395
I138
sS'recently'
p3396
I138
sS'sysseeker'
p3397
I138
sS"lot's"
p3398
I138
sS'luv'
p3399
I134
sS'nightmare'
p3400
I119
sS'lub'
p3401
I138
sS'correctly'
p3402
I136
sS'horrible'
p3403
I131
sS'peeling"'
p3404
I138
sS'ken'
p3405
I138
sS'comparable'
p3406
I138
sS"tilly's"
p3407
I138
sS'keg'
p3408
I138
sS'kicking'
p3409
I137
sS'merry'
p3410
I137
sS'group'
p3411
I138
sS'precious'
p3412
I138
sS'hits'
p3413
I138
sS'mindy'
p3414
I138
sS'career'
p3415
I138
sS'minds'
p3416
I137
sS'admit'
p3417
I138
sS'thang'
p3418
I138
sS'razonable'
p3419
I138
sS'jersey'
p3420
I137
sS'tuesday'
p3421
I132
sS'kings'
p3422
I132
sS'tiene'
p3423
I138
sS'quit'
p3424
I137
sS'yay'
p3425
I129
sS'addition'
p3426
I138
sS'yas'
p3427
I138
sS'd\xc3\xb8ne'
p3428
I137
sS'slowly'
p3429
I138
sS'mothafucka'
p3430
I138
sS'their\xe2\x80\xa6'
p3431
I138
sS'quickpitch'
p3432
I138
sS'"kidding!!"'
p3433
I138
sS'gisagolpira'
p3434
I131
sS'releasing'
p3435
I138
sS'kicks'
p3436
I138
sS'smoking'
p3437
I135
sS'brunch'
p3438
I132
sS'aileenrose85'
p3439
I136
sS'harder'
p3440
I138
sS'chalk'
p3441
I137
sS'bb\xe2\x99\xa5\xe2\x80\x9dmiss'
p3442
I138
sS'halley'
p3443
I138
sS'nicole2'
p3444
I138
sS'interest\xe2\x80\x9d'
p3445
I138
sS'ericproff'
p3446
I138
sS'shooting'
p3447
I134
sS'pit'
p3448
I137
sS'funniest'
p3449
I138
sS'parts'
p3450
I137
sS'beach....great'
p3451
I138
sS'party'
p3452
I117
sS'tapped'
p3453
I138
sS'beachtime'
p3454
I138
sS'effect'
p3455
I138
sS'metlife'
p3456
I138
sS'//'
p3457
I50
sS'ashley'
p3458
I135
sS'i'
p3459
I3
sS'well'
p3460
I106
sS'47'
p3461
I138
sS'tlsmakeup'
p3462
I138
sS'claiming'
p3463
I138
sS'accurate'
p3464
I138
sS'sources'
p3465
I138
sS'mistakes'
p3466
I138
sS'lauren'
p3467
I137
sS'gastropub'
p3468
I138
sS'headed'
p3469
I138
sS'logged'
p3470
I138
sS'bullshit'
p3471
I136
sS'ball\xe2\x80\x9d'
p3472
I138
sS'kick'
p3473
I137
sS'definitive'
p3474
I138
sS'5am'
p3475
I138
sS'burden'
p3476
I138
sS'crushes'
p3477
I138
sS'shirt.\xe2\x80\x9d'
p3478
I137
sS'prominent'
p3479
I138
sS'loss'
p3480
I138
sS"archibald's"
p3481
I136
sS'necessary'
p3482
I138
sS'lost'
p3483
I132
sS'"he\'s'
p3484
I138
sS'candy'
p3485
I136
sS'taping'
p3486
I138
sS'5hrs'
p3487
I138
sS'horsley'
p3488
I138
sS'lose'
p3489
I131
sS'*waiting'
p3490
I138
sS'page'
p3491
I136
sS'twitter'
p3492
I127
sS'library'
p3493
I138
sS'psyd'
p3494
I138
sS'repeat'
p3495
I136
sS'home'
p3496
I89
sS'liking'
p3497
I137
sS'peter'
p3498
I138
sS'drizzle'
p3499
I138
sS'\xe2\x98\xba\xef\xb8\x8f\xe2\x9d\xa4\xef\xb8\x8f'
p3500
I138
sS"rubio's"
p3501
I134
sS'mandaj0y'
p3502
I138
sS'journal'
p3503
I138
sS'offset'
p3504
I138
sS'choked'
p3505
I138
sS'"where'
p3506
I138
sS'nightclub'
p3507
I137
sS"riley's"
p3508
I138
sS'puppies'
p3509
I138
sS'persuaded'
p3510
I138
sS'disar'
p3511
I138
sS'chula'
p3512
I138
sS'mushrooms'
p3513
I138
sS'artists'
p3514
I138
sS'8/10'
p3515
I138
sS'bombay'
p3516
I138
sS',90803\n487816813229527040,shannontucknies,2014-07-12'
p3517
I138
sS'go-go'
p3518
I138
sS'noticed'
p3519
I138
sS'teasdale'
p3520
I138
sS'inner'
p3521
I138
sS'jandie'
p3522
I138
sS'backhand'
p3523
I138
sS'*guys'
p3524
I138
sS'north'
p3525
I138
sS'gluten'
p3526
I138
sS'hr'
p3527
I137
sS'hw'
p3528
I137
sS'blaming'
p3529
I138
sS'administrators'
p3530
I138
sS'neutral'
p3531
I138
sS'hi'
p3532
I129
sS'gain'
p3533
I138
sS'courts'
p3534
I138
sS'hb'
p3535
I136
sS'ha'
p3536
I121
sS'eat'
p3537
I129
sS'he'
p3538
I79
sS'(have'
p3539
I138
sS'samuellippke'
p3540
I137
sS'broads'
p3541
I138
sS'stories'
p3542
I136
sS'pumped'
p3543
I138
sS'piece'
p3544
I136
sS'thnks'
p3545
I138
sS'charbroiler)'
p3546
I137
sS'fairfield?"'
p3547
I138
sS'twist'
p3548
I138
sS'beats'
p3549
I138
sS'aybar'
p3550
I138
sS'education'
p3551
I138
sS'eric'
p3552
I133
sS'balcony'
p3553
I137
sS'diego'
p3554
I134
sS'contest'
p3555
I136
sS'offensive'
p3556
I138
sS'talkin'
p3557
I136
sS'stat'
p3558
I137
sS'star'
p3559
I137
sS'work\xe2\x80\xa6'
p3560
I138
sS'stay'
p3561
I124
sS'else'
p3562
I131
sS'friends'
p3563
I107
sS'people.\xe2\x80\x9d'
p3564
I138
sS'stai'
p3565
I138
sS'samsung'
p3566
I138
sS'yesyesyes'
p3567
I138
sS'flagggs'
p3568
I138
sS'this\xe2\x80\xa6'
p3569
I138
sS'katherine'
p3570
I135
sS'"the'
p3571
I135
sS'todays'
p3572
I137
sS'matey...it'
p3573
I138
sS'asian'
p3574
I137
sS'consists'
p3575
I138
sS'now?"'
p3576
I138
sS"you're\xe2\x80\xa6"
p3577
I138
sS'whose'
p3578
I138
sS'swag'
p3579
I138
sS'buddy'
p3580
I133
sS'aug'
p3581
I138
sS'pazookie'
p3582
I136
sS'party...get'
p3583
I138
sS'sorry'
p3584
I131
sS'onsale'
p3585
I137
sS'rescue'
p3586
I138
sS'stalkers'
p3587
I138
sS'smack'
p3588
I138
sS'skills'
p3589
I137
sS'vector'
p3590
I138
sS'sunshinegirl15'
p3591
I138
sS'front)'
p3592
I121
sS'employees'
p3593
I138
sS'porterhouse'
p3594
I138
sS'ups'
p3595
I136
sS'clothes'
p3596
I133
sS'creepin'
p3597
I136
sS'across'
p3598
I136
sS'likely'
p3599
I138
sS'jocelinpadilla'
p3600
I137
sS'cactus'
p3601
I137
sS'even'
p3602
I102
sS"tonight's"
p3603
I135
sS'panama'
p3604
I68
sS'asia'
p3605
I136
sS'lights'
p3606
I136
sS'haze'
p3607
I138
sS'h&m'
p3608
I138
sS'lightz'
p3609
I138
sS'new'
p3610
I71
sS'tips'
p3611
I138
sS'ever'
p3612
I103
sS'7.where'
p3613
I138
sS'never'
p3614
I97
sS'\xe2\x9d\xa4\xef\xb8\x8f\xe2\x9d\xa4\xef\xb8\x8f\xe2\x9d\xa4\xef\xb8\x8f\xe2\x9d\xa4\xef\xb8\x8f'
p3615
I137
sS'met'
p3616
I133
sS'drea'
p3617
I135
sS"aren't"
p3618
I135
sS'10-11:05'
p3619
I138
sS'credit'
p3620
I137
sS'grandkids'
p3621
I137
sS'fantastic'
p3622
I136
sS'feel\xe2\x80\xa6'
p3623
I138
sS'sliced'
p3624
I138
sS'whwtver'
p3625
I138
sS'army'
p3626
I138
sS'b-b-b-breezy'
p3627
I138
sS'arms'
p3628
I136
sS'cali'
p3629
I133
sS'call'
p3630
I128
sS'type'
p3631
I134
sS'tell'
p3632
I127
sS'calf'
p3633
I138
sS'sookie'
p3634
I136
sS'daze'
p3635
I138
sS'breeders'
p3636
I138
sS'lungy'
p3637
I138
sS'warm'
p3638
I137
sS'biatch'
p3639
I138
sS"5'3"
p3640
I138
sS'"am'
p3641
I138
sS'room'
p3642
I133
sS'setup'
p3643
I138
sS'ilysm'
p3644
I138
sS'movies'
p3645
I122
sS"shane's"
p3646
I137
sS'jayde'
p3647
I136
sS'wolfgangs'
p3648
I138
sS"effie's"
p3649
I138
sS'root'
p3650
I137
sS'give'
p3651
I129
sS'homie'
p3652
I136
sS'(4608'
p3653
I138
sS'rowengardner'
p3654
I138
sS'argonne'
p3655
I116
sS'the\xe2\x80\xa6'
p3656
I137
sS'dimaria'
p3657
I138
sS'livingston'
p3658
I128
sS'nicholes'
p3659
I113
sS'minority'
p3660
I138
sS'replacing'
p3661
I138
sS'cadillac'
p3662
I138
sS'vicious'
p3663
I138
sS'independent.\xe2\x80\x9d'
p3664
I138
sS'misfit'
p3665
I138
sS'&mua'
p3666
I138
sS'attempt'
p3667
I138
sS'anymore'
p3668
I133
sS'descends'
p3669
I138
sS'feels\xe2\x80\xa6'
p3670
I138
sS'waited'
p3671
I137
sS'goodbye'
p3672
I134
sS"'02"
p3673
I138
sS'fellah'
p3674
I138
sS'pie\xe2\x80\x9d'
p3675
I138
sS'before'
p3676
I111
sS'chihuahua'
p3677
I138
sS'personal'
p3678
I138
sS'crew'
p3679
I135
sS'better'
p3680
I111
sS'weeks'
p3681
I126
sS'weakness'
p3682
I138
sS'workout'
p3683
I136
sS'shae'
p3684
I138
sS'therapy'
p3685
I138
sS'\xe2\x98\xba\xef\xb8\x8f'
p3686
I112
sS'whaaaaaaat'
p3687
I138
sS'week)'
p3688
I138
sS'meat'
p3689
I136
sS'lucy'
p3690
I138
sS'baylor'
p3691
I138
sS'went'
p3692
I128
sS'meal'
p3693
I134
sS'mean'
p3694
I127
sS"exactly...i'll"
p3695
I138
sS'tatts'
p3696
I138
sS'gunnn'
p3697
I138
sS'milan'
p3698
I138
sS'taught'
p3699
I138
sS'forgot'
p3700
I136
sS"turkey's"
p3701
I138
sS'dawn'
p3702
I138
sS'velvet'
p3703
I138
sS'"city"'
p3704
I138
sS'sparkly'
p3705
I138
sS'content'
p3706
I138
sS'\xd1\x83'
p3707
I138
sS'debit'
p3708
I138
sS'surprise'
p3709
I138
sS'\xe2\x9d\xa4our'
p3710
I138
sS'\xd1\x8f'
p3711
I137
sS'aid)'
p3712
I138
sS'turning'
p3713
I138
sS'cutest'
p3714
I135
sS'throwbacks'
p3715
I138
sS'fave'
p3716
I133
sS'revenge'
p3717
I137
sS'struggle'
p3718
I135
sS'egyptians'
p3719
I138
sS'beanies'
p3720
I138
sS"bear's"
p3721
I138
sS'jaymz_michael'
p3722
I138
sS'starts'
p3723
I135
sS'messages'
p3724
I138
sS'shush'
p3725
I138
sS'stopppp'
p3726
I137
sS'ish'
p3727
I138
sS'moving'
p3728
I133
sS'loud'
p3729
I136
sS'fuckin'
p3730
I137
sS'cleaning'
p3731
I137
sS'grade'
p3732
I137
sS'walkers'
p3733
I138
sS'ily'
p3734
I136
sS'hook'
p3735
I138
sS'featured'
p3736
I138
sS'ditch'
p3737
I138
sS'hood'
p3738
I133
sS'brock'
p3739
I137
sS'clagus'
p3740
I137
sS'girlz'
p3741
I138
sS'girly'
p3742
I138
sS'psychotic'
p3743
I138
sS'girls'
p3744
I108
sS'twisted'
p3745
I137
sS'laquifa'
p3746
I138
sS'begin)'
p3747
I138
sS'mechanism'
p3748
I138
sS'gym'
p3749
I132
sS'somewhat'
p3750
I138
sS'boarding'
p3751
I136
sS'anxiety'
p3752
I135
sS'ew'
p3753
I137
sS'\xd9\x81\xd8\xb1\xd8\xa7\xd9\x8a\xd8\xb2'
p3754
I138
sS'matter'
p3755
I135
sS'one...she'
p3756
I138
sS'spoiled'
p3757
I138
sS'girl"'
p3758
I138
sS'steeler'
p3759
I138
sS'sees'
p3760
I138
sS'7:30am'
p3761
I138
sS'mind'
p3762
I131
sS'mine'
p3763
I133
sS'bouncer'
p3764
I138
sS'seed'
p3765
I138
sS'gang.taking'
p3766
I138
sS'seen'
p3767
I122
sS'seem'
p3768
I133
sS'mins'
p3769
I134
sS'tells'
p3770
I138
sS'\xe2\x9a\xbd\xef\xb8\x8f\xe2\x9d\xa4\xef\xb8\x8f'
p3771
I138
sS'breezes...just'
p3772
I138
sS'panda'
p3773
I138
sS'panties'
p3774
I138
sS'mario'
p3775
I138
sS'modelmacynicole'
p3776
I138
sS'regular'
p3777
I137
sS'too\xe2\x80\x9d'
p3778
I138
sS'7am'
p3779
I138
sS'doc'
p3780
I134
sS'm'
p3781
I137
sS'dog'
p3782
I64
sS'doe'
p3783
I138
sS'definitely'
p3784
I127
sS'yeah!\xe2\x80\x9d'
p3785
I138
sS'misssands'
p3786
I138
sS'aquatic'
p3787
I138
sS'lyrics'
p3788
I137
sS'ending'
p3789
I135
sS'liza'
p3790
I136
sS'you:('
p3791
I138
sS'judges'
p3792
I138
sS'northeast'
p3793
I138
sS"olive's"
p3794
I138
sS'sugar'
p3795
I138
sS'ba"'
p3796
I138
sS'judged'
p3797
I138
sS'folks'
p3798
I137
sS'quieres'
p3799
I138
sS'folder'
p3800
I138
sS'wearing'
p3801
I135
sS'monica'
p3802
I133
sS'stop'
p3803
I109
sS'ahahaha'
p3804
I137
sS"tan...i'm"
p3805
I138
sS'watermelon'
p3806
I138
sS'nigguh'
p3807
I138
sS'\xe2\x9d\x84\xe2\x9b\x84\xe2\x9d\xa4'
p3808
I138
sS'bar'
p3809
I44
sS'sailing'
p3810
I138
sS'*haha'
p3811
I138
sS'bay'
p3812
I131
sS'bag'
p3813
I137
sS'bad'
p3814
I103
sS'bae'
p3815
I136
sS'couch.micheladas.popcorn.baseball'
p3816
I138
sS'killer\xe2\x80\x9d'
p3817
I138
sS'bam'
p3818
I138
sS'effing'
p3819
I136
sS'mccutchen-'
p3820
I138
sS'lettering'
p3821
I138
sS'decides'
p3822
I138
sS'fascinating'
p3823
I138
sS'fluffy'
p3824
I138
sS'testing'
p3825
I138
sS'decided'
p3826
I138
sS'subject'
p3827
I137
sS'brazil'
p3828
I137
sS'said'
p3829
I106
sS'inappropriate'
p3830
I138
sS'sorta'
p3831
I138
sS'sail'
p3832
I138
sS'2000th'
p3833
I138
sS'shaved'
p3834
I138
sS'skarsg\xc3\xa5d'
p3835
I138
sS'wetsuit'
p3836
I138
sS"there's"
p3837
I124
sS'warrior'
p3838
I138
sS'crayons'
p3839
I138
sS'omg'
p3840
I103
sS'shore....everyone'
p3841
I138
sS'ignorance'
p3842
I138
sS'lotion'
p3843
I138
sS'cousin'
p3844
I138
sS'picking'
p3845
I136
sS'aunties'
p3846
I138
sS'$'
p3847
I138
sS'compton'
p3848
I137
sS'against'
p3849
I138
sS'android-ish'
p3850
I138
sS'fangirl'
p3851
I138
sS'wingwoman'
p3852
I138
sS"bj's"
p3853
I137
sS'appeared'
p3854
I138
sS'90803'
p3855
I138
sS'yaaa'
p3856
I138
sS'springs'
p3857
I138
sS'arsenic'
p3858
I138
sS'(4816'
p3859
I137
sS'asks'
p3860
I138
sS'basis'
p3861
I138
sS'three'
p3862
I135
sS'tiny'
p3863
I138
sS'lovely'
p3864
I133
sS'but...i'
p3865
I138
sS'riley'
p3866
I135
sS'threw'
p3867
I137
sS'website'
p3868
I137
sS'turned'
p3869
I134
sS'sunshine'
p3870
I133
sS'sooooo'
p3871
I138
sS'afternoons'
p3872
I138
sS'buyin'
p3873
I138
sS'connoisseur'
p3874
I138
sS'personally'
p3875
I138
sS'160'
p3876
I137
sS'mcr'
p3877
I138
sS"same...can't"
p3878
I138
sS'tank'
p3879
I138
sS'drive...lol'
p3880
I138
sS'ugly'
p3881
I136
sS'near'
p3882
I134
sS'melted'
p3883
I137
sS'.223'
p3884
I138
sS'widdit'
p3885
I138
sS'chilling'
p3886
I138
sS'mexico'
p3887
I138
sS'is'
p3888
I14
sS'sushi'
p3889
I126
sS'it'
p3890
I16
sS'iv'
p3891
I138
sS'jess'
p3892
I138
sS'cant'
p3893
I136
sS'im'
p3894
I128
sS'in'
p3895
I12
sS'seattle'
p3896
I137
sS'mouse'
p3897
I138
sS'id'
p3898
I131
sS'ig'
p3899
I133
sS'if'
p3900
I66
sS'grown'
p3901
I138
sS'bottles'
p3902
I138
sS'(5286'
p3903
I138
sS'science.\xe2\x80\x9d'
p3904
I138
sS'make'
p3905
I95
sS'question"'
p3906
I138
sS'polaroid'
p3907
I118
sS'bella'
p3908
I136
sS'hahah'
p3909
I138
sS'unfortunate'
p3910
I138
sS'80s'
p3911
I138
sS'anymore.period'
p3912
I138
sS'meets'
p3913
I138
sS'froyo'
p3914
I138
sS'shmoop'
p3915
I138
sS'sacramento'
p3916
I138
sS'ella'
p3917
I138
sS'elly'
p3918
I138
sS'garlic'
p3919
I137
sS'kim'
p3920
I138
sS'unicorn'
p3921
I138
sS'jealous'
p3922
I137
sS'ruff'
p3923
I137
sS'opportunity'
p3924
I138
sS"he'll"
p3925
I138
sS'thoughts'
p3926
I135
sS'kid'
p3927
I132
sS'hacer'
p3928
I138
sS'youre'
p3929
I138
sS'smoker'
p3930
I138
sS'romy'
p3931
I138
sS'cocksucking'
p3932
I138
sS'materials'
p3933
I138
sS'pandora'
p3934
I138
sS'roma'
p3935
I137
sS'claims'
p3936
I138
sS'smoked'
p3937
I138
sS'yours'
p3938
I134
sS'left'
p3939
I129
sS'slutty'
p3940
I138
sS'just'
p3941
I26
sS'sentence'
p3942
I138
sS'yea'
p3943
I122
sS"3's"
p3944
I138
sS'malasadas'
p3945
I138
sS'please??\xe2\x80\x9d'
p3946
I138
sS'psych'
p3947
I137
sS'human'
p3948
I134
sS'facts'
p3949
I138
sS'yep'
p3950
I137
sS'yes'
p3951
I99
sS'yet'
p3952
I121
sS'buyers'
p3953
I138
sS'1776'
p3954
I138
sS'character'
p3955
I138
sS'tbh\xe2\x80\x9d'
p3956
I138
sS'hahahhaa'
p3957
I138
sS'potential'
p3958
I138
sS'opp'
p3959
I138
sS'vanessa'
p3960
I136
sS'dreamt'
p3961
I138
sS'dreams'
p3962
I133
sS'shoulder'
p3963
I138
sS'kitesurfing'
p3964
I138
sS'released.or'
p3965
I138
sS'deal'
p3966
I137
sS'deaf'
p3967
I137
sS'somehow'
p3968
I138
sS'dead'
p3969
I135
sS'manziel'
p3970
I138
sS'downey'
p3971
I138
sS'dear'
p3972
I136
sS'a\xe2\x80\xa6'
p3973
I138
sS'arguing'
p3974
I138
sS'carta'
p3975
I138
sS'burn'
p3976
I133
sS'moddate'
p3977
I138
sS'super'
p3978
I128
sS'chilean'
p3979
I138
sS'oreo'
p3980
I138
sS'yelling'
p3981
I138
sS'valentines'
p3982
I137
sS'magazine'
p3983
I136
sS'afternoon'
p3984
I130
sS'"look."'
p3985
I138
sS'farrell'
p3986
I136
sS'managers'
p3987
I137
sS'hamburguer'
p3988
I137
sS'selfie'
p3989
I137
sS'down'
p3990
I91
sS'complaints'
p3991
I138
sS'ohkelseysmile'
p3992
I135
sS'carving'
p3993
I138
sS'sculpin'
p3994
I138
sS'lunch\xe2\x80\xa6'
p3995
I138
sS'beto'
p3996
I138
sS'initial'
p3997
I138
sS'jealousy'
p3998
I138
sS'yolo'
p3999
I138
sS'form'
p4000
I138
sS'batman'
p4001
I138
sS'fireworks'
p4002
I136
sS'if\'s"'
p4003
I138
sS'ford'
p4004
I136
sS'31st'
p4005
I138
sS'(sox'
p4006
I138
sS'creativeland'
p4007
I138
sS'hwood'
p4008
I138
sS'2-5pm'
p4009
I138
sS'lilies'
p4010
I138
sS'25th'
p4011
I138
sS'surprising'
p4012
I138
sS'lips'
p4013
I135
sS'montage'
p4014
I138
sS'//oh'
p4015
I138
sS'daddy'
p4016
I138
sS'temper'
p4017
I138
sS'pizza)'
p4018
I138
sS'classic'
p4019
I136
sS'sale'
p4020
I136
sS'qwerty'
p4021
I138
sS'fashioned'
p4022
I138
sS'awhile'
p4023
I138
sS'shit'
p4024
I89
sS'warehouse'
p4025
I120
sS'keckyerin'
p4026
I135
sS'dies'
p4027
I137
sS'felt'
p4028
I134
sS'utilities'
p4029
I138
sS'diet'
p4030
I136
sS'fell'
p4031
I136
sS'dien'
p4032
I138
sS'hahahahahah'
p4033
I137
sS'weekend'
p4034
I120
sS'died'
p4035
I134
sS'babysitting'
p4036
I135
sS'billion'
p4037
I138
sS'happening'
p4038
I133
sS'potato'
p4039
I137
sS'assume'
p4040
I137
sS'01:53:48.0,33.759468,-118.1452124,5773,creeper'
p4041
I138
sS'yooop'
p4042
I138
sS'daily'
p4043
I136
sS'teeth'
p4044
I138
sS'pellets'
p4045
I138
sS'\xd8\xaa\xd8\xb6\xd9\x8a\xd8\xb9'
p4046
I138
sS'managed'
p4047
I138
sS'manages'
p4048
I138
sS'nataliaobradovicova'
p4049
I133
sS'skin'
p4050
I138
sS'mill'
p4051
I138
sS'milk'
p4052
I138
sS'retention'
p4053
I138
sS'21st'
p4054
I137
sS'suicide'
p4055
I138
sS'yummy'
p4056
I138
sS"photobombing...he's"
p4057
I138
sS'show'
p4058
I100
sS'disgusting'
p4059
I138
sS'countdown'
p4060
I137
sS'finally'
p4061
I116
sS'mcbanking'
p4062
I138
sS'shoot'
p4063
I117
sS'tacos'
p4064
I137
sS'lynch'
p4065
I138
sS'advised'
p4066
I138
sS'ma'
p4067
I137
sS'jettison'
p4068
I138
sS'staples'
p4069
I138
sS'hugest'
p4070
I138
sS'did'
p4071
I90
sS'die'
p4072
I133
sS'dig'
p4073
I137
sS'proposals'
p4074
I138
sS'accidentally'
p4075
I138
sS'travels'
p4076
I138
sS'item'
p4077
I137
sS'round'
p4078
I132
sS'dis'
p4079
I137
sS'shave'
p4080
I137
sS'olympic'
p4081
I131
sS'talked'
p4082
I137
sS'villa'
p4083
I138
sS'toriiyou'
p4084
I138
sS'corner'
p4085
I119
sS'eating'
p4086
I131
sS'theories'
p4087
I138
sS'(perxactly)'
p4088
I138
sS'fillet'
p4089
I138
sS'reunite'
p4090
I138
sS'suspect'
p4091
I138
sS'international'
p4092
I138
sS'ummmm'
p4093
I138
sS'mussels'
p4094
I138
sS'henry'
p4095
I137
sS'french'
p4096
I138
sS'refused'
p4097
I138
sS'vengas'
p4098
I138
sS'easton'
p4099
I138
sS'wait'
p4100
I109
sS'box'
p4101
I132
sS'boy'
p4102
I131
sS'alcide'
p4103
I137
sS'thrasher'
p4104
I138
sS'shift'
p4105
I135
sS'shooter'
p4106
I138
sS'boi'
p4107
I138
sS'bon'
p4108
I138
sS'boo'
p4109
I131
sS'hbu'
p4110
I138
sS'teenage'
p4111
I138
sS'elect'
p4112
I138
sS'2014.04.04'
p4113
I138
sS'storms'
p4114
I138
sS'6-18-14'
p4115
I138
sS'everybody'
p4116
I134
sS'siempre'
p4117
I138
sS'perf'
p4118
I137
sS'efflictim'
p4119
I138
sS'baes'
p4120
I138
sS'aye'
p4121
I136
sS'smothered'
p4122
I138
sS'dude'
p4123
I122
sS'ahhh'
p4124
I138
sS'thru'
p4125
I137
sS'ahha'
p4126
I138
sS'one.\xe2\x80\x9d'
p4127
I138
sS'only\xe2\x80\xa6'
p4128
I138
sS'ooo'
p4129
I138
sS'heartless'
p4130
I138
sS'saurus)'
p4131
I137
sS'effort'
p4132
I137
sS'fly'
p4133
I131
sS'pageant'
p4134
I138
sS'flu'
p4135
I138
sS'soul'
p4136
I137
sS'reviews'
p4137
I138
sS'soup'
p4138
I133
sS'growing'
p4139
I138
sS'making'
p4140
I119
sS'arrive'
p4141
I138
sS'bites'
p4142
I138
sS'crazy'
p4143
I119
sS'phuket'
p4144
I131
sS'.....lol'
p4145
I138
sS'fuck'
p4146
I104
sS'council'
p4147
I137
sS'lorde'
p4148
I138
sS'apoyando'
p4149
I138
sS'pink'
p4150
I137
sS'purr'
p4151
I137
sS'rays'
p4152
I138
sS'tonight?\xc2\xbf'
p4153
I138
sS'"snacks"'
p4154
I138
sS'pine'
p4155
I138
sS'till'
p4156
I131
sS'sunday'
p4157
I117
sS'pure'
p4158
I137
sS'nyc'
p4159
I135
sS'staying'
p4160
I137
sS'mar'
p4161
I138
sS'may'
p4162
I124
sS'max'
p4163
I138
sS'snl'
p4164
I138
sS'helmut'
p4165
I138
sS'mac'
p4166
I137
sS'mad'
p4167
I130
sS'mag'
p4168
I138
sS'mah'
p4169
I138
sS'guys'
p4170
I99
sS'grow'
p4171
I137
sS'man'
p4172
I104
sS'hemlock'
p4173
I138
sS'neck'
p4174
I136
sS'maybe'
p4175
I126
sS'(5128'
p4176
I137
sS'jail'
p4177
I138
sS'halos'
p4178
I138
sS'tall'
p4179
I137
sS'"daddy'
p4180
I138
sS'talk'
p4181
I130
sS'cute'
p4182
I117
sS'shoes'
p4183
I136
sS'wishing'
p4184
I138
sS'kimmel'
p4185
I137
sS'lyric'
p4186
I138
sS'yaaaaw'
p4187
I138
sS'cuts'
p4188
I138
sS'argued'
p4189
I138
sS'equis'
p4190
I138
sS'police'
p4191
I138
sS'thank'
p4192
I83
sS'interesting'
p4193
I130
sS"neighbor's"
p4194
I138
sS'coaching'
p4195
I138
sS'batesole'
p4196
I138
sS'tweets'
p4197
I137
sS'mail'
p4198
I134
sS'main'
p4199
I134
sS'brainer'
p4200
I138
sS'truest'
p4201
I138
sS'alive...barely'
p4202
I138
sS'tropicana'
p4203
I138
sS'killer'
p4204
I136
sS'undisclosed'
p4205
I133
sS'lunch'
p4206
I125
sS'srsly'
p4207
I138
sS'touching'
p4208
I137
sS'killed'
p4209
I132
sS'productove'
p4210
I138
sS'careless'
p4211
I138
sS'rock'
p4212
I137
sS'haha!\xe2\x80\xa6'
p4213
I138
sS'elephants'
p4214
I138
sS"party's"
p4215
I138
sS'conventions'
p4216
I138
sS'girl'
p4217
I102
sS'canada'
p4218
I137
sS'living'
p4219
I126
sS'and\xe2\x80\xa6'
p4220
I138
sS'3rd'
p4221
I132
sS'stupid'
p4222
I128
sS'saurus'
p4223
I138
sS'correct'
p4224
I136
sS'poca'
p4225
I137
sS'earlier'
p4226
I134
sS'monster'
p4227
I138
sS'brooks'
p4228
I138
sS'oxygensteadily'
p4229
I138
sS'california'
p4230
I134
sS'underwear'
p4231
I138
sS'carnival'
p4232
I138
sS'wurk'
p4233
I138
sS'xmas'
p4234
I136
sS'thing'
p4235
I117
sS'funky'
p4236
I138
sS'"we\'re'
p4237
I138
sS'yet?"\xe2\x80\x9d'
p4238
I138
sS'yess'
p4239
I138
sS'think'
p4240
I92
sS'$1400'
p4241
I138
sS'first'
p4242
I103
sS'cheese'
p4243
I135
sS'roswell'
p4244
I129
sS'xoxo'
p4245
I137
sS'rachel'
p4246
I132
sS'crib'
p4247
I138
sS'rachet'
p4248
I138
sS'americans'
p4249
I136
sS'long'
p4250
I22
sS'sounds'
p4251
I132
sS'cheesy'
p4252
I137
sS'little'
p4253
I102
sS'personalities'
p4254
I138
sS'slept'
p4255
I135
sS'anyone'
p4256
I130
sS'10lbs'
p4257
I138
sS'1b'
p4258
I138
sS'1d'
p4259
I136
sS'speaking'
p4260
I137
sS'eyes'
p4261
I137
sS'memo'
p4262
I138
sS'accurately'
p4263
I138
sS'eyed'
p4264
I138
sS'mems'
p4265
I138
sS'butt'
p4266
I132
sS'mani/pedis'
p4267
I138
sS"here's"
p4268
I133
sS'11'
p4269
I137
sS'10'
p4270
I130
sS'13'
p4271
I137
sS'12'
p4272
I136
sS'15'
p4273
I136
sS'14'
p4274
I138
sS'17'
p4275
I135
sS'16'
p4276
I137
sS'puuuuuulllllll'
p4277
I138
sS'18'
p4278
I136
sS'gotta'
p4279
I129
sS'strolla'
p4280
I138
sS'orgy'
p4281
I138
sS'werd'
p4282
I137
sS'were'
p4283
I112
sS'werk'
p4284
I133
sS'tractor'
p4285
I138
sS'coconut'
p4286
I134
sS'bar-b-que)'
p4287
I138
sS'dash'
p4288
I138
sS'monochrome'
p4289
I135
sS'kevin'
p4290
I135
sS'cassandra'
p4291
I137
sS'sotelo'
p4292
I138
sS'bailed'
p4293
I138
sS'advil'
p4294
I137
sS'answering'
p4295
I138
sS'squad'
p4296
I138
sS'performance'
p4297
I136
sS'channel'
p4298
I136
sS'ultimate'
p4299
I138
sS'200'
p4300
I138
sS'frost'
p4301
I138
sS'pain'
p4302
I133
sS'ahhhhhhhhhhhhh'
p4303
I138
sS"home.i'm"
p4304
I138
sS'normal'
p4305
I137
sS'track'
p4306
I137
sS'paid'
p4307
I137
sS'insanity'
p4308
I138
sS'20$'
p4309
I138
sS'pair'
p4310
I137
sS'//my'
p4311
I138
sS'especially'
p4312
I136
sS'"ferris'
p4313
I138
sS'harlan'
p4314
I138
sS'shop'
p4315
I127
sS'shot'
p4316
I122
sS"californiadon't"
p4317
I138
sS'times-text-'
p4318
I138
sS'lumineers'
p4319
I138
sS'shoe'
p4320
I135
sS'nancymeza88'
p4321
I138
sS'takin'
p4322
I138
sS'trimana'
p4323
I138
sS'!lmfaooo'
p4324
I138
sS'dick'
p4325
I138
sS'cheeseburger'
p4326
I138
sS'behind'
p4327
I136
sS'black'
p4328
I131
sS'ranking'
p4329
I138
sS'carta...holy'
p4330
I137
sS'get'
p4331
I46
sS'moons'
p4332
I138
sS'milkshakes'
p4333
I138
sS'nearly'
p4334
I138
sS'wednesday)'
p4335
I138
sS'malaysian'
p4336
I138
sS'morning'
p4337
I100
sS'votton'
p4338
I138
sS'miles'
p4339
I132
sS'skythrills'
p4340
I130
sS'finishing'
p4341
I137
sS'oven'
p4342
I137
sS'\xd8\xa8\xd8\xa7'
p4343
I138
sS'seat'
p4344
I138
sS'seal'
p4345
I138
sS'stalking'
p4346
I136
sS'wonder'
p4347
I135
sS"father's"
p4348
I136
sS'enough'
p4349
I131
sS'date"'
p4350
I138
sS'diamonds'
p4351
I138
sS'llorar'
p4352
I138
sS'reading'
p4353
I136
sS'checks'
p4354
I138
sS'kmac1522'
p4355
I138
sS'kook'
p4356
I138
sS'august'
p4357
I135
sS'kool'
p4358
I138
sS'yeaup'
p4359
I138
sS'haha.hes'
p4360
I138
sS'killing'
p4361
I138
sS'mashin'
p4362
I137
sS'magna'
p4363
I136
sS'dahhhhhh'
p4364
I138
sS'coupons'
p4365
I138
sS'chicken_little_1201'
p4366
I138
sS'saratoga'
p4367
I138
sS'according'
p4368
I138
sS'restroom'
p4369
I137
sS'tour'
p4370
I137
sS'disappointment'
p4371
I138
sS'spare'
p4372
I138
sS'among'
p4373
I138
sS'cancer'
p4374
I137
sS'jk'
p4375
I136
sS'custody'
p4376
I138
sS'considering'
p4377
I138
sS'arts'
p4378
I138
sS'capable'
p4379
I138
sS'ucla'
p4380
I137
sS'ja'
p4381
I138
sS'judging'
p4382
I137
sS'mary'
p4383
I137
sS'life:it'
p4384
I138
sS'chalet'
p4385
I137
sS'shopping'
p4386
I133
sS'cobain'
p4387
I138
sS'helpppppp'
p4388
I138
sS'squash'
p4389
I138
sS'laptops'
p4390
I138
sS'celebray'
p4391
I138
sS'wake'
p4392
I135
sS'those'
p4393
I118
sS'sound'
p4394
I137
sS'disconnected'
p4395
I138
sS'annddd'
p4396
I138
sS'ratchet'
p4397
I137
sS'hmmmm'
p4398
I138
sS'socks?emma'
p4399
I138
sS'versus'
p4400
I138
sS'bathrooms'
p4401
I138
sS'eventually'
p4402
I138
sS'shoooot'
p4403
I138
sS'them'
p4404
I106
sS'sleeping'
p4405
I136
sS'middle'
p4406
I135
sS'dangerously'
p4407
I138
sS'loosing'
p4408
I138
sS'protein'
p4409
I138
sS'wisely'
p4410
I138
sS'everyday'
p4411
I136
sS'different'
p4412
I134
sS'doctor'
p4413
I138
sS'pay'
p4414
I133
sS'paz'
p4415
I138
sS'same'
p4416
I108
sS'emely'
p4417
I138
sS'struggling'
p4418
I137
sS"bumpin'"
p4419
I138
sS'oil'
p4420
I138
sS'running'
p4421
I131
sS'flipper'
p4422
I138
sS'totally'
p4423
I134
sS'crazy???"'
p4424
I138
sS'roommate'
p4425
I138
sS'luukkkeeee'
p4426
I138
sS'bottle'
p4427
I135
sS'bumping'
p4428
I138
sS'robbed..unbelievable'
p4429
I138
sS'outdoor'
p4430
I138
sS'money'
p4431
I132
sS'posole'
p4432
I138
sS'drogo'
p4433
I138
sS'wifey'
p4434
I138
sS'barbados'
p4435
I138
sS'clueless'
p4436
I138
sS'pups'
p4437
I138
sS'ahhhh'
p4438
I138
sS'bank'
p4439
I133
sS'(let'
p4440
I138
sS'jake'
p4441
I138
sS'dland'
p4442
I137
sS'"amnesia"'
p4443
I138
sS'mom'
p4444
I114
sS'"official'
p4445
I138
sS'(hi'
p4446
I138
sS'disappointed'
p4447
I138
sS'\xe2\x9d\x93'
p4448
I138
sS'b/c'
p4449
I134
sS'macarthur'
p4450
I138
sS'server'
p4451
I138
sS'facing'
p4452
I138
sS'chamber'
p4453
I138
sS'hac\xc3\xada'
p4454
I138
sS'laughing'
p4455
I135
sS'served'
p4456
I138
sS'passionate'
p4457
I138
sS'robbers'
p4458
I138
sS'doll'
p4459
I138
sS'naan'
p4460
I138
sS'(5246'
p4461
I138
sS'erase'
p4462
I138
sS'"spike"'
p4463
I138
sS'organizing'
p4464
I136
sS'gross'
p4465
I137
sS'outs'
p4466
I138
sS'genetics'
p4467
I138
sS'in\xe2\x80\xa6'
p4468
I138
sS'confirm'
p4469
I136
sS'doggs'
p4470
I138
sS'aussie'
p4471
I138
sS'balls?\xe2\x80\x9d'
p4472
I138
sS'knife'
p4473
I138
sS'nickles'
p4474
I138
sS'seconds'
p4475
I137
sS'fitness'
p4476
I138
sS":'-)"
p4477
I138
sS'broken'
p4478
I137
sS'roaming'
p4479
I138
sS'sweat."what'
p4480
I138
sS'tease'
p4481
I138
sS'roar'
p4482
I138
sS'island'
p4483
I137
sS'road'
p4484
I136
sS'whites'
p4485
I138
sS'blessed'
p4486
I136
sS'airlines'
p4487
I138
sS"nats-o's-nats.beltway.nats.o's"
p4488
I138
sS'inbox'
p4489
I138
sS'dreaming'
p4490
I135
sS'morning)'
p4491
I138
sS'skillet'
p4492
I138
sS'wildfire'
p4493
I138
sS'ortiz'
p4494
I138
sS'vh1'
p4495
I138
sS'styling'
p4496
I136
sS'mondays'
p4497
I137
sS'alameda'
p4498
I138
sS'mornings'
p4499
I137
sS'up.i'
p4500
I138
sS'strikes'
p4501
I138
sS'gore'
p4502
I138
sS'downstairs'
p4503
I138
sS'belated'
p4504
I138
sS'stuffings'
p4505
I138
sS'romantic'
p4506
I138
sS"wasn't"
p4507
I129
sS'acro'
p4508
I138
sS"brother's"
p4509
I137
sS'reiner'
p4510
I138
sS'affection'
p4511
I138
sS'on\xe2\x80\xa6'
p4512
I138
sS'gumbo'
p4513
I138
sS'videos'
p4514
I137
sS'am...still'
p4515
I138
sS'deep'
p4516
I136
sS'fellow'
p4517
I135
sS'girlfriend'
p4518
I135
sS'outtake'
p4519
I135
sS'watch.,90803\n487807751209238528,shannontucknies,2014-07-12'
p4520
I138
sS'film'
p4521
I134
sS'fill'
p4522
I137
sS'selfish'
p4523
I135
sS'weeek'
p4524
I138
sS'field'
p4525
I137
sS'doyers'
p4526
I138
sS'cleanup'
p4527
I123
sS'twerk'
p4528
I138
sS'lafayette'
p4529
I138
sS'effie'
p4530
I134
sS'weeee'
p4531
I138
sS'fying'
p4532
I138
sS'obsessed'
p4533
I134
sS'keepin'
p4534
I138
sS'important'
p4535
I135
sS'chris'
p4536
I135
sS'cee-lo'
p4537
I138
sS'awkwardly'
p4538
I138
sS'mind\xe2\x80\x9d'
p4539
I138
sS'casty'
p4540
I137
sS'ft.\xe2\x80\xa6'
p4541
I138
sS'unload'
p4542
I138
sS'doneasian'
p4543
I138
sS"life's"
p4544
I137
sS'u'
p4545
I90
sS'alright'
p4546
I136
sS'starting'
p4547
I135
sS'liar'
p4548
I135
sS'forget'
p4549
I127
sS"sittin'"
p4550
I138
sS'aids'
p4551
I138
sS'rascals'
p4552
I138
sS'>><<>><'
p4553
I138
sS'dollar'
p4554
I137
sS'commute'
p4555
I137
sS'liam'
p4556
I132
sS'mommies'
p4557
I138
sS'children'
p4558
I135
sS'emily'
p4559
I138
sS'shattered'
p4560
I137
sS'nines'
p4561
I138
sS'on...blow'
p4562
I138
sS'habging'
p4563
I138
sS'breeds<<<'
p4564
I138
sS'crimson'
p4565
I138
sS'enjoying'
p4566
I135
sS'wooooh'
p4567
I137
sS'sitting'
p4568
I133
sS'billie'
p4569
I138
sS'scout'
p4570
I138
sS'....i'
p4571
I138
sS'bestie'
p4572
I137
sS'fall'
p4573
I133
sS'difference'
p4574
I138
sS'syracuse'
p4575
I138
sS'trippin'
p4576
I138
sS'pre'
p4577
I138
sS'washing'
p4578
I138
sS'mothers'
p4579
I138
sS'celebrity'
p4580
I138
sS'outtakes'
p4581
I138
sS'reminding'
p4582
I138
sS'neighborhood'
p4583
I135
sS'grabs'
p4584
I138
sS'yasssss'
p4585
I137
sS'burger'
p4586
I137
sS'zero'
p4587
I136
sS'perspective'
p4588
I138
sS'layover'
p4589
I138
sS'ribbon'
p4590
I138
sS'90s'
p4591
I137
sS'caffeine'
p4592
I138
sS'letzzzz'
p4593
I138
sS'abs'
p4594
I138
sS'coronet'
p4595
I138
sS'public'
p4596
I129
sS'tattoos'
p4597
I137
sS"c'mon"
p4598
I138
sS'oldie'
p4599
I134
sS'capacitor'
p4600
I138
sS'beachside'
p4601
I138
sS'bread\xe2\x80\x9d'
p4602
I138
sS'witcho'
p4603
I138
sS'yaaaaaa'
p4604
I138
sS'search'
p4605
I138
sS'bible'
p4606
I138
sS'jackie'
p4607
I138
sS'tiffany'
p4608
I138
sS'fwy'
p4609
I136
sS'90%'
p4610
I138
sS'narrow'
p4611
I138
sS'9mm'
p4612
I138
sS'drubnk'
p4613
I138
sS'"let\'s'
p4614
I138
sS'you\xe2\x80\x99re'
p4615
I138
sS'eye'
p4616
I137
sS'score'
p4617
I138
sS'destination'
p4618
I138
sS'texting'
p4619
I136
sS'two'
p4620
I127
sS'omgggg'
p4621
I137
sS'splash'
p4622
I138
sS"alfredo's"
p4623
I133
sS'ginobili'
p4624
I138
sS'achieving'
p4625
I138
sS'gaal'
p4626
I138
sS'digei.\xe2\x80\xa6'
p4627
I138
sS'candace'
p4628
I138
sS'landed'
p4629
I138
sS"ain't"
p4630
I130
sS"vic's"
p4631
I138
sS'particular'
p4632
I137
sS'that\xe2\x80\x9d'
p4633
I138
sS'month...i'
p4634
I138
sS'karaoke'
p4635
I138
sS'town'
p4636
I134
sS'none'
p4637
I137
sS'hour'
p4638
I118
sS"ny'er"
p4639
I138
sS'(belmont'
p4640
I134
sS'sucks'
p4641
I133
sS'dew'
p4642
I138
sS'den'
p4643
I138
sS'dazed'
p4644
I138
sS'dec'
p4645
I138
sS'def'
p4646
I133
sS'shark'
p4647
I137
sS'share'
p4648
I138
sS'socal'
p4649
I135
sS'lolol'
p4650
I137
sS'waaaalldennnnnnn'
p4651
I138
sS'numbers'
p4652
I137
sS'jackrabbit'
p4653
I138
sS'ughhhh'
p4654
I138
sS'needs'
p4655
I132
sS'awkward'
p4656
I137
sS"tweetin'"
p4657
I138
sS'acts'
p4658
I138
sS'larsen'
p4659
I135
sS'needd'
p4660
I138
sS"angelo's"
p4661
I136
sS'spins\xe2\x80\xa6'
p4662
I138
sS'petite'
p4663
I138
sS'^jjg'
p4664
I138
sS'rad_uhh'
p4665
I128
sS'blood'
p4666
I133
sS'coming'
p4667
I126
sS'g8'
p4668
I138
sS'response'
p4669
I137
sS"that'd"
p4670
I138
sS'tweeting'
p4671
I135
sS'dragon'
p4672
I138
sS'sect'
p4673
I138
sS'lmfaooooo'
p4674
I138
sS'pleasure'
p4675
I136
sS'playing'
p4676
I132
sS"that's"
p4677
I88
sS'bryden'
p4678
I135
sS'through'
p4679
I127
sS'suffer'
p4680
I138
sS'arrogant'
p4681
I138
sS'24'
p4682
I136
sS'messed'
p4683
I137
sS'26'
p4684
I137
sS'20'
p4685
I133
sS'21'
p4686
I134
sS'22'
p4687
I136
sS'adios'
p4688
I137
sS'thnx'
p4689
I138
sS'28'
p4690
I137
sS'29'
p4691
I136
sS'famished'
p4692
I138
sS'late'
p4693
I122
sS'pene'
p4694
I138
sS'lata'
p4695
I138
sS'pe\xc5\x88a'
p4696
I138
sS'sweatshop-'
p4697
I138
sS'at\xe2\x80\xa6'
p4698
I137
sS'2)'
p4699
I138
sS'dolls'
p4700
I138
sS'someone'
p4701
I111
sS'seeking'
p4702
I138
sS'\xe2\x9c\x8c\xe2\x9d\xa4'
p4703
I138
sS'bartending'
p4704
I138
sS'complain'
p4705
I136
sS'association'
p4706
I138
sS'easily'
p4707
I138
sS'rant'
p4708
I138
sS'drake'
p4709
I138
sS'ashes'
p4710
I137
sS'habits'
p4711
I138
sS'2b'
p4712
I138
sS'luke\xe2\x80\x9d'
p4713
I138
sS"6'5"
p4714
I138
sS'biscuits'
p4715
I138
sS'lativa'
p4716
I138
sS'everyone'
p4717
I117
sS'mental'
p4718
I138
sS'house'
p4719
I109
sS'energy'
p4720
I137
sS'hard'
p4721
I121
sS'idea'
p4722
I128
sS'banquet'
p4723
I138
sS'katrina'
p4724
I136
sS'fist'
p4725
I138
sS'portland'
p4726
I137
sS'flavio'
p4727
I138
sS'deals'
p4728
I138
sS'lovers'
p4729
I138
sS'acting'
p4730
I138
sS"they'll"
p4731
I136
sS'print'
p4732
I137
sS'quince'
p4733
I138
sS'wait<3333'
p4734
I138
sS'bully'
p4735
I138
sS'circumstance'
p4736
I138
sS'mariners!,90803\n487806731246772224,shannontucknies,2014-07-12'
p4737
I138
sS'motherfucker'
p4738
I137
sS'mmm'
p4739
I138
sS'disneyland'
p4740
I135
sS'members'
p4741
I138
sS'beginning'
p4742
I137
sS"'merica"
p4743
I138
sS'5sos'
p4744
I135
sS'holguin'
p4745
I138
sS'\xd0\x94\xd0\xb8\xd0\xb0\xd0\xbd\xd0\xbe\xd0\xb9'
p4746
I138
sS'w/paroled'
p4747
I138
sS'aka-'
p4748
I138
sS'dont'
p4749
I135
sS'done'
p4750
I119
sS'cups'
p4751
I138
sS'18"'
p4752
I138
sS'killin'
p4753
I138
sS'5th'
p4754
I136
sS'least'
p4755
I127
sS'paint'
p4756
I136
sS'leash'
p4757
I137
sS'185'
p4758
I138
sS'mama'
p4759
I138
sS'darkroom'
p4760
I138
sS'you\xe2\x80\x9d'
p4761
I136
sS'park'
p4762
I106
sS'dentist'
p4763
I138
sS'part'
p4764
I132
sS"...everyone's"
p4765
I138
sS'doctors'
p4766
I138
sS'believe'
p4767
I124
sS'4.2.\xe2\x80\x9d'
p4768
I138
sS'b'
p4769
I131
sS'playoffsssaa'
p4770
I138
sS'supposed'
p4771
I137
sS'skippy'
p4772
I138
sS'outting'
p4773
I138
sS'\xda\x86\xd9\x8a\xd8\xb2'
p4774
I138
sS'beach....tires'
p4775
I138
sS'outta'
p4776
I137
sS'nj??)'
p4777
I138
sS'fading'
p4778
I138
sS'mountain'
p4779
I138
sS'depending'
p4780
I137
sS'couch'
p4781
I134
sS'zucchini'
p4782
I138
sS'\xe2\x9b\xb3'
p4783
I138
sS'd00d'
p4784
I138
sS'eggs'
p4785
I136
sS'most'
p4786
I127
sS'significant'
p4787
I138
sS'ronny'
p4788
I138
sS'kc'
p4789
I137
sS'ko'
p4790
I138
sS'futbol'
p4791
I138
sS'year.\xe2\x80\xa6'
p4792
I138
sS'garth'
p4793
I138
sS'carne'
p4794
I138
sS'(4100'
p4795
I137
sS'finn'
p4796
I138
sS'installement'
p4797
I138
sS'fine'
p4798
I129
sS'find'
p4799
I122
sS'giant'
p4800
I137
sS'lebanese'
p4801
I133
sS'restaurant)'
p4802
I137
sS'nervous'
p4803
I134
sS'ruin'
p4804
I137
sS'poppin'
p4805
I137
sS'idiots'
p4806
I138
sS'8'
p4807
I131
sS'therefore'
p4808
I138
sS'luke'
p4809
I134
sS'collazo'
p4810
I138
sS'zapped'
p4811
I138
sS'breast'
p4812
I138
sS'blogging'
p4813
I138
sS'restart'
p4814
I138
sS'remove'
p4815
I137
sS'common'
p4816
I136
sS'vine'
p4817
I137
sS"l'marco"
p4818
I138
sS'retweet'
p4819
I135
sS'visiting'
p4820
I138
sS'inshallah'
p4821
I138
sS'please'
p4822
I122
sS'halves'
p4823
I138
sS'fans'
p4824
I130
sS'champagne'
p4825
I138
sS"tv's"
p4826
I138
sS'pisses'
p4827
I138
sS'nashville'
p4828
I138
sS'dipped'
p4829
I138
sS'pissed'
p4830
I136
sS'restaurant'
p4831
I94
sS'fan)'
p4832
I138
sS'annual'
p4833
I133
sS'foreign'
p4834
I138
sS'mad.\xe2\x80\x9d//yes'
p4835
I138
sS'point'
p4836
I130
sS'simple'
p4837
I137
sS'donkey'
p4838
I138
sS'newborn'
p4839
I138
sS'pm'
p4840
I138
sS'simply'
p4841
I137
sS'throughout'
p4842
I138
sS'expensive'
p4843
I138
sS'tgif'
p4844
I138
sS'mikey'
p4845
I138
sS'secret'
p4846
I137
sS'dropping'
p4847
I138
sS'ireland'
p4848
I138
sS'peppers'
p4849
I138
sS'doodles'
p4850
I134
sS'yogurtland'
p4851
I134
sS'meeting'
p4852
I135
sS'4'
p4853
I119
sS'vans'
p4854
I136
sS'gay'
p4855
I132
sS'gas'
p4856
I138
sS'understand'
p4857
I134
sS'whitney'
p4858
I137
sS'pierce'
p4859
I138
sS'metro'
p4860
I138
sS'solid'
p4861
I137
sS'bill'
p4862
I137
sS"f'n"
p4863
I138
sS'sexuality'
p4864
I138
sS'replaced'
p4865
I138
sS'mimosas'
p4866
I138
sS'fun'
p4867
I114
sS'2night'
p4868
I137
sS'lunchtime'
p4869
I138
sS'century'
p4870
I138
sS'ohhhh'
p4871
I138
sS'hahahahha'
p4872
I138
sS'elana'
p4873
I138
sS'puig'
p4874
I134
sS'get\xe2\x80\xa6'
p4875
I138
sS'play"'
p4876
I138
sS'itch'
p4877
I138
sS'yesterday'
p4878
I130
sS'moment'
p4879
I127
sS'\xd0\xb5\xd1\x81\xd0\xbb\xd0\xb8'
p4880
I138
sS'chachis'
p4881
I138
sS'rakim'
p4882
I138
sS'beanie'
p4883
I136
sS'whores'
p4884
I138
sS'craved'
p4885
I138
sS'howz'
p4886
I138
sS'spent'
p4887
I137
sS'howe'
p4888
I138
sS'y'
p4889
I138
sS'chemistry'
p4890
I138
sS'spend'
p4891
I134
sS'i\xe2\x80\x99m'
p4892
I138
sS'\xe2\x9d\xa4'
p4893
I130
sS'all\xe2\x80\xa6'
p4894
I138
sS'ldn'
p4895
I138
sS'shape'
p4896
I137
sS'ldw'
p4897
I138
sS'cayp'
p4898
I137
sS'humidty'
p4899
I138
sS'letting'
p4900
I137
sS'cut'
p4901
I136
sS'cus'
p4902
I138
sS'cup'
p4903
I135
sS'hated'
p4904
I138
sS'cuz'
p4905
I129
sS'cue'
p4906
I137
sS'kites'
p4907
I138
sS'homies'
p4908
I137
sS'snap'
p4909
I135
sS'easter'
p4910
I138
sS'excited'
p4911
I119
sS'hates'
p4912
I136
sS'hater'
p4913
I137
sS'bin'
p4914
I138
sS'big'
p4915
I115
sS'niggas*'
p4916
I138
sS'flashpants'
p4917
I138
sS"frankie's"
p4918
I138
sS'bit'
p4919
I136
sS'semi'
p4920
I138
sS'follows'
p4921
I135
sS'flux'
p4922
I138
sS'walrus'
p4923
I138
sS'google'
p4924
I138
sS'often'
p4925
I138
sS'absolutely'
p4926
I135
sS'lounge)'
p4927
I135
sS'back'
p4928
I84
sS'mirror'
p4929
I137
sS'lightning'
p4930
I138
sS'scale'
p4931
I138
sS"alex...who's"
p4932
I138
sS'good"'
p4933
I138
sS'sneakers'
p4934
I138
sS'fisting'
p4935
I138
sS'epic'
p4936
I138
sS'invade'
p4937
I138
sS'either'
p4938
I134
sS'patient'
p4939
I137
sS'remembered'
p4940
I138
sS'offenders'
p4941
I137
sS'continuing'
p4942
I138
sS'caffeinating'
p4943
I138
sS'from'
p4944
I43
sS'8pm'
p4945
I138
sS'yorba'
p4946
I138
sS'oatmeal'
p4947
I136
sS'beans'
p4948
I137
sS'bish'
p4949
I138
sS'irene_mar_mua'
p4950
I129
sS'hahahah'
p4951
I135
sS'idgi'
p4952
I138
sS'grammy'
p4953
I138
sS'aliens'
p4954
I138
sS'folsom'
p4955
I138
sS'lesson'
p4956
I137
sS'bankruptcy'
p4957
I138
sS'calming'
p4958
I138
sS'fives'
p4959
I138
sS'9000000'
p4960
I138
sS'forward'
p4961
I138
sS'bored'
p4962
I136
sS'crips'
p4963
I138
sS'invite'
p4964
I137
sS'toooo'
p4965
I137
sS'boys'
p4966
I118
sS'high\xe2\x80\x9d'
p4967
I138
sS'right\xe2\x80\x9d'
p4968
I138
sS'clips'
p4969
I138
sS"tomorrow's"
p4970
I136
sS"gallo's"
p4971
I138
sS'bikini\xe2\x80\xa6'
p4972
I138
sS'brits'
p4973
I138
sS'single'
p4974
I134
sS'cure'
p4975
I137
sS'curb'
p4976
I138
sS'(5200'
p4977
I125
sS'cafe'
p4978
I134
sS'truuu'
p4979
I138
sS'tweens'
p4980
I137
sS'eldo'
p4981
I138
sS'lyla'
p4982
I138
sS'mom...is'
p4983
I138
sS'lend'
p4984
I138
sS'favourite'
p4985
I138
sS'$10000'
p4986
I138
sS'prepared'
p4987
I137
sS'lens'
p4988
I137
sS'lent'
p4989
I137
sS'"normal."'
p4990
I138
sS'voting'
p4991
I138
sS'sam___sam'
p4992
I138
sS'cooked'
p4993
I137
sS'2009'
p4994
I138
sS'nooo'
p4995
I138
sS'jason'
p4996
I138
sS'cynthia'
p4997
I138
sS'week...smiles'
p4998
I138
sS'westwood'
p4999
I138
sS'zoek'
p5000
I138
sS'(knocking'
p5001
I138
sS"live...haven't"
p5002
I138
sS'helps'
p5003
I137
sS'brooms'
p5004
I138
sS'maryland'
p5005
I138
sS'gravel'
p5006
I137
sS'staffing'
p5007
I137
sS'11:30'
p5008
I137
sS'random'
p5009
I133
sS'area...area'
p5010
I138
sS'putting'
p5011
I135
sS'totalmente'
p5012
I138
sS'(boy'
p5013
I138
sS'entire'
p5014
I135
sS"joel's"
p5015
I138
sS'joes'
p5016
I127
sS'joep'
p5017
I138
sS'havent'
p5018
I138
sS'joey'
p5019
I138
sS'carly'
p5020
I138
sS'palapa'
p5021
I132
sS'est\xc3\xa1'
p5022
I138
sS'crop'
p5023
I138
sS'rivers'
p5024
I138
sS'rubios'
p5025
I138
sS'hemmings'
p5026
I138
sS'(pizza'
p5027
I138
sS'power'
p5028
I136
sS'chicago'
p5029
I137
sS'giving'
p5030
I131
sS'anthem'
p5031
I138
sS'kayaked'
p5032
I138
sS'practices'
p5033
I138
sS'payday'
p5034
I138
sS'cheeeeeeeeers'
p5035
I138
sS'walkabout'
p5036
I138
sS'drinkin...waitin'
p5037
I138
sS'body'
p5038
I137
sS'toast'
p5039
I138
sS'raccoons'
p5040
I138
sS'exchange'
p5041
I128
sS'me...i'
p5042
I138
sS'bachelor'
p5043
I138
sS'others'
p5044
I117
sS'sing'
p5045
I137
sS'irritating'
p5046
I137
sS'44%'
p5047
I137
sS'yoana'
p5048
I138
sS'talent'
p5049
I136
sS'30'
p5050
I134
sS'37'
p5051
I138
sS'alaska'
p5052
I138
sS'tantalum'
p5053
I138
sS'climb'
p5054
I138
sS'honor'
p5055
I137
sS'macchiato'
p5056
I138
sS'named'
p5057
I137
sS'canals=sad'
p5058
I138
sS'presidents'
p5059
I138
sS'17-21st'
p5060
I138
sS'names'
p5061
I138
sS'presidente'
p5062
I138
sS'patron'
p5063
I136
sS'clocking'
p5064
I138
sS'hahahhahaha'
p5065
I138
sS'\xe2\x99\xa5\xef\xb8\x8f'
p5066
I138
sS'chs'
p5067
I138
sS'chu'
p5068
I137
sS'themselves'
p5069
I138
sS'disgustingly'
p5070
I138
sS'payne'
p5071
I137
sS'train'
p5072
I138
sS'ashamed'
p5073
I138
sS'arranging'
p5074
I138
sS'horrible\xe2\x80\x9dso'
p5075
I138
sS'account'
p5076
I136
sS'britney'
p5077
I138
sS'f'
p5078
I137
sS'"\xe2\x80\x9d'
p5079
I138
sS'closing'
p5080
I138
sS"murphy's"
p5081
I138
sS'didnt'
p5082
I134
sS"be's"
p5083
I138
sS'beach\xe2\x80\xa6'
p5084
I138
sS'snacks'
p5085
I136
sS'high)'
p5086
I138
sS'reserves'
p5087
I138
sS'jaimiesullivan\xe2\x80\xa6'
p5088
I138
sS'friends...and'
p5089
I138
sS'tan'
p5090
I132
sS'lamb'
p5091
I138
sS'orziba'
p5092
I138
sS'democracy'
p5093
I138
sS'lame'
p5094
I137
sS'holds'
p5095
I138
sS'mullholand'
p5096
I135
sS'"girls'
p5097
I138
sS'regions'
p5098
I138
sS'lamp'
p5099
I133
sS'winners'
p5100
I138
sS'attachment'
p5101
I138
sS'anna\xe2\x80\x9d'
p5102
I138
sS'dinnnuuuh'
p5103
I138
sS'nips'
p5104
I138
sS'seasons!\xe2\x80\x9d'
p5105
I138
sS'falta'
p5106
I138
sS'autobiography'
p5107
I138
sS'fran'
p5108
I137
sS'waters'
p5109
I137
sS"jill's"
p5110
I138
sS'billings'
p5111
I138
sS'cuddling'
p5112
I138
sS'bing'
p5113
I138
sS'chief'
p5114
I138
sS'furious'
p5115
I138
sS'dinner"'
p5116
I138
sS'addiction'
p5117
I138
sS'mustache'
p5118
I135
sS'meter'
p5119
I137
sS'macklemore'
p5120
I137
sS'dt'
p5121
I138
sS'galaxy'
p5122
I138
sS'bunch'
p5123
I138
sS'le'
p5124
I136
sS'lb'
p5125
I129
sS'la'
p5126
I68
sS'lo'
p5127
I137
sS"'real'"
p5128
I138
sS'winning'
p5129
I137
sS'swiiing'
p5130
I138
sS'<'
p5131
I137
sS'dad'
p5132
I127
sS'serra'
p5133
I138
sS'valtari'
p5134
I138
sS'dan'
p5135
I138
sS'spell'
p5136
I138
sS'dat'
p5137
I131
sS'mention'
p5138
I137
sS'day'
p5139
I42
sS'february'
p5140
I137
sS'warned'
p5141
I138
sS'tues'
p5142
I138
sS'arlene'
p5143
I138
sS'pug/'
p5144
I138
sS'*sigh*'
p5145
I137
sS'covina'
p5146
I136
sS'strip'
p5147
I138
sS'huntington'
p5148
I138
sS'sexual'
p5149
I138
sS'advice.so'
p5150
I138
sS'butt\xe2\x80\x9d'
p5151
I138
sS'mate'
p5152
I131
sS'\xd1\x81'
p5153
I138
sS'ref'
p5154
I138
sS'math'
p5155
I136
sS'harold'
p5156
I137
sS'jessica'
p5157
I134
sS'peace-filled'
p5158
I138
sS"'gravity'"
p5159
I138
sS'payroll'
p5160
I138
sS'funyuns'
p5161
I138
sS'que'
p5162
I135
sS'retriever'
p5163
I138
sS'"can'
p5164
I138
sS'backwards'
p5165
I138
sS'04:32:46.0,33.7601168,-118.1412108,5773,yessssssssss'
p5166
I138
sS'you\xe2\x80\x99ve'
p5167
I138
sS'\xd0\xbc\xd0\xb5\xd0\xbd\xd1\x8f'
p5168
I138
sS'steal'
p5169
I138
sS'hollister'
p5170
I138
sS'"car'
p5171
I138
sS'waitress'
p5172
I137
sS'smokehouse'
p5173
I106
sS'cokedogg'
p5174
I138
sS'justine'
p5175
I137
sS'whoop'
p5176
I133
sS'bleeps'
p5177
I138
sS'\xd8\xa8\xd8\xb1\xda\xaf\xd8\xb1'
p5178
I138
sS'ancient'
p5179
I138
sS'sadly'
p5180
I137
sS'monkey'
p5181
I138
sS'uva'
p5182
I138
sS'elison'
p5183
I135
sS'ripples'
p5184
I117
sS'vagina'
p5185
I137
sS'palestine'
p5186
I138
sS'jingle'
p5187
I138
sS'messing'
p5188
I137
sS'nut'
p5189
I138
sS'gear'
p5190
I136
sS'any?\xe2\x98\xba\xef\xb8\x8f'
p5191
I138
sS'bulldog'
p5192
I137
sS'nobody'
p5193
I136
sS'intentional'
p5194
I138
sS'wishlist'
p5195
I138
sS'ipad'
p5196
I138
sS'loved'
p5197
I134
sS'eastcoast'
p5198
I138
sS"rosie's"
p5199
I82
sS'loves'
p5200
I136
sS"powell's"
p5201
I129
sS'comfortable'
p5202
I138
sS'spicy'
p5203
I138
sS'have'
p5204
I39
sS'apparently'
p5205
I134
sS'32"'
p5206
I138
sS'min'
p5207
I136
sS'bakery'
p5208
I138
sS'parks'
p5209
I138
sS'mix'
p5210
I133
sS'unless'
p5211
I136
sS'hankering'
p5212
I138
sS'pausing'
p5213
I138
sS'eight'
p5214
I138
sS'compleanno'
p5215
I138
sS'interning'
p5216
I138
sS'"running"'
p5217
I138
sS'request'
p5218
I136
sS'rendezvous'
p5219
I138
sS'skinny'
p5220
I138
sS'normally'
p5221
I136
sS'araujo'
p5222
I138
sS'sinhigh'
p5223
I138
sS'catalina'
p5224
I137
sS'kite'
p5225
I138
sS'text'
p5226
I127
sS'maris\xe2\x9d\xa4\xef\xb8\x8f'
p5227
I138
sS'staff'
p5228
I138
sS'coloring'
p5229
I138
sS'sparks'
p5230
I137
sS'clapps'
p5231
I138
sS'team)'
p5232
I121
sS'pull'
p5233
I138
sS'beat'
p5234
I134
sS'beau'
p5235
I138
sS'photography'
p5236
I138
sS'latimer'
p5237
I138
sS'coworker'
p5238
I138
sS'stripes'
p5239
I138
sS'bear'
p5240
I132
sS'squad\xe2\x80\x9d'
p5241
I138
sS'halo'
p5242
I138
sS's_orozco21'
p5243
I138
sS'\xe2\x9a\xa1\xef\xb8\x8f'
p5244
I138
sS"toni's"
p5245
I138
sS'bar\xe2\x80\xa6'
p5246
I138
sS'doobie'
p5247
I138
sS'ganas'
p5248
I138
sS"won't"
p5249
I131
sS'sunchoke'
p5250
I138
sS'national'
p5251
I137
sS'featuring\xe2\x80\xa6'
p5252
I138
sS'\xe2\x98\x80\xef\xb8\x8frikkibarton'
p5253
I138
sS'attempting'
p5254
I137
sS'pattern'
p5255
I137
sS'blatt'
p5256
I138
sS'ralph'
p5257
I138
sS'purses'
p5258
I138
sS'icecream'
p5259
I138
sS'\xd9\x85\xd8\xa7'
p5260
I138
sS'routine'
p5261
I138
sS'progress'
p5262
I138
sS"today?!?':("
p5263
I138
sS'superior'
p5264
I138
sS'2pm'
p5265
I138
sS'joke'
p5266
I135
sS'taking'
p5267
I127
sS'agree'
p5268
I138
sS'fulfilled'
p5269
I138
sS'swim'
p5270
I133
sS'conquered'
p5271
I138
sS'passing'
p5272
I138
sS'retweets'
p5273
I138
sS'glorious'
p5274
I138
sS'aquarium'
p5275
I137
sS'comment'
p5276
I138
sS'relevant'
p5277
I138
sS'youuuuuuuu'
p5278
I138
sS'denim'
p5279
I138
sS'tv-had'
p5280
I138
sS'laugh'
p5281
I132
sS'manhood'
p5282
I138
sS'bowtie_bobby'
p5283
I138
sS'tremendous'
p5284
I138
sS"it's"
p5285
I37
sS'muddy'
p5286
I138
sS'\xd0\x9d\xd0\xb0\xd1\x88\xd0\xbb\xd0\xb0'
p5287
I138
sS'exhausted'
p5288
I137
sS'certain'
p5289
I138
sS"it'd"
p5290
I138
sS'cop'
p5291
I138
sS'finished'
p5292
I133
sS'"end'
p5293
I138
sS'covered'
p5294
I138
sS'blackouts'
p5295
I138
sS'homes'
p5296
I137
sS'bye'
p5297
I136
sS'everrrrr'
p5298
I138
sS'nd'
p5299
I138
sS'appearance'
p5300
I138
sS'hahahahahahah'
p5301
I137
sS'value'
p5302
I138
sS'promotes'
p5303
I138
sS'stalin'
p5304
I138
sS'jess_colo18'
p5305
I136
sS'frustrating'
p5306
I137
sS'vans)'
p5307
I138
sS'aw'
p5308
I138
sS'almost'
p5309
I129
sS'crodetabeta'
p5310
I138
sS'helped'
p5311
I138
sS'aggressiveness'
p5312
I138
sS')'
p5313
I131
sS'casualty'
p5314
I138
sS'hendricks'
p5315
I138
sS'ochoa'
p5316
I135
sS'again'
p5317
I110
sS'samantha'
p5318
I137
sS'ios'
p5319
I138
sS'fucken'
p5320
I136
sS'takers'
p5321
I138
sS'fucked'
p5322
I134
sS'croissants'
p5323
I137
sS'retard'
p5324
I138
sS'center'
p5325
I136
sS'antonio'
p5326
I138
sS'thought'
p5327
I127
sS'oops'
p5328
I136
sS'my\xe2\x80\xa6'
p5329
I138
sS'latest'
p5330
I138
sS'nails)'
p5331
I138
sS'executive'
p5332
I137
sS'aaarrrrr'
p5333
I138
sS'seats'
p5334
I138
sS'ashy'
p5335
I138
sS'raves'
p5336
I138
sS'quiero'
p5337
I136
sS'more\xe2\x80\x9d'
p5338
I138
sS'add'
p5339
I135
sS'ohhh'
p5340
I136
sS'articles'
p5341
I138
sS'esas'
p5342
I138
sS'dryer'
p5343
I138
sS'beach...it'
p5344
I138
sS'rollerblading'
p5345
I138
sS'insert'
p5346
I138
sS'x-mas'
p5347
I138
sS'like'
p5348
I35
sS'success'
p5349
I134
sS'\xd0\xba\xd0\xbe\xd1\x82\xd0\xbe\xd1\x80\xd1\x83\xd1\x8e'
p5350
I138
sS'journalism'
p5351
I138
sS'heee'
p5352
I138
sS'heeee'
p5353
I138
sS'works'
p5354
I135
sS'soft'
p5355
I138
sS'italian'
p5356
I127
sS'towels'
p5357
I138
sS'alive'
p5358
I136
sS'hair'
p5359
I126
sS':-\\'
p5360
I138
sS'happens'
p5361
I135
sS'est'
p5362
I138
sS'pues'
p5363
I138
sS'terri'
p5364
I138
sS'with!\xe2\x80\x9d'
p5365
I138
sS'chainz'
p5366
I138
sS'm\xc3\xa1s'
p5367
I137
sS'pepper'
p5368
I137
sS'grrr'
p5369
I138
sS'host'
p5370
I138
sS'kristin'
p5371
I138
sS'((('
p5372
I138
sS'freeeee'
p5373
I138
sS'yaaaaaaaaaaaa'
p5374
I138
sS'waving'
p5375
I138
sS'about'
p5376
I63
sS':-)'
p5377
I123
sS'actual'
p5378
I138
sS':-/'
p5379
I134
sS'6am'
p5380
I138
sS'introduces'
p5381
I138
sS'blessings'
p5382
I138
sS'\xd0\xbc\xd0\xb0\xd0\xbb\xd1\x8c\xd1\x87\xd0\xb8\xd0\xba\xd0\xb0'
p5383
I138
sS'of\xe2\x80\xa6'
p5384
I138
sS'playoff'
p5385
I137
sS'doesnt'
p5386
I138
sS'termino'
p5387
I136
sS'female'
p5388
I136
sS'photocre'
p5389
I138
sS'wack'
p5390
I136
sS'1985'
p5391
I137
sS'legends'
p5392
I68
sS'waco'
p5393
I134
sS'vegetables'
p5394
I137
sS'biggest'
p5395
I135
sS'buy'
p5396
I130
sS'bus'
p5397
I138
sS'562'
p5398
I136
sS'but'
p5399
I48
sS'caitlin'
p5400
I138
sS'reminds'
p5401
I138
sS'bum'
p5402
I137
sS'editing'
p5403
I137
sS'memphis'
p5404
I138
sS'bud'
p5405
I137
sS'wise'
p5406
I138
sS'glory'
p5407
I137
sS'wish'
p5408
I122
sS'flip'
p5409
I137
sS'8/8'
p5410
I138
sS'minutes'
p5411
I132
sS'sicky'
p5412
I137
sS'rosebowl'
p5413
I138
sS'pic'
p5414
I131
sS'pie'
p5415
I133
sS'verde/conant/hackett'
p5416
I138
sS'pix'
p5417
I137
sS'mash'
p5418
I138
sS'mcginley'
p5419
I137
sS'hannah_kirkelie'
p5420
I138
sS'balas'
p5421
I138
sS'baaaaaay'
p5422
I138
sS'45'
p5423
I138
sS'oak'
p5424
I138
sS'40'
p5425
I137
sS'jeeps'
p5426
I138
sS'forgivable'
p5427
I138
sS'pi\xc3\xb1atas'
p5428
I138
sS'85'
p5429
I138
sS'dresses'
p5430
I138
sS'christiano'
p5431
I138
sS'\xe2\x80\xa2'
p5432
I133
sS'booboo'
p5433
I138
sS'christians'
p5434
I137
sS'goin'
p5435
I138
sS'jeep"'
p5436
I138
sS'\xe2\x80\x94'
p5437
I125
sS'lactose'
p5438
I138
sS'yell'
p5439
I138
sS'parole'
p5440
I138
sS'baked'
p5441
I138
sS'sleep'
p5442
I116
sS'6-28-14'
p5443
I138
sS'ridiculous'
p5444
I138
sS'hate'
p5445
I105
sS'paris'
p5446
I136
sS'tweet'
p5447
I122
sS'overcast...rt'
p5448
I138
sS'under'
p5449
I134
sS'pride'
p5450
I136
sS'down...the'
p5451
I138
sS'stanton'
p5452
I138
sS'50mb'
p5453
I138
sS'lololol'
p5454
I138
sS'every'
p5455
I120
sS'jack'
p5456
I133
sS'risp'
p5457
I138
sS'mw3'
p5458
I138
sS'school'
p5459
I122
sS'bestfriend'
p5460
I137
sS'cause'
p5461
I131
sS'"don\'t'
p5462
I138
sS"someone's\xe2\x80\xa6"
p5463
I138
sS'enjoy'
p5464
I132
sS'fucing'
p5465
I138
sS'nail'
p5466
I129
sS'street'
p5467
I57
sS'w/hot'
p5468
I138
sS'friendships'
p5469
I138
sS'westcoast'
p5470
I138
sS'blue'
p5471
I132
sS'hide'
p5472
I137
sS'christ'
p5473
I136
sS'poison'
p5474
I136
sS'blonde...until'
p5475
I138
sS'mischievous'
p5476
I138
sS'supplies'
p5477
I138
sS'disney'
p5478
I137
sS'pats'
p5479
I137
sS'kicked'
p5480
I137
sS'yanks'
p5481
I138
sS'studio'
p5482
I137
sS'path'
p5483
I137
sS'call-no'
p5484
I138
sS'forum'
p5485
I135
sS'auction'
p5486
I138
sS'leaves'
p5487
I138
sS'changed'
p5488
I133
sS'frenchies_fries'
p5489
I138
sS'chateau'
p5490
I137
sS'changes'
p5491
I137
sS'julia'
p5492
I135
sS'feelings'
p5493
I138
sS'patience'
p5494
I138
sS'anyhow'
p5495
I138
sS'would'
p5496
I98
sS'm)'
p5497
I138
sS'chargers'
p5498
I135
sS'preview'
p5499
I133
sS':-*'
p5500
I138
sS'breathe'
p5501
I138
sS'dressing'
p5502
I138
sS'muse'
p5503
I137
sS'phone'
p5504
I122
sS'boomer'
p5505
I138
sS'off)'
p5506
I138
sS'tampa'
p5507
I138
sS'must'
p5508
I129
sS'me'
p5509
I25
sS'9-0'
p5510
I138
sS'mf'
p5511
I136
sS'join'
p5512
I135
sS'mc'
p5513
I138
sS'9-6'
p5514
I138
sS'tb'
p5515
I138
sS'mi'
p5516
I135
sS'mh'
p5517
I137
sS'happiest'
p5518
I138
sS'norm'
p5519
I138
sS'ms'
p5520
I135
sS'mr'
p5521
I134
sS'my'
p5522
I9
sS'christ."'
p5523
I138
sS'estate'
p5524
I135
sS'paparazzi'
p5525
I138
sS'times'
p5526
I129
sS'ceremony'
p5527
I138
sS'end'
p5528
I121
sS'of...day'
p5529
I138
sS'(where'
p5530
I138
sS'buzzin'
p5531
I137
sS'badly'
p5532
I138
sS'description'
p5533
I138
sS'mess'
p5534
I135
sS'insecure'
p5535
I138
sS'jumping'
p5536
I137
sS'salsa'
p5537
I138
sS'mesa'
p5538
I136
sS'select-o-matic'
p5539
I138
sS'parallel'
p5540
I138
sS'croissant'
p5541
I137
sS'lyssahh_xo'
p5542
I138
sS'upside'
p5543
I138
sS'jungle'
p5544
I137
sS'enter'
p5545
I138
sS'sock...it'
p5546
I138
sS'chungster'
p5547
I137
sS'hat...,90803\n487814282755579904,shannontucknies,2014-07-12'
p5548
I138
sS'over'
p5549
I94
sS'expects'
p5550
I138
sS'jerry'
p5551
I138
sS'london'
p5552
I137
sS'crumbs'
p5553
I138
sS'carnal'
p5554
I138
sS'blond/blue'
p5555
I138
sS'ima'
p5556
I137
sS'brinner'
p5557
I138
sS'bishes'
p5558
I138
sS'expectations'
p5559
I138
sS'destroyed'
p5560
I138
sS'imp'
p5561
I138
sS'fade'
p5562
I138
sS'imy'
p5563
I137
sS'"nonna"'
p5564
I138
sS'check\xe2\x80\xa6'
p5565
I138
sS'manicure'
p5566
I138
sS'nintendogs'
p5567
I138
sS'starbizzle'
p5568
I138
sS'shadows'
p5569
I138
sS'alex'
p5570
I134
sS'potatoes'
p5571
I137
sS'newport'
p5572
I138
sS'victory'
p5573
I138
sS'each'
p5574
I135
sS'wheel'
p5575
I138
sS'celebrating'
p5576
I131
sS'yvette'
p5577
I138
sS'partyyyyy'
p5578
I138
sS'ghosts'
p5579
I137
sS'saturday'
p5580
I127
sS'gon'
p5581
I138
sS'driving'
p5582
I131
sS'god'
p5583
I116
sS'motel'
p5584
I137
sS'mayday'
p5585
I138
sS'heavenly'
p5586
I135
sS'got'
p5587
I70
sS'you\xe2\x9d\xa4\xef\xb8\x8f\xe2\x9d\xa4\xef\xb8\x8f'
p5588
I138
sS'"discover"'
p5589
I138
sS'free'
p5590
I122
sS'icky'
p5591
I138
sS'evil'
p5592
I138
sS'wanted'
p5593
I131
sS'rigo'
p5594
I138
sS'turntables'
p5595
I138
sS'days'
p5596
I117
sS'priorities'
p5597
I138
sS'filter'
p5598
I136
sS'heck'
p5599
I134
sS'onto'
p5600
I138
sS'already'
p5601
I128
sS'researcher'
p5602
I138
sS'encouraging'
p5603
I138
sS'hearing'
p5604
I137
sS'fantasy'
p5605
I135
sS'adopted'
p5606
I138
sS'awoke'
p5607
I138
sS'sober'
p5608
I135
sS'titled'
p5609
I138
sS'mercury'
p5610
I138
sS'toy'
p5611
I136
sS'discotheque'
p5612
I138
sS'top'
p5613
I130
sS'nutttttzz'
p5614
I138
sS'confirming'
p5615
I137
sS'merica'
p5616
I137
sS'ton'
p5617
I138
sS'too'
p5618
I61
sS'tom'
p5619
I137
sS'rockin'
p5620
I138
sS'toe'
p5621
I137
sS'hangout'
p5622
I137
sS'tooo'
p5623
I138
sS'serve'
p5624
I136
sS'took'
p5625
I126
sS'shoppe-belmont'
p5626
I138
sS'"good'
p5627
I138
sS'appetizer'
p5628
I138
sS'tourists'
p5629
I138
sS'classes'
p5630
I137
sS'expo'
p5631
I138
sS'stacey'
p5632
I138
sS'bridge'
p5633
I138
sS'rad'
p5634
I136
sS'fashion'
p5635
I134
sS'ran'
p5636
I133
sS'chize'
p5637
I138
sS'talking'
p5638
I128
sS'lbc'
p5639
I74
sS'rap'
p5640
I138
sS'from...wow'
p5641
I138
sS'kiteboard'
p5642
I136
sS'-'
p5643
I47
sS'contact'
p5644
I138
sS'derek'
p5645
I136
sS'laughed'
p5646
I136
sS"girl's"
p5647
I138
sS'shizz'
p5648
I135
sS'though'
p5649
I119
sS'joog'
p5650
I138
sS'bsb'
p5651
I138
sS'prostitute'
p5652
I138
sS'tweeter.rarely'
p5653
I138
sS'flop'
p5654
I138
sS'flow'
p5655
I138
sS'freeway'
p5656
I138
sS'yelp!"'
p5657
I138
sS'shooing'
p5658
I138
sS'cambio'
p5659
I138
sS'b&w'
p5660
I137
sS'pineapple'
p5661
I138
sS'entertaining'
p5662
I138
sS'pks'
p5663
I138
sS'columbian'
p5664
I138
sS'inspire'
p5665
I137
sS'pope'
p5666
I137
sS'queen'
p5667
I134
sS'talkers'
p5668
I138
sS'pops'
p5669
I138
sS'radio'
p5670
I135
sS'earth'
p5671
I136
sS'dove'
p5672
I138
sS'kale'
p5673
I138
sS'sunsets'
p5674
I138
sS'btw'
p5675
I108
sS'delays'
p5676
I138
sS'ocd'
p5677
I138
sS'charbroiler'
p5678
I138
sS'snickers'
p5679
I138
sS'gods'
p5680
I138
sS'chipotle'
p5681
I138
sS'sunglasses'
p5682
I138
sS'\xd0\xbe\xd1\x82\xd0\xbd\xd0\xbe\xd1\x88\xd0\xb5\xd0\xbd\xd0\xb8\xd1\x8f'
p5683
I138
sS'uhhh'
p5684
I138
sS'watch'
p5685
I112
sS'fluid'
p5686
I138
sS'wedding'
p5687
I133
sS'pugs'
p5688
I138
sS'countries'
p5689
I138
sS'goodbyes'
p5690
I138
sS'oasis)'
p5691
I138
sS"'moral'"
p5692
I138
sS'twice'
p5693
I138
sS'shots'
p5694
I130
sS'cozies'
p5695
I138
sS'swept'
p5696
I138
sS'seabass'
p5697
I138
sS'liquor'
p5698
I136
sS'resist'
p5699
I138
sS'x\xe2\x80\x9d'
p5700
I138
sS'playtime'
p5701
I138
sS'player"'
p5702
I138
sS'face*'
p5703
I138
sS'mug'
p5704
I138
sS'breeezybby'
p5705
I138
sS'mua'
p5706
I95
sS'"on'
p5707
I137
sS'hopefully'
p5708
I134
sS'ishh'
p5709
I138
sS'*collapses*'
p5710
I138
sS'lupe'
p5711
I138
sS'weak'
p5712
I137
sS'however'
p5713
I138
sS'boss'
p5714
I132
sS'nightmares'
p5715
I138
sS'wear'
p5716
I132
sS'news'
p5717
I133
sS'improve'
p5718
I136
sS'goddess'
p5719
I137
sS'fault'
p5720
I133
sS'jelly'
p5721
I138
sS'players'
p5722
I138
sS'games'
p5723
I132
sS'bet'
p5724
I136
sS'faces'
p5725
I137
sS'threads'
p5726
I138
sS'qotn3'
p5727
I138
sS'snores'
p5728
I138
sS'bathroom'
p5729
I136
sS'seein'
p5730
I138
sS'beef'
p5731
I138
sS'"you'
p5732
I137
sS'binge'
p5733
I138
sS'been'
p5734
I86
sS'beer'
p5735
I124
sS'spread'
p5736
I138
sS'"stephi'
p5737
I138
sS'drugs'
p5738
I138
sS'yessssssssssssssss'
p5739
I138
sS'xxx'
p5740
I138
sS'catch'
p5741
I131
sS'carryout'
p5742
I138
sS'kentucky'
p5743
I138
sS'n'
p5744
I126
sS'dept'
p5745
I137
sS'stopping'
p5746
I137
sS'8.1m'
p5747
I138
sS'behavior?---new'
p5748
I138
sS'"i'
p5749
I137
sS'heart"'
p5750
I138
sS'suggest'
p5751
I138
sS'w/eric'
p5752
I137
sS'niko'
p5753
I138
sS'ohhhhh'
p5754
I138
sS'shawty'
p5755
I138
sS'pick'
p5756
I126
sS'"traitor"'
p5757
I138
sS'coachella'
p5758
I138
sS'characters'
p5759
I138
sS'angle'
p5760
I138
sS'mentioning'
p5761
I138
sS'bffffffs'
p5762
I138
sS"mother's"
p5763
I138
sS'uploading'
p5764
I138
sS'usando'
p5765
I138
sS'ocean'
p5766
I73
sS'greatest'
p5767
I132
sS'mother'
p5768
I136
sS'hearts'
p5769
I137
sS'alabama'
p5770
I138
sS'home.w/'
p5771
I138
sS'dads'
p5772
I138
sS'vic'
p5773
I138
sS'minded.\xe2\x80\x9d'
p5774
I138
sS'laptop'
p5775
I138
sS'bruise'
p5776
I138
sS'b\xc2\xa7w'
p5777
I138
sS'\xd1\x85\xd1\x83\xd1\x8f\xd1\x80\xd0\xb8\xd1\x82\xd1\x8c'
p5778
I138
sS'(long'
p5779
I20
sS'scorpio'
p5780
I138
sS'cherry'
p5781
I138
sS'mzanzinger'
p5782
I134
sS'greatly'
p5783
I138
sS'brainstorming'
p5784
I138
sS'5k'
p5785
I137
sS'starbucks)'
p5786
I134
sS'apart'
p5787
I138
sS'joy\xe2\x80\xa6'
p5788
I138
sS'gave'
p5789
I134
sS'casting'
p5790
I138
sS'longgggg'
p5791
I138
sS'ninjas'
p5792
I138
sS'bands'
p5793
I138
sS'breaks'
p5794
I137
sS'$1550'
p5795
I138
sS'rumor'
p5796
I138
sS'\xd0\xbc\xd0\xb3\xd0\xbd\xd0\xbe\xd0\xb2\xd0\xb5\xd0\xbd\xd0\xbd\xd0\xbe'
p5797
I138
sS'melting'
p5798
I138
sS'gift'
p5799
I134
sS'51'
p5800
I137
sS'50'
p5801
I133
sS'mexis'
p5802
I138
sS'boyfrands'
p5803
I138
sS'hung'
p5804
I137
sS'amor'
p5805
I138
sS'successfully'
p5806
I138
sS'emails'
p5807
I138
sS'wtaf'
p5808
I138
sS'2:20'
p5809
I138
sS'theyre'
p5810
I138
sS'lose...we'
p5811
I138
sS"fern's"
p5812
I138
sS'crysmyass31492'
p5813
I138
sS'f\xc3\xbatbol'
p5814
I138
sS'ice'
p5815
I134
sS'everything'
p5816
I120
sS'intolerant'
p5817
I138
sS'lovelyone234'
p5818
I138
sS'christmas'
p5819
I125
sS'overrated'
p5820
I138
sS'amazingness'
p5821
I138
sS'b\xc3\xa6'
p5822
I137
sS'7-eleven'
p5823
I134
sS'kodjoe'
p5824
I138
sS'cory'
p5825
I138
sS'dinner'
p5826
I112
sS'plus'
p5827
I136
sS'misma'
p5828
I138
sS'curry'
p5829
I137
sS'duke'
p5830
I138
sS'aha'
p5831
I137
sS'froze'
p5832
I137
sS'victorc562'
p5833
I138
sS'bath'
p5834
I138
sS'laborers'
p5835
I138
sS'rounds'
p5836
I138
sS'eariy'
p5837
I138
sS'free-market'
p5838
I138
sS'ekcorrigan'
p5839
I136
sS'reptilia'
p5840
I138
sS'class'
p5841
I132
sS'gig'
p5842
I138
sS'gin'
p5843
I138
sS'"prime"'
p5844
I138
sS'head'
p5845
I130
sS'\xe2\x9c\x8c\xef\xb8\x8f\xe2\x80\x9d'
p5846
I138
sS'fragrance'
p5847
I138
sS'tavern\xe2\x80\xa6'
p5848
I138
sS'jaimiesullivan'
p5849
I130
sS'6'
p5850
I113
sS'\xd9\x83\xd9\x89'
p5851
I138
sS"jessiedeexx's"
p5852
I138
sS'heat'
p5853
I135
sS'hear'
p5854
I132
sS'refreshing'
p5855
I138
sS'sweater!jk'
p5856
I138
sS'hmm'
p5857
I138
sS'adore'
p5858
I138
sS'specials'
p5859
I137
sS'trio'
p5860
I137
sS'show...on'
p5861
I138
sS'sometime'
p5862
I138
sS"legend's"
p5863
I138
sS'haha\xe2\x80\x9dseriously'
p5864
I138
sS'annoying'
p5865
I136
sS'trip'
p5866
I131
sS'nj'
p5867
I138
sS'tix'
p5868
I135
sS'no'
p5869
I60
sS'marys'
p5870
I138
sS'na'
p5871
I137
sS'nb'
p5872
I138
sS'when'
p5873
I49
sS'til'
p5874
I137
sS'tooooo'
p5875
I137
sS'setting'
p5876
I137
sS'np'
p5877
I137
sS'tie'
p5878
I138
sS'tia'
p5879
I138
sS"van's"
p5880
I138
sS'picture'
p5881
I134
sS'football'
p5882
I129
sS'flushes'
p5883
I138
sS'5625085014'
p5884
I138
sS'younger'
p5885
I134
sS'faster'
p5886
I138
sS'love\xe2\x80\x9d'
p5887
I138
sS"n'"
p5888
I138
sS'serious'
p5889
I135
sS'wrenching!!!!\xe2\x80\x9d'
p5890
I138
sS':))'
p5891
I138
sS'neighbors'
p5892
I135
sS'ron'
p5893
I138
sS'rob'
p5894
I138
sS'acrylics'
p5895
I138
sS'roe'
p5896
I134
sS'roy'
p5897
I137
sS'comments'
p5898
I138
sS'ros'
p5899
I138
sS'cuckolds'
p5900
I138
sS'empathize'
p5901
I138
sS'recharge'
p5902
I138
sS'trademarked'
p5903
I138
sS':(((('
p5904
I137
sS'*lays'
p5905
I138
sS'advantage'
p5906
I138
sS'you\xe2\x80\x9dkay'
p5907
I138
sS'chapters'
p5908
I138
sS'5/10'
p5909
I138
sS'cool'
p5910
I123
sS'post-parade'
p5911
I138
sS'clouds'
p5912
I137
sS'(4708'
p5913
I128
sS'level'
p5914
I138
sS'yohana'
p5915
I138
sS'philippines'
p5916
I138
sS'peeps'
p5917
I136
sS'brother'
p5918
I131
sS'cloudy'
p5919
I137
sS'quick'
p5920
I135
sS'hollaaaa'
p5921
I138
sS'guzzling'
p5922
I138
sS'drinko'
p5923
I138
sS'says'
p5924
I134
sS'trend'
p5925
I138
sS'howahhhhyaaaaaaa'
p5926
I138
sS'am....where'
p5927
I138
sS'bake'
p5928
I138
sS'drinks'
p5929
I131
sS'..on'
p5930
I138
sS'stands'
p5931
I138
sS'25mb'
p5932
I138
sS'feistyt'
p5933
I138
sS'goes'
p5934
I130
sS"kendrick's"
p5935
I138
sS'w/this'
p5936
I138
sS'corn'
p5937
I138
sS'baserunning'
p5938
I138
sS'wordcamp'
p5939
I138
sS'slaying'
p5940
I138
sS'bromances'
p5941
I138
sS'drink"'
p5942
I138
sS'water'
p5943
I124
sS'entertain'
p5944
I137
sS'baseball'
p5945
I136
sS'groups'
p5946
I138
sS'amandering'
p5947
I138
sS'aunque'
p5948
I138
sS'preorder'
p5949
I138
sS'f***ing'
p5950
I138
sS'healthy'
p5951
I131
sS'angle-worm'
p5952
I138
sS'guilty'
p5953
I138
sS'6.\xe2\x80\x9d'
p5954
I138
sS'beautiful"'
p5955
I138
sS'shangela'
p5956
I138
sS'weird'
p5957
I130
sS'ahhahahahahahahah'
p5958
I138
sS'choose.and'
p5959
I138
sS'"mr'
p5960
I138
sS'bribery'
p5961
I138
sS'candice'
p5962
I138
sS'jose'
p5963
I138
sS'1st'
p5964
I107
sS'touchdown'
p5965
I136
sS'"my'
p5966
I138
sS'alamitos'
p5967
I138
sS'sports'
p5968
I93
sS'andy'
p5969
I138
sS'iphone'
p5970
I126
sS'memory'
p5971
I137
sS'msg'
p5972
I138
sS'australian'
p5973
I138
sS'prep'
p5974
I135
sS'today'
p5975
I54
sS'raspiest'
p5976
I138
sS'chocolate'
p5977
I130
sS'teaser'
p5978
I138
sS'roscoe'
p5979
I138
sS'judy'
p5980
I138
sS'unruly'
p5981
I138
sS"bb's"
p5982
I138
sS'performer'
p5983
I138
sS'figure'
p5984
I135
sS'dropped'
p5985
I136
sS'counting'
p5986
I137
sS'1'
p5987
I120
sS'wooooow'
p5988
I138
sS'flavored'
p5989
I138
sS'levy'
p5990
I138
sS'birthdai'
p5991
I138
sS'teleport'
p5992
I138
sS'4th'
p5993
I115
sS'tipped'
p5994
I138
sS'waves?\xe2\x80\x9d'
p5995
I138
sS"countin'"
p5996
I138
sS'eighth'
p5997
I138
sS'metalornothing'
p5998
I138
sS'muggy'
p5999
I138
sS'better.\xe2\x80\x9d'
p6000
I138
sS'tbh'
p6001
I137
sS'2day-'
p6002
I138
sS'branchez'
p6003
I138
sS'rollin'
p6004
I138
sS'hat.\xe2\x80\x9d'
p6005
I138
sS'food'
p6006
I119
sS'midnight'
p6007
I134
sS'blocked'
p6008
I138
sS"he's"
p6009
I106
sS'spur'
p6010
I138
sS'stanleycupchamps'
p6011
I138
sS'continue'
p6012
I137
sS'cheyenne'
p6013
I138
sS'omfg\xe2\x80\x9dso'
p6014
I138
sS'happened'
p6015
I133
sS'\xd1\x87\xd1\x83\xd0\xb4\xd0\xb5\xd1\x81\xd0\xbd\xd1\x8b\xd0\xb9'
p6016
I138
sS'moms'
p6017
I135
sS'conversations'
p6018
I138
sS'ever1'
p6019
I138
sS'hamilton'
p6020
I138
sS'ppl'
p6021
I132
sS'wagon'
p6022
I91
sS'name'
p6023
I133
sS'shy'
p6024
I138
sS'(priceless)'
p6025
I138
sS'knowwww'
p6026
I138
sS'acepto'
p6027
I138
sS'catching'
p6028
I138
sS'begun'
p6029
I138
sS'gtfo'
p6030
I138
sS'obsession'
p6031
I138
sS'plans'
p6032
I132
sS'100k'
p6033
I138
sS'tulips'
p6034
I138
sS'factory'
p6035
I136
sS"shouldn't"
p6036
I136
sS'hacked'
p6037
I138
sS'kenz'
p6038
I138
sS'clover'
p6039
I138
sS'attended'
p6040
I138
sS'boobs'
p6041
I136
sS'you.\xe2\x80\x9d'
p6042
I137
sS'flyer'
p6043
I137
sS'blaahhhhhh'
p6044
I138
sS'daniellealissa87'
p6045
I136
sS'mindset'
p6046
I138
sS'yup'
p6047
I132
sS'100%'
p6048
I138
sS'calories'
p6049
I138
sS'motion'
p6050
I138
sS'turn'
p6051
I130
sS'yum'
p6052
I136
sS'swing'
p6053
I138
sS'truer'
p6054
I138
sS'1000'
p6055
I137
sS'fetched'
p6056
I138
sS'clts'
p6057
I138
sS'brittneybre'
p6058
I136
sS'bradshaw'
p6059
I138
sS'day\xe2\x80\xa6'
p6060
I138
sS'ios7'
p6061
I138
sS'bryde'
p6062
I138
sS'given'
p6063
I138
sS'ian'
p6064
I138
sS'reppin'
p6065
I138
sS'chastity'
p6066
I138
sS'convention'
p6067
I138
sS'white'
p6068
I124
sS'circa'
p6069
I138
sS'gives'
p6070
I136
sS'season'
p6071
I127
sS'outreach'
p6072
I138
sS"men's"
p6073
I138
sS'huh'
p6074
I134
sS'alan'
p6075
I138
sS'released'
p6076
I135
sS'hur'
p6077
I137
sS'shirley'
p6078
I138
sS'copy'
p6079
I138
sS'ieyp'
p6080
I138
sS'population'
p6081
I136
sS'nathan'
p6082
I136
sS'lmao'
p6083
I129
sS'r'
p6084
I132
sS'(wanna'
p6085
I138
sS'cards'
p6086
I136
sS'fuuuuccckkk'
p6087
I138
sS't3p'
p6088
I138
sS'and'
p6089
I10
sS'ana'
p6090
I138
sS'chloe'
p6091
I135
sS'pro'
p6092
I138
sS'craigaaaaaaa'
p6093
I138
sS'innominate'
p6094
I138
sS'rent'
p6095
I137
sS'sells'
p6096
I138
sS'any'
p6097
I119
sS'marathon'
p6098
I136
sS'homerun'
p6099
I138
sS'ideas'
p6100
I135
sS'dining'
p6101
I138
sS'blunt'
p6102
I138
sS'surf'
p6103
I131
sS'sure'
p6104
I121
sS'falls'
p6105
I138
sS'rematch'
p6106
I137
sS'connor'
p6107
I138
sS'freshman'
p6108
I138
sS'puuppppy'
p6109
I138
sS'proud'
p6110
I137
sS'hungry'
p6111
I130
sS'trafficking'
p6112
I138
sS'ussoccer'
p6113
I138
sS'uncle'
p6114
I136
sS'senior'
p6115
I138
sS'cuddled'
p6116
I138
sS'detective'
p6117
I137
sS'ronaldinho'
p6118
I138
sS'cheap'
p6119
I138
sS'convos'
p6120
I138
sS'trop'
p6121
I138
sS'to\xe2\x80\xa6'
p6122
I138
sS'woof'
p6123
I138
sS'wood'
p6124
I137
sS'wooo'
p6125
I137
sS'tock'
p6126
I138
sS'mormon'
p6127
I138
sS'begging'
p6128
I138
sS'freaking'
p6129
I137
sS'reveal'
p6130
I138
sS'naked'
p6131
I136
sS'jokes'
p6132
I137
sS'penguins'
p6133
I138
sS'clowns'
p6134
I138
sS'hahahahahhahaha'
p6135
I138
sS'unibrow'
p6136
I138
sS'bought'
p6137
I133
sS"y'all"
p6138
I136
sS'closures'
p6139
I138
sS'mannnn'
p6140
I138
sS'college'
p6141
I137
sS'parking'
p6142
I131
sS'stanley'
p6143
I138
sS'fails'
p6144
I137
sS'farmers'
p6145
I138
sS'ways'
p6146
I138
sS'amen'
p6147
I133
sS'cafe)'
p6148
I138
sS'outside'
p6149
I136
sS'sideboob'
p6150
I137
sS'25'
p6151
I138
sS'fearless'
p6152
I138
sS'geraldo"'
p6153
I138
sS'\xe2\x9a\x93\xef\xb8\x8f\xe2\x9b\xb5\xef\xb8\x8f'
p6154
I138
sS'(4726'
p6155
I138
sS'como'
p6156
I137
sS'cities'
p6157
I137
sS'come'
p6158
I93
sS'reaction'
p6159
I138
sS'bite-sized'
p6160
I138
sS'missions'
p6161
I138
sS'mob'
p6162
I138
sS'successes'
p6163
I138
sS'darim'
p6164
I138
sS'quiet'
p6165
I138
sS'berry'
p6166
I138
sS'licky'
p6167
I138
sS'way"'
p6168
I138
sS'key'
p6169
I138
sS'color'
p6170
I135
sS'veggies4'
p6171
I138
sS'veggies5'
p6172
I138
sS'period'
p6173
I136
sS'pop'
p6174
I137
sS'pabst'
p6175
I138
sS'"can\'t'
p6176
I138
sS'jammed'
p6177
I138
sS'65'
p6178
I137
sS'pola'
p6179
I133
sS'kev'
p6180
I135
sS'69'
p6181
I138
sS'pod'
p6182
I138
sS'nicole'
p6183
I134
sS'shop)'
p6184
I135
sS'howard'
p6185
I138
sS'50%'
p6186
I137
sS"shop'"
p6187
I138
sS'peaceful'
p6188
I137
sS'featuring'
p6189
I138
sS'hardly'
p6190
I136
sS'500'
p6191
I138
sS'ruining'
p6192
I137
sS'direction'
p6193
I138
sS'life)'
p6194
I138
sS'w/days'
p6195
I138
sS'maira'
p6196
I137
sS'tiger'
p6197
I137
sS'saison'
p6198
I138
sS'spirit'
p6199
I138
sS'pilot'
p6200
I138
sS'paying'
p6201
I137
sS'myself'
p6202
I124
sS'2/'
p6203
I138
sS'casa'
p6204
I138
sS'onesie'
p6205
I138
sS'mount'
p6206
I138
sS'cash'
p6207
I136
sS'cast'
p6208
I137
sS'life"'
p6209
I138
sS'abducted'
p6210
I138
sS'slippers'
p6211
I138
sS'vest'
p6212
I138
sS'candies'
p6213
I138
sS'wnba'
p6214
I138
sS'couples'
p6215
I138
sS'good'
p6216
I49
sS'punched'
p6217
I138
sS'dafuq'
p6218
I138
sS'\xd0\xb2\xd0\xbe\xd0\xb4\xd0\xba\xd1\x83'
p6219
I138
sS'helmet'
p6220
I137
sS'sippin'
p6221
I138
sS'sellin'
p6222
I138
sS'$20'
p6223
I138
sS'reminded'
p6224
I137
sS'check'
p6225
I124
sS'ethiopia'
p6226
I138
sS'catfish'
p6227
I137
sS"septemberwe'll"
p6228
I138
sS'events'
p6229
I138
sS'status'
p6230
I135
sS'ness'
p6231
I138
sS'weed'
p6232
I135
sS'director'
p6233
I138
sS'abalone'
p6234
I138
sS'"liking"'
p6235
I138
sS'down.\xe2\x80\x9d'
p6236
I138
sS'renters'
p6237
I138
sS'magical'
p6238
I137
sS'without'
p6239
I130
sS'inability'
p6240
I138
sS'model'
p6241
I106
sS'tip'
p6242
I136
sS'kill'
p6243
I131
sS'fuckkkkkkkk'
p6244
I138
sS'\xd8\xae\xd9\x88\xd8\xa7\xd9\x87\xd8\xb1'
p6245
I138
sS'halfway'
p6246
I138
sS'\xd0\x93\xd0\xbe\xd1\x81\xd0\xbf\xd0\xbe\xd0\xb4\xd0\xb8'
p6247
I138
sS'ny'
p6248
I131
sS'rose'
p6249
I138
sS"everyone's"
p6250
I135
sS'seems'
p6251
I136
sS'blog'
p6252
I138
sS'arris'
p6253
I138
sS'lets'
p6254
I130
sS'styles'
p6255
I134
sS'kills'
p6256
I137
sS'\xd0\xb4\xd1\x83\xd1\x88\xd0\xb5'
p6257
I138
sS'e_hudson68'
p6258
I138
sS'styled'
p6259
I100
sS'it.\xe2\x80\x9d'
p6260
I138
sS'accepted'
p6261
I138
sS'correcting'
p6262
I138
sS'furniture'
p6263
I138
sS'pregnant'
p6264
I137
sS'donations'
p6265
I138
sS'madrid'
p6266
I138
sS'pacific'
p6267
I71
sS'whaaaaat'
p6268
I138
sS'respect'
p6269
I138
sS'moob'
p6270
I138
sS'mood'
p6271
I136
sS'grich'
p6272
I137
sS'shirtless'
p6273
I138
sS'stops'
p6274
I138
sS'moon'
p6275
I136
sS'ahahahah'
p6276
I138
sS'redic'
p6277
I138
sS'freed'
p6278
I138
sS'lmfao'
p6279
I137
sS'nails'
p6280
I132
sS'polite'
p6281
I138
sS'pooch'
p6282
I138
sS'pastors'
p6283
I138
sS'))\xe2\x80\xa6'
p6284
I138
sS'royale'
p6285
I138
sS'beaches'
p6286
I138
sS"'the"
p6287
I137
sS'on'
p6288
I18
sS'ol'
p6289
I138
sS'ok'
p6290
I118
sS'oh'
p6291
I74
sS'og'
p6292
I137
sS'of'
p6293
I15
sS'od'
p6294
I137
sS'oc'
p6295
I138
sS'chamberlin'
p6296
I138
sS'\xd8\xa8\xd8\xb3\xd8\xaa\xd9\x86\xd9\x8a'
p6297
I138
sS'stand'
p6298
I134
sS'ow'
p6299
I138
sS'ou'
p6300
I138
sS'or'
p6301
I90
sS'tribe'
p6302
I138
sS'ladies'
p6303
I134
sS'alreasy'
p6304
I138
sS'instruments'
p6305
I138
sS'cursed'
p6306
I138
sS'determine'
p6307
I137
sS'about*\xe2\x80\x9d//'
p6308
I138
sS'there'
p6309
I86
sS'encounters'
p6310
I138
sS'fish'
p6311
I130
sS'750'
p6312
I138
sS'grunge'
p6313
I138
sS'\xe2\x9d\xa4\xe2\x9d\xa4\xe2\x9d\xa4'
p6314
I138
sS'regard'
p6315
I138
sS'jus'
p6316
I138
sS'ended'
p6317
I138
sS'longer'
p6318
I138
sS'creeping'
p6319
I136
sS'hernandez'
p6320
I138
sS'taste'
p6321
I137
sS'finally\xe2\x80\xa6'
p6322
I138
sS'felix'
p6323
I138
sS'tasty'
p6324
I138
sS'together'
p6325
I132
sS'incorrect'
p6326
I138
sS'bicycling'
p6327
I138
sS'mustache."not'
p6328
I138
sS'deserve'
p6329
I135
sS'krul'
p6330
I138
sS'rubber'
p6331
I138
sS'roses'
p6332
I138
sS'5'
p6333
I130
sS'pillows'
p6334
I138
sS'finale'
p6335
I135
sS'cove'
p6336
I137
sS'jennyhuebnerhappyfitness'
p6337
I136
sS'ymf-5c'
p6338
I135
sS'finals'
p6339
I137
sS'missed'
p6340
I130
sS'paige'
p6341
I137
sS'calls'
p6342
I135
sS'wife'
p6343
I138
sS'wifi'
p6344
I138
sS'websites'
p6345
I138
sS'18652'
p6346
I138
sS'migrated'
p6347
I138
sS'all'
p6348
I41
sS'chinese'
p6349
I135
sS'ali'
p6350
I138
sS'jalens'
p6351
I138
sS'first?"'
p6352
I138
sS'follow'
p6353
I131
sS'hannnng'
p6354
I138
sS'decisions'
p6355
I138
sS'hmmm'
p6356
I138
sS'week...who'
p6357
I138
sS'apartment'
p6358
I135
sS'ignorant'
p6359
I137
sS'opportunities'
p6360
I136
sS'so....contract'
p6361
I138
sS'activities'
p6362
I138
sS'woman'
p6363
I136
sS'worse'
p6364
I134
sS'song'
p6365
I122
sS'far'
p6366
I132
sS'grinds'
p6367
I138
sS'fav'
p6368
I137
sS'fat'
p6369
I135
sS'(5020'
p6370
I137
sS'psychologist'
p6371
I137
sS'worst'
p6372
I133
sS'fam'
p6373
I136
sS'ticket'
p6374
I137
sS'fag'
p6375
I138
sS'treating'
p6376
I137
sS'lisp'
p6377
I138
sS'list'
p6378
I135
sS'"destiny"'
p6379
I138
sS'lesbians'
p6380
I138
sS'ten'
p6381
I138
sS'hitta'
p6382
I138
sS'pitchers?,90803\n487806427931500544,shannontucknies,2014-07-12'
p6383
I138
sS'ted'
p6384
I138
sS'breakers'
p6385
I138
sS'"moral'
p6386
I138
sS'design'
p6387
I137
sS'nba'
p6388
I138
sS'functioning'
p6389
I138
sS'gunn'
p6390
I138
sS'what'
p6391
I45
sS'sub'
p6392
I138
sS'sun'
p6393
I129
sS'sum'
p6394
I138
sS'lawrence'
p6395
I138
sS'anniversary'
p6396
I134
sS'crush'
p6397
I138
sS'version'
p6398
I138
sS'sus'
p6399
I137
sS'sup'
p6400
I138
sS'wham'
p6401
I138
sS'racing'
p6402
I138
sS'vamos'
p6403
I137
sS'christian'
p6404
I138
sS'hungover'
p6405
I138
sS'lostandjealous'
p6406
I138
sS'jkjk'
p6407
I138
sS'thrift'
p6408
I138
sS'd.a'
p6409
I138
sS'cucumbers'
p6410
I138
sS'miniature'
p6411
I138
sS'catfished'
p6412
I138
sS"john's"
p6413
I138
sS'roomie'
p6414
I137
sS'perk'
p6415
I138
sS'suddenly'
p6416
I138
sS'clique'
p6417
I138
sS'texts'
p6418
I138
sS'semester'
p6419
I135
sS'florence'
p6420
I138
sS'emoji'
p6421
I136
sS'munchies'
p6422
I138
sS'donuts'
p6423
I137
sS'mulholland'
p6424
I138
sS'minor'
p6425
I138
sS'tryna'
p6426
I138
sS'knows'
p6427
I134
sS'hours...crossing'
p6428
I138
sS'brothas'
p6429
I138
sS'flag'
p6430
I136
sS'stick'
p6431
I136
sS'known'
p6432
I138
sS'mellow'
p6433
I138
sS'glad'
p6434
I127
sS'market)'
p6435
I138
sS'v'
p6436
I137
sS'gunnar_hair'
p6437
I138
sS'embarrassing'
p6438
I138
sS'division'
p6439
I137
sS'joints'
p6440
I138
sS'lalalallalaa'
p6441
I138
sS'me:stare'
p6442
I138
sS'pong'
p6443
I138
sS'chach'
p6444
I138
sS"simmzy's"
p6445
I138
sS'court'
p6446
I138
sS'goal'
p6447
I135
sS'desperation'
p6448
I138
sS'rather'
p6449
I131
sS'breaking'
p6450
I136
sS'chace'
p6451
I138
sS'lepore'
p6452
I138
sS'sandwich'
p6453
I135
sS'okay'
p6454
I127
sS'w'
p6455
I130
sS'lighting'
p6456
I138
sS'adventure'
p6457
I137
sS'softball'
p6458
I137
sS'1pump'
p6459
I138
sS'short'
p6460
I133
sS'shady'
p6461
I137
sS'shore'
p6462
I29
sS'shade'
p6463
I137
sS'"im'
p6464
I138
sS"don't"
p6465
I68
sS'september'
p6466
I138
sS'mission'
p6467
I136
sS'disabled'
p6468
I138
sS'avenue'
p6469
I119
sS'heattttttth'
p6470
I138
sS'style'
p6471
I126
sS'pray'
p6472
I135
sS'jailing'
p6473
I138
sS'strange'
p6474
I136
sS'argentino'
p6475
I138
sS'stephen'
p6476
I138
sS'argentina'
p6477
I136
sS'soccer'
p6478
I134
sS'might'
p6479
I128
sS'alter'
p6480
I138
sS'raddest'
p6481
I138
sS'little)'
p6482
I138
sS'somebody'
p6483
I138
sS'cannoli'
p6484
I137
sS'redbox'
p6485
I137
sS"..i'm"
p6486
I138
sS'adventurous'
p6487
I138
sS"james'"
p6488
I138
sS'debacle'
p6489
I138
sS'turns'
p6490
I136
sS'g\xc3\xb8\xc3\xb8dnight'
p6491
I138
sS'pirates'
p6492
I137
sS'weight'
p6493
I137
sS'03:53:32.0,33.7601168,-118.1412108,5773,hahaha'
p6494
I138
sS'(4702'
p6495
I137
sS'hawaii'
p6496
I138
sS'quervo'
p6497
I138
sS'expect'
p6498
I136
sS'forward.\xe2\x80\x9d'
p6499
I138
sS'paradise'
p6500
I137
sS'lolz'
p6501
I138
sS'friday'
p6502
I119
sS'cookie'
p6503
I138
sS'rikki'
p6504
I138
sS'sidewalk'
p6505
I137
sS'lag'
p6506
I138
sS'(thanks)'
p6507
I138
sS'svetlana'
p6508
I138
sS'ask\xe2\x80\xa6'
p6509
I138
sS"year's"
p6510
I138
sS'boytoy'
p6511
I138
sS'throws'
p6512
I138
sS'feed'
p6513
I135
sS'unhealthy'
p6514
I137
sS'feel'
p6515
I97
sS'radical'
p6516
I137
sS'hahahahahha'
p6517
I137
sS'fancy'
p6518
I138
sS'feet'
p6519
I134
sS'sailor'
p6520
I138
sS'fees'
p6521
I138
sS'mcflurry'
p6522
I138
sS'story'
p6523
I129
sS'"'
p6524
I134
sS'gourmet'
p6525
I116
sS'grime'
p6526
I138
sS'hangs'
p6527
I138
sS'wingman'
p6528
I138
sS'sandcastle'
p6529
I138
sS'storm'
p6530
I137
sS'syrup'
p6531
I138
sS'store'
p6532
I132
sS'gps'
p6533
I138
sS'granada)'
p6534
I137
sS'$$'
p6535
I137
sS'hotel'
p6536
I138
sS"amber's"
p6537
I137
sS'am\xc3\xa9rica'
p6538
I138
sS'tedder'
p6539
I138
sS'luckily'
p6540
I138
sS'$8'
p6541
I138
sS'rifle'
p6542
I138
sS'$6'
p6543
I138
sS'$2'
p6544
I138
sS'$3'
p6545
I138
sS'$0'
p6546
I138
sS'king'
p6547
I136
sS'kind'
p6548
I122
sS'double'
p6549
I134
sS'must\xe2\x80\xa6'
p6550
I138
sS'dank'
p6551
I138
sS'insulted'
p6552
I138
sS'dang'
p6553
I135
sS'homegirl'
p6554
I138
sS'risky'
p6555
I138
sS'motivation'
p6556
I137
sS'decisi\xc3\xb3n'
p6557
I138
sS"polly's"
p6558
I133
sS'tandoori'
p6559
I138
sS'importa'
p6560
I138
sS'ziadie'
p6561
I138
sS'nights'
p6562
I129
sS'nighty'
p6563
I138
sS'sandwiches'
p6564
I138
sS'finding'
p6565
I137
sS'irritated'
p6566
I138
sS"lyin'"
p6567
I138
sS'gill'
p6568
I138
sS'added'
p6569
I138
sS'electric'
p6570
I138
sS'\xd1\x82\xd0\xb5\xd0\xbf\xd0\xb5\xd1\x80\xd1\x8c'
p6571
I138
sS'reunited'
p6572
I135
sS'76'
p6573
I138
sS'75'
p6574
I138
sS'sandra'
p6575
I138
sS'nothing'
p6576
I129
sS'groooows'
p6577
I138
sS'78'
p6578
I138
sS'tuesday\xe2\x80\x99s'
p6579
I138
sS"grama's"
p6580
I138
sS'windows'
p6581
I138
sS'doggie'
p6582
I138
sS'"you\'re'
p6583
I138
sS'10am'
p6584
I138
sS'grama'
p6585
I138
sS'security"'
p6586
I138
sS'stones'
p6587
I138
sS'pennies'
p6588
I138
sS'stfu'
p6589
I138
sS'natalierosee\xe2\x80\xa6'
p6590
I138
sS'lester.wish'
p6591
I138
sS'bff'
p6592
I133
sS'jugar'
p6593
I138
sS'grace'
p6594
I137
sS"mom's"
p6595
I138
sS'woooooow'
p6596
I138
sS'his'
p6597
I103
sS'hit'
p6598
I127
sS'hiv'
p6599
I137
sS'guys....that'
p6600
I138
sS'(brand'
p6601
I138
sS'longest'
p6602
I137
sS'reply'
p6603
I138
sS"george's"
p6604
I138
sS'him'
p6605
I106
sS'activity'
p6606
I137
sS'tourney'
p6607
I137
sS'bars'
p6608
I136
sS'city)'
p6609
I138
sS'art'
p6610
I134
sS'achieved'
p6611
I138
sS'bara'
p6612
I138
sS'defense'
p6613
I137
sS'bare'
p6614
I138
sS'are'
p6615
I36
sS'paesan'
p6616
I138
sS'slapped'
p6617
I138
sS'ratchet/twerk'
p6618
I138
sS'creme'
p6619
I137
sS'roma)'
p6620
I138
sS'hairs'
p6621
I138
sS'|h&m'
p6622
I138
sS'solo'
p6623
I137
sS'korea'
p6624
I138
sS'bag.anyone'
p6625
I138
sS'creating'
p6626
I138
sS"bff's"
p6627
I137
sS'sold'
p6628
I138
sS'attention'
p6629
I137
sS'bar)'
p6630
I138
sS'condo'
p6631
I138
sS'perfection'
p6632
I136
sS'c'
p6633
I135
sS'stop-hollywood'
p6634
I138
sS'foineee'
p6635
I138
sS'roman'
p6636
I138
sS'became'
p6637
I136
sS'8am'
p6638
I136
sS'flies'
p6639
I137
sS'dinner\xe2\x99\xa5'
p6640
I138
sS'reasons'
p6641
I137
sS'sweet'
p6642
I120
sS'dudes'
p6643
I135
sS'crispy'
p6644
I138
sS'duh'
p6645
I137
sS'dui'
p6646
I138
sS'pv'
p6647
I138
sS'desimakeup'
p6648
I117
sS'\xd0\xbc\xd0\xbd\xd0\xb5'
p6649
I138
sS'political'
p6650
I138
sS'due'
p6651
I138
sS'whos'
p6652
I138
sS'pa'
p6653
I138
sS'chubb\xe2\x80\x9d//superchubb'
p6654
I138
sS'whoa'
p6655
I137
sS'woke'
p6656
I137
sS'drinks??\xe2\x80\x9d'
p6657
I138
sS'sending'
p6658
I138
sS'right?"'
p6659
I138
sS'cinco'
p6660
I138
sS'oitnb'
p6661
I138
sS'invite\xe2\x80\x9d'
p6662
I138
sS'rocking'
p6663
I138
sS'yawwwwp'
p6664
I138
sS'\xd0\xbf\xd1\x80\xd0\xbe\xd1\x82\xd0\xb8\xd0\xb2\xd0\xbe\xd1\x80\xd0\xb5\xd1\x87\xd0\xb8\xd0\xb5'
p6665
I138
sS'frozen'
p6666
I138
sS'stoled'
p6667
I138
sS'ahah'
p6668
I138
sS'beauty)'
p6669
I138
sS'soulwax'
p6670
I138
sS'so\xc3\xb1andote'
p6671
I138
sS'tweaking'
p6672
I138
sS'homework'
p6673
I135
sS'strapless'
p6674
I138
sS'hhmmm'
p6675
I138
sS'resting...kind'
p6676
I138
sS'dublin'
p6677
I138
sS'rip'
p6678
I135
sS'goonies'
p6679
I135
sS'shirt'
p6680
I135
sS'noooo'
p6681
I138
sS'windows)'
p6682
I137
sS'away"'
p6683
I138
sS'9'
p6684
I136
sS'strawberry'
p6685
I138
sS'.....good'
p6686
I138
sS'arrived'
p6687
I137
sS'wheres'
p6688
I138
sS'lower'
p6689
I138
sS'fuxk'
p6690
I138
sS'stone....someone'
p6691
I138
sS'cheek'
p6692
I138
sS'anybody'
p6693
I137
sS'inspirational'
p6694
I138
sS'b.c'
p6695
I138
sS'bounced'
p6696
I138
sS'dark'
p6697
I129
sS'stating'
p6698
I138
sS'cards:-('
p6699
I138
sS'ed\xe2\x80\x9d'
p6700
I138
sS'prince'
p6701
I138
sS'shaina'
p6702
I138
sS'tables'
p6703
I137
sS'workers'
p6704
I138
sS"butcher's"
p6705
I138
sS'customers'
p6706
I138
sS'paula'
p6707
I138
sS'me\xe2\x80\xa6'
p6708
I138
sS'unlimited'
p6709
I138
sS'lovin'
p6710
I138
sS'-polly'
p6711
I138
sS'cuisine)'
p6712
I137
sS'67%'
p6713
I138
sS'dopeness'
p6714
I137
sS'hahha'
p6715
I138
sS'shabu'
p6716
I136
sS'ignore'
p6717
I138
sS'"two'
p6718
I138
sS'fucking'
p6719
I104
sS'chicagoan'
p6720
I138
sS'tehehe'
p6721
I138
sS'dayton'
p6722
I138
sS'pros'
p6723
I138
sS'prom'
p6724
I138
sS'retro'
p6725
I138
sS'ojos'
p6726
I138
sS'prob'
p6727
I135
sS'anna'
p6728
I137
sS'zzz'
p6729
I137
sS'bartender'
p6730
I138
sS"loud'"
p6731
I138
sS'kelsey'
p6732
I138
sS's/o'
p6733
I138
sS'withdrawals'
p6734
I138
sS'zombie'
p6735
I137
sS'yaaassss'
p6736
I138
sS'intense'
p6737
I135
sS'row'
p6738
I138
sS'plaza'
p6739
I125
sS'range'
p6740
I138
sS'5yrs'
p6741
I138
sS'suhail'
p6742
I138
sS'wanna'
p6743
I120
sS'dwight'
p6744
I137
sS'moss'
p6745
I138
sS'mommy'
p6746
I137
sS'paigetiziani'
p6747
I133
sS'nigga'
p6748
I134
sS'4rm'
p6749
I138
sS'question'
p6750
I137
sS'ca)'
p6751
I19
sS'fast'
p6752
I134
sS'\xe2\x80\x9ca'
p6753
I138
sS'things\xe2\x80\x9d'
p6754
I138
sS"we're"
p6755
I127
sS'summertime'
p6756
I137
sS'todas'
p6757
I138
sS'familia'
p6758
I138
sS'filed'
p6759
I138
sS'caller'
p6760
I138
sS'fries'
p6761
I135
sS"hasn't"
p6762
I138
sS'2pumps'
p6763
I138
sS'fried'
p6764
I136
sS'called'
p6765
I136
sS'freak'
p6766
I135
sS'tiniest'
p6767
I138
sS'abazaba'
p6768
I138
sS'105.9'
p6769
I138
sS'warning'
p6770
I136
sS'rainy'
p6771
I138
sS'w/that'
p6772
I138
sS'peavy...is'
p6773
I138
sS'rains'
p6774
I137
sS'peace'
p6775
I131
sS'backs'
p6776
I138
sS'shabba'
p6777
I138
sS'nick'
p6778
I137
sS'mcdonnell'
p6779
I138
sS'nice'
p6780
I103
sS'dale'
p6781
I138
sS'users'
p6782
I138
sS'problems'
p6783
I137
sS'helping'
p6784
I136
sS'chirp'
p6785
I137
sS'meaning'
p6786
I138
sS'long\xe2\x80\xa6'
p6787
I137
sS'wonton'
p6788
I138
sS'happier'
p6789
I138
sS'face."'
p6790
I138
sS'aiko'
p6791
I138
sS'karma'
p6792
I136
sS'ashton'
p6793
I138
sS'buffalo'
p6794
I126
sS'scroll'
p6795
I138
sS'once'
p6796
I129
sS'edc'
p6797
I138
sS'rules"'
p6798
I137
sS'windy'
p6799
I137
sS'gang'
p6800
I138
sS'it!\xe2\x80\xa6'
p6801
I138
sS'issues'
p6802
I138
sS'dramatically'
p6803
I138
sS'sniper'
p6804
I138
sS'bryana'
p6805
I137
sS'711'
p6806
I138
sS'710'
p6807
I136
sS'drinking'
p6808
I121
sS'anyway-may'
p6809
I138
sS'entire\xe2\x80\xa6'
p6810
I138
sS'shore...beautiful'
p6811
I138
sS"patty's"
p6812
I138
sS'away?)'
p6813
I138
sS'someday'
p6814
I137
sS"you'd"
p6815
I137
sS'fold'
p6816
I138
sS'on.--robert'
p6817
I138
sS'reunion'
p6818
I137
sS'ummm'
p6819
I138
sS'manipulating'
p6820
I138
sS'agent.not'
p6821
I138
sS'universities'
p6822
I138
sS'screenshots'
p6823
I138
sS'bearish'
p6824
I138
sS'it;)'
p6825
I138
sS'waiting'
p6826
I127
sS'shuku'
p6827
I137
sS'chose'
p6828
I136
sS'princessprestinn'
p6829
I138
sS'pushing'
p6830
I138
sS'youngest'
p6831
I138
sS'explore'
p6832
I138
sS'sexy'
p6833
I134
sS'...that'
p6834
I138
sS'survivor'
p6835
I138
sS'shades'
p6836
I136
sS'leaving'
p6837
I131
sS'pornstar'
p6838
I138
sS"dad's"
p6839
I138
sS'sheila'
p6840
I138
sS'shovel'
p6841
I138
sS'apple'
p6842
I138
sS'spy'
p6843
I136
sS'app'
p6844
I135
sS'quererte'
p6845
I138
sS'apt'
p6846
I116
sS'hardy'
p6847
I138
sS'redo'
p6848
I138
sS'dejar'
p6849
I138
sS'use'
p6850
I125
sS'hahahahaha'
p6851
I135
sS'feb'
p6852
I136
sS'hippie'
p6853
I138
sS'usa'
p6854
I128
sS'&'
p6855
I23
sS'(never'
p6856
I138
sS'few'
p6857
I128
sS'bottomless'
p6858
I138
sS'!?$&%*'
p6859
I138
sS'crazy..always..crazy'
p6860
I138
sS'suxs'
p6861
I138
sS'...awesome'
p6862
I138
sS'impress'
p6863
I138
sS'sore'
p6864
I137
sS'"1st'
p6865
I138
sS'women'
p6866
I137
sS'7pm'
p6867
I138
sS"chuck's"
p6868
I131
sS'anywhere'
p6869
I138
sS'proof'
p6870
I137
sS'patrol'
p6871
I138
sS'thirsty'
p6872
I137
sS'kennebec'
p6873
I138
sS'tax'
p6874
I138
sS'anastasia_booooo'
p6875
I134
sS"guincho's"
p6876
I138
sS'serial'
p6877
I138
sS'sis'
p6878
I136
sS'sir'
p6879
I136
sS'united'
p6880
I136
sS'syndrome'
p6881
I138
sS'six'
p6882
I137
sS'struggles'
p6883
I138
sS'camille'
p6884
I136
sS'instead'
p6885
I133
sS'dwn'
p6886
I138
sS'sin'
p6887
I138
sS'gurl'
p6888
I135
sS'sweat'
p6889
I138
sS"peet's"
p6890
I123
sS'seajay_twombly'
p6891
I138
sS'hose'
p6892
I138
sS'taco'
p6893
I126
sS'hahahaha'
p6894
I125
sS'somethin'
p6895
I138
sS'4664'
p6896
I138
sS'light'
p6897
I134
sS'honestly'
p6898
I132
sS"summer'"
p6899
I138
sS'americ'
p6900
I138
sS'summer)'
p6901
I138
sS'bhollyb'
p6902
I133
sS'knowledgable'
p6903
I138
sS'131'
p6904
I138
sS'looks'
p6905
I127
sS'write'
p6906
I138
sS'gunslinger'
p6907
I138
sS'world"'
p6908
I137
sS'byo'
p6909
I138
sS'choose'
p6910
I137
sS'orange'
p6911
I136
sS'hooooome'
p6912
I138
sS'holiday'
p6913
I136
sS'ginso'
p6914
I138
sS'rat'
p6915
I138
sS'rsvp'
p6916
I138
sS'crash'
p6917
I138
sS'estrangle'
p6918
I138
sS'roycroft'
p6919
I125
sS'practice'
p6920
I137
sS'flea'
p6921
I138
sS'billi'
p6922
I138
sS'bar-b-que'
p6923
I122
sS'trap'
p6924
I138
sS'champ'
p6925
I138
sS'tray'
p6926
I138
sS'studios'
p6927
I138
sS'bentley'
p6928
I138
sS'related'
p6929
I138
sS'our'
p6930
I88
sS'out'
p6931
I32
sS'northman'
p6932
I138
sS'outings'
p6933
I138
sS'&\xe2\x80\xa6'
p6934
I136
sS'exporting'
p6935
I138
sS'fell...asleep'
p6936
I138
sS'plural'
p6937
I138
sS'wcup'
p6938
I138
sS'o.o'
p6939
I138
sS'pours'
p6940
I137
sS'ipod'
p6941
I137
sS'molly'
p6942
I137
sS'gooooooo'
p6943
I138
sS'york'
p6944
I136
sS'dumpster'
p6945
I137
sS'van'
p6946
I136
sS'philip'
p6947
I138
sS'year.\xe2\x80\x9d'
p6948
I138
sS'g'
p6949
I136
sS'conversation'
p6950
I137
sS'birthday'
p6951
I85
sS'adrian'
p6952
I138
sS'rudolf'
p6953
I138
sS'home.\xe2\x80\xa6'
p6954
I138
sS'100-0'
p6955
I138
sS'echo'
p6956
I126
sS'twas'
p6957
I138
sS'fairdalebikes'
p6958
I138
sS"doesn't"
p6959
I123
sS'theif'
p6960
I138
sS'nerves'
p6961
I138
sS'redondo'
p6962
I138
sS'estemos'
p6963
I138
sS'inmate'
p6964
I138
sS'their'
p6965
I103
sS'capaz'
p6966
I138
sS'ticklish'
p6967
I138
sS'ponzu'
p6968
I138
sS"'79"
p6969
I138
sS"god's"
p6970
I138
sS'it...maybe'
p6971
I138
sS'shell'
p6972
I138
sS'reversed'
p6973
I138
sS'belmont\xe2\x80\xa6'
p6974
I137
sS'july'
p6975
I113
sS'holland'
p6976
I138
sS'boring'
p6977
I135
sS'"got'
p6978
I138
sS'different"'
p6979
I138
sS'managers&players'
p6980
I138
sS'1.5'
p6981
I138
sS'clip'
p6982
I137
sS'faux'
p6983
I138
sS'\xe2\x9b\x85\xef\xb8\x8f\xe2\x9a\xa1\xef\xb8\x8f'
p6984
I138
sS'afraid'
p6985
I138
sS'asiaschneider'
p6986
I137
sS'russians'
p6987
I138
sS'allergies'
p6988
I138
sS"i've"
p6989
I101
sS'bagel'
p6990
I137
sS'which'
p6991
I131
sS'asshole'
p6992
I138
sS'='
p6993
I130
sS';?)'
p6994
I137
sS'wha'
p6995
I138
sS'clash'
p6996
I138
sS'knees'
p6997
I128
sS'dog\xe2\x80\xa6'
p6998
I138
sS'who'
p6999
I97
sS'brrrreeehhhhh'
p7000
I138
sS'wht'
p7001
I138
sS'mouth...not'
p7002
I138
sS'why'
p7003
I78
sS'stubhub'
p7004
I138
sS'onliine'
p7005
I138
sS'deny'
p7006
I138
sS'barista'
p7007
I138
sS'dent'
p7008
I138
sS'looked'
p7009
I134
sS'xavier'
p7010
I138
sS'goals'
p7011
I137
sS'balding'
p7012
I138
sS'one)'
p7013
I138
sS'agreed'
p7014
I135
sS'ayooo'
p7015
I138
sS'planning'
p7016
I133
sS'dorothy'
p7017
I137
sS'chicken'
p7018
I130
sS'treat....yummy'
p7019
I138
sS'lemme'
p7020
I137
sS'combo'
p7021
I138
sS'local'
p7022
I137
sS'workin'
p7023
I138
sS'watching'
p7024
I109
sS'dope'
p7025
I136
sS'please)'
p7026
I138
sS'me.\xe2\x80\x9d'
p7027
I138
sS'awww'
p7028
I137
sS'ones'
p7029
I136
sS'(5316'
p7030
I138
sS'words'
p7031
I132
sS'chips'
p7032
I138
sS'donate'
p7033
I138
sS"kobe's"
p7034
I138
sS'belts'
p7035
I138
sS'married'
p7036
I136
sS'view'
p7037
I130
sS'europe'
p7038
I137
sS'rookie'
p7039
I138
sS'artsy'
p7040
I138
sS'buzzed'
p7041
I138
sS'closes'
p7042
I138
sS"kayla's"
p7043
I137
sS'closet'
p7044
I137
sS'cried'
p7045
I131
sS'genius'
p7046
I138
sS'closed'
p7047
I137
sS'limit'
p7048
I138
sS'pants'
p7049
I135
sS'exam'
p7050
I138
sS'opening'
p7051
I137
sS'morning/early'
p7052
I138
sS'agencies'
p7053
I138
sS'a.k'
p7054
I138
sS'job'
p7055
I126
sS'takeover'
p7056
I138
sS'joe'
p7057
I137
sS'jog'
p7058
I138
sS"houston's"
p7059
I138
sS'titties'
p7060
I137
sS'happy.\xe2\x80\x9d'
p7061
I138
sS'waisted'
p7062
I138
sS'grain'
p7063
I138
sS'grail'
p7064
I136
sS'rodney'
p7065
I137
sS'hehehe'
p7066
I138
sS'wall'
p7067
I137
sS'shoving'
p7068
I138
sS'makin'
p7069
I137
sS'walk'
p7070
I125
sS'table'
p7071
I134
sS'decent'
p7072
I137
sS'twerky'
p7073
I138
sS'grazie'
p7074
I138
sS'corner)'
p7075
I138
sS'"i\'m'
p7076
I137
sS'bbs'
p7077
I138
sS'naples'
p7078
I138
sS'bbq'
p7079
I124
sS'alyx'
p7080
I137
sS'jaden'
p7081
I138
sS'mike'
p7082
I137
sS'verizon'
p7083
I138
sS'hmu'
p7084
I138
sS'astros'
p7085
I138
sS'cry//same'
p7086
I138
sS'dickless'
p7087
I138
sS'last'
p7088
I94
sS'present'
p7089
I138
sS'erin'
p7090
I138
sS'unlike'
p7091
I138
sS'choices'
p7092
I137
sS'will'
p7093
I102
sS'gr8t'
p7094
I136
sS'wild'
p7095
I135
sS"nobody's"
p7096
I138
sS'~'
p7097
I137
sS'lonely'
p7098
I138
sS'ave'
p7099
I122
sS'avg'
p7100
I137
sS'ava'
p7101
I138
sS"aron's"
p7102
I138
sS'member'
p7103
I137
sS'inch'
p7104
I138
sS'gets'
p7105
I131
sS'privileged'
p7106
I138
sS'difficult'
p7107
I136
sS'promo'
p7108
I137
sS'premiere'
p7109
I138
sS'collab'
p7110
I138
sS'beast'
p7111
I138
sS'today.lol'
p7112
I138
sS'gurls'
p7113
I138
sS'suuuuck'
p7114
I138
sS'student'
p7115
I138
sS'whale'
p7116
I138
sS'l.a'
p7117
I137
sS'warming'
p7118
I138
sS'gutter'
p7119
I138
sS'failpatients'
p7120
I138
sS'fighting'
p7121
I137
sS'"reserves"'
p7122
I138
sS'english'
p7123
I138
sS'breaker'
p7124
I138
sS'carrie'
p7125
I138
sS'rocket'
p7126
I137
sS'camel'
p7127
I138
sS"should've"
p7128
I138
sS'batteries'
p7129
I138
sS'nightmusic'
p7130
I138
sS'casper'
p7131
I138
sS'music\xe2\x80\xa6'
p7132
I138
sS'happiness'
p7133
I137
sS'lukey'
p7134
I138
sS'drunk'
p7135
I127
sS'smith'
p7136
I137
sS"phot-o'the-day[billy"
p7137
I138
sS'cheerprincess31'
p7138
I138
sS'nicki'
p7139
I137
sS'attractive'
p7140
I136
sS"who's"
p7141
I129
sS'price&'
p7142
I138
sS'brain...i'
p7143
I138
sS'know'
p7144
I59
sS'"your'
p7145
I138
sS'ruhiclothing'
p7146
I138
sS'incredibly'
p7147
I138
sS'miami'
p7148
I136
sS'summatime'
p7149
I138
sS'chuckled'
p7150
I138
sS'loser'
p7151
I138
sS'mig_8'
p7152
I138
sS'because'
p7153
I110
sS'scared'
p7154
I137
sS'tumblr'
p7155
I136
sS'meatloaf'
p7156
I138
sS'scares'
p7157
I138
sS'lead'
p7158
I137
sS"gettin'"
p7159
I138
sS'14th'
p7160
I138
sS'turntdrunk'
p7161
I138
sS'leader'
p7162
I138
sS'trout'
p7163
I135
sS'\xd0\xb2'
p7164
I138
sS'uggggh'
p7165
I138
sS'\xd0\xb8'
p7166
I138
sS'murdered'
p7167
I138
sS'bayshore'
p7168
I122
sS'\xe2\x98\x9d'
p7169
I138
sS'paste'
p7170
I138
sS'throne'
p7171
I138
sS'pike'
p7172
I134
sS'rare'
p7173
I138
sS'getting'
p7174
I102
sS'spilled'
p7175
I137
sS't_fabes\xe2\x80\xa6'
p7176
I138
sS'bitch..."'
p7177
I138
sS'swear'
p7178
I137
sS'places'
p7179
I138
sS'own'
p7180
I132
sS'weather'
p7181
I133
sS'promise'
p7182
I135
sS'yankee'
p7183
I130
sS'niners'
p7184
I136
sS'*'
p7185
I138
sS'kidding'
p7186
I132
sS'kang'
p7187
I138
sS'adelante'
p7188
I138
sS'supertanker'
p7189
I137
sS'bitches'
p7190
I132
sS'alexi'
p7191
I138
sS'made'
p7192
I125
sS'hitter'
p7193
I138
sS'niggaas'
p7194
I138
sS'karts'
p7195
I138
sS'record'
p7196
I138
sS'cake'
p7197
I133
sS'jenny'
p7198
I138
sS'goodness'
p7199
I138
sS'nothing..but'
p7200
I138
sS'naming'
p7201
I138
sS'"are'
p7202
I138
sS'mirror?\xe2\x80\x9d'
p7203
I138
sS'incredible'
p7204
I135
sS'boos'
p7205
I138
sS'ep'
p7206
I138
sS'america...so'
p7207
I138
sS'other'
p7208
I109
sS'boom'
p7209
I138
sS'sick'
p7210
I129
sS'-nice'
p7211
I138
sS'kinds'
p7212
I138
sS'june'
p7213
I138
sS'pumps'
p7214
I138
sS'kinda'
p7215
I134
sS'coffee)'
p7216
I138
sS'playing...oh'
p7217
I138
sS'ekmciver24'
p7218
I138
sS'queit'
p7219
I138
sS'laundromat'
p7220
I138
s.