(dp0
S''
p1
I1
sS'represent'
p2
I28
sS'all'
p3
I24
sS':/'
p4
I29
sS':('
p5
I29
sS'lace'
p6
I30
sS'las\xe2\x80\xa6'
p7
I30
sS'neta?"'
p8
I30
sS'lean'
p9
I30
sS'yellow'
p10
I30
sS',90301\n498370778602012674,javiboiii8,2014-08-10'
p11
I30
sS'gf'
p12
I30
sS'sleep'
p13
I28
sS'freakin'
p14
I30
sS'go'
p15
I21
sS'jason'
p16
I30
sS'psycho'
p17
I30
sS'hate'
p18
I29
sS'chorros)'
p19
I30
sS'buddy'
p20
I30
sS'07:01:41.0,33.9507385,-118.3550782,6012.02,ok,90301\n498362642407239680,javiboiii8,2014-08-10'
p21
I30
sS'tweet'
p22
I30
sS'wassup'
p23
I30
sS'father'
p24
I30
sS'young'
p25
I30
sS'otra'
p26
I30
sS'to'
p27
I4
sS'tl'
p28
I30
sS'camarones'
p29
I30
sS'same!!,90301\n498656826926178304,javiboiii8,2014-08-11'
p30
I30
sS'hermano'
p31
I30
sS'chill'
p32
I25
sS'sent'
p33
I30
sS'diamondbaby_21'
p34
I30
sS'protective'
p35
I30
sS'song'
p36
I30
sS'vegas'
p37
I30
sS'every'
p38
I30
sS'drinking'
p39
I29
sS'minute'
p40
I30
sS'cool'
p41
I28
sS'school'
p42
I30
sS'couches'
p43
I30
sS'progression'
p44
I30
sS'mothers'
p45
I30
sS'did'
p46
I29
sS'die'
p47
I29
sS'brother'
p48
I30
sS'try'
p49
I29
sS'vibes'
p50
I30
sS"week's"
p51
I30
sS'subway'
p52
I30
sS'team'
p53
I30
sS'quick'
p54
I30
sS'guy'
p55
I30
sS'lot'
p56
I30
sS'dis'
p57
I30
sS"i'll"
p58
I28
sS'work'
p59
I27
sS'force'
p60
I30
sS'regret'
p61
I30
sS'tired'
p62
I30
sS'burger'
p63
I29
sS'likely'
p64
I30
sS'street'
p65
I29
sS'video'
p66
I30
sS'corner'
p67
I30
sS'assss'
p68
I30
sS'even'
p69
I28
sS'what'
p70
I23
sS'opted'
p71
I30
sS'inglewood'
p72
I26
sS'giving'
p73
I30
sS'chorros'
p74
I21
sS',90301\n498653185230114818,javiboiii8,2014-08-11'
p75
I30
sS',90301\n498185318655213568,javiboiii8,2014-08-09'
p76
I30
sS'asia'
p77
I30
sS'waiting'
p78
I29
sS'tears'
p79
I30
sS'then'
p80
I30
sS'new'
p81
I29
sS'tribute'
p82
I30
sS'ever'
p83
I26
sS'told'
p84
I29
sS'body'
p85
I30
sS'kicked'
p86
I30
sS'06:57:01.0,33.9508599,-118.3551337,6012.02,my'
p87
I30
sS'pancakes'
p88
I30
sS'loose'
p89
I30
sS'here'
p90
I28
sS'eminem'
p91
I30
sS'hours'
p92
I30
sS'ramsey'
p93
I30
sS'let'
p94
I30
sS'pursuit'
p95
I28
sS'meet'
p96
I30
sS'sexy'
p97
I30
sS'teacher'
p98
I30
sS'change'
p99
I30
sS'wait'
p100
I30
sS'boy'
p101
I30
sS'great'
p102
I30
sS'forum'
p103
I29
sS'00:02:46.0,33.9510671,-118.3549595,6012.02,,90301\n498618652967440387,javiboiii8,2014-08-10'
p104
I30
sS'32'
p105
I30
sS'k'
p106
I30
sS'b\xc3\xa6s'
p107
I30
sS'boi'
p108
I30
sS'(2001)'
p109
I30
sS'dedico'
p110
I30
sS'smoke'
p111
I27
sS'pick'
p112
I30
sS'popcorn'
p113
I30
sS'mentions'
p114
I30
sS"i'm"
p115
I10
sS"someone's"
p116
I30
sS'school,90301\n498710189999415296,javiboiii8,2014-08-11'
p117
I30
sS'reckoned'
p118
I30
sS'named'
p119
I30
sS'tu'
p120
I30
sS'love'
p121
I26
sS'family'
p122
I30
sS'extra'
p123
I30
sS'godhealthwealth'
p124
I30
sS'win'
p125
I29
sS'dedicated'
p126
I30
sS'paja'
p127
I30
sS'bro'
p128
I30
sS'analyzing'
p129
I30
sS'fake'
p130
I29
sS"sister's"
p131
I30
sS'everybody'
p132
I30
sS'hahahahaha'
p133
I30
sS'from'
p134
I24
sS'working'
p135
I30
sS'answered'
p136
I30
sS'mma'
p137
I30
sS'ustedes'
p138
I30
sS'played'
p139
I30
sS'dude'
p140
I29
sS'finally'
p141
I27
sS'next'
p142
I30
sS'live'
p143
I29
sS'doubt'
p144
I30
sS'music'
p145
I29
sS'recommend'
p146
I30
sS'films'
p147
I30
sS'until'
p148
I30
sS'today'
p149
I24
sS'more'
p150
I28
sS'tryna'
p151
I28
sS'babe'
p152
I29
sS'whatsoever'
p153
I30
sS'started'
p154
I30
sS'$350'
p155
I30
sS'impress'
p156
I30
sS'sister'
p157
I30
sS'\xc3\xa9sto'
p158
I30
sS'phone'
p159
I29
sS'soooooooo'
p160
I30
sS"ain't"
p161
I29
sS'baby'
p162
I29
sS'hold'
p163
I30
sS'must'
p164
I30
sS'me'
p165
I9
sS'high'
p166
I30
sS'that\xe2\x80\xa6'
p167
I30
sS'that,90301\n498361130209648640,javiboiii8,2014-08-10'
p168
I30
sS'adriannnnnn'
p169
I30
sS'niggas'
p170
I30
sS'this'
p171
I18
sS'car'
p172
I25
sS'ride'
p173
I30
sS'getting'
p174
I28
sS'mi'
p175
I30
sS'mj'
p176
I30
sS'fern\xc3\xa1ndez'
p177
I30
sS'lmfaoooooooo'
p178
I30
sS'anywhere'
p179
I30
sS'del'
p180
I30
sS'can'
p181
I23
sS'morgan'
p182
I29
sS'mr'
p183
I29
sS'making'
p184
I29
sS'my'
p185
I5
sS'dropped'
p186
I30
sS'heart'
p187
I30
sS'crazy'
p188
I29
sS'constancia'
p189
I30
sS'picture'
p190
I30
sS'give'
p191
I28
sS'04:35:38.0,33.9506862,-118.3553036,6012.02,it'
p192
I30
sS'awesome'
p193
I30
sS"didn't"
p194
I28
sS'fuck'
p195
I25
sS'agent'
p196
I30
sS'sike'
p197
I29
sS'homie'
p198
I30
sS'lol,90301\n498361435689218050,javiboiii8,2014-08-10'
p199
I30
sS'something'
p200
I30
sS'want'
p201
I28
sS'ave'
p202
I30
sS'neta"'
p203
I30
sS'hahahahhahaha'
p204
I30
sS'neta...."'
p205
I30
sS'huge'
p206
I30
sS'needs'
p207
I29
sS'hoe'
p208
I30
sS'end'
p209
I30
sS'goal'
p210
I30
sS'thereallvdon'
p211
I30
sS'caption'
p212
I30
sS'lluvia'
p213
I30
sS'chops'
p214
I30
sS'hairplanes'
p215
I30
sS'patton'
p216
I30
sS'1'
p217
I29
sS'how'
p218
I27
sS'hot'
p219
I29
sS'winners'
p220
I28
sS'venting'
p221
I30
sS'instead'
p222
I30
sS'(inglewood'
p223
I25
sS'goosebumps'
p224
I30
sS'inglewood>'
p225
I30
sS"vma's"
p226
I30
sS'profile'
p227
I30
sS'snaps'
p228
I30
sS'fever'
p229
I30
sS'okay'
p230
I29
sS'plans'
p231
I30
sS'rude'
p232
I29
sS'watch'
p233
I29
sS'after'
p234
I28
sS'long'
p235
I30
sS'good.,90301\n498361490437459969,javiboiii8,2014-08-10'
p236
I30
sS'birthday'
p237
I25
sS'lax'
p238
I29
sS'mad'
p239
I28
sS'truly'
p240
I30
sS'guys'
p241
I30
sS'unbelievably'
p242
I30
sS'man'
p243
I28
sS'a'
p244
I8
sS'surfing'
p245
I30
sS'fathers'
p246
I30
sS'chillen'
p247
I30
sS'light'
p248
I30
sS'lines'
p249
I30
sS'feels'
p250
I30
sS'or'
p251
I27
sS'switch'
p252
I30
sS'maintain'
p253
I30
sS'so'
p254
I23
sS'fuckin'
p255
I30
sS'capitalist'
p256
I30
sS'facebook'
p257
I30
sS'tbh,90301\n498362494369292289,javiboiii8,2014-08-10'
p258
I30
sS'hahaha,90301\n498689634902081536,javiboiii8,2014-08-11'
p259
I30
sS'talk'
p260
I30
sS"that's"
p261
I27
sS'cute'
p262
I30
sS'rn\xe2\x80\x9d'
p263
I30
sS'embarrassingly'
p264
I30
sS'help'
p265
I30
sS"don't"
p266
I24
sS'over'
p267
I28
sS'sooo'
p268
I30
sS'denial'
p269
I30
sS'neta'
p270
I27
sS'years'
p271
I30
sS'course'
p272
I30
sS'01:34:30.0,33.950887,-118.3553646,6012.02,clean'
p273
I30
sS"won't"
p274
I29
sS'looks'
p275
I29
sS'oven'
p276
I30
sS'still'
p277
I30
sS'nets'
p278
I30
sS'needa'
p279
I30
sS'thank'
p280
I29
sS'fit'
p281
I30
sS'la'
p282
I27
sS'lo'
p283
I30
sS'amazing'
p284
I30
sS'blaxican'
p285
I30
sS'winning'
p286
I29
sS'better'
p287
I30
sS'schnooterd'
p288
I30
sS'fade'
p289
I30
sS'tweets'
p290
I30
sS'bout'
p291
I29
sS'into'
p292
I30
sS'dad'
p293
I27
sS'freeman'
p294
I29
sS'good'
p295
I23
sS'somebody'
p296
I30
sS'yo'
p297
I30
sS'ya'
p298
I30
sS'nada'
p299
I29
sS'band'
p300
I30
sS'cutting'
p301
I30
sS'they'
p302
I29
sS'not'
p303
I24
sS'now'
p304
I25
sS'bouta'
p305
I29
sS'coctelito'
p306
I30
sS'name'
p307
I29
sS'realist'
p308
I30
sS'playin'
p309
I30
sS'always'
p310
I24
sS'drop'
p311
I30
sS'roast'
p312
I29
sS'hechizeros'
p313
I30
sS'went'
p314
I30
sS'economy'
p315
I30
sS'obligated'
p316
I30
sS'side'
p317
I27
sS"isn't"
p318
I29
sS'mean'
p319
I29
sS'em'
p320
I30
sS'el'
p321
I28
sS'en'
p322
I30
sS'england'
p323
I30
sS'another'
p324
I30
sS'doing'
p325
I29
sS'hard'
p326
I30
sS'idea'
p327
I30
sS'skank'
p328
I30
sS'toda'
p329
I30
sS'year'
p330
I30
sS'slave'
p331
I30
sS'lalabrea'
p332
I30
sS'morning'
p333
I29
sS'special'
p334
I30
sS'really'
p335
I26
sS'album'
p336
I30
sS'living'
p337
I30
sS'bacon,90301\n498362366472364034,javiboiii8,2014-08-10'
p338
I30
sS'god'
p339
I30
sS'since'
p340
I28
sS'mattered'
p341
I30
sS'looking'
p342
I30
sS'acting'
p343
I30
sS'stupid'
p344
I29
sS'perro'
p345
I30
sS'got'
p346
I27
sS'rn'
p347
I30
sS'cause'
p348
I25
sS'06:58:07.0,33.9508905,-118.3551245,6012.02,my'
p349
I30
sS'smart'
p350
I30
sS'shut'
p351
I29
sS"dick's"
p352
I30
sS"doesn't"
p353
I27
sS'timeline'
p354
I30
sS'molly'
p355
I29
sS'guess'
p356
I30
sS'free'
p357
I27
sS'mmm'
p358
I30
sS'reason'
p359
I30
sS'06:57:32.0,33.9508905,-118.3551245,6012.02,surfing'
p360
I30
sS'grandma'
p361
I30
sS'put'
p362
I30
sS'gots'
p363
I30
sS'anyhow'
p364
I30
sS'chavi'
p365
I29
sS'cheers'
p366
I30
sS'underwear'
p367
I30
sS'allies'
p368
I30
sS'vidcon'
p369
I30
sS"23:53:57.0,33.9507493,-118.3550456,6012.02,i'm"
p370
I30
sS'keep'
p371
I30
sS'thing'
p372
I29
sS'in.,90301\n498617145933058048,javiboiii8,2014-08-10'
p373
I30
sS'place'
p374
I29
sS'stone'
p375
I30
sS'horas'
p376
I29
sS'(at'
p377
I30
sS'think'
p378
I28
sS'south'
p379
I30
sS'first'
p380
I28
sS'carls'
p381
I30
sS'helping'
p382
I30
sS'feel'
p383
I30
sS'xd'
p384
I29
sS'one'
p385
I28
sS'wash'
p386
I30
sS'talked'
p387
I30
sS'done'
p388
I28
sS'bitch'
p389
I27
sS'zayne'
p390
I30
sS'miss'
p391
I29
sS'tomorrow'
p392
I26
sS'hood'
p393
I30
sS'millions'
p394
I30
sS'sends'
p395
I30
sS"you're"
p396
I29
sS'little'
p397
I29
sS'basketball'
p398
I30
sS'checked'
p399
I30
sS'caught'
p400
I30
sS'comfy'
p401
I30
sS'anyone'
p402
I29
sS'needed'
p403
I30
sS'2'
p404
I29
sS'california'
p405
I30
sS'tell'
p406
I30
sS'alfred'
p407
I30
sS'las'
p408
I30
sS'williams'
p409
I29
sS'too'
p410
I30
sS'//'
p411
I30
sS'eyes'
p412
I29
sS'selling'
p413
I29
sS'gear'
p414
I30
sS'that'
p415
I18
sS'season'
p416
I30
sS'universe'
p417
I30
sS'park'
p418
I30
sS'boba'
p419
I30
sS'forward'
p420
I30
sS'velasquez'
p421
I30
sS'nigga'
p422
I30
sS'z'
p423
I30
sS',90301\n498188422758936576,javiboiii8,2014-08-09'
p424
I30
sS'butt'
p425
I30
sS'cicia'
p426
I30
sS'than'
p427
I30
sS'boyfriend'
p428
I29
sS'ok.,90301\n498363539510145025,javiboiii8,2014-08-10'
p429
I30
sS'king'
p430
I30
sS'13'
p431
I30
sS'grew'
p432
I30
sS'lmao'
p433
I27
sS'showed'
p434
I30
sS'niiiiiice'
p435
I30
sS'hansley'
p436
I30
sS'bother'
p437
I30
sS'dockweiler'
p438
I30
sS'shower'
p439
I30
sS'you\xe2\x80\xa6'
p440
I30
sS'chillllll'
p441
I30
sS'channel...just'
p442
I30
sS'loves'
p443
I30
sS'were'
p444
I29
sS'dang'
p445
I30
sS'novio'
p446
I30
sS'playing'
p447
I30
sS'sean'
p448
I30
sS'and'
p449
I7
sS'date.\xe2\x80\xa6'
p450
I30
sS'look'
p451
I30
sS'mind'
p452
I30
sS'sad'
p453
I29
sS'tonight'
p454
I27
sS'talking'
p455
I30
sS'say'
p456
I27
sS'buy'
p457
I30
sS'have'
p458
I19
sS'need'
p459
I28
sS'yogurtland'
p460
I30
sS'breakfast'
p461
I28
sS'dragon'
p462
I30
sS'saw'
p463
I29
sS'any'
p464
I30
sS'mil'
p465
I30
sS'russians'
p466
I30
sS'congrats'
p467
I30
sS'lil'
p468
I30
sS'self'
p469
I30
sS'kittens'
p470
I30
sS'-'
p471
I28
sS'homeboy'
p472
I30
sS'this?,90301\n498361613129240576,javiboiii8,2014-08-10'
p473
I30
sS'socked'
p474
I30
sS'lip'
p475
I30
sS'take'
p476
I30
sS'doors'
p477
I30
sS'herre'
p478
I30
sS'menudo'
p479
I30
sS'play'
p480
I30
sS'sure'
p481
I30
sS'though'
p482
I28
sS'now,90301\n498689173549621248,javiboiii8,2014-08-11'
p483
I30
sS'who'
p484
I28
sS"sam's"
p485
I30
sS'most'
p486
I29
sS'bridget\xe2\x80\x9d'
p487
I30
sS'kay'
p488
I30
sS'why'
p489
I27
sS'lames'
p490
I30
sS'forever'
p491
I30
sS'don'
p492
I29
sS'dude???,90301\n498370528147546114,javiboiii8,2014-08-10'
p493
I30
sS'this!!!!!!dx'
p494
I30
sS'sometimes'
p495
I27
sS'hungry'
p496
I30
sS'brea'
p497
I30
sS'doe'
p498
I30
sS'definitely'
p499
I30
sS'kids."'
p500
I30
sS'clean'
p501
I30
sS'thunder'
p502
I30
sS'dos'
p503
I30
sS'blend'
p504
I30
sS'away'
p505
I30
sS'came'
p506
I30
sS'shop'
p507
I27
sS'despise'
p508
I30
sS'ugh'
p509
I30
sS'shot'
p510
I30
sS'bajo'
p511
I30
sS'brenda'
p512
I29
sS'show'
p513
I29
sS'text'
p514
I30
sS'drink.\xe2\x80\x9d'
p515
I30
sS'grandmas'
p516
I29
sS'chear'
p517
I30
sS'guey'
p518
I30
sS'summertime'
p519
I30
sS'pulga'
p520
I30
sS'nephew'
p521
I29
sS'chicken'
p522
I30
sS'nevada'
p523
I30
sS'fine'
p524
I29
sS'find'
p525
I30
sS'ayee'
p526
I30
sS'lmao,90301\n498618188607676416,javiboiii8,2014-08-10'
p527
I30
sS'out!!!\xe2\x80\xa6'
p528
I30
sS'cried'
p529
I30
sS'tire'
p530
I30
sS'with*'
p531
I30
sS'ayyyy'
p532
I30
sS"baby's"
p533
I30
sS'3'
p534
I30
sS'should'
p535
I30
sS'rico'
p536
I30
sS'only'
p537
I26
sS'going'
p538
I29
sS'pretty'
p539
I30
sS'tropic'
p540
I30
sS'watching'
p541
I27
sS'posted'
p542
I30
sS'sporting'
p543
I30
sS'hope'
p544
I30
sS'do'
p545
I25
sS'his'
p546
I25
sS'hit'
p547
I29
sS'get'
p548
I17
sS'beat'
p549
I30
sS'photography'
p550
I30
sS'de'
p551
I29
sS'stop'
p552
I29
sS'lucky'
p553
I30
sS'da'
p554
I30
sS'tbh'
p555
I29
sS'awww'
p556
I30
sS'12'
p557
I30
sS'yearr'
p558
I30
sS'collins'
p559
I30
sS'kong'
p560
I30
sS'dodgy'
p561
I30
sS'him'
p562
I29
sS'cuter'
p563
I30
sS'roles'
p564
I30
sS'industrias'
p565
I30
sS'disguise'
p566
I30
sS'cought'
p567
I30
sS'emo'
p568
I30
sS'cry'
p569
I30
sS'subways'
p570
I30
sS'calling'
p571
I29
sS'bad'
p572
I29
sS'bae'
p573
I27
sS'she'
p574
I30
sS'mercedes'
p575
I30
sS'through'
p576
I30
sS'where'
p577
I27
sS'yasss'
p578
I30
sS'respond'
p579
I30
sS'shhhhhh'
p580
I30
sS'310'
p581
I30
sS'pupushawty'
p582
I30
sS'sex'
p583
I30
sS'see'
p584
I28
sS'are'
p585
I20
sS'hoes'
p586
I30
sS'best'
p587
I26
sS'*looks'
p588
I30
sS'said'
p589
I28
sS'23:53:34.0,33.9508048,-118.355051,6012.02,my'
p590
I30
sS'24/7'
p591
I30
sS'movie'
p592
I30
sS'wow'
p593
I30
sS'hardest'
p594
I30
sS'outside'
p595
I30
sS"there's"
p596
I30
sS'lmaoyes'
p597
I30
sS'"on'
p598
I30
sS'hopefully'
p599
I30
sS'progress'
p600
I30
sS'repost'
p601
I30
sS'disrespect'
p602
I30
sS'we'
p603
I22
sS'korea'
p604
I30
sS'omg'
p605
I29
sS'trynna'
p606
I30
sS'joy'
p607
I29
sS'sorrow'
p608
I30
sS'lame,90301\n498707876408352768,javiboiii8,2014-08-11'
p609
I30
sS'jane'
p610
I30
sS'"grown"'
p611
I30
sS'job'
p612
I30
sS'nawh'
p613
I30
sS'wtf'
p614
I29
sS'cus'
p615
I30
sS'2pm'
p616
I30
sS'pissed'
p617
I30
sS'foes'
p618
I30
sS'joe'
p619
I30
sS'piece'
p620
I30
sS'last'
p621
I25
sS'bridget'
p622
I30
sS'treated'
p623
I30
sS'stupidest'
p624
I30
sS"he's"
p625
I28
sS'dar'
p626
I30
sS'contract'
p627
I30
sS's'
p628
I30
sS'busted'
p629
I30
sS'dejan'
p630
I30
sS'lookin'
p631
I30
sS'thang'
p632
I30
sS'china'
p633
I30
sS',90301\n498635805288439808,javiboiii8,2014-08-11'
p634
I30
sS'whole'
p635
I30
sS'asked'
p636
I29
sS"can't"
p637
I28
sS'lame,90301\n498710783040032768,javiboiii8,2014-08-11'
p638
I30
sS'diafrutando'
p639
I30
sS'drugs"'
p640
I30
sS'flavorless'
p641
I30
sS'drunk'
p642
I30
sS'gooooo'
p643
I30
sS'tuesday'
p644
I30
sS'address'
p645
I30
sS'komander,90301\n498643440716902400,javiboiii8,2014-08-11'
p646
I30
sS'header'
p647
I30
sS'66'
p648
I30
sS'church'
p649
I30
sS"wouldn't"
p650
I30
sS'actually'
p651
I30
sS'amigo'
p652
I30
sS'madre'
p653
I30
sS'sess'
p654
I30
sS'yay'
p655
I30
sS'seven707_dta'
p656
I28
sS'second'
p657
I30
sS"it's"
p658
I23
sS'autocorrect'
p659
I30
sS'classic'
p660
I30
sS'con'
p661
I30
sS'been'
p662
I25
sS'hitting'
p663
I29
sS'beer'
p664
I30
sS'damn'
p665
I30
sS'legit'
p666
I30
sS'judging'
p667
I30
sS'07:27:33.0,33.9507572,-118.355094,6012.02,okay,90301\n498369740142686208,javiboiii8,2014-08-10'
p668
I30
sS'inglewood,90301\n498361383038107648,javiboiii8,2014-08-10'
p669
I30
sS'mary'
p670
I30
sS'woke'
p671
I30
sS'wants'
p672
I30
sS'life'
p673
I30
sS'pic'
p674
I30
sS'shopping'
p675
I30
sS'both'
p676
I30
sS'fire'
p677
I30
sS"what's"
p678
I27
sS'crack'
p679
I30
sS'orphanage'
p680
I30
sS'tfti'
p681
I30
sS'roasting'
p682
I30
sS'chile'
p683
I30
sS'kicks'
p684
I30
sS'165'
p685
I30
sS'pig'
p686
I30
sS'spirit'
p687
I30
sS'those'
p688
I28
sS'volunteer'
p689
I30
sS'ahead'
p690
I30
sS'these'
p691
I30
sS'leave'
p692
I30
sS'rat'
p693
I30
sS'loser\xe2\x80\x9d'
p694
I30
sS'n'
p695
I30
sS'will'
p696
I27
sS'goods."'
p697
I30
sS'while'
p698
I29
sS'pizza'
p699
I30
sS'hahaha'
p700
I29
sS'balance'
p701
I30
sS'robin'
p702
I28
sS'chilling'
p703
I30
sS'at'
p704
I13
sS'<3'
p705
I30
sS'mexico'
p706
I30
sS'almost'
p707
I30
sS'is'
p708
I11
sS'sushi'
p709
I29
sS'it'
p710
I11
sS'22:09:26.0,33.94599457,-118.35902474,6012.02,s/o'
p711
I30
sS'someone'
p712
I30
sS'blam'
p713
I30
sS'in'
p714
I12
sS'partner'
p715
I30
sS'an'
p716
I30
sS'if'
p717
I30
sS'funny'
p718
I29
sS'hong'
p719
I30
sS'mins'
p720
I30
sS')'
p721
I30
sS'things'
p722
I29
sS'make'
p723
I30
sS'same'
p724
I26
sS'hey'
p725
I30
sS'film'
p726
I30
sS'buys'
p727
I30
sS'puttin'
p728
I30
sS'gets'
p729
I27
sS'paula'
p730
I30
sS'yung'
p731
I30
sS'week'
p732
I30
sS'15/16'
p733
I30
sS'ball'
p734
I30
sS'pho'
p735
I30
sS'flooded'
p736
I30
sS'drink'
p737
I30
sS'hang'
p738
I30
sS'beast'
p739
I28
sS'fucken'
p740
I28
sS'barber'
p741
I28
sS'two'
p742
I30
sS'jealous'
p743
I30
sS'c\xc3\xb3mplice'
p744
I30
sS'kid'
p745
I30
sS'butter'
p746
I30
sS'cristo\xe2\x80\xa6'
p747
I30
sS'off'
p748
I26
sS'i'
p749
I2
sS'iamlildeedee'
p750
I29
sS'goddamit'
p751
I30
sS'well'
p752
I30
sS'kept'
p753
I30
sS'thought'
p754
I30
sS'person'
p755
I30
sS'touching'
p756
I30
sS'lmaoo'
p757
I30
sS'comes'
p758
I30
sS'the'
p759
I3
sS'bumping'
p760
I29
sS'timberlake'
p761
I30
sS'left'
p762
I30
sS'summer'
p763
I30
sS'kk,90301\n498370046670823425,javiboiii8,2014-08-10'
p764
I30
sS'kiss'
p765
I30
sS'just'
p766
I16
sS'golden'
p767
I30
sS'being'
p768
I29
sS'diarrhea'
p769
I30
sS'gunna'
p770
I30
sS'yee'
p771
I30
sS'mientras'
p772
I30
sS'gwen'
p773
I30
sS'sonidito'
p774
I30
sS'07:26:19.0,33.950762,-118.3551187,6012.02,oh'
p775
I30
sS'happiness'
p776
I30
sS'based'
p777
I30
sS'refills'
p778
I30
sS'brianna'
p779
I30
sS'cut'
p780
I29
sS's\xc3\xa9'
p781
I30
sS'cup'
p782
I30
sS"we've"
p783
I30
sS'nikki'
p784
I30
sS'had'
p785
I29
sS'cuz'
p786
I29
sS'tbh\xe2\x80\x9d'
p787
I30
sS'battery'
p788
I30
sS'squad'
p789
I30
sS'ska'
p790
I30
sS'treatment'
p791
I30
sS'homies'
p792
I30
sS'has'
p793
I28
sS'surprised'
p794
I30
sS'gave'
p795
I30
sS'real'
p796
I28
sS'which'
p797
I30
sS'checking'
p798
I30
sS"who's"
p799
I29
sS'gonna'
p800
I24
sS'game'
p801
I30
sS'know'
p802
I27
sS'listening'
p803
I30
sS'world'
p804
I30
sS'regia'
p805
I30
sS'dreams'
p806
I30
sS'd'
p807
I30
sS'like'
p808
I24
sS'como'
p809
I30
sS'fries'
p810
I30
sS'sized'
p811
I30
sS'idk'
p812
I30
sS'either'
p813
I30
sS'-troy'
p814
I30
sS'night'
p815
I29
sS'bump'
p816
I30
sS'nice'
p817
I30
sS'heem'
p818
I30
sS'lager'
p819
I30
sS'21:51:14.0,33.94599457,-118.35902474,6012.02,happy'
p820
I30
sS'right'
p821
I23
sS'old'
p822
I30
sS'deal'
p823
I30
sS'people'
p824
I29
sS'fucking'
p825
I29
sS'twitter'
p826
I30
sS'some'
p827
I25
sS'back'
p828
I28
sS'hair'
p829
I30
sS'oscars'
p830
I30
sS'whaaaaat'
p831
I30
sS'home'
p832
I29
sS'<1295'
p833
I30
sS"tri's"
p834
I30
sS'friend'
p835
I30
sS'for'
p836
I14
sS"gettin'"
p837
I30
sS'fox'
p838
I30
sS'mines'
p839
I30
sS'moon'
p840
I30
sS'everything'
p841
I29
sS'espere'
p842
I30
sS'foo'
p843
I30
sS'be'
p844
I18
sS'bf'
p845
I30
sS'business'
p846
I30
sS'asap'
p847
I30
sS'07:29:27.0,33.950749,-118.3550887,6012.02,kk,90301\n498370477232889857,javiboiii8,2014-08-10'
p848
I30
sS's/o'
p849
I30
sS'standalone'
p850
I30
sS'beach'
p851
I30
sS'discount'
p852
I30
sS'19:07:07.0,33.94599459,-118.35902471,6012.02,we'
p853
I30
sS'nerves'
p854
I30
sS'rt'
p855
I30
sS'super'
p856
I30
sS'by'
p857
I27
sS'earlier'
p858
I30
sS'on'
p859
I19
sS'about'
p860
I27
sS'ok'
p861
I30
sS'justin'
p862
I30
sS'anything'
p863
I30
sS'oh'
p864
I28
sS'of'
p865
I14
sS'&'
p866
I30
sS'favorite'
p867
I30
sS'graduation'
p868
I30
sS'angeles'
p869
I30
sS'swear'
p870
I30
sS'oz'
p871
I30
sS'act'
p872
I30
sS'20weeks\xe2\x98\xba\xef\xb8\x8f'
p873
I30
sS'wanna'
p874
I25
sS'idc'
p875
I29
sS'ladies'
p876
I30
sS'own'
p877
I29
sS'there\xe2\x80\xa6'
p878
I30
sS'around'
p879
I30
sS'blessed'
p880
I30
sS'son'
p881
I29
sS'down'
p882
I28
sS'nothing'
p883
I30
sS'momma'
p884
I30
sS'because'
p885
I27
sS'heated'
p886
I30
sS'your'
p887
I23
sS'smells'
p888
I30
sS'eh'
p889
I30
sS'her'
p890
I29
sS'there'
p891
I28
sS'ca)'
p892
I25
sS'lol'
p893
I22
sS'gallery'
p894
I30
sS'los'
p895
I19
sS'low'
p896
I29
sS'way'
p897
I28
sS'biggest'
p898
I30
sS'was'
p899
I18
sS'scared'
p900
I30
sS'happy'
p901
I29
sS'vicente'
p902
I30
sS'idc\xe2\x80\x9d'
p903
I30
sS'shakeez'
p904
I30
sS'neighbors'
p905
I28
sS"i've"
p906
I29
sS'muhaha'
p907
I30
sS'ahhh'
p908
I30
sS'stunning'
p909
I30
sS'but'
p910
I27
sS'hu'
p911
I30
sS'cloth'
p912
I30
sS'trun'
p913
I30
sS'episode'
p914
I30
sS'serio'
p915
I29
sS'with'
p916
I15
sS'he'
p917
I20
sS'made'
p918
I28
sS'wise'
p919
I30
sS'mtv'
p920
I30
sS'up'
p921
I13
sS'us'
p922
I30
sS'ur'
p923
I29
sS'planet'
p924
I30
sS'te'
p925
I30
sS'slander'
p926
I30
sS'un'
p927
I29
sS'faded'
p928
I30
sS'problem'
p929
I30
sS'06:54:02.0,33.9508099,-118.3552803,6012.02,inglewood'
p930
I30
sS'minutes'
p931
I30
sS'thicke'
p932
I30
sS'catch'
p933
I30
sS'ordered'
p934
I30
sS'suprema'
p935
I30
sS'af'
p936
I28
sS'\xe2\x98\xba\xe2\x98\xba,90301\n498633358033682432,javiboiii8,2014-08-11'
p937
I30
sS'am'
p938
I28
sS'drive'
p939
I30
sS'as'
p940
I26
sS"cousin's"
p941
I29
sS'aw'
p942
I29
sS'av'
p943
I30
sS'females'
p944
I30
sS'face'
p945
I30
sS'naming'
p946
I30
sS'shit'
p947
I23
sS'hami'
p948
I30
sS'on,90301\n498620504870092802,javiboiii8,2014-08-11'
p949
I30
sS'no'
p950
I21
sS'collin'
p951
I29
sS'nah'
p952
I29
sS'vote\xe2\x80\xa6'
p953
I30
sS'when'
p954
I17
sS',90301\n498680605375094784,javiboiii8,2014-08-11'
p955
I30
sS'other'
p956
I29
sS'que'
p957
I30
sS'sick'
p958
I30
sS'brings'
p959
I30
sS'yours,90301\n498643590399008768,javiboiii8,2014-08-11'
p960
I30
sS'you'
p961
I6
sS'out'
p962
I17
sS'10'
p963
I30
sS'scored'
p964
I30
sS'canada'
p965
I30
sS'francisco'
p966
I29
sS'noche'
p967
I30
sS'brothers'
p968
I30
sS'wing'
p969
I30
sS'june'
p970
I30
sS'stay'
p971
I29
sS"let's"
p972
I29
sS'gurlz'
p973
I30
sS'chance'
p974
I30
sS'rested'
p975
I30
sS'cricketnation'
p976
I30
sS'kinda'
p977
I30
sS'snitch'
p978
I30
sS'of\xe2\x80\xa6'
p979
I30
sS'posters'
p980
I30
sS'ago'
p981
I30
sS'miles'
p982
I30
sS'im'
p983
I30
sS'\xe2\x80\x94'
p984
I29
sS'wife'
p985
I30
sS'salvador...light'
p986
I30
sS'age'
p987
I29
sS'dog'
p988
I30
sS'fett'
p989
I30
sS'lowkey'
p990
I30
sS'hella'
p991
I29
sS'u'
p992
I28
sS'time'
p993
I25
sS"she's"
p994
I30
sS'once'
p995
I30
sS'-.-'
p996
I30
s.