(dp0
S''
p1
I2
sS'all'
p2
I20
sS'code'
p3
I23
sS'05:23:59.0,33.981647,-118.3624668,6013.01,gym'
p4
I23
sS':)'
p5
I22
sS'15:27:00.0,33.97872,-118.3585822,6013.01,spooks!,90302\n490717857655693312,dcoops_5,2014-07-20'
p6
I23
sS'penuel'
p7
I23
sS'massage,90302\n344599163603910658,dcoops_5,2013-06-11'
p8
I23
sS'baby'
p9
I22
sS'swear,90302\n527640138172874752,wraycharless,2014-10-30'
p10
I23
sS"swangin'"
p11
I22
sS'wwwyki,90302\n494380495082229761,elanablinder,2014-07-30'
p12
I23
sS'go'
p13
I16
sS'follow'
p14
I23
sS'hate'
p15
I21
sS'tweet'
p16
I23
sS'young'
p17
I23
sS'life!simply'
p18
I23
sS'to'
p19
I4
sS'finally'
p20
I23
sS'bike'
p21
I23
sS'bruh,90302\n489973933215465473,daynaa17,2014-07-18'
p22
I23
sS'tf'
p23
I22
sS'lord'
p24
I23
sS'sorry'
p25
I23
sS'worth'
p26
I22
sS'sent'
p27
I23
sS'kief'
p28
I23
sS'town'
p29
I23
sS'confirmation'
p30
I23
sS'3am'
p31
I22
sS'cemetary'
p32
I23
sS'fav'
p33
I23
sS'eyelashes'
p34
I23
sS'tacos'
p35
I22
sS'(natural)'
p36
I23
sS'worst'
p37
I23
sS'fam'
p38
I23
sS'cook'
p39
I23
sS'join'
p40
I23
sS'trouble'
p41
I23
sS'1s'
p42
I23
sS'list...,90302\n372187389747163136,dcoops_5,2013-08-27'
p43
I23
sS'cool'
p44
I23
sS'tickets'
p45
I23
sS'school'
p46
I23
sS'did'
p47
I20
sS'brother'
p48
I23
sS'ryan'
p49
I23
sS'try'
p50
I22
sS'tunnel'
p51
I23
sS'hittin'
p52
I23
sS"'atcha"
p53
I23
sS'childish'
p54
I23
sS'alarm'
p55
I23
sS'yall'
p56
I23
sS"i'll"
p57
I22
sS'regret'
p58
I23
sS'phones'
p59
I23
sS'baby?,90302\n527350064847790081,wraycharless,2014-10-29'
p60
I23
sS'streets'
p61
I23
sS'bacon'
p62
I23
sS'pulorie'
p63
I23
sS'messy'
p64
I23
sS'second'
p65
I23
sS'street'
p66
I23
sS'video'
p67
I23
sS'assss'
p68
I23
sS'click'
p69
I23
sS'17:08:58.0,33.97841715,-118.36242061,6013.01,shit'
p70
I23
sS'even'
p71
I18
sS'strangest'
p72
I23
sS'what'
p73
I18
sS'inglewood'
p74
I20
sS'sum'
p75
I23
sS'anniversary'
p76
I23
sS'valeu'
p77
I23
sS'suv'
p78
I23
sS'goes'
p79
I23
sS'sup'
p80
I23
sS'weather'
p81
I23
sS'new'
p82
I23
sS'ever'
p83
I22
sS'public'
p84
I23
sS'told'
p85
I23
sS'body'
p86
I23
sS'full'
p87
I23
sS'zack'
p88
I23
sS'nene'
p89
I23
sS'never'
p90
I22
sS'here'
p91
I22
sS'let'
p92
I23
sS'meet'
p93
I23
sS"aren't"
p94
I23
sS'earthquake'
p95
I22
sS'wait'
p96
I23
sS'every'
p97
I23
sS'great'
p98
I23
sS'leaving'
p99
I23
sS'smoke'
p100
I23
sS'pick'
p101
I23
sS'loooveeeee'
p102
I23
sS"i'm"
p103
I12
sS'makes'
p104
I23
sS'pillow'
p105
I23
sS'sheila'
p106
I23
sS'galera'
p107
I23
sS'love'
p108
I17
sS'untangled'
p109
I23
sS'family'
p110
I21
sS'win'
p111
I22
sS'app'
p112
I23
sS'ethiopian'
p113
I22
sS'nice,90302\n483276408832016385,goldiegloc,2014-06-29'
p114
I23
sS'meats'
p115
I22
sS'stern'
p116
I23
sS'ebony'
p117
I22
sS'use'
p118
I22
sS'exciting'
p119
I23
sS'from'
p120
I20
sS'takes'
p121
I23
sS'working'
p122
I21
sS'&'
p123
I18
sS'angry'
p124
I23
sS',90302\n527343962034810880,wraycharless,2014-10-29'
p125
I23
sS'visit'
p126
I23
sS'next'
p127
I23
sS'bayou'
p128
I22
sS'live'
p129
I22
sS'23:36:57.0,33.9811544,-118.36958971,6013.01,naked,90302\n513785534536110080,larodojr,2014-09-21'
p130
I23
sS'themselves'
p131
I23
sS'today'
p132
I21
sS'more'
p133
I23
sS'tryna'
p134
I23
sS'door'
p135
I23
sS'mcdaniel'
p136
I23
sS'successful'
p137
I23
sS'02:42:43.0,33.97996443,-118.37009557,6013.01,in'
p138
I23
sS"block's"
p139
I23
sS'haha'
p140
I23
sS'occurred'
p141
I22
sS'it'
p142
I15
sS'cookouts'
p143
I23
sS"ain't"
p144
I20
sS'broke'
p145
I23
sS'known'
p146
I23
sS'single\xe2\x80\x9d'
p147
I23
sS'aligned'
p148
I23
sS'me'
p149
I12
sS'locked'
p150
I23
sS'trader'
p151
I23
sS'40'
p152
I23
sS'this'
p153
I8
sS'car'
p154
I23
sS'ride'
p155
I23
sS'work'
p156
I18
sS'16:49:13.0,33.97743341,-118.36943679,6013.01,say'
p157
I23
sS'fast'
p158
I23
sS'friendly'
p159
I23
sS'movies'
p160
I23
sS'hardest'
p161
I23
sS'can'
p162
I17
sS'v'
p163
I23
sS'making'
p164
I23
sS'my'
p165
I5
sS'def'
p166
I23
sS'streak'
p167
I23
sS'crazy'
p168
I22
sS'thirsty'
p169
I23
sS'plate'
p170
I23
sS'awesome'
p171
I23
sS"didn't"
p172
I23
sS'fuck'
p173
I21
sS'states'
p174
I23
sS'rushed'
p175
I23
sS'beautiful'
p176
I23
sS'woman'
p177
I23
sS'something'
p178
I20
sS'want'
p179
I20
sS':-)'
p180
I23
sS'nightclub'
p181
I23
sS'all-access'
p182
I23
sS'subconsciously'
p183
I23
sS'winter'
p184
I23
sS'means'
p185
I23
sS'gasol'
p186
I23
sS'how'
p187
I20
sS'hot'
p188
I22
sS'jiu-jitsu'
p189
I23
sS'(inglewood'
p190
I21
sS'goat'
p191
I23
sS'pizza'
p192
I23
sS'map'
p193
I22
sS'staying'
p194
I23
sS'okay'
p195
I23
sS'after'
p196
I23
sS'kalani'
p197
I23
sS'birthday'
p198
I23
sS'2.0'
p199
I23
sS'mad'
p200
I23
sS'coming'
p201
I23
sS'such'
p202
I22
sS'choice'
p203
I23
sS'authentic'
p204
I23
sS'sorrel\xe2\x80\xa6'
p205
I23
sS'man'
p206
I20
sS'a'
p207
I7
sS'jurassic'
p208
I23
sS'susan'
p209
I23
sS'6th'
p210
I23
sS'idc'
p211
I23
sS'funniest'
p212
I22
sS'things'
p213
I23
sS'stocker'
p214
I23
sS'martini'
p215
I23
sS'jholloway88'
p216
I23
sS"that's"
p217
I21
sS'mexican'
p218
I21
sS"don't"
p219
I18
sS'over'
p220
I21
sS'soon'
p221
I23
sS'looks'
p222
I22
sS'shit\xe2\x80\x9d'
p223
I23
sS'still'
p224
I21
sS'ticket'
p225
I23
sS'before'
p226
I21
sS'ima'
p227
I22
sS'0.62mi'
p228
I22
sS'group'
p229
I23
sS'curly'
p230
I23
sS'the\xe2\x80\xa6'
p231
I23
sS'sunday'
p232
I23
sS'[pic]'
p233
I23
sS'better'
p234
I22
sS'bummer'
p235
I23
sS'tweets'
p236
I23
sS'bout'
p237
I22
sS'sauce'
p238
I23
sS"haven't"
p239
I23
sS'then'
p240
I23
sS'them'
p241
I20
sS'good'
p242
I22
sS'serra'
p243
I23
sS'yo'
p244
I22
sS'food'
p245
I20
sS'workout'
p246
I23
sS'break'
p247
I22
sS"mom's"
p248
I23
sS'starbucks'
p249
I23
sS'they'
p250
I19
sS'not'
p251
I19
sS'22:15:39.0,33.97948,-118.3591118,6013.01,that'
p252
I23
sS'now'
p253
I21
sS'day'
p254
I22
sS'bombbbbb'
p255
I23
sS'23:12:11.0,33.97993783,-118.35827938,6013.01'
p256
I23
sS'name'
p257
I22
sS'rant'
p258
I23
sS'always'
p259
I20
sS'l'
p260
I22
sS'lifetime'
p261
I23
sS'magnitude'
p262
I22
sS'ya'
p263
I18
sS'mean'
p264
I23
sS'em'
p265
I23
sS'gaming'
p266
I23
sS'doing'
p267
I19
sS'house'
p268
I22
sS'ea'
p269
I23
sS'yeah'
p270
I21
sS'ball'
p271
I23
sS'year'
p272
I23
sS'our'
p273
I22
sS'girl'
p274
I20
sS'saturday'
p275
I23
sS'out'
p276
I18
sS'rt'
p277
I23
sS'oooo'
p278
I23
sS'by'
p279
I21
sS'accomplish'
p280
I23
sS'velvet'
p281
I23
sS'gradient'
p282
I23
sS'open'
p283
I23
sS'boutique'
p284
I23
sS'george'
p285
I22
sS'looking'
p286
I23
sS'seriously'
p287
I22
sS'stupid'
p288
I23
sS'bouvie'
p289
I23
sS'hill'
p290
I23
sS'7'
p291
I23
sS'smh'
p292
I21
sS'22:34:07.0,33.9805419,-118.3585381,6013.01,wth'
p293
I23
sS'got'
p294
I21
sS'cause'
p295
I23
sS'red'
p296
I23
sS'processed'
p297
I23
sS'ass'
p298
I21
sS'shut'
p299
I23
sS'perception'
p300
I23
sS'bww'
p301
I23
sS'little'
p302
I23
sS'attending'
p303
I23
sS'california'
p304
I22
sS'luvvvvvvvv'
p305
I23
sS'princess'
p306
I23
sS'shot'
p307
I23
sS'ate'
p308
I23
sS'yard'
p309
I23
sS'salvadorian'
p310
I23
sS'g'
p311
I23
sS',90302\n487305312840327168,cheeeellybean,2014-07-10'
p312
I23
sS'47958'
p313
I23
sS'headphones'
p314
I23
sS'so'
p315
I13
sS'keep'
p316
I22
sS'heck'
p317
I23
sS'pudding'
p318
I23
sS'w'
p319
I23
sS'slurpee'
p320
I23
sS'promotion'
p321
I23
sS'onto'
p322
I23
sS'think'
p323
I22
sS'first'
p324
I21
sS'feed'
p325
I23
sS'enjoy'
p326
I23
sS'cantina'
p327
I23
sS'dont'
p328
I23
sS'feel'
p329
I23
sS'15:13:29.0,33.9772903,-118.3612599,6013.01,hi'
p330
I23
sS'bicycles)'
p331
I23
sS'one'
p332
I21
sS'your\xe2\x80\xa6'
p333
I23
sS'wash'
p334
I23
sS'lol'
p335
I14
sS'blank'
p336
I22
sS'sober'
p337
I23
sS'clarity'
p338
I23
sS'miss'
p339
I21
sS'tomorrow'
p340
I22
sS'soon\xe2\x80\xa6'
p341
I23
sS"doesn't"
p342
I23
sS'horse'
p343
I21
sS"there's"
p344
I23
sS'150$'
p345
I23
sS'guys'
p346
I23
sS'girls'
p347
I23
sS'least'
p348
I21
sS'heights'
p349
I22
sS'anyone'
p350
I23
sS'wonderful'
p351
I23
sS'too'
p352
I23
sS'convention'
p353
I23
sS'white'
p354
I23
sS'messing'
p355
I23
sS'air|'
p356
I23
sS'banana'
p357
I23
sS'friend'
p358
I23
sS'eyes'
p359
I23
sS'lot'
p360
I23
sS'big'
p361
I23
sS'that'
p362
I10
sS'park'
p363
I23
sS'mmmm'
p364
I23
sS'cops'
p365
I23
sS'because'
p366
I23
sS'ag\xc3\xbcitas'
p367
I23
sS'burrito'
p368
I23
sS'pnd'
p369
I23
sS'that.,90302\n488523571245744128,reynafuckencia,2014-07-14'
p370
I23
sS'kind'
p371
I23
sS'$10'
p372
I23
sS'lmao'
p373
I22
sS'18'
p374
I23
sS'goodnight'
p375
I23
sS'bed'
p376
I23
sS'dogs'
p377
I23
sS'$hawty'
p378
I23
sS'were'
p379
I22
sS'm\xc3\xad'
p380
I23
sS'bet'
p381
I23
sS'and'
p382
I8
sS'kidding'
p383
I23
sS'julian'
p384
I23
sS'hoes'
p385
I23
sS'1.8'
p386
I23
sS'currently\xe2\x80\xa6'
p387
I23
sS'anybody'
p388
I23
sS'tonight'
p389
I23
sS'say'
p390
I22
sS'have'
p391
I20
sS'lurking'
p392
I23
sS'need'
p393
I16
sS'breakfast'
p394
I23
sS'linked'
p395
I23
sS'sell'
p396
I23
sS'nights'
p397
I23
sS'dallas'
p398
I23
sS'lil'
p399
I22
sS'fucking'
p400
I23
sS'-'
p401
I22
sS'uuuuup'
p402
I23
sS'fixin'
p403
I23
sS'omfg'
p404
I23
sS'derek'
p405
I23
sS'take'
p406
I21
sS'siesta'
p407
I23
sS'green'
p408
I21
sS'grips'
p409
I23
sS'cookout'
p410
I23
sS'se'
p411
I23
sS'wooop'
p412
I23
sS'play'
p413
I23
sS"lisa's"
p414
I23
sS'20:30:51.0,33.97745584,-118.36116437,6013.01,yeah'
p415
I23
sS'thrilled'
p416
I23
sS'who'
p417
I22
sS'20:23:11.0,33.980705,-118.358681,6013.01,take'
p418
I23
sS'beta'
p419
I23
sS"joe's"
p420
I23
sS'panic'
p421
I23
sS'why'
p422
I22
sS'understands'
p423
I23
sS'15:15:08.0,33.9811278,-118.3688158,6013.01,isaiah'
p424
I23
sS'average'
p425
I23
sS'witnessed'
p426
I23
sS'flow'
p427
I23
sS'hungry'
p428
I23
sS'talk'
p429
I23
sS'clean'
p430
I23
sS'movie'
p431
I23
sS'up\xe2\x80\x9d'
p432
I23
sS'7:30'
p433
I23
sS'ugh'
p434
I23
sS'bomb'
p435
I21
sS'show'
p436
I22
sS'ending'
p437
I23
sS'nephew'
p438
I22
sS'gtill'
p439
I23
sS'd5'
p440
I23
sS'find'
p441
I23
sS'16:35:00.0,33.98055317,-118.35854924,6013.01,i'
p442
I23
sS'realizing'
p443
I23
sS'laughlin'
p444
I23
sS'nicknames'
p445
I23
sS'ayyyy'
p446
I23
sS'shitshow'
p447
I23
sS'x-men'
p448
I23
sS'should'
p449
I23
sS'yea'
p450
I23
sS'going'
p451
I21
sS'black'
p452
I22
sS'grille)'
p453
I23
sS'pretty'
p454
I23
sS'leave!lmao,90302\n483296074610663425,goldiegloc,2014-06-29'
p455
I23
sS'hope'
p456
I22
sS'wearing'
p457
I23
sS'do'
p458
I18
sS'his'
p459
I23
sS'getin'
p460
I23
sS'get'
p461
I13
sS'dope'
p462
I23
sS'da'
p463
I23
sS'feels'
p464
I23
sS'killers'
p465
I23
sS'redeem'
p466
I23
sS'fairview'
p467
I23
sS'naybors'
p468
I23
sS'sse'
p469
I23
sS'during'
p470
I22
sS'dr'
p471
I23
sS'chutney'
p472
I23
sS'ghetto'
p473
I23
sS'do\xe2\x80\xa6'
p474
I23
sS'manager'
p475
I23
sS'bar'
p476
I22
sS'arrests'
p477
I23
sS'morning'
p478
I22
sS'bad'
p479
I22
sS'bae'
p480
I23
sS'mascara'
p481
I22
sS'dangerous'
p482
I23
sS'deli'
p483
I23
sS'poboys...look'
p484
I23
sS'pants'
p485
I23
sS'vision'
p486
I23
sS'greetings'
p487
I23
sS"y'all"
p488
I23
sS'layah'
p489
I23
sS'concert'
p490
I23
sS'fair'
p491
I23
sS'w/'
p492
I23
sS'eaton'
p493
I23
sS'sex'
p494
I23
sS"shouldn't"
p495
I23
sS'see'
p496
I18
sS'are'
p497
I18
sS'desperate'
p498
I23
sS'05:25:05.0,33.9812763,-118.3616194,6013.01,one'
p499
I23
sS"gary's"
p500
I23
sS'drunk,90302\n527336898952720385,wraycharless,2014-10-29'
p501
I23
sS'best'
p502
I23
sS'05:43:40.0,33.98066161,-118.36869439,6013.01,yo'
p503
I23
sS'said'
p504
I22
sS'woman!phenomenal'
p505
I23
sS'luv'
p506
I23
sS'pictures'
p507
I22
sS'away'
p508
I23
sS'please'
p509
I23
sS'its'
p510
I23
sS'03:24:39.0,33.9795663,-118.359119,6013.01,advice'
p511
I23
sS'3'
p512
I23
sS'won'
p513
I23
sS'nope'
p514
I23
sS'across'
p515
I23
sS'bought'
p516
I23
sS'limelight'
p517
I23
sS'we'
p518
I22
sS'men'
p519
I23
sS'omg'
p520
I23
sS'god'
p521
I23
sS',90302\n337587505639587840,cool_cunts,2013-05-23'
p522
I23
sS'creep,90302\n326852182383149058,cool_cunts,2013-04-24'
p523
I23
sS'attention'
p524
I21
sS'style'
p525
I23
sS'however'
p526
I23
sS'surprised.,90302\n480544284874407936,offtophenry,2014-06-22'
p527
I23
sS'bosh'
p528
I23
sS'joe'
p529
I23
sS'key'
p530
I23
sS'wp'
p531
I23
sS'wth'
p532
I23
sS'come'
p533
I22
sS'hardline'
p534
I23
sS',90302\n527344489137197056,wraycharless,2014-10-29'
p535
I23
sS'06:21:38.0,33.98117791,-118.36812566,6013.01,i'
p536
I23
sS'career'
p537
I23
sS'many'
p538
I20
sS"wouldn't"
p539
I22
sS'la'
p540
I23
sS'minds'
p541
I23
sS'players'
p542
I23
sS'games'
p543
I23
sS'awards'
p544
I23
sS'escadaman'
p545
I23
sS'22:33:15.0,33.98005386,-118.35849769,6013.01,out'
p546
I23
sS"can't"
p547
I22
sS'wear'
p548
I23
sS'xd'
p549
I23
sS'05:49:20.0,33.98112488,-118.36817932,6013.01,,90302\n527335561775026177,wraycharless,2014-10-29'
p550
I23
sS'headed'
p551
I23
sS'simple'
p552
I23
sS'ca'
p553
I18
sS'walk'
p554
I22
sS'canyon'
p555
I23
sS'squeeled'
p556
I23
sS"couldn't"
p557
I23
sS'springs'
p558
I23
sS'actually'
p559
I23
sS'04:03:10.0,33.97759805,-118.36546915,6013.01,im'
p560
I23
sS'late'
p561
I23
sS'yay'
p562
I23
sS'beef'
p563
I23
sS"it's"
p564
I20
sS'been'
p565
I21
sS"lucille's"
p566
I23
sS'much'
p567
I21
sS'damn'
p568
I23
sS'ah'
p569
I23
sS'billionaires'
p570
I23
sS'meeting'
p571
I23
sS'woke'
p572
I22
sS'life'
p573
I23
sS'a\xc3\xa7a\xc3\xad'
p574
I23
sS'drugs'
p575
I23
sS"what's"
p576
I22
sS'moment'
p577
I23
sS'rocking'
p578
I23
sS'an'
p579
I23
sS'weeks'
p580
I23
sS'those'
p581
I23
sS'sound'
p582
I23
sS'homes'
p583
I23
sS'myself'
p584
I23
sS'crenshaw'
p585
I23
sS'tank'
p586
I23
sS',90302\n417506118399586308,cali_orignal,2013-12-30'
p587
I23
sS'these'
p588
I22
sS'might'
p589
I23
sS'n'
p590
I21
sS'will'
p591
I22
sS'near'
p592
I23
sS'ratchet'
p593
I23
sS'dude'
p594
I23
sS'passes'
p595
I23
sS'pushin'
p596
I23
sS'almost'
p597
I23
sS'is'
p598
I16
sS'site'
p599
I23
sS'sleeping'
p600
I23
sS'vp'
p601
I23
sS'im'
p602
I22
sS'in'
p603
I10
sS'lol,90302\n488524449679831041,reynafuckencia,2014-07-14'
p604
I23
sS'if'
p605
I18
sS'funny'
p606
I23
sS'anymore'
p607
I23
sS'perform'
p608
I23
sS'pay'
p609
I23
sS'make'
p610
I21
sS'same'
p611
I23
sS'puig'
p612
I22
sS'texting'
p613
I23
sS'party'
p614
I23
sS'finish'
p615
I23
sS'promo'
p616
I23
sS'kemp'
p617
I23
sS'running'
p618
I23
sS'fucked'
p619
I23
sS'changing'
p620
I23
sS'totally'
p621
I22
sS'weird'
p622
I23
sS'hosephine'
p623
I23
sS'off'
p624
I21
sS'i'
p625
I1
sS'iamlildeedee'
p626
I22
sS'homerun'
p627
I23
sS'well'
p628
I21
sS'mortuary)'
p629
I23
sS'grill....having'
p630
I23
sS'02:55:01.0,33.97708483,-118.36708303,6013.01,i'
p631
I23
sS'02:54:20.0,33.97841715,-118.36242061,6013.01,these'
p632
I23
sS'without'
p633
I23
sS'y'
p634
I23
sS'hearts'
p635
I23
sS'the'
p636
I3
sS'spend'
p637
I23
sS'left'
p638
I23
sS'eyebrows'
p639
I23
sS'just'
p640
I14
sS'being'
p641
I21
sS'photo'
p642
I23
sS'gunna'
p643
I23
sS'lucius'
p644
I23
sS'cheer'
p645
I23
sS'kill'
p646
I22
sS'thanks'
p647
I22
sS'followed'
p648
I23
sS'yet'
p649
I23
sS'00:16:47.0,33.9778765,-118.3622368,6013.01,waking'
p650
I23
sS'cancer'
p651
I23
sS'had'
p652
I21
sS'cuz'
p653
I23
sS'silver'
p654
I23
sS'slauson'
p655
I23
sS'wet'
p656
I23
sS'tax'
p657
I23
sS'has'
p658
I22
sS'easter'
p659
I23
sS'05:46:10.0,33.98112833,-118.36817548,6013.01,some'
p660
I23
sS'surprised'
p661
I23
sS'real'
p662
I23
sS'euip'
p663
I23
sS'around'
p664
I23
sS'<<<<<'
p665
I23
sS'online'
p666
I23
sS'gonna'
p667
I23
sS'early'
p668
I23
sS'game'
p669
I21
sS'cream,90302\n496527290973442048,daynaa17,2014-08-05'
p670
I23
sS'biz'
p671
I23
sS'know'
p672
I17
sS'using'
p673
I23
sS'man,90302\n429490404493238276,dcoops_5,2014-02-01'
p674
I23
sS'intersection'
p675
I23
sS'd'
p676
I23
sS'like'
p677
I11
sS'pregnant'
p678
I23
sS'twin'
p679
I23
sS'homegirl'
p680
I23
sS'untangle'
p681
I23
sS't'
p682
I23
sS'labrea'
p683
I23
sS'mr'
p684
I23
sS'battlefield'
p685
I22
sS'right'
p686
I20
sS'old'
p687
I23
sS'people'
p688
I19
sS'sends'
p689
I23
sS'scared'
p690
I23
sS'some'
p691
I17
sS'back'
p692
I22
sS'?\xe2\x80\x9d'
p693
I23
sS'palm'
p694
I23
sS',90302\n487273794608693248,cheeeellybean,2014-07-10'
p695
I23
sS'home'
p696
I17
sS'guess'
p697
I23
sS'me,90302\n527336361599459328,wraycharless,2014-10-29'
p698
I23
sS'roti'
p699
I23
sS'for'
p700
I14
sS'phenomenal'
p701
I23
sS'legal'
p702
I23
sS'03:21:10.0,33.9795836,-118.3591205,6013.01,full'
p703
I23
sS'prom'
p704
I22
sS'does'
p705
I23
sS'wangs'
p706
I23
sS'caredo'
p707
I23
sS'14:05:36.0,33.97759048,-118.36943189,6013.01,up'
p708
I23
sS'be'
p709
I11
sS'knew'
p710
I23
sS'eating'
p711
I23
sS'bc'
p712
I23
sS'lmfao'
p713
I21
sS'word'
p714
I23
sS'martin'
p715
I23
sS'broken'
p716
I23
sS'everyday'
p717
I23
sS'lottery'
p718
I23
sS'r'
p719
I23
sS'ladera'
p720
I22
sS'stage'
p721
I23
sS'hearing'
p722
I23
sS'on'
p723
I17
sS'about'
p724
I20
sS"eli's"
p725
I23
sS'ok'
p726
I23
sS'would'
p727
I23
sS'getting'
p728
I22
sS'of'
p729
I9
sS'months'
p730
I23
sS'favorite'
p731
I22
sS'fam\xe3\x80\xb0,90302\n527334933283733505,wraycharless,2014-10-29'
p732
I23
sS'o'
p733
I22
sS'shrimp'
p734
I23
sS'angeles'
p735
I18
sS'swear'
p736
I23
sS'13:49:16.0,33.98045719,-118.35861556,6013.01,work'
p737
I23
sS'15:50:49.0,33.97867237,-118.36184054,6013.01,sko'
p738
I23
sS'wanna'
p739
I19
sS'or'
p740
I21
sS'ladies'
p741
I23
sS'house!,90302\n487363951395471360,cheeeellybean,2014-07-10'
p742
I23
sS'into'
p743
I22
sS'down'
p744
I23
sS'momma'
p745
I23
sS'nigga'
p746
I22
sS'brush'
p747
I23
sS'registration'
p748
I23
sS'quickly'
p749
I23
sS'your'
p750
I19
sS'marie'
p751
I23
sS'her'
p752
I23
sS'few'
p753
I23
sS'friends'
p754
I21
sS'there'
p755
I21
sS'ca)'
p756
I21
sS'long'
p757
I22
sS'fight'
p758
I22
sS'posted'
p759
I23
sS'los'
p760
I18
sS"how'd"
p761
I23
sS'racist'
p762
I23
sS'way'
p763
I23
sS'was'
p764
I16
sS'twitter'
p765
I23
sS'happy'
p766
I23
sS'coolin'
p767
I23
sS'esculated'
p768
I23
sS'head'
p769
I23
sS"i've"
p770
I22
sS'bus'
p771
I23
sS'hw'
p772
I23
sS'but'
p773
I18
sS'ahhhh....getting'
p774
I23
sS'18:40:14.0,33.98025884,-118.35880338,6013.01,lunch'
p775
I23
sS'boys'
p776
I23
sS'heat'
p777
I22
sS'hear'
p778
I23
sS'e'
p779
I23
sS'with'
p780
I9
sS'he'
p781
I22
sS"they're"
p782
I22
sS'rush'
p783
I23
sS'places'
p784
I23
sS'bearly'
p785
I23
sS'wish'
p786
I22
sS'official'
p787
I23
sS'kylan'
p788
I23
sS'up'
p789
I15
sS'r.i.p'
p790
I23
sS'limit'
p791
I23
sS'called'
p792
I23
sS'uber'
p793
I21
sS'shooter'
p794
I23
sS'videos'
p795
I23
sS"nelson's\xe2\x80\xa6"
p796
I23
sS'ballers'
p797
I23
sS'day,90302\n496527014136778752,daynaa17,2014-08-05'
p798
I23
sS'drive'
p799
I23
sS'fly'
p800
I23
sS'as'
p801
I23
sS'at'
p802
I6
sS'chucks'
p803
I23
sS'bitch'
p804
I23
sS'watched'
p805
I23
sS'up,90302\n'
p806
I23
sS'shit'
p807
I19
sS'ice'
p808
I23
sS'tix'
p809
I23
sS'no'
p810
I18
sS'when'
p811
I19
sS'midshift'
p812
I23
sS'lately'
p813
I23
sS'til'
p814
I22
sS'badly'
p815
I23
sS'other'
p816
I23
sS'details'
p817
I22
sS'test'
p818
I23
sS'you'
p819
I8
sS'really'
p820
I22
sS"you're"
p821
I23
sS'picture'
p822
I22
sS'monday'
p823
I23
sS'savage'
p824
I23
sS'shouldve'
p825
I23
sS'june'
p826
I23
sS'matt'
p827
I23
sS'prepared'
p828
I23
sS'class'
p829
I23
sS'chance'
p830
I23
sS'track'
p831
I23
sS'fresh'
p832
I23
sS'chocolate'
p833
I23
sS'weekend'
p834
I22
sS'vein'
p835
I23
sS'lindsane'
p836
I23
sS':-(,90302\n496030457876606976,snacksss_,2014-08-03'
p837
I23
sS'remix'
p838
I23
sS'studio'
p839
I23
sS',90302\n487232085795414016,cheeeellybean,2014-07-10'
p840
I23
sS'|love'
p841
I23
sS'cooooooool'
p842
I23
sS'ryder'
p843
I23
sS'lol.,90302\n488809075296067585,reynafuckencia,2014-07-14'
p844
I23
sS'cpg'
p845
I23
sS'18:00:03.0,33.9797679,-118.3591181,6013.01,they'
p846
I23
sS'hella'
p847
I23
sS'u'
p848
I20
sS'fitted'
p849
I23
sS'16:51:15.0,33.97743341,-118.36943679,6013.01,my'
p850
I23
sS'time'
p851
I19
sS'laaaaaav'
p852
I23
sS'everywhere'
p853
I23
sS'having'
p854
I23
s.