(dp0
S''
p1
I2
sS'personally'
p2
I78
sS'foul'
p3
I76
sS'yikes'
p4
I77
sS'sleep'
p5
I57
sS'(hawthorne'
p6
I69
sS'hating'
p7
I78
sS'hate'
p8
I69
sS'goooooooool'
p9
I78
sS'swag'
p10
I77
sS'guerrero'
p11
I77
sS'roxpinotti'
p12
I78
sS'tweet'
p13
I71
sS'otra'
p14
I78
sS'presents'
p15
I78
sS'346'
p16
I78
sS'mate'
p17
I78
sS'swap'
p18
I78
sS'under'
p19
I78
sS'20:54:59.0,33.91082362,-118.34478792,6024.03,tybg,90250\n486252028599873537,titobasedgod,2014-07-07'
p20
I78
sS'sorry'
p21
I75
sS'worth'
p22
I78
sS'$45'
p23
I78
sS'7:45'
p24
I78
sS'hilarious'
p25
I78
sS'smack'
p26
I78
sS'every'
p27
I72
sS'affect'
p28
I78
sS'laggers'
p29
I78
sS'month'
p30
I78
sS'look'
p31
I62
sS'tickets'
p32
I78
sS'school'
p33
I65
sS'skills'
p34
I78
sS'wednesday'
p35
I77
sS'math'
p36
I78
sS'ups'
p37
I78
sS"06:42:39.0,33.91073242,-118.34472514,6024.03,what's"
p38
I78
sS'sleeeeeep'
p39
I78
sS'tired'
p40
I75
sS'blasphemy'
p41
I78
sS'luck.lol'
p42
I78
sS'second'
p43
I72
sS'louder'
p44
I78
sS'even'
p45
I54
sS'wreck'
p46
I78
sS'papi!\xe2\x80\x9d'
p47
I78
sS'fingers'
p48
I77
sS'new'
p49
I69
sS'ever'
p50
I72
sS'told'
p51
I70
sS'chins'
p52
I78
sS'avery'
p53
I78
sS'never'
p54
I66
sS'wrapping'
p55
I78
sS'here'
p56
I69
sS'met'
p57
I78
sS'underclassman'
p58
I78
sS"aren't"
p59
I78
sS'107'
p60
I78
sS'pato'
p61
I78
sS'dry'
p62
I77
sS'kids'
p63
I74
sS'taper'
p64
I78
sS'changed'
p65
I77
sS'piercing'
p66
I78
sS'tv'
p67
I78
sS"i'd"
p68
I78
sS'chilling'
p69
I78
sS'smoke'
p70
I74
sS'browsing'
p71
I78
sS'rly'
p72
I78
sS"i'm"
p73
I8
sS"someone's"
p74
I78
sS'eyebrows'
p75
I78
sS'tu'
p76
I78
sS'feelings'
p77
I78
sS'bro'
p78
I59
sS'patience'
p79
I77
sS'insta'
p80
I78
sS'txt'
p81
I78
sS'bra'
p82
I77
sS'sarah'
p83
I78
sS'would'
p84
I58
sS'20:23:13.0,33.91086318,-118.34476797,6024.03,loud'
p85
I78
sS'sweater'
p86
I78
sS'craving'
p87
I78
sS'chargers'
p88
I76
sS'asses'
p89
I78
sS'call'
p90
I73
sS'typo'
p91
I78
sS'recommend'
p92
I78
sS'type'
p93
I74
sS'tell'
p94
I72
sS'sushi'
p95
I78
sS'females'
p96
I69
sS'holy'
p97
I78
sS'relax'
p98
I77
sS'oscar'
p99
I73
sS'hereby'
p100
I78
sS'haha'
p101
I10
sS'hurt'
p102
I71
sS'phone'
p103
I69
sS'guuuuurrrrrrrrllllllll'
p104
I78
sS'help,90250\n485876221033472000,titobasedgod,2014-07-06'
p105
I78
sS'hold'
p106
I78
sS'blocking'
p107
I78
sS'must'
p108
I77
sS'shoot'
p109
I78
sS'viejitos'
p110
I78
sS'join'
p111
I76
sS'room'
p112
I75
sS'work'
p113
I63
sS'07:55:57.0,33.91078652,-118.34471354,6024.03,5u5,90250\n484956288225247232,titobasedgod,2014-07-04'
p114
I78
sS'fyf?,90250\n487347672127270912,titobasedgod,2014-07-10'
p115
I78
sS'movies'
p116
I77
sS'westbrook'
p117
I77
sS'my'
p118
I7
sS'soooooo'
p119
I78
sS'give'
p120
I55
sS'stressing'
p121
I78
sS'homie'
p122
I76
sS'22:32:08.0,33.91078953,-118.3447727,6024.03,will'
p123
I78
sS'want'
p124
I53
sS'bitch,90250\n486253022151184384,titobasedgod,2014-07-07'
p125
I78
sS'$10000000000000000000001.01'
p126
I78
sS'keep'
p127
I72
sS'tbat'
p128
I78
sS'hoe'
p129
I77
sS'iggy'
p130
I78
sS'up,90250\n486018248467419136,titobasedgod,2014-07-07'
p131
I78
sS'thing'
p132
I74
sS'complaining'
p133
I78
sS'theyd'
p134
I78
sS'how'
p135
I52
sS'amazing'
p136
I75
sS'lmfaoooooooooo'
p137
I78
sS'answer'
p138
I77
sS'ordinary'
p139
I78
sS'chase'
p140
I78
sS'beach'
p141
I75
sS'*tyler'
p142
I78
sS"vma's"
p143
I76
sS'gaming'
p144
I78
sS'becky'
p145
I78
sS'madden'
p146
I78
sS'bday'
p147
I78
sS'23:02:35.0,33.91072287,-118.34478457,6024.03,i'
p148
I78
sS'after'
p149
I65
sS'...wait'
p150
I78
sS'wrong'
p151
I74
sS'lay'
p152
I75
sS'thotiana'
p153
I78
sS'law'
p154
I77
sS'selfies'
p155
I78
sS'thottie'
p156
I78
sS'wknd'
p157
I78
sS'enter'
p158
I78
sS'adros'
p159
I78
sS'tatted'
p160
I78
sS'melena'
p161
I78
sS'order'
p162
I78
sS'operations'
p163
I78
sS'over'
p164
I61
sS'fall'
p165
I78
sS'youngs'
p166
I78
sS'murray'
p167
I78
sS'keivey'
p168
I78
sS'japan'
p169
I78
sS'mayor'
p170
I78
sS'before'
p171
I72
sS'ima'
p172
I47
sS'06:42:54.0,33.91073242,-118.34472514,6024.03,you'
p173
I78
sS'writing'
p174
I78
sS'better'
p175
I60
sS'scarred\xe2\x80\x9d'
p176
I78
sS'creo'
p177
I77
sS'whips'
p178
I78
sS'weeks'
p179
I75
sS'03:02:45.0,33.91057283,-118.34466982,6024.03,these'
p180
I78
sS'then'
p181
I54
sS'them'
p182
I50
sS'thee'
p183
I78
sS'break'
p184
I75
sS'roommate'
p185
I78
sS'\xe2\x98\xba\xef\xb8\x8f'
p186
I77
sS'one'
p187
I45
sS'silver'
p188
I78
sS'bank'
p189
I78
sS'netherlands'
p190
I78
sS'rocky'
p191
I78
sS'sleepless'
p192
I78
sS'l'
p193
I77
sS'that,90250\n487855842985644032,titobasedgod,2014-07-12'
p194
I78
sS'reasonable'
p195
I78
sS'each'
p196
I77
sS'part,90250\n484942501275398145,titobasedgod,2014-07-04'
p197
I78
sS'went'
p198
I73
sS'bong'
p199
I78
sS'carlos'
p200
I77
sS'mean'
p201
I65
sS'dumping'
p202
I78
sS'taught'
p203
I78
sS'doug'
p204
I77
sS'2day'
p205
I78
sS'aids'
p206
I77
sS'saturday'
p207
I77
sS'rt'
p208
I74
sS'goo'
p209
I77
sS'gon'
p210
I78
sS'network'
p211
I78
sS'god'
p212
I69
sS'hooked'
p213
I78
sS'daniel'
p214
I77
sS'good\xe2\x80\x9d'
p215
I78
sS'smh'
p216
I50
sS'rn,90250\n485273411682181121,titobasedgod,2014-07-05'
p217
I78
sS'got'
p218
I26
sS'rn'
p219
I62
sS'size'
p220
I78
sS'hermosa'
p221
I78
sS'rehearsed'
p222
I76
sS'shitty,90250\n486029004214779905,titobasedgod,2014-07-07'
p223
I78
sS"you're"
p224
I52
sS'hang'
p225
I76
sS'given'
p226
I78
sS'free'
p227
I77
sS'negotiate'
p228
I78
sS'struggle'
p229
I77
sS'\xe2\x9d\x84\xef\xb8\x8f\xe2\x9d\x84\xef\xb8\x8f\xe2\x9d\x84\xef\xb8\x8f'
p230
I78
sS'wanted'
p231
I70
sS'ate'
p232
I78
sS'atb'
p233
I78
sS'starts'
p234
I77
sS'days'
p235
I75
sS'7'
p236
I78
sS'ish'
p237
I78
sS'moving'
p238
I76
sS'loud'
p239
I78
sS'teh'
p240
I77
sS'already'
p241
I59
sS'champs'
p242
I78
sS'unfollowed'
p243
I78
sS'gbencino'
p244
I78
sS'hook'
p245
I78
sS'another'
p246
I74
sS'ballin'
p247
I78
sS'blunts'
p248
I78
sS'feeding'
p249
I78
sS"'merica"
p250
I78
sS'mcnuggets'
p251
I78
sS'concussion'
p252
I78
sS'girls'
p253
I76
sS'twisted'
p254
I78
sS'fiction'
p255
I77
sS'california'
p256
I76
sS'too'
p257
I44
sS'truuuuuuuuuuuu'
p258
I78
sS'hollywood'
p259
I78
sS'john'
p260
I78
sS'dogs'
p261
I77
sS'listen'
p262
I76
sS'mysterio'
p263
I78
sS'hangout'
p264
I77
sS'segundo'
p265
I78
sS'centered'
p266
I78
sS'2am'
p267
I78
sS'took'
p268
I72
sS'trippy'
p269
I78
sS'07:44:34.0,33.9107896,-118.34480672,6024.03,this'
p270
I78
sS'nahh'
p271
I78
sS'wardrobe'
p272
I78
sS'homei'
p273
I78
sS'mercy'
p274
I77
sS'guild'
p275
I78
sS'target'
p276
I78
sS'showed'
p277
I78
sS'nominate'
p278
I78
sS'fairytale'
p279
I78
sS'mierda'
p280
I78
sS'ouchies'
p281
I78
sS'shower'
p282
I76
sS'classes'
p283
I77
sS'friend'
p284
I76
sS'feeling'
p285
I75
sS'yeezys'
p286
I78
sS'esto'
p287
I78
sS'mind'
p288
I76
sS'anybody'
p289
I77
sS'talking'
p290
I71
sS'seen'
p291
I77
sS'mins'
p292
I78
sS'tells'
p293
I78
sS'ray'
p294
I78
sS'forced'
p295
I78
sS'nipples'
p296
I77
sS'nigka'
p297
I78
sS'-'
p298
I68
sS'balling'
p299
I78
sS'silva,90250\n485250092778020864,titobasedgod,2014-07-05'
p300
I78
sS'laughed'
p301
I78
sS'bengay'
p302
I78
sS'panties'
p303
I77
sS'blue'
p304
I76
sS'?,90250\n487844386030354432,titobasedgod,2014-07-12'
p305
I78
sS'though'
p306
I75
sS'brodie'
p307
I78
sS'mouth'
p308
I77
sS'plenty'
p309
I78
sS'claims'
p310
I78
sS'phase'
p311
I78
sS'bradford'
p312
I73
sS'smoked'
p313
I78
sS'episode'
p314
I78
sS'dom'
p315
I78
sS'alarm'
p316
I78
sS'dog'
p317
I74
sS'stating'
p318
I78
sS'definitely'
p319
I76
sS'annoyed'
p320
I78
sS'came'
p321
I72
sS'saying'
p322
I61
sS'bomb'
p323
I77
sS'tequila'
p324
I78
sS'random'
p325
I74
sS'bonnie'
p326
I78
sS'nominated'
p327
I78
sS'bluh'
p328
I78
sS'pops'
p329
I78
sS'cake'
p330
I78
sS'simp'
p331
I76
sS"that'll"
p332
I78
sS'latina'
p333
I78
sS'toast'
p334
I78
sS'busy'
p335
I77
sS'cousins'
p336
I77
sS'explain'
p337
I77
sS'itsswayzebaby'
p338
I78
sS'bust'
p339
I78
sS'rihanna'
p340
I78
sS'rico'
p341
I78
sS'lube'
p342
I74
sS'21:11:02.0,33.9109726,-118.34472234,6024.03,just'
p343
I78
sS'rich'
p344
I77
sS'rice'
p345
I78
sS'wearing'
p346
I78
sS'do'
p347
I36
sS'10'
p348
I73
sS'sleepy'
p349
I78
sS'de'
p350
I75
sS'watch'
p351
I70
sS'leakin'
p352
I78
sS'guatemala'
p353
I76
sS'watermelon'
p354
I78
sS'wedding'
p355
I77
sS'fabrics'
p356
I78
sS'runs'
p357
I78
sS'mofos'
p358
I78
sS'emo'
p359
I78
sS'ese'
p360
I78
sS'tomorrow,90250\n484969725961580544,titobasedgod,2014-07-04'
p361
I78
sS'bad'
p362
I64
sS'bae'
p363
I63
sS'shots'
p364
I78
sS'release'
p365
I78
sS'steal'
p366
I77
sS'day,90250\n484968844977373184,titobasedgod,2014-07-04'
p367
I78
sS'respond'
p368
I78
sS'fault'
p369
I78
sS'blew'
p370
I78
sS'decides'
p371
I78
sS'fair'
p372
I78
sS'w/'
p373
I78
sS'liquor'
p374
I74
sS'goodnight'
p375
I76
sS'decided'
p376
I78
sS'jerseys'
p377
I77
sS'best'
p378
I72
sS'subject'
p379
I77
sS'said'
p380
I54
sS'away'
p381
I69
sS'"ok'
p382
I78
sS'melissa'
p383
I78
sS'paulnevi'
p384
I78
sS'hopefully'
p385
I75
sS'tolerance'
p386
I78
sS'alguien'
p387
I78
sS'lazy'
p388
I77
sS'omg'
p389
I71
sS'weak'
p390
I74
sS'boss'
p391
I77
sS'b\xc3\xaate'
p392
I75
sS'retirement'
p393
I78
sS'wear'
p394
I76
sS'wtf'
p395
I66
sS'wth'
p396
I78
sS'cousin'
p397
I78
sS'flexin'
p398
I78
sS'debt'
p399
I77
sS'cop'
p400
I73
sS'fuuuuuuuuck'
p401
I78
sS'\xe2\x9d\xa4\xef\xb8\x8f'
p402
I78
sS'country'
p403
I77
sS'ill'
p404
I77
sS'cup'
p405
I78
sS'die."\xe2\x80\x9d\xe2\x80\x9d"\xe2\x80\x9d'
p406
I78
sS'games'
p407
I78
sS'faceq'
p408
I78
sS'lookin'
p409
I77
sS'asked'
p410
I77
sS'tough'
p411
I77
sS'vexed'
p412
I78
sS'josh'
p413
I74
sS'hardworking'
p414
I78
sS'2nd'
p415
I78
sS'karen'
p416
I77
sS'259'
p417
I78
sS'speak'
p418
I78
sS'nicer'
p419
I78
sS'beef'
p420
I78
sS'basis'
p421
I78
sS'80\xc2\xb0'
p422
I78
sS'three'
p423
I77
sS'been'
p424
I59
sS'quickly'
p425
I77
sS'\xe2\x9d\x84\xef\xb8\x8f'
p426
I78
sS'much'
p427
I65
sS'puta'
p428
I78
sS'one\xe2\x80\xa6\xe2\x80\x9d'
p429
I78
sS'entered'
p430
I78
sS'cost?"'
p431
I78
sS'life'
p432
I56
sS'sprite'
p433
I78
sS'spit'
p434
I78
sS'20:58:49.0,33.91092019,-118.34472446,6024.03,slumped'
p435
I78
sS'drugs'
p436
I77
sS'break...ffffuuuunnnn'
p437
I78
sS'"sorry"'
p438
I78
sS'sunshine'
p439
I78
sS'sooooo'
p440
I75
sS'dave'
p441
I77
sS'lift'
p442
I78
sS'child'
p443
I78
sS'catch'
p444
I75
sS'worked'
p445
I78
sS'21:07:33.0,33.91079005,-118.3448248,6024.03,when'
p446
I78
sS'$125'
p447
I78
sS'chill'
p448
I66
sS'***racing'
p449
I78
sS'exception'
p450
I78
sS'save'
p451
I78
sS'ahead'
p452
I78
sS'n'
p453
I72
sS'pt.2'
p454
I78
sS'ugly'
p455
I70
sS'near'
p456
I76
sS'suppose'
p457
I77
sS'hates'
p458
I78
sS'muggin'
p459
I78
sS'adele'
p460
I78
sS'voice'
p461
I78
sS'skirts'
p462
I78
sS'errthang'
p463
I78
sS'is'
p464
I15
sS'dumped'
p465
I78
sS'it'
p466
I13
sS'throat'
p467
I78
sS'cant'
p468
I78
sS'im'
p469
I68
sS'in'
p470
I19
sS',90250\n487679737326620672,titobasedgod,2014-07-11'
p471
I78
sS'seattle'
p472
I77
sS'mouse'
p473
I78
sS'chryme'
p474
I78
sS'trusted'
p475
I78
sS'if'
p476
I47
sS'hong'
p477
I78
sS'fotos'
p478
I78
sS'perform'
p479
I77
sS'things'
p480
I74
sS'make'
p481
I66
sS'indidnt'
p482
I78
sS'understatement'
p483
I78
sS'hahah'
p484
I76
sS'yung'
p485
I76
sS'satellite'
p486
I78
sS'alittle'
p487
I77
sS'18:08:51.0,33.9109947,-118.3447079,6024.03,holy'
p488
I78
sS'welker'
p489
I77
sS'rain'
p490
I78
sS'hand'
p491
I77
sS'kik'
p492
I78
sS'fridays'
p493
I78
sS'mentions'
p494
I76
sS'jealous'
p495
I78
sS'opportunity'
p496
I78
sS"he'll"
p497
I77
sS'kid'
p498
I77
sS'kept'
p499
I78
sS'19:15:56.0,33.91088791,-118.34475213,6024.03,7/21,90250\n487676210063765504,titobasedgod,2014-07-11'
p500
I78
sS'congrats'
p501
I78
sS'gf"'
p502
I78
sS'willy,90250\n486254735888879617,titobasedgod,2014-07-07'
p503
I78
sS'tho'
p504
I40
sS'mother'
p505
I77
sS'alarms'
p506
I78
sS'now...or'
p507
I78
sS'the'
p508
I4
sS'it,90250\n486037150375231488,titobasedgod,2014-07-07'
p509
I78
sS'yours'
p510
I78
sS'left'
p511
I76
sS'wahh'
p512
I78
sS'leagues'
p513
I78
sS"she'll"
p514
I78
sS'just'
p515
I20
sS'yea'
p516
I47
sS'photo'
p517
I78
sS'unfollow'
p518
I78
sS'kall'
p519
I78
sS'blunt,90250\n485341897620070400,titobasedgod,2014-07-05'
p520
I78
sS'thanks'
p521
I70
sS'victim'
p522
I78
sS'yep'
p523
I77
sS'yes'
p524
I71
sS'yet'
p525
I74
sS's\xc3\xad'
p526
I78
sS'jose'
p527
I77
sS'broncos'
p528
I77
sS'family'
p529
I78
sS'18:21:42.0,33.91072614,-118.3447989,6024.03,monday'
p530
I78
sS'character'
p531
I77
sS'coon'
p532
I78
sS'ooooh'
p533
I78
sS'trampled'
p534
I78
sS'easy'
p535
I77
sS'has'
p536
I67
sS'gave'
p537
I77
sS'actresses'
p538
I78
sS'2014-2015'
p539
I78
sS'insensitive'
p540
I78
sS'which'
p541
I78
sS'vanessa'
p542
I76
sS'fuck,90250\n486287242474708992,titobasedgod,2014-07-07'
p543
I78
sS'3pt'
p544
I78
sS'possible'
p545
I78
sS'possibly'
p546
I78
sS'boxes'
p547
I78
sS'birth'
p548
I78
sS'unique'
p549
I78
sS'advanced'
p550
I77
sS'apart'
p551
I78
sS'50'
p552
I78
sS'steph'
p553
I77
sS'night'
p554
I71
sS'12ish'
p555
I78
sS'right'
p556
I58
sS'old'
p557
I77
sS'people'
p558
I64
sS'18:34:44.0,33.91085735,-118.34471013,6024.03,,90250\n487301190808395776,titobasedgod,2014-07-10'
p559
I78
sS'somehow'
p560
I78
sS'dead'
p561
I71
sS'manziel'
p562
I72
sS'scrimmage'
p563
I78
sS'neva'
p564
I78
sS'bickin'
p565
I78
sS'xbox'
p566
I78
sS'jeffery'
p567
I78
sS'finna'
p568
I78
sS'you,90250\n487733720766365696,titobasedgod,2014-07-11'
p569
I78
sS'for'
p570
I16
sS'fox'
p571
I78
sS'ice'
p572
I77
sS'everything'
p573
I75
sS'icy'
p574
I78
sS'umm'
p575
I78
sS'beating'
p576
I78
sS'foh'
p577
I78
sS'twooooooooo'
p578
I78
sS'booking'
p579
I78
sS'knew'
p580
I76
sS'tour'
p581
I78
sS'corn'
p582
I77
sS'burn'
p583
I77
sS'discount'
p584
I77
sS'baha'
p585
I78
sS'trish'
p586
I78
sS'olsen'
p587
I78
sS'graduated'
p588
I78
sS'post'
p589
I78
sS'fucks,90250\n487339153227403264,titobasedgod,2014-07-10'
p590
I78
sS'super'
p591
I70
sS'byrup'
p592
I78
sS'chapter'
p593
I78
sS'hudgens'
p594
I78
sS'months'
p595
I77
sS'son\xe2\x80\x9d'
p596
I78
sS'dinner'
p597
I78
sS'plus'
p598
I77
sS'anime'
p599
I78
sS'raised'
p600
I78
sS'voice*'
p601
I78
sS'wasting'
p602
I78
sS'objetivo'
p603
I78
sS'ahh'
p604
I78
sS'bound'
p605
I78
sS'soo'
p606
I77
sS'ppl'
p607
I77
sS'down'
p608
I59
sS'lies'
p609
I77
sS'beings'
p610
I78
sS'show,90250\n485256211206373377,titobasedgod,2014-07-05'
p611
I78
sS'wrap'
p612
I77
sS'morning,90250\n484942115713974273,titobasedgod,2014-07-04'
p613
I78
sS'rounds'
p614
I78
sS'waaaaaaaaaaay'
p615
I78
sS'support'
p616
I78
sS'pacquiao'
p617
I78
sS'keepers'
p618
I78
sS'fight'
p619
I73
sS'gig'
p620
I78
sS'virgin'
p621
I76
sS'rapey'
p622
I78
sS'bittttccchhhh'
p623
I78
sS'way'
p624
I71
sS'music'
p625
I75
sS'was'
p626
I24
sS'man\xe2\x80\x9d'
p627
I78
sS'happy'
p628
I73
sS'secondsssss'
p629
I78
sS'head'
p630
I77
sS'offer'
p631
I78
sS'some'
p632
I56
sS'$200'
p633
I78
sS'mysterious'
p634
I78
sS'talents'
p635
I78
sS'magnitude'
p636
I78
sS'hear'
p637
I77
sS'?\xe2\x80\x9d'
p638
I78
sS':awthorne'
p639
I78
sS'true'
p640
I71
sS'[watch]'
p641
I78
sS"else's"
p642
I78
sS'undefeated'
p643
I78
sS'inside'
p644
I78
sS'[='
p645
I78
sS'until'
p646
I71
sS'emotional'
p647
I78
sS'delete'
p648
I78
sS'proved'
p649
I78
sS'up'
p650
I27
sS'proven'
p651
I78
sS'hungry'
p652
I78
sS'sometime'
p653
I78
sS'exist'
p654
I78
sS'promised'
p655
I77
sS'day,90250\n486022787710976000,titobasedgod,2014-07-07'
p656
I78
sS'awhile'
p657
I77
sS'annoying'
p658
I75
sS'trip'
p659
I76
sS'shit'
p660
I32
sS'fuuuuck'
p661
I78
sS'quincea\xc3\xb1era'
p662
I78
sS'no'
p663
I35
sS'na'
p664
I77
sS'when'
p665
I42
sS'handed'
p666
I78
sS'tim'
p667
I78
sS'interested'
p668
I78
sS'role'
p669
I78
sS'creep\xe2\x80\x9d'
p670
I78
sS'05:13:54.0,33.91073745,-118.34470863,6024.03,anyone'
p671
I78
sS'brings'
p672
I78
sS'smell'
p673
I78
sS'roll'
p674
I76
sS'realize'
p675
I78
sS'aguado-priscilla...like'
p676
I78
sS'picture'
p677
I73
sS'holt'
p678
I78
sS'corrected'
p679
I78
sS'football'
p680
I76
sS'convincing'
p681
I78
sS"let's"
p682
I76
sS'brief'
p683
I77
sS'fell'
p684
I78
sS'snooze'
p685
I78
sS'pierced'
p686
I77
sS'died'
p687
I78
sS'jones'
p688
I78
sS'happening'
p689
I76
sS'bullet'
p690
I78
sS'glass'
p691
I78
sS'normally'
p692
I78
sS'together'
p693
I77
sS'work...is'
p694
I78
sS'time'
p695
I49
sS'serious'
p696
I72
sS'"homie"'
p697
I78
sS'songs'
p698
I76
sS'neighbors'
p699
I78
sS'coach'
p700
I78
sS':('
p701
I75
sS':)'
p702
I69
sS':*'
p703
I78
sS'mamadas'
p704
I78
sS'rob'
p705
I77
sS'ouch'
p706
I78
sS'bimpsons'
p707
I78
sS'manager'
p708
I77
sS'skate'
p709
I78
sS'amendola'
p710
I75
sS'grateful'
p711
I78
sS'skin'
p712
I78
sS'playoffs'
p713
I78
sS'layers'
p714
I78
sS'supposedly'
p715
I78
sS'suicide'
p716
I78
sS'ver'
p717
I77
sS'now.\xe2\x80\x9d'
p718
I78
sS'father'
p719
I78
sS'4:00pm'
p720
I78
sS'0'
p721
I78
sS'finally'
p722
I73
sS'08:08:20.0,33.91082515,-118.34469693,6024.03,shit'
p723
I78
sS'lmaoo'
p724
I72
sS'me'
p725
I14
sS'"haha"'
p726
I78
sS'20:22:01.0,33.9107406,-118.34471994,6024.03,why'
p727
I78
sS'dez'
p728
I78
sS':b'
p729
I78
sS"donovan's"
p730
I78
sS'vegas'
p731
I76
sS'lynch'
p732
I78
sS'stays'
p733
I78
sS'play..\xe2\x80\x9d'
p734
I78
sS'hamlet'
p735
I78
sS'exact'
p736
I78
sS'0mi'
p737
I78
sS'minute'
p738
I78
sS'cool'
p739
I67
sS'level'
p740
I74
sS'did'
p741
I55
sS'die'
p742
I77
sS'accidentally'
p743
I77
sS'turnt'
p744
I77
sS'hawthorne)'
p745
I78
sS'leave'
p746
I72
sS'withdrawals..just'
p747
I78
sS'team'
p748
I65
sS'quick'
p749
I77
sS'cute..\xe2\x80\x9d'
p750
I78
sS'guy'
p751
I75
sS'round'
p752
I78
sS'yall'
p753
I77
sS"it'll"
p754
I78
sS'talked'
p755
I78
sS'chinesom'
p756
I78
sS'insignificant'
p757
I78
sS'mi'
p758
I78
sS'3\xe2\x80\x9d'
p759
I78
sS'heavyweight'
p760
I78
sS'run'
p761
I77
sS'pedo'
p762
I78
sS'bake'
p763
I78
sS'12:22'
p764
I78
sS'kiki,90250\n485257444516311041,titobasedgod,2014-07-05'
p765
I78
sS'coat'
p766
I78
sS'yeezus'
p767
I78
sS'anymore,90250\n487321128046579712,titobasedgod,2014-07-10'
p768
I78
sS'goes'
p769
I77
sS'reply'
p770
I76
sS'falling'
p771
I78
sS'appeal'
p772
I78
sS'envy'
p773
I78
sS'french'
p774
I78
sS'water'
p775
I78
sS'07:07:51.0,33.91078418,-118.34474651,6024.03,lean,90250\n487855700807127040,titobasedgod,2014-07-12'
p776
I78
sS'?,90250\n487842297690615808,titobasedgod,2014-07-12'
p777
I78
sS'6-8'
p778
I78
sS'alone'
p779
I78
sS'along'
p780
I78
sS'earthquake'
p781
I77
sS'change'
p782
I74
sS'wait'
p783
I73
sS'box'
p784
I77
sS'boy'
p785
I67
sS'yessss'
p786
I78
sS'battling'
p787
I78
sS'healthy'
p788
I76
sS'shift'
p789
I76
sS'title'
p790
I78
sS'lakers'
p791
I78
sS'tiiighhhtttt...made'
p792
I78
sS'boi'
p793
I78
sS'boo'
p794
I75
sS'usually'
p795
I78
sS'weird'
p796
I77
sS'massage'
p797
I78
sS'1.5'
p798
I78
sS'lmfaoooo'
p799
I76
sS'love'
p800
I60
sS'extra'
p801
I77
sS'fake'
p802
I74
sS'everybody'
p803
I77
sS'working'
p804
I75
sS'prove'
p805
I76
sS'aye'
p806
I74
sS'positive'
p807
I78
sS'no...bf'
p808
I78
sS'ass,90250\n485498397906857985,titobasedgod,2014-07-05'
p809
I78
sS'dude'
p810
I78
sS'only'
p811
I70
sS'sherman'
p812
I78
sS'by'
p813
I69
sS'ca)'
p814
I69
sS'iphone'
p815
I76
sS'black'
p816
I78
sS'jeffries'
p817
I74
sS'bigg'
p818
I78
sS'today'
p819
I61
sS'wicked'
p820
I78
sS"02:33:32.0,33.91066742,-118.34470804,6024.03,val's"
p821
I78
sS'fuuuuuuuuuuuuuck'
p822
I78
sS'club'
p823
I75
sS'incompletion'
p824
I78
sS'tandem'
p825
I78
sS'everywhere'
p826
I76
sS'employed'
p827
I78
sS'20:54:43.0,33.9107727,-118.34476135,6024.03,beat'
p828
I78
sS'fly'
p829
I78
sS'wrong"'
p830
I78
sS'8pm'
p831
I78
sS'niggas'
p832
I51
sS'car'
p833
I73
sS'netflix'
p834
I78
sS'sus,90250\n487346607579357185,titobasedgod,2014-07-10'
p835
I78
sS'wallet'
p836
I78
sS'fronting'
p837
I78
sS'can'
p838
I54
sS'following'
p839
I76
sS'making'
p840
I76
sS'niggah'
p841
I78
sS"denny's"
p842
I78
sS'spy'
p843
I78
sS'crazy'
p844
I70
sS'valentines'
p845
I78
sS'figure'
p846
I76
sS'doing,90250\n485877583938981888,titobasedgod,2014-07-06'
p847
I78
sS'awesome'
p848
I77
sS'winston'
p849
I78
sS"didn't"
p850
I62
sS'confused'
p851
I76
sS'agent'
p852
I78
sS'topic'
p853
I75
sS'heard'
p854
I77
sS'stroke'
p855
I78
sS'chin'
p856
I78
sS'dropped'
p857
I78
sS'allowed'
p858
I78
sS'stole'
p859
I78
sS'occur'
p860
I78
sS'purp'
p861
I78
sS'discussion'
p862
I78
sS'means'
p863
I78
sS"20:07:44.0,33.91090114,-118.34477845,6024.03,don't"
p864
I78
sS'1'
p865
I76
sS'till'
p866
I74
sS'yet?good'
p867
I78
sS'ughhhh'
p868
I78
sS'afternoon'
p869
I78
sS'map'
p870
I78
sS'staying'
p871
I76
sS'designer'
p872
I78
sS'laundry'
p873
I77
sS'may'
p874
I78
sS'max'
p875
I78
sS'spot'
p876
I78
sS'tbt'
p877
I78
sS'applications'
p878
I78
sS'mac'
p879
I78
sS'birthday'
p880
I76
sS'mad'
p881
I72
sS'such'
p882
I76
sS'suck'
p883
I78
sS'guys'
p884
I75
sS'man'
p885
I37
sS'50/50\xe2\x80\x9d,90250\n487842214630801409,titobasedgod,2014-07-12'
p886
I78
sS'stress'
p887
I78
sS'whyyyyy'
p888
I77
sS'mayweather'
p889
I75
sS'maybe'
p890
I78
sS'now,90250\n486034880816377856,titobasedgod,2014-07-07'
p891
I78
sS'q'
p892
I78
sS'frontin'
p893
I78
sS'so'
p894
I28
sS'silence'
p895
I78
sS'tall'
p896
I78
sS'pulled'
p897
I77
sS'talk'
p898
I72
sS'cute'
p899
I73
sS'serving'
p900
I78
sS'08:46:55.0,33.91094041,-118.34467754,6024.03,selfie'
p901
I78
sS'logged'
p902
I78
sS'mainly'
p903
I78
sS'years'
p904
I77
sS'brain'
p905
I77
sS'episodes'
p906
I77
sS'20:36:25.0,33.91074257,-118.34473905,6024.03,thot,90250\n486247303934513154,titobasedgod,2014-07-07'
p907
I78
sS'shake'
p908
I78
sS'cold'
p909
I73
sS'still'
p910
I51
sS'blooded'
p911
I78
sS'blocked'
p912
I77
sS'apes'
p913
I77
sS'police'
p914
I78
sS'thank'
p915
I74
sS"he's"
p916
I77
sS'thang'
p917
I78
sS'hot'
p918
I75
sS'20:18:37.0,33.91074675,-118.34480329,6024.03,who'
p919
I78
sS'offers'
p920
I77
sS'tweets'
p921
I76
sS'suspension'
p922
I78
sS'tomorow'
p923
I78
sS'main'
p924
I78
sS'kissy'
p925
I78
sS'happened'
p926
I76
sS'nom'
p927
I76
sS'3'
p928
I74
sS'moms'
p929
I78
sS'bhillin'
p930
I77
sS"tonight's"
p931
I77
sS'weights...atp'
p932
I78
sS'buzzin'
p933
I78
sS'course'
p934
I78
sS'not'
p935
I30
sS'now'
p936
I45
sS'bullshit'
p937
I76
sS'name'
p938
I75
sS'thankful'
p939
I78
sS'clutch'
p940
I74
sS'times'
p941
I78
sS'drop'
p942
I76
sS'day\xe2\x80\x9d,90250\n487844404011339776,titobasedgod,2014-07-12'
p943
I78
sS'debating'
p944
I78
sS'mtv2'
p945
I78
sS'rock'
p946
I77
sS"out..there's"
p947
I78
sS'quarter'
p948
I78
sS'repaired'
p949
I78
sS'em'
p950
I77
sS'el'
p951
I71
sS'en'
p952
I77
sS'lowkey'
p953
I57
sS'gourmet\xe2\x80\xa6'
p954
I78
sS'yeah'
p955
I71
sS'boosie'
p956
I78
sS'goose'
p957
I78
sS'ex'
p958
I75
sS'year'
p959
I73
sS'ft'
p960
I78
sS'girl'
p961
I73
sS'calling'
p962
I78
sS'19:36:14.0,33.91068687,-118.34472028,6024.03,free'
p963
I78
sS'es'
p964
I78
sS'tried'
p965
I78
sS'album'
p966
I78
sS'living'
p967
I77
sS'and\xe2\x80\xa6'
p968
I78
sS'jackson'
p969
I78
sS'3rd'
p970
I78
sS'me?\xe2\x80\x9d'
p971
I78
sS'factory'
p972
I78
sS'thirst'
p973
I78
sS'now...like'
p974
I78
sS'looking'
p975
I73
sS'seriously'
p976
I75
sS'qb'
p977
I75
sS"shouldn't"
p978
I78
sS'cobb'
p979
I78
sS'internet'
p980
I78
sS'bless'
p981
I78
sS'chill,90250\n486023390088536064,titobasedgod,2014-07-07'
p982
I78
sS'jacking'
p983
I78
sS'smfh'
p984
I75
sS'lag'
p985
I78
sS"19:28:04.0,33.91079148,-118.34471441,6024.03,y'all"
p986
I78
sS'million'
p987
I78
sS'gagging'
p988
I78
sS'oro'
p989
I78
sS'flyer'
p990
I78
sS'vegas...seems'
p991
I78
sS'rebel'
p992
I78
sS'gots'
p993
I78
sS'ore'
p994
I78
sS'training'
p995
I78
sS'132nd'
p996
I78
sS'"hella'
p997
I78
sS'punk'
p998
I78
sS'turn'
p999
I76
sS'place'
p1000
I75
sS'19:16:18.0,33.9107263,-118.34483041,6024.03,sleep,90250\n487303925335199744,titobasedgod,2014-07-10'
p1001
I78
sS'swing'
p1002
I78
sS'virginity'
p1003
I78
sS'think'
p1004
I55
sS'waited'
p1005
I78
sS'first'
p1006
I69
sS'mucha'
p1007
I78
sS'saving'
p1008
I77
sS'trippy."\xe2\x80\x9d'
p1009
I78
sS'lmaoooooooo'
p1010
I78
sS'xd'
p1011
I75
sS'yourself'
p1012
I76
sS'clumsy'
p1013
I78
sS'fast'
p1014
I75
sS'uncle'
p1015
I78
sS'ring'
p1016
I78
sS'drove'
p1017
I77
sS'open'
p1018
I77
sS'tomorrow'
p1019
I72
sS'cris'
p1020
I78
sS'sheep'
p1021
I78
sS'city'
p1022
I77
sS'little'
p1023
I66
sS'stuck'
p1024
I76
sS'caught'
p1025
I78
sS'slept'
p1026
I76
sS'ibrahimovic'
p1027
I78
sS'immortals'
p1028
I78
sS'anyone'
p1029
I78
sS'2'
p1030
I69
sS'draft'
p1031
I77
sS'wtf\xe2\x80\x9d'
p1032
I78
sS'white'
p1033
I76
sS'williams'
p1034
I78
sS'on*'
p1035
I78
sS'copa'
p1036
I78
sS'mostly'
p1037
I77
sS'that'
p1038
I11
sS'shawn'
p1039
I77
sS'season'
p1040
I77
sS'cops'
p1041
I78
sS'butt'
p1042
I78
sS'thai'
p1043
I78
sS'than'
p1044
I71
sS'boyfriend'
p1045
I78
sS'wide'
p1046
I78
sS'05:37:22.0,33.91061557,-118.34475663,6024.03,hate'
p1047
I78
sS'12'
p1048
I78
sS'15'
p1049
I78
sS'lmao'
p1050
I25
sS'17'
p1051
I77
sS'16'
p1052
I77
sS'mannnn'
p1053
I78
sS'18'
p1054
I78
sS'gotta'
p1055
I60
sS'salvadorian'
p1056
I78
sS'ventura'
p1057
I78
sS'08:18:52.0,33.91075292,-118.34475867,6024.03,sos,90250\n484971960288280576,titobasedgod,2014-07-04'
p1058
I78
sS'rivas'
p1059
I78
sS'were'
p1060
I69
sS'asleep'
p1061
I77
sS'counselor'
p1062
I78
sS'sublime'
p1063
I78
sS'and'
p1064
I9
sS'hairline'
p1065
I78
sS'register'
p1066
I78
sS'san'
p1067
I77
sS'sam'
p1068
I76
sS'pro'
p1069
I78
sS'seal'
p1070
I78
sS'siendo'
p1071
I78
sS'locations'
p1072
I78
sS'sad'
p1073
I78
sS'woah'
p1074
I78
sS'say'
p1075
I60
sS'tanning'
p1076
I78
sS'breakfast'
p1077
I76
sS'recover'
p1078
I78
sS'saw'
p1079
I72
sS'any'
p1080
I74
sS'marathon'
p1081
I77
sS'sat'
p1082
I78
sS'kush'
p1083
I77
sS';-)\xe2\x80\x9d'
p1084
I78
sS'note'
p1085
I77
sS'phillips'
p1086
I77
sS'squad'
p1087
I78
sS'take'
p1088
I57
sS'shop,90250\n487676890602549248,titobasedgod,2014-07-11'
p1089
I78
sS'blunt'
p1090
I71
sS'switching'
p1091
I78
sS'channel'
p1092
I76
sS'bitching'
p1093
I78
sS'topping'
p1094
I78
sS'sure'
p1095
I72
sS'pain'
p1096
I77
sS'price'
p1097
I78
sS'keeps'
p1098
I78
sS'jajajaja'
p1099
I78
sS'be,90250\n486242907997741056,titobasedgod,2014-07-07'
p1100
I78
sS'wordworks'
p1101
I78
sS'freshman'
p1102
I78
sS'"druggys'
p1103
I78
sS'pages'
p1104
I78
sS'forever'
p1105
I75
sS'especially'
p1106
I78
sS'lawd'
p1107
I77
sS'later'
p1108
I78
sS'drive'
p1109
I77
sS'romper'
p1110
I77
sS'texters'
p1111
I78
sS'ismael'
p1112
I77
sS'understandable'
p1113
I77
sS'senior'
p1114
I78
sS'salt'
p1115
I78
sS'laws'
p1116
I78
sS'shop'
p1117
I77
sS'shot'
p1118
I76
sS'\xe2\x9c\xa8'
p1119
I78
sS'show'
p1120
I69
sS'cheap'
p1121
I78
sS'ass,90250\n487330296010797056,titobasedgod,2014-07-10'
p1122
I78
sS'up,90250\n487342715474939905,titobasedgod,2014-07-10'
p1123
I78
sS'shoe'
p1124
I78
sS'spacex'
p1125
I77
sS'corner'
p1126
I78
sS'takin'
p1127
I78
sS'maine'
p1128
I78
sS'ground'
p1129
I78
sS'aint'
p1130
I77
sS'\xe2\x99\xa5\xe2\x80\x9d'
p1131
I78
sS'slow'
p1132
I77
sS'truuue'
p1133
I78
sS'\xe2\x9c\x8b'
p1134
I77
sS'\xe2\x9c\x8a'
p1135
I74
sS'daily'
p1136
I78
sS'dick'
p1137
I75
sS'behind'
p1138
I74
sS'tears'
p1139
I76
sS'going'
p1140
I63
sS'actin'
p1141
I78
sS'stain'
p1142
I78
sS'pinkberry'
p1143
I78
sS'awareness'
p1144
I77
sS'get'
p1145
I29
sS'emmanuel'
p1146
I78
sS'truly'
p1147
I78
sS'hoya'
p1148
I78
sS'cannot'
p1149
I77
sS'kiki'
p1150
I75
sS'way,90250\n486054200124506112,titobasedgod,2014-07-07'
p1151
I78
sS'primo'
p1152
I78
sS'awwwww'
p1153
I78
sS'morning'
p1154
I70
sS'naked'
p1155
I78
sS'stupid'
p1156
I76
sS'losers'
p1157
I78
sS"could've"
p1158
I77
sS'quickie'
p1159
I78
sS'miley'
p1160
I76
sS'pants'
p1161
I78
sS'where'
p1162
I65
sS'xmas'
p1163
I78
sS'vision'
p1164
I77
sS"y'all"
p1165
I54
sS'concert'
p1166
I77
sS'sear'
p1167
I78
sS'colston'
p1168
I77
sS'college'
p1169
I75
sS'anyways'
p1170
I72
sS'hoes'
p1171
I70
sS"alex's"
p1172
I78
sS'ways'
p1173
I77
sS'ignorant'
p1174
I78
sS'enough'
p1175
I75
sS'estar'
p1176
I78
sS'estas'
p1177
I78
sS'between'
p1178
I78
sS'reading'
p1179
I77
sS'notice'
p1180
I78
sS'help,90250\n487679085603090433,titobasedgod,2014-07-11'
p1181
I78
sS'jobs'
p1182
I78
sS'august'
p1183
I78
sS'domo'
p1184
I78
sS'farts'
p1185
I78
sS'screen'
p1186
I77
sS'tus'
p1187
I78
sS'dome'
p1188
I78
sS'killing'
p1189
I78
sS'blame'
p1190
I78
sS'online'
p1191
I78
sS'jk'
p1192
I76
sS'comeback'
p1193
I77
sS'come'
p1194
I63
sS'reaction'
p1195
I78
sS'dates'
p1196
I78
sS'kicking'
p1197
I78
sS'many'
p1198
I76
sS'blunt,90250\n487700884445339648,titobasedgod,2014-07-11'
p1199
I78
sS'quiet'
p1200
I77
sS'contract'
p1201
I78
sS'cel_mendes'
p1202
I78
sS's'
p1203
I77
sS'jeremih'
p1204
I78
sS'penal'
p1205
I78
sS'traded'
p1206
I77
sS'comes'
p1207
I74
sS'madness'
p1208
I78
sS'color'
p1209
I77
sS'pot'
p1210
I78
sS'hurts'
p1211
I77
sS'period'
p1212
I77
sS'pop'
p1213
I78
sS"couldn't"
p1214
I77
sS'article'
p1215
I78
sS'cancel'
p1216
I78
sS'empanada'
p1217
I78
sS'mandando'
p1218
I78
sS'arts'
p1219
I78
sS'howard'
p1220
I77
sS'fxxkers'
p1221
I78
sS'classic'
p1222
I78
sS'gronk'
p1223
I77
sS'sesh'
p1224
I78
sS'schoolboy'
p1225
I78
sS'wants'
p1226
I77
sS'robben'
p1227
I78
sS'shopping'
p1228
I77
sS'gray'
p1229
I78
sS'partido'
p1230
I78
sS'thousand'
p1231
I78
sS'blessing'
p1232
I77
sS'andrew'
p1233
I78
sS"baby's"
p1234
I78
sS'dramatic'
p1235
I78
sS'wake'
p1236
I76
sS'cleats'
p1237
I78
sS'hidden'
p1238
I76
sS'those'
p1239
I76
sS'case'
p1240
I75
sS'myself'
p1241
I75
sS'engerson?!\xe2\x80\x9d'
p1242
I78
sS'stacked'
p1243
I74
sS'these'
p1244
I61
sS'at\xe2\x80\xa6'
p1245
I78
sS'cash'
p1246
I78
sS'pizza'
p1247
I78
sS'cancelled'
p1248
I78
sS'situation'
p1249
I77
sS'up,90250\n486213481356468224,titobasedgod,2014-07-07'
p1250
I78
sS'care)'
p1251
I78
sS'ive'
p1252
I78
sS'feel,90250\n487848382598107136,titobasedgod,2014-07-12'
p1253
I78
sS'determination'
p1254
I78
sS'sab\xc3\xada'
p1255
I78
sS'bros'
p1256
I76
sS'sleeping'
p1257
I78
sS'fucken'
p1258
I78
sS'middle'
p1259
I77
sS'someone'
p1260
I67
sS'punched'
p1261
I78
sS'it*'
p1262
I78
sS'rams'
p1263
I78
sS'technology'
p1264
I78
sS'everyday'
p1265
I77
sS'worry'
p1266
I76
sS'different'
p1267
I77
sS'samo'
p1268
I76
sS'd12'
p1269
I78
sS'swervin'
p1270
I78
sS'alphabet'
p1271
I78
sS'bowl'
p1272
I78
sS'sketchy'
p1273
I78
sS'same'
p1274
I72
sS'check'
p1275
I73
sS'ya'
p1276
I72
sS'bermuda'
p1277
I78
sS'followers'
p1278
I77
sS"anizza's"
p1279
I78
sS'"i'
p1280
I78
sS'viperial'
p1281
I78
sS'workout'
p1282
I78
sS'week'
p1283
I68
sS'finish'
p1284
I77
sS'wyd,90250\n484974613684699136,titobasedgod,2014-07-04'
p1285
I78
sS'weed'
p1286
I76
sS'barber'
p1287
I77
sS'two'
p1288
I76
sS'changing'
p1289
I77
sS'totally'
p1290
I78
sS'mayra'
p1291
I77
sS'stocker'
p1292
I78
sS'eucalyptus'
p1293
I78
sS'(wilke)'
p1294
I78
sS'ass,90250\n487331228270329856,titobasedgod,2014-07-10'
p1295
I78
sS'dying'
p1296
I78
sS'21:08:52.0,33.91072144,-118.34476939,6024.03,stressing'
p1297
I78
sS'floor'
p1298
I78
sS'talking,90250\n487110740868739072,titobasedgod,2014-07-10'
p1299
I78
sS'"how'
p1300
I78
sS'without'
p1301
I75
sS"can't"
p1302
I50
sS'gain'
p1303
I78
sS'very'
p1304
I77
sS'grumpy'
p1305
I78
sS'murda'
p1306
I78
sS'nah'
p1307
I37
sS'parody'
p1308
I76
sS'summer'
p1309
I74
sS'neckobasu'
p1310
I78
sS'realest'
p1311
I78
sS'they'
p1312
I41
sS'being'
p1313
I71
sS'money'
p1314
I75
sS'guadakiki'
p1315
I78
sS'rest'
p1316
I76
sS'shouts'
p1317
I78
sS'pissing'
p1318
I78
sS'kill'
p1319
I76
sS'wifey'
p1320
I78
sS'flavor'
p1321
I78
sS'weekly'
p1322
I78
sS'possible"'
p1323
I78
sS'generator'
p1324
I78
sS'hint'
p1325
I78
sS'thinking'
p1326
I76
sS'rose'
p1327
I78
sS"everyone's"
p1328
I78
sS'seems'
p1329
I77
sS'except'
p1330
I78
sS'lets'
p1331
I76
sS'4'
p1332
I76
sS'veins!\xe2\x80\x9d'
p1333
I78
sS'tuesday'
p1334
I78
sS'real'
p1335
I62
sS'around'
p1336
I71
sS'amo'
p1337
I78
sS'read'
p1338
I77
sS'papers'
p1339
I78
sS'gonna'
p1340
I56
sS'early'
p1341
I71
sS'seahawks'
p1342
I75
sS'listening'
p1343
I76
sS'tanto'
p1344
I78
sS'it.\xe2\x80\x9d'
p1345
I78
sS'using'
p1346
I77
sS'disappointed'
p1347
I78
sS'clan'
p1348
I78
sS'2"miss'
p1349
I78
sS'pounds'
p1350
I78
sS'ifs'
p1351
I78
sS'madden*'
p1352
I78
sS'lightning'
p1353
I78
sS'gimme'
p1354
I77
sS'06:08:20.0,33.91087581,-118.344686,6024.03,kim'
p1355
I78
sS'either'
p1356
I73
sS'tower'
p1357
I78
sS'21:05:37.0,33.91088505,-118.34470629,6024.03,pour'
p1358
I78
sS'learning'
p1359
I78
sS'joking'
p1360
I78
sS'madrid'
p1361
I78
sS'mindraped'
p1362
I78
sS'pacific'
p1363
I78
sS'19:25:29.0,33.91071859,-118.34476797,6024.03,someone'
p1364
I78
sS'gifts)'
p1365
I78
sS'eddie'
p1366
I77
sS'yessy'
p1367
I78
sS'respect'
p1368
I78
sS'playin'
p1369
I78
sS'matching'
p1370
I77
sS'mook'
p1371
I78
sS'gross'
p1372
I78
sS'mood'
p1373
I78
sS'function'
p1374
I78
sS'noon'
p1375
I78
sS'stops'
p1376
I78
sS'^_<'
p1377
I78
sS'bp?,90250\n485167680719044609,titobasedgod,2014-07-04'
p1378
I78
sS'kms'
p1379
I78
sS'ig'
p1380
I78
sS'severed'
p1381
I78
sS'welcome'
p1382
I75
sS'roast'
p1383
I78
sS'business'
p1384
I78
sS'asap'
p1385
I77
sS'lmfao'
p1386
I51
sS'kyoto'
p1387
I78
sS'nails'
p1388
I78
sS'booooo'
p1389
I78
sS'ruining'
p1390
I78
sS'tds'
p1391
I78
sS'mornings,90250\n486182453858406401,titobasedgod,2014-07-07'
p1392
I78
sS'throw'
p1393
I77
sS'demarco'
p1394
I78
sS'labios'
p1395
I78
sS'on'
p1396
I17
sS'ok'
p1397
I72
sS'oh'
p1398
I51
sS'og'
p1399
I78
sS'island'
p1400
I77
sS'cares'
p1401
I78
sS'favorite'
p1402
I76
sS'stand'
p1403
I76
sS'act'
p1404
I77
sS'luck'
p1405
I75
sS'or'
p1406
I52
sS'9ers'
p1407
I78
sS'fundraising'
p1408
I78
sS'wisdomissupreme'
p1409
I78
sS'blessed'
p1410
I78
sS'snapchat'
p1411
I77
sS'accounts'
p1412
I77
sS'homeless'
p1413
I78
sS'heated'
p1414
I77
sS'gomez'
p1415
I78
sS'your'
p1416
I38
sS'stare'
p1417
I78
sS"how's"
p1418
I78
sS'her'
p1419
I48
sS'area'
p1420
I78
sS'slurped'
p1421
I78
sS'there'
p1422
I63
sS'hey'
p1423
I76
sS'lol'
p1424
I12
sS'lmfaooo'
p1425
I65
sS'start'
p1426
I72
sS'steel,90250\n487342547178512384,titobasedgod,2014-07-10'
p1427
I78
sS'racist'
p1428
I78
sS'lot'
p1429
I74
sS'morrison'
p1430
I78
sS'chats'
p1431
I78
sS'media'
p1432
I78
sS'07:59:27.0,33.910781,-118.34471585,6024.03,hypebeast'
p1433
I78
sS'spicy'
p1434
I78
sS'complete'
p1435
I77
sS'kittens'
p1436
I78
sS'awwwwww'
p1437
I78
sS'lmaooo'
p1438
I77
sS'selvin'
p1439
I78
sS'nipsey'
p1440
I78
sS'trying'
p1441
I58
sS'with'
p1442
I29
sS'21:07:10.0,33.91109436,-118.34474228,6024.03,kill'
p1443
I78
sS"they're"
p1444
I78
sS'it,90250\n487697617501970432,titobasedgod,2014-07-11'
p1445
I78
sS"wasn't"
p1446
I65
sS'technician/installer'
p1447
I78
sS'bucket'
p1448
I78
sS'tavon'
p1449
I78
sS'jamaican'
p1450
I78
sS'dirty'
p1451
I78
sS'on?\xe2\x80\x9d'
p1452
I77
sS'pulp'
p1453
I77
sS'toilet'
p1454
I78
sS'taylor'
p1455
I77
sS'hw*'
p1456
I78
sS'videos'
p1457
I78
sS'af'
p1458
I78
sS'taste'
p1459
I78
sS'felix'
p1460
I76
sS'am'
p1461
I71
sS'general'
p1462
I75
sS'as'
p1463
I69
sS'at'
p1464
I22
sS'aw'
p1465
I77
sS'smores'
p1466
I78
sS'girlfriend'
p1467
I76
sS'watched'
p1468
I76
sS'moves'
p1469
I75
sS'fill'
p1470
I78
sS'again'
p1471
I69
sS'yoga'
p1472
I78
sS'05:47:05.0,33.91074893,-118.34475312,6024.03,fed'
p1473
I78
sS'tight'
p1474
I78
sS'5'
p1475
I75
sS'you'
p1476
I5
sS'puppy'
p1477
I78
sS'selecci\xc3\xb3n'
p1478
I78
sS'mafia,90250\n486243763308621826,titobasedgod,2014-07-07'
p1479
I78
sS'poor'
p1480
I76
sS"smith's"
p1481
I78
sS'shaun'
p1482
I78
sS'teeth'
p1483
I78
sS'forgot'
p1484
I76
sS'hawthorne'
p1485
I68
sS'gander'
p1486
I78
sS"she's"
p1487
I75
sS'chris'
p1488
I77
sS'puked'
p1489
I78
sS'finals'
p1490
I78
sS'pool'
p1491
I77
sS'alcohol'
p1492
I78
sS'one?lol'
p1493
I78
sS'along....lol'
p1494
I78
sS'masa'
p1495
I78
sS'wife'
p1496
I77
sS'wifi'
p1497
I78
sS'3-0'
p1498
I78
sS'corey'
p1499
I78
sS'u'
p1500
I56
sS'linens'
p1501
I78
sS'alright'
p1502
I78
sS'overdue'
p1503
I78
sS'starting'
p1504
I73
sS'roster\xe2\x80\x9d'
p1505
I78
sS'jaja'
p1506
I78
sS'all'
p1507
I39
sS'surrounded'
p1508
I78
sS'washed'
p1509
I78
sS'lack'
p1510
I78
sS'none'
p1511
I78
sS'ala'
p1512
I78
sS'bp,90250\n485127242993778688,titobasedgod,2014-07-04'
p1513
I78
sS'dish'
p1514
I77
sS'follow'
p1515
I75
sS'brunettes'
p1516
I78
sS'imma'
p1517
I77
sS'wassup'
p1518
I76
sS'thursday'
p1519
I78
sS'to'
p1520
I3
sS'tl'
p1521
I73
sS'05:32:40.0,33.91082583,-118.34463228,6024.03,slow'
p1522
I78
sS'tf'
p1523
I67
sS'te'
p1524
I76
sS'hill'
p1525
I78
sS'ghana'
p1526
I78
sS'fax'
p1527
I78
sS'worse'
p1528
I78
sS'song'
p1529
I73
sS'far'
p1530
I76
sS'puffy'
p1531
I78
sS'saved'
p1532
I78
sS"20:10:44.0,33.91089304,-118.34472677,6024.03,don't"
p1533
I78
sS'simpsons'
p1534
I77
sS'verb'
p1535
I78
sS'worst'
p1536
I77
sS'decide'
p1537
I78
sS'fam'
p1538
I74
sS'everrrrrr'
p1539
I78
sS'fag'
p1540
I77
sS'strand'
p1541
I78
sS'trigger'
p1542
I78
sS'trippin'
p1543
I77
sS'21:06:03.0,33.91074319,-118.34476495,6024.03,do'
p1544
I78
sS'og,90250\n487106246676205571,titobasedgod,2014-07-10'
p1545
I78
sS"qb's"
p1546
I78
sS'laying'
p1547
I78
sS'sand'
p1548
I78
sS'-1'
p1549
I78
sS'phonics'
p1550
I78
sS'liars'
p1551
I77
sS'small'
p1552
I78
sS"i'll"
p1553
I57
sS'dunk'
p1554
I78
sS'neighborhood'
p1555
I78
sS'instagram'
p1556
I78
sS'past'
p1557
I78
sS'zero'
p1558
I78
sS'pass'
p1559
I76
sS'troll\xe2\x80\x9d'
p1560
I78
sS'what'
p1561
I33
sS'rooney'
p1562
I78
sS'richard'
p1563
I78
sS'sun'
p1564
I78
sS'sum'
p1565
I78
sS'paralegal'
p1566
I78
sS'fucks'
p1567
I76
sS'sus'
p1568
I69
sS'learned'
p1569
I78
sS'vamos'
p1570
I76
sS'tattoos'
p1571
I78
sS'full'
p1572
I76
sS"c'mon"
p1573
I77
sS'answers'
p1574
I78
sS'forgive'
p1575
I78
sS'hours'
p1576
I78
sS'like.\xe2\x80\x9d'
p1577
I78
sS'02:32:49.0,33.91086653,-118.34480401,6024.03,what'
p1578
I78
sS'shoulda'
p1579
I78
sS'social'
p1580
I78
sS'ultra'
p1581
I78
sS'd.c'
p1582
I78
sS'copping'
p1583
I77
sS'pics'
p1584
I77
sS'amount'
p1585
I78
sS'heroin'
p1586
I78
sS'pick'
p1587
I75
sS'action'
p1588
I78
sS"would've"
p1589
I77
sS'murdering'
p1590
I78
sS'\xe2\x9d\xa4\xef\xb8\x8f\xe2\x9d\xa4\xef\xb8\x8f\xe2\x9d\xa4\xef\xb8\x8f\xe2\x9d\xa4\xef\xb8\x8f\xe2\x9d\xa4\xef\xb8\x8f'
p1591
I78
sS'captions'
p1592
I78
sS'adidas'
p1593
I77
sS'vez'
p1594
I78
sS'clique'
p1595
I78
sS'put'
p1596
I73
sS'semester'
p1597
I75
sS'lurked'
p1598
I78
sS'actress'
p1599
I78
sS'rko'
p1600
I78
sS'omfgggggg'
p1601
I78
sS'9er'
p1602
I78
sS'takes'
p1603
I77
sS'amaze'
p1604
I78
sS'intense'
p1605
I78
sS'texting'
p1606
I76
sS'balled'
p1607
I76
sS'irritate'
p1608
I78
sS'6'
p1609
I72
sS'shits'
p1610
I78
sS'injury'
p1611
I78
sS'minor'
p1612
I78
sS'more'
p1613
I71
sS'horses'
p1614
I78
sS'tryna'
p1615
I78
sS'ramona'
p1616
I78
sS'(no'
p1617
I78
sS'company'
p1618
I78
sS'stutter'
p1619
I78
sS'floyd'
p1620
I75
sS"ain't"
p1621
I64
sS'stick'
p1622
I78
sS'broke'
p1623
I75
sS'slow,90250\n487863977272016896,titobasedgod,2014-07-12'
p1624
I78
sS'glad'
p1625
I78
sS'one...fuck'
p1626
I78
sS'keeping'
p1627
I77
sS'hour'
p1628
I75
sS'watchu'
p1629
I77
sS'science'
p1630
I77
sS'sucks'
p1631
I78
sS'22:18:24.0,33.91098655,-118.34473664,6024.03,water,90250\n486256095648698368,titobasedgod,2014-07-07'
p1632
I78
sS',90250\n487342382401060864,titobasedgod,2014-07-10'
p1633
I78
sS'wrestler'
p1634
I78
sS'male'
p1635
I78
sS'alyssa'
p1636
I78
sS'def'
p1637
I78
sS'beautiful'
p1638
I74
sS'stubborn'
p1639
I78
sS'brown'
p1640
I77
sS'lives'
p1641
I78
sS'08:38:20.0,33.91071725,-118.34470058,6024.03,lames,90250\n485279496946216962,titobasedgod,2014-07-05'
p1642
I78
sS'sense'
p1643
I76
sS'fuuuuuuuuuuuuuuuuuuuuuuuuuuuuuuuuuuuuuuuuuuuuuuuck'
p1644
I78
sS'hamburgers'
p1645
I77
sS"02:31:02.0,33.91062135,-118.34468976,6024.03,who's"
p1646
I78
sS'goal'
p1647
I78
sS'rather'
p1648
I78
sS'chops'
p1649
I78
sS'breaking'
p1650
I78
sS'stayed'
p1651
I75
sS'lips\xe2\x80\x9d'
p1652
I78
sS'goat'
p1653
I76
sS'okay'
p1654
I66
sS'plans'
p1655
I77
sS'dick...forever'
p1656
I78
sS'fc'
p1657
I78
sS'(laws)'
p1658
I78
sS'coming'
p1659
I74
sS'bahaha'
p1660
I78
sS'?,90250\n487701066184523776,titobasedgod,2014-07-11'
p1661
I78
sS'a'
p1662
I6
sS"that'd"
p1663
I78
sS'tweeting'
p1664
I78
sS'shady'
p1665
I78
sS'doctor'
p1666
I78
sS'overnight'
p1667
I78
sS'05:33:31.0,33.91082576,-118.34474218,6024.03,smoking'
p1668
I78
sS'dread'
p1669
I78
sS'go!rodgers'
p1670
I78
sS'lmfaooooo'
p1671
I76
sS'you,90250\n486242586277842944,titobasedgod,2014-07-07'
p1672
I78
sS'dream'
p1673
I78
sS'playing'
p1674
I74
sS"that's"
p1675
I31
sS"05:29:13.0,33.91073661,-118.34481524,6024.03,can't"
p1676
I78
sS'help'
p1677
I76
sS"don't"
p1678
I20
sS'dariab28'
p1679
I77
sS'sooo'
p1680
I77
sS'soon'
p1681
I76
sS'trade'
p1682
I76
sS'cook'
p1683
I78
sS'paper'
p1684
I76
sS'through'
p1685
I72
sS'hell'
p1686
I73
sS'mcdonalds'
p1687
I77
sS'its'
p1688
I72
sS'licks'
p1689
I78
sS'21'
p1690
I78
sS'pray'
p1691
I77
sS'actually'
p1692
I74
sS'late'
p1693
I76
sS'laces'
p1694
I78
sS'messes'
p1695
I78
sS'\xc3\x81rbitro'
p1696
I78
sS'bout'
p1697
I64
sS'soccer'
p1698
I76
sS'might'
p1699
I71
sS"haven't"
p1700
I76
sS'catfish'
p1701
I78
sS'good'
p1702
I45
sS'return'
p1703
I78
sS'yo'
p1704
I62
sS'food'
p1705
I71
sS'yg'
p1706
I78
sS'limped'
p1707
I78
sS'goot'
p1708
I78
sS'moaning'
p1709
I78
sS"you've"
p1710
I77
sS'party'
p1711
I78
sS'micai*'
p1712
I78
sS'complain'
p1713
I78
sS'association'
p1714
I78
sS'fantasy'
p1715
I72
sS'always'
p1716
I65
sS'drake'
p1717
I75
sS'wya,90250\n487348120045355008,titobasedgod,2014-07-10'
p1718
I78
sS'?,90250\n487841228600274944,titobasedgod,2014-07-12'
p1719
I78
sS'stopped'
p1720
I77
sS'god,90250\n486252056349376512,titobasedgod,2014-07-07'
p1721
I78
sS'found'
p1722
I78
sS'repeating'
p1723
I77
sS'button'
p1724
I78
sS"isn't"
p1725
I73
sS'2k'
p1726
I78
sS'everyone'
p1727
I76
sS'today...i'
p1728
I78
sS'house'
p1729
I73
sS'flick'
p1730
I78
sS'hard'
p1731
I72
sS'idea'
p1732
I78
sS'brother'
p1733
I77
sS'3-9-13'
p1734
I78
sS'oil'
p1735
I78
sS'expect'
p1736
I78
sS"ronaldo's"
p1737
I78
sS'crosse'
p1738
I78
sS'butthurt'
p1739
I78
sS'really'
p1740
I50
sS'prolly'
p1741
I78
sS'missed'
p1742
I76
sS'bullied'
p1743
I78
sS'childish'
p1744
I75
sS'since'
p1745
I74
sS'chente'
p1746
I78
sS'acting'
p1747
I77
sS'21:17:59.0,33.9107745,-118.34479588,6024.03,tf'
p1748
I78
sS'hood'
p1749
I78
sS"they'll"
p1750
I77
sS'highway'
p1751
I78
sS'ass'
p1752
I37
sS'timeline'
p1753
I78
sS'friday'
p1754
I75
sS'goleador'
p1755
I78
sS'systemstrainingcenter'
p1756
I76
sS'bulls'
p1757
I78
sS'reason'
p1758
I75
sS'killin'
p1759
I77
sS'asf'
p1760
I52
sS'fatass'
p1761
I78
sS'imagine'
p1762
I77
sS'ask'
p1763
I73
sS'teach'
p1764
I78
sS'ash'
p1765
I78
sS'mma'
p1766
I77
sS'beast'
p1767
I78
sS'wooooooooooooow'
p1768
I78
sS'shit,90250\n487864182516097024,titobasedgod,2014-07-12'
p1769
I78
sS'majors....omg'
p1770
I78
sS'success'
p1771
I78
sS'caption'
p1772
I78
sS'expecting'
p1773
I75
sS'bonfire'
p1774
I78
sS'w'
p1775
I77
sS'major'
p1776
I78
sS'dont'
p1777
I77
sS'3ds'
p1778
I78
sS'feel'
p1779
I62
sS'vmas'
p1780
I78
sS'knocking'
p1781
I78
sS'number'
p1782
I77
sS'fancy'
p1783
I78
sS'feet'
p1784
I78
sS'sisters'
p1785
I78
sS'done'
p1786
I71
sS'hangs'
p1787
I78
sS'fees'
p1788
I78
sS'kobe'
p1789
I77
sS'scoping'
p1790
I78
sS'miss'
p1791
I70
sS'lmaooooooo'
p1792
I78
sS'bitch,90250\n486275899231174657,titobasedgod,2014-07-07'
p1793
I78
sS'guess'
p1794
I73
sS'"'
p1795
I77
sS'heads'
p1796
I78
sS'bortles'
p1797
I78
sS'game...thug'
p1798
I78
sS'gourmet'
p1799
I78
sS'5th'
p1800
I78
sS'least'
p1801
I74
sS'187'
p1802
I78
sS'passed'
p1803
I76
sS'master'
p1804
I77
sS'banana'
p1805
I77
sS'store'
p1806
I72
sS'headache'
p1807
I77
sS'16:18:24.0,33.91106627,-118.34488999,6024.03,get'
p1808
I78
sS'storm'
p1809
I78
sS'para'
p1810
I78
sS'hotel'
p1811
I78
sS'park'
p1812
I76
sS'am\xc3\xa9rica'
p1813
I78
sS'mmmm'
p1814
I78
sS'part'
p1815
I78
sS'doctors'
p1816
I78
sS'siguiente'
p1817
I78
sS'believe'
p1818
I74
sS'kind'
p1819
I78
sS'dam'
p1820
I78
sS'22:29:43.0,33.91071122,-118.34479815,6024.03,,90250\n486273051219075072,titobasedgod,2014-07-07'
p1821
I78
sS'bro\xe2\x80\x9d'
p1822
I78
sS"there's"
p1823
I78
sS'pampered'
p1824
I78
sS'ooookay'
p1825
I78
sS'greg'
p1826
I78
sS'supposed'
p1827
I76
sS'charger'
p1828
I78
sS'dang'
p1829
I78
sS'lagging,90250\n486020163758604288,titobasedgod,2014-07-07'
p1830
I78
sS'gps'
p1831
I78
sS'ousted'
p1832
I78
sS'pause....."the'
p1833
I78
sS'outta'
p1834
I73
sS'basically'
p1835
I78
sS'wasnt'
p1836
I78
sS'fights'
p1837
I77
sS'debit'
p1838
I78
sS'hussle'
p1839
I78
sS'randomly'
p1840
I77
sS'outtt'
p1841
I78
sS'illiterate'
p1842
I78
sS"systemstrainingcenter's\xe2\x80\xa6"
p1843
I78
sS'macai'
p1844
I78
sS'orders'
p1845
I78
sS'sell'
p1846
I77
sS'lie'
p1847
I74
sS'nights'
p1848
I77
sS'qb.\xe2\x80\x9d'
p1849
I78
sS'dancing'
p1850
I78
sS'lil'
p1851
I60
sS'odd'
p1852
I78
sS'cave'
p1853
I77
sS'shelbs'
p1854
I77
sS'henne'
p1855
I78
sS'cleveland...\xe2\x80\x9d'
p1856
I78
sS'lip'
p1857
I78
sS'build'
p1858
I78
sS'finding'
p1859
I77
sS'cavs'
p1860
I78
sS"angel's"
p1861
I78
sS'play'
p1862
I71
sS'added'
p1863
I77
sS'quote'
p1864
I78
sS'reach'
p1865
I78
sS'systems'
p1866
I78
sS'singlet'
p1867
I78
sS'jst'
p1868
I78
sS"wr's"
p1869
I77
sS'yawk'
p1870
I75
sS"'cause"
p1871
I78
sS'kat'
p1872
I78
sS'nothing'
p1873
I70
sS'seasons'
p1874
I78
sS'funnier'
p1875
I78
sS'chunti'
p1876
I78
sS'lag,90250\n486015226886627329,titobasedgod,2014-07-07'
p1877
I78
sS'bug'
p1878
I78
sS'clear'
p1879
I76
sS'sometimes'
p1880
I73
sS'cover'
p1881
I78
sS'07:44:23.0,33.91079943,-118.34483673,6024.03,all'
p1882
I78
sS'machine(even'
p1883
I78
sS'clean'
p1884
I77
sS'hips'
p1885
I78
sS'ugh'
p1886
I77
sS'gates'
p1887
I78
sS'wasted'
p1888
I78
sS'booze'
p1889
I77
sS'rts'
p1890
I78
sS"l's\xe2\x80\x9d"
p1891
I78
sS'fine'
p1892
I75
sS'find'
p1893
I70
sS'come.\xe2\x80\x9d'
p1894
I78
sS'wraps'
p1895
I78
sS'nicknames'
p1896
I78
sS'ruin'
p1897
I78
sS'starters'
p1898
I78
sS'flights'
p1899
I78
sS'pretty'
p1900
I68
sS'8'
p1901
I76
sS'circle'
p1902
I78
sS'ruiz'
p1903
I78
sS'his'
p1904
I62
sS'hit'
p1905
I71
sS'express'
p1906
I78
sS'sunny'
p1907
I78
sS'micheals'
p1908
I78
sS'feels'
p1909
I74
sS'actions'
p1910
I78
sS'20:01:32.0,33.91098482,-118.34479391,6024.03,need'
p1911
I78
sS'shared'
p1912
I78
sS"george's"
p1913
I78
sS'him'
p1914
I66
sS'merchandise'
p1915
I78
sS'tabby'
p1916
I78
sS'nickelodeon'
p1917
I78
sS'thots'
p1918
I78
sS'lmfaoooooo'
p1919
I78
sS'hype'
p1920
I77
sS'x'
p1921
I78
sS'vincent'
p1922
I78
sS'cutie'
p1923
I78
sS'set'
p1924
I76
sS"60's"
p1925
I78
sS'throwing'
p1926
I78
sS'vibin'
p1927
I78
sS'sex'
p1928
I77
sS'manning'
p1929
I78
sS'see'
p1930
I51
sS'defense'
p1931
I76
sS'dumb'
p1932
I73
sS'are'
p1933
I54
sS'close'
p1934
I76
sS'11th'
p1935
I77
sS'11:31am'
p1936
I78
sS'it...\xe2\x80\x9d'
p1937
I78
sS'project'
p1938
I77
sS'movie'
p1939
I76
sS'wow'
p1940
I63
sS'currently'
p1941
I78
sS'please'
p1942
I77
sS'6:45\xe2\x9c\x8c\xef\xb8\x8f\xe2\x9c\x8c\xef\xb8\x8f'
p1943
I78
sS'fans'
p1944
I78
sS'paisa'
p1945
I77
sS'tho)'
p1946
I78
sS'tomorrow...8hr'
p1947
I78
sS'up.\xe2\x80\x9d'
p1948
I78
sS'probably'
p1949
I73
sS'rite'
p1950
I76
sS'donate'
p1951
I77
sS'nope'
p1952
I77
sS"07:48:46.0,33.91083757,-118.34481021,6024.03,don't"
p1953
I78
sS'knowing'
p1954
I77
sS'solo'
p1955
I78
sS'recently'
p1956
I78
sS'statistically'
p1957
I78
sS'missing'
p1958
I75
sS'sold'
p1959
I78
sS'attention'
p1960
I78
sS'outfit'
p1961
I77
sS'blunt,90250\n485873374808133636,titobasedgod,2014-07-06'
p1962
I78
sS'pepsi'
p1963
I78
sS'19:50:14.0,33.91079438,-118.3447814,6024.03,bh'
p1964
I78
sS'pissed'
p1965
I77
sS'league'
p1966
I74
sS'squad,90250\n486283684245303296,titobasedgod,2014-07-07'
p1967
I78
sS'last'
p1968
I60
sS'restaurant'
p1969
I78
sS'thot'
p1970
I77
sS"wouldn't"
p1971
I73
sS'job\xe2\x80\x9d'
p1972
I78
sS"rally's"
p1973
I77
sS'sensitive'
p1974
I77
sS'sparring'
p1975
I77
sS'8am'
p1976
I78
sS'retarded'
p1977
I76
sS'whole'
p1978
I75
sS'finds'
p1979
I78
sS'faggots'
p1980
I78
sS'liked'
p1981
I78
sS'drunk'
p1982
I77
sS'reasons'
p1983
I78
sS'sweet'
p1984
I76
sS'whatever'
p1985
I76
sS'hollow'
p1986
I78
sS"hadn't"
p1987
I78
sS'luis'
p1988
I78
sS'20:36:05.0,33.91070905,-118.34473071,6024.03,trench'
p1989
I78
sS'expensive'
p1990
I76
sS'belt'
p1991
I77
sS'consuming'
p1992
I78
sS'devil'
p1993
I78
sS'raise'
p1994
I78
sS'21:24:20.0,33.9107745,-118.34479587,6024.03,ceci'
p1995
I78
sS'creativity'
p1996
I78
sS'clyde'
p1997
I78
sS'yds'
p1998
I78
sS'hitting'
p1999
I78
sS'dropping'
p2000
I78
sS'damn'
p2001
I61
sS'donde'
p2002
I78
sS'meeting'
p2003
I78
sS'whoa'
p2004
I77
sS'woke'
p2005
I77
sS'concerts...getting'
p2006
I78
sS'firm'
p2007
I78
sS'sanders'
p2008
I77
sS'suspicious'
p2009
I78
sS'flight'
p2010
I75
sS'gay'
p2011
I71
sS'fire'
p2012
I76
sS"what's"
p2013
I75
sS'transferring'
p2014
I77
sS'else'
p2015
I72
sS'awake'
p2016
I76
sS'argentinian'
p2017
I78
sS'dialing'
p2018
I78
sS'funk'
p2019
I77
sS'06:09:44.0,33.91093468,-118.34468592,6024.03,nah,90250\n484941762671034368,titobasedgod,2014-07-04'
p2020
I78
sS'20:39:07.0,33.91076713,-118.34458417,6024.03,foulest'
p2021
I78
sS'raw'
p2022
I78
sS'solid'
p2023
I78
sS'today,90250\n486247385345957888,titobasedgod,2014-07-07'
p2024
I78
sS'straight'
p2025
I57
sS'tip'
p2026
I78
sS'convo'
p2027
I76
sS'caeli'
p2028
I78
sS'while'
p2029
I77
sS'kick'
p2030
I78
sS'ugly."'
p2031
I78
sS'fun'
p2032
I76
sS'robin'
p2033
I78
sS'fernandez'
p2034
I78
sS'pack'
p2035
I78
sS'pound'
p2036
I74
sS'hoping'
p2037
I78
sS"21:28:23.0,33.91079302,-118.34488632,6024.03,when's"
p2038
I78
sS'ready'
p2039
I72
sS'rid'
p2040
I77
sS"dyrdek's"
p2041
I78
sS"germany's"
p2042
I78
sS'funny'
p2043
I75
sS'shirt'
p2044
I78
sS'anymore'
p2045
I72
sS'shay'
p2046
I78
sS'up....yo'
p2047
I78
sS'wierd'
p2048
I77
sS'peoples'
p2049
I78
sS'9'
p2050
I77
sS'it\xe2\x80\x9d'
p2051
I78
sS'used'
p2052
I73
sS'regulator'
p2053
I78
sS'illest'
p2054
I78
sS'yesterday'
p2055
I77
sS'hours\xe2\x80\x9d'
p2056
I78
sS'moment'
p2057
I76
sS'feds'
p2058
I78
sS'3"'
p2059
I78
sS'something,90250\n485095929532260352,titobasedgod,2014-07-04'
p2060
I78
sS'(4332-4378'
p2061
I78
sS'swag*'
p2062
I78
sS'braces'
p2063
I78
sS'hows'
p2064
I78
sS'dooda'
p2065
I78
sS'stephanie'
p2066
I78
sS'codeine'
p2067
I78
sS'spent'
p2068
I78
sS'grind'
p2069
I77
sS'person'
p2070
I71
sS'spend'
p2071
I77
sS'i\xe2\x80\x99m'
p2072
I77
sS'misunderstood,90250\n486054080146452480,titobasedgod,2014-07-07'
p2073
I78
sS'mom'
p2074
I68
sS'10080'
p2075
I78
sS'soooooooooooo'
p2076
I78
sS'world'
p2077
I75
sS'whhhyyyyyyyyyyyy'
p2078
I78
sS'praying'
p2079
I78
sS'injuries'
p2080
I78
sS'procrastinating'
p2081
I78
sS'cut'
p2082
I76
sS'swallowing'
p2083
I78
sS'surprises'
p2084
I78
sS'guaranteed'
p2085
I78
sS'cuz'
p2086
I46
sS'\xd0\xa2his'
p2087
I78
sS'besarme'
p2088
I78
sS'parents'
p2089
I78
sS'18:23:52.0,33.91065606,-118.34479236,6024.03,pissed,90250\n487297412084400128,titobasedgod,2014-07-10'
p2090
I78
sS'crying'
p2091
I74
sS'homies'
p2092
I78
sS'snap'
p2093
I77
sS'debatable'
p2094
I78
sS'excited'
p2095
I77
sS'06:11:41.0,33.91071356,-118.34469354,6024.03,the'
p2096
I78
sS'useless'
p2097
I78
sS'bio'
p2098
I74
sS'ight'
p2099
I78
sS'big'
p2100
I76
sS'couple'
p2101
I77
sS'mcm'
p2102
I78
sS'shitty'
p2103
I78
sS'game'
p2104
I70
sS'cagar'
p2105
I78
sS'haaaayyyy'
p2106
I78
sS'bit'
p2107
I78
sS'19:16:45.0,33.9108307,-118.34472665,6024.03,um,90250\n487676683571310593,titobasedgod,2014-07-11'
p2108
I78
sS'jacksonville'
p2109
I78
sS'knock'
p2110
I78
sS'rg3'
p2111
I78
sS'd'
p2112
I73
sS'signal'
p2113
I78
sS'individuals'
p2114
I78
sS'foolish'
p2115
I78
sS'essential'
p2116
I78
sS'hinted'
p2117
I78
sS'fucking'
p2118
I55
sS'spring'
p2119
I78
sS"daphne's"
p2120
I78
sS'back'
p2121
I64
sS'b*'
p2122
I78
sS'b4'
p2123
I78
sS'bouncy'
p2124
I77
sS'stoooppid'
p2125
I78
sS'ahuevo'
p2126
I78
sS'savage'
p2127
I78
sS'acquaintance'
p2128
I78
sS'decision'
p2129
I78
sS'debra'
p2130
I78
sS'22:55:20.0,33.91072806,-118.34473528,6024.03,acid'
p2131
I78
sS'('
p2132
I78
sS'know,90250\n487862544762028032,titobasedgod,2014-07-12'
p2133
I78
sS'pele'
p2134
I78
sS'dating'
p2135
I77
sS'prob'
p2136
I78
sS'"lose'
p2137
I77
sS'be'
p2138
I21
sS'eating'
p2139
I76
sS'bc'
p2140
I68
sS'lmaoooo'
p2141
I78
sS'martin'
p2142
I75
sS'laker'
p2143
I78
sS'bi'
p2144
I78
sS'step'
p2145
I78
sS'bs'
p2146
I78
sS'usc'
p2147
I78
sS'bayern'
p2148
I78
sS'boringest'
p2149
I78
sS'tripping'
p2150
I76
sS'vaccine'
p2151
I78
sS'loud\xe2\x80\x9d'
p2152
I78
sS'pipeline'
p2153
I78
sS'anything'
p2154
I70
sS'most'
p2155
I74
sS'chico'
p2156
I78
sS'awwww'
p2157
I78
sS'deserves'
p2158
I78
sS'beans'
p2159
I78
sS'idk'
p2160
I61
sS'ceci'
p2161
I77
sS'thotnie'
p2162
I78
sS'cockblock'
p2163
I78
sS'wanna'
p2164
I59
sS'idc'
p2165
I64
sS'block'
p2166
I77
sS'tomboy'
p2167
I78
sS'seeing'
p2168
I76
sS'>:('
p2169
I78
sS'ayye'
p2170
I78
sS'letter'
p2171
I78
sS'garbage'
p2172
I78
sS'visit'
p2173
I78
sS'into'
p2174
I70
sS'nigga'
p2175
I21
sS'idgs'
p2176
I78
sS'sports'
p2177
I78
sS'downhill'
p2178
I78
sS'marshawn'
p2179
I78
sS'story'
p2180
I78
sS'bombest'
p2181
I78
sS'spending'
p2182
I77
sS'live'
p2183
I78
sS'long'
p2184
I74
sS'awks'
p2185
I77
sS"18:38:05.0,33.91074586,-118.34476509,6024.03,can't"
p2186
I78
sS"we're"
p2187
I77
sS'snowman'
p2188
I78
sS'bruh'
p2189
I45
sS'forward'
p2190
I77
sS'bored'
p2191
I74
sS'scared'
p2192
I77
sS'u"'
p2193
I78
sS'real)'
p2194
I78
sS'allchillengerson'
p2195
I78
sS'frost'
p2196
I77
sS'santeria'
p2197
I78
sS'girlfriends'
p2198
I78
sS'boys'
p2199
I77
sS'properly'
p2200
I78
sS'potato'
p2201
I78
sS'posted'
p2202
I78
sS'face,90250\n486019950054621185,titobasedgod,2014-07-07'
p2203
I78
sS'angels'
p2204
I78
sS"hasn't"
p2205
I78
sS'us'
p2206
I72
sS'ur'
p2207
I77
sS'dropkick'
p2208
I77
sS'faded'
p2209
I78
sS'niiiiiiiiiiice'
p2210
I78
sS'called'
p2211
I76
sS'everydays'
p2212
I78
sS'tmrrw'
p2213
I78
sS'ko'
p2214
I78
sS'swag\xe2\x80\x9d'
p2215
I78
sS'starbucks'
p2216
I78
sS'bootcamp'
p2217
I78
sS'single'
p2218
I78
sS'shit,90250\n487140259407224832,titobasedgod,2014-07-10'
p2219
I78
sS'21:28:34.0,33.91076838,-118.34483494,6024.03,kano,90250\n487347628116430849,titobasedgod,2014-07-10'
p2220
I78
sS'dropkicked'
p2221
I77
sS'cotton'
p2222
I77
sS'facebook'
p2223
I78
sS'codes'
p2224
I78
sS'tito'
p2225
I77
sS'peace'
p2226
I75
sS'nick'
p2227
I77
sS'nap'
p2228
I77
sS'points'
p2229
I78
sS'pooping'
p2230
I78
sS'rockzzzz'
p2231
I78
sS'manhattan'
p2232
I78
sS'nice'
p2233
I62
sS'07:48:17.0,33.91077855,-118.34487856,6024.03,if'
p2234
I78
sS'pre-decorated'
p2235
I78
sS'users'
p2236
I78
sS'reportedly'
p2237
I78
sS'06:22:20.0,33.91073165,-118.34472283,6024.03,stressed'
p2238
I78
sS'dressed...my'
p2239
I78
sS'kansas'
p2240
I77
sS'papa'
p2241
I78
sS'occurred'
p2242
I78
sS'william'
p2243
I78
sS'rested'
p2244
I78
sS'market\xe2\x80\xa6'
p2245
I78
sS'3mnths'
p2246
I78
sS'fighter'
p2247
I78
sS'prior*'
p2248
I78
sS'hella'
p2249
I75
sS'dot'
p2250
I78
sS'die."\xe2\x80\x9d\xe2\x80\x9d'
p2251
I78
sS'beers'
p2252
I77
sS'thug*'
p2253
I78
sS'buffalo'
p2254
I78
sS'having'
p2255
I70
sS'once'
p2256
I75
sS',90250\n487731895770169344,titobasedgod,2014-07-11'
p2257
I78
sS'waiting\xe2\x80\xa6'
p2258
I78
sS'csuf'
p2259
I78
sS'alien'
p2260
I78
sS'gf'
p2261
I78
sS'gana'
p2262
I78
sS'gb'
p2263
I78
sS'go'
p2264
I41
sS'gn'
p2265
I78
sS'flashback'
p2266
I78
sS'tweeted'
p2267
I78
sS'chillin'
p2268
I70
sS'06:13:42.0,33.91070877,-118.34480575,6024.03,anyone'
p2269
I78
sS'young'
p2270
I73
sS'send'
p2271
I78
sS'include'
p2272
I78
sS'sent'
p2273
I78
sS'pay'
p2274
I78
sS'street'
p2275
I78
sS'mainstream'
p2276
I78
sS'outside'
p2277
I78
sS'end'
p2278
I78
sS'wave'
p2279
I77
sS'"don\'t"'
p2280
I78
sS'lmfaoooooooooooooooo'
p2281
I78
sS'putting'
p2282
I78
sS'19:14:03.0,33.91088998,-118.34475478,6024.03,shop,90250\n487467600574545920,titobasedgod,2014-07-11'
p2283
I78
sS'telling'
p2284
I76
sS'drinking'
p2285
I78
sS'isaiah'
p2286
I78
sS'20:17:21.0,33.91070621,-118.3447628,6024.03,\xe2\x9c\x8b,90250\n486242034378747904,titobasedgod,2014-07-07'
p2287
I78
sS'magic'
p2288
I78
sS'comiste'
p2289
I78
sS'joel'
p2290
I77
sS'michael'
p2291
I78
sS'eve'
p2292
I78
sS'ryan'
p2293
I78
sS'try'
p2294
I69
sS'avoiding'
p2295
I78
sS'challenge'
p2296
I78
sS'logistics'
p2297
I78
sS'booty'
p2298
I72
sS"you'd"
p2299
I78
sS'kikis'
p2300
I78
sS'stoned'
p2301
I78
sS'>=['
p2302
I78
sS'waking'
p2303
I78
sS'20:54:52.0,33.91085484,-118.34479085,6024.03,work'
p2304
I78
sS'ands'
p2305
I78
sS'picked'
p2306
I77
sS'acid'
p2307
I75
sS'twitters'
p2308
I78
sS'plays'
p2309
I78
sS'20:52:06.0,33.91080957,-118.34473142,6024.03,not'
p2310
I78
sS'giving'
p2311
I76
sS'fat'
p2312
I78
sS'waiting'
p2313
I69
sS'obvious'
p2314
I78
sS'card,90250\n487345011017539584,titobasedgod,2014-07-10'
p2315
I78
sS'degree'
p2316
I78
sS'leg'
p2317
I78
sS'apologetic'
p2318
I78
sS'commercial'
p2319
I78
sS'teleportation'
p2320
I78
sS'eminem'
p2321
I78
sS'packing'
p2322
I78
sS'let'
p2323
I62
sS'sink'
p2324
I78
sS'fulfill'
p2325
I78
sS'sing'
p2326
I77
sS'leggings'
p2327
I78
sS'great'
p2328
I73
sS'lillard'
p2329
I76
sS'talent'
p2330
I77
sS'30'
p2331
I78
sS'leaving'
p2332
I77
sS'opinion'
p2333
I75
sS'proof'
p2334
I78
sS'makes'
p2335
I74
sS'honor'
p2336
I78
sS'thats'
p2337
I77
sS'19:00:12.0,33.91075225,-118.344672,6024.03,,90250\n485492829167161345,titobasedgod,2014-07-05'
p2338
I78
sS'win'
p2339
I76
sS'app'
p2340
I77
sS'manage'
p2341
I78
sS'throwback'
p2342
I78
sS'wit'
p2343
I77
sS'apply'
p2344
I78
sS'hotbox,90250\n486255122406580226,titobasedgod,2014-07-07'
p2345
I78
sS'standing'
p2346
I78
sS'aldo'
p2347
I77
sS'use'
p2348
I77
sS'hahahahaha'
p2349
I77
sS'from'
p2350
I62
sS'hears'
p2351
I78
sS'usa'
p2352
I72
sS'&'
p2353
I64
sS'txtd'
p2354
I78
sS'birthday,90250\n484942604925038592,titobasedgod,2014-07-04'
p2355
I78
sS'next'
p2356
I66
sS'fights..\xe2\x80\x9d'
p2357
I78
sS'feel?"'
p2358
I78
sS'07:12:26.0,33.91078175,-118.34472816,6024.03,trying'
p2359
I78
sS',90250\n487865082232057856,titobasedgod,2014-07-12'
p2360
I78
sS'cheeks'
p2361
I78
sS'planing'
p2362
I78
sS'trash\xe2\x80\x9d'
p2363
I78
sS'nemo'
p2364
I78
sS'babe'
p2365
I71
sS'condom'
p2366
I78
sS'06:22:24.0,33.91075443,-118.34476814,6024.03,or'
p2367
I78
sS'about'
p2368
I47
sS'fuck'
p2369
I32
sS'baby'
p2370
I75
sS'borning'
p2371
I78
sS'starter'
p2372
I78
sS'had'
p2373
I64
sS'annoy'
p2374
I78
sS'account'
p2375
I75
sS'balls'
p2376
I78
sS'f'
p2377
I78
sS'this'
p2378
I18
sS'ride'
p2379
I75
sS'sounded'
p2380
I78
sS'50ft'
p2381
I78
sS'lmfaoooooooo'
p2382
I78
sS'anywhere'
p2383
I78
sS'crossed'
p2384
I78
sS'lucario'
p2385
I78
sS'of'
p2386
I23
sS'aight'
p2387
I41
sS'meet'
p2388
I77
sS'sesh,90250\n485878533646843904,titobasedgod,2014-07-06'
p2389
I78
sS'v.jackson'
p2390
I78
sS'sabe'
p2391
I78
sS'i\xe2\x80\x9d'
p2392
I78
sS'slid'
p2393
I78
sS'patrol'
p2394
I78
sS'thirsty'
p2395
I77
sS'process'
p2396
I78
sS'halloween'
p2397
I78
sS'high'
p2398
I77
sS'villain'
p2399
I78
sS'tag'
p2400
I78
sS'something'
p2401
I68
sS'blvd'
p2402
I77
sS'triangle'
p2403
I78
sS'shower*\xe2\x80\x9d'
p2404
I78
sS'rape'
p2405
I78
sS'sis'
p2406
I76
sS'hesitate'
p2407
I78
sS'mannnnn'
p2408
I78
sS'lame'
p2409
I78
sS'vibe'
p2410
I78
sS'boxing'
p2411
I78
sS'swisher'
p2412
I78
sS'boi\xe2\x80\xbc\xef\xb8\x8f'
p2413
I78
sS'make\xe2\x80\x9d'
p2414
I78
sS'guatemalan'
p2415
I78
sS'mccoy'
p2416
I78
sS'comedy'
p2417
I78
sS'sin'
p2418
I78
sS'profile'
p2419
I78
sS'attend'
p2420
I78
sS'stop'
p2421
I66
sS'brazzers'
p2422
I78
sS'lmfaoo'
p2423
I68
sS'chiefs'
p2424
I78
sS'jiffy'
p2425
I74
sS'toma'
p2426
I78
sS'hahahaha'
p2427
I77
sS'realized'
p2428
I77
sS'tats'
p2429
I78
sS'lines'
p2430
I78
sS'scoop'
p2431
I78
sS'gabriel_camizzi'
p2432
I78
sS'honestly'
p2433
I75
sS'hay'
p2434
I78
sS'classy'
p2435
I78
sS'preparing'
p2436
I78
sS'11-3'
p2437
I78
sS'move'
p2438
I77
sS'directv'
p2439
I77
sS'juilian'
p2440
I78
sS"won't"
p2441
I71
sS'looks'
p2442
I74
sS'during'
p2443
I78
sS'horny'
p2444
I78
sS'galaxy'
p2445
I78
sS'curling'
p2446
I78
sS'perfect'
p2447
I76
sS'write'
p2448
I78
sS'18:25:22.0,33.91084568,-118.34477924,6024.03,a'
p2449
I78
sS'complicate'
p2450
I78
sS'la'
p2451
I74
sS'sunday'
p2452
I78
sS'winning'
p2453
I78
sS'madre'
p2454
I78
sS'willing'
p2455
I78
sS'lately\xe2\x80\x9d'
p2456
I78
sS'orange'
p2457
I78
sS'puerto'
p2458
I78
sS'bye'
p2459
I77
sS'dad'
p2460
I71
sS'empanadas'
p2461
I78
sS'dab'
p2462
I78
sS'auto'
p2463
I77
sS'bat'
p2464
I77
sS'mention'
p2465
I78
sS'kiss'
p2466
I78
sS'hands'
p2467
I72
sS'front'
p2468
I56
sS'day'
p2469
I61
sS'fuuuucckkk'
p2470
I78
sS'blazing'
p2471
I78
sS'arlene'
p2472
I78
sS'slide'
p2473
I78
sS'kobie'
p2474
I78
sS'yesterday..$15'
p2475
I78
sS'trap'
p2476
I78
sS'truth'
p2477
I76
sS'tights'
p2478
I78
sS'michaels'
p2479
I78
sS'bills'
p2480
I77
sS'ankles'
p2481
I78
sS'drizzy'
p2482
I78
sS'doing'
p2483
I71
sS'alfredo'
p2484
I78
sS'parties'
p2485
I78
sS'levy'
p2486
I78
sS'21:27:24.0,33.91074215,-118.344787,6024.03,today'
p2487
I78
sS'alejandro'
p2488
I78
sS'books'
p2489
I78
sS'20:15:09.0,33.91070637,-118.34473556,6024.03,good'
p2490
I78
sS'tranny'
p2491
I77
sS'our'
p2492
I73
sS'witness'
p2493
I78
sS'out'
p2494
I34
sS'studio\xe2\x80\x9d'
p2495
I78
sS'rey'
p2496
I77
sS'mats'
p2497
I78
sS'chill"'
p2498
I76
sS'w/o'
p2499
I78
sS'ricky'
p2500
I78
sS'as\xc3\xad'
p2501
I78
sS"i'm\xe2\x80\xa6"
p2502
I78
sS'met,90250\n487681790962712577,titobasedgod,2014-07-11'
p2503
I78
sS'fran'
p2504
I78
sS'cause'
p2505
I70
sS'red'
p2506
I77
sS'ecf'
p2507
I78
sS'shut'
p2508
I69
sS'uppp'
p2509
I78
sS'yaaaasssssss'
p2510
I78
sS'torrey'
p2511
I78
sS'clenching'
p2512
I78
sS'-10'
p2513
I78
sS'que'
p2514
I77
sS'today,90250\n485344059548917760,titobasedgod,2014-07-05'
p2515
I78
sS'eveywhere'
p2516
I78
sS'scary'
p2517
I77
sS'g'
p2518
I78
sS'fart'
p2519
I78
sS'could'
p2520
I71
sS'skateboard'
p2521
I78
sS'david'
p2522
I74
sS'conversation'
p2523
I78
sS'49ers'
p2524
I78
sS'adrian'
p2525
I78
sS'austin'
p2526
I78
sS'scare'
p2527
I78
sS'waitingggggg'
p2528
I78
sS'distracted'
p2529
I78
sS'jesus'
p2530
I76
sS'bitch'
p2531
I62
sS'lagging'
p2532
I73
sS'noticed'
p2533
I78
sS'highkey'
p2534
I77
sS"doesn't"
p2535
I74
sS'los'
p2536
I78
sS'fuckers'
p2537
I77
sS'system'
p2538
I78
sS'\xe2\x9c\x8a\xe2\x9c\x8a'
p2539
I78
sS'their'
p2540
I77
sS'widdit,90250\n485249912095789056,titobasedgod,2014-07-05'
p2541
I78
sS'dominguez'
p2542
I78
sS'decorations'
p2543
I78
sS'07:34:29.0,33.9107605,-118.34475238,6024.03,laughters'
p2544
I78
sS'lions'
p2545
I78
sS'cuzzo'
p2546
I78
sS'perfectly'
p2547
I78
sS'prone'
p2548
I78
sS'2-0'
p2549
I78
sS'dabbed'
p2550
I78
sS'stars'
p2551
I78
sS'mantenerme'
p2552
I78
sS'exactly'
p2553
I76
sS'megan'
p2554
I78
sS'grandpa'
p2555
I78
sS'04:30:22.0,33.91074909,-118.34481217,6024.03,kikis'
p2556
I78
sS'july'
p2557
I78
sS'remember'
p2558
I76
sS'loved'
p2559
I77
sS'weekend\xe2\x80\xa6'
p2560
I78
sS'pads'
p2561
I78
sS'bed'
p2562
I76
sS'loves'
p2563
I78
sS'06:11:16.0,33.91069743,-118.34468943,6024.03,already'
p2564
I78
sS'23:14:48.0,33.91072566,-118.34469531,6024.03,bitch'
p2565
I78
sS'lovey'
p2566
I78
sS'pot"'
p2567
I78
sS'bet'
p2568
I76
sS'betes'
p2569
I77
sS'woot'
p2570
I78
sS'liqour'
p2571
I78
sS'comfortable'
p2572
I78
sS'tonight'
p2573
I72
sS'gentle'
p2574
I78
sS'hy'
p2575
I78
sS'hooping'
p2576
I78
sS'have'
p2577
I37
sS'need'
p2578
I52
sS'm\xc3\xa1ximo'
p2579
I78
sS'apparently'
p2580
I77
sS'clearly'
p2581
I76
sS'photografias'
p2582
I78
sS'fxx'
p2583
I78
sS'min'
p2584
I76
sS'mia'
p2585
I77
sS'agency'
p2586
I78
sS'able'
p2587
I77
sS'gravity'
p2588
I78
sS'hangover'
p2589
I78
sS'327'
p2590
I78
sS'ishizaki'
p2591
I78
sS'jail'
p2592
I78
sS'asshole'
p2593
I76
sS'knees'
p2594
I78
sS'aww'
p2595
I76
sS'who'
p2596
I58
sS'centro'
p2597
I78
sS'fricken'
p2598
I78
sS"where's"
p2599
I77
sS'awk'
p2600
I78
sS'but'
p2601
I23
sS'cracking'
p2602
I78
sS'hoyer'
p2603
I78
sS'why'
p2604
I52
sS'sentir'
p2605
I78
sS'refreshing'
p2606
I78
sS'nobody'
p2607
I78
sS'salty'
p2608
I78
sS'stranded'
p2609
I78
sS'fafsa'
p2610
I78
sS'face'
p2611
I67
sS'looked'
p2612
I77
sS"you'll"
p2613
I77
sS'pictures'
p2614
I78
sS'1-yard'
p2615
I78
sS'ughhh'
p2616
I78
sS'son'
p2617
I78
sS"rb's"
p2618
I78
sS'text'
p2619
I74
sS'agreed'
p2620
I78
sS'larch'
p2621
I78
sS'bring'
p2622
I77
sS'bikes'
p2623
I78
sS'fear'
p2624
I78
sS'informado'
p2625
I78
sS'19:43:05.0,33.91080216,-118.34476193,6024.03,stp,90250\n487314386537566208,titobasedgod,2014-07-10'
p2626
I78
sS'thorneside'
p2627
I78
sS'based'
p2628
I77
sS'knowledge'
p2629
I78
sS'=]'
p2630
I78
sS'jaw'
p2631
I77
sS'should'
p2632
I69
sS'won'
p2633
I78
sS'lemme'
p2634
I65
sS'authenic'
p2635
I78
sS'riding'
p2636
I78
sS'thousands'
p2637
I78
sS'hope'
p2638
I77
sS'handle'
p2639
I78
sS'rega\xc3\xb1alo'
p2640
I78
sS'watching'
p2641
I71
sS'beat'
p2642
I73
sS'posted/tweeted'
p2643
I78
sS'dope'
p2644
I76
sS'lucky'
p2645
I74
sS'engersongotthechill'
p2646
I78
sS'awww'
p2647
I74
sS'ones'
p2648
I77
sS'words'
p2649
I78
sS'kong'
p2650
I78
sS'scrolling'
p2651
I78
sS'05:46:20.0,33.91080995,-118.34475052,6024.03,lag'
p2652
I78
sS'nigga\xe2\x80\x9d'
p2653
I78
sS'smash'
p2654
I77
sS'evolution'
p2655
I78
sS'vayas'
p2656
I78
sS'07:40:59.0,33.91081209,-118.34483653,6024.03,maybe'
p2657
I78
sS'married'
p2658
I78
sS'rapper'
p2659
I77
sS'tuned'
p2660
I78
sS'stuff'
p2661
I75
sS'she'
p2662
I43
sS'snagajob'
p2663
I78
sS'grab'
p2664
I78
sS'fixed'
p2665
I78
sS'baseballed'
p2666
I78
sS'official'
p2667
I78
sS'21:04:05.0,33.91081846,-118.34480544,6024.03,sesh,90250\n487341467816321024,titobasedgod,2014-07-10'
p2668
I78
sS"07:40:10.0,33.91076062,-118.34475254,6024.03,i'm"
p2669
I78
sS'we'
p2670
I44
sS'terms'
p2671
I78
sS'"lol"'
p2672
I78
sS'agri\xc3\xb3'
p2673
I78
sS'1:45'
p2674
I78
sS'vegara'
p2675
I78
sS'stats'
p2676
I77
sS'sigrid'
p2677
I78
sS'frustrates'
p2678
I78
sS'past\xe2\x9c\x8c'
p2679
I78
sS'tend'
p2680
I78
sS'arod'
p2681
I78
sS'horrible'
p2682
I78
sS'neither'
p2683
I78
sS'bunch'
p2684
I78
sS'frustrated'
p2685
I78
sS'midnight'
p2686
I78
sS'bought'
p2687
I77
sS'trynna'
p2688
I76
sS'horizontally'
p2689
I78
sS'butts'
p2690
I78
sS'habanero'
p2691
I78
sS'the\xe2\x80\xa6'
p2692
I78
sS'job'
p2693
I68
sS'key'
p2694
I78
sS'06:32:00.0,33.91074601,-118.34470175,6024.03,shit'
p2695
I78
sS'selena'
p2696
I78
sS'faggot'
p2697
I78
sS'jon'
p2698
I78
sS'thumb'
p2699
I78
sS'fapping'
p2700
I78
sS'figured'
p2701
I78
sS'career'
p2702
I78
sS'taking'
p2703
I72
sS'9+10'
p2704
I78
sS'agree'
p2705
I78
sS'admit'
p2706
I78
sS'out.\xe2\x80\x9d'
p2707
I78
sS'interesting'
p2708
I78
sS'invites'
p2709
I78
sS'jersey'
p2710
I72
sS'comment'
p2711
I77
sS'relevant'
p2712
I78
sS'co'
p2713
I76
sS'diligently'
p2714
I78
sS'cc'
p2715
I78
sS"06:38:35.0,33.91066017,-118.34472044,6024.03,don't"
p2716
I78
sS'ca'
p2717
I73
sS'walk'
p2718
I76
sS'"anything'
p2719
I78
sS'kings'
p2720
I78
sS'quit'
p2721
I75
sS'yay'
p2722
I76
sS"it's"
p2723
I33
sS'cent'
p2724
I78
sS'exhausted'
p2725
I78
sS'literal'
p2726
I78
sS'slowly'
p2727
I78
sS'dumbass'
p2728
I78
sS'waste'
p2729
I78
sS'troopers'
p2730
I78
sS'penny'
p2731
I74
sS'engersonthechillman'
p2732
I78
sS'both'
p2733
I73
sS'hmu'
p2734
I75
sS'caddy'
p2735
I78
sS'hms'
p2736
I78
sS'controller'
p2737
I78
sS'accident'
p2738
I78
sS'smoking'
p2739
I77
sS'atlanta'
p2740
I78
sS'an'
p2741
I62
sS'present'
p2742
I78
sS'it,90250\n487124724917358592,titobasedgod,2014-07-10'
p2743
I78
sS'value'
p2744
I78
sS'will'
p2745
I61
sS'hahaha'
p2746
I75
sS'promoted'
p2747
I78
sS'attack\xe2\x80\x9d'
p2748
I78
sS'instantly'
p2749
I78
sS'frustrating'
p2750
I78
sS'year,90250\n484940437644275712,titobasedgod,2014-07-04'
p2751
I78
sS'helper'
p2752
I78
sS'almost'
p2753
I75
sS'lowkey\xe2\x80\x9d'
p2754
I78
sS'vs'
p2755
I78
sS'politics'
p2756
I78
sS'thug'
p2757
I77
sS'wks'
p2758
I78
sS'lawndale'
p2759
I77
sS'terrorist'
p2760
I78
sS'steer'
p2761
I78
sS')'
p2762
I78
sS'connection'
p2763
I78
sS'campus'
p2764
I78
sS'23:00:39.0,33.91064219,-118.34478549,6024.03,what'
p2765
I78
sS'parts'
p2766
I78
sS'noe'
p2767
I78
sS'inch'
p2768
I78
sS'ooooooooh'
p2769
I78
sS'android'
p2770
I78
sS'loooved'
p2771
I78
sS'ochoa'
p2772
I78
sS'tiempo'
p2773
I78
sS'ball'
p2774
I71
sS'pho'
p2775
I78
sS'brag'
p2776
I78
sS'eyedrops?,90250\n486276505878532096,titobasedgod,2014-07-07'
p2777
I78
sS'premiere'
p2778
I78
sS'1-3'
p2779
I78
sS'drink'
p2780
I78
sS'24-21'
p2781
I78
sS'dike'
p2782
I78
sS'sigue'
p2783
I78
sS'ion'
p2784
I76
sS'fans...fuck'
p2785
I78
sS'fucked'
p2786
I72
sS'free,90250\n487856996167602176,titobasedgod,2014-07-12'
p2787
I78
sS'shitting'
p2788
I78
sS'pull'
p2789
I75
sS'off'
p2790
I59
sS'center'
p2791
I78
sS"you'se"
p2792
I78
sS'lunch'
p2793
I78
sS'i'
p2794
I1
sS'tyme'
p2795
I78
sS'well'
p2796
I72
sS'thought'
p2797
I73
sS'wyd'
p2798
I77
sS'command'
p2799
I78
sS'wya'
p2800
I78
sS'sets'
p2801
I78
sS'awkwarddd'
p2802
I78
sS"02:57:51.0,33.9104795,-118.34451961,6024.03,where's"
p2803
I78
sS'load'
p2804
I78
sS'mistaked'
p2805
I78
sS'cried'
p2806
I77
sS'less'
p2807
I77
sS'moments'
p2808
I76
sS"should've"
p2809
I76
sS'sofia'
p2810
I78
sS"ghana's"
p2811
I78
sS'gun'
p2812
I78
sS'paul'
p2813
I78
sS'quiero'
p2814
I76
sS'field'
p2815
I78
sS'stratus'
p2816
I78
sS'point'
p2817
I77
sS'smith'
p2818
I77
sS'wen'
p2819
I78
sS'hall'
p2820
I78
sS'battery'
p2821
I78
sS'add'
p2822
I76
sS'other'
p2823
I69
sS'munchkins'
p2824
I78
sS'wet'
p2825
I78
sS'vids'
p2826
I78
sS'match'
p2827
I77
sS'"losing'
p2828
I78
sS'05:45:20.0,33.91071232,-118.34475611,6024.03,kamikaze'
p2829
I78
sS'hotbox'
p2830
I78
sS"who's"
p2831
I77
sS"butterfly's"
p2832
I78
sS'historic'
p2833
I78
sS'cedar'
p2834
I78
sS'know'
p2835
I46
sS'press'
p2836
I78
sS'nvm'
p2837
I73
sS'fools'
p2838
I78
sS'"your'
p2839
I78
sS'chingados'
p2840
I78
sS'trash'
p2841
I75
sS'like'
p2842
I20
sS'lost'
p2843
I69
sS'2013-2014'
p2844
I78
sS'ass."'
p2845
I78
sS'loser'
p2846
I77
sS'testimony'
p2847
I78
sS'garage'
p2848
I78
sS'around,90250\n485249464060231680,titobasedgod,2014-07-05'
p2849
I78
sS'through,90250\n487347380614737920,titobasedgod,2014-07-10'
p2850
I78
sS'lose'
p2851
I74
sS'soft'
p2852
I78
sS'page'
p2853
I71
sS'heem'
p2854
I78
sS'hallows,90250\n487110299107852288,titobasedgod,2014-07-10'
p2855
I78
sS'because'
p2856
I74
sS'arigato'
p2857
I78
sS'week...yayyyyyuuuuhh'
p2858
I78
sS'twitter'
p2859
I63
sS'hair'
p2860
I77
sS'homo'
p2861
I77
sS'choosing'
p2862
I78
sS'home'
p2863
I69
sS'liking'
p2864
I78
sS'blade'
p2865
I78
sS'06:41:01.0,33.9108598,-118.3448032,6024.03,i'
p2866
I78
sS'lead'
p2867
I76
sS'leak'
p2868
I78
sS'lean'
p2869
I77
sS'mines'
p2870
I77
sS'"frozen"'
p2871
I78
sS'lesean'
p2872
I78
sS'does'
p2873
I75
sS'tucks'
p2874
I78
sS'says'
p2875
I78
sS'schedule'
p2876
I78
sS'21:03:54.0,33.91081846,-118.34480544,6024.03,it'
p2877
I78
sS'pt.6'
p2878
I78
sS'prarie'
p2879
I78
sS'worthless'
p2880
I78
sS'workouts\xe2\x80\xa6'
p2881
I78
sS'pasta'
p2882
I78
sS'20:57:33.0,33.91077907,-118.34477245,6024.03,we'
p2883
I78
sS'sister'
p2884
I76
sS'rare'
p2885
I78
sS'kevin'
p2886
I78
sS'getting'
p2887
I57
sS'staked'
p2888
I78
sS'waist'
p2889
I78
sS'angeles'
p2890
I78
sS'swear'
p2891
I69
sS'insufficient'
p2892
I78
sS'turtle'
p2893
I78
sS'own'
p2894
I78
sS'bitch,90250\n487124787567656960,titobasedgod,2014-07-10'
p2895
I78
sS'fresh'
p2896
I78
sS'owe'
p2897
I77
sS'pussy'
p2898
I78
sS'niglet'
p2899
I78
sS'washington'
p2900
I78
sS'*accidentally'
p2901
I78
sS'loner'
p2902
I78
sS'06:09:47.0,33.91073573,-118.34470938,6024.03,irritated,90250\n487833073027784704,titobasedgod,2014-07-12'
p2903
I78
sS'immune'
p2904
I78
sS'playoff'
p2905
I78
sS'weather'
p2906
I77
sS'tiny'
p2907
I78
sS'female'
p2908
I75
sS"05:43:57.0,33.91080793,-118.3447406,6024.03,everyone's"
p2909
I78
sS'cormier'
p2910
I78
sS'cyrus'
p2911
I78
sS'wack'
p2912
I78
sS'astronomy'
p2913
I78
sS'lagged'
p2914
I78
sS'*'
p2915
I78
sS'kidding'
p2916
I76
sS'continental'
p2917
I77
sS'deadly\xe2\x80\x9d'
p2918
I78
sS'inner'
p2919
I78
sS'20:19:31.0,33.91091154,-118.34471902,6024.03,wya'
p2920
I78
sS'there\xe2\x80\x9d'
p2921
I78
sS'ab-soul'
p2922
I78
sS'buy'
p2923
I76
sS"20:52:49.0,33.91074361,-118.34476177,6024.03,don't"
p2924
I78
sS"i've"
p2925
I69
sS'fasho'
p2926
I76
sS'bus'
p2927
I77
sS'bitches'
p2928
I69
sS'hw'
p2929
I78
sS'forreal'
p2930
I77
sS'herman\xc3\xb3'
p2931
I78
sS'goals'
p2932
I78
sS'ear'
p2933
I78
sS'eat'
p2934
I77
sS'he'
p2935
I27
sS'count'
p2936
I78
sS'made'
p2937
I75
sS'calls'
p2938
I78
sS'wish'
p2939
I74
sS'j'
p2940
I78
sS'record'
p2941
I78
sS'dms'
p2942
I76
sS'barbershop'
p2943
I78
sS'empty'
p2944
I78
sS'06:08:39.0,33.91085105,-118.34476079,6024.03,gotta'
p2945
I78
sS'problem'
p2946
I76
sS'\xc2\xbf'
p2947
I78
sS'skating'
p2948
I78
sS'lovers\xe2\x98\xba\xef\xb8\x8f'
p2949
I78
sS'negrooo'
p2950
I78
sS'lololololol'
p2951
I78
sS'her,90250\n487339869127991297,titobasedgod,2014-07-10'
p2952
I78
sS'pic'
p2953
I76
sS'pie'
p2954
I78
sS'lived'
p2955
I78
sS'slumped'
p2956
I78
sS'sacks\xe2\x80\x9d'
p2957
I78
sS'bryin'
p2958
I78
sS'shooting'
p2959
I78
sS'traylor'
p2960
I78
sS'happen'
p2961
I77
sS'slipping'
p2962
I78
sS'jesse'
p2963
I78
sS'diego'
p2964
I78
sS'contest'
p2965
I78
sS"04:06:11.0,33.91077677,-118.34471884,6024.03,where's"
p2966
I78
sS'dressed'
p2967
I76
sS"20:06:57.0,33.91090889,-118.3447882,6024.03,don't"
p2968
I78
sS'coffeee'
p2969
I78
sS'lately'
p2970
I78
sS'book'
p2971
I76
sS'details'
p2972
I78
sS'sick'
p2973
I72
sS'lebrons'
p2974
I78
sS'er'
p2975
I78
sS'chatted'
p2976
I78
sS'star'
p2977
I78
sS'monday'
p2978
I77
sS'class'
p2979
I76
sS'stay'
p2980
I68
sS'chance'
p2981
I72
sS'kinda'
p2982
I77
sS'nintendo'
p2983
I78
sS'softest'
p2984
I78
sS'friends'
p2985
I71
sS'goin'
p2986
I78
sS'deluxe'
p2987
I78
sS'lasted'
p2988
I78
sS'simping'
p2989
I78
sS'extras'
p2990
I78
sS'elsie'
p2991
I78
sS'understand'
p2992
I75
sS'petsmart'
p2993
I78
s.