(dp0
S''
p1
I1
sS'essay'
p2
I26
sS'all'
p3
I19
sS':/'
p4
I26
sS':('
p5
I25
sS':)'
p6
I23
sS'squats'
p7
I26
sS'wannnnt'
p8
I26
sS'felt'
p9
I26
sS'edm'
p10
I26
sS"daughter's"
p11
I26
sS'sleep'
p12
I25
sS'hating'
p13
I26
sS'go'
p14
I24
sS'follow'
p15
I26
sS'hate'
p16
I25
sS'milk'
p17
I26
sS'forget'
p18
I26
sS'jessie'
p19
I26
sS'baller'
p20
I26
sS'buddy'
p21
I26
sS'imma'
p22
I26
sS'young'
p23
I26
sS'thursday'
p24
I26
sS'to'
p25
I5
sS'finally'
p26
I25
sS'does'
p27
I26
sS'cunt'
p28
I26
sS'tf'
p29
I26
sS'lord'
p30
I26
sS'sorry'
p31
I26
sS'*blushes*'
p32
I26
sS'sent'
p33
I25
sS'worse'
p34
I26
sS'center)'
p35
I26
sS'far'
p36
I26
sS'hilarious'
p37
I26
sS'keeping'
p38
I26
sS'711'
p39
I26
sS'heard'
p40
I26
sS'fam'
p41
I26
sS'surgeon'
p42
I26
sS'bringing'
p43
I26
sS'cool'
p44
I26
sS'magic'
p45
I26
sS'1500-3000-500'
p46
I26
sS'12th'
p47
I26
sS'watered'
p48
I26
sS'leave'
p49
I25
sS'frozen'
p50
I26
sS'quick'
p51
I26
sS'guy'
p52
I26
sS'ups'
p53
I26
sS'clothes'
p54
I26
sS"i'll"
p55
I22
sS'work'
p56
I18
sS'tired'
p57
I25
sS"chairman's"
p58
I26
sS'japanese'
p59
I26
sS'messy'
p60
I26
sS'titles'
p61
I26
sS'uncomfortable'
p62
I26
sS'10s'
p63
I26
sS'drinks'
p64
I26
sS'even'
p65
I24
sS'what'
p66
I19
sS'soup'
p67
I26
sS'sun'
p68
I26
sS'crush'
p69
I26
sS'espa\xc3\xb1a'
p70
I26
sS'waiting'
p71
I23
sS'reply'
p72
I26
sS'nurse'
p73
I26
sS'told'
p74
I26
sS'hash'
p75
I26
sS'avery'
p76
I26
sS'never'
p77
I23
sS'punch'
p78
I26
sS'here'
p79
I16
sS'hours'
p80
I23
sS'\xe2\x9d\xa4\xef\xb8\x8f'
p81
I26
sS'studio'
p82
I26
sS'sink'
p83
I26
sS'congestion'
p84
I26
sS'sexy'
p85
I26
sS"aren't"
p86
I25
sS'hoops'
p87
I26
sS'wait'
p88
I26
sS'great'
p89
I26
sS'lol'
p90
I14
sS'daughter'
p91
I26
sS'shift'
p92
I26
sS'casino'
p93
I26
sS'netskype'
p94
I26
sS'experience'
p95
I26
sS'(1221'
p96
I26
sS'pick'
p97
I25
sS"i'm"
p98
I7
sS'love'
p99
I22
sS'family'
p100
I26
sS'clapping'
p101
I26
sS'bro'
p102
I25
sS'put'
p103
I25
sS'semester'
p104
I26
sS'send'
p105
I26
sS'fake'
p106
I26
sS'working'
p107
I25
sS'&'
p108
I21
sS'\xe2\x9c\x8c\xef\xb8\x8f\xe2\x9c\x8c\xef\xb8\x8f\xe2\x9c\x8c\xef\xb8\x8f\xe2\x9c\x8c\xef\xb8\x8f'
p109
I26
sS'positive'
p110
I26
sS'hospital'
p111
I14
sS'chk'
p112
I26
sS'dude'
p113
I24
sS'tears'
p114
I26
sS'next'
p115
I26
sS'ca)'
p116
I21
sS'scariest'
p117
I26
sS'iphone'
p118
I26
sS'tell'
p119
I24
sS'today'
p120
I20
sS'more'
p121
I25
sS'fine..."'
p122
I26
sS'on'
p123
I15
sS'haha'
p124
I22
sS'sister'
p125
I26
sS'"i'
p126
I25
sS'phone'
p127
I24
sS"ain't"
p128
I24
sS'baby'
p129
I24
sS'4am'
p130
I26
sS'must'
p131
I25
sS'me'
p132
I8
sS'account'
p133
I26
sS'room'
p134
I25
sS'hour'
p135
I26
sS'niggas'
p136
I26
sS'this'
p137
I14
sS'getting'
p138
I25
sS'donut'
p139
I26
sS'flannels'
p140
I26
sS'can'
p141
I23
sS'growing'
p142
I26
sS'making'
p143
I24
sS'bowling'
p144
I26
sS'my'
p145
I6
sS'85k'
p146
I26
sS'heart'
p147
I26
sS'crazy'
p148
I26
sS'plaza'
p149
I26
sS'embarrassing'
p150
I26
sS'nursing'
p151
I25
sS'mirrors'
p152
I26
sS'me!\xe2\x9d\xa4\xe2\x9d\xa4\xe2\x9d\xa4'
p153
I26
sS'fuck'
p154
I24
sS'7pm'
p155
I26
sS'tinted'
p156
I26
sS'salty'
p157
I26
sS'something'
p158
I25
sS'want'
p159
I21
sS'blvd'
p160
I25
sS'gardena)'
p161
I16
sS'pink'
p162
I26
sS'huge'
p163
I26
sS'needs'
p164
I26
sS'hoe'
p165
I26
sS'recovery'
p166
I26
sS'turn'
p167
I26
sS'song'
p168
I26
sS'moves'
p169
I26
sS'machine'
p170
I26
sS'till'
p171
I24
sS'amazing'
p172
I26
sS'answer'
p173
I26
sS'browns'
p174
I26
sS'if'
p175
I18
sS'beach'
p176
I23
sS'pizza'
p177
I26
sS'okay'
p178
I26
sS'plans'
p179
I26
sS'bday'
p180
I26
sS'after'
p181
I26
sS'wrong'
p182
I26
sS'birthday'
p183
I25
sS'fat'
p184
I26
sS'water'
p185
I26
sS'hahahaha'
p186
I25
sS'president'
p187
I26
sS'suck'
p188
I26
sS'grow'
p189
I26
sS'man'
p190
I23
sS'a'
p191
I10
sS'danny'
p192
I26
sS'funday'
p193
I26
sS'effective'
p194
I26
sS'crowded'
p195
I26
sS'ss'
p196
I26
sS'do\xe2\x80\xa6'
p197
I26
sS'sit'
p198
I26
sS'greek'
p199
I24
sS'sh'
p200
I24
sS'so'
p201
I15
sS'grande'
p202
I26
sS'things'
p203
I26
sS'basket'
p204
I26
sS'-daddy'
p205
I26
sS'playing'
p206
I25
sS'talk'
p207
I26
sS'serge'
p208
I26
sS'longggggg'
p209
I26
sS"don't"
p210
I19
sS'walgreens'
p211
I26
sS'over'
p212
I23
sS'despite'
p213
I26
sS'soon'
p214
I26
sS'years'
p215
I26
sS'paper'
p216
I26
sS"won't"
p217
I26
sS'hell'
p218
I26
sS'still'
p219
I23
sS'its'
p220
I26
sS'before'
p221
I26
sS'24'
p222
I26
sS'lounge'
p223
I26
sS'thank'
p224
I25
sS'internationally'
p225
I26
sS"he's"
p226
I24
sS'somewhere'
p227
I26
sS'workouts'
p228
I26
sS'sunday'
p229
I26
sS'[pic]'
p230
I26
sS'late'
p231
I26
sS'shaaaaaaady'
p232
I26
sS'bout'
p233
I26
sS'might'
p234
I26
sS'mommy'
p235
I23
sS"haven't"
p236
I26
sS'happened'
p237
I26
sS'dad'
p238
I26
sS'then'
p239
I26
sS'them'
p240
I26
sS'good'
p241
I25
sS'food'
p242
I24
sS'dam'
p243
I26
sS'it"'
p244
I26
sS'lunch'
p245
I26
sS'bang'
p246
I26
sS'drinking'
p247
I26
sS'starbucks'
p248
I25
sS'they'
p249
I16
sS'not'
p250
I20
sS'now'
p251
I22
sS'comes'
p252
I26
sS'day'
p253
I23
sS'bank'
p254
I23
sS'sucked'
p255
I26
sS'name'
p256
I23
sS'pregnant'
p257
I26
sS'always'
p258
I26
sS'subaru'
p259
I26
sS'l7'
p260
I26
sS'honked'
p261
I26
sS'ya'
p262
I26
sS'rock'
p263
I26
sS'found'
p264
I26
sS'went'
p265
I26
sS'side'
p266
I26
sS"isn't"
p267
I26
sS'everyone'
p268
I26
sS'weight'
p269
I26
sS'doing'
p270
I25
sS'duuuuuude'
p271
I26
sS'hard'
p272
I26
sS'solution'
p273
I26
sS'die'
p274
I26
sS'70%'
p275
I26
sS'girl'
p276
I24
sS'saturday'
p277
I26
sS'out'
p278
I18
sS'try'
p279
I26
sS'ftw'
p280
I26
sS'hehe'
p281
I26
sS'since'
p282
I24
sS'pigeon'
p283
I26
sS'thirst'
p284
I26
sS'seriously'
p285
I25
sS'krispy'
p286
I26
sS'smh'
p287
I26
sS'fargo'
p288
I25
sS'got'
p289
I19
sS'rn'
p290
I26
sS'cause'
p291
I25
sS'red'
p292
I26
sS"could've"
p293
I26
sS'ass'
p294
I21
sS'shut'
p295
I26
sS'bass'
p296
I26
sS"doesn't"
p297
I26
sS'friday'
p298
I25
sS'guess'
p299
I26
sS'free'
p300
I25
sS'reason'
p301
I26
sS'ask'
p302
I25
sS'sitting'
p303
I26
sS'cough'
p304
I26
sS'mvp'
p305
I25
sS'snapchats'
p306
I26
sS'days'
p307
I24
sS"year's"
p308
I26
sS'thing'
p309
I24
sS'place'
p310
I23
sS'w'
p311
I25
sS'soda'
p312
I26
sS'shootin'
p313
I26
sS'think'
p314
I23
sS'first'
p315
I25
sS'already'
p316
I24
sS'feel'
p317
I26
sS'one'
p318
I17
sS'twinkie'
p319
I26
sS'bitch'
p320
I25
sS'another'
p321
I26
sS'spanish'
p322
I26
sS'ironing'
p323
I26
sS'comic'
p324
I26
sS'quality'
p325
I26
sS'tomorrow'
p326
I26
sS"you're"
p327
I25
sS'little'
p328
I25
sS'service'
p329
I26
sS'redondo'
p330
I25
sS'accent'
p331
I26
sS'fml'
p332
I26
sS'stack'
p333
I26
sS'anyone'
p334
I26
sS'needed'
p335
I26
sS'jamba'
p336
I26
sS'2'
p337
I23
sS'too'
p338
I24
sS'tea'
p339
I26
sS'mama'
p340
I26
sS'cuzzo'
p341
I26
sS'eyes'
p342
I26
sS'stomach'
p343
I26
sS'lot'
p344
I26
sS'that'
p345
I20
sS'sweet'
p346
I26
sS'exactly'
p347
I26
sS'serve'
p348
I26
sS'part'
p349
I26
sS'nigga'
p350
I26
sS'doctors'
p351
I26
sS'$7'
p352
I26
sS'believe'
p353
I26
sS'than'
p354
I25
sS'neck'
p355
I26
sS'king'
p356
I26
sS'12'
p357
I26
sS'compliments'
p358
I26
sS'target'
p359
I25
sS'i\xe2\x80\x99ll'
p360
I26
sS'burger'
p361
I26
sS'kreme'
p362
I26
sS'shower'
p363
I26
sS'matter'
p364
I26
sS'patients'
p365
I26
sS'were'
p366
I25
sS'cards'
p367
I26
sS'poisoning'
p368
I26
sS'and'
p369
I10
sS'sal'
p370
I26
sS'tabs'
p371
I26
sS'turned'
p372
I26
sS'mine'
p373
I26
sS'sad'
p374
I25
sS'tonight'
p375
I24
sS'talking'
p376
I25
sS'say'
p377
I26
sS'have'
p378
I20
sS'need'
p379
I22
sS'seen'
p380
I26
sS'seem'
p381
I26
sS'saw'
p382
I26
sS'surgery'
p383
I25
sS'kevin'
p384
I26
sS'lie'
p385
I26
sS'burnin'
p386
I26
sS'able'
p387
I26
sS'riff'
p388
I26
sS'packed'
p389
I25
sS'reals'
p390
I26
sS'aww'
p391
I26
sS'who'
p392
I24
sS'wells'
p393
I25
sS'5mins'
p394
I26
sS'pucture'
p395
I26
sS'pair'
p396
I26
sS'why'
p397
I20
sS'forever'
p398
I23
sS'surprising'
p399
I26
sS"as'f"
p400
I26
sS'windows'
p401
I26
sS'medical'
p402
I26
sS'lose'
p403
I26
sS'ko'
p404
I26
sS'doe'
p405
I26
sS'definitely'
p406
I26
sS'con'
p407
I26
sS'enterprise'
p408
I26
sS'professional'
p409
I26
sS'skinny'
p410
I26
sS"that's"
p411
I26
sS'er'
p412
I26
sS'came'
p413
I26
sS'$$$'
p414
I26
sS'bomb'
p415
I26
sS'text'
p416
I26
sS'scissors'
p417
I26
sS'pops'
p418
I26
sS'bring'
p419
I24
sS'radio'
p420
I26
sS'takin'
p421
I26
sS'\xe2\x9c\x8c'
p422
I26
sS'busy'
p423
I26
sS'\xe2\x9c\x8b'
p424
I26
sS'jay'
p425
I26
sS'true'
p426
I26
sS'enough'
p427
I26
sS'bust'
p428
I26
sS'keiro'
p429
I26
sS'yea'
p430
I26
sS'only'
p431
I23
sS'going'
p432
I23
sS'rick'
p433
I25
sS'pretty'
p434
I26
sS'riding'
p435
I26
sS'rocking'
p436
I26
sS'hope'
p437
I26
sS'meant'
p438
I26
sS'do'
p439
I24
sS'his'
p440
I25
sS'hit'
p441
I25
sS'get'
p442
I21
sS'beat'
p443
I26
sS'hopefully'
p444
I26
sS'stop'
p445
I24
sS'happy-.-'
p446
I26
sS'kataotpwuata'
p447
I26
sS'new'
p448
I26
sS'beards'
p449
I26
sS'dr'
p450
I24
sS'him'
p451
I24
sS'lmao'
p452
I22
sS'workin'
p453
I26
sS'cosplayers'
p454
I26
sS'16'
p455
I26
sS'borrow'
p456
I26
sS'oooo'
p457
I26
sS'make!!:)'
p458
I26
sS'bad'
p459
I24
sS'she'
p460
I23
sS'hype'
p461
I25
sS'doubles'
p462
I26
sS'where'
p463
I26
sS'wifey'
p464
I26
sS"y'all"
p465
I26
sS'set'
p466
I26
sS'j9'
p467
I26
sS'habit'
p468
I26
sS'w/'
p469
I25
sS'station'
p470
I26
sS'on.....stuntin'
p471
I26
sS"hasn't"
p472
I26
sS'see'
p473
I22
sS'asleep'
p474
I26
sS'are'
p475
I20
sS'parking'
p476
I26
sS'11th'
p477
I26
sS'stalking'
p478
I26
sS'best'
p479
I25
sS'wonder'
p480
I25
sS'recording'
p481
I26
sS'fails'
p482
I26
sS'said'
p483
I26
sS'visiting'
p484
I26
sS'movie'
p485
I26
sS'xavi'
p486
I26
sS'opening'
p487
I26
sS'please'
p488
I25
sS'wild-resource'
p489
I26
sS'3'
p490
I26
sS'between'
p491
I26
sS':d'
p492
I26
sS'reading'
p493
I26
sS'bought'
p494
I26
sS'europe'
p495
I26
sS'perfect'
p496
I26
sS'we'
p497
I25
sS'loose'
p498
I26
sS'kool'
p499
I26
sS'job'
p500
I26
sS'french'
p501
I26
sS'come'
p502
I25
sS'both'
p503
I26
sS'c'
p504
I26
sS'chinky'
p505
I26
sS'last'
p506
I22
sS'restaurant'
p507
I26
sS'many'
p508
I26
sS'taking'
p509
I26
sS'la'
p510
I26
sS'foreign'
p511
I26
sS"today's"
p512
I26
sS'became'
p513
I26
sS'games'
p514
I26
sS'let'
p515
I25
sS"can't"
p516
I22
sS'nearby'
p517
I26
sS'\xe2\x98\xba'
p518
I26
sS'denia'
p519
I26
sS'jeff'
p520
I26
sS'\xe2\x98\xba\xe2\x98\xba\xe2\x98\xba'
p521
I25
sS'ca'
p522
I26
sS'fitness'
p523
I26
sS'teasing'
p524
I26
sS'whatever'
p525
I26
sS'nooooo'
p526
I26
sS'karen'
p527
I26
sS"couldn't"
p528
I26
sS'supervisor'
p529
I26
sS'better'
p530
I26
sS'strong'
p531
I26
sS'yay'
p532
I25
sS'puts'
p533
I26
sS"it's"
p534
I18
sS'sara'
p535
I26
sS'been'
p536
I26
sS'ran'
p537
I26
sS'much'
p538
I25
sS'damn'
p539
I24
sS'whoa'
p540
I26
sS'attractive'
p541
I26
sS'life'
p542
I26
sS'graveyard'
p543
I26
sS'cop'
p544
I26
sS'homies'
p545
I26
sS'craft'
p546
I26
sS'cee'
p547
I26
sS'bull'
p548
I26
sS'google'
p549
I26
sS'weeks'
p550
I26
sS'spain'
p551
I25
sS'save'
p552
I26
sS'couple'
p553
I26
sS'look'
p554
I26
sS'juice'
p555
I26
sS'these'
p556
I25
sS'selfie'
p557
I26
sS'as'
p558
I26
sS'humanity'
p559
I26
sS'will'
p560
I24
sS'while'
p561
I26
sS'jesselle'
p562
I26
sS'2013'
p563
I26
sS'fun'
p564
I25
sS'pictures'
p565
I26
sS'frustrating'
p566
I26
sS'pray'
p567
I26
sS'mexico'
p568
I26
sS'almost'
p569
I26
sS'is'
p570
I8
sS'everywhere'
p571
I26
sS'it'
p572
I15
sS'eve'
p573
I26
sS'someone'
p574
I25
sS'im'
p575
I26
sS'joking'
p576
I26
sS'in'
p577
I10
sS'ig'
p578
I26
sS'chase'
p579
I25
sS'memorial'
p580
I17
sS'annoying'
p581
I26
sS"wilfried's"
p582
I26
sS'doctor'
p583
I26
sS'pay'
p584
I25
sS'make'
p585
I22
sS'macarons'
p586
I26
sS'any'
p587
I26
sS'shifts'
p588
I26
sS'grinded'
p589
I26
sS'at?\xe2\x80\x9d'
p590
I26
sS'party'
p591
I26
sS'eww'
p592
I26
sS'showing'
p593
I26
sS'(staples'
p594
I26
sS'week'
p595
I25
sS'ball'
p596
I26
sS'nic'
p597
I26
sS'drink'
p598
I26
sS'driver'
p599
I25
sS'collab'
p600
I26
sS'running'
p601
I26
sS'two'
p602
I24
sS'jayveeeee'
p603
I26
sS'weird'
p604
I26
sS'thoughts'
p605
I26
sS'off'
p606
I24
sS'picky'
p607
I26
sS'i'
p608
I2
sS'well'
p609
I26
sS'kept'
p610
I26
sS'thought'
p611
I26
sS'without'
p612
I26
sS'oops'
p613
I26
sS'want...the'
p614
I26
sS'position'
p615
I26
sS'the'
p616
I3
sS'my\xe2\x80\xa6'
p617
I26
sS'spend'
p618
I25
sS'left'
p619
I26
sS'slutty'
p620
I26
sS'>.<'
p621
I26
sS'\xe2\x98\xba\xef\xb8\x8f'
p622
I26
sS'just'
p623
I20
sS'being'
p624
I25
sS'money'
p625
I24
sS'laptop'
p626
I26
sS'sleepy'
p627
I25
sS'*-*'
p628
I26
sS'thanks'
p629
I25
sS'stunt'
p630
I26
sS'yes'
p631
I25
sS'repost'
p632
I26
sS'loading'
p633
I26
sS'helping'
p634
I26
sS'cup'
p635
I26
sS'had'
p636
I25
sS'cuz'
p637
I21
sS'parents'
p638
I26
sS'4'
p639
I26
sS'easy'
p640
I24
sS'courtney'
p641
I25
sS'snap'
p642
I25
sS'has'
p643
I22
sS'excited'
p644
I26
sS'take'
p645
I22
sS'real'
p646
I21
sS'around'
p647
I25
sS'emergency'
p648
I26
sS'checking'
p649
I26
sS'bid'
p650
I26
sS"who's"
p651
I26
sS'gonna'
p652
I22
sS'early'
p653
I26
sS'game'
p654
I26
sS'know'
p655
I21
sS'mom'
p656
I25
sS'judge'
p657
I26
sS'world'
p658
I26
sS'bit'
p659
I26
sS'lady'
p660
I26
sS'wings'
p661
I26
sS'd'
p662
I26
sS'like'
p663
I15
sS'-_-'
p664
I25
sS'ahh'
p665
I26
sS'shabu'
p666
I25
sS'twin'
p667
I26
sS'remind'
p668
I26
sS'night'
p669
I23
sS'nice'
p670
I26
sS'me\xe2\x80\x9d'
p671
I26
sS'because'
p672
I25
sS'petting'
p673
I26
sS'deal'
p674
I26
sS'people'
p675
I23
sS'fucking'
p676
I25
sS'some'
p677
I21
sS'back'
p678
I24
sS'scouts'
p679
I26
sS'hair'
p680
I24
sS';d'
p681
I25
sS'(gardena'
p682
I21
sS'home'
p683
I25
sS'mood'
p684
I26
sS'for'
p685
I11
sS'literally'
p686
I25
sS'/'
p687
I26
sS'moon'
p688
I26
sS'everything'
p689
I26
sS':p'
p690
I26
sS'bruhhh'
p691
I26
sS'be'
p692
I18
sS'knew'
p693
I26
sS'cry'
p694
I26
sS'lmfao'
p695
I25
sS'lmaoooo'
p696
I26
sS'punched'
p697
I26
sS'7-eleven'
p698
I25
sS'plz'
p699
I26
sS'broken'
p700
I26
sS';)'
p701
I23
sS'by'
p702
I25
sS'hiding'
p703
I25
sS'hearing'
p704
I26
sS"something's"
p705
I26
sS'about'
p706
I22
sS'ok'
p707
I25
sS'would'
p708
I25
sS'anything'
p709
I26
sS'oh'
p710
I25
sS'meow'
p711
I26
sS'of'
p712
I10
sS'fea'
p713
I26
sS'favorite'
p714
I26
sS'awwww'
p715
I26
sS'swear'
p716
I26
sS'plus'
p717
I26
sS'idk'
p718
I26
sS'done'
p719
I26
sS'donuts'
p720
I26
sS'wanna'
p721
I26
sS'or'
p722
I25
sS'ppl'
p723
I26
sS'(1344'
p724
I26
sS'own'
p725
I26
sS'pussy'
p726
I26
sS'into'
p727
I23
sS'socks'
p728
I26
sS'cray'
p729
I24
sS'down'
p730
I24
sS'momma'
p731
I25
sS'right'
p732
I25
sS'yas'
p733
I26
sS'cafeteria'
p734
I26
sS'your'
p735
I17
sS"how's"
p736
I26
sS'her'
p737
I21
sS'spending'
p738
I26
sS'there'
p739
I26
sS'question'
p740
I26
sS'asses'
p741
I26
sS'long'
p742
I24
sS'class'
p743
I26
sS'downey'
p744
I26
sS'way'
p745
I25
sS'music'
p746
I26
sS'was'
p747
I22
sS'energy'
p748
I26
sS'happy'
p749
I24
sS'ago'
p750
I26
sS'bus'
p751
I26
sS'bitches'
p752
I26
sS'but'
p753
I12
sS'delivery'
p754
I26
sS'wiping'
p755
I26
sS'bun'
p756
I26
sS'tho'
p757
I26
sS'post-it'
p758
I26
sS'morningi'
p759
I26
sS'trying'
p760
I24
sS'with'
p761
I13
sS'eat'
p762
I26
sS'he'
p763
I23
sS'throw'
p764
I26
sS'made'
p765
I26
sS'now.sunglasses'
p766
I26
sS'whyy'
p767
I26
sS"wasn't"
p768
I26
sS'official'
p769
I26
sS'up'
p770
I15
sS'until'
p771
I26
sS'.dont'
p772
I26
sS'how'
p773
I26
sS'cake'
p774
I26
sS'called'
p775
I26
sS'x-ray'
p776
I26
sS'proud'
p777
I26
sS'replying'
p778
I25
sS'nurses'
p779
I25
sS'flow'
p780
I26
sS'pic'
p781
I26
sS'am'
p782
I25
sS'an'
p783
I25
sS'beats'
p784
I26
sS'at'
p785
I9
sS'face'
p786
I26
sS'hospitals'
p787
I24
sS'check'
p788
I26
sS'shit'
p789
I26
sS'again'
p790
I21
sS'taro'
p791
I26
sS'gay'
p792
I26
sS'no'
p793
I22
sS'tito'
p794
I26
sS'relax'
p795
I26
sS'when'
p796
I23
sS'40'
p797
I26
sS'hella'
p798
I26
sS'sick'
p799
I24
sS'you'
p800
I4
sS'really'
p801
I21
sS'10'
p802
I26
sS'poor'
p803
I26
sS'picture'
p804
I26
sS'welcome'
p805
I26
sS'stay'
p806
I25
sS"let's"
p807
I25
sS'trouble'
p808
I26
sS"she's"
p809
I26
sS'chocolate'
p810
I26
sS'fedoras'
p811
I26
sS'goin'
p812
I26
sS'building'
p813
I25
sS"fck'n"
p814
I26
sS'gardena'
p815
I23
sS'jacket'
p816
I26
sS'arianna'
p817
I26
sS'u'
p818
I22
sS'time'
p819
I20
sS'alright'
p820
I26
sS'serious'
p821
I25
sS'starting'
p822
I26
sS'scroll'
p823
I26
s.