(dp0
S''
p1
I1
sS'raining'
p2
I104
sS'182nd'
p3
I103
sS'\xe3\x81\x82\xe3\x83\xbc\xe5\x86\x8d\xe3\x83\x86\xe3\x82\xb9\xe3\x83\x88\xe3\x81\xbe\xe3\x81\x98\xe3\x82\x80\xe3\x81\x8b\xe3\x81\xa4\xe3\x81\x8f\xe3\x83\xbc:('
p4
I105
sS'whoops'
p5
I105
sS'saves'
p6
I105
sS'colleges'
p7
I105
sS'four'
p8
I101
sS'woods'
p9
I105
sS'sleep'
p10
I80
sS'hanging'
p11
I99
sS'6pm'
p12
I105
sS"cruisin'"
p13
I105
sS'captain'
p14
I105
sS'hate'
p15
I92
sS'otro'
p16
I105
sS'whose'
p17
I98
sS'pedro'
p18
I105
sS'allll'
p19
I105
sS'buddy'
p20
I105
sS'snowing'
p21
I105
sS'tweet'
p22
I98
sS'cuadrado'
p23
I105
sS'caused'
p24
I105
sS'lord'
p25
I104
sS'sorry'
p26
I95
sS'worth'
p27
I103
sS'shaving'
p28
I105
sS'yeeees'
p29
I105
sS'rescue'
p30
I105
sS'nights'
p31
I105
sS'blanket'
p32
I105
sS"women's"
p33
I105
sS'despise'
p34
I105
sS'shoot'
p35
I105
sS'every'
p36
I93
sS'updates'
p37
I105
sS'vagiants'
p38
I105
sS'jacob'
p39
I101
sS'tickets'
p40
I105
sS'brother...his'
p41
I105
sS'school'
p42
I82
sS'gmoney'
p43
I105
sS'prize'
p44
I105
sS'wednesday'
p45
I102
sS'hr'
p46
I105
sS'red'
p47
I103
sS'employees'
p48
I105
sS'glued'
p49
I105
sS'cityyy'
p50
I105
sS'clothes'
p51
I99
sS'enjoy'
p52
I105
sS'tired'
p53
I95
sS'miller'
p54
I105
sS'hating'
p55
I104
sS'bacon'
p56
I104
sS'japanese'
p57
I105
sS'me*'
p58
I105
sS'tires'
p59
I105
sS'elegant'
p60
I105
sS'second'
p61
I102
sS'street'
p62
I99
sS'fux'
p63
I105
sS'7th'
p64
I105
sS'n'
p65
I97
sS'others)'
p66
I103
sS'youtube'
p67
I105
sS'even'
p68
I66
sS'real.....just'
p69
I105
sS'oldest'
p70
I105
sS'hide'
p71
I104
sS'inglewood'
p72
I105
sS'+'
p73
I99
sS'cooking'
p74
I105
sS'fingers'
p75
I104
sS'f*ck'
p76
I105
sS'lights'
p77
I105
sS'seeky'
p78
I105
sS'\xe3\x81\x93\xe3\x81\x93\xe3\x81\xaf\xe6\x97\xa5\xe6\x9c\xac\xe3\x82\x84\xe3\x82\x8f'
p79
I105
sS'above'
p80
I105
sS'new'
p81
I81
sS'ever'
p82
I86
sS'disney'
p83
I104
sS'told'
p84
I89
sS'disappoint'
p85
I105
sS'meg'
p86
I105
sS'zach'
p87
I104
sS'ultimatums'
p88
I105
sS'kicken'
p89
I105
sS'never'
p90
I68
sS'here'
p91
I87
sS'\xe3\x81\x93\xe3\x82\x8cmath'
p92
I105
sS'\xe2\x9d\xa4\xef\xb8\x8f'
p93
I92
sS'protection'
p94
I105
sS'studio'
p95
I105
sS'&&'
p96
I105
sS'ates'
p97
I105
sS'active'
p98
I105
sS'100'
p99
I101
sS"aren't"
p100
I104
sS'106'
p101
I105
sS'dry'
p102
I105
sS'kids'
p103
I101
sS'daughter'
p104
I103
sS'yakiniku'
p105
I105
sS'buckled'
p106
I105
sS'study'
p107
I102
sS'changed'
p108
I103
sS'piercing'
p109
I105
sS'aku'
p110
I105
sS'horseshow'
p111
I105
sS'tv'
p112
I102
sS'2niiiiiight'
p113
I105
sS"i'd"
p114
I93
sS'smoke'
p115
I100
sS'stressed'
p116
I103
sS'\xe2\x9c\x94\xef\xb8\x8f'
p117
I104
sS"i'm"
p118
I9
sS"someone's"
p119
I104
sS'ojal\xc3\xa1'
p120
I105
sS'biometric'
p121
I105
sS'chin-ma-ya'
p122
I104
sS'fantastic'
p123
I105
sS'wassup'
p124
I104
sS'besides'
p125
I105
sS'magically'
p126
I105
sS'difundir'
p127
I105
sS'geesta'
p128
I105
sS'feelings'
p129
I103
sS'bro'
p130
I90
sS'patience'
p131
I104
sS'insta'
p132
I105
sS'opportunities'
p133
I105
sS'l\xc3\xa1mpara'
p134
I105
sS'kansjdkwnwkwjsj'
p135
I105
sS'counts'
p136
I105
sS'cocaine'
p137
I105
sS'unit'
p138
I105
sS'<3'
p139
I102
sS'sarah'
p140
I105
sS'charge'
p141
I105
sS'would'
p142
I63
sS'hospital'
p143
I104
sS'mexico'
p144
I105
sS'pleeeease'
p145
I105
sS'negative'
p146
I103
sS'bleed'
p147
I105
sS'm5'
p148
I105
sS'cali'
p149
I105
sS'asses'
p150
I104
sS'call'
p151
I94
sS'ellos'
p152
I105
sS'recommend'
p153
I105
sS'calc'
p154
I104
sS'type'
p155
I100
sS'tell'
p156
I87
sS'reevaluate'
p157
I105
sS'sushi'
p158
I70
sS'females'
p159
I105
sS'holy'
p160
I102
sS'scary'
p161
I105
sS'successful'
p162
I103
sS'oscar'
p163
I104
sS'haha'
p164
I36
sS'wars'
p165
I104
sS'award'
p166
I104
sS'hurt'
p167
I96
sS'phone'
p168
I95
sS'warm'
p169
I105
sS'adult'
p170
I104
sS'excellent'
p171
I105
sS'90'
p172
I105
sS'hole'
p173
I105
sS'hold'
p174
I105
sS'immature'
p175
I104
sS'must'
p176
I100
sS'me'
p177
I10
sS'michalada'
p178
I105
sS'mf'
p179
I105
sS'word'
p180
I101
sS'room'
p181
I100
sS'ecstasy'
p182
I105
sS'shin/calf'
p183
I105
sS'work'
p184
I66
sS'mi'
p185
I104
sS'cant'
p186
I102
sS'breakfast'
p187
I105
sS'movies'
p188
I101
sS'locker'
p189
I105
sS'ms'
p190
I105
sS'mr'
p191
I104
sS'elbow'
p192
I104
sS'my'
p193
I6
sS'coulda'
p194
I105
sS'place)'
p195
I105
sS'barbers'
p196
I105
sS'foodie'
p197
I105
sS'soooooo'
p198
I105
sS'bell'
p199
I105
sS'give'
p200
I89
sS'ramen)'
p201
I105
sS'cupid'
p202
I105
sS'heartless'
p203
I105
sS'dragons'
p204
I105
sS'honey'
p205
I104
sS'homie'
p206
I102
sS'want'
p207
I41
sS'times'
p208
I104
sS'tokushima'
p209
I104
sS'hoe'
p210
I104
sS'end'
p211
I102
sS'recovery'
p212
I105
sS'thing'
p213
I94
sS'complaining'
p214
I105
sS'hol'
p215
I104
sS'sitting'
p216
I103
sS'feature'
p217
I104
sS'\xd8\xa7\xd9\x84\xd8\xb8\xd8\xa7\xd9\x87\xd8\xb1'
p218
I105
sS'eno'
p219
I105
sS'the\xe2\x80\xa6'
p220
I104
sS'amazing'
p221
I92
sS'backseat'
p222
I105
sS'hop'
p223
I105
sS'answer'
p224
I104
sS'yum'
p225
I104
sS'beach'
p226
I97
sS'pizza'
p227
I103
sS'badly'
p228
I105
sS'food"'
p229
I105
sS'(18537'
p230
I104
sS'\xe2\x99\xa5\xe2\x99\xa5\xe2\x99\xa5'
p231
I105
sS'mess'
p232
I104
sS'typed'
p233
I105
sS'after'
p234
I82
sS'beauts'
p235
I105
sS'spasms<<<'
p236
I105
sS'thankyou'
p237
I105
sS'wrong'
p238
I91
sS'lax'
p239
I105
sS'lay'
p240
I103
sS'\xd8\xa7\xd9\x84\xd8\xae\xd9\x84\xd9\x8a\xd8\xac'
p241
I105
sS'president'
p242
I105
sS'summarize'
p243
I105
sS'sanks'
p244
I105
sS'chilled'
p245
I105
sS'third'
p246
I105
sS'chillen'
p247
I104
sS'wins'
p248
I104
sS'appreciate'
p249
I98
sS'headquarters'
p250
I105
sS'funniest'
p251
I104
sS'jungle'
p252
I105
sS'keeps'
p253
I104
sS'worst'
p254
I97
sS'wing'
p255
I105
sS'choice\xe2\x80\x9d'
p256
I105
sS'fifa'
p257
I104
sS'rn\xe2\x80\x9d'
p258
I105
sS'decide'
p259
I105
sS'office'
p260
I105
sS'deck'
p261
I105
sS'muffin'
p262
I105
sS'over'
p263
I80
sS'fall'
p264
I104
sS'satisfied'
p265
I105
sS'murray'
p266
I105
sS'date(s)'
p267
I105
sS'crumbs'
p268
I105
sS'foreal'
p269
I105
sS'japan'
p270
I103
sS'hook'
p271
I105
sS'mayor'
p272
I104
sS'before'
p273
I86
sS'ima'
p274
I105
sS'chihuahua'
p275
I105
sS'fit'
p276
I101
sS'akari'
p277
I105
sS'somewhere'
p278
I103
sS'fix'
p279
I102
sS'expectations'
p280
I105
sS'writing'
p281
I105
sS'better'
p282
I82
sS'light.....looks'
p283
I105
sS'405'
p284
I104
sS'38359'
p285
I105
sS'fade'
p286
I105
sS'shinsengumi'
p287
I105
sS'whips'
p288
I105
sS'weeks'
p289
I102
sS'easier'
p290
I105
sS'\xd8\xa7\xd9\x84\xd8\xb9\xd8\xb1\xd8\xa8\xd9\x8a\xd8\xa9'
p291
I105
sS'belly'
p292
I105
sS'ladaneon'
p293
I105
sS'then'
p294
I65
sS'them'
p295
I71
sS'jerking'
p296
I105
sS'workout'
p297
I97
sS'safe'
p298
I105
sS"we'll"
p299
I98
sS'break'
p300
I105
sS'bang'
p301
I105
sS'singer/voice'
p302
I105
sS'hiring'
p303
I105
sS'crib'
p304
I105
sS'they'
p305
I46
sS'schools'
p306
I105
sS'17th'
p307
I105
sS'one'
p308
I51
sS'\xe6\x98\x8e\xe6\x97\xa5\xe4\xba\x8c\xe5\x80\x8d\xe3\x82\x84\xe3\x82\x8c\xe3\x81\xb0\xe3\x81\x84\xe3\x81\x84\xe3\x81\xae\xe3\x81\x8b\xef\xbc\x9fbe'
p309
I105
sS'bouta'
p310
I97
sS'bread'
p311
I102
sS'bombbbbb'
p312
I105
sS'netherlands'
p313
I105
sS'rocky'
p314
I105
sS'isopure'
p315
I105
sS'\xd9\x88\xd8\xb6\xd8\xb9\xd9\x87'
p316
I105
sS'\xe9\x96\xa2\xe4\xbf\x82\xe3\x81\xaa\xe3\x81\x84\xe3\x81\xa3\xe3\x81\x99\xe3\x81\x8c\xe3\x80\x81\xe5\x8f\xaf\xe6\x84\x9b\xe3\x81\x84\xe3\x81\x99\xe3\x81\x8e\xe3\x82\x8b\xe4\xbb\xb6\xe3\x81\xa7\xe3\x83\x95\xe3\x82\xa9\xe3\x83\xad\xe3\x83\xbc\xe3\x81\x95\xe3\x81\x9b\xe3\x81\xa6\xe3\x82\x82\xe3\x82\x89\xe3\x81\x84\xe3\x81\xbe\xe3\x81\x99\xe3\x81\x9f\xe3\x80\x82'
p317
I105
sS'alexis'
p318
I104
sS'takoyaki'
p319
I105
sS'lorenz'
p320
I102
sS'daughters'
p321
I105
sS'each'
p322
I100
sS'addicted'
p323
I105
sS'acoustic'
p324
I105
sS'went'
p325
I87
sS'jay-z'
p326
I105
sS'side'
p327
I102
sS'bone'
p328
I105
sS'mean'
p329
I88
sS'lifted'
p330
I105
sS'financial'
p331
I105
sS'series'
p332
I104
sS'debarge'
p333
I105
sS'\xd9\x81\xd9\x8a\xd9\x87'
p334
I105
sS'bowls'
p335
I105
sS'tip'
p336
I105
sS'blueberries'
p337
I105
sS'taught'
p338
I105
sS'xmen'
p339
I105
sS'magnets'
p340
I105
sS'forgot'
p341
I102
sS'laboratory'
p342
I105
sS'dawn'
p343
I105
sS"a.....70's"
p344
I105
sS'saturday'
p345
I100
sS'whip'
p346
I104
sS'rt'
p347
I99
sS'oooo'
p348
I105
sS'gon'
p349
I101
sS'driving'
p350
I102
sS'hiyashi'
p351
I105
sS'god'
p352
I91
sS'washed'
p353
I105
sS'sand'
p354
I105
sS'\xe3\x80\x8c\xe9\x85\x94\xe3\x81\xa3\xe3\x81\xa6\xe7\x9c\xa0\xe3\x81\xa3\xe3\x81\xa6\xe3\x82\x8b\xe4\xba\xba\xe3\x81\xae\xe6\x89\x8b\xe3\x82\x92\xe3\x81\xac\xe3\x82\x8b\xe3\x81\xbe\xe6\xb9\xaf\xe3\x81\xab\xe6\xb5\xb8\xe3\x81\x99\xe3\x81\xa8\xe9\xab\x98\xe7\xa2\xba\xe7\x8e\x87\xe3\x81\xa7\xe6\xbc\x8f\xe3\x82\x89\xe3\x81\x99\xe3\x80\x8d\xe3\x81\xa8\xe3\x81\x84\xe3\x81\x86\xe3\x80\x81\xe9\xad\x85\xe5\x8a\x9b\xe7\x9a\x84\xe3\x81\x99\xe3\x81\x8e\xe3\x82\x8b\xe8\xb1\x86\xe7\x9f\xa5\xe8\xad\x98\xe3\x82\x92\xe5\xbe\x97\xe3\x81\xa6\xe3\x81\x97\xe3\x81\xbe\xe3\x81\xa3\xe3\x81\x9f\xe2\x80\xa6'
p355
I105
sS'pussied'
p356
I105
sS'laid'
p357
I105
sS'daniel'
p358
I103
sS'smh'
p359
I93
sS'heavenly'
p360
I104
sS'revolving'
p361
I98
sS'rn'
p362
I96
sS'hermosa'
p363
I105
sS'goles'
p364
I105
sS'grease'
p365
I105
sS'turning'
p366
I105
sS'38\xe6\xad\xb3\xe3\x81\xab\xe3\x81\xaa\xe3\x81\xa3\xe3\x81\xa6\xe6\x94\xb9\xe3\x82\x81\xe3\x81\xa6\xe6\x80\x9d\xe3\x81\xb5\xe3\x81\x93\xe3\x81\xa8\xe3\x80\x82\xe3\x82\xab\xe3\x83\xb3\xe3\x83\x91\xe3\x83\x8b\xe3\x83\xbc\xe6\x9d\xbe\xe5\xb0\xbe\xe3\x81\xaf\xe7\xa5\x9e\xe3\x81\xa0\xe3\x80\x82'
p367
I105
sS'cutest'
p368
I105
sS"doesn't"
p369
I91
sS't)'
p370
I105
sS'little'
p371
I93
sS'free'
p372
I95
sS'attractive\xc2\xa0\xe2\x80\x9d'
p373
I105
sS'horray'
p374
I105
sS'struggle'
p375
I103
sS"people's"
p376
I105
sS'beanies'
p377
I105
sS'returning'
p378
I105
sS'wanted'
p379
I98
sS'aps'
p380
I105
sS'certified'
p381
I105
sS'r5'
p382
I105
sS'dammit'
p383
I105
sS'ate'
p384
I98
sS'fuckit'
p385
I104
sS'comfy'
p386
I105
sS'megan!\xe2\x98\xba\xef\xb8\x8f\xe2\x9d\xa4\xef\xb8\x8f'
p387
I105
sS'starts'
p388
I101
sS'gunzer'
p389
I105
sS'r8'
p390
I104
sS'days'
p391
I89
sS'priorities'
p392
I104
sS'heading'
p393
I105
sS'festival'
p394
I105
sS'maneras'
p395
I105
sS'ish'
p396
I105
sS'zero*'
p397
I105
sS'selfy'
p398
I105
sS'lorddddd'
p399
I105
sS'loud'
p400
I104
sS'fuckin'
p401
I98
sS'underweight'
p402
I105
sS'laggy'
p403
I105
sS'rang'
p404
I105
sS'already'
p405
I90
sS'lol\xe2\x80\x9d'
p406
I104
sS'>>'
p407
I105
sS'grade'
p408
I103
sS'accent'
p409
I105
sS"timing's"
p410
I105
sS'veggie'
p411
I105
sS'hamstring'
p412
I105
sS'wash'
p413
I103
sS'philosophical'
p414
I105
sS'another'
p415
I97
sS'kuro-goma'
p416
I105
sS'lot.across'
p417
I105
sS'fleeeer\xe2\x80\x9d'
p418
I105
sS'ballin'
p419
I105
sS'tuna'
p420
I105
sS'hood'
p421
I105
sS'carson'
p422
I105
sS'basketball'
p423
I103
sS'service'
p424
I104
sS'lego'
p425
I104
sS'"change"'
p426
I105
sS'players6)'
p427
I105
sS'top'
p428
I104
sS'girls'
p429
I92
sS'tow'
p430
I105
sS'mobbin'
p431
I105
sS'needed'
p432
I104
sS'jamba'
p433
I104
sS'twanny'
p434
I105
sS'master'
p435
I105
sS'too'
p436
I43
sS'hustlin'
p437
I105
sS'fcks'
p438
I105
sS'ayeeee'
p439
I105
sS'kewl'
p440
I105
sS'legs'
p441
I100
sS'love.\xe2\x80\x9d'
p442
I105
sS'listen'
p443
I100
sS'urban'
p444
I105
sS'ceiling'
p445
I105
sS'hangout'
p446
I103
sS'7\xe6\x99\x82\xe5\x8d\x8a\xe3\x81\xab\xe8\xb5\xb7\xe3\x81\x8d\xe3\x81\xa68\xe6\x99\x82\xe5\x8d\x8a\xe3\x81\xab\xe8\xb5\xb7\xe3\x81\x8d\xe3\x81\xa69\xe6\x99\x82\xe5\x8d\x8a\xe3\x81\xab\xe8\xb5\xb7\xe3\x81\x8d\xe3\x81\xa6\xe3\x80\x81\xe7\x84\xa6\xe3\x82\x8b\xe3\x80\x82'
p447
I105
sS'segundo'
p448
I103
sS'quattro'
p449
I105
sS'gym'
p450
I93
sS'brushes'
p451
I105
sS'serve'
p452
I105
sS'took'
p453
I99
sS'trippy'
p454
I105
sS'wisdom'
p455
I105
sS'wrapped'
p456
I104
sS'\xd8\xa7\xd9\x84\xd8\xa3\xd8\xb5\xd9\x84\xd9\x8a\xe2\x80\xa6'
p457
I105
sS'okaaaaaaay'
p458
I105
sS'western'
p459
I99
sS'cereal'
p460
I104
sS'wasted'
p461
I105
sS'space-age'
p462
I105
sS'finale'
p463
I105
sS'necessary..but'
p464
I105
sS'prego'
p465
I105
sS'distance'
p466
I104
sS'anxiety'
p467
I105
sS'(18517'
p468
I105
sS'target'
p469
I105
sS'showed'
p470
I104
sS'coward'
p471
I105
sS'tree'
p472
I105
sS'crave'
p473
I104
sS"god's"
p474
I105
sS'project'
p475
I104
sS'matter'
p476
I100
sS'classes'
p477
I105
sS'expo'
p478
I104
sS'friend'
p479
I99
sS'loiter'
p480
I105
sS'tres'
p481
I105
sS'feeling'
p482
I87
sS'powers'
p483
I105
sS'anahi'
p484
I103
sS'fashion'
p485
I105
sS'sees'
p486
I105
sS'we\xe2\x80\x99ve'
p487
I105
sS'ran'
p488
I104
sS'boston'
p489
I104
sS'apro'
p490
I105
sS'esto'
p491
I105
sS'mind'
p492
I95
sS'mine'
p493
I100
sS'anybody'
p494
I96
sS'talking'
p495
I93
sS'quesarito'
p496
I105
sS'areeee'
p497
I105
sS'rap'
p498
I105
sS'seen'
p499
I103
sS'seem'
p500
I105
sS'theres'
p501
I105
sS'dozen'
p502
I105
sS'forced'
p503
I105
sS'strength'
p504
I104
sS'flippin'
p505
I105
sS'massaged'
p506
I105
sS'-'
p507
I104
sS'snow'
p508
I105
sS'balling'
p509
I105
sS'chest'
p510
I104
sS'realz'
p511
I102
sS'niece'
p512
I105
sS'cam-'
p513
I105
sS'laughed'
p514
I104
sS'rides'
p515
I105
sS'too--and'
p516
I105
sS'blue'
p517
I102
sS"who've"
p518
I105
sS'nobody'
p519
I102
sS'incapable'
p520
I105
sS'though'
p521
I98
sS'memphis'
p522
I105
sS'proving'
p523
I105
sS'sue'
p524
I105
sS"johnny's"
p525
I105
sS'chicka'
p526
I104
sS'mario'
p527
I105
sS'regular'
p528
I105
sS'mouth'
p529
I103
sS'letter'
p530
I105
sS'"dude'
p531
I105
sS'drought'
p532
I105
sS'\xd8\xad\xd9\x88\xd9\x84\xd9\x88\xd9\x87'
p533
I105
sS'smokee'
p534
I105
sS'zealand'
p535
I101
sS'motivators'
p536
I105
sS'episode'
p537
I102
sS'"aye'
p538
I105
sS'bank...ugh'
p539
I105
sS'grove'
p540
I105
sS'doneeeee'
p541
I105
sS'dog'
p542
I103
sS'doe'
p543
I105
sS'freeway'
p544
I103
sS'definitely'
p545
I96
sS'aunt'
p546
I104
sS'principle'
p547
I105
sS'craziest'
p548
I105
sS'pineapple'
p549
I102
sS'\xd9\x88\xd9\x87\xd9\x8a'
p550
I105
sS'dos'
p551
I105
sS'yessssssss'
p552
I105
sS'came'
p553
I102
sS'saying'
p554
I104
sS'bomb'
p555
I101
sS'pope'
p556
I104
sS'opinions'
p557
I105
sS'"size'
p558
I105
sS'converse'
p559
I105
sS'queen'
p560
I104
sS'sweating'
p561
I105
sS'\xd8\xae\xd8\xb7\xd8\xa8\xd8\xa9'
p562
I104
sS'liza'
p563
I105
sS'>.<'
p564
I105
sS'stepping'
p565
I105
sS'participate'
p566
I105
sS'nephew'
p567
I105
sS'dove'
p568
I105
sS'toast'
p569
I105
sS'touches'
p570
I105
sS'busy'
p571
I104
sS"u'll"
p572
I105
sS'sleeps'
p573
I105
sS'shuffling'
p574
I105
sS'ment'
p575
I105
sS'cousins'
p576
I105
sS'explain'
p577
I104
sS'acne'
p578
I105
sS"baby's"
p579
I104
sS'bust'
p580
I104
sS'omusoba'
p581
I105
sS'\xd9\x85\xd8\xab\xd9\x84'
p582
I105
sS'theme'
p583
I104
sS'folks'
p584
I105
sS'announce'
p585
I105
sS'chipotle'
p586
I101
sS'rice'
p587
I102
sS'hra'
p588
I103
sS'nahhhhh'
p589
I105
sS'musta'
p590
I105
sS'wearing'
p591
I103
sS'geez'
p592
I104
sS'regionals\xe2\x9a\xbd\xef\xb8\x8f'
p593
I105
sS'dm'
p594
I103
sS'strip'
p595
I105
sS'asians'
p596
I105
sS'di'
p597
I105
sS'it\xe2\x80\x99ll'
p598
I105
sS'de'
p599
I104
sS'watch'
p600
I89
sS'13'
p601
I105
sS'da'
p602
I98
sS'guatemala'
p603
I105
sS'watermelon'
p604
I104
sS'..a'
p605
I105
sS'despite'
p606
I104
sS'nasty'
p607
I105
sS'dr'
p608
I105
sS'sabrina'
p609
I105
sS'???\xe2\x80\x9d'
p610
I105
sS'runs'
p611
I105
sS'bar'
p612
I100
sS'pressed'
p613
I105
sS'\xe3\x81\x82\xe3\x81\xb6\xe3\x81\xaa\xe3\x81\xa3\xef\xbc\x81\xe3\x82\xa2\xe3\x83\xa1\xe3\x83\xaa\xe3\x82\xab\xe6\x9d\xa5\xe3\x81\x9f\xe3\x81\xb0\xe3\x81\xa3\xe3\x81\x8b\xe3\x81\xae\xe6\x99\x82\xe3\x81\xab\xe3\x81\x8a\xe4\xb8\x96\xe8\xa9\xb1\xe3\x81\xab\xe3\x81\xaa\xe3\x81\xa3\xe3\x81\x9f\xe4\xba\xba\xe3\x81\xae\xe5\x85\x83\xe3\x82\xab\xe3\x83\x8e\xe3\x82\x92\xe7\xb4\xb9\xe4\xbb\x8b\xe3\x81\x95\xe3\x82\x8c\xe3\x81\x9d\xe3\x81\x86\xe3\x81\xab\xe3\x81\xaa\xe3\x81\xa3\xe3\x81\x9f\xe3\x80\x82\xe3\x81\x95\xe3\x81\x99\xe3\x81\x8c\xe3\x81\xab\xe3\x81\xaa\xe3\x82\x93\xe3\x81\x8b\xe3\x81\xb2\xe3\x81\x8f\xe3\x80\x82'
p614
I105
sS'ahhhhhhh'
p615
I105
sS'twice'
p616
I104
sS'bad'
p617
I88
sS'bae'
p618
I97
sS'shots'
p619
I104
sS'18'
p620
I105
sS'grilled'
p621
I105
sS'\xe3\x83\x9e\xe3\x82\xb8\xe3\x81\xa7\xe3\x81\x8a\xe3\x82\x81\xe3\x81\xa3\xef\xbc\x81'
p622
I105
sS'steal'
p623
I104
sS'headed'
p624
I105
sS'humanly'
p625
I105
sS'blew'
p626
I104
sS'thrashing'
p627
I105
sS'depende'
p628
I105
sS'disaster'
p629
I105
sS'w/'
p630
I96
sS'abhhhahhhaaaa'
p631
I105
sS'testing'
p632
I104
sS'keenan'
p633
I103
sS'yoshi'
p634
I105
sS'submitted'
p635
I105
sS'fail'
p636
I104
sS'noodles'
p637
I104
sS'ayso'
p638
I105
sS'best'
p639
I82
sS'subject'
p640
I105
sS'brazil'
p641
I101
sS'said'
p642
I85
sS'lots'
p643
I105
sS'away'
p644
I103
sS'shaved'
p645
I105
sS'rushing'
p646
I105
sS'mud'
p647
I105
sS"there's"
p648
I99
sS'finger'
p649
I104
sS'pets'
p650
I105
sS'hopefully'
p651
I96
sS'sorts'
p652
I105
sS'insinuated'
p653
I105
sS'noodle)'
p654
I105
sS'we'
p655
I48
sS'men'
p656
I103
sS'omg'
p657
I96
sS'rollercoaster'
p658
I105
sS'weak'
p659
I103
sS'muthafucka'
p660
I105
sS'boss'
p661
I105
sS'nightmares'
p662
I105
sS'\xd8\xac\xd9\x8a\xd8\xaf\xd8\xa9'
p663
I105
sS'nahhh'
p664
I104
sS'wear'
p665
I104
sS'wtf'
p666
I91
sS'wth'
p667
I102
sS'cousin'
p668
I98
sS'picking'
p669
I104
sS'sophie'
p670
I104
sS'roller'
p671
I105
sS'coraima'
p672
I104
sS'cop'
p673
I105
sS'protect'
p674
I105
sS'tfti'
p675
I95
sS'accused'
p676
I105
sS'normandi'
p677
I105
sS'met'
p678
I103
sS'fault'
p679
I104
sS'ill'
p680
I103
sS'lagsc'
p681
I105
sS'ahora'
p682
I105
sS'jelly'
p683
I103
sS'against'
p684
I100
sS'players'
p685
I101
sS"barbara's"
p686
I105
sS'games'
p687
I96
sS'planned'
p688
I104
sS'lookin'
p689
I105
sS'hated'
p690
I105
sS'login'
p691
I105
sS"gaylord's"
p692
I105
sS'asked'
p693
I98
sS'coo'
p694
I102
sS'ily'
p695
I103
sS'skill'
p696
I105
sS'tough'
p697
I105
sS'winnie'
p698
I105
sS'had'
p699
I60
sS'negi-yaki'
p700
I105
sS'yeaaahh'
p701
I105
sS'gap'
p702
I105
sS'matte'
p703
I105
sS'office)'
p704
I105
sS'tony'
p705
I104
sS'trust'
p706
I102
sS'dinner>>>'
p707
I105
sS'186th'
p708
I102
sS'hhhhahahhhhahhahhahhahha'
p709
I105
sS'burns'
p710
I105
sS'bathroom'
p711
I104
sS'angel'
p712
I105
sS'beef'
p713
I104
sS'"you'
p714
I104
sS'chrome'
p715
I105
sS'youuuuuu'
p716
I105
sS'roper'
p717
I105
sS'three'
p718
I100
sS'been'
p719
I72
sS'\xe2\x9d\x84\xef\xb8\x8f'
p720
I105
sS'beer'
p721
I103
sS'much'
p722
I67
sS'noel'
p723
I105
sS'foreaal'
p724
I105
sS'dots'
p725
I105
sS'life'
p726
I73
sS'loft'
p727
I98
sS'thomas>>>>>>>"'
p728
I105
sS'man"'
p729
I105
sS'drugs'
p730
I104
sS'sooooo'
p731
I105
sS'woodbury'
p732
I105
sS'slap'
p733
I105
sS'chile'
p734
I96
sS'child'
p735
I105
sS'catch'
p736
I102
sS'aviation'
p737
I105
sS'worked'
p738
I103
sS'haters'
p739
I102
sS'chill'
p740
I103
sS'physician'
p741
I105
sS'save'
p742
I105
sS'paitan'
p743
I105
sS'lahv'
p744
I105
sS'spender'
p745
I105
sS'air'
p746
I103
sS'ugly'
p747
I101
sS'near'
p748
I105
sS'suppose'
p749
I104
sS'finder'
p750
I105
sS'aid'
p751
I105
sS'cracked'
p752
I105
sS'voice'
p753
I104
sS'tans'
p754
I105
sS'k'
p755
I100
sS'mistake'
p756
I105
sS'loooove'
p757
I105
sS'gameimma'
p758
I105
sS'played'
p759
I94
sS'is'
p760
I11
sS'ir'
p761
I104
sS'"i'
p762
I101
sS'\xe6\xbf\x83\xe5\x8e\x9a\xe3\x81\xa8\xe3\x82\x93\xe3\x81\x93\xe3\x81\xa4\xe5\x91\xb3\xe3\x81\xa7\xe3\x81\x99\xe3\x80\x82'
p763
I105
sS'tapex'
p764
I105
sS'player'
p765
I104
sS'ik'
p766
I104
sS'dizzy'
p767
I105
sS'im'
p768
I90
sS'reports'
p769
I105
sS'in'
p770
I12
sS'\xe3\x81\x88\xe3\x83\xbc\xe3\x83\xbc\xef\xbc\x81\xef\xbc\x81\xe3\x81\x9d\xe3\x83\xbc\xe3\x81\xaa\xe3\x82\x93\xe3\x82\x84\xef\xbc\x81\xef\xbc\x81\xe3\x81\x9d\xe3\x81\xae\xe5\xba\x97\xe3\x83\xa6\xe3\x83\x8b\xe3\x83\x90\xe3\x81\x8b\xe3\x81\xaa\xe3\x82\x93\xe3\x81\x8b\xe3\x81\xae\xe8\xbf\x91\xe3\x81\x8f\xe3\x81\xa7\xe8\xa6\x8b\xe3\x81\x9f\xe3\x81\x93\xe3\x81\xa8\xe3\x81\x82\xe3\x82\x8b(*\xef\xbe\x9f\xe2\x96\xbd\xef\xbe\x9f*)\xef\xbc\x81\xef\xbc\x81\xe3\x81\xaa\xe3\x82\x93\xe3\x81\x8b\xe3\x80\x81\xe5\x86\x85\xe8\xa3\x85\xe3\x82\x84\xe3\x81\x9f\xe3\x82\x89\xe3\x82\xb7\xe3\x83\xa7\xe3\x83\x83\xe3\x82\xad\xe3\x83\xb3\xe3\x83\x94\xe3\x83\xb3\xe3\x82\xaf\xe3\x82\x84\xe3\x82\x93\xe3\x81\xaa\xef\xbc\x9f\xe3\x82\x8f\xe3\x82\x89'
p771
I105
sS'colosseum'
p772
I105
sS'id'
p773
I104
sS'ig'
p774
I105
sS'if'
p775
I39
sS'grown'
p776
I105
sS'confirmed'
p777
I105
sS'memoriam'
p778
I105
sS'credit'
p779
I103
sS'things'
p780
I93
sS'make'
p781
I76
sS'holojohn'
p782
I101
sS'polaroid'
p783
I105
sS"b's"
p784
I105
sS'hahah'
p785
I101
sS'-_-"'
p786
I105
sS'silly'
p787
I105
sS'yung'
p788
I104
sS'wheel'
p789
I105
sS'youth'
p790
I105
sS'ily3'
p791
I105
sS'biiiiiiiiiiiiitch'
p792
I105
sS'swell'
p793
I105
sS'hang'
p794
I101
sS'springtime'
p795
I105
sS'adventure'
p796
I105
sS'kik'
p797
I105
sS'shivan'
p798
I105
sS'kim'
p799
I104
sS'mentions'
p800
I105
sS'jealous'
p801
I104
sS'tyson'
p802
I105
sS'opportunity'
p803
I103
sS"he'll"
p804
I104
sS'thoughts'
p805
I104
sS'kid'
p806
I102
sS'(me)'
p807
I105
sS'\xd8\xa7\xd9\x84\xd8\xaf\xd9\x88\xd9\x84'
p808
I105
sS'charlie'
p809
I105
sS'min'
p810
I104
sS'ocean'
p811
I104
sS'tho'
p812
I79
sS'pandora'
p813
I101
sS'mother'
p814
I104
sS'alarms'
p815
I105
sS'hearts'
p816
I105
sS'the'
p817
I4
sS'smoked'
p818
I105
sS'underestimated'
p819
I105
sS'tha'
p820
I105
sS'left'
p821
I95
sS'seasonal'
p822
I105
sS'juss'
p823
I105
sS"she'll"
p824
I105
sS'just'
p825
I23
sS'yea'
p826
I79
sS'newton'
p827
I105
sS'sleepy'
p828
I104
sS'unfair'
p829
I105
sS'hahahha'
p830
I105
sS'ideas'
p831
I105
sS'verses'
p832
I105
sS'quotes'
p833
I105
sS'thanks'
p834
I72
sS'human'
p835
I105
sS'yep'
p836
I105
sS'yes'
p837
I89
sS'yet'
p838
I94
sS'jose'
p839
I105
sS'broncos'
p840
I105
sS'crackinnnn'
p841
I105
sS'\xe3\x83\xbb\xe3\x83\xbb\xe3\x83\xbb\xe5\xbe\x8c\xe3\x81\xae\xe3\x82\xad\xe3\x83\xb3\xe3\x82\xb0\xe3\x82\xb9\xe3\x81\xb5\xe3\x81\x81\xe3\x81\xa3\xe3\x81\x8d\xe3\x82\x93\xe3\x83\x8f\xe3\x83\xaf\xe3\x82\xa4\xe3\x82\xa2\xe3\x83\xb3'
p842
I105
sS'photographer'
p843
I105
sS'royal'
p844
I104
sS'^)\xe6\x97\xa9\xe3\x81\x8f\xe3\x81\x82\xe3\x81\x84\xe3\x81\x9f\xe3\x81\x84\xec\x9a\xa9~'
p845
I105
sS'kahlil'
p846
I105
sS'hay'
p847
I105
sS'shout'
p848
I104
sS'bokkake'
p849
I104
sS'board'
p850
I103
sS'5k'
p851
I105
sS'prison'
p852
I105
sS'enchilada'
p853
I105
sS'els'
p854
I105
sS'has'
p855
I92
sS'hat'
p856
I105
sS'11:30am-4:00pm'
p857
I105
sS'torrance'
p858
I91
sS'gave'
p859
I103
sS'nia!\xe2\x98\xba\xef\xb8\x8f'
p860
I105
sS'opp'
p861
I105
sS'heizel'
p862
I104
sS'decided'
p863
I105
sS'ops'
p864
I105
sS'grubbing'
p865
I105
sS'breaks'
p866
I105
sS'possible'
p867
I104
sS'possibly'
p868
I105
sS'boxer'
p869
I105
sS'judge'
p870
I102
sS'highly'
p871
I105
sS'dreams'
p872
I105
sS'apart'
p873
I105
sS'shoulder'
p874
I104
sS'brought'
p875
I103
sS'here....very'
p876
I105
sS'alllllll'
p877
I105
sS'flappy'
p878
I105
sS'gift'
p879
I105
sS'hahahahah'
p880
I105
sS'mean...\xe2\x80\x9d'
p881
I105
sS'visor'
p882
I105
sS'performing'
p883
I105
sS'50'
p884
I105
sS'53'
p885
I105
sS'52'
p886
I105
sS'specific'
p887
I105
sS'remind'
p888
I105
sS'night'
p889
I71
sS'hung'
p890
I105
sS'analyzing'
p891
I105
sS'right'
p892
I37
sS'old'
p893
I98
sS'deal'
p894
I104
sS'people'
p895
I55
sS'crown'
p896
I105
sS'dead'
p897
I102
sS'10th'
p898
I105
sS'printer'
p899
I105
sS'kbbq'
p900
I100
sS'trippen'
p901
I104
sS'jill'
p902
I105
sS'(gardena'
p903
I90
sS'pain'
p904
I102
sS'guess'
p905
I82
sS'finna'
p906
I105
sS'bora'
p907
I104
sS'cnt'
p908
I105
sS'kewwwl'
p909
I105
sS'for'
p910
I17
sS'bottom'
p911
I104
sS'ear'
p912
I105
sS'normal'
p913
I105
sS'ice'
p914
I97
sS'bruins'
p915
I105
sS'aaaaaa'
p916
I105
sS'everything'
p917
I90
sS'asking'
p918
I105
sS'refleja'
p919
I105
sS'umm'
p920
I105
sS'420'
p921
I105
sS'foo'
p922
I104
sS'adorable'
p923
I105
sS'christmas'
p924
I100
sS'tht'
p925
I105
sS'bagdip'
p926
I105
sS'pls'
p927
I102
sS'sadie'
p928
I105
sS'deleted'
p929
I105
sS'brawl'
p930
I105
sS'corn'
p931
I103
sS'pose'
p932
I105
sS'blackmail'
p933
I105
sS'burr'
p934
I105
sS'keeper'
p935
I103
sS'post'
p936
I101
sS'blowers'
p937
I105
sS'dorner'
p938
I102
sS'cory'
p939
I105
sS'\xe8\xaa\xb0\xe5\xbe\x97\xe3\x82\x84\xe3\x81\xad\xe3\x82\x93\xe3\x81\xa3\xe3\x81\xa6\xe6\x80\x9d\xe3\x81\xa3\xe3\x81\x9f\xe3\x81\x91\xe3\x81\xa9\xe3\x83\xac\xe3\x82\xb8\xe3\x81\x97\xe3\x81\xa6\xe3\x81\x8f\xe3\x82\x8c\xe3\x81\x9f\xe3\x81\x8a\xe3\x81\x98\xe3\x81\x95\xe3\x81\xbe\xe3\x81\x8c\xe8\xa6\x8b\xe3\x81\x9f\xe7\x9b\xae\xe3\x82\x82\xe5\xa3\xb0\xe3\x82\x82\xe6\xb8\x8b\xe3\x81\x8f\xe3\x81\xa6\xe3\x81\x8b\xe3\x81\xa3\xe3\x81\x93\xe3\x82\x88\xe3\x81\x8b\xe3\x81\xa3\xe3\x81\x9f\xe3\x81\x8b\xe3\x82\x89\xe8\xa8\xb1\xe3\x81\x99'
p940
I105
sS'leva'
p941
I105
sS"something's"
p942
I105
sS'yelling'
p943
I105
sS'daaaamn'
p944
I105
sS'dollars'
p945
I105
sS'valentines'
p946
I104
sS'o'
p947
I97
sS'\xe3\x81\x82\xe3\x82\x93\xe3\x81\xad\xe3\x82\x93\xe3\x80\x82la\xe3\x83\x80\xe3\x82\xa6\xe3\x83\xb3\xe3\x82\xbf\xe3\x82\xa6\xe3\x83\xb3\xe3\x81\xae\xe3\x83\xaa\xe3\x83\x88\xe3\x83\xab\xe6\x9d\xb1\xe4\xba\xac\xe3\x81\xab\xe9\xab\x98\xe9\x87\x8e\xe5\xb1\xb1\xe3\x81\x8b\xe3\x82\x89\xe3\x81\x8a\xe5\xaf\xba\xe3\x81\x8c\xe6\x9d\xa5\xe3\x81\xa6\xe3\x81\xbe\xe3\x82\x93\xe3\x81\xad\xe3\x82\x93\xe3\x80\x82'
p948
I105
sS'dinner'
p949
I98
sS'plus'
p950
I105
sS'anime'
p951
I105
sS'bigbootysoudy'
p952
I105
sS'dads'
p953
I105
sS'suggestions'
p954
I105
sS'curry'
p955
I105
sS'sweater'
p956
I105
sS'match'
p957
I104
sS'soa'
p958
I105
sS'nerve'
p959
I105
sS'raised'
p960
I105
sS'motivate'
p961
I105
sS'twitcon'
p962
I103
sS'wasting'
p963
I105
sS'selfie'
p964
I104
sS'ahi'
p965
I105
sS'bound'
p966
I103
sS'son'
p967
I103
sS'down'
p968
I70
sS'thankful'
p969
I98
sS'\xd8\xa7\xd9\x84\xd9\x86\xd8\xaa'
p970
I105
sS'wrap'
p971
I104
sS'honored'
p972
I105
sS'rounds'
p973
I105
sS'<333'
p974
I105
sS'wan'
p975
I105
sS'crowd'
p976
I105
sS'zags'
p977
I105
sS'wah'
p978
I105
sS'fireside'
p979
I105
sS'echinacea'
p980
I105
sS'support'
p981
I104
sS'flying'
p982
I101
sS'>>>>'
p983
I105
sS'fight'
p984
I99
sS'absolutely'
p985
I103
sS'\xe6\x9d\xa5\xe3\x81\xa6\xe3\x81\x8f\xe3\x82\x8c\xe3\x82\x8b\xe3\x81\xae\xe3\x82\x8f\xe3\x81\x8b\xe3\x81\xa3\xe3\x81\xa6\xe3\x82\x8b\xe3\x82\x88\xe2\x9d\xa4\xe7\xac\x91'
p986
I105
sS'way'
p987
I77
sS'yunosugay'
p988
I105
sS'jane'
p989
I105
sS'music'
p990
I99
sS'wat'
p991
I105
sS'was'
p992
I33
sS'war'
p993
I102
sS'happy'
p994
I71
sS'questionable'
p995
I105
sS'head'
p996
I97
sS'yolo'
p997
I105
sS'house....bored'
p998
I105
sS'form'
p999
I104
sS'snowy'
p1000
I105
sS'icmc'
p1001
I105
sS'proudly'
p1002
I105
sS'becoming'
p1003
I105
sS'gorgeous'
p1004
I103
sS'truu'
p1005
I104
sS'forgetful'
p1006
I105
sS'feminine'
p1007
I105
sS'heat'
p1008
I105
sS'hear'
p1009
I102
sS'idgaf'
p1010
I104
sS'modan-yaki'
p1011
I105
sS'true'
p1012
I91
sS'outsmart'
p1013
I105
sS'refreshing'
p1014
I105
sS'tryin'
p1015
I104
sS'happen'
p1016
I100
sS"else's"
p1017
I103
sS'kohls'
p1018
I105
sS'giv'
p1019
I105
sS'mtv'
p1020
I105
sS'strongest'
p1021
I105
sS'stores'
p1022
I105
sS'until'
p1023
I97
sS'camaro'
p1024
I105
sS'r.i.p'
p1025
I105
sS'blu-ray'
p1026
I105
sS'smashed'
p1027
I103
sS'palm'
p1028
I105
sS'education'
p1029
I105
sS'latch'
p1030
I105
sS'seafood'
p1031
I105
sS'delete'
p1032
I105
sS'151'
p1033
I105
sS'midgets'
p1034
I105
sS'phil'
p1035
I104
sS'liberal'
p1036
I105
sS'sticks'
p1037
I105
sS'classic'
p1038
I105
sS'upset'
p1039
I104
sS'abstract'
p1040
I105
sS'tournament'
p1041
I102
sS'texts'
p1042
I105
sS'covers'
p1043
I105
sS'drive'
p1044
I100
sS'dear'
p1045
I103
sS"blue'd"
p1046
I105
sS'promised'
p1047
I105
sS'muffins'
p1048
I105
sS"i'm.not"
p1049
I105
sS'annoying'
p1050
I103
sS'check'
p1051
I103
sS'shit'
p1052
I50
sS'eloi'
p1053
I105
sS'breakfast>>'
p1054
I105
sS'nm'
p1055
I105
sS'dying'
p1056
I102
sS'no'
p1057
I44
sS"ana's"
p1058
I105
sS'woman!.......please'
p1059
I105
sS'when'
p1060
I38
sS'marines'
p1061
I105
sS'reality'
p1062
I103
sS'coffee\xe2\x80\xa6'
p1063
I105
sS'role'
p1064
I105
sS'doya'
p1065
I94
sS'brings'
p1066
I104
sS'test'
p1067
I99
sS'11am-6pm'
p1068
I105
sS'depot'
p1069
I105
sS'smell'
p1070
I103
sS'roll'
p1071
I103
sS'realize'
p1072
I105
sS'scored'
p1073
I101
sS'picture'
p1074
I100
sS'48209'
p1075
I105
sS"'s"
p1076
I105
sS'brothers'
p1077
I104
sS"o'clock"
p1078
I103
sS'messing'
p1079
I105
sS'why'
p1080
I62
sS'felt'
p1081
I103
sS'nightthank'
p1082
I105
sS"let's"
p1083
I89
sS'fell'
p1084
I103
sS'invested'
p1085
I105
sS'rolling'
p1086
I105
sS'\xd9\x84\xd9\x84\xd8\xaa\xd8\xae\xd9\x84\xd8\xb5'
p1087
I105
sS'weekend'
p1088
I95
sS'died'
p1089
I105
sS'congested'
p1090
I105
sS'shootout'
p1091
I105
sS'happening'
p1092
I101
sS'apology'
p1093
I105
sS'potato'
p1094
I104
sS'deng'
p1095
I105
sS'torrence'
p1096
I105
sS'together'
p1097
I98
sS'vietnam'
p1098
I105
sS'\xd8\xa7\xd9\x84\xd8\xb7\xd8\xba\xd9\x8a\xd8\xa7\xd9\x86'
p1099
I105
sS'rejections'
p1100
I105
sS'time'
p1101
I45
sS'push'
p1102
I104
sS'serious'
p1103
I99
sS'beamer'
p1104
I105
sS'quantity'
p1105
I105
sS'overdue'
p1106
I105
sS'neighbors'
p1107
I105
sS'piano\xe2\x80\x9d'
p1108
I105
sS':/'
p1109
I104
sS':('
p1110
I102
sS':)'
p1111
I97
sS'chain'
p1112
I105
sS'themed'
p1113
I103
sS'dance'
p1114
I103
sS'skip'
p1115
I105
sS'hundo'
p1116
I105
sS'signage'
p1117
I105
sS'walking'
p1118
I100
sS'hawaii'
p1119
I105
sS'themes'
p1120
I105
sS'manager'
p1121
I104
sS'mile'
p1122
I105
sS'/'
p1123
I105
sS'grateful'
p1124
I105
sS'skin'
p1125
I104
sS'rot'
p1126
I105
sS'milk'
p1127
I105
sS'\xe2\x9c\xa8'
p1128
I105
sS'venice'
p1129
I105
sS'suicide'
p1130
I104
sS'baller'
p1131
I105
sS'laura'
p1132
I105
sS'filming'
p1133
I105
sS'soon\xe2\x9d\xa4\xef\xb8\x8f'
p1134
I105
sS'father'
p1135
I105
sS'pen'
p1136
I105
sS'click'
p1137
I105
sS'0'
p1138
I104
sS'finally'
p1139
I91
sS'2pac'
p1140
I105
sS'rhythm'
p1141
I105
sS'nugs'
p1142
I105
sS"5'4"
p1143
I105
sS'brown'
p1144
I103
sS'protective'
p1145
I105
sS'icing'
p1146
I104
sS'jerk'
p1147
I105
sS'9-0'
p1148
I105
sS"anoa'i"
p1149
I105
sS'okaaayyy'
p1150
I105
sS'keeping'
p1151
I105
sS'tacos'
p1152
I101
sS'vegas'
p1153
I102
sS'artwork'
p1154
I105
sS'cook'
p1155
I104
sS'ma'
p1156
I105
sS'trouble'
p1157
I105
sS"anthony's"
p1158
I105
sS'minute'
p1159
I103
sS'cool'
p1160
I96
sS'swallowing'
p1161
I105
sS'chickscause'
p1162
I105
sS'sorrowful'
p1163
I105
sS'=d'
p1164
I105
sS'did'
p1165
I83
sS'die'
p1166
I101
sS'brother'
p1167
I95
sS'clear--mario'
p1168
I105
sS'leave'
p1169
I101
sS'soooo'
p1170
I105
sS'abanda'
p1171
I105
sS'sweatersss'
p1172
I105
sS'team'
p1173
I93
sS'quick'
p1174
I101
sS'guy'
p1175
I88
sS'dip'
p1176
I105
sS'round'
p1177
I105
sS"it'll"
p1178
I104
sS'shave'
p1179
I104
sS'pork'
p1180
I105
sS'talked'
p1181
I103
sS'says'
p1182
I99
sS'regret'
p1183
I104
sS'sweeeeesher'
p1184
I105
sS'bravo'
p1185
I104
sS'\xe2\x9b\x84\xef\xb8\x8f\xe2\x9d\x84\xef\xb8\x8f'
p1186
I105
sS'discover'
p1187
I105
sS'cyber'
p1188
I105
sS'sign'
p1189
I104
sS'geeking'
p1190
I105
sS'talker'
p1191
I105
sS'whaaaaat'
p1192
I105
sS'run'
p1193
I96
sS'bake'
p1194
I105
sS'rough'
p1195
I105
sS'drinks'
p1196
I105
sS'stressful'
p1197
I105
sS'appear'
p1198
I105
sS'feat'
p1199
I105
sS'rum'
p1200
I105
sS'mall'
p1201
I105
sS'business'
p1202
I105
sS'skyzone'
p1203
I105
sS'me!"'
p1204
I105
sS'goes'
p1205
I102
sS'reply'
p1206
I102
sS'falling'
p1207
I105
sS'order'
p1208
I105
sS'ummmm'
p1209
I105
sS'"sometimes"'
p1210
I105
sS'cailou'
p1211
I105
sS'supporting'
p1212
I104
sS'emite'
p1213
I105
sS'transportation'
p1214
I105
sS'cool...\xe2\x80\x9d'
p1215
I105
sS'grandparents'
p1216
I105
sS'univision'
p1217
I105
sS'ouch'
p1218
I105
sS'french'
p1219
I104
sS'water'
p1220
I101
sS'baseball'
p1221
I103
sS'groups'
p1222
I105
sS'\xd8\xaa\xd8\xb1\xd8\xae\xd9\x8a\xd8\xb5'
p1223
I105
sS'alone'
p1224
I103
sS'along'
p1225
I101
sS'coochie'
p1226
I105
sS'change'
p1227
I99
sS'wait'
p1228
I83
sS'3:25'
p1229
I105
sS'boy'
p1230
I98
sS'ewww'
p1231
I105
sS'duperon'
p1232
I105
sS'healthy'
p1233
I105
sS'hbd'
p1234
I104
sS'title'
p1235
I105
sS'ronelle'
p1236
I105
sS'merrick'
p1237
I105
sS'lakers'
p1238
I97
sS'proud'
p1239
I99
sS'thrashed'
p1240
I105
sS'boo'
p1241
I101
sS'usually'
p1242
I103
sS'weird'
p1243
I102
sS'bruised'
p1244
I105
sS'massage'
p1245
I104
sS'genuinely'
p1246
I105
sS'love'
p1247
I44
sS'laggerrrrrrrrrr'
p1248
I105
sS'morals'
p1249
I105
sS'extra'
p1250
I101
sS'bs'
p1251
I104
sS'cared'
p1252
I105
sS'snowboard'
p1253
I105
sS'fake'
p1254
I101
sS'market'
p1255
I97
sS'sky'
p1256
I105
sS'everybody'
p1257
I102
sS'primrose'
p1258
I105
sS'working'
p1259
I96
sS'prove'
p1260
I105
sS'aye'
p1261
I103
sS'positive'
p1262
I103
sS'anthro'
p1263
I105
sS'dude'
p1264
I84
sS'tripping'
p1265
I105
sS'live'
p1266
I100
sS'jam'
p1267
I104
sS'andy'
p1268
I105
sS'iphone'
p1269
I103
sS'wondering'
p1270
I104
sS'ahhh'
p1271
I105
sS'actin'
p1272
I105
sS'thru'
p1273
I101
sS'prep'
p1274
I105
sS'today'
p1275
I63
sS'loving'
p1276
I105
sS'roared'
p1277
I105
sS'hooked'
p1278
I105
sS'kiinngg'
p1279
I105
sS'one.\xe2\x80\x9d'
p1280
I105
sS'threw'
p1281
I105
sS'club'
p1282
I103
sS'dislikes'
p1283
I105
sS'\xe3\x81\x9d\xe3\x83\xbc\xe3\x81\xaa\xe3\x82\x93\xe3\x81\xa0\xe3\x83\xbc(t'
p1284
I105
sS'cashier'
p1285
I105
sS'chocolate'
p1286
I105
sS'everywhere'
p1287
I105
sS'investigation'
p1288
I105
sS'effort'
p1289
I105
sS'easiest'
p1290
I105
sS'fly'
p1291
I95
sS'means"'
p1292
I105
sS'douche'
p1293
I105
sS'lightheaded'
p1294
I105
sS'tokyo'
p1295
I104
sS'julius'
p1296
I105
sS'car'
p1297
I89
sS'soul'
p1298
I103
sS"inc.'s"
p1299
I105
sS'cat'
p1300
I104
sS'haaaard'
p1301
I105
sS'can'
p1302
I54
sS'9th'
p1303
I103
sS'kendrick'
p1304
I105
sS'growing'
p1305
I104
sS'making'
p1306
I102
sS'heart'
p1307
I101
sS'crazy'
p1308
I99
sS'months'
p1309
I101
sS'ngas'
p1310
I105
sS'figure'
p1311
I105
sS'uruguay'
p1312
I105
sS'predict'
p1313
I105
sS'awesome'
p1314
I101
sS"didn't"
p1315
I74
sS'fuck'
p1316
I64
sS'agent'
p1317
I105
sS'heard'
p1318
I98
sS'etusd'
p1319
I105
sS'dropped'
p1320
I102
sS'allowed'
p1321
I105
sS'gardena)'
p1322
I102
sS'mazzy'
p1323
I105
sS'hydrogen'
p1324
I105
sS'ealy:really'
p1325
I105
sS'treesso'
p1326
I105
sS'productive'
p1327
I105
sS'divided'
p1328
I105
sS'means'
p1329
I104
sS'55430'
p1330
I105
sS's4'
p1331
I105
sS'1'
p1332
I98
sS'till'
p1333
I94
sS'sunday'
p1334
I102
sS'ligas'
p1335
I105
sS'assistant'
p1336
I105
sS'165lbs'
p1337
I105
sS'divider'
p1338
I105
sS'staying'
p1339
I103
sS'tmf'
p1340
I105
sS'142'
p1341
I105
sS'information'
p1342
I105
sS'may'
p1343
I101
sS'max'
p1344
I105
sS'sacrifice'
p1345
I105
sS'spot'
p1346
I103
sS'tbt'
p1347
I105
sS'crashed'
p1348
I104
sS'mac'
p1349
I104
sS'birthday'
p1350
I78
sS'mad'
p1351
I90
sS'date'
p1352
I101
sS'such'
p1353
I98
sS'suck'
p1354
I100
sS'whaaaa'
p1355
I105
sS'guys'
p1356
I87
sS'grow'
p1357
I103
sS'repeat'
p1358
I105
sS'man'
p1359
I76
sS'weeding'
p1360
I105
sS'stress'
p1361
I105
sS'cod'
p1362
I105
sS'natural'
p1363
I105
sS'remember'
p1364
I93
sS'conmigo*'
p1365
I105
sS'me.\xe2\x80\x9d'
p1366
I105
sS'whenever'
p1367
I105
sS'maybe'
p1368
I92
sS'industry'
p1369
I105
sS'\xd9\x86\xd9\x87\xd8\xa7\xd9\x8a\xd8\xaa\xd9\x87\xd8\xa7'
p1370
I105
sS'rollin'
p1371
I105
sS'st'
p1372
I100
sS'ehhhh'
p1373
I104
sS'inform'
p1374
I105
sS'si'
p1375
I101
sS'mango'
p1376
I105
sS'so'
p1377
I18
sS'block'
p1378
I105
sS'swollen'
p1379
I105
sS'runnin'
p1380
I105
sS'fireball'
p1381
I105
sS'pulled'
p1382
I102
sS'travel'
p1383
I105
sS'talk'
p1384
I92
sS'sd'
p1385
I103
sS'cute'
p1386
I98
sS'tagged'
p1387
I105
sS'shoes'
p1388
I104
sS'usc'
p1389
I105
sS'indeed'
p1390
I104
sS'jog-a-thon'
p1391
I105
sS'haircut'
p1392
I103
sS'midnight'
p1393
I103
sS'years'
p1394
I94
sS'course'
p1395
I99
sS'shake'
p1396
I104
sS'kanye'
p1397
I103
sS'cold'
p1398
I99
sS'still'
p1399
I64
sS'apes'
p1400
I104
sS'police'
p1401
I105
sS'thank'
p1402
I60
sS'sugarcoat'
p1403
I105
sS"he's"
p1404
I91
sS'thang'
p1405
I104
sS'civic'
p1406
I105
sS'country<<<'
p1407
I105
sS'hot'
p1408
I98
sS'faves'
p1409
I105
sS'according'
p1410
I105
sS'thanx'
p1411
I101
sS'niiiiiight'
p1412
I105
sS'tweets'
p1413
I98
sS'drillin'
p1414
I105
sS'main'
p1415
I105
sS'dyson'
p1416
I105
sS'happened'
p1417
I90
sS'lonely'
p1418
I105
sS'squares'
p1419
I105
sS'fling'
p1420
I105
sS'moms'
p1421
I105
sS'rattled'
p1422
I105
sS'insomnia'
p1423
I105
sS'feelin'
p1424
I105
sS'lunch'
p1425
I102
sS'adrenaline'
p1426
I105
sS'slacks'
p1427
I105
sS'half'
p1428
I104
sS'not'
p1429
I34
sS'alisa'
p1430
I105
sS'now'
p1431
I29
sS'ahaha'
p1432
I104
sS'bullshit'
p1433
I104
sS'josh'
p1434
I105
sS"'bout"
p1435
I105
sS'name'
p1436
I96
sS'realist'
p1437
I105
sS'playin'
p1438
I105
sS'james'
p1439
I104
sS'laaaast'
p1440
I105
sS'drop'
p1441
I103
sS'doveyy'
p1442
I105
sS'twatchers'
p1443
I105
sS'____i____'
p1444
I105
sS'cuzz'
p1445
I103
sS'25'
p1446
I105
sS'rock'
p1447
I102
sS'quarter'
p1448
I105
sS'em'
p1449
I101
sS'el'
p1450
I101
sS'lowkey'
p1451
I102
sS'doooooeeee'
p1452
I105
sS'at?"'
p1453
I105
sS'\xe3\x85\x8e\xe3\x85\x8e\xe3\x85\x8e'
p1454
I105
sS'yeah'
p1455
I89
sS'persian'
p1456
I105
sS'farewell'
p1457
I105
sS'ex'
p1458
I105
sS'\xe3\x81\x84\xe3\x81\x84\xe3\x81\x93\xe3\x81\xa8\xe3\x81\xa0\xe2\x9d\xa4'
p1459
I105
sS'year'
p1460
I90
sS'girl'
p1461
I91
sS'calling'
p1462
I104
sS'"uhm'
p1463
I105
sS'es'
p1464
I104
sS'tried'
p1465
I104
sS'album'
p1466
I105
sS'living'
p1467
I104
sS'jackson'
p1468
I105
sS'opened'
p1469
I105
sS'3rd'
p1470
I105
sS":')"
p1471
I105
sS'tribute'
p1472
I105
sS'concert'
p1473
I105
sS'factory'
p1474
I105
sS'looking'
p1475
I101
sS'seriously'
p1476
I89
sS"kanishero's"
p1477
I105
sS"shouldn't"
p1478
I99
sS"bev's"
p1479
I105
sS'pardon'
p1480
I105
sS'emilys'
p1481
I105
sS'nudes'
p1482
I105
sS'shows'
p1483
I104
sS'sikkkkkkkkkkkkkkkkkkkk'
p1484
I105
sS'dodgers'
p1485
I103
sS'monster'
p1486
I105
sS'tienen'
p1487
I105
sS'cars'
p1488
I105
sS'million'
p1489
I104
sS'huli'
p1490
I104
sS'possibility'
p1491
I105
sS'sneak'
p1492
I105
sS'lmk'
p1493
I103
sS'california'
p1494
I105
sS'rebel'
p1495
I105
sS'carl'
p1496
I104
sS'grandma'
p1497
I100
sS'marina'
p1498
I105
sS'daniveggie\xe2\x80\xa6'
p1499
I105
sS'card'
p1500
I103
sS'care'
p1501
I92
sS'2014'
p1502
I105
sS'reflect'
p1503
I105
sS'training'
p1504
I98
sS'language'
p1505
I102
sS'ministry'
p1506
I105
sS'yup'
p1507
I99
sS'100%'
p1508
I104
sS'tasting'
p1509
I105
sS'punk'
p1510
I104
sS'honest'
p1511
I105
sS'turn'
p1512
I100
sS'nuff'
p1513
I105
sS'place'
p1514
I76
sS'massive'
p1515
I105
sS"akari's"
p1516
I105
sS'turf'
p1517
I105
sS'\xd9\x87\xd9\x88'
p1518
I105
sS'think'
p1519
I70
sS'first'
p1520
I79
sS'cheese'
p1521
I105
sS'tama'
p1522
I102
sS'xo'
p1523
I105
sS'guessing'
p1524
I105
sS'spoken'
p1525
I105
sS'question'
p1526
I105
sS'potter'
p1527
I105
sS'\xe6\x9d\xa5\xe9\x80\xb1\xe3\x81\xab\xe3\x81\xaf\xe6\x9d\xa5\xe3\x81\x9d\xe3\x81\x86\xe3\x81\xa7\xe3\x81\x99\xe2\x9d\xa4\xe9\xbb\x92\xe3\x81\xaf\xe3\x81\x8a\xe5\xba\x97\xe3\x81\xab\xe3\x81\x82\xe3\x82\x8b\xe3\x82\x93\xe3\x81\xa7\xe3\x81\x99\xe3\x81\x91\xe3\x81\xa9\xe3\x80\x81\xe3\x82\xb7\xe3\x83\xab\xe3\x83\x90\xe3\x83\xbc\xe3\x80\x81\xe3\x82\xb4\xe3\x83\xbc\xe3\x83\xab\xe3\x83\x89\xe3\x81\xaf\xe3\x82\xaa\xe3\x83\xbc\xe3\x83\x80\xe3\x83\xbc\xe3\x81\x97\xe3\x81\xaa\xe3\x81\x84\xe3\x81\xa8\xe3\x81\xaa\xe3\x81\x8b\xe3\x81\xa3\xe3\x81\x9f\xe3\x81\xa7\xe3\x81\x99\xe6\xb3\xa3'
p1528
I105
sS'xd'
p1529
I104
sS'yourself'
p1530
I101
sS'fast'
p1531
I102
sS'spanish'
p1532
I100
sS'impossible'
p1533
I104
sS'sounds'
p1534
I101
sS'drove'
p1535
I105
sS'open'
p1536
I102
sS'tomorrow'
p1537
I66
sS'size'
p1538
I105
sS'rented'
p1539
I105
sS'city'
p1540
I105
sS'given'
p1541
I103
sS'uriel'
p1542
I105
sS'silent'
p1543
I104
sS'district'
p1544
I105
sS'caught'
p1545
I102
sS'slept'
p1546
I105
sS'anyone'
p1547
I76
sS'fml'
p1548
I105
sS'2'
p1549
I79
sS'chem'
p1550
I105
sS'alfred'
p1551
I105
sS'osamah*'
p1552
I105
sS'white'
p1553
I103
sS'lmao\xe2\x80\xa6'
p1554
I105
sS'williams'
p1555
I104
sS'gives'
p1556
I103
sS'benifits'
p1557
I105
sS'eyes'
p1558
I100
sS'hug'
p1559
I105
sS'motivated'
p1560
I105
sS'that'
p1561
I16
sS'season'
p1562
I99
sS'randle'
p1563
I105
sS"men's"
p1564
I105
sS'huh'
p1565
I104
sS'ulta'
p1566
I105
sS'boba'
p1567
I101
sS'hut'
p1568
I105
sS'cops'
p1569
I104
sS'dudes'
p1570
I104
sS'shock'
p1571
I105
sS'dessert'
p1572
I103
sS'uoeno'
p1573
I104
sS'copy'
p1574
I105
sS'than'
p1575
I84
sS"here's"
p1576
I104
sS'boyfriend'
p1577
I104
sS'11'
p1578
I104
sS'10'
p1579
I103
sS'ratchets'
p1580
I104
sS'12'
p1581
I103
sS'15'
p1582
I105
sS'lmao'
p1583
I66
sS'17'
p1584
I104
sS'16'
p1585
I103
sS'19'
p1586
I104
sS'fake\xe2\x80\x9d'
p1587
I105
sS'gotta'
p1588
I85
sS'caca'
p1589
I105
sS'real!\xe2\x9d\xa4\xef\xb8\x8f'
p1590
I105
sS'rehab'
p1591
I105
sS'r'
p1592
I104
sS'were'
p1593
I81
sS'asleep'
p1594
I104
sS'havnt'
p1595
I102
sS'shady'
p1596
I105
sS'and'
p1597
I7
sS'hairline'
p1598
I104
sS'san'
p1599
I104
sS'sam'
p1600
I104
sS'blunts'
p1601
I105
sS'correction'
p1602
I105
sS'hoes'
p1603
I103
sS'turned'
p1604
I105
sS'argument'
p1605
I103
sS'alley'
p1606
I105
sS'sad'
p1607
I101
sS'13th'
p1608
I104
sS'anu'
p1609
I105
sS'say'
p1610
I65
sS'comedian'
p1611
I105
sS"ma'm"
p1612
I105
sS'lurking'
p1613
I105
sS'amateur'
p1614
I105
sS'\xe8\xac\x9d\xe8\xac\x9d\xe3\x80\x82\xe5\x85\x83\xe6\x97\xa6\xef\xbc\x81\xe3\x81\xbb\xe3\x81\xa3\xe3\x81\x93\xe3\x82\x8a\xe9\x81\x8e\xe3\x81\x94\xe3\x81\x9b\xe3\x81\x9f\xe3\x80\x82\xe3\x81\xa7\xe3\x82\x82\xe3\x80\x81\xe6\x8a\xb9\xe8\x8c\xb6\xe5\xab\x8c\xe3\x81\x84\xe3\x82\x84\xe3\x81\xad\xe3\x82\x93\xe3\x81\xa6\xe3\x80\x82'
p1615
I105
sS'saw'
p1616
I100
sS'any'
p1617
I91
sS'kevin'
p1618
I104
sS'sat'
p1619
I105
sS'coach'
p1620
I105
sS'littrell'
p1621
I105
sS'inches'
p1622
I105
sS'homerun'
p1623
I105
sS'answering'
p1624
I105
sS'somethings'
p1625
I105
sS'undercover'
p1626
I105
sS'note'
p1627
I105
sS'omfg'
p1628
I105
sS'squad'
p1629
I98
sS'take'
p1630
I76
sS'online'
p1631
I105
sS'referees4)'
p1632
I105
sS'wanting'
p1633
I104
sS'99\xc2\xa2'
p1634
I104
sS'helurrrrr'
p1635
I105
sS'blunt'
p1636
I102
sS'switching'
p1637
I105
sS'channel'
p1638
I105
sS'surf'
p1639
I104
sS'*looks'
p1640
I105
sS'sure'
p1641
I88
sS'straightening'
p1642
I104
sS'\xd9\x85\xd8\xb3\xd8\xaa\xd9\x88\xd8\xaf\xd8\xb9'
p1643
I105
sS'opposite'
p1644
I104
sS'baseball...gundi>'
p1645
I105
sS'l&l'
p1646
I105
sS'knew'
p1647
I104
sS'perdieron'
p1648
I105
sS'sheets'
p1649
I105
sS'"how\'s'
p1650
I105
sS'\xe7\xac\x91'
p1651
I105
sS'pages'
p1652
I105
sS'icon'
p1653
I105
sS'michelle'
p1654
I105
sS'forever'
p1655
I101
sS'especially'
p1656
I105
sS'chick-fil-a)'
p1657
I105
sS'considered'
p1658
I105
sS'average'
p1659
I103
sS'later'
p1660
I100
sS'hungry'
p1661
I100
sS'mrs'
p1662
I104
sS'bitchy'
p1663
I105
sS'alone"'
p1664
I105
sS'sunset'
p1665
I105
sS'harlan'
p1666
I105
sS'clearing'
p1667
I105
sS'senior'
p1668
I105
sS'abraham'
p1669
I105
sS'7:30'
p1670
I105
sS'sagat'
p1671
I105
sS'shop'
p1672
I104
sS'"in'
p1673
I105
sS'torrance)'
p1674
I103
sS'playoffs'
p1675
I104
sS'cherry'
p1676
I105
sS'beckham'
p1677
I105
sS'show'
p1678
I96
sS'meatballs'
p1679
I105
sS'cheap'
p1680
I104
sS'hurt*\xe2\x80\x9d'
p1681
I105
sS'fifty'
p1682
I105
sS'discovered'
p1683
I105
sS'bright'
p1684
I103
sS'shoe'
p1685
I105
sS'30-40'
p1686
I105
sS'corner'
p1687
I105
sS'takin'
p1688
I105
sS'fifth'
p1689
I104
sS'realizing'
p1690
I105
sS'aint'
p1691
I100
sS'slow'
p1692
I102
sS'\xe2\x9c\x8b'
p1693
I104
sS'\xe2\x9c\x8a'
p1694
I105
sS'\xe2\x9c\x85'
p1695
I105
sS'dick'
p1696
I102
sS'enough'
p1697
I94
sS'crime'
p1698
I105
sS'only'
p1699
I79
sS'going'
p1700
I58
sS'black'
p1701
I97
sS'dreamed'
p1702
I105
sS'debating'
p1703
I105
sS'pumpkin'
p1704
I105
sS'fades'
p1705
I105
sS'bomb\xe2\x9d\xa4\xef\xb8\x8f\xe2\x9d\xa4\xef\xb8\x8f'
p1706
I105
sS'\xe2\x98\xba\xef\xb8\x8f\xe2\x80\x9d'
p1707
I105
sS'get'
p1708
I30
sS'yammed'
p1709
I105
sS'freezing'
p1710
I105
sS'truly'
p1711
I102
sS'cannot'
p1712
I105
sS"world's"
p1713
I105
sS'gee'
p1714
I105
sS'\xd8\xa7\xd9\x84\xd9\x84\xd9\x88\xd9\x83\xd9\x8a\xd8\xb4\xd9\x86'
p1715
I105
sS'gen'
p1716
I105
sS'gel'
p1717
I104
sS'ducking'
p1718
I105
sS'artist'
p1719
I105
sS'leather'
p1720
I105
sS'borrow'
p1721
I104
sS'morning'
p1722
I94
sS'naked'
p1723
I105
sS'jokes'
p1724
I104
sS'stupid'
p1725
I102
sS'kid.....but'
p1726
I105
sS"could've"
p1727
I104
sS'scott'
p1728
I105
sS'bought'
p1729
I105
sS'where'
p1730
I73
sS'worrying'
p1731
I105
sS'husband'
p1732
I105
sS"y'all"
p1733
I102
sS'medicated'
p1734
I104
sS'honesty'
p1735
I104
sS'grammys'
p1736
I105
sS'fe'
p1737
I105
sS'mom'
p1738
I80
sS"hasn't"
p1739
I105
sS'college'
p1740
I100
sS'anyways'
p1741
I102
sS'parking'
p1742
I103
sS'1928'
p1743
I105
sS'craaaazay'
p1744
I105
sS'calendar'
p1745
I105
sS'ruined'
p1746
I104
sS'roll...and'
p1747
I105
sS'wonder'
p1748
I101
sS'all."'
p1749
I105
sS'thecabin'
p1750
I105
sS'brave'
p1751
I105
sS'24/7'
p1752
I104
sS'now??"'
p1753
I105
sS'amen'
p1754
I103
sS'forecast'
p1755
I105
sS'cafe)'
p1756
I101
sS'3'
p1757
I95
sS'between'
p1758
I101
sS'it'
p1759
I15
sS'barging'
p1760
I105
sS'reading'
p1761
I104
sS'checks'
p1762
I105
sS'whipped'
p1763
I105
sS'bummed'
p1764
I105
sS'notice'
p1765
I105
sS'august'
p1766
I102
sS'parent'
p1767
I105
sS'shit.\xe2\x80\x9d'
p1768
I104
sS'comp'
p1769
I105
sS'loonies'
p1770
I105
sS'yumm'
p1771
I105
sS'killing'
p1772
I101
sS'blame'
p1773
I105
sS'jk'
p1774
I96
sS'scooters'
p1775
I105
sS'comb'
p1776
I104
sS'come'
p1777
I72
sS'reaction'
p1778
I105
sS'\xd8\xac\xd8\xaf\xd8\xa7'
p1779
I105
sS'talented'
p1780
I105
sS'moon"'
p1781
I105
sS'whatevers'
p1782
I105
sS'many'
p1783
I98
sS'trader'
p1784
I105
sS'quiet'
p1785
I104
sS'personal'
p1786
I105
sS's'
p1787
I104
sS'bbq'
p1788
I105
sS'it\xe2\x9d\xa4\xef\xb8\x8f\xe2\x9d\xa4\xef\xb8\x8f\xe2\x9d\xa4\xef\xb8\x8f'
p1789
I105
sS'"accidentally"'
p1790
I105
sS'yeeee'
p1791
I105
sS'improv'
p1792
I102
sS"can't"
p1793
I59
sS'duty'
p1794
I104
sS'fi'
p1795
I105
sS'\xe5\x8d\xb3\xe3\x81\xa1\xe3\x80\x81\xe3\x81\x8a\xe3\x81\xa3\xe3\x81\x95\xe3\x82\x93\xe3\x81\xaf\xe5\xb9\xb4\xe3\x81\xab\xe3\x81\xaf\xe5\x8b\x9d\xe3\x81\xa6\xe3\x82\x93\xe3\x80\x82'
p1796
I105
sS'pow'
p1797
I105
sS'hurts'
p1798
I98
sS'jeans'
p1799
I105
sS'period'
p1800
I103
sS'football'
p1801
I105
sS'depay'
p1802
I105
sS'coma'
p1803
I105
sS'twin'
p1804
I104
sS'shii'
p1805
I105
sS'stretched'
p1806
I105
sS"couldn't"
p1807
I100
sS'polo'
p1808
I105
sS'crew'
p1809
I105
sS'boat'
p1810
I105
sS'trolling'
p1811
I105
sS'stretch'
p1812
I105
sS'west'
p1813
I97
sS'\xe6\xad\x8c\xe8\xa9\x9e\xe3\x81\xaa\xe3\x82\x93\xe3\x81\x8b70\xe5\xb9\xb4\xe4\xbb\xa3\xe3\x81\xa3\xe3\x81\xbd\xe3\x81\x8f\xe3\x81\xa6\xe3\x80\x81\xe5\x88\x87\xe3\x81\xaa\xe3\x81\x95\xe5\x80\x8d\xe3\x80\x85\xe3\x81\x98\xe3\x82\x83\xe3\x82\x8d\xef\xbc\x9f\xe6\x98\xa0\xe5\x83\x8f\xe3\x82\x82\xe3\x81\xaa\xe3\x82\x93\xe3\x81\x8b\xe3\x83\x81\xe3\x83\xbc\xe3\x83\x97\xe3\x82\x84\xe3\x81\x97\xe3\x83\xbc'
p1814
I105
sS'vacation'
p1815
I104
sS'mark'
p1816
I104
sS'tropical'
p1817
I105
sS'sonya'
p1818
I105
sS'ragle'
p1819
I105
sS'judging'
p1820
I105
sS'sesh'
p1821
I101
sS'hardly'
p1822
I105
sS'mary'
p1823
I104
sS'wants'
p1824
I100
sS'marty'
p1825
I105
sS'lanes'
p1826
I105
sS'blessing'
p1827
I104
sS'andrew'
p1828
I105
sS'tiger'
p1829
I105
sS'dramatic'
p1830
I105
sS'wake'
p1831
I96
sS'textbook'
p1832
I105
sS'you!!\xe2\x9d\xa4\xef\xb8\x8f'
p1833
I104
sS'andrea'
p1834
I105
sS'argentina'
p1835
I105
sS'those'
p1836
I85
sS'^'
p1837
I103
sS'paying'
p1838
I104
sS'myself'
p1839
I99
sS'casa'
p1840
I105
sS'these'
p1841
I94
sS'worried'
p1842
I105
sS'cash'
p1843
I105
sS'\xd8\xaa\xd8\xb1\xd8\xac\xd8\xb9\xd9\x87\xd8\xa7'
p1844
I105
sS'ratchet'
p1845
I105
sS'hendrie'
p1846
I105
sS'situation'
p1847
I104
sS'\xe5\xb9\xb4\xe6\x9c\xab\xe3\x81\x8c\xe3\x81\xa4\xe3\x81\x84\xe3\x81\xa6\xe3\x81\xaa\xe3\x81\x84\xe4\xbb\xb6\xe3\x80\x82'
p1848
I105
sS'tsukemen'
p1849
I104
sS'invited'
p1850
I105
sS'coolest'
p1851
I105
sS'theo'
p1852
I105
sS'elgin'
p1853
I105
sS'alcoholic'
p1854
I105
sS'coffee'
p1855
I103
sS'sleeping'
p1856
I102
sS'refinery'
p1857
I105
sS'middle'
p1858
I104
sS'sudden'
p1859
I102
sS'[?]'
p1860
I105
sS'heels'
p1861
I105
sS"l's"
p1862
I105
sS'protein'
p1863
I105
sS'technology'
p1864
I105
sS'everyday'
p1865
I101
sS'worry'
p1866
I102
sS'different'
p1867
I101
sS'pat'
p1868
I105
sS'rooting'
p1869
I104
sS'pay'
p1870
I100
sS'smfh\xe2\x80\x9d'
p1871
I105
sS'10:30'
p1872
I105
sS'reminded'
p1873
I105
sS'bleezy'
p1874
I105
sS'same'
p1875
I87
sS'trip'
p1876
I103
sS'food'
p1877
I94
sS'followers'
p1878
I104
sS'weakness'
p1879
I105
sS'struggling'
p1880
I105
sS'emojis'
p1881
I105
sS'extravaganza'
p1882
I105
sS'thugs'
p1883
I105
sS'week'
p1884
I88
sS'favorited'
p1885
I103
sS'finish'
p1886
I101
sS'sickness'
p1887
I105
sS'alrighty'
p1888
I105
sS'ness'
p1889
I103
sS'mutha'
p1890
I105
sS'weed'
p1891
I102
sS'yutang)'
p1892
I105
sS'diversion'
p1893
I105
sS'fruit'
p1894
I105
sS'barber'
p1895
I105
sS'woulda'
p1896
I105
sS'dios'
p1897
I105
sS'changing'
p1898
I105
sS'totally'
p1899
I100
sS'mayra'
p1900
I105
sS'weave'
p1901
I105
sS'\xe2\x9c\x8c\xef\xb8\x8f'
p1902
I100
sS'relieve'
p1903
I105
sS'techs'
p1904
I105
sS'ramirez'
p1905
I105
sS'charger'
p1906
I104
sS'random'
p1907
I105
sS'floor'
p1908
I105
sS'yeetman'
p1909
I105
sS'knowin'
p1910
I105
sS'without'
p1911
I93
sS'pupusas'
p1912
I105
sS'comes'
p1913
I100
sS'market)'
p1914
I105
sS'pitbull'
p1915
I105
sS'model'
p1916
I104
sS'hubby'
p1917
I105
sS'tara'
p1918
I105
sS"you've"
p1919
I100
sS'taxi'
p1920
I105
sS'summer'
p1921
I90
sS'outdoor'
p1922
I104
sS'\xe2\x98\xba\xef\xb8\x8f'
p1923
I99
sS'vamo'
p1924
I105
sS'being'
p1925
I76
sS'money'
p1926
I86
sS'rest'
p1927
I103
sS'kill'
p1928
I100
sS'scrape'
p1929
I105
sS'slugger'
p1930
I105
sS'ounces'
p1931
I105
sS'touch'
p1932
I105
sS'speed'
p1933
I104
sS'blow'
p1934
I104
sS'tonys'
p1935
I105
sS'grounded'
p1936
I105
sS'thinking'
p1937
I95
sS'rose'
p1938
I105
sS"everyone's"
p1939
I104
sS'seems'
p1940
I102
sS'except'
p1941
I102
sS'it\xe2\x80\x99s'
p1942
I105
sS'feelya'
p1943
I105
sS'lets'
p1944
I99
sS'9:30'
p1945
I103
sS'bank'
p1946
I103
sS'visine'
p1947
I105
sS'tuesday'
p1948
I105
sS'\xe3\x81\x9d\xe3\x83\xbc\xe3\x81\xaa\xe3\x82\x93\xe3\x81\xa0\xe3\x83\xbc\xe3\x81\xaf\xe3\x82\x84\xe3\x81\x8fmajor\xe3\x81\xa0\xe3\x81\x91\xe5\x8b\x89\xe5\xbc\xb7\xe3\x81\x97\xe3\x81\x9f\xe3\x81\x84o(^\xe2\x96\xbd^)o'
p1949
I105
sS'real'
p1950
I83
sS'burped'
p1951
I105
sS'jake'
p1952
I104
sS'around'
p1953
I88
sS'kills'
p1954
I104
sS'read'
p1955
I99
sS'fridge'
p1956
I105
sS'gonna'
p1957
I61
sS'dark'
p1958
I103
sS'cruz/san'
p1959
I105
sS'traffic'
p1960
I105
sS'\xe2\x9d\xa4'
p1961
I103
sS'it.\xe2\x80\x9d'
p1962
I105
sS'world'
p1963
I95
sS'accepted'
p1964
I103
sS'lady'
p1965
I103
sS'negiyaki'
p1966
I105
sS'fridays*'
p1967
I105
sS'whatchu'
p1968
I105
sS'sobate'
p1969
I105
sS'pounds'
p1970
I105
sS'nt'
p1971
I105
sS'some\xe2\x80\xa6'
p1972
I105
sS'pole'
p1973
I105
sS'kooobbbbeeee'
p1974
I105
sS'csulb'
p1975
I105
sS'jesus\xe2\x80\xa6'
p1976
I105
sS'kula'
p1977
I82
sS'twelve'
p1978
I105
sS'learning'
p1979
I105
sS'grub'
p1980
I105
sS'doll'
p1981
I105
sS'hahhaha'
p1982
I104
sS'dole'
p1983
I104
sS';c'
p1984
I105
sS'eddie'
p1985
I104
sS'kings'
p1986
I103
sS'\xe4\xbb\x8a\xe6\x97\xa5\xe3\x81\x95\xe3\x81\xbc\xe3\x81\xa3\xe3\x81\xa1\xe3\x82\x83\xe3\x81\xa3\xe3\x81\x9f\xe6\xb3\xa3(\xef\xbd\xa5\xef\xbd\xa5;)'
p1987
I105
sS'thinks'
p1988
I103
sS'gross'
p1989
I104
sS'pikmin'
p1990
I105
sS'scholarships'
p1991
I104
sS'mood'
p1992
I102
sS'memories'
p1993
I103
sS'too!\xe2\x98\xba\xef\xb8\x8f'
p1994
I105
sS'mph'
p1995
I105
sS'filling'
p1996
I104
sS'stops'
p1997
I105
sS'moon'
p1998
I103
sS'6/14'
p1999
I105
sS'exit'
p2000
I105
sS'welcome'
p2001
I101
sS'\xe2\x9c\x88\xef\xb8\x8f'
p2002
I105
sS'power'
p2003
I102
sS'asap'
p2004
I101
sS'lmfao'
p2005
I97
sS'nails'
p2006
I104
sS'fitness'
p2007
I100
sS'baileys'
p2008
I105
sS'jidai-ya)'
p2009
I105
sS'\xe3\x81\x84\xe3\x81\xa4\xe3\x82\x82\xe3\x81\xae\xe3\x82\x88\xe3\x81\x86\xe3\x81\xab\xe3\x80\x8c\xe3\x81\x8d\xe3\x81\xa3\xe3\x81\x9f\xe3\x82\x93\xe3\x80\x8d\xe3\x81\xa3\xe3\x81\xa6\xe8\xa8\x80\xe3\x81\x8a\xe3\x81\x86\xe3\x82\x84w'
p2010
I105
sS'raul'
p2011
I105
sS';)'
p2012
I105
sS'throw'
p2013
I94
sS'earlier'
p2014
I104
sS'oo'
p2015
I105
sS'on'
p2016
I21
sS'stone'
p2017
I105
sS'ok'
p2018
I70
sS'ace'
p2019
I105
sS'oh'
p2020
I86
sS'of'
p2021
I14
sS'gumi'
p2022
I104
sS'favorite'
p2023
I98
sS'meal'
p2024
I104
sS'journey'
p2025
I105
sS'wolf'
p2026
I105
sS'stand'
p2027
I99
sS'pockets'
p2028
I104
sS'act'
p2029
I99
sS'luck'
p2030
I99
sS'os'
p2031
I105
sS'or'
p2032
I54
sS'road'
p2033
I104
sS'amber'
p2034
I101
sS'disinfectant'
p2035
I105
sS'burning'
p2036
I105
sS'communication'
p2037
I105
sS'\xe3\x81\x88\xe3\x80\x81\xe3\x81\x9d\xe3\x81\x86\xe3\x81\xaa\xe3\x81\xae\xef\xbc\x9f\xe8\x81\x9e\xe3\x81\x84\xe3\x81\xa6\xe3\x81\xaa\xe3\x81\x84\xe3\x82\x93\xe3\x81\xa0\xe3\x81\x91\xe3\x81\xa9'
p2038
I105
sS'\xe5\x93\x81\xe5\xb7\x9d\xe3\x83\xbc\xe3\x85\xa0'
p2039
I105
sS'blessed'
p2040
I104
sS'snapchat'
p2041
I99
sS'shiet'
p2042
I105
sS'leslie'
p2043
I105
sS'rising'
p2044
I105
sS'homeless'
p2045
I104
sS'(torrance'
p2046
I94
sS'elementary'
p2047
I105
sS'annoys'
p2048
I105
sS'fantasy'
p2049
I105
sS'your'
p2050
I29
sS'stare'
p2051
I105
sS'shower/put'
p2052
I105
sS"phone's"
p2053
I105
sS'her'
p2054
I69
sS'area'
p2055
I105
sS'assumed'
p2056
I105
sS'strictly'
p2057
I105
sS'there'
p2058
I68
sS'hey'
p2059
I93
sS'lol'
p2060
I13
sS'desert'
p2061
I105
sS'lmfaooo'
p2062
I104
sS'start'
p2063
I94
sS"how'd"
p2064
I105
sS'cats'
p2065
I105
sS'lions'
p2066
I105
sS'low'
p2067
I102
sS'lot'
p2068
I95
sS'dumping'
p2069
I105
sS'hen'
p2070
I105
sS'consists'
p2071
I105
sS'tight'
p2072
I105
sS'spicy'
p2073
I105
sS'rjs'
p2074
I105
sS'complete'
p2075
I105
sS'gaza'
p2076
I105
sS'lmaooo'
p2077
I105
sS'spider'
p2078
I105
sS'\xe3\x81\xa1f\xe3\x81\xa1i'
p2079
I105
sS'brain'
p2080
I105
sS'sushiii'
p2081
I105
sS'trying'
p2082
I86
sS'with'
p2083
I20
sS'belated'
p2084
I105
sS'longer'
p2085
I104
sS'swoll'
p2086
I105
sS"they're"
p2087
I98
sS'hire'
p2088
I105
sS'october'
p2089
I104
sS'applying'
p2090
I105
sS'joint'
p2091
I105
sS"wasn't"
p2092
I100
sS'swole'
p2093
I105
sS'1800'
p2094
I105
sS'fredde'
p2095
I105
sS'breath'
p2096
I105
sS'propanesell'
p2097
I105
sS'jamaican'
p2098
I105
sS'dirty'
p2099
I103
sS'stressin'
p2100
I105
sS'tia*'
p2101
I105
sS'\xe3\x81\xa8\xe3\x82\x8a\xe3\x81\x82\xe3\x81\x88\xe3\x81\x9a\xe3\x83\xa9\xe3\x83\xbc\xe3\x83\xa1\xe3\x83\xb3\xe3\x81\xaa\xe3\x81\x86\xe3\x80\x82'
p2102
I105
sS'agree'
p2103
I104
sS'gone'
p2104
I99
sS'ac'
p2105
I105
sS'ohh'
p2106
I103
sS'ad'
p2107
I104
sS'barking...\xe2\x80\x9d'
p2108
I105
sS'af'
p2109
I94
sS"sleep's"
p2110
I105
sS'ah'
p2111
I105
sS'stealing'
p2112
I105
sS'am'
p2113
I74
sS'mike'
p2114
I105
sS'deep'
p2115
I103
sS'an'
p2116
I79
sS'salen'
p2117
I104
sS'ap'
p2118
I103
sS'as'
p2119
I82
sS'at'
p2120
I21
sS'aw'
p2121
I103
sS'walks'
p2122
I104
sS'girlfriend'
p2123
I104
sS'watched'
p2124
I102
sS'moves'
p2125
I105
sS'nerd'
p2126
I105
sS'film'
p2127
I105
sS'cream'
p2128
I102
sS'again'
p2129
I80
sS"anahi's"
p2130
I105
sS'moonlight'
p2131
I105
sS'idiot'
p2132
I104
sS'deserve'
p2133
I103
sS'buludo'
p2134
I105
sS'green'
p2135
I105
sS'graduate'
p2136
I105
sS'roses'
p2137
I103
sS'summit'
p2138
I105
sS'5'
p2139
I98
sS'it*'
p2140
I105
sS'hmu'
p2141
I105
sS'you'
p2142
I5
sS'hardheaded'
p2143
I105
sS'fsu'
p2144
I105
sS'poor'
p2145
I99
sS'yakitori)'
p2146
I104
sS'gol'
p2147
I105
sS'gravesites'
p2148
I105
sS'teeth'
p2149
I104
sS'hawthorne'
p2150
I105
sS'walker'
p2151
I104
sS'important'
p2152
I105
sS'bullets'
p2153
I105
sS'gayest'
p2154
I105
sS"she's"
p2155
I98
sS'chris'
p2156
I102
sS'1-0'
p2157
I105
sS'finals'
p2158
I104
sS'pool'
p2159
I102
sS'psychology'
p2160
I105
sS'booked'
p2161
I105
sS'natalie'
p2162
I105
sS'srry'
p2163
I105
sS'someone.this'
p2164
I105
sS'calls'
p2165
I101
sS'wife'
p2166
I105
sS"life's"
p2167
I104
sS'mask'
p2168
I104
sS'natey'
p2169
I105
sS'vines'
p2170
I104
sS'hello'
p2171
I104
sS'\xe7\x84\xbc\xe3\x81\x8d\xe8\x8c\x84\xe5\xad\x90\xe3\x81\x8c\xef\xbc\x81\xef\xbc\x81\xe9\xa3\x9f\xe3\x81\xb9\xe3\x81\x9f\xe3\x81\x84\xef\xbc\x81\xef\xbc\x81'
p2172
I105
sS'sluts'
p2173
I105
sS'u'
p2174
I48
sS'adam'
p2175
I103
sS'oportunidades'
p2176
I105
sS'haired'
p2177
I105
sS'alright'
p2178
I91
sS'peeks'
p2179
I105
sS'songs'
p2180
I105
sS'starting'
p2181
I105
sS'all'
p2182
I36
sS'surrounded'
p2183
I105
sS'9/17'
p2184
I105
sS'forget'
p2185
I100
sS'messi'
p2186
I105
sS'tourn'
p2187
I105
sS'forbidden'
p2188
I105
sS'dollar'
p2189
I103
sS'worms'
p2190
I105
sS'month'
p2191
I102
sS'tongue?\xe2\x80\x9d'
p2192
I105
sS'received'
p2193
I105
sS'todaiiii'
p2194
I105
sS'concept'
p2195
I105
sS'ukrainian'
p2196
I105
sS'hme'
p2197
I105
sS'follow'
p2198
I102
sS'faster'
p2199
I105
sS'emily'
p2200
I105
sS'baaaad'
p2201
I105
sS'content'
p2202
I105
sS'glimpse'
p2203
I105
sS'apartment'
p2204
I105
sS'ron'
p2205
I105
sS'hunting'
p2206
I105
sS'ty'
p2207
I104
sS'imma'
p2208
I98
sS'tu'
p2209
I102
sS'tais'
p2210
I105
sS'thursday'
p2211
I103
sS'laughing'
p2212
I105
sS'to'
p2213
I3
sS'tail'
p2214
I105
sS'program'
p2215
I105
sS'tj'
p2216
I105
sS'irratating'
p2217
I105
sS'croquette'
p2218
I105
sS'tf'
p2219
I95
sS'smile'
p2220
I102
sS'enjoying'
p2221
I105
sS'america)'
p2222
I105
sS'sound'
p2223
I104
sS'fax'
p2224
I105
sS'woman'
p2225
I102
sS"they'll"
p2226
I105
sS'insults'
p2227
I105
sS'song'
p2228
I99
sS'very'
p2229
I95
sS'\xe2\x98\x9d'
p2230
I105
sS'\xe6\x97\xa9\xe3\x81\x84\xe3\x81\xa7\xe3\x81\x99\xe3\x82\x88\xe3\x81\xad\xe2\x9d\xa4\xef\xbc\x88\xe2\x89\xa7\xe2\x88\x87\xe2\x89\xa6\xef\xbc\x89\xe6\xa5\xbd\xe3\x81\x97\xe3\x81\xbf\xe3\x81\xa7\xe3\x81\x99\xe2\x9d\xa4\xe3\x81\x8a\xe3\x82\x93\xe3\x81\xab\xe3\x81\xae\xe3\x82\xad\xe3\x83\xbc\xe3\x83\x97\xe3\x81\x97\xe3\x81\xa8\xe3\x81\x8d\xe3\x81\xbe\xe3\x81\x99\xe2\x9d\xa4\xe7\xac\x91'
p2231
I105
sS'fav'
p2232
I103
sS'fat'
p2233
I102
sS'focus'
p2234
I104
sS'selfies'
p2235
I104
sS'fan'
p2236
I103
sS'bestie'
p2237
I104
sS'fam'
p2238
I98
sS'regret.\xe2\x80\x9d'
p2239
I105
sS'ticket'
p2240
I104
sS'ramen'
p2241
I100
sS'fag'
p2242
I104
sS'vern'
p2243
I104
sS'haterboy'
p2244
I105
sS'heaven'
p2245
I103
sS'washing'
p2246
I103
sS'mothers'
p2247
I105
sS'louis'
p2248
I105
sS'aunty'
p2249
I105
sS'unhappy'
p2250
I105
sS'\xe3\x81\x82\xe3\x81\x91\xe3\x81\xbe\xe3\x81\x97\xe3\x81\xa6\xe3\x81\x8a\xe3\x82\x81\xe3\x81\xa7\xe3\x81\xa8\xe3\x81\x86\xe3\x81\xa7\xe3\x81\x99\xe3\x80\x82\xe6\x97\xa5\xe6\x9c\xac\xe4\xba\xba\xe3\x81\xaf\xe7\xb4\xb0\xe3\x80\x85\xe3\x81\xa8\xe3\x82\x84\xe3\x81\xa3\xe3\x81\xa6\xe3\x82\x8b\xe3\x82\x88\xe3\x80\x81\xe4\xbb\x96\xe3\x81\xae\xe3\x82\xa2\xe3\x82\xb8\xe3\x82\xa2\xe4\xba\xba\xe3\x81\xa8\xe6\xaf\x94\xe3\x81\xb9\xe3\x82\x8b\xe3\x81\xa8\xe3\x80\x82'
p2251
I105
sS'\xe2\x98\xba\xef\xb8\x8f\xe2\x98\x80\xef\xb8\x8f'
p2252
I105
sS'reminding'
p2253
I104
sS'vibes'
p2254
I104
sS'skate'
p2255
I105
sS'harry'
p2256
I105
sS'small'
p2257
I102
sS'anal'
p2258
I105
sS'dodger'
p2259
I105
sS'sumwhere'
p2260
I105
sS"i'll"
p2261
I73
sS'dunk'
p2262
I105
sS'neighborhood'
p2263
I105
sS'ten'
p2264
I104
sS'jokin'
p2265
I105
sS'tea'
p2266
I103
sS'past'
p2267
I101
sS'design'
p2268
I105
sS'elco'
p2269
I105
sS'pass'
p2270
I104
sS'handles'
p2271
I105
sS'delivered'
p2272
I105
sS'ratch'
p2273
I105
sS'yw'
p2274
I105
sS'smiling-'
p2275
I105
sS'jesus'
p2276
I105
sS'what'
p2277
I43
sS'hesitation'
p2278
I105
sS'sub'
p2279
I105
sS'richard'
p2280
I105
sS'*feelings'
p2281
I105
sS'sun'
p2282
I105
sS'fucks'
p2283
I105
sS'emotions'
p2284
I105
sS'you."thanks'
p2285
I105
sS'booing'
p2286
I105
sS'sus'
p2287
I102
sS'sushification'
p2288
I105
sS'om-soba'
p2289
I105
sS'learned'
p2290
I103
sS'racing'
p2291
I105
sS'public'
p2292
I104
sS'vamos'
p2293
I104
sS'full'
p2294
I102
sS'christian'
p2295
I104
sS"c'mon"
p2296
I102
sS'sunday?\xe2\x9a\xbd\xef\xb8\x8f'
p2297
I105
sS'supposedly'
p2298
I105
sS'minuets'
p2299
I105
sS'forgive'
p2300
I104
sS'hours'
p2301
I98
sS'school?"'
p2302
I105
sS"bynum's"
p2303
I105
sS'righty'
p2304
I105
sS'depend'
p2305
I105
sS'witcho'
p2306
I104
sS'strong'
p2307
I102
sS'yaaaaaa'
p2308
I105
sS'shoulda'
p2309
I104
sS'fatter'
p2310
I105
sS'misinterpret'
p2311
I105
sS'cock'
p2312
I105
sS'inspired'
p2313
I105
sS'evil'
p2314
I105
sS'airport'
p2315
I105
sS'gangsta'
p2316
I105
sS'milkshake'
p2317
I105
sS'fwy'
p2318
I105
sS'90$'
p2319
I105
sS'pick'
p2320
I101
sS'ana'
p2321
I105
sS"would've"
p2322
I104
sS'disneyland'
p2323
I99
sS'vic'
p2324
I105
sS'via'
p2325
I104
sS'followed'
p2326
I105
sS'family'
p2327
I94
sS'ive'
p2328
I105
sS'transit'
p2329
I105
sS'clique'
p2330
I105
sS'vin'
p2331
I103
sS'put'
p2332
I92
sS'semester'
p2333
I104
sS'know"'
p2334
I105
sS'toys'
p2335
I105
sS'gosh'
p2336
I105
sS'"son'
p2337
I105
sS'silva'
p2338
I105
sS'eye'
p2339
I104
sS'twd'
p2340
I105
sS'answered'
p2341
I105
sS'texting'
p2342
I101
sS'two'
p2343
I97
sS'conceded'
p2344
I105
sS'mine\xe2\x80\x9d'
p2345
I105
sS'soundcloud'
p2346
I105
sS'ihy2'
p2347
I105
sS'6'
p2348
I99
sS'taken'
p2349
I105
sS'6am"'
p2350
I105
sS'more'
p2351
I62
sS'teen'
p2352
I105
sS'tryna'
p2353
I96
sS'door'
p2354
I105
sS'knows'
p2355
I103
sS'\xd9\x84\xd8\xa3\xd9\x86\xd9\x87\xd9\x85'
p2356
I105
sS'brisk'
p2357
I101
sS'mixtape'
p2358
I105
sS'excuse'
p2359
I105
sS"ain't"
p2360
I93
sS'encouragement'
p2361
I105
sS'broke'
p2362
I100
sS'particular'
p2363
I105
sS'me>>>'
p2364
I105
sS'nbc'
p2365
I105
sS'hurry'
p2366
I105
sS'karaoke'
p2367
I104
sS'glad'
p2368
I100
sS'town'
p2369
I104
sS'grill'
p2370
I105
sS'none'
p2371
I102
sS'drank'
p2372
I105
sS'hour'
p2373
I102
sS'cooler'
p2374
I105
sS'sucks'
p2375
I103
sS'remain'
p2376
I105
sS'yunosuke'
p2377
I105
sS'del'
p2378
I103
sS'learn'
p2379
I99
sS'knocked'
p2380
I105
sS'spontaneous'
p2381
I105
sS'def'
p2382
I97
sS'avi'
p2383
I105
sS'beautiful'
p2384
I99
sS'pushes'
p2385
I105
sS'share'
p2386
I104
sS'accept'
p2387
I105
sS'pushed'
p2388
I105
sS'fiercely'
p2389
I105
sS'salty'
p2390
I104
sS'\xe9\xa0\xad\xe3\x81\x8a\xe3\x81\x8b\xe3\x81\x97\xe3\x81\x84\xe3\x82\x84\xe3\x82\x8d'
p2391
I105
sS'sense'
p2392
I103
sS'station'
p2393
I104
sS'steward'
p2394
I105
sS'dress'
p2395
I103
sS'garden'
p2396
I105
sS'unappreciated'
p2397
I105
sS'huge'
p2398
I102
sS'needs'
p2399
I102
sS'goal'
p2400
I102
sS'awkward'
p2401
I105
sS'rather'
p2402
I102
sS'breaking'
p2403
I102
sS'stayed'
p2404
I105
sS'fame'
p2405
I105
sS'needa'
p2406
I105
sS'lam'
p2407
I105
sS'boooo'
p2408
I105
sS'punked'
p2409
I105
sS'stix'
p2410
I105
sS'hugs'
p2411
I102
sS'okay'
p2412
I95
sS'plans'
p2413
I104
sS'rude'
p2414
I103
sS't)\xe3\x83\x9e\xe3\x83\x9e\xe3\x81\xbe\xe3\x81\x98\xe9\x87\x8d\xe8\xa6\x81\xe2\x9d\xa4\xe2\x9d\xa4\xe3\x81\x8a\xe3\x81\xa8\xe3\x81\xa8\xe3\x81\x84\xe3\x83\x99\xe3\x83\x93\xe3\x83\xbc\xe3\x82\xb7\xe3\x83\x83\xe3\x82\xbf\xe3\x83\xbc\xe3\x81\x97\xe3\x81\x9f\xe3\x81\x91\xe3\x81\xa9\xe3\x80\x81\xe3\x83\x9e\xe3\x83\x9e\xe3\x81\x84\xe3\x81\xaa\xe3\x81\x84\xe3\x81\xa8\xe5\xa4\xa7\xe5\xa4\x89\xe7\xac\x91'
p2415
I105
sS'advice'
p2416
I104
sS'\xe3\x81\x8a\xe3\x81\x84\xe3\x81\x97\xe3\x81\x8b\xe3\x81\xa3\xe3\x81\x9f\xe3\x82\x88^'
p2417
I105
sS'questioning'
p2418
I105
sS'seconds\xe2\x80\x9d'
p2419
I104
sS'replace'
p2420
I105
sS'fb'
p2421
I105
sS'fc'
p2422
I105
sS'jajaja'
p2423
I104
sS'coming'
p2424
I100
sS'backyard'
p2425
I105
sS'rudy'
p2426
I105
sS'choice'
p2427
I103
sS'fl'
p2428
I105
sS'fo'
p2429
I105
sS'a'
p2430
I8
sS'dorms'
p2431
I105
sS'short'
p2432
I105
sS'\xd8\xb9\xd9\x84\xd9\x89'
p2433
I104
sS"that'd"
p2434
I105
sS'onto'
p2435
I105
sS'memoriam"'
p2436
I105
sS'sellin'
p2437
I105
sS'seconds'
p2438
I105
sS'eats'
p2439
I105
sS'anytime'
p2440
I101
sS'slacking'
p2441
I105
sS'daaaaaadddd'
p2442
I105
sS'shore'
p2443
I105
sS"bae's"
p2444
I105
sS'roommates'
p2445
I104
sS'shade'
p2446
I105
sS'media'
p2447
I105
sS'pleasure'
p2448
I105
sS'dream'
p2449
I102
sS'playing'
p2450
I91
sS"that's"
p2451
I65
sS'replied'
p2452
I105
sS'mexican'
p2453
I104
sS'help'
p2454
I93
sS"don't"
p2455
I28
sS'september'
p2456
I104
sS'holllaaaa'
p2457
I105
sS'sooo'
p2458
I103
sS'soon'
p2459
I97
sS'kula\xe2\x80\xa6'
p2460
I105
sS'attitude'
p2461
I105
sS'paper'
p2462
I102
sS'through'
p2463
I90
sS'west-atmosphere'
p2464
I105
sS'hell'
p2465
I98
sS'smiling'
p2466
I105
sS'cheated'
p2467
I105
sS'avenue'
p2468
I102
sS'its'
p2469
I95
sS'refs'
p2470
I105
sS'ashtray'
p2471
I105
sS'24'
p2472
I104
sS'messed'
p2473
I99
sS'20'
p2474
I104
sS'okonomiyaki'
p2475
I104
sS'pray'
p2476
I103
sS'fined'
p2477
I104
sS'sarena'
p2478
I105
sS'28'
p2479
I104
sS'actually'
p2480
I90
sS'late'
p2481
I99
sS'>>>'
p2482
I105
sS'ruining'
p2483
I105
sS'bout'
p2484
I96
sS'soccer'
p2485
I94
sS'might'
p2486
I96
sS"haven't"
p2487
I91
sS'fool'
p2488
I99
sS'hurting'
p2489
I99
sS'good'
p2490
I42
sS'somebody'
p2491
I103
sS'yo'
p2492
I94
sS'ya'
p2493
I94
sS'yeahhh'
p2494
I105
sS'\xe2\x98\x94\xef\xb8\x8f'
p2495
I104
sS'detour'
p2496
I105
sS'ralphs'
p2497
I104
sS'speechless'
p2498
I105
sS'choppa'
p2499
I105
sS'starbucks'
p2500
I104
sS'foot'
p2501
I103
sS'losing2)'
p2502
I105
sS'yr'
p2503
I105
sS'bigger'
p2504
I102
sS'sucked'
p2505
I105
sS'easily'
p2506
I104
sS'bwee'
p2507
I105
sS'grubbin'
p2508
I104
sS'everytime'
p2509
I104
sS'always'
p2510
I77
sS'level'
p2511
I105
sS'drake'
p2512
I102
sS'm\xc3\xa1s'
p2513
I105
sS'asparagus'
p2514
I105
sS'someone'
p2515
I86
sS'stopped'
p2516
I105
sS'turns'
p2517
I105
sS'found'
p2518
I100
sS'15-30'
p2519
I105
sS'friendship'
p2520
I105
sS"isn't"
p2521
I99
sS'alec'
p2522
I105
sS'reactions'
p2523
I105
sS'harm'
p2524
I105
sS'everyone'
p2525
I93
sS'england'
p2526
I104
sS'shelfie'
p2527
I105
sS'weight'
p2528
I105
sS'house'
p2529
I85
sS'energy'
p2530
I105
sS'hard'
p2531
I94
sS'\xe4\xbd\x95\xe3\x82\x82\xe3\x81\x8b\xe3\x82\x82\xe3\x81\x8c\xe9\x9d\xa2\xe5\x80\x92\xe3\x81\xaa\xe6\x99\x82\xe6\x9c\x9f\xe3\x81\xa0\xe6\xb3\xa3'
p2532
I105
sS'idea'
p2533
I102
sS"they've"
p2534
I104
sS'\xe2\x98\xba\xef\xb8\x8f\xe2\x98\xba\xef\xb8\x8f\xe2\x98\xba\xef\xb8\x8f'
p2535
I105
sS'expect'
p2536
I104
sS'fantabulous'
p2537
I105
sS'bath'
p2538
I105
sS'hart'
p2539
I104
sS'insurance'
p2540
I104
sS'really'
p2541
I53
sS'd...."'
p2542
I105
sS'practically'
p2543
I105
sS'prolly'
p2544
I102
sS'missed'
p2545
I100
sS'join'
p2546
I105
sS'<<<'
p2547
I105
sS'm1/m2'
p2548
I105
sS'childish'
p2549
I105
sS'since'
p2550
I99
sS'shoppin'
p2551
I105
sS'dugout'
p2552
I105
sS'research'
p2553
I103
sS'acting'
p2554
I104
sS'yard'
p2555
I105
sS'perro'
p2556
I105
sS'7'
p2557
I103
sS'paradise'
p2558
I104
sS'print'
p2559
I105
sS'pre-workout'
p2560
I105
sS'applications'
p2561
I105
sS'ass'
p2562
I74
sS'\xe3\x81\x90\xe3\x81\xa3\xe3\x81\x95\xe3\x82\x93\xe3\x81\x8c\xe3\x82\x84\xe3\x82\x8b\xe3\x80\x81\xe8\x8b\xb1\xe8\xaa\x9e\xe3\x81\xbf\xe3\x81\x9f\xe3\x81\x84\xe3\x81\xab\xe5\x96\x8b\xe3\x82\x8b\xe3\x83\x8d\xe3\x82\xbf\xe3\x80\x81\xe3\x82\xaa\xe3\x83\xac\xe3\x81\xae\xe6\x96\xb9\xe3\x81\x8c\xe4\xb8\x8a\xe6\x89\x8b\xe3\x81\x84\xe3\x81\xa8\xe3\x81\x84\xe3\x81\x86\xe7\x8f\xbe\xe8\xb1\xa1\xe3\x80\x82'
p2563
I105
sS'asp'
p2564
I105
sS'ayla'
p2565
I105
sS'sawyer'
p2566
I105
sS'friday'
p2567
I101
sS'motherfucker'
p2568
I103
sS'terminalo'
p2569
I105
sS'drives'
p2570
I105
sS'mmm'
p2571
I104
sS'reason'
p2572
I96
sS'asf'
p2573
I100
sS'imagine'
p2574
I101
sS'ask'
p2575
I94
sS'mothafucka'
p2576
I105
sS'teach'
p2577
I103
sS'beginning'
p2578
I105
sS'lag'
p2579
I105
sS'definition'
p2580
I105
sS'faucet'
p2581
I105
sS'benefits'
p2582
I105
sS'datshowirowl\xe2\x80\xa6'
p2583
I105
sS'finland'
p2584
I105
sS'terrible'
p2585
I104
sS'cheering'
p2586
I105
sS'views>>>'
p2587
I105
sS'expecting'
p2588
I105
sS'w'
p2589
I101
sS'holguin'
p2590
I105
sS'snowboarding'
p2591
I105
sS'pilots'
p2592
I105
sS'throws'
p2593
I105
sS'dequans'
p2594
I105
sS'\xc2\xaf\\_(\xe3\x83\x84)_/\xc2\xaf'
p2595
I101
sS'comfy~'
p2596
I105
sS'to>>>'
p2597
I105
sS'dont'
p2598
I97
sS'mish'
p2599
I105
sS'feel'
p2600
I82
sS'number'
p2601
I103
sS'fancy'
p2602
I105
sS'shounen'
p2603
I105
sS'fucked'
p2604
I94
sS'mahou'
p2605
I105
sS'done'
p2606
I81
sS'colombia'
p2607
I102
sS'ramidon13'
p2608
I105
sS'fuxkin'
p2609
I105
sS'miss'
p2610
I87
sS'63753'
p2611
I105
sS'story'
p2612
I102
sS'"'
p2613
I105
sS'heads'
p2614
I105
sS'jet'
p2615
I104
sS'rookies'
p2616
I105
sS'tate'
p2617
I102
sS'arlington'
p2618
I105
sS'5th'
p2619
I105
sS"s'posed"
p2620
I105
sS'yooouuu'
p2621
I105
sS'least'
p2622
I103
sS'paint'
p2623
I105
sS'wonderful'
p2624
I103
sS'pains'
p2625
I104
sS'woohooo'
p2626
I104
sS'mama'
p2627
I105
sS'compromise'
p2628
I105
sS'syrup'
p2629
I104
sS'banana'
p2630
I105
sS'store'
p2631
I104
sS'headache'
p2632
I104
sS'energized'
p2633
I105
sS'favs'
p2634
I105
sS'passed'
p2635
I105
sS'relationship'
p2636
I105
sS'behind'
p2637
I104
sS'hotel'
p2638
I105
sS'park'
p2639
I99
sS"i'ma"
p2640
I105
sS'\xe5\xbe\x85\xe3\x81\xa4\xe3\x81\xae\xe3\x81\x8c\xe3\x82\xad\xe3\x83\xa9\xe3\x82\xa4\xe3\x81\xa7\xe3\x81\x99\xe3\x80\x82'
p2641
I105
sS'part'
p2642
I100
sS'differentiate'
p2643
I105
sS'northbound'
p2644
I105
sS'off'
p2645
I80
sS'$4'
p2646
I104
sS'believe'
p2647
I96
sS'$2'
p2648
I105
sS'shld'
p2649
I103
sS'center'
p2650
I105
sS'king'
p2651
I102
sS'kind'
p2652
I101
sS'john'
p2653
I104
sS'compliments'
p2654
I105
sS'\xe5\x85\x88\xe9\x80\xb1\xe3\x82\x81\xe3\x81\xa1\xe3\x82\x83\xe5\xaf\x92\xe3\x81\x8b\xe3\x81\xa3\xe3\x81\xa6\xe3\x82\x93\xe3\x80\x82\xe4\xb8\x80\xe6\x98\xa8\xe6\x97\xa5\xe3\x81\x90\xe3\x82\x89\xe3\x81\x84\xe3\x81\x8b\xe3\x82\x89\xe6\x9a\x91\xe3\x81\x84\xe3\x82\x93\xe3\x81\xa7\xe3\x81\x99\xe3\x81\x91\xe3\x81\xa9\xe3\x81\xaa\xe3\x81\xab\xe3\x81\x8b\xef\xbc\x9f'
p2655
I105
sS'gotten'
p2656
I104
sS'mcfly'
p2657
I105
sS'sto'
p2658
I105
sS'boyzzzz'
p2659
I105
sS'dogs'
p2660
I105
sS'recording'
p2661
I105
sS'lunch!sci-arc'
p2662
I105
sS'determined'
p2663
I104
sS'supposed'
p2664
I105
sS"ex's"
p2665
I105
sS'dang'
p2666
I105
sS'dane'
p2667
I105
sS'8:30'
p2668
I105
sS'ousted'
p2669
I105
sS'remembers'
p2670
I105
sS'shirts'
p2671
I105
sS'arsenal'
p2672
I105
sS'outta'
p2673
I102
sS'party~\xe2\x9d\xa4'
p2674
I105
sS'kart'
p2675
I105
sS'seth'
p2676
I105
sS'plead'
p2677
I105
sS'\xe5\xa4\x9c\xe3\x81\xab\xe3\x81\xaa\xe3\x82\x8b\xe3\x81\xa8\xe3\x81\x82\xe3\x81\x8d\xe3\x82\x83\xe3\x82\x93\xe3\x82\x8f\xe3\x80\x82'
p2678
I105
sS'randomly'
p2679
I104
sS'juice'
p2680
I103
sS'murder'
p2681
I105
sS'kari'
p2682
I105
sS'jasir'
p2683
I105
sS'sell'
p2684
I105
sS'lie'
p2685
I97
sS'speaking'
p2686
I104
sS'built'
p2687
I105
sS'shelby'
p2688
I104
sS'lil'
p2689
I96
sS'honay'
p2690
I105
sS'self'
p2691
I105
sS'beeetch'
p2692
I105
sS'lit'
p2693
I104
sS'also'
p2694
I102
sS'drone'
p2695
I105
sS'sandwiches'
p2696
I105
sS'aub'
p2697
I105
sS'finding'
p2698
I105
sS'fatherly'
p2699
I105
sS'eff'
p2700
I104
sS'failing'
p2701
I105
sS'play'
p2702
I80
sS'towards'
p2703
I105
sS'bottle'
p2704
I105
sS'needle'
p2705
I105
sS'quote'
p2706
I103
sS'12:51'
p2707
I105
sS'most'
p2708
I97
sS'75'
p2709
I105
sS'poke'
p2710
I105
sS'plan'
p2711
I104
sS'interrupting'
p2712
I105
sS'70'
p2713
I105
sS'nothing'
p2714
I99
sS'kobata'
p2715
I103
sS'ashlard'
p2716
I104
sS'pozole'
p2717
I105
sS'track'
p2718
I105
sS'grams'
p2719
I104
sS'spinach'
p2720
I105
sS'mobile'
p2721
I105
sS'78\xe6\x89\x8d\xe2\x9d\xa4\xe3\x81\x82\xe3\x81\x9a\xe3\x81\xa3\xe3\x81\xa1\xe3\x81\xaf\xef\xbc\x9f'
p2722
I105
sS'clear'
p2723
I104
sS'sometimes'
p2724
I99
sS'cleat'
p2725
I105
sS'drawing'
p2726
I105
sS'keliiii'
p2727
I105
sS'(18605'
p2728
I105
sS'\xe2\x98\x80\xef\xb8\x8f'
p2729
I105
sS'scholarship'
p2730
I104
sS'shoutout'
p2731
I105
sS'thomas'
p2732
I105
sS'ugh'
p2733
I92
sS'gold'
p2734
I104
sS'25-27'
p2735
I105
sS"date's"
p2736
I105
sS'dicaprio'
p2737
I105
sS'mittens?\xe2\x80\x9d'
p2738
I105
sS'osamah'
p2739
I105
sS'stfu'
p2740
I103
sS'session'
p2741
I105
sS'hyped'
p2742
I105
sS'carefully'
p2743
I105
sS'se'
p2744
I105
sS'\xd8\xa7\xd9\x84\xd8\xab\xd9\x88\xd8\xb1\xd8\xa7\xd8\xaa'
p2745
I105
sS'kaishakunin86'
p2746
I105
sS'fine'
p2747
I104
sS'find'
p2748
I90
sS'murata'
p2749
I105
sS'faces'
p2750
I105
sS'"too'
p2751
I105
sS'giant'
p2752
I105
sS'hate:1)'
p2753
I105
sS'restaurant)'
p2754
I105
sS'nervous'
p2755
I103
sS'sharing'
p2756
I105
sS"amy's"
p2757
I105
sS"5'10.5"
p2758
I104
sS'\xd8\xba\xd9\x8a\xd8\xb1'
p2759
I105
sS'idiots'
p2760
I105
sS'\xe7\xa7\x81\xe3\x82\x82\xe3\x82\xb7\xe3\x83\xab\xe3\x83\x90\xe3\x83\xbc\xe3\x81\x97\xe3\x81\xbe\xe3\x81\x97\xe3\x81\x9f\xe2\x9d\xa4\xe6\x9d\xa5\xe9\x80\xb1\xe3\x81\xa8\xe3\x81\xa9\xe3\x81\x8d\xe3\x81\xbe\xe3\x81\x99\xe2\x9d\xa4\xef\xbc\x88\xe2\x89\xa7\xe2\x88\x87\xe2\x89\xa6\xef\xbc\x89'
p2761
I105
sS'pretty'
p2762
I88
sS'california)'
p2763
I105
sS'8'
p2764
I97
sS'circle'
p2765
I105
sS'hip'
p2766
I100
sS'begins'
p2767
I105
sS'his'
p2768
I85
sS'hit'
p2769
I93
sS'beyonc\xc3\xa9'
p2770
I105
sS'(click)or'
p2771
I105
sS'bambino'
p2772
I105
sS'sunny'
p2773
I105
sS'grocery'
p2774
I105
sS'whistle'
p2775
I105
sS'feels'
p2776
I101
sS'whettt'
p2777
I105
sS'longest'
p2778
I105
sS'international'
p2779
I105
sS'during'
p2780
I105
sS'"japanese'
p2781
I105
sS'silk'
p2782
I105
sS'him'
p2783
I91
sS'chick'
p2784
I105
sS'herb'
p2785
I105
sS'rft'
p2786
I105
sS'frickin'
p2787
I104
sS'guenser'
p2788
I104
sS'cry'
p2789
I102
sS'bothering'
p2790
I105
sS'ahhhhh'
p2791
I105
sS'thots'
p2792
I105
sS'taaadaaaaadaaaadaaaaaa'
p2793
I105
sS'clocks'
p2794
I105
sS'diggin'
p2795
I105
sS'double'
p2796
I105
sS'x'
p2797
I105
sS'rear'
p2798
I105
sS'tourney'
p2799
I105
sS'californian'
p2800
I105
sS'set'
p2801
I104
sS'art'
p2802
I105
sS'ser'
p2803
I104
sS'gawd'
p2804
I105
sS'carpool'
p2805
I105
sS'vine'
p2806
I105
sS'deeky'
p2807
I104
sS'culture'
p2808
I105
sS'see'
p2809
I63
sS'defense'
p2810
I104
sS'dumb'
p2811
I100
sS'are'
p2812
I32
sS'sea'
p2813
I105
sS"sadie's"
p2814
I105
sS'close'
p2815
I101
sS'retweet'
p2816
I102
sS'-the'
p2817
I105
sS'shower'
p2818
I105
sS'movin'
p2819
I105
sS'threats'
p2820
I105
sS'pokemon'
p2821
I104
sS'movie'
p2822
I99
sS'wow'
p2823
I94
sS'please'
p2824
I92
sS'powerhouse'
p2825
I105
sS'case'
p2826
I105
sS'fans'
p2827
I103
sS'won'
p2828
I105
sS"teri's"
p2829
I105
sS'bruuuuh'
p2830
I105
sS'probably'
p2831
I96
sS'burned'
p2832
I104
sS'schleep'
p2833
I105
sS'nope'
p2834
I105
sS'steelers'
p2835
I105
sS'knowing'
p2836
I104
sS'ikr'
p2837
I105
sS'latin'
p2838
I105
sS'recently'
p2839
I103
sS'responses'
p2840
I105
sS'pisses'
p2841
I105
sS'sold'
p2842
I104
sS'attention'
p2843
I103
sS'generous'
p2844
I105
sS'offering'
p2845
I105
sS'spray'
p2846
I104
sS'succeed'
p2847
I105
sS"jacob's"
p2848
I105
sS'bar)'
p2849
I105
sS'manu'
p2850
I105
sS'pissed'
p2851
I104
sS'official'
p2852
I105
sS'both'
p2853
I97
sS'c'
p2854
I101
sS'ecuador'
p2855
I105
sS'last'
p2856
I76
sS'\xd8\xac\xd8\xa8\xd9\x86\xd8\xa7'
p2857
I105
sS'restaurant'
p2858
I102
sS'thot'
p2859
I105
sS"wouldn't"
p2860
I99
sS'barely'
p2861
I104
sS'event'
p2862
I105
sS'mangos'
p2863
I105
sS'became'
p2864
I105
sS'annie'
p2865
I105
sS'bond'
p2866
I105
sS'whole'
p2867
I92
sS'healing'
p2868
I105
sS'monday'
p2869
I105
sS'liked'
p2870
I105
sS'\xe2\x98\xba'
p2871
I102
sS'drunk'
p2872
I102
sS'simple'
p2873
I103
sS'sweet'
p2874
I102
sS"ware's"
p2875
I105
sS'whatever'
p2876
I101
sS'rppatts'
p2877
I105
sS'simply'
p2878
I104
sS'likes'
p2879
I105
sS'church'
p2880
I103
sS'intelligence.\xe2\x80\x9d'
p2881
I105
sS'volunteered'
p2882
I105
sS'bench'
p2883
I105
sS'mission'
p2884
I105
sS'busters'
p2885
I105
sS'belt'
p2886
I104
sS'duh'
p2887
I102
sS'devil'
p2888
I103
sS'pv'
p2889
I105
sS'handthen'
p2890
I105
sS'pt'
p2891
I104
sS'guti'
p2892
I105
sS'swa'
p2893
I105
sS'tgif'
p2894
I105
sS'panera'
p2895
I102
sS'homies\xe2\x80\x9d'
p2896
I105
sS'teacher'
p2897
I105
sS'hitting'
p2898
I103
sS'rattle'
p2899
I105
sS'whoo'
p2900
I104
sS'damn'
p2901
I76
sS'tomlinson'
p2902
I105
sS'mina'
p2903
I105
sS'ahhhh'
p2904
I105
sS'mindset'
p2905
I105
sS'chandler'
p2906
I105
sS'woke'
p2907
I103
sS'4'
p2908
I96
sS'box'
p2909
I105
sS'flight'
p2910
I105
sS'gay'
p2911
I95
sS'sending'
p2912
I105
sS'fire'
p2913
I103
sS"what's"
p2914
I90
sS'gas'
p2915
I102
sS'39'
p2916
I105
sS'else'
p2917
I103
sS'anthony'
p2918
I104
sS'59075'
p2919
I105
sS'awake'
p2920
I102
sS'schway'
p2921
I105
sS'prices'
p2922
I105
sS'tug-of-war'
p2923
I105
sS'rocking'
p2924
I104
sS'presented'
p2925
I105
sS'kuya'
p2926
I105
sS'flashing'
p2927
I105
sS'funk'
p2928
I105
sS'toga'
p2929
I105
sS'muhfuckers'
p2930
I105
sS'rogan'
p2931
I105
sS'look'
p2932
I87
sS'fuq'
p2933
I105
sS'frozen'
p2934
I105
sS'pickup'
p2935
I105
sS'straight'
p2936
I103
sS'bill'
p2937
I103
sS'convo'
p2938
I103
sS'governor'
p2939
I105
sS'slurpees'
p2940
I105
sS'while'
p2941
I101
sS'replaced'
p2942
I105
sS'kick'
p2943
I101
sS'sickass'
p2944
I105
sS'shift'
p2945
I105
sS'fun'
p2946
I89
sS'drs'
p2947
I105
sS'ross'
p2948
I105
sS'robin'
p2949
I105
sS'pack'
p2950
I104
sS'kingdom'
p2951
I104
sS'tall'
p2952
I105
sS'hoping'
p2953
I103
sS'f*****'
p2954
I105
sS'cents'
p2955
I105
sS'guilty'
p2956
I105
sS'munchies'
p2957
I105
sS'rip'
p2958
I104
sS'demos'
p2959
I105
sS'itself'
p2960
I104
sS'ready'
p2961
I103
sS'stover'
p2962
I105
sS'rid'
p2963
I104
sS'*armpump'
p2964
I105
sS'audi'
p2965
I104
sS'funny'
p2966
I93
sS'jidai-ya'
p2967
I104
sS'shirt'
p2968
I105
sS'anymore'
p2969
I101
sS'belong'
p2970
I105
sS'tells'
p2971
I105
sS'delicious'
p2972
I105
sS'\xd9\x83\xd9\x85\xd8\xab\xd9\x84'
p2973
I105
sS'copying'
p2974
I105
sS'grand'
p2975
I104
sS'9'
p2976
I100
sS'eww'
p2977
I105
sS'failure'
p2978
I105
sS'used'
p2979
I103
sS'fatty'
p2980
I105
sS'snail'
p2981
I105
sS'paths'
p2982
I105
sS'keys'
p2983
I104
sS'assignment'
p2984
I104
sS'yesterday'
p2985
I102
sS'backstreet'
p2986
I105
sS'alert'
p2987
I104
sS'moment'
p2988
I105
sS'levels'
p2989
I103
sS'moving'
p2990
I104
sS'cleaning'
p2991
I105
sS'parfait'
p2992
I105
sS'bob'
p2993
I102
sS'wheres'
p2994
I105
sS'ziplock'
p2995
I105
sS'early'
p2996
I105
sS'beanie'
p2997
I105
sS'noodle'
p2998
I92
sS'picky'
p2999
I105
sS'ampm'
p3000
I105
sS'kelli'
p3001
I105
sS"dad's"
p3002
I105
sS'5:30lmk'
p3003
I105
sS'spent'
p3004
I102
sS'lie.\xe2\x80\x9d'
p3005
I105
sS'grind'
p3006
I104
sS'person'
p3007
I98
sS'cheer'
p3008
I105
sS'inspirational'
p3009
I104
sS'shhtoge'
p3010
I105
sS'y'
p3011
I95
sS'doggies'
p3012
I105
sS'mellowed'
p3013
I105
sS'you!!\xe2\x98\xba\xef\xb8\x8f'
p3014
I104
sS'spend'
p3015
I104
sS'atchu'
p3016
I105
sS'matter"'
p3017
I105
sS'simp'
p3018
I103
sS'listening'
p3019
I101
sS'reliant'
p3020
I104
sS'50/50'
p3021
I105
sS'competitive'
p3022
I105
sS"ho'olaule'a"
p3023
I105
sS'shape'
p3024
I104
sS'hercules'
p3025
I105
sS'$ap'
p3026
I105
sS'questions'
p3027
I104
sS'using'
p3028
I104
sS'pixy'
p3029
I105
sS'lexus'
p3030
I105
sS'couch'
p3031
I105
sS'\xe3\x81\x8c\xe3\x82\x93\xe3\x81\xb0\xe3\x82\x8c\xe3\x82\x93\xe2\x9d\xa4'
p3032
I105
sS'meanest'
p3033
I105
sS'letting'
p3034
I105
sS'cut'
p3035
I105
sS'cus'
p3036
I104
sS'waste'
p3037
I105
sS'cup'
p3038
I97
sS'disappointed'
p3039
I101
sS'\xe4\xbb\x8a\xe6\x97\xa5\xe3\x82\xa4\xe3\x82\xb1\xe3\x83\xa1\xe3\x83\xb3\xe9\x81\xad\xe9\x81\x87\xe7\x8e\x87\xe9\xab\x98\xe3\x81\x84'
p3040
I105
sS'kissed'
p3041
I105
sS'cuz'
p3042
I94
sS'iggy'
p3043
I105
sS'parents'
p3044
I99
sS'siblings'
p3045
I105
sS'crying'
p3046
I103
sS'homies'
p3047
I104
sS'snap'
p3048
I104
sS'cum'
p3049
I105
sS'excited'
p3050
I98
sS'hates'
p3051
I104
sS'cuh'
p3052
I105
sS'bio'
p3053
I102
sS'customers'
p3054
I105
sS'big'
p3055
I93
sS'couple'
p3056
I100
sS'jerked'
p3057
I105
sS'lovin'
p3058
I105
sS'competing'
p3059
I105
sS'game'
p3060
I72
sS'boost'
p3061
I105
sS'squallies'
p3062
I105
sS'dearly'
p3063
I105
sS'bit'
p3064
I101
sS'formal'
p3065
I104
sS'knock'
p3066
I105
sS'mornin'
p3067
I105
sS'semi'
p3068
I104
sS'hahha'
p3069
I98
sS'wingstop'
p3070
I101
sS'toyota'
p3071
I104
sS'bahah'
p3072
I105
sS'continue'
p3073
I105
sS'stylish'
p3074
I105
sS'akilah'
p3075
I105
sS'buff'
p3076
I105
sS'swooped'
p3077
I105
sS'eboii'
p3078
I105
sS'partying'
p3079
I105
sS'often'
p3080
I105
sS'klose'
p3081
I105
sS'fucking'
p3082
I97
sS'fathers'
p3083
I103
sS'1st'
p3084
I104
sS'some'
p3085
I58
sS'back'
p3086
I59
sS'reedicuulouss'
p3087
I105
sS'lips'
p3088
I105
sS'mighty'
p3089
I105
sS'haha.\xe2\x80\x9d'
p3090
I105
sS'wichita'
p3091
I105
sS'isnt'
p3092
I105
sS'pala'
p3093
I105
sS'curious'
p3094
I105
sS'suicides5)'
p3095
I105
sS'ups'
p3096
I105
sS'ourselves'
p3097
I105
sS'savage'
p3098
I104
sS'\xe3\x81\xbf\xe3\x82\x89\xe3\x81\x8f\xe3\x82\x8b\xe3\x81\xaf\xe3\x81\xaa\xe3\x81\x8b\xe3\x81\xa3\xe3\x81\x9f\xe3\x80\x82\xe3\x81\xa7\xe3\x82\x82\xe3\x81\x9d\xe3\x82\x8c\xe4\xbb\xa5\xe4\xb8\x8a\xe3\x81\xae\xe3\x82\x82\xe3\x82\x93\xe3\x81\x8c\xe3\x81\x82\xe3\x81\xa3\xe3\x81\x9f\xe3\x82\x8f\xe3\x80\x82\xe3\x81\x82\xe3\x81\x96\xe3\x83\xbc\xe3\x81\xa3\xe3\x81\x99\xef\xbc\x81\xe3\x81\xab\xe3\x81\xa3\xe3\x81\x8f\xe3\x80\x81\xe3\x81\x82\xe3\x81\x84\xe3\x81\xa1\xe3\x82\x83\xe3\x82\x93\xe3\x80\x81d\xe3\x81\x8f\xe3\x82\x93\xe3\x80\x81\xe3\x82\x8a\xe3\x81\x8a\xe6\xb0\x8f\xe3\x80\x81\xe3\x81\xb2\xe3\x82\x8d\xe3\x81\x8d\xe3\x82\x93\xe3\x81\x90\xe3\x80\x81\xe3\x81\x91\xe3\x81\x84\xe3\x81\xa1\xe3\x82\x83\xe3\x82\x93\xe3\x80\x81\xe3\x82\x8a\xe3\x81\x8b\xe3\x81\xa1\xe3\x82\x83\xe3\x82\x93\xe3\x80\x82\xe3\x81\xaa\xe3\x82\x93\xe3\x81\xa8\xe3\x81\x8b\xe4\xb9\x97\xe3\x82\x8a\xe5\x88\x87\xe3\x82\x8c\xe3\x81\xbe\xe3\x81\x99\xe3\x81\x9f\xe3\x80\x82'
p3099
I105
sS'apush'
p3100
I98
sS'shoves'
p3101
I105
sS'decision'
p3102
I105
sS'shall'
p3103
I105
sS'js'
p3104
I105
sS'prom'
p3105
I103
sS'connecting'
p3106
I105
sS'dating'
p3107
I104
sS'baby\xe2\x80\x9d'
p3108
I105
sS'\xe2\x9c\x8c\xef\xb8\x8f\xe2\x9d\xa4\xef\xb8\x8f'
p3109
I105
sS'either'
p3110
I104
sS'be'
p3111
I24
sS'eating'
p3112
I100
sS'bb'
p3113
I105
sS'bc'
p3114
I96
sS'remembered'
p3115
I105
sS'lose'
p3116
I104
sS'laker'
p3117
I105
sS's/o'
p3118
I105
sS'step'
p3119
I105
sS'nowhere'
p3120
I104
sS'santa'
p3121
I105
sS'become'
p3122
I101
sS'crap'
p3123
I102
sS'carol'
p3124
I104
sS'bayern'
p3125
I105
sS'2/4'
p3126
I105
sS'by'
p3127
I79
sS'shine'
p3128
I105
sS'faith'
p3129
I102
sS'anything'
p3130
I99
sS'netflix'
p3131
I103
sS'iced'
p3132
I105
sS"mcdonald's"
p3133
I105
sS'graduation'
p3134
I104
sS'cmas'
p3135
I105
sS'deserves'
p3136
I103
sS'range'
p3137
I105
sS'modan'
p3138
I105
sS'idk'
p3139
I87
sS'germany'
p3140
I104
sS'v-'
p3141
I105
sS'hahahah'
p3142
I104
sS'dwight'
p3143
I104
sS'\xe3\x82\x82\xe3\x81\x84\xe3\x81\xa3\xe3\x81\x8b\xe3\x80\x82\xe3\x81\xa8\xe3\x80\x81\xe5\xb0\x91\xe3\x81\x97\xe3\x81\xb5\xe3\x81\xa3\xe3\x81\x8d\xe3\x82\x8c\xe3\x81\x9f\xe3\x80\x82'
p3144
I105
sS'*uriel'
p3145
I105
sS'ppl'
p3146
I104
sS'seeing'
p3147
I102
sS'\xe2\x9b\x84\xef\xb8\x8f'
p3148
I105
sS'pero'
p3149
I105
sS'into'
p3150
I100
sS'within'
p3151
I104
sS'damnnnnn'
p3152
I105
sS'momma'
p3153
I105
sS'nigga'
p3154
I63
sS'steven'
p3155
I103
sS'ayyy'
p3156
I105
sS'lesson'
p3157
I103
sS'sports'
p3158
I105
sS'lebron'
p3159
I105
sS'smells'
p3160
I105
sS'men-oh'
p3161
I104
sS'kingshawaiianbakery'
p3162
I105
sS'4rm'
p3163
I105
sS'xeriscaping'
p3164
I105
sS'zig'
p3165
I105
sS'spending'
p3166
I105
sS'ew'
p3167
I105
sS'sock'
p3168
I105
sS'ca)'
p3169
I77
sS'long'
p3170
I96
sS'camera'
p3171
I105
sS'catbug'
p3172
I101
sS"we're"
p3173
I100
sS'bruh'
p3174
I93
sS'forward'
p3175
I105
sS'scariest'
p3176
I105
sS'.2'
p3177
I105
sS'bored'
p3178
I101
sS'sections'
p3179
I105
sS'scared'
p3180
I101
sS'leagues'
p3181
I105
sS'himself'
p3182
I104
sS'\xe5\xbe\xb3\xe5\xb3\xb6\xe3\x82\x89\xe3\x83\xbc\xe3\x82\x81\xe3\x82\x93\xe3\x81\xa1\xe3\x81\x86\xef\xbc\x81'
p3183
I105
sS'invite'
p3184
I102
sS'hawaiian'
p3185
I93
sS'toooo'
p3186
I105
sS'hoped'
p3187
I105
sS'boys'
p3188
I104
sS'yesssss'
p3189
I105
sS'link'
p3190
I104
sS'competition'
p3191
I105
sS'scope'
p3192
I105
sS'ling'
p3193
I104
sS'line'
p3194
I104
sS'junior'
p3195
I105
sS'posted'
p3196
I104
sS'info'
p3197
I105
sS'motive'
p3198
I105
sS'crossroads'
p3199
I105
sS'toned'
p3200
I105
sS'reload'
p3201
I105
sS'up'
p3202
I26
sS'us'
p3203
I86
sS'ur'
p3204
I103
sS'um'
p3205
I104
sS"tomorrow's"
p3206
I105
sS'uh'
p3207
I105
sS'performances'
p3208
I105
sS'fried'
p3209
I104
sS'chelsea'
p3210
I104
sS'called'
p3211
I103
sS'yakitori'
p3212
I97
sS'necesito'
p3213
I105
sS'ordered'
p3214
I105
sS"motherfuckin'"
p3215
I105
sS'cover'
p3216
I105
sS'cowboys'
p3217
I105
sS'tyrese'
p3218
I104
sS'necesita'
p3219
I105
sS'wats'
p3220
I105
sS'proper'
p3221
I105
sS'single'
p3222
I104
sS'cure'
p3223
I104
sS'caring.\xe2\x9d\xa4'
p3224
I105
sS'chat'
p3225
I105
sS'enviro'
p3226
I105
sS'reply.\xe2\x80\x9d'
p3227
I105
sS'rally'
p3228
I105
sS'cafe'
p3229
I95
sS'liking'
p3230
I105
sS'rainy'
p3231
I105
sS'peter'
p3232
I105
sS'lemon'
p3233
I103
sS'excused'
p3234
I105
sS'nah'
p3235
I102
sS'realest'
p3236
I105
sS'fears'
p3237
I105
sS'invalid'
p3238
I105
sS'shinsen'
p3239
I104
sS'nick'
p3240
I105
sS'nap'
p3241
I102
sS'bracket'
p3242
I104
sS'statement'
p3243
I105
sS'naw'
p3244
I99
sS'becomes'
p3245
I104
sS'kakausapin'
p3246
I105
sS'tech'
p3247
I105
sS'ask.fm'
p3248
I105
sS'hustling'
p3249
I105
sS'manhattan'
p3250
I105
sS'nice'
p3251
I99
sS'raped'
p3252
I105
sS'jayms'
p3253
I105
sS"oregon's"
p3254
I105
sS'pretended'
p3255
I105
sS'william'
p3256
I105
sS'madoka'
p3257
I104
sS'\xd9\x85\xd9\x83\xd8\xb0\xd9\x88\xd8\xa8\xd8\xa9'
p3258
I105
sS'bulletin'
p3259
I105
sS'meals'
p3260
I105
sS'earphones'
p3261
I105
sS'ago'
p3262
I101
sS'lane'
p3263
I105
sS'miles'
p3264
I105
sS'kickit'
p3265
I105
sS'alritey'
p3266
I104
sS'age'
p3267
I104
sS'backed'
p3268
I105
sS'walked'
p3269
I104
sS'work....love'
p3270
I105
sS'hella'
p3271
I102
sS'enrolled'
p3272
I105
sS'far'
p3273
I94
sS'fresh'
p3274
I102
sS'berries'
p3275
I105
sS'requires'
p3276
I105
sS'having'
p3277
I98
sS'once'
p3278
I100
sS'essay'
p3279
I101
sS"mac'n'cheese"
p3280
I105
sS'code'
p3281
I105
sS'minors'
p3282
I105
sS'niggaassss'
p3283
I105
sS'splashing'
p3284
I105
sS'laziness'
p3285
I105
sS'reeeeeaaly'
p3286
I105
sS'slick'
p3287
I105
sS'totes'
p3288
I104
sS'*pic*'
p3289
I105
sS'frsuree'
p3290
I105
sS'gang'
p3291
I104
sS'go'
p3292
I27
sS'gn'
p3293
I105
sS'conversation'
p3294
I105
sS'chillin'
p3295
I105
sS'issues'
p3296
I104
sS'dortmund'
p3297
I105
sS'miyamoto'
p3298
I105
sS'lyrics'
p3299
I105
sS'\xe3\x81\xaa\xe3\x82\x93\xe3\x81\x8b\xe4\xb9\x85\xe3\x80\x85\xe3\x81\xab\xe3\x82\x82\xe3\x81\xa3\xe3\x81\xa6\xe3\x81\x8b\xe3\x82\x8c\xe3\x81\x9d\xe3\x81\x86\xe3\x81\xab\xe3\x81\xaa\xe3\x81\xa3\xe3\x81\x9f\xe3\x80\x82\xe6\xb0\x97\xe3\x81\x8c\xe9\x81\xa0\xe3\x81\x8f\xe3\x81\xaa\xe3\x82\x8b\xe3\x81\xa3\xe3\x81\xa1\xe3\x82\x85\xe3\x81\x86\xe3\x81\x8b\xe6\x81\xaf\xe8\x8b\xa6\xe3\x81\x97\xe3\x81\x84\xe3\x81\xa3\xe3\x81\xa1\xe3\x82\x85\xe3\x81\x86\xe3\x81\x8b\xe3\x80\x813\xef\xbd\x9e4\xe5\xb9\xb4\xe5\x89\x8d\xe3\x81\xab\xe3\x82\x82\xe3\x81\x82\xe3\x81\xa3\xe3\x81\xa6\xe3\x82\x93\xe3\x80\x82\xe3\x81\x97\xe3\x81\x8b\xe3\x82\x82\xe3\x80\x81\xe7\xb5\xb6\xe5\xaf\xbe\xe8\xbb\x8a\xe3\x81\xae\xe9\x81\x8b\xe8\xbb\xa2\xe4\xb8\xad\xe3\x82\x84\xe3\x81\xad\xe3\x82\x93\xe3\x81\xaa\xe3\x81\x81\xe3\x80\x82\xe3\x81\xa8\xe3\x81\x86\xe3\x81\xa8\xe3\x81\x86\xe6\x98\x9f\xe3\x81\xab\xe5\xb8\xb0\xe3\x82\x8b\xe6\x99\x82\xe3\x81\x8b\xef\xbc\x81\xef\xbc\x9f'
p3300
I105
sS'young'
p3301
I101
sS'send'
p3302
I102
sS'nose'
p3303
I105
sS'fadoodles'
p3304
I105
sS'amigas'
p3305
I105
sS'helps'
p3306
I105
sS'babes'
p3307
I105
sS'strippa'
p3308
I105
sS'dislike'
p3309
I104
sS'friendly'
p3310
I105
sS'sent'
p3311
I103
sS'11:30'
p3312
I105
sS'retire'
p3313
I105
sS'wished'
p3314
I105
sS'creeps'
p3315
I105
sS'outside'
p3316
I102
sS'(2121'
p3317
I103
sS'avalon'
p3318
I105
sS'spoon'
p3319
I104
sS'putting'
p3320
I105
sS'taiko'
p3321
I105
sS'telling'
p3322
I102
sS'bae\xe2\x80\x9d'
p3323
I105
sS'ending'
p3324
I105
sS'categories'
p3325
I105
sS'entire'
p3326
I103
sS'nose\xe2\x80\x9d'
p3327
I105
sS'harbor'
p3328
I102
sS'notes'
p3329
I102
sS'niggas'
p3330
I94
sS'michael'
p3331
I105
sS'eve'
p3332
I104
sS'hoescause'
p3333
I105
sS'try'
p3334
I88
sS'sabr'
p3335
I105
sS'reallllly'
p3336
I105
sS'uriel!\xe2\x9c\x8a'
p3337
I105
sS'flows'
p3338
I105
sS'joes'
p3339
I105
sS'havent'
p3340
I105
sS'tru'
p3341
I104
sS'challenge'
p3342
I104
sS'keiji'
p3343
I105
sS'booty'
p3344
I104
sS'waking'
p3345
I105
sS'jump'
p3346
I103
sS'pissed.\xc2\xa0\xe2\x80\x9d'
p3347
I105
sS'video'
p3348
I100
sS'picked'
p3349
I103
sS'reunion'
p3350
I105
sS'>:l'
p3351
I105
sS'growers'
p3352
I103
sS'honors'
p3353
I104
sS'victor'
p3354
I104
sS'minuet'
p3355
I105
sS'plays'
p3356
I105
sS'sweats'
p3357
I105
sS'wallet'
p3358
I105
sS'giving'
p3359
I98
sS'yoce'
p3360
I105
sS'vampire'
p3361
I105
sS'cell'
p3362
I105
sS'civicbc'
p3363
I105
sS'waiting'
p3364
I100
sS'twins'
p3365
I104
sS'bahahaha'
p3366
I101
sS'collins'
p3367
I105
sS'$1000'
p3368
I105
sS'teamgemma'
p3369
I105
sS'bird'
p3370
I104
sS'body'
p3371
I99
sS'\xd9\x88'
p3372
I104
sS'dranks'
p3373
I105
sS'chose'
p3374
I105
sS'degree'
p3375
I105
sS'urchin'
p3376
I105
sS'got'
p3377
I32
sS'punch'
p3378
I105
sS'leo'
p3379
I105
sS'luiz'
p3380
I105
sS'pump'
p3381
I105
sS'saut\xc3\xa9ed'
p3382
I105
sS'let'
p3383
I79
sS'sink'
p3384
I104
sS'others'
p3385
I100
sS'sing'
p3386
I104
sS'sine'
p3387
I105
sS'kidnapped'
p3388
I105
sS'bald'
p3389
I105
sS'cr7'
p3390
I105
sS'athlete'
p3391
I105
sS'great'
p3392
I86
sS'2013\xe5\xb9\xb4\xe3\x80\x82\xe5\x88\x9d\xe7\x8b\xa9\xe3\x81\xa0\xe3\x81\xa7\xe3\x80\x82'
p3393
I105
sS'\xe2\x9a\xbd\xef\xb8\x8f'
p3394
I89
sS'stalks'
p3395
I105
sS'wesley'
p3396
I105
sS'across'
p3397
I105
sS'31'
p3398
I105
sS'30'
p3399
I100
sS'35'
p3400
I105
sS'leaving'
p3401
I103
sS'11v'
p3402
I105
sS"weren't"
p3403
I105
sS'opinion'
p3404
I105
sS'makes'
p3405
I100
sS'weekends'
p3406
I102
sS'pajama'
p3407
I105
sS'thats'
p3408
I100
sS'bumming'
p3409
I105
sS'stauskas'
p3410
I105
sS'danger'
p3411
I105
sS'crashing'
p3412
I105
sS'win'
p3413
I101
sS'tatse'
p3414
I105
sS'stalking'
p3415
I105
sS'wit'
p3416
I96
sS'hrs'
p3417
I104
sS'apply'
p3418
I104
sS'singing'
p3419
I104
sS"ashley's"
p3420
I105
sS'predicted'
p3421
I105
sS'standing'
p3422
I105
sS'use'
p3423
I98
sS'hahahahaha'
p3424
I104
sS'from'
p3425
I57
sS'hears'
p3426
I105
sS'usa'
p3427
I102
sS'&'
p3428
I56
sS'illegal'
p3429
I105
sS'snacks'
p3430
I105
sS'flat'
p3431
I105
sS'next'
p3432
I95
sS'chp'
p3433
I105
sS'few'
p3434
I104
sS'doubt'
p3435
I105
sS'fer'
p3436
I94
sS';-'
p3437
I105
sS'stage'
p3438
I105
sS'chip'
p3439
I105
sS'feeeeeeel'
p3440
I105
sS'babe'
p3441
I104
sS'upcoming'
p3442
I104
sS'tuch\xc3\xa8'
p3443
I105
sS'started'
p3444
I96
sS'shin-sen-gumi'
p3445
I94
sS'about'
p3446
I49
sS'\xd9\x86\xd9\x81\xd8\xb3'
p3447
I105
sS'confused'
p3448
I105
sS'sore'
p3449
I103
sS'train'
p3450
I104
sS'rabbit'
p3451
I105
sS'baby'
p3452
I89
sS'pieces'
p3453
I105
sS'harvest'
p3454
I105
sS'potential'
p3455
I105
sS'broth'
p3456
I105
sS'women'
p3457
I103
sS'account'
p3458
I105
sS'balls'
p3459
I105
sS'practicing'
p3460
I105
sS'\xd8\xaa\xd8\xb9\xd8\xaa\xd9\x85\xd8\xaf'
p3461
I105
sS'this'
p3462
I19
sS'ride'
p3463
I95
sS's\xc3\xa1nchez'
p3464
I105
sS'mommas'
p3465
I105
sS'dusted'
p3466
I105
sS'nanita'
p3467
I105
sS'drill'
p3468
I105
sS'island'
p3469
I104
sS'aight'
p3470
I102
sS'meet'
p3471
I104
sS'"red"'
p3472
I105
sS'\xd8\xa7\xd9\x84\xd8\xb9\xd8\xa8\xd9\x88\xd8\xaf\xd9\x8a\xd8\xa9'
p3473
I105
sS'control'
p3474
I104
sS'woooooow'
p3475
I105
sS'slid'
p3476
I105
sS'\xe3\x81\x93\xe3\x81\xae2\xe3\x83\xb6\xe6\x9c\x88\xe3\x81\xa7\xe3\x81\xa1\xe3\x82\x87\xe3\x81\x93\xe3\x81\xa3\xe3\x81\xa8\xe3\x81\x97\xe3\x81\x9f\xe3\x81\x93\xe3\x81\xa8\xe3\x81\x8c\xe3\x81\x82\xe3\x81\xa3\xe3\x81\xa6\xe3\x80\x81\xe6\x98\xa8\xe6\x97\xa5\xe7\x84\xa1\xe4\xba\x8b\xe3\x81\xab\xe5\xae\x8c\xe7\xb5\x90\xe3\x81\x97\xe3\x81\x9f\xe3\x80\x82\xe3\x81\x9d\xe3\x81\xae\xe4\xbb\xa3\xe5\x84\x9f\xe3\x81\xa7\xe5\x8f\xb3\xe8\x85\x95\xe3\x81\x8c\xe7\xa5\x9e\xe7\xb5\x8c\xe7\x97\x9b\xef\xbc\x9f\xe3\x81\xa3\xe3\x81\xa6\xe3\x81\xaa\xe3\x82\x93\xe3\x81\xaa\xe3\x82\x89\xef\xbc\x9f'
p3477
I105
sS'thirsty'
p3478
I105
sS'do'
p3479
I41
sS'kobe'
p3480
I105
sS'loco'
p3481
I105
sS'risque'
p3482
I105
sS'high'
p3483
I97
sS'patinar'
p3484
I105
sS'tag'
p3485
I105
sS'negativity'
p3486
I105
sS'something'
p3487
I82
sS'blvd'
p3488
I102
sS'shrimp'
p3489
I105
sS'skirt'
p3490
I105
sS'impressed'
p3491
I105
sS'\xe2\x98\xba\xef\xb8\x8f\xe2\x9a\xbd\xef\xb8\x8f'
p3492
I105
sS'sis'
p3493
I100
sS'summers'
p3494
I105
sS'dwp'
p3495
I105
sS'paris'
p3496
I105
sS'berree'
p3497
I105
sS'vibe'
p3498
I103
sS'stole'
p3499
I105
sS'permission'
p3500
I105
sS"king's"
p3501
I105
sS'brian'
p3502
I104
sS'responsibilities'
p3503
I105
sS'pair'
p3504
I105
sS'responsibility'
p3505
I105
sS'galleria'
p3506
I105
sS'goner'
p3507
I105
sS'instead'
p3508
I102
sS'bandana'
p3509
I105
sS'comedy'
p3510
I104
sS'believes'
p3511
I105
sS'pomona'
p3512
I104
sS'stock'
p3513
I105
sS'watery'
p3514
I105
sS"megan's"
p3515
I105
sS'stop'
p3516
I82
sS'masks'
p3517
I105
sS'united'
p3518
I105
sS'taco'
p3519
I104
sS'hahahaha'
p3520
I104
sS'reggie'
p3521
I105
sS'coast'
p3522
I102
sS'racks'
p3523
I104
sS'gundo'
p3524
I105
sS'somethin'
p3525
I105
sS'realized'
p3526
I105
sS'ittt'
p3527
I105
sS'\xd8\xb5\xd8\xad'
p3528
I105
sS'famous'
p3529
I105
sS'light'
p3530
I105
sS'sit'
p3531
I105
sS'congruent'
p3532
I105
sS'cudi'
p3533
I105
sS'emanuel'
p3534
I105
sS'scoop'
p3535
I104
sS'bakery'
p3536
I89
sS'lauren!\xe2\x98\xba\xef\xb8\x8f'
p3537
I105
sS'honestly'
p3538
I101
sS'rmft'
p3539
I105
sS'allow'
p3540
I105
sS'minnetonka'
p3541
I105
sS'solos'
p3542
I105
sS'poweredtrain'
p3543
I105
sS'pastries'
p3544
I105
sS'necklaces'
p3545
I105
sS'primero'
p3546
I105
sS'hungry\xe2\x80\x9d'
p3547
I105
sS'baddie'
p3548
I105
sS'move'
p3549
I101
sS'meter'
p3550
I105
sS'\xd8\xa7\xd9\x84\xd9\x85\xd8\xb3\xd8\xac\xd8\xaf'
p3551
I105
sS"won't"
p3552
I93
sS'looks'
p3553
I92
sS'jimenez'
p3554
I105
sS'converting'
p3555
I105
sS'gramps'
p3556
I105
sS'badges'
p3557
I105
sS'bunch'
p3558
I105
sS'perfect'
p3559
I98
sS'write'
p3560
I105
sS'lb'
p3561
I105
sS'shoplifting'
p3562
I105
sS'la'
p3563
I86
sS'lo'
p3564
I105
sS'byu'
p3565
I105
sS'[pic]'
p3566
I104
sS'huntington'
p3567
I105
sS'willing'
p3568
I105
sS'choose'
p3569
I105
sS'\xc2\xbfs\xc3\xad'
p3570
I105
sS'orange'
p3571
I105
sS'covered'
p3572
I105
sS'bye'
p3573
I103
sS'<'
p3574
I104
sS'2013'
p3575
I105
sS'dad'
p3576
I96
sS'cuss'
p3577
I105
sS'crash'
p3578
I105
sS'dab'
p3579
I104
sS'dam'
p3580
I105
sS'\xe6\x9c\x80\xe8\xbf\x91\xe9\x81\x8b\xe5\x8b\x95\xe6\xa5\xbd\xe3\x81\x97\xe3\x81\x84;)'
p3581
I105
sS'practice'
p3582
I105
sS'knn_k'
p3583
I105
sS'beads'
p3584
I105
sS'food...\xe2\x80\x9d'
p3585
I105
sS'dat'
p3586
I105
sS'flare'
p3587
I105
sS'freaky'
p3588
I105
sS'seshed'
p3589
I105
sS'snake'
p3590
I104
sS'kiss'
p3591
I103
sS'hands'
p3592
I104
sS'front'
p3593
I102
sS"slow...i'll"
p3594
I105
sS'day'
p3595
I60
sS'articles'
p3596
I104
sS'masters'
p3597
I105
sS'fuc'
p3598
I104
sS'intelligent'
p3599
I105
sS'university'
p3600
I105
sS'\xd9\x82\xd8\xa8\xd9\x84'
p3601
I105
sS'guard'
p3602
I105
sS'blazing'
p3603
I105
sS'slide'
p3604
I103
sS'beneath'
p3605
I104
sS'argentinians'
p3606
I105
sS"ya'll"
p3607
I105
sS'|'
p3608
I105
sS'spanglish'
p3609
I105
sS'glasses'
p3610
I105
sS'doing'
p3611
I96
sS"dut....we're"
p3612
I105
sS'freaking'
p3613
I105
sS'parties'
p3614
I104
sS'unbelievable'
p3615
I105
sS'macaroons'
p3616
I105
sS'dissolve'
p3617
I105
sS'kitchen'
p3618
I105
sS'\xe3\x81\x97\xe3\x82\x93\xe3\x81\xbf\xe3\x82\x8a\xe3\x81\xa8\xe4\xbb\xbb\xe5\x8b\x99\xe5\xae\x8c\xe4\xba\x86\xe3\x83\x86\xe3\x82\xad\xe3\x82\xb9\xe3\x83\x88\xe3\x82\x92\xe8\x80\x83\xe3\x81\x88\xe3\x81\xa6\xe3\x81\x9f\xe3\x82\x89\xe8\xa6\x8b\xe3\x81\x9a\xe7\x9f\xa5\xe3\x82\x89\xe3\x81\x9a\xe3\x81\xae\xe7\x99\xbd\xe4\xba\xba\xe3\x81\xae\xe9\x85\x94\xe3\x81\xa3\xe6\x89\x95\xe3\x81\x84\xe3\x81\xae\xe3\x81\xad\xe3\x83\xbc\xe3\x81\xa1\xe3\x82\x83\xe3\x82\x93\xe3\x81\xab\xe9\xa9\x9a\xe3\x81\x8b\xe3\x81\x95\xe3\x82\x8c\xe3\x81\xa6\xe3\x81\x97\xe3\x82\x93\xe3\x81\xbf\xe3\x82\x8a\xe6\xb0\x97\xe5\x88\x86\xe3\x81\x8c\xe3\x81\xb6\xe3\x81\xa3\xe9\xa3\x9b\xe3\x82\x93\xe3\x81\xa0\xe3\x80\x82\xe3\x81\x82\xe3\x82\x93\xe3\x81\x8c\xe3\x81\xa8\xe3\x80\x81\xe8\xa6\x8b\xe3\x81\x9a\xe7\x9f\xa5\xe3\x82\x89\xe3\x81\x9a\xe3\x81\xae\xe7\x99\xbd\xe4\xba\xba\xe3\x81\xae\xe9\x85\x94\xe3\x81\xa3\xe6\x89\x95\xe3\x81\x84\xe3\x81\xae\xe3\x81\xad\xe3\x83\xbc\xe3\x81\xa1\xe3\x82\x83\xe3\x82\x93\xe3\x80\x82'
p3619
I105
sS'our'
p3620
I97
sS'meth'
p3621
I105
sS'goalkeeper'
p3622
I102
sS'special'
p3623
I103
sS'out'
p3624
I42
sS'butch'
p3625
I105
sS'rey'
p3626
I105
sS'bag'
p3627
I104
sS"josh's"
p3628
I105
sS'kuyas'
p3629
I105
sS'w/o'
p3630
I105
sS'us....wtf'
p3631
I105
sS'strokes'
p3632
I105
sS'\xd8\xb3\xd9\x8a\xd8\xa6'
p3633
I105
sS'freshman'
p3634
I105
sS'hilarious'
p3635
I104
sS'd-backs'
p3636
I104
sS'gloves'
p3637
I105
sS'tonkotsu'
p3638
I105
sS'cause'
p3639
I90
sS'blasting'
p3640
I105
sS'math'
p3641
I103
sS'shut'
p3642
I101
sS'ecc'
p3643
I105
sS'dictionary'
p3644
I105
sS'scumbag'
p3645
I105
sS'recommendations'
p3646
I105
sS'greedy'
p3647
I105
sS'\xd8\xa7\xd9\x84\xd8\xa7\xe2\x80\xa6'
p3648
I105
sS'completely'
p3649
I103
sS'trasho'
p3650
I105
sS'que'
p3651
I103
sS'collection'
p3652
I105
sS'usual'
p3653
I105
sS'alpaca'
p3654
I105
sS'craving'
p3655
I104
sS'metabolism!\xe2\x80\x9dwatermelooooooon'
p3656
I105
sS'tweeting'
p3657
I105
sS'g'
p3658
I101
sS'helmut'
p3659
I105
sS'snapchats'
p3660
I105
sS'ruins'
p3661
I105
sS'could'
p3662
I88
sS'blahhh'
p3663
I105
sS'skateboard'
p3664
I105
sS'membership'
p3665
I105
sS'stereotype'
p3666
I105
sS'keep'
p3667
I89
sS'shleeeep'
p3668
I105
sS'4th'
p3669
I104
sS'adrian'
p3670
I105
sS'cunts'
p3671
I105
sS'biting'
p3672
I105
sS'chuka'
p3673
I105
sS'austin'
p3674
I104
sS'out\xe2\x80\x9d'
p3675
I105
sS'ihy'
p3676
I105
sS'kevin:hell'
p3677
I105
sS'blown'
p3678
I104
sS"sunday's"
p3679
I105
sS'racism'
p3680
I105
sS'exact'
p3681
I105
sS'mai'
p3682
I105
sS'makaiya'
p3683
I105
sS'bitch'
p3684
I81
sS'lagging'
p3685
I104
sS'mah'
p3686
I103
sS'fum'
p3687
I105
sS'quality'
p3688
I105
sS'daaaaaang'
p3689
I105
sS'braces'
p3690
I105
sS'prank'
p3691
I104
sS"you're"
p3692
I70
sS'\xd8\xaf\xd9\x88\xd9\x84\xd8\xa9'
p3693
I105
sS'heaven.....plz'
p3694
I105
sS'bsing'
p3695
I105
sS'los'
p3696
I105
sS'bears'
p3697
I105
sS'splurged'
p3698
I105
sS'laps'
p3699
I105
sS'seat'
p3700
I105
sS'eighth'
p3701
I105
sS'their'
p3702
I87
sS'ankle'
p3703
I103
sS'espejo'
p3704
I105
sS'rio'
p3705
I105
sS'final'
p3706
I99
sS'cabin'
p3707
I102
sS'beard'
p3708
I105
sS'cuddling'
p3709
I105
sS'gummy'
p3710
I105
sS'lemonade'
p3711
I105
sS'stomach'
p3712
I105
sS'gear'
p3713
I105
sS'shorts'
p3714
I104
sS'\xe7\xb4\x841\xe9\x80\xb1\xe9\x96\x93\xe3\x81\xb6\xe3\x82\x8a\xe3\x81\xb6\xe3\x82\x8a\xe3\x81\xab\xe3\x83\x99\xe3\x83\x83\xe3\x83\x88\xe3\x81\xa7\xe5\xaf\x9d\xe3\x82\x8b\xe3\x80\x82\xe3\x81\x84\xe3\x81\x84\xe5\xa4\xa2\xe3\x81\xbf\xe3\x82\x8bzeyo\xef\xbc\x81'
p3715
I105
sS'exactly'
p3716
I102
sS'ogs'
p3717
I105
sS'depressing'
p3718
I105
sS'grandpa'
p3719
I101
sS'july'
p3720
I104
sS'sex'
p3721
I105
sS'herself'
p3722
I105
sS'commence'
p3723
I105
sS'gotchu'
p3724
I105
sS'lovee'
p3725
I105
sS'loved'
p3726
I103
sS'ben'
p3727
I104
sS'kickback'
p3728
I105
sS'boring'
p3729
I105
sS'aspiration'
p3730
I105
sS'truuuuuue'
p3731
I105
sS'aaron'
p3732
I105
sS'goodnight'
p3733
I105
sS'bed'
p3734
I97
sS'bee'
p3735
I105
sS'haaaaahaha'
p3736
I105
sS'listeners'
p3737
I105
sS'luckdish'
p3738
I105
sS"body's"
p3739
I105
sS'cravings'
p3740
I105
sS'loves'
p3741
I104
sS'sec'
p3742
I105
sS'country'
p3743
I105
sS'bet'
p3744
I103
sS'1.5'
p3745
I105
sS'annnnnnnnnnnnd'
p3746
I105
sS'smfh'
p3747
I105
sS'tonight'
p3748
I63
sS'naomi'
p3749
I105
sS'have'
p3750
I31
sS'\xe3\x81\x8c\xe3\x82\x93\xe3\x81\xb0\xe3\x82\x8b\xe3\x82\x93\xe3\x81\xb0>3'
p3751
I104
sS'need'
p3752
I47
sS'nosey'
p3753
I105
sS'apparently'
p3754
I103
sS'clearly'
p3755
I105
sS'hair/and'
p3756
I105
sS'screw'
p3757
I105
sS'grads'
p3758
I105
sS'mermaid'
p3759
I105
sS'\xe3\x81\xaa\xe3\x82\x93\xe3\x82\x84\xe3\x81\x8b\xe3\x82\x93\xe3\x82\x84\xe3\x81\x8a\xe3\x82\x82\xe3\x82\x8d\xe3\x81\x8b\xe3\x81\xa3\xe3\x81\x9f\xe3\x80\x82\xe3\x81\x9d\xe3\x82\x8c\xe3\x81\xa7\xe3\x82\x88\xe3\x81\x8b1\xe6\x97\xa5\xe3\x81\xa7\xe3\x81\x97\xe3\x81\x9f\xe3\x80\x82'
p3760
I105
sS'dishes'
p3761
I105
sS'congrats'
p3762
I102
sS"m100's"
p3763
I105
sS'able'
p3764
I100
sS'switch'
p3765
I105
sS'waffles'
p3766
I102
sS'bagel'
p3767
I105
sS'mix'
p3768
I104
sS'which'
p3769
I104
sS'dreaming'
p3770
I105
sS'siiiike'
p3771
I105
sS'truck'
p3772
I103
sS'asshole'
p3773
I105
sS'='
p3774
I105
sS';-)'
p3775
I105
sS'lugar'
p3776
I105
sS'savages'
p3777
I105
sS'optometry'
p3778
I101
sS'sequel'
p3779
I105
sS'unless'
p3780
I105
sS'^^'
p3781
I105
sS'knees'
p3782
I105
sS'aww'
p3783
I96
sS'who'
p3784
I69
sS'you"'
p3785
I105
sS"where's"
p3786
I104
sS'p.o.g'
p3787
I105
sS'forreal'
p3788
I105
sS'cracking'
p3789
I105
sS'awh'
p3790
I104
sS'future'
p3791
I105
sS'medal'
p3792
I105
sS'class'
p3793
I94
sS'peckerwoods'
p3794
I105
sS'cellphone'
p3795
I105
sS'hypocrite'
p3796
I105
sS'laurens'
p3797
I105
sS'expert'
p3798
I104
sS'\xe2\x8c\x9b\xef\xb8\x8f\xe2\x8f\xb0'
p3799
I105
sS'bree'
p3800
I105
sS'stronger'
p3801
I104
sS'brea'
p3802
I105
sS'face'
p3803
I97
sS'looked'
p3804
I105
sS'sorta'
p3805
I105
sS"you'll"
p3806
I102
sS'tonight!\xe2\x80\xa6'
p3807
I105
sS'con'
p3808
I105
sS'pictures'
p3809
I104
sS'lowlow\xe2\x80\xa6'
p3810
I105
sS'skinny'
p3811
I105
sS'typical'
p3812
I104
sS'normally'
p3813
I105
sS'fact'
p3814
I104
sS'\xe6\x9c\x80\xe8\xbf\x91\xe9\x9d\x92\xe3\x82\xbf\xe3\x83\xb3\xe3\x81\xaa\xe3\x81\x8a\xe3\x82\x8a\xe3\x81\xab\xe3\x81\x8f\xe3\x81\x8f\xe3\x81\xa6\xe5\xb9\xb4\xe6\x84\x9f\xe3\x81\x98\xe3\x82\x8b\xe3\x82\x84\xe3\x85\xa0'
p3815
I105
sS'inspirations'
p3816
I105
sS'super'
p3817
I99
sS'location'
p3818
I105
sS'tariq'
p3819
I105
sS'chances'
p3820
I105
sS'text'
p3821
I102
sS'agreed'
p3822
I104
sS'indoor'
p3823
I98
sS'anyway'
p3824
I105
sS'eyebrows'
p3825
I105
sS'bring'
p3826
I101
sS'planning'
p3827
I105
sS'spasms<<'
p3828
I105
sS'bedroom'
p3829
I105
sS'large'
p3830
I105
sS'chicken'
p3831
I102
sS'forreeeaaal'
p3832
I105
sS'ha'
p3833
I105
sS'knowledge'
p3834
I105
sS'jax'
p3835
I105
sS'jay'
p3836
I105
sS'giants'
p3837
I105
sS'('
p3838
I105
sS'nijiya'
p3839
I98
sS'brighten'
p3840
I105
sS'terminar'
p3841
I105
sS'should'
p3842
I83
sS'reminisce'
p3843
I105
sS'brighter'
p3844
I105
sS'score'
p3845
I104
sS"anyone's"
p3846
I105
sS'lemme'
p3847
I105
sS'up*"i'
p3848
I105
sS'tune'
p3849
I105
sS'riding'
p3850
I105
sS'handsome'
p3851
I104
sS'local'
p3852
I84
sS'hope'
p3853
I84
sS'melissa'
p3854
I105
sS'meant'
p3855
I103
sS'nye"'
p3856
I105
sS'19\xe6\xad\xb3\xe6\x99\x82\xe3\x81\xab\xe3\x81\x8a\xe5\xae\xa2\xe3\x81\x95\xe3\x82\x93\xe3\x81\xab\xe3\x80\x8c\xe3\x81\xab\xe3\x83\xbc\xe3\x81\xa1\xe3\x82\x83\xe3\x82\x93\xe3\x80\x81\xe3\x81\xbb\xe3\x82\x93\xe3\x81\xbe\xe3\x81\xae\xe3\x81\x93\xe3\x81\xa8\xe3\x81\xa3\xe3\x81\xa6\xe3\x82\x8f\xe3\x81\x8b\xe3\x82\x8b\xe3\x81\x8b\xef\xbc\x9f\xe3\x80\x8d\xe3\x81\xa3\xe3\x81\xa6\xe8\xa8\x80\xe3\x82\x8f\xe3\x82\x8c\xe3\x81\xa6\xe3\x80\x81\xe4\xbb\x8a\xe3\x81\xae\xe3\x81\x84\xe3\x81\xbe\xe3\x81\xbe\xe3\x81\xa7\xe3\x81\x95\xe3\x81\xa3\xe3\x81\xb1\xe3\x82\x8a\xe3\x82\x8f\xe3\x81\x8b\xe3\x82\x89\xe3\x82\x93\xe3\x82\x84\xe3\x81\xa3\xe3\x81\x9f\xe3\x80\x82\xe3\x81\x84\xe3\x81\xa3\xe3\x81\xb1\xe3\x81\x84\xe8\x80\x83\xe3\x81\x88\xe3\x81\x9f\xe3\x81\x97\xe3\x80\x81\xe6\x82\xa9\xe3\x82\x93\xe3\x81\xa0\xe3\x81\x97\xe3\x80\x81\xe3\x81\xa7\xe3\x82\x82\xe3\x82\x8f\xe3\x81\x8b\xe3\x82\x89\xe3\x82\x93\xe3\x81\x8b\xe3\x81\xa3\xe3\x81\x9f\xe3\x81\x91\xe3\x81\xa9\xe3\x80\x81\xe4\xbb\x8a\xe6\x97\xa5\xe3\x80\x81\xe3\x81\xa6\xe3\x81\x8b\xe3\x80\x81\xe4\xbb\x8a\xe5\xb0\x91\xe3\x81\x97\xe5\x88\x86\xe3\x81\x8b\xe3\x81\xa3\xe3\x81\x9f\xe6\xb0\x97\xe3\x81\x8c\xe3\x81\x97\xe3\x81\xbe\xe3\x81\x97\xe3\x81\x9f\xe3\x80\x82\xe3\x81\x8a\xe3\x82\x84\xe3\x81\x99\xe3\x81\xbf\xe3\x82\x93\xe3\x81\x95\xe3\x81\x84\xe3\x80\x82'
p3857
I105
sS'workin'
p3858
I104
sS'watching'
p3859
I84
sS'beat'
p3860
I101
sS'wishing'
p3861
I105
sS'dope'
p3862
I103
sS'prada'
p3863
I105
sS'lucky'
p3864
I103
sS'bear'
p3865
I105
sS'likely'
p3866
I105
sS'tbh'
p3867
I101
sS'bean'
p3868
I105
sS'ones'
p3869
I103
sS'words'
p3870
I104
sS'thumbprint'
p3871
I105
sS'wise'
p3872
I105
sS'moco'
p3873
I105
sS'simpin'
p3874
I105
sS'shaves'
p3875
I105
sS'following'
p3876
I105
sS'starbies'
p3877
I105
sS'allah'
p3878
I105
sS"kobe's"
p3879
I105
sS'trucks'
p3880
I105
sS'ended'
p3881
I104
sS'shopping'
p3882
I105
sS'h'
p3883
I105
sS'hills'
p3884
I105
sS'effects'
p3885
I105
sS'teams'
p3886
I103
sS'ganar'
p3887
I105
sS'stuff'
p3888
I97
sS'she'
p3889
I75
sS'mercedes'
p3890
I105
sS'grab'
p3891
I104
sS'piss'
p3892
I105
sS'11am'
p3893
I105
sS'shm'
p3894
I105
sS'europe'
p3895
I104
sS'btw'
p3896
I104
sS"lauren's"
p3897
I105
sS'shaad'
p3898
I105
sS'prayers'
p3899
I103
sS'cruise'
p3900
I105
sS'lazy'
p3901
I104
sS'freeze'
p3902
I105
sS'yeeesssssssssss'
p3903
I105
sS'computer'
p3904
I102
sS"now.....how's"
p3905
I105
sS'stack'
p3906
I105
sS'expects'
p3907
I105
sS'peterson'
p3908
I105
sS'packed'
p3909
I104
sS'crucial_tk'
p3910
I105
sS'unzip'
p3911
I105
sS'cole'
p3912
I105
sS'\xe3\x81\xa8\xe3\x81\x8b\xe3\x81\xbe\xe3\x81\x98\xe3\x81\xaa\xe3\x81\x84\xe6\xb3\xa3'
p3913
I105
sS'destiny'
p3914
I105
sS'luv'
p3915
I105
sS'pattern'
p3916
I105
sS'luz'
p3917
I105
sS'horribly'
p3918
I105
sS'ralph'
p3919
I105
sS'tend'
p3920
I105
sS'clinics'
p3921
I105
sS'favor'
p3922
I105
sS'mexicans'
p3923
I105
sS'convince'
p3924
I105
sS'\xd9\x85\xd8\xa7'
p3925
I105
sS'closed'
p3926
I104
sS'horrible'
p3927
I105
sS'luh'
p3928
I105
sS'frustrated'
p3929
I105
sS'email'
p3930
I105
sS'pants'
p3931
I104
sS'nutritious'
p3932
I105
sS'ends'
p3933
I105
sS'blinker'
p3934
I105
sS'opening'
p3935
I103
sS'gambino'
p3936
I105
sS'suitcase'
p3937
I105
sS'kicking'
p3938
I105
sS'job'
p3939
I97
sS'key'
p3940
I103
sS'group'
p3941
I105
sS'ames'
p3942
I105
sS'outfit'
p3943
I105
sS'janel'
p3944
I103
sS'legit'
p3945
I103
sS'david'
p3946
I105
sS'praying'
p3947
I105
sS'hits'
p3948
I105
sS'curly'
p3949
I105
sS'limits'
p3950
I103
sS'joke'
p3951
I105
sS'taking'
p3952
I98
sS'\xd9\x81\xd9\x87\xd8\xb0\xd9\x8a'
p3953
I105
sS'ramp'
p3954
I105
sS'incident'
p3955
I105
sS'april'
p3956
I105
sS'admit'
p3957
I105
sS'grain'
p3958
I105
sS'atleast'
p3959
I104
sS'omw'
p3960
I105
sS'-versace'
p3961
I105
sS'retweets'
p3962
I105
sS'jersey'
p3963
I105
sS'orthodontist'
p3964
I105
sS'comment'
p3965
I105
sS'co'
p3966
I105
sS'agents'
p3967
I105
sS'wall'
p3968
I105
sS'ca'
p3969
I104
sS'walk'
p3970
I97
sS'running'
p3971
I105
sS'laugh'
p3972
I96
sS'news'
p3973
I104
sS'respect'
p3974
I102
sS'winning'
p3975
I105
sS'hahaahhahahahhahahahahahhahahahahahhahahahhahaha'
p3976
I105
sS'wowwwww'
p3977
I105
sS'lies'
p3978
I105
sS'\xe3\x81\x84\xe3\x82\x84\xe3\x81\x84\xe3\x82\x84\xe3\x81\x84\xe3\x82\x84\xe3\x81\x84\xe3\x82\x84\xe3\x81\x84\xe3\x82\x84\xe3\x80\x82\xe5\xae\x98\xe8\x83\xbd\xe5\xb0\x8f\xe8\xaa\xac\xe3\x83\x90\xe3\x83\xaa\xe3\x83\x90\xe3\x83\xaa\xe3\x81\xa3\xe3\x81\x99yo\xef\xbc\x81'
p3979
I105
sS'quit'
p3980
I104
sS'yay'
p3981
I99
sS'videos'
p3982
I105
sS"it's"
p3983
I35
sS'\xe5\xa0\xb4\xe6\x89\x80\xe3\x81\xaf\xe3\x82\xa2\xe3\x83\xa1\xe3\x83\xaa\xe3\x82\xab\xe3\x81\xaa\xe3\x82\x93\xe3\x81\xa7\xe3\x81\x99\xe3\x81\x8c\xe3\x83\xbb\xe3\x83\xbb\xe3\x83\xbb'
p3984
I105
sS'apologize'
p3985
I105
sS'poured'
p3986
I105
sS'treat'
p3987
I105
sS'bby'
p3988
I105
sS'"i\'m'
p3989
I105
sS'improve'
p3990
I105
sS'louisiana'
p3991
I104
sS'quik'
p3992
I105
sS'>'
p3993
I104
sS'their\xe2\x80\xa6'
p3994
I105
sS'soon?!"'
p3995
I105
sS'fack'
p3996
I105
sS'wanna'
p3997
I85
sS'league'
p3998
I104
sS'playstation'
p3999
I105
sS'moved'
p4000
I104
sS'walhberg'
p4001
I105
sS'al'
p4002
I105
sS'finished'
p4003
I103
sS'accident'
p4004
I105
sS'\xe3\x81\x9d\xe3\x81\x97\xe3\x81\xa6\xe3\x80\x81\xe5\xaf\x9d\xe8\xb5\xb7\xe3\x81\x8d\xe3\x83\x89\xe3\x83\x83\xe3\x82\xad\xe3\x83\xaa\xe3\x82\x82\xe3\x82\xaa\xe3\x83\xac\xe3\x81\x8c\xe5\x85\x88\xe3\x81\xab\xe7\x9b\xae\xe3\x82\x92\xe8\xa6\x9a\xe3\x81\xbe\xe3\x81\x99\xe3\x81\xa8\xe3\x81\x84\xe3\x81\x86\xe7\x8f\xbe\xe8\xb1\xa1\xe3\x80\x82'
p4005
I105
sS'out!\xe2\x80\x9d'
p4006
I105
sS'justin'
p4007
I105
sS'smoking'
p4008
I101
sS'brunch'
p4009
I105
sS'aced'
p4010
I105
sS'present'
p4011
I104
sS'land'
p4012
I105
sS'wood'
p4013
I105
sS'righhhh'
p4014
I105
sS'vanilla'
p4015
I105
sS'choices'
p4016
I105
sS'will'
p4017
I80
sS'gucci'
p4018
I105
sS'hahaha'
p4019
I82
sS'madeleine'
p4020
I105
sS'\xe3\x81\x8a\xe3\x82\x93\xe3\x81\xab\xe4\xbc\x9a\xe3\x81\x84\xe3\x81\x9f\xe3\x81\x84\xe3\x81\xa7\xe3\x81\x99\xe3\x83\xbc>33'
p4021
I105
sS'stogie'
p4022
I105
sS'noticed'
p4023
I105
sS'almost'
p4024
I97
sS'evelyn'
p4025
I105
sS'blood'
p4026
I104
sS'insanely'
p4027
I105
sS"children's"
p4028
I105
sS'familship'
p4029
I105
sS'helped'
p4030
I105
sS'bibingka'
p4031
I105
sS'vs'
p4032
I102
sS'kicchi'
p4033
I105
sS'claimed'
p4034
I105
sS'bucks'
p4035
I103
sS'tattoo'
p4036
I105
sS'denial'
p4037
I105
sS'-___-'
p4038
I105
sS'amo'
p4039
I105
sS'cross'
p4040
I105
sS'campus'
p4041
I104
sS'member'
p4042
I105
sS'jaw'
p4043
I105
sS'conversations'
p4044
I105
sS'units'
p4045
I105
sS'party'
p4046
I90
sS'terrorism'
p4047
I105
sS'jesse'
p4048
I105
sS'tomatoes'
p4049
I105
sS'difficult'
p4050
I104
sS'injured'
p4051
I103
sS'ball'
p4052
I100
sS'infinity'
p4053
I105
sS'selfish'
p4054
I105
sS'promo'
p4055
I105
sS'premiere'
p4056
I105
sS'drink'
p4057
I100
sS'effect'
p4058
I105
sS'bullying'
p4059
I105
sS'coaches'
p4060
I105
sS'fucken'
p4061
I99
sS'student'
p4062
I105
sS'sisters'
p4063
I97
sS'soph'
p4064
I105
sS'broccoli'
p4065
I105
sS'warming'
p4066
I105
sS'\xe9\x81\x8b\xe8\xbb\xa2\xe6\xb0\x97\xe3\x82\x92\xe3\x81\xa4\xe3\x81\x91\xe3\x81\xa6\xe3\x81\xad(t'
p4067
I105
sS'clips'
p4068
I105
sS'antsy'
p4069
I105
sS'ashley'
p4070
I103
sS'valerie'
p4071
I105
sS'i'
p4072
I2
sS'rollers'
p4073
I105
sS'well'
p4074
I82
sS'nuhhhh'
p4075
I105
sS'thought'
p4076
I88
sS'knotts'
p4077
I105
sS'english'
p4078
I102
sS'position'
p4079
I105
sS'muscle'
p4080
I102
sS'rush'
p4081
I105
sS'10:15'
p4082
I105
sS'\xd8\xaa\xd8\xa8\xd9\x8a'
p4083
I105
sS'taller'
p4084
I105
sS'coaster'
p4085
I105
sS'legendary'
p4086
I105
sS'less'
p4087
I103
sS"should've"
p4088
I105
sS'das'
p4089
I105
sS'domestic'
p4090
I104
sS'mistaken'
p4091
I105
sS'gun'
p4092
I105
sS'recap'
p4093
I105
sS'mistakes'
p4094
I105
sS'seats'
p4095
I105
sS'protecting'
p4096
I104
sS'paul'
p4097
I104
sS'lauren'
p4098
I100
sS'happiness'
p4099
I105
sS'brad'
p4100
I105
sS'cigarette'
p4101
I105
sS'quiero'
p4102
I105
sS'ads'
p4103
I105
sS'bowl'
p4104
I105
sS'point'
p4105
I100
sS'smith'
p4106
I104
sS'killed'
p4107
I102
sS'reasons'
p4108
I104
sS'add'
p4109
I104
sS'other'
p4110
I91
sS'attractive'
p4111
I105
sS'crack'
p4112
I105
sS'ohhh'
p4113
I104
sS'smart'
p4114
I104
sS'teriyaki'
p4115
I105
sS'homework'
p4116
I102
sS'identical'
p4117
I105
sS'tests'
p4118
I105
sS'humble.\xe2\x80\x9d'
p4119
I105
sS'worlds'
p4120
I105
sS'masquerade'
p4121
I104
sS'niggggaaaa'
p4122
I105
sS"who's"
p4123
I104
sS'bartending'
p4124
I105
sS'munich'
p4125
I105
sS'sweep'
p4126
I105
sS'enter'
p4127
I105
sS'260'
p4128
I105
sS'five'
p4129
I103
sS'know'
p4130
I40
sS'knot'
p4131
I105
sS'intersection'
p4132
I105
sS'toe'
p4133
I105
sS'lika'
p4134
I105
sS'4%'
p4135
I105
sS'like'
p4136
I25
sS'lost'
p4137
I94
sS'trigon'
p4138
I105
sS'miami'
p4139
I104
sS'hav'
p4140
I105
sS'\xe2\x99\xa1\xe2\x99\xa1\xe2\x99\xa1\xe2\x99\xa1'
p4141
I105
sS'candy'
p4142
I105
sS'talkin'
p4143
I105
sS'practices3)'
p4144
I105
sS'winning.\xe2\x80\x9d'
p4145
I105
sS'clutch'
p4146
I104
sS'leaves'
p4147
I104
sS'fleak'
p4148
I105
sS'works'
p4149
I103
sS'replacement'
p4150
I105
sS'mamaya'
p4151
I105
sS'because'
p4152
I89
sS'twitter'
p4153
I91
sS'\xe3\x81\x82\xe3\x81\x9f\xe3\x81\x97\xe3\x81\xab\xe8\xa8\x80\xe3\x81\xa3\xe3\x81\xa6\xe3\x81\xa3\xe3\x81\xa6\xe8\xa8\x80\xe3\x81\xa3\xe3\x81\x9f\xe3\x81\xae\xe3\x81\xab\xe3\x80\x82\xe3\x81\xa8\xe3\x82\x8a\xe3\x81\x82\xe3\x81\x88\xe3\x81\x9a\xe3\x82\x88\xe3\x81\x8b\xe3\x81\xa3\xe3\x81\x9f\xef\xbc\x81\xe3\x83\x9e\xe3\x83\x9e\xe8\xa1\x8c\xe3\x81\xa3\xe3\x81\x9f\xe3\x82\x89\xe3\x82\x88\xe3\x82\x8d\xe3\x81\x97\xe3\x81\x8f\xe3\x81\xad\xe3\x80\x9c\xef\xbc\x81'
p4154
I105
sS'alive'
p4155
I105
sS'hair'
p4156
I98
sS'af.\xe2\x80\x9d'
p4157
I105
sS'building\xe3\x82\x88\xe3\x81\xad\xef\xbc\x9f\xe3\x81\x93\xe3\x82\x93\xe3\x81\xaa\xe6\xb4\x92\xe8\x90\xbd\xe3\x81\x9f\xe3\x83\xa9\xe3\x82\xa4\xe3\x83\x88\xe3\x82\xa2\xe3\x83\x83\xe3\x83\x97\xe3\x81\x97\xe3\x81\xa6\xe3\x81\xaa\xe3\x81\x84\xe2\x80\xa6\xe5\x86\x99\xe7\x9c\x9f\xe3\x81\xa3\xe3\x81\xa6\xe6\x80\x96\xe3\x81\x84\xe3\x82\x88\xe3\x81\xad\xef\xbc\x88\xef\xbc\xbe\xcf\x89\xef\xbc\xbe\xef\xbc\x89'
p4158
I105
sS'handels'
p4159
I103
sS'shes'
p4160
I103
sS"why'd"
p4161
I105
sS'need/want'
p4162
I105
sS'home'
p4163
I82
sS"school's"
p4164
I105
sS'blade'
p4165
I105
sS'hamun'
p4166
I105
sS'methodist'
p4167
I105
sS'happens'
p4168
I102
sS'quidditch'
p4169
I105
sS'aesthetically'
p4170
I105
sS'lead'
p4171
I104
sS'stores)'
p4172
I105
sS'literally'
p4173
I98
sS'lean'
p4174
I104
sS'morris'
p4175
I105
sS'constantly'
p4176
I105
sS'ese'
p4177
I104
sS'does'
p4178
I89
sS'passion'
p4179
I105
sS'\xe3\x83\x9e\xe3\x83\x9e\xe3\x81\xaf\xe3\x81\xbe\xe3\x81\x98\xe3\x82\x84\xe3\x81\xb0\xe3\x81\x84\xe3\x82\x88\xe3\x81\xac\xe7\xac\x91\xef\xbc\x81'
p4180
I105
sS'wendy'
p4181
I105
sS'screwed'
p4182
I105
sS'tmi'
p4183
I105
sS"chre's"
p4184
I105
sS'speak'
p4185
I105
sS'chains'
p4186
I105
sS'sdsu'
p4187
I105
sS'ends7)'
p4188
I105
sS"ralph's"
p4189
I105
sS'pepper'
p4190
I105
sS'woah'
p4191
I105
sS'schedule'
p4192
I103
sS'bunso'
p4193
I105
sS'bowling'
p4194
I105
sS'brackin'
p4195
I105
sS'how'
p4196
I52
sS'murdered'
p4197
I105
sS'np'
p4198
I105
sS'worthy'
p4199
I105
sS'naps'
p4200
I105
sS'imaginary'
p4201
I105
sS'\xd9\x85\xd9\x86'
p4202
I104
sS'paste'
p4203
I105
sS'hiding'
p4204
I105
sS'inconsiderate'
p4205
I105
sS'sister'
p4206
I97
sS':-)'
p4207
I104
sS'puts'
p4208
I104
sS'self"'
p4209
I105
sS'getting'
p4210
I85
sS'universe'
p4211
I105
sS'mommy'
p4212
I105
sS'trainer\xe2\x80\xa6'
p4213
I105
sS'louisville'
p4214
I105
sS'angeles'
p4215
I105
sS'cmonman'
p4216
I105
sS'swear'
p4217
I102
sS'sweat'
p4218
I105
sS'\xd9\x83\xd8\xa7\xd9\x86\xd8\xaa'
p4219
I105
sS'tongue'
p4220
I105
sS'shazam'
p4221
I105
sS'swimming'
p4222
I105
sS'herbs'
p4223
I105
sS'own'
p4224
I98
sS'letters'
p4225
I105
sS'citas'
p4226
I105
sS'pussy'
p4227
I104
sS'prius'
p4228
I105
sS'washington'
p4229
I105
sS'socks'
p4230
I105
sS'fundraiser'
p4231
I105
sS'playoff'
p4232
I104
sS'weather'
p4233
I102
sS'female'
p4234
I105
sS'whos'
p4235
I105
sS'ronney'
p4236
I105
sS'van'
p4237
I103
sS'legends'
p4238
I105
sS'val'
p4239
I105
sS'transfer'
p4240
I104
sS'vegetables'
p4241
I105
sS'spots'
p4242
I105
sS'kidding'
p4243
I104
sS'whaaaaatt'
p4244
I105
sS'accountant'
p4245
I105
sS'badder'
p4246
I105
sS'biggest'
p4247
I105
sS'goin'
p4248
I105
sS'\xe3\x82\xaf\xe3\x83\xa9\xe3\x82\xb9\xe3\x81\xae\xe5\x89\xb2\xe3\x82\x8a\xe6\x8c\xaf\xe3\x82\x8a\xe4\xb8\x80\xe4\xbd\x93\xe3\x81\xa9\xe3\x81\x86\xe3\x81\xaa\xe3\x81\xa3\xe3\x81\xa6\xe3\x82\x8b\xe3\x81\xaew\xe3\x81\xa6\xe3\x81\x8b\xe3\x83\xa9\xe3\x82\xb9\xe3\x83\x88\xe3\x82\xbb\xe3\x83\xa1\xe3\x82\xb9\xe3\x82\xbf\xe3\x83\xbc\xe5\x8b\x9d\xe3\x81\xa1\xe7\xb5\x84\xe3\x81\x99\xe3\x81\x8ew'
p4249
I105
sS'naturally'
p4250
I105
sS'catalina'
p4251
I105
sS'ghost'
p4252
I105
sS'spells'
p4253
I105
sS'buy'
p4254
I99
sS'north'
p4255
I99
sS'brother\xe2\x9d\xa4\xef\xb8\x8f'
p4256
I105
sS"i've"
p4257
I94
sS'fasho'
p4258
I100
sS'bus'
p4259
I103
sS'brand'
p4260
I105
sS'bitches'
p4261
I98
sS'hw'
p4262
I104
sS'but'
p4263
I22
sS'astro'
p4264
I104
sS'reminds'
p4265
I105
sS'buh'
p4266
I105
sS'hi'
p4267
I99
sS'gain'
p4268
I104
sS'courts'
p4269
I105
sS'"friends'
p4270
I105
sS'coooold'
p4271
I105
sS'hc'
p4272
I105
sS'\xd9\x81\xd9\x8a'
p4273
I104
sS'0-1'
p4274
I105
sS'eat'
p4275
I94
sS'bud'
p4276
I104
sS'he'
p4277
I88
sS'count'
p4278
I104
sS'made'
p4279
I97
sS'dmd'
p4280
I105
sS'sigrid'
p4281
I105
sS'loveyyyy'
p4282
I105
sS'whether'
p4283
I105
sS'wish'
p4284
I89
sS'j'
p4285
I105
sS'\xe3\x81\x97\xe3\x81\x8b\xe3\x82\x82\xe5\xa0\xb4\xe6\x89\x80el'
p4286
I105
sS'signed'
p4287
I104
sS'excitement'
p4288
I105
sS'record'
p4289
I103
sS'dms'
p4290
I105
sS'dmv'
p4291
I105
sS'cake'
p4292
I100
sS'problem'
p4293
I102
sS'pm'
p4294
I105
sS'minutes'
p4295
I103
sS'odds'
p4296
I105
sS"ryan's"
p4297
I105
sS'skating'
p4298
I104
sS'website'
p4299
I105
sS'cmon'
p4300
I105
sS'resting'
p4301
I105
sS'pic'
p4302
I102
sS'topless'
p4303
I105
sS'upsets'
p4304
I105
sS'beats'
p4305
I105
sS'squal'
p4306
I105
sS'periods'
p4307
I105
sS'ink'
p4308
I105
sS'collegiate'
p4309
I105
sS'eric'
p4310
I102
sS'dvd'
p4311
I105
sS'inc'
p4312
I104
sS'diego'
p4313
I104
sS'gym....to'
p4314
I105
sS'45'
p4315
I105
sS'treatment'
p4316
I105
sS'40'
p4317
I105
sS'lately'
p4318
I104
sS'you\xe2\x98\xba\xef\xb8\x8f'
p4319
I105
sS'book'
p4320
I103
sS'details'
p4321
I105
sS'sick'
p4322
I100
sS"janel's"
p4323
I105
sS'habits<>'
p4324
I105
sS'watever'
p4325
I105
sS'illusion'
p4326
I105
sS'dresses'
p4327
I105
sS'looooool'
p4328
I105
sS'sureeeee'
p4329
I105
sS'star'
p4330
I104
sS'plate'
p4331
I105
sS'embracing'
p4332
I105
sS'shery'
p4333
I104
sS'stay'
p4334
I93
sS'roscoes'
p4335
I105
sS'chance'
p4336
I104
sS'kinda'
p4337
I102
sS'nintendo'
p4338
I105
sS'100k'
p4339
I105
sS'sat12-6'
p4340
I105
sS'irvine'
p4341
I105
sS'friends'
p4342
I87
sS'inspiration'
p4343
I104
sS'ave'
p4344
I105
sS'\xe3\x82\x89\xe3\x81\xb6\xe3\x82\x86\xe3\x83\xbc\xe2\x99\xa5\xe5\xa4\x8f\xe3\x81\x8c\xe5\xbe\x85\xe3\x81\xa6\xe3\x81\xaa\xe3\x81\x84(^'
p4345
I105
sS'lupita'
p4346
I105
sS'helping'
p4347
I105
sS'stunt'
p4348
I105
sS'kardashian'
p4349
I105
sS'space'
p4350
I105
sS'jewel'
p4351
I104
sS'4s'
p4352
I105
sS'mychal'
p4353
I104
sS'compete'
p4354
I104
sS'heidi'
p4355
I104
sS'understand'
p4356
I101
sS'"the'
p4357
I104
sS'yummmmm'
p4358
I105
sS'knee'
p4359
I105
sS'kalbi'
p4360
I105
sS'(lin'
p4361
I105
s.