(dp0
S''
p1
I1
sS'neighbors'
p2
I29
sS'all'
p3
I22
sS':)'
p4
I30
sS'whoops'
p5
I30
sS'it\xe2\x80\x9douch'
p6
I30
sS'edm'
p7
I30
sS'four'
p8
I30
sS'sleep'
p9
I29
sS'zinc'
p10
I30
sS'go'
p11
I28
sS'hate'
p12
I28
sS'forget'
p13
I30
sS'whose'
p14
I30
sS'voter'
p15
I30
sS'backup'
p16
I30
sS'tv'
p17
I30
sS'sweetest'
p18
I30
sS'young'
p19
I30
sS'0'
p20
I30
sS'balled'
p21
I30
sS'ahhaha'
p22
I30
sS'lewis'
p23
I30
sS'believe...\xe2\x80\x9d'
p24
I30
sS'lord'
p25
I29
sS'sorry'
p26
I29
sS"shouldn't"
p27
I30
sS'me'
p28
I18
sS'garden'
p29
I29
sS'song'
p30
I30
sS'very'
p31
I30
sS'dessert'
p32
I30
sS"profeta's"
p33
I30
sS'sasha'
p34
I30
sS'lololol'
p35
I30
sS'tho'
p36
I30
sS'worst'
p37
I30
sS'hannah\xe2\x9d\xa4\xef\xb8\x8f'
p38
I30
sS'kitten'
p39
I29
sS'word'
p40
I28
sS'ticket'
p41
I30
sS'0mi'
p42
I30
sS'minute'
p43
I30
sS'school'
p44
I29
sS'did'
p45
I28
sS'die'
p46
I30
sS'gettin'
p47
I30
sS"uni's"
p48
I30
sS'try'
p49
I30
sS'mutumbo'
p50
I30
sS'race'
p51
I30
sS'1-0\xe2\x9a\xbd\xef\xb8\x8f'
p52
I30
sS'muffin&&coffee'
p53
I30
sS'quick'
p54
I30
sS'guy'
p55
I30
sS'barbara'
p56
I30
sS'heading'
p57
I29
sS'bonfire'
p58
I30
sS'clothes'
p59
I30
sS"i'll"
p60
I30
sS'10k'
p61
I30
sS'brave'
p62
I30
sS'says'
p63
I30
sS'tired'
p64
I29
sS'tea'
p65
I30
sS'bacon'
p66
I30
sS'direct'
p67
I30
sS'waking'
p68
I30
sS'video'
p69
I30
sS'dried'
p70
I30
sS'nba'
p71
I30
sS'cactus'
p72
I30
sS'rivera'
p73
I30
sS'virgin'
p74
I30
sS'even'
p75
I29
sS'what'
p76
I25
sS'challs'
p77
I30
sS'bb'
p78
I30
sS'nana'
p79
I30
sS"tonight's"
p80
I30
sS'life....oh'
p81
I30
sS'sweaty'
p82
I30
sS'version'
p83
I29
sS'fuckk'
p84
I30
sS'reconstruction'
p85
I29
sS'new'
p86
I28
sS'learned'
p87
I30
sS'ever'
p88
I27
sS'guns'
p89
I30
sS'kicked'
p90
I30
sS"brady's"
p91
I30
sS'hungover'
p92
I30
sS'never'
p93
I30
sS'commercial'
p94
I30
sS'stared'
p95
I30
sS'here'
p96
I29
sS'mule'
p97
I30
sS'hours'
p98
I30
sS'\xe2\x9d\xa4\xef\xb8\x8f'
p99
I30
sS'let'
p100
I29
sS'sink'
p101
I30
sS'others'
p102
I30
sS'100'
p103
I30
sS'belize'
p104
I30
sS'earthquake'
p105
I30
sS'wait'
p106
I25
sS'great'
p107
I30
sS'voice'
p108
I30
sS'brilliant'
p109
I30
sS'inspired'
p110
I30
sS'bos'
p111
I30
sS'allows'
p112
I30
sS'pounds...a'
p113
I30
sS'itunes'
p114
I30
sS'goalkeeping'
p115
I29
sS'rory'
p116
I30
sS'boo'
p117
I30
sS'cookie'
p118
I30
sS"i'm"
p119
I21
sS'makes'
p120
I30
sS'york'
p121
I30
sS'fantastic'
p122
I30
sS'love'
p123
I18
sS'stayyyyyyyy'
p124
I30
sS'family'
p125
I27
sS'win'
p126
I28
sS'magnitude'
p127
I30
sS'feelings'
p128
I30
sS'fettuchini'
p129
I30
sS'stern'
p130
I30
sS'fight'
p131
I30
sS'singing'
p132
I30
sS'market'
p133
I30
sS'annnnnnnnnnnnnnd'
p134
I30
sS'use'
p135
I30
sS'rancho'
p136
I30
sS'from'
p137
I24
sS'would'
p138
I29
sS'to'
p139
I4
sS'give'
p140
I30
sS'dude'
p141
I29
sS'two'
p142
I28
sS'sherman'
p143
I30
sS'sports'
p144
I30
sS'few'
p145
I29
sS'live'
p146
I29
sS'planted'
p147
I30
sS'call'
p148
I30
sS'debbie'
p149
I30
sS'gorgeous'
p150
I30
sS'indiana'
p151
I30
sS'calc'
p152
I30
sS'until'
p153
I29
sS'today'
p154
I25
sS'more'
p155
I24
sS'tuscaloosa'
p156
I30
sS'door'
p157
I30
sS'holy'
p158
I29
sS'faith'
p159
I30
sS"didn't"
p160
I30
sS'line'
p161
I30
sS'sister'
p162
I29
sS'chocolate'
p163
I30
sS'trail'
p164
I30
sS'train'
p165
I30
sS'adult'
p166
I30
sS'broke'
p167
I30
sS'90'
p168
I30
sS'must'
p169
I29
sS'sabz'
p170
I30
sS'sample'
p171
I30
sS'animals'
p172
I30
sS'player'
p173
I30
sS'this'
p174
I16
sS'work'
p175
I28
sS'roof'
p176
I30
sS'duh'
p177
I30
sS'movies'
p178
I30
sS'cuddle'
p179
I30
sS'can'
p180
I24
sS'freedom'
p181
I30
sS'making'
p182
I25
sS'drops'
p183
I30
sS'my'
p184
I7
sS"humphrey's"
p185
I30
sS'grimes'
p186
I30
sS'beautiful'
p187
I27
sS'challenging'
p188
I30
sS'pusher'
p189
I30
sS'process'
p190
I30
sS'lock'
p191
I30
sS'awesome'
p192
I30
sS'halloween'
p193
I30
sS'terrible'
p194
I30
sS'tad'
p195
I30
sS'heard'
p196
I29
sS'something'
p197
I29
sS'want'
p198
I28
sS'spa'
p199
I30
sS'offense'
p200
I30
sS'keep'
p201
I30
sS'dress'
p202
I29
sS'sis'
p203
I30
sS'audition'
p204
I30
sS'sats'
p205
I30
sS'chilly'
p206
I30
sS'watching'
p207
I27
sS'how'
p208
I22
sS'amazing'
p209
I30
sS'reject'
p210
I30
sS'answer'
p211
I30
sS'gate'
p212
I30
sS'beach'
p213
I29
sS'dd'
p214
I30
sS'gurl'
p215
I30
sS'idk'
p216
I30
sS'map'
p217
I30
sS'unbelievable'
p218
I30
sS'okay'
p219
I29
sS'tried'
p220
I30
sS'staircase'
p221
I30
sS'may'
p222
I29
sS'stop'
p223
I28
sS'wonderful'
p224
I30
sS'after'
p225
I28
sS'spot'
p226
I29
sS'tied'
p227
I30
sS'wrong'
p228
I29
sS'birthday'
p229
I28
sS'mad'
p230
I30
sS'coming'
p231
I28
sS'backyard'
p232
I30
sS"women's"
p233
I30
sS'guys'
p234
I29
sS'grow'
p235
I30
sS'a'
p236
I5
sS'attempt'
p237
I30
sS'anymore'
p238
I30
sS'grandson'
p239
I30
sS'tweeting'
p240
I30
sS'sw'
p241
I30
sS'6-foot-3'
p242
I30
sS'vujacic'
p243
I30
sS'chief'
p244
I29
sS'honestly'
p245
I29
sS'road'
p246
I30
sS'pay'
p247
I30
sS'deconstruction'
p248
I30
sS'alcohol'
p249
I30
sS'jolie'
p250
I30
sS'playing'
p251
I30
sS'talk'
p252
I30
sS'wine'
p253
I29
sS'fifa'
p254
I30
sS'banger'
p255
I30
sS'breaking'
p256
I30
sS'help'
p257
I30
sS"don't"
p258
I23
sS'dirtiest'
p259
I30
sS'over'
p260
I30
sS'soon'
p261
I30
sS'ugg'
p262
I30
sS'years'
p263
I29
sS'ended'
p264
I30
sS'already'
p265
I30
sS'looks'
p266
I28
sS'driving='
p267
I30
sS'niiiiice'
p268
I30
sS'hell'
p269
I30
sS'.....do'
p270
I30
sS'still'
p271
I27
sS'before'
p272
I29
sS'technically'
p273
I30
sS'25'
p274
I30
sS'style'
p275
I30
sS'trail...very'
p276
I30
sS'thank'
p277
I29
sS"he's"
p278
I28
sS'acres'
p279
I30
sS'better'
p280
I29
sS'degrees'
p281
I30
sS'blueberry'
p282
I30
sS'tweets'
p283
I30
sS'weeks'
p284
I30
sS'soccer'
p285
I28
sS'2011'
p286
I30
sS"haven't"
p287
I29
sS'happened'
p288
I30
sS'dad'
p289
I29
sS'then'
p290
I30
sS'them'
p291
I29
sS'good'
p292
I25
sS'hills"'
p293
I30
sS'graphs'
p294
I30
sS'yo'
p295
I30
sS'3'
p296
I30
sS'dan'
p297
I30
sS'killer'
p298
I30
sS'6bedroom'
p299
I30
sS'finish'
p300
I30
sS'scene'
p301
I29
sS'break'
p302
I30
sS'giraffe'
p303
I30
sS'they'
p304
I30
sS'half'
p305
I30
sS'not'
p306
I16
sS'ghanians'
p307
I30
sS'vaughn'
p308
I30
sS'day'
p309
I28
sS'preschool'
p310
I30
sS'&'
p311
I26
sS'name'
p312
I30
sS'leggoooo'
p313
I30
sS'playin'
p314
I30
sS'james'
p315
I29
sS'debating'
p316
I30
sS'fabian'
p317
I30
sS'mode'
p318
I29
sS'each'
p319
I30
sS'americans'
p320
I30
sS'went'
p321
I29
sS'trailer'
p322
I30
sS'luck'
p323
I29
sS'bday'
p324
I30
sS'bonner'
p325
I30
sS'bentley'
p326
I30
sS'capitalized'
p327
I30
sS'doing'
p328
I29
sS'house'
p329
I26
sS'fish'
p330
I30
sS'hard'
p331
I30
sS"party's"
p332
I30
sS'(science'
p333
I30
sS'eve'
p334
I29
sS'dawg'
p335
I30
sS'year'
p336
I29
sS'navy'
p337
I30
sS'logo'
p338
I29
sS'girl'
p339
I27
sS'teams'
p340
I29
sS'extract'
p341
I30
sS'saturday'
p342
I30
sS'out'
p343
I25
sS'rt'
p344
I29
sS'leave'
p345
I30
sS'medallion'
p346
I30
sS'rude'
p347
I30
sS'ernie'
p348
I28
sS'sutherland'
p349
I30
sS'-yes'
p350
I30
sS'tomorrow'
p351
I30
sS'lols'
p352
I30
sS'farm'
p353
I30
sS'seriously'
p354
I30
sS'hill'
p355
I30
sS'stud'
p356
I30
sS'hilarious'
p357
I30
sS'got'
p358
I30
sS"-kelsey's"
p359
I30
sS'shows'
p360
I30
sS'ass'
p361
I30
sS'manaus'
p362
I30
sS'monster'
p363
I29
sS'cutest'
p364
I30
sS'city'
p365
I27
sS'casillas'
p366
I30
sS'friday'
p367
I29
sS'little'
p368
I28
sS'mmm'
p369
I30
sS'california'
p370
I29
sS'conditioning'
p371
I30
sS'put'
p372
I30
sS'wanted'
p373
I30
sS'monologue'
p374
I30
sS'calculator'
p375
I30
sS'advance'
p376
I30
sS'dikembe'
p377
I30
sS'gusta'
p378
I30
sS'yard'
p379
I30
sS'dip'
p380
I30
sS'could'
p381
I29
sS'punk'
p382
I30
sS'so'
p383
I20
sS'round'
p384
I30
sS'thing'
p385
I28
sS'bumper'
p386
I30
sS'davis'
p387
I30
sS'think'
p388
I28
sS'first'
p389
I28
sS'was\xe2\x80\xa6'
p390
I30
sS'naughty'
p391
I30
sS'dont'
p392
I30
sS'champs'
p393
I30
sS'feel'
p394
I27
sS'nazzi'
p395
I30
sS'one'
p396
I25
sS'done'
p397
I26
sS'lol'
p398
I30
sS'suspended'
p399
I30
sS'kidding'
p400
I30
sS'miss'
p401
I30
sS'mojo'
p402
I30
sS'concert'
p403
I30
sS"you're"
p404
I28
sS'horse'
p405
I28
sS'basketball'
p406
I30
sS'silent'
p407
I30
sS'los'
p408
I30
sS'"drop"'
p409
I30
sS'msm'
p410
I30
sS'fml'
p411
I30
sS'cartoon'
p412
I30
sS'their'
p413
I29
sS'attack'
p414
I30
sS'2'
p415
I28
sS'too'
p416
I30
sS'time'
p417
I28
sS'final'
p418
I30
sS'friend'
p419
I30
sS'gabanna'
p420
I30
sS"numba'?.....thanks"
p421
I30
sS'lottery'
p422
I30
sS'lemonade'
p423
I30
sS'that'
p424
I20
sS'mariano'
p425
I30
sS'moscow'
p426
I30
sS'tom'
p427
I30
sS'park'
p428
I26
sS'took'
p429
I30
sS'part'
p430
I30
sS'jordan'
p431
I30
sS'fooled'
p432
I30
sS'believe'
p433
I28
sS'than'
p434
I26
sS'sticker'
p435
I30
sS'obama'
p436
I30
sS'kind'
p437
I29
sS'12'
p438
I30
sS'gotta'
p439
I29
sS'bed'
p440
I30
sS'r'
p441
I30
sS'were'
p442
I29
sS'cards'
p443
I30
sS'feeling'
p444
I30
sS'tractor'
p445
I30
sS'and'
p446
I11
sS'anatomy'
p447
I30
sS'san'
p448
I30
sS'sam'
p449
I30
sS'modern'
p450
I30
sS'mind'
p451
I29
sS'1.9'
p452
I30
sS'sad'
p453
I30
sS'tonight'
p454
I25
sS'say'
p455
I28
sS'mates'
p456
I30
sS'have'
p457
I20
sS'need'
p458
I30
sS'saw'
p459
I29
sS'fading'
p460
I30
sS'marathon'
p461
I30
sS'ray'
p462
I30
sS'ehhhh'
p463
I30
sS'lib'
p464
I30
sS'congrats'
p465
I30
sS'-'
p466
I18
sS'sizdeh'
p467
I30
sS'also'
p468
I29
sS'la.\xe2\x80\x9d'
p469
I30
sS'take'
p470
I28
sS'green'
p471
I29
sS'hills\xe2\x80\xa6'
p472
I29
sS'toughest'
p473
I30
sS'play'
p474
I29
sS'sure'
p475
I27
sS'theatre'
p476
I30
sS'normal'
p477
I30
sS'rappers'
p478
I30
sS'who'
p479
I27
sS'wayy'
p480
I30
sS'musings'
p481
I30
sS'poker'
p482
I30
sS'most'
p483
I29
sS'limbaughthe'
p484
I30
sS'"tell'
p485
I30
sS'nothing'
p486
I30
sS'kay'
p487
I30
sS'playlist'
p488
I30
sS'medal'
p489
I30
sS'why'
p490
I26
sS'forever'
p491
I29
sS'urg'
p492
I30
sS'goodwill'
p493
I30
sS'professor'
p494
I30
sS'proud'
p495
I30
sS'infections'
p496
I30
sS'drive'
p497
I28
sS'field))'
p498
I29
sS'hi'
p499
I30
sS'breathed'
p500
I30
sS"that's"
p501
I26
sS'wow'
p502
I30
sS'came'
p503
I30
sS'son'
p504
I30
sS'finallyyy'
p505
I30
sS'shot'
p506
I29
sS'show'
p507
I29
sS'german'
p508
I30
sS'text'
p509
I30
sS'random'
p510
I30
sS'cheap'
p511
I30
sS'ending'
p512
I30
sS'wanting'
p513
I30
sS'radio'
p514
I29
sS'her"'
p515
I30
sS'find'
p516
I29
sS'wear'
p517
I30
sS'costco'
p518
I29
sS'210'
p519
I30
sS'true'
p520
I30
sS'explain'
p521
I30
sS'dick'
p522
I30
sS'state'
p523
I28
sS'should'
p524
I29
sS'moments'
p525
I30
sS'only'
p526
I30
sS'going'
p527
I30
sS'black'
p528
I30
sS'gotchu'
p529
I30
sS'pretty'
p530
I26
sS'money'
p531
I30
sS'thankful'
p532
I30
sS'knoooowwww'
p533
I30
sS'hope'
p534
I29
sS'palos'
p535
I29
sS'do'
p536
I25
sS'harbaugh'
p537
I30
sS'his'
p538
I28
sS'handle'
p539
I30
sS'goes'
p540
I30
sS'listened'
p541
I30
sS'get'
p542
I23
sS'bend'
p543
I30
sS'dope'
p544
I30
sS'massacre'
p545
I30
sS'watch'
p546
I28
sS'lucky'
p547
I29
sS'feels'
p548
I30
sS'fraud'
p549
I30
sS'nearly'
p550
I30
sS'words'
p551
I30
sS'probably'
p552
I30
sS'sinus'
p553
I30
sS'him'
p554
I30
sS'celebrate'
p555
I30
sS'brain'
p556
I30
sS'officially'
p557
I29
sS'borrow'
p558
I30
sS'morning'
p559
I26
sS'bad'
p560
I30
sS'she'
p561
I29
sS'buy'
p562
I30
sS'aisle'
p563
I30
sS'where'
p564
I30
sS'blew'
p565
I30
sS'disaster'
p566
I30
sS'smooth'
p567
I30
sS'national'
p568
I29
sS'committed'
p569
I30
sS'howlett'
p570
I28
sS'tranquil'
p571
I30
sS'kylie'
p572
I30
sS'see'
p573
I26
sS'angelina'
p574
I30
sS'dumb'
p575
I30
sS'are'
p576
I20
sS'murdered'
p577
I30
sS'cutters...the'
p578
I30
sS'jerseys'
p579
I30
sS'cold'
p580
I30
sS'best'
p581
I28
sS'walking'
p582
I30
sS'said'
p583
I30
sS'so!)'
p584
I30
sS'vitamins'
p585
I30
sS'luv'
p586
I30
sS'movie'
p587
I29
sS'away'
p588
I30
sS'interviewing'
p589
I30
sS'please'
p590
I29
sS'genius'
p591
I30
sS'fans'
p592
I29
sS'won'
p593
I30
sS'"rolling'
p594
I30
sS'pcha'
p595
I30
sS'drawn'
p596
I30
sS'nope'
p597
I30
sS'15th'
p598
I30
sS'bought'
p599
I30
sS'knowing'
p600
I30
sS'blow'
p601
I30
sS'we'
p602
I26
sS'loose'
p603
I30
sS'missing'
p604
I30
sS'screen'
p605
I30
sS'tbd'
p606
I30
sS'boss'
p607
I30
sS'blame'
p608
I30
sS'sleepy-heads'
p609
I30
sS'job'
p610
I29
sS'answers'
p611
I29
sS'wtf'
p612
I28
sS'cousin'
p613
I30
sS'come'
p614
I29
sS'legit'
p615
I30
sS'both'
p616
I30
sS'accident'
p617
I30
sS'last'
p618
I30
sS'always'
p619
I30
sS'many'
p620
I30
sS'taking'
p621
I30
sS'against'
p622
I30
sS'estates'
p623
I26
sS'spurs'
p624
I30
sS'whole'
p625
I29
sS"can't"
p626
I23
sS'exaaaactly'
p627
I30
sS'riddle'
p628
I30
sS'6'
p629
I30
sS'$200k'
p630
I30
sS'magicnickie'
p631
I30
sS'point'
p632
I30
sS'seems'
p633
I30
sS"couldn't"
p634
I30
sS'kings'
p635
I29
sS'trust'
p636
I30
sS'expensive'
p637
I30
sS'5432'
p638
I30
sS'pv'
p639
I28
sS'addition'
p640
I30
sS"it's"
p641
I23
sS'intimidating'
p642
I30
sS'(nansen'
p643
I29
sS'shout'
p644
I30
sS'been'
p645
I29
sS'teacher'
p646
I30
sS'logic.\xe2\x80\x9d-'
p647
I30
sS'much'
p648
I30
sS'far'
p649
I30
sS'stadium'
p650
I30
sS'home('
p651
I30
sS'wants'
p652
I30
sS'resting'
p653
I30
sS'life'
p654
I28
sS'flight'
p655
I30
sS'bedar'
p656
I30
sS'league'
p657
I30
sS'fire'
p658
I30
sS'turned'
p659
I30
sS"what's"
p660
I27
sS'homies'
p661
I30
sS'finale'
p662
I30
sS'irvine'
p663
I30
sS"doesn't"
p664
I30
sS"thing...can't"
p665
I30
sS'ooh'
p666
I30
sS'child'
p667
I30
sS'mcw'
p668
I30
sS'palladium'
p669
I30
sS'those'
p670
I29
sS'chill'
p671
I30
sS'case'
p672
I30
sS'sixes'
p673
I29
sS'myself'
p674
I30
sS'east'
p675
I30
sS'look'
p676
I30
sS'solid'
p677
I29
sS'vanilla'
p678
I30
sS'air'
p679
I30
sS'will'
p680
I27
sS'while'
p681
I30
sS'woooooooooooooooo'
p682
I30
sS'hahaha'
p683
I27
sS'cancelled'
p684
I30
sS'hunts'
p685
I30
sS'mistake'
p686
I30
sS'liberals'
p687
I30
sS'hoping'
p688
I30
sS'is'
p689
I8
sS'purse'
p690
I30
sS'it'
p691
I13
sS'rip'
p692
I30
sS'middle'
p693
I30
sS'someone'
p694
I30
sS'im'
p695
I28
sS'clinging'
p696
I30
sS'in'
p697
I9
sS'ready'
p698
I30
sS'ave'
p699
I30
sS"this...i'm"
p700
I30
sS'if'
p701
I25
sS'funny'
p702
I30
sS'pat'
p703
I30
sS'blount'
p704
I30
sS'things'
p705
I30
sS'make'
p706
I30
sS'same'
p707
I29
sS'clearly'
p708
I30
sS'ahahhahah'
p709
I30
sS'another'
p710
I30
sS'followers'
p711
I30
sS'coworkers'
p712
I30
sS'party'
p713
I27
sS'liberal'
p714
I30
sS'filner'
p715
I30
sS"70's"
p716
I30
sS'tayswift'
p717
I30
sS'used'
p718
I30
sS'ratings'
p719
I30
sS'iker'
p720
I30
sS'drink'
p721
I30
sS'yesterday'
p722
I30
sS'hane'
p723
I30
sS'cheers'
p724
I30
sS'levels'
p725
I30
sS'cleaning'
p726
I30
sS'sisters'
p727
I29
sS'pedal'
p728
I30
sS'cupcake'
p729
I30
sS'totally'
p730
I29
sS'tradition'
p731
I30
sS'work!('
p732
I30
sS'safe'
p733
I30
sS'noodle'
p734
I30
sS'off'
p735
I25
sS'older'
p736
I30
sS'i'
p737
I3
sS'hushed'
p738
I30
sS'phat'
p739
I30
sS'well'
p740
I27
sS'antonio'
p741
I30
sS'thought'
p742
I30
sS'without'
p743
I30
sS'oops'
p744
I30
sS'the'
p745
I2
sS'greville'
p746
I29
sS'spend'
p747
I30
sS'included'
p748
I30
sS'usual'
p749
I30
sS'summer'
p750
I30
sS'\xe2\x98\xba\xef\xb8\x8f'
p751
I30
sS'just'
p752
I20
sS'less'
p753
I30
sS'being'
p754
I30
sS'mills'
p755
I30
sS"should've"
p756
I30
sS'greys'
p757
I30
sS'thaddeus'
p758
I30
sS'kill'
p759
I30
sS'greetings'
p760
I30
sS'questions'
p761
I30
sS'yes'
p762
I30
sS'olds'
p763
I30
sS'yet'
p764
I30
sS'happiness'
p765
I30
sS'begin'
p766
I30
sS'hai'
p767
I29
sS'now'
p768
I30
sS'hills'
p769
I26
sS'icejjfish'
p770
I30
sS'cup'
p771
I29
sS'thinking'
p772
I29
sS'had'
p773
I29
sS'cuz'
p774
I30
sS'silver'
p775
I30
sS'lets'
p776
I29
sS'belongs'
p777
I30
sS'ahhhh'
p778
I30
sS'4'
p779
I30
sS'easy'
p780
I30
sS'aps'
p781
I30
sS'ohh'
p782
I30
sS'has'
p783
I30
sS'excited'
p784
I29
sS'drugging/tranquilizing'
p785
I30
sS'real'
p786
I29
sS'gonna'
p787
I29
sS'early'
p788
I30
sS'game'
p789
I22
sS'\xe2\x80\x9cif'
p790
I30
sS'know'
p791
I25
sS'mom'
p792
I28
sS'show!you'
p793
I30
sS'world'
p794
I30
sS'poses'
p795
I30
sS'rocky'
p796
I30
sS'naturally'
p797
I30
sS'conversing'
p798
I30
sS'like'
p799
I19
sS'onion'
p800
I30
sS'50'
p801
I30
sS'darn'
p802
I30
sS'oddly'
p803
I30
sS'gimme'
p804
I30
sS'surgery'
p805
I30
sS'night'
p806
I26
sS'bruin'
p807
I30
sS'accidentally'
p808
I30
sS'portuguese'
p809
I30
sS'because'
p810
I30
sS'old'
p811
I28
sS'saturdays'
p812
I30
sS'people'
p813
I30
sS'fucking'
p814
I30
sS'scared'
p815
I30
sS'duck'
p816
I30
sS'some'
p817
I24
sS'back'
p818
I25
sS'oh'
p819
I30
sS'hair'
p820
I30
sS'brian'
p821
I30
sS'candy'
p822
I30
sS'incubus'
p823
I30
sS'dear'
p824
I30
sS'home'
p825
I26
sS'guess'
p826
I30
sS'happens'
p827
I30
sS'graduation'
p828
I30
sS'mafia'
p829
I30
sS'for'
p830
I12
sS'literally'
p831
I29
sS'fox'
p832
I30
sS'does'
p833
I28
sS'christmas'
p834
I26
sS'cheekoh'
p835
I30
sS'be'
p836
I26
sS'blowing'
p837
I30
sS'dolce'
p838
I30
sS'business'
p839
I29
sS'laker'
p840
I30
sS'step'
p841
I30
sS'nowhere'
p842
I30
sS'santa'
p843
I30
sS'graduated'
p844
I30
sS'crap'
p845
I30
sS'insanity'
p846
I30
sS'by'
p847
I28
sS'on'
p848
I14
sS'about'
p849
I21
sS'wreak'
p850
I30
sS'ok'
p851
I29
sS'working'
p852
I30
sS'anything'
p853
I29
sS'getting'
p854
I26
sS'*in'
p855
I30
sS'of'
p856
I10
sS'months'
p857
I28
sS'favorite'
p858
I30
sS'truck'
p859
I30
sS'o'
p860
I30
sS'angeles'
p861
I30
sS'stand'
p862
I30
sS'own'
p863
I30
sS'mean'
p864
I29
sS'hahahah'
p865
I30
sS'or'
p866
I28
sS'dancing'
p867
I30
sS'hubs'
p868
I30
sS'ladies'
p869
I30
sS'acceptance'
p870
I30
sS'creativity'
p871
I30
sS'into'
p872
I30
sS'democrat'
p873
I30
sS'down'
p874
I29
sS'chris'
p875
I30
sS'carlton'
p876
I30
sS'whata'
p877
I30
sS'wade'
p878
I30
sS'annoys'
p879
I30
sS'pointless'
p880
I30
sS'your'
p881
I22
sS'clutch'
p882
I30
sS'methods'
p883
I30
sS'tie/draw'
p884
I30
sS'brownies'
p885
I30
sS'her'
p886
I29
sS'world....patty'
p887
I30
sS'there'
p888
I28
sS'hey'
p889
I29
sS'long'
p890
I26
sS'tame'
p891
I30
sS'start'
p892
I30
sS'way'
p893
I25
sS'greatness'
p894
I30
sS'was'
p895
I17
sS'happy'
p896
I29
sS'mornings'
p897
I30
sS'north'
p898
I30
sS"i've"
p899
I30
sS'yayy'
p900
I30
sS'fireworks'
p901
I30
sS'but'
p902
I22
sS'yeah'
p903
I30
sS'heat'
p904
I30
sS'construction'
p905
I30
sS'gibs'
p906
I30
sS'\xef\x91\x8d'
p907
I30
sS'trying'
p908
I29
sS'with'
p909
I15
sS'he'
p910
I26
sS'count'
p911
I30
sS'selfish'
p912
I30
sS'rush'
p913
I30
sS'made'
p914
I28
sS'places'
p915
I30
sS'wife'
p916
I30
sS'home\xe2\x9d\xa4\xef\xb8\x8f'
p917
I30
sS'up'
p918
I25
sS'us'
p919
I29
sS'tell'
p920
I29
sS'record'
p921
I30
sS'persian'
p922
I30
sS'tones'
p923
I30
sS'pumped'
p924
I30
sS'problem'
p925
I29
sS'minutes'
p926
I30
sS'agree'
p927
I30
sS'uc'
p928
I30
sS'gone'
p929
I30
sS'v'
p930
I30
sS'hotter'
p931
I30
sS'classic'
p932
I28
sS'universal'
p933
I30
sS'am'
p934
I30
sS'an'
p935
I29
sS'as'
p936
I27
sS'replica'
p937
I30
sS'evening'
p938
I30
sS'at'
p939
I19
sS'our'
p940
I28
sS'girlfriend'
p941
I30
sS'dammit'
p942
I30
sS'himself'
p943
I30
sS'trip'
p944
I30
sS'shit'
p945
I28
sS'squirrel'
p946
I30
sS'again'
p947
I30
sS'strikers'
p948
I30
sS'yoga'
p949
I29
sS'upcoming'
p950
I30
sS'dying'
p951
I30
sS'no'
p952
I20
sS'open'
p953
I30
sS'nah'
p954
I30
sS'when'
p955
I28
sS'ticktocker'
p956
I30
sS'reality'
p957
I30
sS'apricots'
p958
I30
sS'forgivable'
p959
I30
sS'winning'
p960
I30
sS'details'
p961
I30
sS'sick'
p962
I30
sS'culver'
p963
I30
sS'intelligence'
p964
I30
sS'you'
p965
I6
sS'really'
p966
I28
sS'smell'
p967
I30
sS'nice'
p968
I30
sS'championship'
p969
I30
sS'brothers'
p970
I30
sS'monday'
p971
I29
sS'af'
p972
I30
sS'welcome'
p973
I29
sS'occurred'
p974
I30
sS'waving'
p975
I30
sS'town'
p976
I30
sS'bingo...yep'
p977
I30
sS'allowing'
p978
I30
sS'rolling'
p979
I24
sS'detox'
p980
I30
sS'friends'
p981
I29
sS'finals'
p982
I30
sS'pool'
p983
I30
sS'goin'
p984
I30
sS'ago'
p985
I29
sS'max'
p986
I30
sS'castaway'
p987
I30
sS'longer'
p988
I30
sS'sore'
p989
I30
sS'blinks'
p990
I30
sS'lasted'
p991
I30
sS'hello'
p992
I30
sS'u'
p993
I28
sS'banquets'
p994
I30
sS'verdes'
p995
I29
sS'alright'
p996
I30
sS'having'
p997
I30
sS'songs'
p998
I30
s.