(dp0
S''
p1
I5
sS'limited'
p2
I61
sS'd\xc3\xada'
p3
I62
sS'pardon'
p4
I62
sS'ciao'
p5
I48
sS'whoops'
p6
I62
sS'both'
p7
I61
sS'four'
p8
I62
sS'cool;)'
p9
I62
sS"friend's"
p10
I62
sS'hanging'
p11
I62
sS'mansion'
p12
I61
sS'hate'
p13
I55
sS'skeleton'
p14
I62
sS'porno'
p15
I62
sS'buddy'
p16
I60
sS'tweet'
p17
I61
sS'bike'
p18
I61
sS'under'
p19
I62
sS'lord'
p20
I61
sS'sorry'
p21
I59
sS'pride'
p22
I61
sS'worth'
p23
I61
sS'sinking'
p24
I62
sS'updated'
p25
I62
sS'every'
p26
I61
sS'updates'
p27
I62
sS'st.pactricks'
p28
I62
sS'tickets'
p29
I61
sS'school'
p30
I60
sS'internally'
p31
I62
sS'skills'
p32
I62
sS'venue'
p33
I62
sS'wednesday'
p34
I60
sS'deadline'
p35
I62
sS'shlep'
p36
I62
sS'*xo'
p37
I62
sS'clothes'
p38
I62
sS'"haulin\''
p39
I62
sS'-oscar'
p40
I62
sS'japanese'
p41
I62
sS'followers...;)'
p42
I62
sS'chef'
p43
I62
sS'miniatures'
p44
I62
sS'fabulous'
p45
I60
sS'7th'
p46
I61
sS'others)'
p47
I61
sS'blue'
p48
I60
sS'+'
p49
I62
sS'fingers'
p50
I62
sS'emma'
p51
I62
sS'selena'
p52
I62
sS'designing'
p53
I62
sS'nev'
p54
I62
sS'new'
p55
I38
sS'tips'
p56
I61
sS'ever'
p57
I61
sS'disney'
p58
I62
sS'zack'
p59
I62
sS'avery'
p60
I62
sS'never'
p61
I58
sS"how've"
p62
I62
sS'here'
p63
I58
sS'\xe2\x9d\xa4\xef\xb8\x8f'
p64
I61
sS'studio'
p65
I60
sS'path'
p66
I62
sS'goodmorning'
p67
I62
sS'"as'
p68
I62
sS'kids'
p69
I60
sS'magic;)'
p70
I62
sS'stevie'
p71
I62
sS'k'
p72
I62
sS'niner'
p73
I62
sS'"why'
p74
I62
sS'piercing'
p75
I62
sS'guide'
p76
I62
sS'-hooray'
p77
I62
sS'credit'
p78
I60
sS"i'd"
p79
I61
sS'12/1/13'
p80
I62
sS'\xe2\x9c\x94\xef\xb8\x8f'
p81
I62
sS'que'
p82
I56
sS"i'm"
p83
I23
sS'settled'
p84
I62
sS'-riding'
p85
I62
sS'fantastic'
p86
I61
sS'-enjoy:)'
p87
I62
sS'pat;)'
p88
I62
sS'pussylarren'
p89
I62
sS'bro'
p90
I60
sS'cocaine'
p91
I62
sS'landscape'
p92
I62
sS'-hope'
p93
I60
sS'would'
p94
I56
sS'indians'
p95
I62
sS'typh'
p96
I62
sS'call'
p97
I56
sS'preview'
p98
I62
sS'type'
p99
I62
sS'tell'
p100
I61
sS'traditional\xe2\x80\xa6'
p101
I62
sS'holy'
p102
I62
sS'successful'
p103
I62
sS'culver'
p104
I49
sS'haha'
p105
I61
sS'preview;)'
p106
I62
sS'"i'
p107
I62
sS'phone'
p108
I58
sS'warm'
p109
I61
sS'teaching'
p110
I62
sS'92'
p111
I62
sS'pouch'
p112
I62
sS'94'
p113
I62
sS'hola'
p114
I60
sS'must'
p115
I59
sS'shoot'
p116
I61
sS'enjoying'
p117
I62
sS'join'
p118
I60
sS'-good'
p119
I61
sS'work'
p120
I47
sS'mi'
p121
I62
sS'know...asap:-'
p122
I62
sS'movies'
p123
I61
sS'henry'
p124
I62
sS"-let's"
p125
I62
sS'my'
p126
I8
sS'a&f'
p127
I62
sS'clock-work'
p128
I62
sS'decorative'
p129
I57
sS'wana'
p130
I62
sS'i-405'
p131
I60
sS'give'
p132
I59
sS'ready'
p133
I60
sS'foods'
p134
I62
sS'chanda'
p135
I62
sS'irking'
p136
I62
sS'want'
p137
I50
sS'keep'
p138
I60
sS'end'
p139
I59
sS'trill'
p140
I62
sS'too;)'
p141
I62
sS'hoo'
p142
I62
sS'damage'
p143
I62
sS'how'
p144
I48
sS'amazing'
p145
I54
sS'adjacent'
p146
I62
sS'futboleros'
p147
I62
sS'audi'
p148
I62
sS'beach'
p149
I49
sS'hoy'
p150
I62
sS'it!"'
p151
I62
sS'becky'
p152
I62
sS'description'
p153
I62
sS"sandra's"
p154
I62
sS'bday'
p155
I62
sS'jalen'
p156
I62
sS'after'
p157
I59
sS'sleeepppppp'
p158
I62
sS'lax'
p159
I62
sS'meaningful'
p160
I62
sS'excited'
p161
I53
sS'las'
p162
I61
sS'appreciate'
p163
I62
sS'ultimate'
p164
I62
sS'goodbye'
p165
I61
sS'button'
p166
I62
sS'order'
p167
I61
sS'salon'
p168
I62
sS'deco'
p169
I61
sS'muffin'
p170
I62
sS'over'
p171
I56
sS'phi68_iou1'
p172
I62
sS'chronically'
p173
I62
sS'dapper'
p174
I62
sS'before'
p175
I59
sS'ima'
p176
I61
sS'textile'
p177
I61
sS'fit'
p178
I62
sS'clc'
p179
I62
sS'better'
p180
I62
sS'405'
p181
I50
sS'production'
p182
I62
sS'compelling'
p183
I62
sS'bows;)'
p184
I62
sS'corinthians'
p185
I62
sS'weeks'
p186
I61
sS'prius'
p187
I62
sS'then'
p188
I46
sS'them'
p189
I54
sS'-see'
p190
I56
sS'tweets;)'
p191
I61
sS'break'
p192
I62
sS'band'
p193
I62
sS'therapy'
p194
I62
sS'they'
p195
I46
sS'-totally'
p196
I62
sS'one'
p197
I38
sS'rental'
p198
I62
sS'headboard'
p199
I62
sS'debut'
p200
I62
sS'chuck'
p201
I61
sS'rocks'
p202
I62
sS'newport'
p203
I62
sS'each'
p204
I61
sS'went'
p205
I60
sS'side'
p206
I62
sS'luck'
p207
I49
sS'i/we'
p208
I62
sS'mda'
p209
I62
sS'allan'
p210
I62
sS'saturday'
p211
I61
sS'rt'
p212
I60
sS'network'
p213
I62
sS'driving'
p214
I58
sS'god'
p215
I61
sS'sms'
p216
I62
sS'sand'
p217
I62
sS'cool:)'
p218
I62
sS'got'
p219
I43
sS'stoge'
p220
I62
sS'turning'
p221
I62
sS'fave'
p222
I62
sS'free'
p223
I58
sS'standard'
p224
I62
sS'favs'
p225
I62
sS'wanted'
p226
I62
sS'westside'
p227
I60
sS'ever.\xe2\x80\xa6'
p228
I62
sS'dammit'
p229
I62
sS'recovering'
p230
I62
sS'photographers'
p231
I62
sS'starts'
p232
I62
sS'days'
p233
I62
sS'ups'
p234
I62
sS'silicon'
p235
I62
sS'renew'
p236
I61
sS"today's"
p237
I62
sS'signature'
p238
I61
sS'loud'
p239
I61
sS'bite'
p240
I62
sS'tijuana'
p241
I62
sS'enjoy'
p242
I59
sS'artistry'
p243
I62
sS'industrial'
p244
I62
sS'-now'
p245
I62
sS'staying'
p246
I62
sS'hook'
p247
I62
sS'delicious'
p248
I58
sS'timothy'
p249
I62
sS'service'
p250
I61
sS'top'
p251
I62
sS'girls'
p252
I60
sS'twisted'
p253
I62
sS'needed'
p254
I62
sS'too'
p255
I40
sS'chugging'
p256
I62
sS'hollywood'
p257
I57
sS'legs'
p258
I62
sS'curtains'
p259
I62
sS'leaking'
p260
I62
sS'took'
p261
I61
sS'unscrewing'
p262
I62
sS'brushed'
p263
I61
sS'toronto'
p264
I62
sS'mercy'
p265
I61
sS'upholstery'
p266
I62
sS'kindness:)'
p267
I62
sS'final'
p268
I62
sS'project'
p269
I62
sS'matter'
p270
I62
sS'expo'
p271
I60
sS'cmeg-south'
p272
I62
sS'devious'
p273
I62
sS'10th'
p274
I62
sS'bridge'
p275
I62
sS'rad'
p276
I62
sS'fashion'
p277
I60
sS'runner'
p278
I62
sS'modern'
p279
I62
sS'mind'
p280
I61
sS'mine'
p281
I61
sS'talking'
p282
I62
sS'seed'
p283
I61
sS'-hello'
p284
I61
sS'mins'
p285
I62
sS'haha-'
p286
I62
sS'strength'
p287
I62
sS'do"'
p288
I62
sS'-'
p289
I51
sS'snow'
p290
I62
sS'brandon'
p291
I61
sS'-ellen'
p292
I62
sS'bitchhhhh'
p293
I62
sS'even'
p294
I61
sS'\xc2\xa1que'
p295
I62
sS'finding'
p296
I62
sS'shall'
p297
I62
sS'uuuuuuuup'
p298
I62
sS'audition'
p299
I62
sS'gallagher'
p300
I62
sS'glow'
p301
I62
sS'stories...:-'
p302
I62
sS'micholden'
p303
I62
sS'camp'
p304
I61
sS'metal'
p305
I61
sS'\xe3\x83\xa2\xe3\x83\xb3\xe3\x83\xad\xe3\x83\xbc\xe3\x81\xae\xe6\x89\x8b\xe5\xbd\xa2\xe3\x81\xa0\xe3\x82\x88\xef\xbd\x9e'
p306
I62
sS'freeway'
p307
I60
sS'definitely'
p308
I61
sS'tech'
p309
I61
sS'takako'
p310
I62
sS'scream'
p311
I62
sS'incorporate'
p312
I62
sS'+join'
p313
I62
sS'inspire'
p314
I62
sS'lizz'
p315
I60
sS'meetings'
p316
I62
sS'queen'
p317
I61
sS'ending'
p318
I62
sS'pops'
p319
I62
sS'colors'
p320
I59
sS'radio'
p321
I61
sS'sneaking'
p322
I62
sS'earth'
p323
I62
sS'tours!\xe2\x80\xa6'
p324
I62
sS'you:)'
p325
I60
sS'sharks'
p326
I62
sS'ment'
p327
I62
sS'explain'
p328
I62
sS'sugar'
p329
I62
sS'theme'
p330
I62
sS'pactricks'
p331
I62
sS'rich'
p332
I62
sS'wearing'
p333
I59
sS'do'
p334
I46
sS'dl'
p335
I62
sS'under-sourced'
p336
I62
sS'colorful'
p337
I62
sS'wide'
p338
I62
sS'-something'
p339
I62
sS'de'
p340
I61
sS'stop'
p341
I57
sS'coast'
p342
I62
sS'watermelon'
p343
I62
sS'12-3'
p344
I62
sS'vicariously'
p345
I62
sS'bar'
p346
I62
sS'covering'
p347
I62
sS'dias'
p348
I62
sS"children's"
p349
I62
sS'bad'
p350
I60
sS'architecture'
p351
I62
sS'geary'
p352
I62
sS'cerca'
p353
I62
sS'w/'
p354
I58
sS'liquor'
p355
I61
sS'not?"'
p356
I62
sS'nun'
p357
I62
sS'araksya'
p358
I62
sS'hammer'
p359
I62
sS'best'
p360
I47
sS'said'
p361
I60
sS'lots'
p362
I61
sS'away'
p363
I61
sS't-mobile'
p364
I61
sS'bien'
p365
I62
sS"there's"
p366
I61
sS'southerncalifornia'
p367
I62
sS'we'
p368
I15
sS'men'
p369
I62
sS'omg'
p370
I59
sS'nature'
p371
I62
sS'wo'
p372
I62
sS'fruits'
p373
I62
sS'(los'
p374
I60
sS'wtf'
p375
I61
sS'news'
p376
I62
sS'laman'
p377
I62
sS'kitchen'
p378
I54
sS'cop'
p379
I62
sS'met'
p380
I61
sS'compton'
p381
I62
sS'ahora'
p382
I62
sS'house;)'
p383
I62
sS'against'
p384
I62
sS'participating'
p385
I61
sS'players'
p386
I62
sS'games'
p387
I62
sS'faces'
p388
I62
sS'gals;)'
p389
I62
sS'josh'
p390
I62
sS'canyon'
p391
I62
sS'pillows;)'
p392
I62
sS'trust'
p393
I62
sS'stubby'
p394
I62
sS'contestants'
p395
I62
sS'bikinis'
p396
I62
sS'three'
p397
I61
sS'been'
p398
I56
sS'much'
p399
I52
sS'decor..:)'
p400
I62
sS'interest'
p401
I62
sS'expected'
p402
I62
sS'warmth'
p403
I62
sS'pillow;)'
p404
I62
sS'website'
p405
I62
sS'life'
p406
I55
sS'all;)'
p407
I62
sS"-here's"
p408
I62
sS'relaxing'
p409
I62
sS'tweet-up'
p410
I61
sS'google:\xe2\x80\xa6'
p411
I62
sS'mcd'
p412
I62
sS'few...;)'
p413
I62
sS'sections:)'
p414
I62
sS'dave'
p415
I62
sS'goodnight:)'
p416
I62
sS'personally'
p417
I62
sS'catch'
p418
I61
sS'worked'
p419
I61
sS'spin'
p420
I62
sS'has'
p421
I53
sS'mustangs'
p422
I62
sS'n'
p423
I62
sS'near'
p424
I62
sS'aid'
p425
I62
sS'chilling'
p426
I62
sS'jeffrey:)'
p427
I62
sS'seven'
p428
I62
sS'"a'
p429
I62
sS'3:30;)'
p430
I62
sS'is'
p431
I14
sS'sushi'
p432
I62
sS'it'
p433
I17
sS'player'
p434
I62
sS'cant'
p435
I61
sS'im'
p436
I59
sS'tahhhhhhh'
p437
I62
sS'in'
p438
I7
sS'ig'
p439
I61
sS'if'
p440
I48
sS'anythjng'
p441
I62
sS'things'
p442
I62
sS'make'
p443
I53
sS'"punishment"'
p444
I62
sS'bella'
p445
I62
sS'\xc2\xa1listo'
p446
I62
sS'bunny'
p447
I61
sS'elli'
p448
I62
sS'pick'
p449
I62
sS'coachella'
p450
I62
sS'rain'
p451
I61
sS'hand'
p452
I61
sS'renaissance'
p453
I62
sS'fridays'
p454
I62
sS'kim'
p455
I62
sS'supper'
p456
I62
sS'1:00-2:00'
p457
I62
sS'thx'
p458
I62
sS'dmvs'
p459
I62
sS'congrats'
p460
I54
sS'smokes'
p461
I62
sS'owens\xe2\x80\x9d'
p462
I62
sS'tho'
p463
I60
sS'mother'
p464
I61
sS'the'
p465
I1
sS'yours'
p466
I61
sS'boyhood'
p467
I62
sS'just'
p468
I33
sS'trilled'
p469
I59
sS'photo'
p470
I59
sS'foundation)'
p471
I62
sS'thanks'
p472
I28
sS'july\xe2\x80\xa6'
p473
I62
sS'yes'
p474
I47
sS'yet'
p475
I62
sS'adding'
p476
I59
sS'broncos'
p477
I62
sS'hills'
p478
I61
sS'photographer'
p479
I62
sS'had'
p480
I51
sS'wings'
p481
I62
sS'ooooh'
p482
I62
sS'shout'
p483
I62
sS'potential'
p484
I62
sS'collections'
p485
I62
sS'save'
p486
I61
sS'waordie'
p487
I62
sS'boxed'
p488
I61
sS'vehicles)'
p489
I61
sS'natural\xe2\x80\xa6'
p490
I62
sS'boxes'
p491
I60
sS'3pm'
p492
I62
sS'shadow'
p493
I62
sS'unique'
p494
I62
sS'dreams'
p495
I60
sS'desire'
p496
I62
sS'bobby'
p497
I62
sS'cooler'
p498
I62
sS'50'
p499
I62
sS'52'
p500
I62
sS'remind'
p501
I62
sS'night'
p502
I55
sS'notorious'
p503
I62
sS'security'
p504
I62
sS'right'
p505
I53
sS'old'
p506
I61
sS'deal'
p507
I62
sS'people'
p508
I57
sS'hoover'
p509
I62
sS'dear'
p510
I62
sS'pain'
p511
I62
sS'creep'
p512
I62
sS'cooper'
p513
I62
sS'trace'
p514
I62
sS'for'
p515
I9
sS'snapchatted'
p516
I62
sS'fox'
p517
I62
sS'visit;)'
p518
I62
sS'creative'
p519
I62
sS'petrol'
p520
I61
sS'soir\xc3\xa9e'
p521
I62
sS'umm'
p522
I62
sS'foo'
p523
I62
sS'adorable'
p524
I62
sS'christmas'
p525
I62
sS'peek'
p526
I62
sS'swing-by'
p527
I62
sS'burn'
p528
I62
sS'lamps'
p529
I62
sS'architectural'
p530
I61
sS'losing'
p531
I62
sS'post'
p532
I62
sS'super'
p533
I57
sS'rallying'
p534
I62
sS'22-23'
p535
I62
sS'$78'
p536
I62
sS'months'
p537
I62
sS'dinner'
p538
I62
sS'coronado'
p539
I62
sS'afternoon'
p540
I62
sS'sunta'
p541
I62
sS'sept'
p542
I62
sS'nerve'
p543
I62
sS'soc'
p544
I62
sS'whats'
p545
I61
sS'bound'
p546
I61
sS'soo'
p547
I62
sS'two'
p548
I57
sS'down'
p549
I49
sS'thankful'
p550
I62
sS'reducing'
p551
I62
sS'drums"'
p552
I62
sS'fabric'
p553
I62
sS"toto's"
p554
I62
sS'support'
p555
I59
sS'flying'
p556
I62
sS'fuchsia'
p557
I60
sS'class'
p558
I61
sS'gig'
p559
I62
sS'stuck'
p560
I62
sS'quirks'
p561
I62
sS'way'
p562
I59
sS'music'
p563
I60
sS'was'
p564
I36
sS'war'
p565
I62
sS'launching'
p566
I60
sS'happy'
p567
I37
sS'fork'
p568
I62
sS'sagging'
p569
I62
sS'head'
p570
I61
sS'yolo'
p571
I62
sS'amateur'
p572
I62
sS'heat'
p573
I61
sS'hear'
p574
I59
sS'-ha'
p575
I60
sS'true'
p576
I59
sS'congratulations'
p577
I57
sS'isis'
p578
I62
sS'inside'
p579
I61
sS'until'
p580
I61
sS'today;)'
p581
I61
sS'crystal'
p582
I61
sS'know:)'
p583
I62
sS'decorate'
p584
I62
sS'"la'
p585
I62
sS'prayed'
p586
I62
sS'classic'
p587
I62
sS'petit'
p588
I62
sS'covers'
p589
I62
sS'drive'
p590
I58
sS'ship'
p591
I61
sS'annoying'
p592
I62
sS'trip'
p593
I62
sS'shit'
p594
I54
sS'"mam"'
p595
I62
sS'holla'
p596
I62
sS'vista'
p597
I62
sS'petite"'
p598
I62
sS'no'
p599
I48
sS'when'
p600
I49
sS'sierto'
p601
I62
sS'flood'
p602
I62
sS'setting'
p603
I61
sS'brings'
p604
I62
sS'test'
p605
I62
sS'company'
p606
I61
sS'eternity'
p607
I62
sS'reggae'
p608
I62
sS'kiis'
p609
I62
sS'brothers'
p610
I62
sS'models'
p611
I62
sS'welcome'
p612
I57
sS'asterisk'
p613
I62
sS'therewhen'
p614
I62
sS"let's"
p615
I56
sS'devon'
p616
I62
sS'dien'
p617
I62
sS'rolling'
p618
I60
sS'hurt'
p619
I61
sS'weekend'
p620
I48
sS'5042'
p621
I62
sS'tweeting'
p622
I62
sS'longer'
p623
I62
sS'glass'
p624
I62
sS'bambu'
p625
I62
sS'jacket'
p626
I62
sS'loyal'
p627
I62
sS'-phew'
p628
I62
sS'trakeen'
p629
I62
sS'reception'
p630
I62
sS'time'
p631
I37
sS'paced'
p632
I62
sS'neighbors'
p633
I62
sS'gown'
p634
I62
sS':/'
p635
I62
sS':)'
p636
I48
sS'whoever'
p637
I62
sS'dance'
p638
I62
sS'excellent'
p639
I62
sS'ouch'
p640
I62
sS'hawaii'
p641
I62
sS'laura'
p642
I61
sS'mile'
p643
I62
sS'/'
p644
I60
sS'grateful'
p645
I62
sS'recharge'
p646
I62
sS'venice'
p647
I58
sS'hold'
p648
I62
sS'baller'
p649
I62
sS'spudnuts'
p650
I62
sS'everything'
p651
I60
sS"when's"
p652
I62
sS'vez'
p653
I62
sS'gigs'
p654
I62
sS'countdown'
p655
I62
sS'finally'
p656
I59
sS'rhythm'
p657
I62
sS'me'
p658
I18
sS':d'
p659
I62
sS'gravitate'
p660
I62
sS'choice'
p661
I61
sS'vegas'
p662
I61
sS'artwork'
p663
I62
sS'cook'
p664
I62
sS'blast'
p665
I60
sS'cool'
p666
I41
sS'hello:)'
p667
I62
sS'did'
p668
I55
sS'brother'
p669
I62
sS'turnt'
p670
I62
sS'standards'
p671
I62
sS'hooray'
p672
I62
sS'p'
p673
I62
sS'thanksgivukkah'
p674
I62
sS'team'
p675
I57
sS'quick'
p676
I60
sS'guy'
p677
I59
sS'yali'
p678
I62
sS'brave'
p679
I62
sS'liquor)'
p680
I62
sS'sign'
p681
I60
sS'bako'
p682
I62
sS'cost'
p683
I61
sS'-enjoy'
p684
I61
sS'comienza'
p685
I62
sS'me!so'
p686
I62
sS'eating'
p687
I59
sS'chicken'
p688
I62
sS'barbie'
p689
I62
sS'goes'
p690
I61
sS'international'
p691
I61
sS'falling'
p692
I62
sS'filled'
p693
I62
sS'hummer'
p694
I62
sS'french'
p695
I62
sS'water'
p696
I62
sS'snack'
p697
I62
sS'<<<<'
p698
I62
sS'address'
p699
I62
sS'along'
p700
I60
sS'earthquake'
p701
I59
sS'change'
p702
I61
sS'wait'
p703
I47
sS'buck'
p704
I62
sS'shift'
p705
I62
sS'plan:)'
p706
I62
sS'def'
p707
I62
sS'molte'
p708
I62
sS'weird'
p709
I60
sS'motherfucking'
p710
I62
sS'lmfaoooo'
p711
I62
sS'love'
p712
I19
sS'hiking'
p713
I62
sS'extra'
p714
I62
sS'1st'
p715
I62
sS'shelley'
p716
I62
sS'isles'
p717
I62
sS'market'
p718
I61
sS'awards...let'
p719
I62
sS'everybody'
p720
I62
sS'-check'
p721
I62
sS'working'
p722
I59
sS'positive'
p723
I61
sS'angry'
p724
I62
sS'visit'
p725
I61
sS'intense'
p726
I62
sS'wrongs'
p727
I62
sS'live'
p728
I61
sS'ahhh'
p729
I61
sS'msg'
p730
I62
sS'angels'
p731
I62
sS'today'
p732
I44
sS'loving'
p733
I60
sS'sharing'
p734
I62
sS'!!-and'
p735
I62
sS'ooh'
p736
I62
sS'treat:)'
p737
I62
sS'carissa'
p738
I62
sS'review;)'
p739
I62
sS'insights'
p740
I62
sS'niggas'
p741
I61
sS'car'
p742
I54
sS'can'
p743
I47
sS'9th'
p744
I62
sS'making'
p745
I60
sS'crazy'
p746
I62
sS'dory:)'
p747
I62
sS'awesome'
p748
I61
sS"didn't"
p749
I60
sS'fuck'
p750
I56
sS'agent'
p751
I62
sS'heard'
p752
I62
sS'spa'
p753
I62
sS'inspire!"'
p754
I62
sS'rock-on'
p755
I62
sS"-i'll"
p756
I62
sS'sneak-peak'
p757
I60
sS'1'
p758
I61
sS'till'
p759
I62
sS'sunday'
p760
I52
sS'nyc'
p761
I61
sS'product'
p762
I61
sS'designer'
p763
I58
sS'cocktail'
p764
I61
sS'huge'
p765
I62
sS'may'
p766
I60
sS'spot'
p767
I61
sS'stil'
p768
I62
sS'scene!"'
p769
I62
sS'latte'
p770
I60
sS'mac'
p771
I62
sS'birthday'
p772
I62
sS'tipped'
p773
I62
sS'mad'
p774
I62
sS'floral'
p775
I62
sS'suck'
p776
I61
sS'guys'
p777
I51
sS'grow'
p778
I62
sS'man'
p779
I61
sS'remember'
p780
I59
sS'hanukkah'
p781
I62
sS'maybe'
p782
I62
sS'sp'
p783
I61
sS'tomorrow;)'
p784
I62
sS'inform'
p785
I62
sS'si'
p786
I62
sS'mango'
p787
I62
sS'so'
p788
I30
sS'sc'
p789
I62
sS'sf'
p790
I62
sS'talk'
p791
I60
sS'cute'
p792
I59
sS'serving'
p793
I61
sS'shoes'
p794
I62
sS'indeed'
p795
I59
sS'raised'
p796
I62
sS'years'
p797
I61
sS'course'
p798
I60
sS'episodes'
p799
I62
sS'shake'
p800
I62
sS'still'
p801
I57
sS'-of'
p802
I62
sS'thank'
p803
I47
sS"he's"
p804
I61
sS'smoothie'
p805
I62
sS'interesting'
p806
I62
sS'jim'
p807
I62
sS'curls'
p808
I62
sS'hot'
p809
I61
sS'window'
p810
I62
sS'compliment.)'
p811
I62
sS'tweets'
p812
I62
sS'a.k.a'
p813
I61
sS'texas'
p814
I62
sS'unplanned'
p815
I62
sS'paloma'
p816
I62
sS'moms'
p817
I61
sS'smarter'
p818
I62
sS'killer'
p819
I61
sS'lunch'
p820
I60
sS'conquer'
p821
I62
sS'symposium'
p822
I62
sS'not'
p823
I38
sS'now'
p824
I50
sS'touched'
p825
I62
sS'wagon'
p826
I62
sS'equality'
p827
I62
sS'name'
p828
I60
sS':)thank'
p829
I62
sS'xo;)'
p830
I62
sS':)xoxo'
p831
I62
sS'rock'
p832
I56
sS'entirely'
p833
I62
sS'pizza'
p834
I62
sS'gear;)'
p835
I62
sS'yeah'
p836
I59
sS'catching'
p837
I62
sS'year'
p838
I56
sS'girl'
p839
I59
sS'sunrise'
p840
I62
sS'plans'
p841
I62
sS'living'
p842
I62
sS"america's"
p843
I62
sS'space'
p844
I60
sS'factory'
p845
I62
sS'looking'
p846
I59
sS'luck;)'
p847
I62
sS'seriously'
p848
I62
sS'miles'
p849
I62
sS'internet'
p850
I61
sS"kingdom'"
p851
I62
sS'correct'
p852
I62
sS'shows'
p853
I61
sS'dodgers'
p854
I62
sS'cars'
p855
I61
sS'quite'
p856
I62
sS'california'
p857
I60
sS'grandma'
p858
I62
sS'marina'
p859
I61
sS'amigos'
p860
I62
sS'card'
p861
I62
sS'care'
p862
I62
sS'*ben-moore'
p863
I62
sS'training'
p864
I58
sS'jakes'
p865
I62
sS'"forever"'
p866
I62
sS'100%'
p867
I62
sS'headphones'
p868
I62
sS'gusto'
p869
I62
sS'motion'
p870
I62
sS'turn'
p871
I60
sS'place'
p872
I54
sS'seahawk'
p873
I62
sS'think'
p874
I52
sS'first'
p875
I54
sS'cheese'
p876
I62
sS'saving'
p877
I61
sS'symmetry'
p878
I62
sS'question'
p879
I62
sS'mucho'
p880
I62
sS'long'
p881
I57
sS'spanish'
p882
I61
sS'frwy'
p883
I61
sS'sounds'
p884
I54
sS'open'
p885
I58
sS'tomorrow'
p886
I57
sS'city'
p887
I41
sS'little'
p888
I56
sS'boulevard'
p889
I60
sS'silent'
p890
I62
sS'holidays;)'
p891
I62
sS'caught'
p892
I62
sS'anyone'
p893
I61
sS'2'
p894
I60
sS'white'
p895
I62
sS'friend'
p896
I61
sS'dolan'
p897
I62
sS'that'
p898
I21
sS'season'
p899
I62
sS'ridiculous'
p900
I62
sS'neeedddd'
p901
I62
sS'flowers'
p902
I62
sS'than'
p903
I60
sS"here's"
p904
I62
sS'11'
p905
I60
sS'10'
p906
I60
sS'lmao'
p907
I60
sS'17'
p908
I62
sS'18'
p909
I62
sS'gotta'
p910
I62
sS'kingstonphoto'
p911
I61
sS'ventura'
p912
I60
sS'r'
p913
I62
sS'were'
p914
I60
sS'"want'
p915
I62
sS'scuba'
p916
I62
sS'and'
p917
I10
sS'gathering'
p918
I62
sS'san'
p919
I61
sS're-decorating'
p920
I62
sS'pro'
p921
I62
sS'parking'
p922
I62
sS'woah'
p923
I61
sS'say'
p924
I52
sS'rent'
p925
I62
sS'breakfast'
p926
I61
sS'saw'
p927
I61
sS'any'
p928
I59
sS'marathon'
p929
I60
sS'zoe'
p930
I62
sS'sending'
p931
I62
sS'fanatic'
p932
I62
sS'squad'
p933
I62
sS'take'
p934
I56
sS'online'
p935
I61
sS'interior'
p936
I60
sS'responsibility'
p937
I62
sS'begin'
p938
I62
sS'sure'
p939
I58
sS'multiple'
p940
I62
sS'theatre'
p941
I62
sS'normal'
p942
I62
sS'track'
p943
I62
sS'price'
p944
I62
sS'knew'
p945
I62
sS'-ciao;)'
p946
I62
sS'sunday:)'
p947
I62
sS'freshman'
p948
I62
sS'pages'
p949
I62
sS'famous\xe2\x80\x9d'
p950
I62
sS'cuban'
p951
I62
sS'especially'
p952
I60
sS'rashid'
p953
I62
sS'seafood'
p954
I62
sS'proud'
p955
I61
sS'hungry'
p956
I62
sS'enjoy;)'
p957
I62
sS'shut-down'
p958
I62
sS'damnn'
p959
I62
sS'lated'
p960
I62
sS'testosterone'
p961
I62
sS'shop'
p962
I60
sS'shot'
p963
I61
sS'\xe2\x9c\xa8'
p964
I62
sS'show'
p965
I47
sS'nice:)'
p966
I62
sS'bright'
p967
I62
sS'tend'
p968
I62
sS'curled'
p969
I62
sS'aint'
p970
I61
sS'slow'
p971
I62
sS'ratio'
p972
I62
sS'\xe2\x9c\x8b'
p973
I62
sS'daily'
p974
I62
sS'tomorrow:/'
p975
I62
sS'mind...;)'
p976
I62
sS'3'
p977
I58
sS'texture'
p978
I62
sS'only'
p979
I53
sS'going'
p980
I49
sS'black'
p981
I61
sS'sierra'
p982
I62
sS'trafffffficccccccc'
p983
I62
sS'posted'
p984
I62
sS'get'
p985
I36
sS'nize'
p986
I62
sS'pimp'
p987
I62
sS'artist'
p988
I60
sS'hinges'
p989
I61
sS'attitude'
p990
I62
sS'morning'
p991
I56
sS'naked'
p992
I62
sS'jokes'
p993
I62
sS'stupid'
p994
I62
sS'worries'
p995
I61
sS'miley'
p996
I62
sS'finishing'
p997
I62
sS'know/write'
p998
I62
sS'where'
p999
I60
sS'hinged'
p1000
I59
sS"y'all"
p1001
I62
sS'concert'
p1002
I62
sS'up'
p1003
I32
sS'cocktails'
p1004
I62
sS'(this'
p1005
I62
sS'asleep'
p1006
I61
sS'hoes'
p1007
I62
sS'calendar'
p1008
I62
sS'sport'
p1009
I62
sS'oldschool'
p1010
I62
sS'wonder'
p1011
I60
sS'xo:)'
p1012
I62
sS'windshield'
p1013
I62
sS'review'
p1014
I62
sS'thurs'
p1015
I62
sS'poopy'
p1016
I62
sS'outside'
p1017
I60
sS'between'
p1018
I62
sS'across'
p1019
I61
sS'august'
p1020
I62
sS'screen'
p1021
I62
sS'405....bucket'
p1022
I62
sS'killing'
p1023
I62
sS'awards'
p1024
I62
sS'come'
p1025
I46
sS'group:)'
p1026
I62
sS'installation'
p1027
I61
sS'many'
p1028
I60
sS'tour'
p1029
I60
sS'aura'
p1030
I62
sS'gang;)'
p1031
I62
sS'wheels'
p1032
I62
sS'comes'
p1033
I59
sS'pisses'
p1034
I62
sS'always;)'
p1035
I62
sS'madness'
p1036
I62
sS'afterwards'
p1037
I62
sS'color'
p1038
I55
sS'pop'
p1039
I62
sS'innovations'
p1040
I62
sS'stretched'
p1041
I62
sS'consider'
p1042
I62
sS'considering'
p1043
I61
sS'greystone'
p1044
I59
sS'temecula'
p1045
I62
sS'west'
p1046
I59
sS'all:)'
p1047
I62
sS"empanada's"
p1048
I58
sS't9erliii'
p1049
I62
sS'mart'
p1050
I62
sS'workshop'
p1051
I62
sS'cousin!!one'
p1052
I62
sS'sesh'
p1053
I62
sS'jerky'
p1054
I62
sS'500'
p1055
I62
sS'wants'
p1056
I60
sS'shopping'
p1057
I60
sS'>_<'
p1058
I62
sS'photos'
p1059
I60
sS'rubs'
p1060
I62
sS'hidden'
p1061
I62
sS'those'
p1062
I59
sS'sound'
p1063
I61
sS'myself'
p1064
I61
sS'miata'
p1065
I62
sS'these'
p1066
I54
sS'slumber'
p1067
I62
sS'bad-ass'
p1068
I62
sS'holidays:)'
p1069
I62
sS'trick'
p1070
I62
sS'cast'
p1071
I62
sS'you!!!\xe2\x80\x9d'
p1072
I62
sS'ratchet'
p1073
I62
sS'hardware:)'
p1074
I62
sS'taking'
p1075
I62
sS'coolest'
p1076
I62
sS'coffee'
p1077
I57
sS'converti'
p1078
I62
sS'sleeping'
p1079
I62
sS'blah'
p1080
I62
sS'someone'
p1081
I59
sS'ironic'
p1082
I62
sS'technology'
p1083
I62
sS'everyday'
p1084
I62
sS'different'
p1085
I62
sS'rooting'
p1086
I61
sS'media'
p1087
I61
sS'lave'
p1088
I62
sS's'
p1089
I62
sS'same'
p1090
I60
sS'check'
p1091
I55
sS'gentlemen'
p1092
I62
sS'ya'
p1093
I62
sS'heartbreak'
p1094
I62
sS'followers'
p1095
I62
sS'lite'
p1096
I62
sS'workout'
p1097
I62
sS'week'
p1098
I47
sS'jeffrey'
p1099
I62
sS'finish'
p1100
I60
sS'oceanside'
p1101
I62
sS'sickness'
p1102
I60
sS'driver'
p1103
I62
sS'drives'
p1104
I62
sS'cheers'
p1105
I62
sS'running'
p1106
I62
sS'favorites'
p1107
I62
sS'totally'
p1108
I61
sS'hummingbird'
p1109
I62
sS'tracking'
p1110
I62
sS'magical'
p1111
I62
sS'without'
p1112
I60
sS"can't"
p1113
I41
sS'reward'
p1114
I62
sS'there;)'
p1115
I62
sS'summer'
p1116
I54
sS'edwards'
p1117
I62
sS'213'
p1118
I62
sS'being'
p1119
I61
sS'money'
p1120
I62
sS'kill'
p1121
I62
sS'touch'
p1122
I62
sS'speed'
p1123
I60
sS'blow'
p1124
I62
sS'lightbulbs'
p1125
I62
sS'renewed'
p1126
I62
sS'tim'
p1127
I62
sS'seems'
p1128
I62
sS'blog'
p1129
I62
sS'oh...this'
p1130
I62
sS'interested'
p1131
I62
sS'4'
p1132
I61
sS'bread'
p1133
I61
sS'ca'
p1134
I60
sS'real'
p1135
I61
sS'around'
p1136
I57
sS'spectacular'
p1137
I62
sS'amc'
p1138
I62
sS'1:5'
p1139
I62
sS'gonna'
p1140
I62
sS'early'
p1141
I58
sS'traffic'
p1142
I56
sS'mon'
p1143
I62
sS'mom'
p1144
I57
sS'(-'
p1145
I62
sS'using'
p1146
I61
sS'aiming'
p1147
I62
sS'moe'
p1148
I62
sS'furniture'
p1149
I60
sS'christina'
p1150
I62
sS'stranger'
p1151
I62
sS'now...:)'
p1152
I62
sS'patrick'
p1153
I62
sS'reduces'
p1154
I62
sS'greeting'
p1155
I61
sS'roll'
p1156
I61
sS'benefit'
p1157
I62
sS"gump's"
p1158
I62
sS'nose'
p1159
I61
sS'xoxo:)'
p1160
I61
sS'beverly'
p1161
I61
sS'served'
p1162
I62
sS'-great'
p1163
I61
sS'\xe2\x9d\x8e'
p1164
I62
sS'seating'
p1165
I62
sS';p'
p1166
I62
sS'ewww'
p1167
I62
sS';i'
p1168
I62
sS'season:/'
p1169
I62
sS'chik-fil-a'
p1170
I62
sS'ellis'
p1171
I62
sS"o'"
p1172
I62
sS'noon'
p1173
I62
sS'felt'
p1174
I57
sS'assembly'
p1175
I62
sS'business'
p1176
I60
sS'seconds'
p1177
I61
sS'follow-'
p1178
I62
sS'-prov'
p1179
I62
sS'broken'
p1180
I61
sS';)'
p1181
I55
sS'exciting'
p1182
I62
sS'throw'
p1183
I60
sS'earlier'
p1184
I62
sS'on'
p1185
I12
sS'ok'
p1186
I59
sS'angelica:)'
p1187
I62
sS'oh'
p1188
I58
sS'jeep'
p1189
I62
sS'of'
p1190
I11
sS'industry'
p1191
I61
sS'favorite'
p1192
I55
sS'chop'
p1193
I62
sS'fell'
p1194
I62
sS'mean'
p1195
I60
sS'titos'
p1196
I62
sS'or'
p1197
I57
sS'road'
p1198
I61
sS'ladies'
p1199
I59
sS'hathy'
p1200
I62
sS'rocked-it'
p1201
I62
sS'blessed'
p1202
I62
sS'your'
p1203
I26
sS'-card'
p1204
I62
sS'tropical'
p1205
I62
sS'fast'
p1206
I60
sS'her'
p1207
I53
sS'area'
p1208
I60
sS'siento'
p1209
I62
sS'there'
p1210
I49
sS'hey'
p1211
I61
sS'lol'
p1212
I48
sS'ass"'
p1213
I62
sS'los'
p1214
I60
sS'low'
p1215
I62
sS'lot'
p1216
I61
sS'2/10'
p1217
I62
sS'valley'
p1218
I60
sS'this...ya'
p1219
I62
sS'house)'
p1220
I62
sS'enough'
p1221
I62
sS'sophisticated'
p1222
I62
sS'trying'
p1223
I60
sS'with'
p1224
I27
sS'buying'
p1225
I61
sS"they're"
p1226
I60
sS'rush'
p1227
I62
sS"wasn't"
p1228
I62
sS'interiors'
p1229
I62
sS'suitcase'
p1230
I62
sS'agree'
p1231
I62
sS'djing'
p1232
I62
sS'gone'
p1233
I62
sS'ac'
p1234
I62
sS'taylor'
p1235
I61
sS'videos'
p1236
I62
sS'taste'
p1237
I62
sS'accents'
p1238
I61
sS'am'
p1239
I57
sS'sales'
p1240
I62
sS'an'
p1241
I48
sS'as'
p1242
I42
sS'tasty'
p1243
I62
sS'at'
p1244
I8
sS'yoo'
p1245
I62
sS'again'
p1246
I55
sS'beyond'
p1247
I62
sS'drivers'
p1248
I60
sS'-jesse'
p1249
I62
sS'graduate'
p1250
I62
sS'field'
p1251
I62
sS'5'
p1252
I61
sS'announcements'
p1253
I62
sS'you'
p1254
I3
sS'overtime'
p1255
I62
sS'championship'
p1256
I62
sS'pillows'
p1257
I47
sS'obsessed'
p1258
I62
sS'refunded'
p1259
I62
sS'finale'
p1260
I62
sS'day:)'
p1261
I62
sS'-means'
p1262
I62
sS'gifts'
p1263
I62
sS'failures'
p1264
I62
sS'brass'
p1265
I62
sS'finals'
p1266
I62
sS'pool'
p1267
I62
sS'building'
p1268
I60
sS'calls'
p1269
I62
sS'wifi'
p1270
I62
sS'having'
p1271
I59
sS'cpy'
p1272
I62
sS'ombr\xc3\xa9'
p1273
I60
sS'u'
p1274
I56
sS'lupita'
p1275
I62
sS'starting'
p1276
I62
sS'original'
p1277
I61
sS'represent'
p1278
I62
sS'all'
p1279
I29
sS'forget'
p1280
I61
sS'washed'
p1281
I62
sS"danny's"
p1282
I62
sS'month'
p1283
I61
sS'commute'
p1284
I61
sS'tours'
p1285
I62
sS'cameron'
p1286
I62
sS'follow'
p1287
I56
sS'children'
p1288
I61
sS'carpet'
p1289
I62
sS'college'
p1290
I62
sS'ty'
p1291
I57
sS'baddest'
p1292
I62
sS'-i'
p1293
I61
sS'please;)'
p1294
I62
sS'to'
p1295
I2
sS'ti'
p1296
I62
sS'wooooo'
p1297
I62
sS'smile'
p1298
I62
sS'te'
p1299
I62
sS'case'
p1300
I62
sS'worse'
p1301
I62
sS'song'
p1302
I62
sS'very'
p1303
I31
sS"'tragic"
p1304
I62
sS'fat'
p1305
I62
sS'souls'
p1306
I62
sS'selfies'
p1307
I62
sS'innout'
p1308
I62
sS'worst'
p1309
I62
sS'fall'
p1310
I54
sS'fab'
p1311
I61
sS'ticket'
p1312
I62
sS'(culver'
p1313
I59
sS'enjoyable'
p1314
I62
sS'heaven'
p1315
I62
sS'accompanying'
p1316
I62
sS'celebrity'
p1317
I62
sS'list'
p1318
I59
sS'random'
p1319
I62
sS'-find'
p1320
I61
sS'vibes'
p1321
I62
sS'saudi'
p1322
I62
sS'small'
p1323
I61
sS"-you'll"
p1324
I62
sS'&designs'
p1325
I62
sS"i'll"
p1326
I45
sS'neighborhood'
p1327
I60
sS'instagram'
p1328
I62
sS'ten'
p1329
I62
sS'tea'
p1330
I60
sS'ted'
p1331
I62
sS'design'
p1332
I30
sS'pass'
p1333
I62
sS'$228'
p1334
I62
sS'what'
p1335
I51
sS'richard'
p1336
I61
sS'clock'
p1337
I62
sS'section'
p1338
I62
sS'gucci'
p1339
I62
sS'overload'
p1340
I62
sS'adriana!!!love'
p1341
I62
sS'public'
p1342
I61
sS'deborah'
p1343
I62
sS'fucka'
p1344
I62
sS'full'
p1345
I61
sS"c'mon"
p1346
I62
sS'certainly'
p1347
I62
sS'typhpeterson'
p1348
I62
sS'hours'
p1349
I58
sS'directions'
p1350
I62
sS'november'
p1351
I61
sS'strong'
p1352
I60
sS'mmm'
p1353
I62
sS'search'
p1354
I62
sS'zone'
p1355
I62
sS'ahead'
p1356
I62
sS'inspired'
p1357
I59
sS'experience'
p1358
I62
sS'pics'
p1359
I62
sS'airport'
p1360
I62
sS'social'
p1361
I60
sS'inspires'
p1362
I62
sS'\xe2\x9d\xa4\xef\xb8\x8f\xe2\x9d\xa4\xef\xb8\x8f\xe2\x9d\xa4\xef\xb8\x8f\xe2\x9d\xa4\xef\xb8\x8f\xe2\x9d\xa4\xef\xb8\x8f'
p1363
I62
sS'via'
p1364
I62
sS'followed'
p1365
I61
sS'verbose'
p1366
I62
sS'family'
p1367
I61
sS'ask'
p1368
I62
sS'indoors'
p1369
I62
sS'toys'
p1370
I62
sS'gosh'
p1371
I62
sS'charge'
p1372
I60
sS'pls\xe2\x80\x9d'
p1373
I62
sS'gorgeous'
p1374
I60
sS'taken'
p1375
I62
sS'affluence'
p1376
I62
sS'more'
p1377
I55
sS'tryna'
p1378
I62
sS'door'
p1379
I62
sS'knows'
p1380
I62
sS'dion'
p1381
I62
sS'problem'
p1382
I62
sS"ain't"
p1383
I62
sS'broke'
p1384
I58
sS'known'
p1385
I62
sS'glad'
p1386
I61
sS'town'
p1387
I58
sS"n'sync"
p1388
I62
sS'hour'
p1389
I60
sS'sucks'
p1390
I61
sS'profile:)'
p1391
I62
sS'del'
p1392
I61
sS'den'
p1393
I62
sS'learn'
p1394
I61
sS'knocked'
p1395
I62
sS'$4.29'
p1396
I62
sS'ladys'
p1397
I62
sS'beautiful'
p1398
I46
sS'(tunnels)'
p1399
I62
sS'(with'
p1400
I62
sS'joints'
p1401
I62
sS'donating'
p1402
I62
sS'celine'
p1403
I62
sS'michelada'
p1404
I62
sS'sense'
p1405
I62
sS'pond'
p1406
I62
sS'dress'
p1407
I62
sS'information'
p1408
I61
sS'needs'
p1409
I60
sS'dreads'
p1410
I62
sS'awkward'
p1411
I61
sS'rather'
p1412
I61
sS'acts'
p1413
I62
sS'birthday;)'
p1414
I62
sS'buenos'
p1415
I62
sS'hugz'
p1416
I61
sS'sandwich'
p1417
I62
sS'okay'
p1418
I60
sS'tried'
p1419
I61
sS'advice'
p1420
I62
sS'sneak'
p1421
I62
sS'lighting'
p1422
I62
sS'jajaja'
p1423
I62
sS'coming'
p1424
I59
sS'backyard'
p1425
I62
sS'tacos'
p1426
I62
sS'fm'
p1427
I62
sS'fo'
p1428
I62
sS'a'
p1429
I6
sS'short'
p1430
I62
sS'jaime'
p1431
I62
sS'(at'
p1432
I61
sS'volleyball'
p1433
I62
sS'renewing'
p1434
I62
sS'ego'
p1435
I62
sS'$20'
p1436
I62
sS'pleasure'
p1437
I61
sS'dream'
p1438
I61
sS'playing'
p1439
I59
sS"that's"
p1440
I56
sS'mexican'
p1441
I62
sS'help'
p1442
I59
sS"don't"
p1443
I47
sS'people:)'
p1444
I62
sS'soon'
p1445
I58
sS'trade'
p1446
I62
sS'llamo'
p1447
I62
sS'isnt'
p1448
I62
sS'through'
p1449
I58
sS'hell'
p1450
I61
sS'smiling'
p1451
I61
sS'its'
p1452
I60
sS'style'
p1453
I58
sS'20'
p1454
I62
sS'office...i'
p1455
I62
sS'sale'
p1456
I62
sS'29'
p1457
I62
sS'actually'
p1458
I61
sS'late'
p1459
I62
sS'parts'
p1460
I62
sS'2"'
p1461
I62
sS'bout'
p1462
I62
sS'soccer'
p1463
I62
sS'might'
p1464
I61
sS'here\xe2\x80\xa6'
p1465
I62
sS'argentine'
p1466
I62
sS'fool'
p1467
I62
sS'good'
p1468
I31
sS'somebody'
p1469
I62
sS'yo'
p1470
I60
sS'food'
p1471
I57
sS'sucker'
p1472
I62
sS'\xe3\x83\x9e\xe3\x83\xaa\xe3\x83\xaa\xe3\x83\xb3'
p1473
I62
sS'skipper'
p1474
I62
sS'-ciao'
p1475
I62
sS'porto'
p1476
I62
sS'always'
p1477
I52
sS'refresh'
p1478
I62
sS'events'
p1479
I62
sS'sameee'
p1480
I62
sS'ooops'
p1481
I62
sS'found'
p1482
I59
sS'friendship'
p1483
I62
sS'(ca)'
p1484
I61
sS"isn't"
p1485
I61
sS'lantern'
p1486
I62
sS'everyone'
p1487
I56
sS'upstairs'
p1488
I58
sS'house'
p1489
I55
sS'hard'
p1490
I61
sS'reduce'
p1491
I62
sS'accidentally'
p1492
I62
sS"andy's"
p1493
I62
sS'oil'
p1494
I62
sS'expect'
p1495
I61
sS'thing'
p1496
I58
sS'event'
p1497
I54
sS'really'
p1498
I53
sS'leave'
p1499
I62
sS'missed'
p1500
I57
sS'significa'
p1501
I62
sS'sundaynovember'
p1502
I62
sS'childish'
p1503
I62
sS'since'
p1504
I62
sS'loll'
p1505
I62
sS"they'll"
p1506
I62
sS'"models"'
p1507
I62
sS'issue'
p1508
I62
sS'highway'
p1509
I62
sS'ass'
p1510
I60
sS'drink'
p1511
I62
sS'downs'
p1512
I62
sS'bass'
p1513
I62
sS'friday'
p1514
I54
sS'docent'
p1515
I62
sS'guess'
p1516
I62
sS'labs'
p1517
I62
sS'houses'
p1518
I62
sS'reason'
p1519
I62
sS'fatass'
p1520
I62
sS'put'
p1521
I61
sS'matthews'
p1522
I62
sS'beginning'
p1523
I62
sS'loads'
p1524
I62
sS'onsite'
p1525
I62
sS'pairs'
p1526
I62
sS'launch'
p1527
I62
sS'spaces;)'
p1528
I62
sS'terribly'
p1529
I62
sS'american'
p1530
I62
sS'w'
p1531
I61
sS'palate;)'
p1532
I62
sS'feed'
p1533
I62
sS'major'
p1534
I62
sS'dont'
p1535
I62
sS'feel'
p1536
I56
sS'week;)'
p1537
I62
sS'number'
p1538
I55
sS'fancy'
p1539
I62
sS'cada'
p1540
I62
sS'done'
p1541
I59
sS'teds'
p1542
I62
sS'miss'
p1543
I54
sS'passes'
p1544
I62
sS'story'
p1545
I59
sS'heads'
p1546
I62
sS'guest'
p1547
I62
sS'together'
p1548
I62
sS'5th'
p1549
I62
sS'clarity;)'
p1550
I62
sS'least'
p1551
I59
sS'paint'
p1552
I62
sS'wonderful'
p1553
I62
sS'passed'
p1554
I62
sS'grandpa?"'
p1555
I62
sS'banana'
p1556
I62
sS'store'
p1557
I57
sS'muscles'
p1558
I62
sS'scheme;)'
p1559
I62
sS'para'
p1560
I62
sS'behind'
p1561
I61
sS'park'
p1562
I62
sS'rockin'
p1563
I62
sS'part'
p1564
I61
sS'jordan'
p1565
I62
sS'albums'
p1566
I62
sS'believe'
p1567
I61
sS'convinced'
p1568
I62
sS'stirs'
p1569
I62
sS'king'
p1570
I62
sS'kind'
p1571
I61
sS'john'
p1572
I62
sS'compliments'
p1573
I62
sS'year;)'
p1574
I62
sS'tats'
p1575
I62
sS'dallatorre'
p1576
I43
sS'smile!!\xe2\x80\xa6'
p1577
I62
sS'-happy'
p1578
I59
sS'restful'
p1579
I62
sS'mickey'
p1580
I62
sS'brands;)'
p1581
I62
sS'urban'
p1582
I62
sS'-maybe'
p1583
I62
sS'gala'
p1584
I61
sS'fiona'
p1585
I62
sS'sell'
p1586
I60
sS'lie'
p1587
I62
sS'tyvm'
p1588
I62
sS'nights'
p1589
I62
sS'dancing'
p1590
I62
sS'lil'
p1591
I62
sS'graduaciones'
p1592
I62
sS'also'
p1593
I61
sS'sunrooms;)'
p1594
I62
sS'-sounds'
p1595
I62
sS'buff'
p1596
I62
sS'play'
p1597
I60
sS'93.5'
p1598
I62
sS'reach'
p1599
I62
sS'react'
p1600
I62
sS'most'
p1601
I62
sS'la:/'
p1602
I62
sS'plan'
p1603
I61
sS'nothing'
p1604
I60
sS'approved'
p1605
I62
sS'funnier'
p1606
I62
sS'understands'
p1607
I62
sS'appreciation'
p1608
I62
sS'clear'
p1609
I62
sS'sometimes'
p1610
I62
sS'5-8'
p1611
I59
sS'traditional'
p1612
I62
sS'clean'
p1613
I62
sS'fashions'
p1614
I61
sS'donkeys'
p1615
I62
sS'joining'
p1616
I62
sS'ugh'
p1617
I59
sS'gold'
p1618
I62
sS"-don't"
p1619
I62
sS'font'
p1620
I62
sS'gutta'
p1621
I61
sS'find'
p1622
I60
sS'completion'
p1623
I62
sS'bff'
p1624
I62
sS'zumba'
p1625
I62
sS'crawl'
p1626
I62
sS'-all'
p1627
I62
sS'pretty'
p1628
I61
sS'noteven'
p1629
I62
sS"should've"
p1630
I62
sS'tricia'
p1631
I62
sS'his'
p1632
I58
sS'hit'
p1633
I59
sS'sunny'
p1634
I62
sS'grocery'
p1635
I62
sS'feels'
p1636
I60
sS'11-3'
p1637
I61
sS'reply'
p1638
I62
sS'during'
p1639
I61
sS'him'
p1640
I55
sS'jeanne'
p1641
I62
sS'culina'
p1642
I62
sS'wiccan'
p1643
I62
sS'metta'
p1644
I62
sS'*hands'
p1645
I62
sS'caramel'
p1646
I62
sS'cartoons'
p1647
I62
sS'hype'
p1648
I62
sS'sunday;)'
p1649
I62
sS'set'
p1650
I62
sS'art'
p1651
I55
sS'throwing'
p1652
I62
sS'see'
p1653
I16
sS'are'
p1654
I24
sS'sea'
p1655
I61
sS'close'
p1656
I62
sS'knees'
p1657
I62
sS'xoxo;)'
p1658
I62
sS'visiting'
p1659
I62
sS'movie'
p1660
I62
sS'wow'
p1661
I58
sS'please'
p1662
I57
sS'later;)'
p1663
I62
sS'albums\xe2\x80\x9d'
p1664
I62
sS'smallest'
p1665
I62
sS'standarded"'
p1666
I62
sS'probably'
p1667
I61
sS'rides:when'
p1668
I62
sS'available'
p1669
I62
sS'milder'
p1670
I62
sS'latin'
p1671
I62
sS'creating'
p1672
I62
sS'missing'
p1673
I62
sS'comience'
p1674
I62
sS'sold'
p1675
I61
sS"-....that's"
p1676
I62
sS'outfit'
p1677
I62
sS'fpac'
p1678
I62
sS'bryns'
p1679
I62
sS'pepsi'
p1680
I62
sS'time!;)'
p1681
I62
sS'marilyn'
p1682
I62
sS'pissed'
p1683
I62
sS'league'
p1684
I59
sS'last'
p1685
I56
sS'license'
p1686
I62
sS'restaurant'
p1687
I62
sS'ciao:)'
p1688
I61
sS'alot'
p1689
I62
sS'boxers'
p1690
I62
sS'focused'
p1691
I62
sS'whole'
p1692
I61
sS'finds'
p1693
I62
sS'point'
p1694
I61
sS'battery'
p1695
I62
sS'sweet'
p1696
I60
sS'-very'
p1697
I62
sS'community'
p1698
I62
sS'beauty;)'
p1699
I62
sS'simply'
p1700
I62
sS'church'
p1701
I61
sS'expensive'
p1702
I62
sS'belt'
p1703
I62
sS'pr'
p1704
I62
sS'ps'
p1705
I61
sS'fused'
p1706
I62
sS'fanaticsalon)'
p1707
I62
sS'tgif'
p1708
I61
sS'creativity'
p1709
I62
sS'hitting'
p1710
I62
sS'ran'
p1711
I62
sS'describes'
p1712
I62
sS'damn'
p1713
I62
sS'make-up'
p1714
I62
sS'meeting'
p1715
I53
sS'woke'
p1716
I62
sS'pm'
p1717
I62
sS'flight'
p1718
I59
sS'gay'
p1719
I62
sS'boy'
p1720
I61
sS'fire'
p1721
I62
sS'gas'
p1722
I62
sS'else'
p1723
I61
sS'like5'
p1724
I62
sS'lives'
p1725
I62
sS'gag'
p1726
I60
sS'rocking'
p1727
I62
sS'look'
p1728
I49
sS'straight'
p1729
I62
sS'bill'
p1730
I61
sS'heya'
p1731
I62
sS'rooood'
p1732
I62
sS'while'
p1733
I60
sS'fun'
p1734
I46
sS'biking'
p1735
I62
sS'fuk'
p1736
I62
sS'cages'
p1737
I62
sS'hoping'
p1738
I61
sS'scientology'
p1739
I62
sS'disappointing'
p1740
I62
sS'centennial'
p1741
I62
sS'-join'
p1742
I62
sS'rid'
p1743
I62
sS'yosemite'
p1744
I62
sS'funny'
p1745
I58
sS'decor'
p1746
I55
sS'italy'
p1747
I61
sS'anymore'
p1748
I61
sS'maids'
p1749
I61
sS'yaaaaaaaaas'
p1750
I62
sS'shorter'
p1751
I62
sS'kimono'
p1752
I62
sS'complaints'
p1753
I62
sS'grand'
p1754
I60
sS'9'
p1755
I62
sS'development'
p1756
I62
sS'used'
p1757
I62
sS'comprehensive'
p1758
I62
sS'island'
p1759
I62
sS'yesterday'
p1760
I61
sS'desks'
p1761
I62
sS'moment'
p1762
I60
sS'user'
p1763
I62
sS'apenas'
p1764
I62
sS'infused'
p1765
I62
sS'euro'
p1766
I61
sS'amy'
p1767
I62
sS'kelli'
p1768
I62
sS'"california'
p1769
I62
sS'person'
p1770
I59
sS'cheer'
p1771
I62
sS'kelly'
p1772
I61
sS'listening'
p1773
I62
sS'76)'
p1774
I62
sS'world'
p1775
I58
sS'hinge-pillows'
p1776
I62
sS'metallic'
p1777
I62
sS'forrest'
p1778
I62
sS'letting'
p1779
I62
sS'cut'
p1780
I61
sS'cus'
p1781
I62
sS'cup'
p1782
I62
sS'location'
p1783
I61
sS'-have'
p1784
I56
sS'homies'
p1785
I62
sS'transformation'
p1786
I62
sS'march'
p1787
I62
sS'*beautiful'
p1788
I62
sS'big'
p1789
I53
sS'couple'
p1790
I60
sS'bib'
p1791
I62
sS'shitty'
p1792
I62
sS'game'
p1793
I59
sS'necessary'
p1794
I62
sS'sushi;)'
p1795
I62
sS'projects'
p1796
I61
sS'dline'
p1797
I62
sS'stylist'
p1798
I62
sS'message'
p1799
I62
sS'shapes'
p1800
I62
sS'flux'
p1801
I62
sS'eee'
p1802
I62
sS'unrestraint'
p1803
I62
sS'often'
p1804
I62
sS'brakes'
p1805
I62
sS'lastest'
p1806
I62
sS'fucking'
p1807
I62
sS'spring'
p1808
I61
sS'fathers'
p1809
I62
sS'creation'
p1810
I62
sS'some'
p1811
I48
sS'back'
p1812
I47
sS'trends'
p1813
I62
sS'server'
p1814
I62
sS'along;)'
p1815
I62
sS'accessories;)'
p1816
I62
sS'bball'
p1817
I62
sS'whomp'
p1818
I62
sS'-excited'
p1819
I62
sS'innovation'
p1820
I61
sS'pee'
p1821
I60
sS'prob'
p1822
I61
sS'thighs'
p1823
I62
sS'be'
p1824
I20
sS'run'
p1825
I61
sS'bb'
p1826
I62
sS"fuckin'"
p1827
I62
sS'bo'
p1828
I62
sS's/o'
p1829
I62
sS'step'
p1830
I62
sS'6.20.15'
p1831
I62
sS'wefoundnewmusic'
p1832
I62
sS'over;)'
p1833
I62
sS'by'
p1834
I50
sS'a\xc3\xb1os'
p1835
I62
sS'anything'
p1836
I62
sS'funny:)'
p1837
I62
sS'delish'
p1838
I62
sS'hinge'
p1839
I56
sS'slams'
p1840
I62
sS'idk'
p1841
I61
sS'bish'
p1842
I61
sS'hatred'
p1843
I62
sS'hahahah'
p1844
I62
sS'ppl'
p1845
I60
sS'seeing'
p1846
I57
sS'colorado'
p1847
I62
sS"nsync's"
p1848
I62
sS'dude'
p1849
I62
sS'into'
p1850
I57
sS'crying'
p1851
I62
sS'soon;)'
p1852
I61
sS'momma'
p1853
I62
sS'nigga'
p1854
I62
sS'walah'
p1855
I62
sS'smells'
p1856
I62
sS'arcade'
p1857
I62
sS'spam'
p1858
I62
sS'murrieta'
p1859
I62
sS'xoxo'
p1860
I58
sS'ca)'
p1861
I45
sS'submit'
p1862
I62
sS'motors)'
p1863
I61
sS'camera'
p1864
I62
sS"we're"
p1865
I62
sS'forward'
p1866
I58
sS'bored'
p1867
I62
sS'opens'
p1868
I62
sS'invite'
p1869
I62
sS't-shirt'
p1870
I62
sS'boys'
p1871
I62
sS'pumped-up'
p1872
I62
sS'episode'
p1873
I62
sS'line'
p1874
I48
sS'ministerio'
p1875
I61
sS'erick'
p1876
I62
sS'grinch'
p1877
I62
sS'$150.00'
p1878
I62
sS"hasn't"
p1879
I62
sS'us'
p1880
I53
sS'ur'
p1881
I62
sS'um'
p1882
I62
sS'fried'
p1883
I62
sS'uber'
p1884
I62
sS'healthy;)'
p1885
I62
sS'constant'
p1886
I62
sS'likewise'
p1887
I62
sS'chai'
p1888
I60
sS'influence'
p1889
I62
sS'chafed'
p1890
I62
sS'dog'
p1891
I60
sS'single'
p1892
I61
sS'chat'
p1893
I60
sS'cafe'
p1894
I61
sS'pickles'
p1895
I62
sS'granada'
p1896
I62
sS'nah'
p1897
I62
sS'peace'
p1898
I61
sS'nick'
p1899
I62
sS'grind'
p1900
I62
sS'department'
p1901
I52
sS'manhattan'
p1902
I59
sS'nice'
p1903
I41
sS'draw'
p1904
I62
sS'fun:)'
p1905
I62
sS'luxurious'
p1906
I62
sS'lane'
p1907
I62
sS'wwaaaaaake'
p1908
I62
sS'-that'
p1909
I62
sS'pedestrians'
p1910
I62
sS'age'
p1911
I61
sS'vehicles'
p1912
I54
sS'objetivo....san'
p1913
I62
sS'walked'
p1914
I62
sS'adventure;)'
p1915
I62
sS'ciaoooouuuuu'
p1916
I62
sS'literally'
p1917
I62
sS'fresh'
p1918
I62
sS'quieeeeen'
p1919
I62
sS'hello'
p1920
I56
sS'once'
p1921
I62
sS'jason'
p1922
I62
sS'pierdo'
p1923
I62
sS'saying'
p1924
I61
sS'results'
p1925
I62
sS'steve'
p1926
I61
sS'go'
p1927
I49
sS'rhonda'
p1928
I62
sS'breached'
p1929
I62
sS'sharry'
p1930
I62
sS'young'
p1931
I62
sS'send'
p1932
I61
sS'friendly'
p1933
I62
sS'tuti'
p1934
I62
sS'pay'
p1935
I62
sS'ahahahahahahahahahahahhahahajahahahahahahahaha'
p1936
I62
sS'garden'
p1937
I62
sS'getting-up'
p1938
I62
sS'wishes'
p1939
I61
sS'putting'
p1940
I62
sS'telling'
p1941
I62
sS'sidelines:/)'
p1942
I62
sS'decorating'
p1943
I59
sS'tutu'
p1944
I62
sS'-congrats'
p1945
I62
sS'magic'
p1946
I61
sS'-in'
p1947
I62
sS'positions'
p1948
I62
sS"timberlake's"
p1949
I62
sS'eve'
p1950
I62
sS'try'
p1951
I59
sS'race'
p1952
I60
sS'-is'
p1953
I62
sS'\xe2\x9d\xa4'
p1954
I62
sS'boots'
p1955
I62
sS'waking'
p1956
I61
sS'video'
p1957
I61
sS'booth'
p1958
I62
sS'\xe2\x9c\x88\xef\xb8\x8f'
p1959
I62
sS'click'
p1960
I62
sS'deals!:)'
p1961
I62
sS'power'
p1962
I62
sS'showcase'
p1963
I61
sS'dealer'
p1964
I62
sS'it;('
p1965
I62
sS'it;)'
p1966
I62
sS'paying'
p1967
I62
sS'indian'
p1968
I59
sS'5-8;)'
p1969
I62
sS'+beautiful'
p1970
I62
sS'leg'
p1971
I62
sS'peggy'
p1972
I62
sS'let'
p1973
I60
sS'others'
p1974
I62
sS'sing'
p1975
I60
sS'shushed'
p1976
I62
sS'great'
p1977
I22
sS'metro'
p1978
I61
sS'modern-regal'
p1979
I62
sS'30'
p1980
I62
sS'shades'
p1981
I61
sS'alaska'
p1982
I62
sS'leaving'
p1983
I62
sS'oficial'
p1984
I62
sS'nervous'
p1985
I62
sS'heloooo'
p1986
I62
sS'makes'
p1987
I60
sS'clare'
p1988
I62
sS'win'
p1989
I62
sS'app'
p1990
I62
sS'wit'
p1991
I61
sS'limo'
p1992
I62
sS'motor'
p1993
I52
sS'indulgence'
p1994
I62
sS'singing'
p1995
I61
sS'-ill'
p1996
I62
sS'standing'
p1997
I62
sS'use'
p1998
I59
sS'refers'
p1999
I62
sS'from'
p2000
I39
sS'usb'
p2001
I62
sS'&'
p2002
I50
sS'moorish'
p2003
I62
sS'bush'
p2004
I62
sS'flat'
p2005
I62
sS'next'
p2006
I55
sS'few'
p2007
I61
sS'doubt'
p2008
I62
sS"you!!i'm"
p2009
I62
sS'23%'
p2010
I62
sS'themselves'
p2011
I62
sS'start'
p2012
I57
sS'rick'
p2013
I62
sS'screeners'
p2014
I62
sS'1/5'
p2015
I62
sS'babe'
p2016
I62
sS'started'
p2017
I61
sS'tons'
p2018
I62
sS'sister'
p2019
I62
sS'infection'
p2020
I62
sS'train'
p2021
I62
sS'baby'
p2022
I55
sS'pocahontas'
p2023
I61
sS'starter'
p2024
I62
sS'women'
p2025
I62
sS'customer'
p2026
I62
sS'account'
p2027
I62
sS'animals'
p2028
I62
sS'salad'
p2029
I62
sS'eyaha'
p2030
I62
sS'this'
p2031
I13
sS"chuck's"
p2032
I62
sS'ride'
p2033
I62
sS'clients'
p2034
I62
sS'wildest'
p2035
I62
sS'paints'
p2036
I62
sS'meet'
p2037
I44
sS'proof'
p2038
I62
sS'bittersweet'
p2039
I62
sS'patrol'
p2040
I62
sS'waaaay'
p2041
I62
sS'lock'
p2042
I62
sS'high'
p2043
I61
sS'pulling'
p2044
I62
sS'something'
p2045
I60
sS'chic'
p2046
I62
sS'blvd'
p2047
I62
sS'reynolds'
p2048
I62
sS'saludes'
p2049
I62
sS'campers'
p2050
I62
sS'six'
p2051
I62
sS'chevere'
p2052
I62
sS'profile'
p2053
I62
sS'y'
p2054
I62
sS'attend'
p2055
I61
sS'watch'
p2056
I56
sS'collection'
p2057
I54
sS'taco'
p2058
I62
sS'hahahaha'
p2059
I62
sS'ahahaha'
p2060
I62
sS'abosolutely'
p2061
I62
sS'heaven;)'
p2062
I62
sS'-allan'
p2063
I62
sS'realized'
p2064
I62
sS'4.3.14'
p2065
I62
sS'light'
p2066
I62
sS'lines'
p2067
I62
sS'interrupted'
p2068
I62
sS'holidays'
p2069
I56
sS'addiction'
p2070
I62
sS'all!:)'
p2071
I62
sS'discussion'
p2072
I62
sS'snow\xe2\x80\x9donly'
p2073
I62
sS'beauties'
p2074
I62
sS'mute'
p2075
I62
sS'competing'
p2076
I62
sS'wake-up'
p2077
I62
sS'follow:)'
p2078
I62
sS'looks'
p2079
I56
sS'cruise'
p2080
I60
sS'alwayys'
p2081
I62
sS'hornz'
p2082
I62
sS'bunch'
p2083
I62
sS'perfect'
p2084
I61
sS'underwater'
p2085
I62
sS'le'
p2086
I62
sS'lb'
p2087
I62
sS'ybela'
p2088
I62
sS'la'
p2089
I37
sS'labor'
p2090
I60
sS'lv'
p2091
I62
sS'degrees'
p2092
I62
sS'choose'
p2093
I62
sS'2015'
p2094
I62
sS'2014'
p2095
I61
sS'holiday'
p2096
I56
sS'2011'
p2097
I62
sS'2010'
p2098
I62
sS'2012'
p2099
I62
sS'empanadas'
p2100
I62
sS'designs'
p2101
I59
sS'fiesta'
p2102
I62
sS'mention'
p2103
I62
sS'kiss'
p2104
I62
sS'ambition'
p2105
I62
sS'front'
p2106
I62
sS'day'
p2107
I43
sS'favorite:)'
p2108
I62
sS'masters'
p2109
I62
sS'contagious'
p2110
I62
sS'edit'
p2111
I62
sS'-new'
p2112
I62
sS'd\xc3\xa9cor'
p2113
I62
sS'disregard'
p2114
I62
sS'shaking'
p2115
I60
sS'front-end'
p2116
I62
sS'...depends'
p2117
I62
sS'studios'
p2118
I50
sS'bueno'
p2119
I62
sS'doing'
p2120
I61
sS'wait!see'
p2121
I62
sS'bums'
p2122
I62
sS'mas'
p2123
I62
sS'our'
p2124
I25
sS'sexual'
p2125
I62
sS'special'
p2126
I62
sS'out'
p2127
I35
sS'matt'
p2128
I62
sS'rey'
p2129
I62
sS'crashes'
p2130
I62
sS'boutique'
p2131
I62
sS'hilarious'
p2132
I62
sS'cause'
p2133
I62
sS'red'
p2134
I62
sS'curlies'
p2135
I62
sS'dictionary'
p2136
I62
sS'southern'
p2137
I62
sS'baaaack'
p2138
I62
sS'temps'
p2139
I62
sS'attending'
p2140
I60
sS'jill'
p2141
I62
sS'waraitik'
p2142
I62
sS'york'
p2143
I59
sS'x'
p2144
I62
sS'disgusted'
p2145
I62
sS'+ty'
p2146
I62
sS'"can'
p2147
I62
sS'interaction'
p2148
I62
sS'barca'
p2149
I62
sS'g'
p2150
I61
sS'could'
p2151
I53
sS'studios)'
p2152
I56
sS'times'
p2153
I60
sS'conversation'
p2154
I62
sS'"lived"'
p2155
I62
sS'retail'
p2156
I62
sS'south'
p2157
I58
sS'kendall'
p2158
I62
sS'delliveneri'
p2159
I62
sS'heathly'
p2160
I62
sS'ethnic'
p2161
I62
sS'scene'
p2162
I61
sS'whooo'
p2163
I62
sS'whoop'
p2164
I61
sS'date'
p2165
I60
sS'hillcrest'
p2166
I62
sS'bitch'
p2167
I59
sS'reached'
p2168
I62
sS'reliable'
p2169
I62
sS"you're"
p2170
I54
sS'playlist'
p2171
I62
sS'stencil'
p2172
I62
sS'love"'
p2173
I62
sS'festival'
p2174
I62
sS'data'
p2175
I62
sS'accent'
p2176
I57
sS'their'
p2177
I57
sS"god's"
p2178
I62
sS'misunderstood'
p2179
I62
sS'haves'
p2180
I62
sS'2-3'
p2181
I62
sS'craziest'
p2182
I62
sS'2-4'
p2183
I62
sS'getcha'
p2184
I62
sS'exactly'
p2185
I62
sS'depressing'
p2186
I62
sS'grandpa'
p2187
I62
sS'fuzzy'
p2188
I62
sS'july'
p2189
I61
sS'inners'
p2190
I62
sS'loved'
p2191
I61
sS'prune'
p2192
I62
sS'bother'
p2193
I62
sS'okmaybe'
p2194
I62
sS'bed'
p2195
I59
sS'loves'
p2196
I61
sS'sculpture'
p2197
I62
sS'bet'
p2198
I61
sS'drunk'
p2199
I62
sS'half'
p2200
I62
sS'muir'
p2201
I62
sS'curves'
p2202
I62
sS'tonight'
p2203
I54
sS'have'
p2204
I22
sS'need'
p2205
I50
sS'st'
p2206
I62
sS'weekend;)'
p2207
I62
sS'min'
p2208
I62
sS'studying'
p2209
I62
sS"child's"
p2210
I62
sS'able'
p2211
I62
sS'everyone;)'
p2212
I62
sS'parks'
p2213
I62
sS'mix'
p2214
I62
sS'truck'
p2215
I61
sS'='
p2216
I62
sS'divers'
p2217
I62
sS'motha'
p2218
I62
sS'savages'
p2219
I62
sS'aww'
p2220
I60
sS'who'
p2221
I55
sS'camper'
p2222
I62
sS'4pm'
p2223
I62
sS"where's"
p2224
I61
sS'parenting'
p2225
I62
sS'3ayabt'
p2226
I62
sS'future'
p2227
I62
sS'why'
p2228
I53
sS'eject'
p2229
I62
sS'won'
p2230
I62
sS'absolutely'
p2231
I62
sS'gather'
p2232
I62
sS'thanksgiving'
p2233
I62
sS'face'
p2234
I61
sS'dawgs'
p2235
I62
sS'yum'
p2236
I62
sS'normally'
p2237
I62
sS'fact'
p2238
I62
sS'goals'
p2239
I62
sS'inspirations'
p2240
I62
sS'text'
p2241
I60
sS'unbelievable'
p2242
I62
sS'bring'
p2243
I62
sS'rough'
p2244
I62
sS'samosa'
p2245
I56
sS'wear'
p2246
I62
sS'squeeze'
p2247
I62
sS'based'
p2248
I62
sS'knowledge'
p2249
I62
sS'mumbai'
p2250
I62
sS'('
p2251
I62
sS'fans'
p2252
I62
sS'should'
p2253
I56
sS'terminal'
p2254
I62
sS'jam'
p2255
I61
sS'ayer'
p2256
I62
sS'riding'
p2257
I61
sS'twaffic'
p2258
I62
sS'local'
p2259
I62
sS'hope'
p2260
I49
sS'preservation'
p2261
I62
sS'handle'
p2262
I61
sS'watching'
p2263
I60
sS'beat'
p2264
I61
sS'photography'
p2265
I61
sS'watercolor'
p2266
I62
sS'awww'
p2267
I62
sS'monroe\xe2\x80\xa6'
p2268
I62
sS'words'
p2269
I62
sS'yeslamooo'
p2270
I62
sS'westchester'
p2271
I62
sS'sinus'
p2272
I62
sS'yes!shoppers'
p2273
I62
sS'-wish'
p2274
I62
sS'married'
p2275
I62
sS'tuned'
p2276
I61
sS'stuff'
p2277
I62
sS'gold!!;)'
p2278
I62
sS'she'
p2279
I58
sS'glendale'
p2280
I62
sS"won't"
p2281
I62
sS'grab'
p2282
I62
sS'spotted'
p2283
I62
sS'carbonated'
p2284
I62
sS'national'
p2285
I62
sS'edition'
p2286
I62
sS'-molto'
p2287
I62
sS'computer'
p2288
I62
sS'spotter'
p2289
I62
sS'packed'
p2290
I62
sS'closer'
p2291
I62
sS'rafi:)'
p2292
I62
sS'tripping'
p2293
I62
sS'pattern'
p2294
I62
sS'birds'
p2295
I62
sS'"refresh'
p2296
I62
sS'warren'
p2297
I62
sS'email'
p2298
I62
sS'pants'
p2299
I62
sS'explosive'
p2300
I62
sS'trynna'
p2301
I62
sS'opening'
p2302
I54
sS'drankin'
p2303
I62
sS'joy'
p2304
I61
sS'job'
p2305
I60
sS'key'
p2306
I62
sS'underwear'
p2307
I62
sS'swift'
p2308
I62
sS'mcconaughey'
p2309
I62
sS'jon'
p2310
I62
sS'instant'
p2311
I62
sS'invited'
p2312
I60
sS'1forrest1'
p2313
I62
sS'goldie'
p2314
I62
sS'flooring;)'
p2315
I62
sS'admit'
p2316
I62
sS'busted'
p2317
I62
sS'-we'
p2318
I60
sS'thang'
p2319
I62
sS'volley'
p2320
I62
sS'safely'
p2321
I62
sS'glorious'
p2322
I62
sS'otherwise'
p2323
I62
sS'tuesday'
p2324
I61
sS'ahoy'
p2325
I62
sS'makin'
p2326
I62
sS'packaging'
p2327
I62
sS'laugh'
p2328
I62
sS'cousin'
p2329
I62
sS'table'
p2330
I61
sS'[pic]'
p2331
I54
sS'yay'
p2332
I61
sS'adjective'
p2333
I62
sS"it's"
p2334
I34
sS'sara'
p2335
I62
sS'grazie'
p2336
I52
sS'drank'
p2337
I62
sS'?:/'
p2338
I62
sS'waste'
p2339
I62
sS'arabs'
p2340
I62
sS'>'
p2341
I62
sS'mike'
p2342
I62
sS'wanna'
p2343
I59
sS'aubrey'
p2344
I62
sS'received'
p2345
I62
sS'painted'
p2346
I62
sS'moved'
p2347
I62
sS'tequila'
p2348
I62
sS'repetition'
p2349
I62
sS'homes'
p2350
I62
sS'7-9'
p2351
I62
sS'bye'
p2352
I60
sS'runway'
p2353
I62
sS'permit'
p2354
I62
sS'will'
p2355
I31
sS'(hollywood'
p2356
I52
sS'stunning'
p2357
I61
sS'reason:)'
p2358
I62
sS'hahaha'
p2359
I59
sS'ultra'
p2360
I62
sS'~'
p2361
I62
sS'va'
p2362
I62
sS'almost'
p2363
I60
sS'insanely'
p2364
I62
sS'spicey...just'
p2365
I62
sS'hardware'
p2366
I61
sS'vs'
p2367
I62
sS'gothic'
p2368
I62
sS'vintage'
p2369
I61
sS'began'
p2370
I62
sS'eric'
p2371
I62
sS'matthew'
p2372
I62
sS'another'
p2373
I60
sS'strange'
p2374
I62
sS'speaker'
p2375
I62
sS'digging'
p2376
I62
sS'shuttle'
p2377
I62
sS'party'
p2378
I55
sS'injured'
p2379
I62
sS'it:/'
p2380
I62
sS'ball'
p2381
I62
sS"-it's"
p2382
I62
sS'reporting'
p2383
I62
sS'upon'
p2384
I62
sS'fucker'
p2385
I62
sS"grandpark_la's"
p2386
I61
sS'dust'
p2387
I62
sS'francisco'
p2388
I62
sS'pull'
p2389
I62
sS'//'
p2390
I62
sS'off'
p2391
I51
sS'surfboard'
p2392
I62
sS'i'
p2393
I4
sS'10:12\xe2\x80\x9d'
p2394
I62
sS'bae-tilslayga'
p2395
I62
sS'well'
p2396
I54
sS'fighting'
p2397
I62
sS'thought'
p2398
I60
sS'ronald\xe2\x80\x9d'
p2399
I62
sS'corroded'
p2400
I62
sS'latest'
p2401
I62
sS'you!:)'
p2402
I62
sS'underdog'
p2403
I62
sS'cristo'
p2404
I62
sS'less'
p2405
I61
sS'licensed'
p2406
I62
sS'hands'
p2407
I62
sS'11/14'
p2408
I62
sS'arriving'
p2409
I62
sS'thanksgiving;)'
p2410
I62
sS'happiness'
p2411
I61
sS'raised*'
p2412
I62
sS'bell'
p2413
I61
sS'sky'
p2414
I61
sS'jaina'
p2415
I62
sS'-and'
p2416
I62
sS'smart'
p2417
I61
sS'divided'
p2418
I62
sS'ladies;)'
p2419
I62
sS'-dangerous'
p2420
I62
sS'government'
p2421
I62
sS"who's"
p2422
I61
sS'historic'
p2423
I56
sS'five'
p2424
I62
sS'know'
p2425
I49
sS'press'
p2426
I62
sS'password'
p2427
I61
sS'pier'
p2428
I62
sS'(ask)'
p2429
I62
sS'showing'
p2430
I61
sS'like'
p2431
I32
sS'lost'
p2432
I62
sS'chairs'
p2433
I61
sS'karen'
p2434
I62
sS'journalist'
p2435
I62
sS'become'
p2436
I61
sS'works'
p2437
I62
sS'page'
p2438
I62
sS'fabrics;)'
p2439
I62
sS'3alaiha'
p2440
I62
sS'because'
p2441
I56
sS'zzzzz'
p2442
I62
sS'12/12'
p2443
I62
sS'twitter'
p2444
I62
sS'cast;)'
p2445
I62
sS'home'
p2446
I38
sS'stuffy'
p2447
I62
sS'fanna'
p2448
I62
sS'broad'
p2449
I62
sS'avoid'
p2450
I62
sS'sketching'
p2451
I62
sS'overlap'
p2452
I62
sS'does'
p2453
I59
sS'screwed'
p2454
I60
sS'speak'
p2455
I62
sS'blowing'
p2456
I62
sS'l-o-v-e'
p2457
I62
sS'bored.\xe2\x80\x9d'
p2458
I62
sS'about'
p2459
I51
sS'rare'
p2460
I62
sS'justin'
p2461
I62
sS'getting'
p2462
I56
sS'angeles'
p2463
I57
sS'chrome'
p2464
I62
sS'swear'
p2465
I62
sS"sugarfish's"
p2466
I62
sS'create'
p2467
I62
sS'own'
p2468
I62
sS'kiss310'
p2469
I62
sS'weather'
p2470
I61
sS'promise'
p2471
I62
sS'tristeza'
p2472
I62
sS'meeee'
p2473
I62
sS'legends'
p2474
I61
sS'transfer'
p2475
I62
sS'apps'
p2476
I62
sS'bump'
p2477
I62
sS'biggest'
p2478
I61
sS'either..if'
p2479
I62
sS'place)'
p2480
I61
sS'north'
p2481
I62
sS"i've"
p2482
I61
sS'coke'
p2483
I62
sS'venice;/'
p2484
I62
sS'but'
p2485
I44
sS'heart:('
p2486
I62
sS'hi'
p2487
I60
sS'ughhh'
p2488
I62
sS'bum'
p2489
I62
sS'ha'
p2490
I62
sS'eat'
p2491
I61
sS'he'
p2492
I56
sS'made'
p2493
I59
sS'too:)'
p2494
I62
sS'art;)'
p2495
I62
sS'wish'
p2496
I55
sS'official'
p2497
I60
sS'hosting'
p2498
I62
sS'signed'
p2499
I62
sS'limit'
p2500
I62
sS'dmv'
p2501
I54
sS'xolos'
p2502
I62
sS'piece'
p2503
I62
sS'minutes'
p2504
I61
sS'land:)'
p2505
I62
sS'showroom...:/'
p2506
I62
sS'kisses'
p2507
I62
sS'boardwalk'
p2508
I62
sS'happen'
p2509
I60
sS'diego'
p2510
I61
sS'tick'
p2511
I62
sS'incredible'
p2512
I62
sS'dressed'
p2513
I62
sS'other'
p2514
I57
sS'sick'
p2515
I58
sS'droplets'
p2516
I62
sS'acrylic'
p2517
I62
sS'people-first'
p2518
I61
sS'lance'
p2519
I62
sS'erica'
p2520
I62
sS'kinds'
p2521
I62
sS'june'
p2522
I62
sS'stay'
p2523
I57
sS'12/6'
p2524
I62
sS'understand!*'
p2525
I62
sS'dissension'
p2526
I62
sS'friends'
p2527
I56
sS'inspiration'
p2528
I62
sS'designers'
p2529
I62
sS'jenner...\xe2\x80\x9d'
p2530
I62
sS'\xe2\x80\x94'
p2531
I60
sS'yelp'
p2532
I62
sS'lasted'
p2533
I62
sS'races'
p2534
I62
sS'-mix'
p2535
I62
sS'"the'
p2536
I62
sS"jammin'"
p2537
I62
s.