(dp0
S''
p1
I2
sS'and'
p2
I3
sS'right'
p3
I3
sS':)'
p4
I3
sS'some'
p5
I3
sS'dog'
p6
I3
sS'county'
p7
I3
sS'state\xe2\x80\xa6'
p8
I3
sS'are'
p9
I3
sS'in'
p10
I3
sS'huge'
p11
I3
sS'tick'
p12
I2
sS'end'
p13
I3
sS'los'
p14
I3
sS'next'
p15
I3
sS'to'
p16
I2
sS'state'
p17
I2
sS'potentially'
p18
I3
sS'prison'
p19
I3
sS'got'
p20
I3
sS'tock'
p21
I2
sS'we'
p22
I3
sS'good'
p23
I3
sS'jasmine'
p24
I3
sS'suburb'
p25
I3
sS'california'
p26
I2
sS'news'
p27
I3
sS'now'
p28
I3
sS'went'
p29
I3
sS'chill'
p30
I3
sS'a'
p31
I1
sS'lmao'
p32
I3
sS'i'
p33
I3
sS'adopt'
p34
I3
sS'up'
p35
I3
sS'cat'
p36
I2
sS'angeles'
p37
I3
sS'sunset'
p38
I3
sS'hahaha'
p39
I3
sS'prison-'
p40
I3
sS'adopting'
p41
I3
s.