(dp0
S''
p1
I9
sS'all'
p2
I11
sS'mom'
p3
I11
sS'just'
p4
I6
sS'soon'
p5
I11
sS'leads'
p6
I11
sS'canyon)'
p7
I11
sS'ousted'
p8
I8
sS'still'
p9
I11
sS'mayor'
p10
I8
sS'bunch'
p11
I11
sS'blow'
p12
I11
sS'canes'
p13
I11
sS'somewhere'
p14
I11
sS'patootie'
p15
I11
sS'lake'
p16
I1
sS'should'
p17
I10
sS'to'
p18
I10
sS'pwning'
p19
I11
sS'california)'
p20
I9
sS'8'
p21
I10
sS'cutie'
p22
I11
sS'joke'
p23
I11
sS'francisquito'
p24
I11
sS'someone'
p25
I11
sS'meanwhile'
p26
I11
sS'canyons'
p27
I11
sS'elizabeth"'
p28
I11
sS'they'
p29
I11
sS'worlds'
p30
I11
sS'like'
p31
I11
sS'candy'
p32
I11
sS'become'
p33
I11
sS'anti-flag'
p34
I11
sS'where'
p35
I11
sS'(ca)'
p36
I3
sS'old'
p37
I11
sS'national'
p38
I11
sS'year'
p39
I11
sS'home'
p40
I11
sS'out'
p41
I11
sS'even'
p42
I10
sS'heaters'
p43
I11
sS'for'
p44
I11
sS'giving'
p45
I11
sS'goes'
p46
I11
sS'ever'
p47
I11
sS'told'
p48
I11
sS'loveable'
p49
I11
sS'jobs'
p50
I11
sS'achy'
p51
I11
sS'cutest'
p52
I11
sS'herd'
p53
I11
sS'(lake'
p54
I9
sS'nowhere'
p55
I11
sS'guy'
p56
I11
sS'on'
p57
I7
sS'"lake'
p58
I11
sS'amanda'
p59
I11
sS'keep'
p60
I11
sS'angeles'
p61
I11
sS'=]'
p62
I11
sS's'
p63
I11
sS'california'
p64
I10
sS"i'm"
p65
I2
sS'or'
p66
I11
sS'first'
p67
I11
sS'into'
p68
I11
sS'walk'
p69
I11
sS'down'
p70
I11
sS'likes'
p71
I11
sS'your'
p72
I11
sS'sheep'
p73
I11
sS'everybody'
p74
I11
sS'little'
p75
I11
sS"it's"
p76
I11
sS'next'
p77
I11
sS'los'
p78
I11
sS'damn'
p79
I11
sS'way'
p80
I11
sS'happy'
p81
I11
sS'life'
p82
I11
sS'that'
p83
I11
sS'boys'
p84
I10
sS'lives'
p85
I11
sS'child'
p86
I11
sS'roomies'
p87
I11
sS'with'
p88
I11
sS'me'
p89
I11
sS'hughes'
p90
I2
sS'grew'
p91
I11
sS'this'
p92
I8
sS'ride'
p93
I11
sS'boyfriend/girlfriend'
p94
I11
sS'up'
p95
I9
sS'bed'
p96
I8
sS'will'
p97
I11
sS'windows'
p98
I11
sS'near'
p99
I11
sS'of'
p100
I6
sS'my'
p101
I4
sS'say'
p102
I11
sS'and'
p103
I11
sS'san'
p104
I11
sS'give'
p105
I11
sS'is'
p106
I10
sS'it'
p107
I11
sS'encountered'
p108
I11
sS'as'
p109
I6
sS'pavements'
p110
I11
sS'at'
p111
I2
sS'in'
p112
I11
sS'if'
p113
I10
sS'campers'
p114
I11
sS'sunday'
p115
I11
sS'forest'
p116
I11
sS'sick'
p117
I11
sS'you'
p118
I11
sS'week'
p119
I10
sS'used'
p120
I11
sS'elizabeth'
p121
I7
sS'blasting'
p122
I11
sS'football'
p123
I11
sS'town'
p124
I11
sS'changing'
p125
I11
sS'sickkk'
p126
I11
sS'a'
p127
I8
sS'realized'
p128
I11
sS'i'
p129
I5
sS'camp'
p130
I11
sS'so'
p131
I10
sS'the'
p132
I6
s.