(dp0
S''
p1
I2
sS'photo'
p2
I34
sS'all'
p3
I21
sS'rok'
p4
I34
sS':('
p5
I34
sS'forget'
p6
I32
sS'restaurant)'
p7
I34
sS'guessing'
p8
I34
sS'9/19'
p9
I34
sS'pta'
p10
I34
sS'month'
p11
I34
sS'four'
p12
I34
sS'manager'
p13
I34
sS'kato'
p14
I34
sS'go'
p15
I22
sS'follow'
p16
I33
sS'oldest'
p17
I34
sS'hate'
p18
I32
sS'issues'
p19
I34
sS':)'
p20
I32
sS'zone'
p21
I34
sS'homage'
p22
I34
sS'tv'
p23
I34
sS"coach's"
p24
I34
sS'\xe2\x98\xba\xef\xb8\x8f'
p25
I34
sS'yummm'
p26
I34
sS'to'
p27
I4
sS'finally'
p28
I33
sS'does'
p29
I34
sS'swoop'
p30
I34
sS'smile'
p31
I33
sS'sorry'
p32
I32
sS'maynee'
p33
I34
sS'boutta'
p34
I34
sS'division'
p35
I34
sS'hiccupssss'
p36
I34
sS'spreading'
p37
I34
sS'song'
p38
I33
sS'very'
p39
I34
sS'internet'
p40
I34
sS'fav'
p41
I34
sS'**dalis**'
p42
I34
sS'tacos'
p43
I33
sS'spoon'
p44
I34
sS'every'
p45
I34
sS'fam'
p46
I34
sS'better...on'
p47
I34
sS'blast'
p48
I34
sS'excited'
p49
I34
sS'school'
p50
I32
sS'heaven'
p51
I34
sS'her\xe2\x80\xa6'
p52
I34
sS'immediately'
p53
I34
sS'did'
p54
I33
sS'knight'
p55
I34
sS'f'
p56
I34
sS'brother'
p57
I34
sS'turnt'
p58
I34
sS'try'
p59
I30
sS'saudi'
p60
I34
sS'team'
p61
I33
sS'quick'
p62
I34
sS'guy'
p63
I33
sS'cox'
p64
I34
sS'eileen'
p65
I33
sS'open'
p66
I34
sS'work'
p67
I26
sS'says'
p68
I34
sS'tired'
p69
I34
sS'phones'
p70
I34
sS'yourself'
p71
I34
sS'sippin'
p72
I34
sS'sign'
p73
I34
sS'past'
p74
I34
sS'street'
p75
I34
sS'video'
p76
I34
sS'shirts'
p77
I34
sS'amistades'
p78
I34
sS'wernt'
p79
I34
sS'ummm'
p80
I34
sS'ustedes'
p81
I34
sS'dicked'
p82
I34
sS'even'
p83
I28
sS'what'
p84
I27
sS'sweats'
p85
I34
sS'movies'
p86
I33
sS'favor'
p87
I34
sS'section'
p88
I34
sS'stars'
p89
I34
sS'lying'
p90
I34
sS'i_amisaac'
p91
I34
sS'downto'
p92
I34
sS'stuffed'
p93
I34
sS'capital'
p94
I34
sS'new'
p95
I30
sS'learned'
p96
I34
sS'ever'
p97
I34
sS'told'
p98
I31
sS'body'
p99
I34
sS'full'
p100
I33
sS'simultaneously'
p101
I34
sS'never'
p102
I28
sS'sunday'
p103
I34
sS'here'
p104
I29
sS'hours'
p105
I33
sS'108'
p106
I34
sS'busy'
p107
I34
sS'let'
p108
I33
sS'sexy'
p109
I33
sS'100'
p110
I34
sS"aren't"
p111
I32
sS'usgs'
p112
I34
sS'earthquake'
p113
I34
sS'change'
p114
I34
sS'wait'
p115
I32
sS'boy'
p116
I34
sS'great'
p117
I31
sS'lol'
p118
I18
sS'didnt'
p119
I34
sS'k'
p120
I34
sS'multi-talented'
p121
I34
sS'lakers'
p122
I34
sS"when's"
p123
I34
sS"i'd"
p124
I34
sS'smoke'
p125
I34
sS'pick'
p126
I34
sS'rly'
p127
I34
sS'weird'
p128
I33
sS"dad's"
p129
I34
sS'homecoming'
p130
I34
sS'nowhere'
p131
I34
sS'golden'
p132
I34
sS'live'
p133
I34
sS'tu'
p134
I34
sS'love'
p135
I25
sS'fatass'
p136
I34
sS'family'
p137
I33
sS'highly'
p138
I34
sS'brought'
p139
I34
sS'till'
p140
I34
sS'semester'
p141
I33
sS'fake'
p142
I32
sS'asi'
p143
I34
sS'market'
p144
I34
sS'wise'
p145
I34
sS'everybody'
p146
I34
sS'literary'
p147
I34
sS'use'
p148
I34
sS'wanted'
p149
I34
sS'from'
p150
I25
sS'takes'
p151
I33
sS'would'
p152
I31
sS'&'
p153
I30
sS'"amazingly'
p154
I34
sS'palmdale'
p155
I31
sS'district)'
p156
I34
sS'mexico'
p157
I34
sS'dude'
p158
I32
sS'arms'
p159
I33
sS'next'
p160
I32
sS'cali'
p161
I34
sS'ca)'
p162
I33
sS'jam'
p163
I34
sS'call'
p164
I33
sS'tambien'
p165
I34
sS'experience'
p166
I34
sS'taken'
p167
I34
sS'tape'
p168
I33
sS'means'
p169
I34
sS'stage'
p170
I34
sS'tell'
p171
I33
sS'today'
p172
I28
sS'more'
p173
I31
sS'breathe'
p174
I34
sS'tryna'
p175
I34
sS'females'
p176
I34
sS'1/2'
p177
I34
sS'club'
p178
I34
sS'halloween'
p179
I34
sS'haha'
p180
I33
sS'occurred'
p181
I34
sS'pierced'
p182
I34
sS'phone'
p183
I33
sS'daaaaleeee'
p184
I34
sS"ain't"
p185
I29
sS'baby'
p186
I33
sS'oooooooweeeeeeeee'
p187
I34
sS'circle'
p188
I34
sS'must'
p189
I34
sS'me'
p190
I8
sS'room'
p191
I33
sS'niggas'
p192
I32
sS'this'
p193
I18
sS'avoiding'
p194
I34
sS'flash'
p195
I34
sS'getting'
p196
I33
sS'mi'
p197
I33
sS'sad\xe2\x80\x9d'
p198
I34
sS'cat'
p199
I34
sS'mommas'
p200
I34
sS'salas'
p201
I32
sS'mall'
p202
I34
sS'sudden'
p203
I34
sS'can'
p204
I27
sS'install'
p205
I33
sS'pero'
p206
I34
sS'knocked'
p207
I34
sS'making'
p208
I33
sS'my'
p209
I5
sS'gloria'
p210
I34
sS'something'
p211
I34
sS'control'
p212
I34
sS'heart'
p213
I34
sS'crazy'
p214
I31
sS'(with'
p215
I34
sS'bell'
p216
I34
sS'brown'
p217
I34
sS'lives'
p218
I34
sS'3.73mi'
p219
I34
sS'vallarta'
p220
I34
sS"didn't"
p221
I31
sS'fuck'
p222
I28
sS'vanderwaal'
p223
I34
sS'high'
p224
I34
sS'heard'
p225
I34
sS'michelada'
p226
I34
sS'want'
p227
I21
sS'allowed'
p228
I34
sS'dj'
p229
I34
sS'honest'
p230
I34
sS'stole'
p231
I33
sS'end'
p232
I34
sS'thing'
p233
I34
sS'complaining'
p234
I34
sS'yaaaas'
p235
I34
sS'six'
p236
I33
sS'nuts'
p237
I34
sS'stone'
p238
I34
sS'stayed'
p239
I34
sS'~lol'
p240
I34
sS'how'
p241
I30
sS'hot'
p242
I30
sS'reject'
p243
I34
sS'interview'
p244
I34
sS'instead'
p245
I34
sS'ordinary'
p246
I33
sS"would've"
p247
I34
sS'sworn'
p248
I34
sS'opposition'
p249
I34
sS'waved'
p250
I34
sS'map'
p251
I34
sS'okay'
p252
I33
sS'mess'
p253
I34
sS'coworker'
p254
I34
sS'weaknesses'
p255
I34
sS'lab'
p256
I33
sS'dc'
p257
I34
sS'wrong'
p258
I34
sS'birthday'
p259
I32
sS'wrist'
p260
I34
sS'fat'
p261
I34
sS'date'
p262
I34
sS'such'
p263
I32
sS'da'
p264
I34
sS'cutoff'
p265
I34
sS'grow'
p266
I34
sS'khs'
p267
I34
sS'man'
p268
I29
sS'a'
p269
I6
sS'short'
p270
I34
sS'choking'
p271
I34
sS'aroundi'
p272
I34
sS'maybe'
p273
I34
sS'sit'
p274
I34
sS'mami'
p275
I34
sS'sj'
p276
I34
sS'so'
p277
I17
sS'waited'
p278
I34
sS'enter'
p279
I34
sS'swimming'
p280
I34
sS'dream'
p281
I33
sS'playing'
p282
I33
sS'talk'
p283
I31
sS"that's"
p284
I33
sS'cute'
p285
I31
sS'antelope'
p286
I34
sS'mexican'
p287
I34
sS'help'
p288
I34
sS'office'
p289
I34
sS"don't"
p290
I20
sS'over'
p291
I32
sS'm1.48'
p292
I34
sS'trade'
p293
I34
sS'customer'
p294
I34
sS'more\xe2\x9d\xa4\xef\xb8\x8f'
p295
I34
sS'paper'
p296
I34
sS'hell'
p297
I34
sS'pa\xe2\x80\xa6'
p298
I34
sS'still'
p299
I29
sS'its'
p300
I32
sS"wife's"
p301
I34
sS'ima'
p302
I33
sS'mait'
p303
I34
sS'summer'
p304
I34
sS'que'
p305
I34
sS"he's"
p306
I30
sS'personal'
p307
I34
sS'twitcon'
p308
I34
sS'expectations'
p309
I34
sS'writing'
p310
I34
sS'better'
p311
I34
sS'window'
p312
I34
sS'xc'
p313
I34
sS'tweets'
p314
I33
sS'weeks'
p315
I34
sS'soccer'
p316
I33
sS'might'
p317
I34
sS'here\xe2\x80\xa6'
p318
I34
sS'2013'
p319
I34
sS'dad'
p320
I34
sS'then'
p321
I32
sS'good'
p322
I30
sS'somebody'
p323
I32
sS'yo'
p324
I34
sS'ya'
p325
I34
sS'practice'
p326
I33
sS'uhh'
p327
I34
sS'lunch'
p328
I32
sS'bang'
p329
I34
sS'tommorrow'
p330
I34
sS"you've"
p331
I34
sS'they'
p332
I25
sS'hands'
p333
I34
sS'not'
p334
I28
sS'nurturing'
p335
I34
sS'now'
p336
I32
sS'day'
p337
I26
sS'bigger'
p338
I34
sS'name'
p339
I30
sS'pauly'
p340
I34
sS'always'
p341
I32
sS'rocks'
p342
I34
sS'bless'
p343
I34
sS'entertaining'
p344
I34
sS'magnitude'
p345
I34
sS'bowling'
p346
I34
sS'bills'
p347
I34
sS"ya'll"
p348
I34
sS'mean'
p349
I34
sS'blacktops'
p350
I34
sS'ayyyeee'
p351
I34
sS'everyone'
p352
I34
sS'unproductive'
p353
I34
sS'weight'
p354
I34
sS'6:10-7:10'
p355
I34
sS'doing'
p356
I31
sS'house'
p357
I34
sS'fish'
p358
I34
sS'syrted'
p359
I34
sS'yeah'
p360
I31
sS'society'
p361
I34
sS'used'
p362
I34
sS'bouquets'
p363
I34
sS'forgot'
p364
I34
sS'('
p365
I34
sS'our'
p366
I32
sS'girl'
p367
I31
sS'hart'
p368
I34
sS'satisfied'
p369
I34
sS'anarchy'
p370
I34
sS'sunrise'
p371
I34
sS'really'
p372
I28
sS'rt'
p373
I34
sS'hooray'
p374
I34
sS'flower'
p375
I34
sS'(feat'
p376
I34
sS'god'
p377
I32
sS'ha'
p378
I34
sS'looking'
p379
I34
sS're'
p380
I34
sS'miles'
p381
I34
sS'ihop'
p382
I34
sS'smh'
p383
I34
sS'got'
p384
I26
sS'rn'
p385
I30
sS'6km'
p386
I34
sS'ass'
p387
I30
sS'shut'
p388
I34
sS'earlier'
p389
I34
sS'howard'
p390
I34
sS'cutest'
p391
I34
sS'dirt'
p392
I34
sS'bitches'
p393
I34
sS'friday'
p394
I33
sS'story'
p395
I32
sS'masterpiece'
p396
I34
sS'california'
p397
I33
sS'members'
p398
I34
sS'clique'
p399
I34
sS'ask'
p400
I33
sS'favs'
p401
I34
sS'pretend'
p402
I34
sS'shot'
p403
I34
sS'pairs'
p404
I33
sS'holding'
p405
I34
sS'service'
p406
I34
sS'ranchito'
p407
I34
sS'snapchats'
p408
I34
sS'could'
p409
I34
sS'plaine'
p410
I34
sS'put'
p411
I34
sS'days'
p412
I32
sS'keep'
p413
I33
sS'turn'
p414
I33
sS'funky'
p415
I34
sS'14%'
p416
I34
sS'place'
p417
I34
sS'tipped'
p418
I34
sS'margaritas'
p419
I34
sS'(at'
p420
I31
sS'think'
p421
I31
sS'fuckin'
p422
I34
sS'first'
p423
I31
sS'blind'
p424
I34
sS'enjoy'
p425
I34
sS'already'
p426
I32
sS'dont'
p427
I34
sS'steroids'
p428
I34
sS'feel'
p429
I32
sS'too/'
p430
I34
sS'*'
p431
I34
sS'xd'
p432
I34
sS'one'
p433
I30
sS'hook'
p434
I34
sS'pop'
p435
I34
sS'done'
p436
I32
sS'bitch'
p437
I32
sS'another'
p438
I33
sS'vote'
p439
I34
sS'ring'
p440
I34
sS'fight'
p441
I34
sS'miss'
p442
I31
sS'tomorrow'
p443
I34
sS'highkey'
p444
I34
sS'utc'
p445
I34
sS"you're"
p446
I34
sS'guess'
p447
I33
sS'long'
p448
I33
sS'district'
p449
I33
sS'needed'
p450
I34
sS'\xc3\xa0'
p451
I33
sS'girls'
p452
I33
sS'system'
p453
I34
sS'anyone'
p454
I34
sS'their'
p455
I30
sS'2'
p456
I34
sS'too'
p457
I29
sS'passed'
p458
I34
sS'mama'
p459
I34
sS'john'
p460
I34
sS'store'
p461
I33
sS'listen'
p462
I34
sS'cuddling'
p463
I34
sS'eyes'
p464
I34
sS'way'
p465
I32
sS'that'
p466
I16
sS'nobody'
p467
I34
sS'took'
p468
I33
sS'biggest'
p469
I34
sS'ridiculous'
p470
I34
sS'because'
p471
I31
sS'butt'
p472
I34
sS'stairs'
p473
I34
sS'than'
p474
I33
sS'brady'
p475
I34
sS'bebe'
p476
I34
sS'10'
p477
I34
sS'kind'
p478
I34
sS'b'
p479
I34
sS'lmao'
p480
I30
sS'tbh'
p481
I34
sS'16'
p482
I34
sS'18'
p483
I34
sS'gotta'
p484
I34
sS'older'
p485
I34
sS'helping"'
p486
I34
sS'flocks'
p487
I34
sS'wallpaper\xe2\x9d\xa4\xef\xb8\x8f'
p488
I34
sS'friend'
p489
I30
sS'were'
p490
I30
sS'dang'
p491
I34
sS'allergic'
p492
I34
sS'lunches'
p493
I34
sS'and'
p494
I7
sS'esta'
p495
I34
sS'close'
p496
I34
sS'ano'
p497
I34
sS'sad'
p498
I34
sS'tonight'
p499
I34
sS'say'
p500
I31
sS'homemade'
p501
I34
sS'have'
p502
I24
sS'ari'
p503
I34
sS'need'
p504
I30
sS'seen'
p505
I31
sS'saw'
p506
I34
sS'ray'
p507
I33
sS'tho'
p508
I34
sS'nipples'
p509
I34
sS'nights'
p510
I34
sS'presents'
p511
I34
sS'lil'
p512
I34
sS'pa'
p513
I34
sS'self'
p514
I34
sS'able'
p515
I34
sS'awards.\xe2\x80\x9d'
p516
I34
sS'brandon'
p517
I34
sS'lit'
p518
I34
sS'sound'
p519
I34
sS'take'
p520
I34
sS'which'
p521
I34
sS'xi'
p522
I34
sS'jail'
p523
I34
sS'mis'
p524
I34
sS'downstairs'
p525
I34
sS'quarterback'
p526
I34
sS'menudo'
p527
I34
sS'lancaster'
p528
I34
sS'play'
p529
I33
sS'sure'
p530
I33
sS'though'
p531
I33
sS'janae'
p532
I34
sS'knew'
p533
I33
sS'caldito'
p534
I34
sS'paid'
p535
I34
sS"where's"
p536
I34
sS'most'
p537
I34
sS'germany'
p538
I33
sS'nothing'
p539
I32
sS'staaaaaaarving'
p540
I34
sS'ugly!\xe2\x80\x9d'
p541
I34
sS'why'
p542
I33
sS'sean)'
p543
I34
sS'prove'
p544
I34
sS'forever'
p545
I32
sS'give'
p546
I34
sS'kiya'
p547
I34
sS'hanna'
p548
I34
sS'egg'
p549
I34
sS'sometimes'
p550
I33
sS'hungry'
p551
I32
sS'order'
p552
I34
sS'looked'
p553
I34
sS'definitely'
p554
I33
sS'aunt'
p555
I34
sS'error'
p556
I34
sS'vball'
p557
I34
sS'\xe2\x98\x80\xef\xb8\x8f'
p558
I34
sS'finalllly'
p559
I34
sS'senior'
p560
I32
sS'subwooooofer'
p561
I34
sS'sum'
p562
I34
sS'came'
p563
I34
sS'ugh'
p564
I34
sS'bomb'
p565
I33
sS'show'
p566
I34
sS'muy'
p567
I34
sS'lay'
p568
I34
sS'queen'
p569
I34
sS'sweating'
p570
I33
sS'telling'
p571
I34
sS'se'
p572
I34
sS'fear'
p573
I34
sS'find'
p574
I33
sS'staff'
p575
I34
sS'slow'
p576
I34
sS'como'
p577
I34
sS'sayin'
p578
I34
sS'jay'
p579
I34
sS'front'
p580
I34
sS'menu'
p581
I34
sS'wut'
p582
I34
sS'mexicans'
p583
I34
sS'should'
p584
I33
sS'only'
p585
I34
sS'going'
p586
I28
sS'black'
p587
I33
sS'dancing'
p588
I34
sS'pretty'
p589
I32
sS'9/24/14'
p590
I34
sS'riding'
p591
I34
sS'watching'
p592
I33
sS'fine!"'
p593
I34
sS"mom's"
p594
I34
sS'wearing'
p595
I33
sS'do'
p596
I24
sS'his'
p597
I31
sS'hit'
p598
I34
sS'get'
p599
I23
sS'de'
p600
I33
sS'watch'
p601
I33
sS'tbt'
p602
I34
sS'uhhm'
p603
I34
sS'appetizer'
p604
I33
sS'allen'
p605
I34
sS'wiggle'
p606
I32
sS'feels'
p607
I34
sS'ones'
p608
I34
sS'wimp'
p609
I34
sS'words'
p610
I34
sS'scallops'
p611
I34
sS'during'
p612
I34
sS'him'
p613
I32
sS'target'
p614
I34
sS'pollo'
p615
I34
sS'bar'
p616
I34
sS'well."'
p617
I34
sS'course'
p618
I34
sS'married'
p619
I34
sS'morning'
p620
I32
sS":')"
p621
I34
sS'bad'
p622
I33
sS"goin'"
p623
I34
sS'she'
p624
I32
sS'somedays'
p625
I34
sS'amends'
p626
I34
sS'thoughtless'
p627
I34
sS'finishing'
p628
I33
sS'where'
p629
I30
sS'effing'
p630
I34
sS'scrubbed'
p631
I34
sS'view'
p632
I34
sS"y'all"
p633
I31
sS'cutie'
p634
I34
sS'marin'
p635
I34
sS'(palmdale'
p636
I34
sS'swept'
p637
I34
sS'lemonade'
p638
I34
sS'flip'
p639
I34
sS'see'
p640
I30
sS'computer'
p641
I33
sS'dumb'
p642
I32
sS'are'
p643
I26
sS"avi's"
p644
I34
sS'christian'
p645
I34
sS'retweet'
p646
I34
sS'packed'
p647
I34
sS'wonder'
p648
I34
sS'supernats'
p649
I34
sS'closes'
p650
I34
sS'said'
p651
I30
sS"eileen's"
p652
I34
sS'luv'
p653
I34
sS'ways'
p654
I34
sS'wow'
p655
I31
sS'please'
p656
I33
sS'below'
p657
I34
sS'baked'
p658
I34
sS'mayor'
p659
I34
sS'case'
p660
I34
sS'3'
p661
I32
sS"there's"
p662
I32
sS'happiness'
p663
I34
sS'hopefully'
p664
I34
sS'luh'
p665
I33
sS'probably'
p666
I34
sS'before'
p667
I34
sS'nope'
p668
I34
sS'dirty'
p669
I34
sS'el'
p670
I34
sS'we'
p671
I24
sS'oomf'
p672
I34
sS'omg'
p673
I34
sS'trynna'
p674
I34
sS'opening'
p675
I34
sS'joy'
p676
I34
sS'wrap'
p677
I34
sS'boss'
p678
I34
sS'spared'
p679
I34
sS'job'
p680
I31
sS'wiance'
p681
I34
sS'wear'
p682
I34
sS'key'
p683
I34
sS'jk'
p684
I34
sS'group'
p685
I34
sS'leann'
p686
I34
sS'cities'
p687
I34
sS'come'
p688
I31
sS'lopez'
p689
I34
sS"d'mora"
p690
I34
sS'both'
p691
I34
sS'8:30'
p692
I34
sS'last'
p693
I32
sS'talented'
p694
I34
sS'mona'
p695
I34
sS'fiance'
p696
I34
sS'many'
p697
I33
sS'taking'
p698
I32
sS'la'
p699
I33
sS'drug'
p700
I34
sS'amazing'
p701
I34
sS'players'
p702
I33
sS'became'
p703
I34
sS'games'
p704
I34
sS'atleast'
p705
I34
sS'tomarrow'
p706
I34
sS'highland'
p707
I34
sS"can't"
p708
I31
sS'perfect'
p709
I34
sS'comment'
p710
I34
sS'1.4'
p711
I34
sS'12:06'
p712
I34
sS'hehehe'
p713
I34
sS'(sun'
p714
I34
sS'drunk'
p715
I30
sS'listening'
p716
I34
sS'sky'
p717
I34
sS'stuck'
p718
I34
sS'period'
p719
I33
sS'whatever'
p720
I33
sS'walk'
p721
I34
sS'village'
p722
I34
sS'headey'
p723
I34
sS'[pic]'
p724
I34
sS'mission'
p725
I34
sS'side<<<<'
p726
I34
sS'nicole'
p727
I34
sS'guess...smh'
p728
I34
sS'bathroom'
p729
I34
sS'details'
p730
I34
sS'duo'
p731
I34
sS"it's"
p732
I22
sS'845'
p733
I34
sS'been'
p734
I34
sS'1:19:25'
p735
I34
sS'beer'
p736
I34
sS'much'
p737
I32
sS'damn'
p738
I33
sS'pile'
p739
I34
sS'meeting'
p740
I32
sS'woke'
p741
I33
sS'collidei'
p742
I34
sS'wtf'
p743
I34
sS'life'
p744
I32
sS'tournament'
p745
I34
sS'twatchin'
p746
I34
sS'sore'
p747
I34
sS'busting'
p748
I34
sS'kisses'
p749
I34
sS'-'
p750
I34
sS'catering'
p751
I34
sS'waka'
p752
I34
sS'2015'
p753
I34
sS'player'
p754
I34
sS'dramatic'
p755
I34
sS'understand'
p756
I32
sS'child'
p757
I34
sS'smoking'
p758
I34
sS'stepdad'
p759
I34
sS'tbh)'
p760
I34
sS'doto'
p761
I34
sS'those'
p762
I32
sS'paying'
p763
I34
sS'hypocrite'
p764
I34
sS'7-8'
p765
I34
sS'look'
p766
I33
sS'these'
p767
I32
sS'gents'
p768
I34
sS'straight'
p769
I34
sS'irises'
p770
I34
sS'tastes'
p771
I34
sS'n'
p772
I34
sS'will'
p773
I32
sS'ugly'
p774
I32
sS'while'
p775
I34
sS'fue'
p776
I34
sS"haven't"
p777
I34
sS'joke'
p778
I34
sS'situation'
p779
I34
sS'flooding'
p780
I34
sS'passes'
p781
I34
sS'lingo'
p782
I34
sS'fool'
p783
I34
sS'stop'
p784
I34
sS'care\xe2\x9c\x8b'
p785
I34
sS'played'
p786
I33
sS'almost'
p787
I34
sS'is'
p788
I9
sS'sushi'
p789
I33
sS'it'
p790
I13
sS'sleeping'
p791
I34
sS'blah'
p792
I32
sS'itself'
p793
I34
sS'im'
p794
I30
sS'avi'
p795
I34
sS'in'
p796
I14
sS'ready'
p797
I34
sS"l's"
p798
I34
sS'if'
p799
I27
sS'handsome'
p800
I34
sS'williams'
p801
I34
sS'shirt'
p802
I34
sS'anymore'
p803
I33
sS'sensitive'
p804
I34
sS'yrs'
p805
I34
sS'swimmin'
p806
I34
sS'make'
p807
I30
sS'bowl'
p808
I34
sS'same'
p809
I33
sS'check'
p810
I34
sS'ight'
p811
I34
sS'commando'
p812
I34
sS'sams'
p813
I34
sS'party'
p814
I33
sS'gets'
p815
I34
sS'standouts'
p816
I34
sS'difficult'
p817
I34
sS'safe'
p818
I34
sS'applaud'
p819
I34
sS'cooked'
p820
I34
sS'yesterday'
p821
I33
sS'bae\xe2\x9d\xa4\xef\xb8\x8f'
p822
I34
sS'kit'
p823
I34
sS'coaches'
p824
I34
sS'moment'
p825
I32
sS'moving'
p826
I34
sS'cleaning'
p827
I34
sS'opinion'
p828
I34
sS'awful'
p829
I34
sS'afghan'
p830
I33
sS'opportunity'
p831
I34
sS"i'm"
p832
I9
sS'\xe2\x9c\x8c\xef\xb8\x8f'
p833
I34
sS'haga'
p834
I34
sS'whateva'
p835
I34
sS'off'
p836
I32
sS'ampm'
p837
I34
sS'i'
p838
I1
sS'makes'
p839
I34
sS'weapon'
p840
I34
sS'humble'
p841
I34
sS'well'
p842
I33
sS'anybody'
p843
I34
sS'grind'
p844
I34
sS'thought'
p845
I31
sS'person'
p846
I33
sS'pham'
p847
I34
sS'contact'
p848
I34
sS'flags'
p849
I33
sS'comes'
p850
I33
sS'y'
p851
I34
sS'wedges'
p852
I34
sS'the'
p853
I3
sS'bumping'
p854
I34
sS'mic'
p855
I34
sS'left'
p856
I34
sS'yaay'
p857
I34
sS'thankd'
p858
I34
sS'newest'
p859
I34
sS'kiss'
p860
I33
sS'just'
p861
I21
sS'less'
p862
I34
sS'being'
p863
I30
sS'nd'
p864
I34
sS"should've"
p865
I34
sS'dancers'
p866
I34
sS'vets'
p867
I34
sS'rest'
p868
I34
sS'blueray'
p869
I34
sS'against'
p870
I34
sS'(i'
p871
I34
sS'kill'
p872
I34
sS'thanks'
p873
I34
sS"a's"
p874
I34
sS'irritable'
p875
I34
sS'yes'
p876
I34
sS'praying'
p877
I34
sS'progress'
p878
I34
sS'lebowski'
p879
I34
sS'sweatpants'
p880
I34
sS'jose'
p881
I34
sS'yr'
p882
I34
sS'$'
p883
I34
sS'han'
p884
I34
sS'roses'
p885
I34
sS'drive'
p886
I34
sS'had'
p887
I30
sS'deposits'
p888
I34
sS'killed'
p889
I34
sS'add'
p890
I34
sS'47th'
p891
I34
sS'parents'
p892
I34
sS'kirko'
p893
I34
sS'soooooo'
p894
I33
sS'wet'
p895
I34
sS'phs'
p896
I34
sS'has'
p897
I30
sS'city'
p898
I34
sS'homework'
p899
I34
sS'gave'
p900
I33
sS'fucked'
p901
I34
sS'around'
p902
I32
sS'read'
p903
I34
sS'big'
p904
I33
sS'bid'
p905
I34
sS'addicts'
p906
I34
sS'gonna'
p907
I31
sS'early'
p908
I34
sS'game'
p909
I32
sS'know'
p910
I23
sS'mom'
p911
I30
sS'desk'
p912
I34
sS'world'
p913
I32
sS'bit'
p914
I34
sS'banda'
p915
I34
sS'lady'
p916
I33
sS'wings'
p917
I34
sS'd'
p918
I34
sS'stuff'
p919
I34
sS'\xc3\xa9lan'
p920
I34
sS'like'
p921
I20
sS'car'
p922
I34
sS'kennedy'
p923
I34
sS'dificil'
p924
I34
sS'candy'
p925
I34
sS'roll'
p926
I34
sS'facing'
p927
I34
sS'\xe2\x9a\xbe\xe2\x9a\xbd'
p928
I34
sS'burgers'
p929
I34
sS'night'
p930
I34
sS'mr'
p931
I34
sS'works'
p932
I33
sS'nigga'
p933
I31
sS'partying'
p934
I34
sS'711....duh'
p935
I34
sS'people'
p936
I24
sS'absolutely'
p937
I34
sS'twitter'
p938
I33
sS'some'
p939
I28
sS'back'
p940
I31
sS'hair'
p941
I31
sS'election'
p942
I34
sS'band'
p943
I34
sS'home'
p944
I34
sS'little'
p945
I34
sS'struggleeeeee'
p946
I34
sS'asssss'
p947
I34
sS'yesss'
p948
I34
sS'happens'
p949
I34
sS'delivered'
p950
I34
sS'trust'
p951
I34
sS'for'
p952
I15
sS'(-'
p953
I34
sS'a\xe2\x80\xa6'
p954
I34
sS'best'
p955
I34
sS'moon'
p956
I34
sS'aww'
p957
I34
sS'asking'
p958
I34
sS'unit'
p959
I34
sS'bruhhh'
p960
I34
sS'vid'
p961
I34
sS'be'
p962
I14
sS'who'
p963
I30
sS'wake'
p964
I34
sS'nosy'
p965
I34
sS'regs'
p966
I34
sS'broken'
p967
I34
sS'^_^'
p968
I34
sS'honked'
p969
I34
sS'buffet'
p970
I34
sS'eye'
p971
I34
sS';)'
p972
I34
sS'super'
p973
I33
sS'by'
p974
I30
sS'perf'
p975
I34
sS'$72'
p976
I34
sS'on'
p977
I12
sS'about'
p978
I31
sS"j's"
p979
I34
sS'working'
p980
I34
sS'oh'
p981
I33
sS'of'
p982
I11
sS'delish'
p983
I34
sS'shoes'
p984
I34
sS'shrimp'
p985
I34
sS'dinner'
p986
I33
sS'legs'
p987
I34
sS'idk'
p988
I34
sS'act'
p989
I34
sS'wanna'
p990
I31
sS'or'
p991
I31
sS'road'
p992
I34
sS'semester:)'
p993
I34
sS'ppl'
p994
I34
sS'nerve'
p995
I34
sS'ladies'
p996
I34
sS'letters'
p997
I34
sS'youi'
p998
I34
sS'smoothie'
p999
I34
sS'visit'
p1000
I34
sS'into'
p1001
I34
sS'year'
p1002
I34
sS'bound'
p1003
I34
sS'usual'
p1004
I34
sS'two'
p1005
I34
sS'down'
p1006
I31
sS'thankful'
p1007
I34
sS'right'
p1008
I33
sS'roads'
p1009
I34
sS'actually'
p1010
I34
sS'couldnt'
p1011
I34
sS'sports'
p1012
I34
sS'soon'
p1013
I34
sS'your'
p1014
I25
sS'chopped'
p1015
I34
sS'bubbly'
p1016
I34
sS"how's"
p1017
I34
sS'her'
p1018
I28
sS"toto's"
p1019
I34
sS'sale"'
p1020
I34
sS'support'
p1021
I34
sS'there'
p1022
I30
sS'hey'
p1023
I34
sS'fast'
p1024
I32
sS'lounging'
p1025
I34
sS'start'
p1026
I34
sS'fought'
p1027
I34
sS'mondays'
p1028
I34
sS'low'
p1029
I34
sS'lot'
p1030
I33
sS'tink'
p1031
I34
sS'immune'
p1032
I34
sS'coldplay'
p1033
I34
sS'valley'
p1034
I34
sS'was'
p1035
I24
sS'man\xe2\x80\x9d'
p1036
I34
sS'happy'
p1037
I30
sS'sagging'
p1038
I34
sS'head'
p1039
I34
sS'hard'
p1040
I34
sS'remember'
p1041
I34
sS"i've"
p1042
I30
sS'lesson'
p1043
I34
sS'hs'
p1044
I34
sS'fireworks'
p1045
I33
sS'slump'
p1046
I34
sS'lmaooo'
p1047
I34
sS'but'
p1048
I21
sS'blaming'
p1049
I34
sS'hear'
p1050
I33
sS'\xe2\x99\xab'
p1051
I34
sS'familia'
p1052
I34
sS'._'
p1053
I34
sS'line'
p1054
I34
sS'trying'
p1055
I33
sS'with'
p1056
I16
sS'buying'
p1057
I34
sS'he'
p1058
I31
sS'35'
p1059
I34
sS'made'
p1060
I32
sS'middle'
p1061
I34
sS'austin'
p1062
I34
sS"wasn't"
p1063
I33
sS'wish'
p1064
I32
sS'practically'
p1065
I34
sS'up'
p1066
I19
sS'us'
p1067
I30
sS'until'
p1068
I34
sS'strawberry'
p1069
I34
sS'"it\'s'
p1070
I33
sS'un'
p1071
I34
sS'bbq'
p1072
I34
sS'bae'
p1073
I34
sS'problem'
p1074
I34
sS'called'
p1075
I34
sS'bath'
p1076
I34
sS'aa'
p1077
I34
sS'toilet'
p1078
I34
sS'promises'
p1079
I34
sS'proud'
p1080
I34
sS'supervisor'
p1081
I34
sS'preaching'
p1082
I34
sS'chad'
p1083
I34
sS'exceeded'
p1084
I34
sS'am'
p1085
I33
sS'friend"'
p1086
I34
sS'deep'
p1087
I34
sS'an'
p1088
I28
sS'sibling'
p1089
I34
sS'as'
p1090
I31
sS"natalia's"
p1091
I34
sS'at'
p1092
I10
sS'chat'
p1093
I34
sS'ricers'
p1094
I34
sS'crystals'
p1095
I34
sS'moves'
p1096
I34
sS'trip'
p1097
I34
sS'shit'
p1098
I28
sS'again'
p1099
I32
sS'"not'
p1100
I34
sS'6th'
p1101
I34
sS'no'
p1102
I19
sS'bored'
p1103
I34
sS'peace'
p1104
I34
sS'when'
p1105
I23
sS'nf'
p1106
I34
sS'saturday'
p1107
I34
sS'field'
p1108
I34
sS'old'
p1109
I34
sS'other'
p1110
I34
sS'5'
p1111
I33
sS'catering)'
p1112
I33
sS'snapchat'
p1113
I34
sS'you'
p1114
I7
sS'out'
p1115
I27
sS'smell'
p1116
I34
sS'shows'
p1117
I34
sS'aburrida'
p1118
I34
sS'"protect-a-thot"'
p1119
I34
sS'picture'
p1120
I33
sS'lena'
p1121
I34
sS'pillows'
p1122
I34
sS'monday'
p1123
I33
sS"o'clock"
p1124
I34
sS'a+'
p1125
I34
sS'football'
p1126
I33
sS'stay'
p1127
I34
sS"let's"
p1128
I34
sS'class'
p1129
I34
sS'podium'
p1130
I34
sS'arielle'
p1131
I34
sS'hurt'
p1132
I34
sS'friends'
p1133
I34
sS'skinny'
p1134
I34
sS"who've"
p1135
I34
sS'alcoholic'
p1136
I34
sS'e'
p1137
I32
sS'longer'
p1138
I34
sS'bullet'
p1139
I34
sS'excuse'
p1140
I34
sS'pete'
p1141
I34
sS'reports'
p1142
I34
sS'hella'
p1143
I33
sS'u'
p1144
I32
sS'fitted'
p1145
I34
sS'7am'
p1146
I34
sS'time'
p1147
I27
sS'far'
p1148
I34
sS"she's"
p1149
I31
sS'starting'
p1150
I34
sS'having'
p1151
I33
sS'hope'
p1152
I34
s.