(dp0
S''
p1
I2
sS'smokin'
p2
I110
sS'todays'
p3
I110
sS'fawk'
p4
I110
sS'headband'
p5
I110
sS'urs'
p6
I110
sS'rev'
p7
I110
sS'synthcore'
p8
I110
sS'opposites'
p9
I110
sS'monte'
p10
I110
sS'yellow'
p11
I110
sS'wierdiest'
p12
I110
sS'four'
p13
I108
sS'sleep'
p14
I94
sS'asian'
p15
I109
sS'hanging'
p16
I108
sS'ridiculous'
p17
I109
sS'captain'
p18
I110
sS'hate'
p19
I66
sS'chili'
p20
I109
sS'0_0'
p21
I110
sS'sushi)'
p22
I108
sS'relationships'
p23
I110
sS'whose'
p24
I110
sS'swag'
p25
I109
sS'world\xc3\x8ds'
p26
I110
sS'buddy'
p27
I109
sS'eligible'
p28
I110
sS'nyc'
p29
I110
sS'tweet'
p30
I102
sS'ttyl'
p31
I110
sS'sweetest'
p32
I110
sS'unanswered'
p33
I110
sS'aggravating'
p34
I110
sS'bike'
p35
I110
sS'daze'
p36
I110
sS'under'
p37
I108
sS'lord'
p38
I109
sS'sorry'
p39
I100
sS'worth'
p40
I108
sS'divergent'
p41
I110
sS'updated'
p42
I110
sS'(lancaster'
p43
I110
sS'louder'
p44
I110
sS'risk'
p45
I110
sS'\xe2\x9d\xa4\xef\xb8\x8f.\xe2\x9d\xa4\xef\xb8\x8f\xe2\x80\x9d'
p46
I110
sS'deli'
p47
I104
sS'...booooooo'
p48
I110
sS'rise'
p49
I108
sS'lurk'
p50
I110
sS'hillview'
p51
I110
sS"today'"
p52
I110
sS'desquitos'
p53
I110
sS'georgia'
p54
I110
sS'every'
p55
I88
sS'jack'
p56
I107
sS"hatin'"
p57
I110
sS'jacob'
p58
I110
sS'bringing'
p59
I108
sS'tagging'
p60
I110
sS'adaptations'
p61
I110
sS'tickets'
p62
I108
sS'school'
p63
I89
sS'strayed'
p64
I110
sS'pre-programming'
p65
I110
sS'applebeetini'
p66
I110
sS'wednesday'
p67
I108
sS'carrie'
p68
I110
sS'csection'
p69
I110
sS'projekt'
p70
I110
sS'commute'
p71
I110
sS'yeahyeahyeah'
p72
I110
sS'judicial'
p73
I110
sS'puig...something'
p74
I110
sS'venus'
p75
I110
sS'(?)'
p76
I110
sS'glued'
p77
I110
sS'heading'
p78
I109
sS'sounds-'
p79
I110
sS'clothes'
p80
I104
sS'enjoy'
p81
I107
sS'bill'
p82
I110
sS'leaders'
p83
I110
sS'goodbye/promotion'
p84
I110
sS'tired'
p85
I101
sS'awake'
p86
I110
sS'phones'
p87
I108
sS'hating'
p88
I109
sS'bacon'
p89
I110
sS'japanese'
p90
I110
sS'nail'
p91
I110
sS'bestfriend\xe2\x9d\xa4\xef\xb8\x8f\xe2\x9d\xa4\xef\xb8\x8f\xe2\x9d\xa4\xef\xb8\x8f'
p92
I110
sS'second'
p93
I107
sS'street'
p94
I110
sS'faithful'
p95
I110
sS'friendships'
p96
I110
sS'n'
p97
I91
sS'panda'
p98
I97
sS'peeeve-'
p99
I110
sS'cherryyyy'
p100
I110
sS'even'
p101
I85
sS'established'
p102
I110
sS'guidos'
p103
I110
sS'hide'
p104
I110
sS'christ'
p105
I110
sS'integrity'
p106
I110
sS'cooking'
p107
I109
sS'playin'
p108
I110
sS'frietze'
p109
I110
sS'asia'
p110
I104
sS'(which'
p111
I110
sS'hostile'
p112
I110
sS'h&m'
p113
I110
sS'"unsee"'
p114
I110
sS'new'
p115
I66
sS'tips'
p116
I109
sS'sexxxy'
p117
I110
sS'ever'
p118
I92
sS'discrimination'
p119
I110
sS'told'
p120
I99
sS'hobby'
p121
I110
sS"(it's"
p122
I110
sS'mamas'
p123
I109
sS'kicked'
p124
I106
sS'hero'
p125
I110
sS'zach'
p126
I110
sS'disobeying'
p127
I110
sS'pancakes'
p128
I109
sS'gayer'
p129
I110
sS'never'
p130
I71
sS'jasmine'
p131
I108
sS'here'
p132
I67
sS'wondaaa'
p133
I110
sS'\xe2\x9d\xa4\xef\xb8\x8f\xe2\x9d\xa4\xef\xb8\x8f\xe2\x9d\xa4\xef\xb8\x8f\xe2\x9d\xa4\xef\xb8\x8f'
p134
I110
sS'met'
p135
I105
sS'roya'
p136
I110
sS'pursuit'
p137
I110
sS'somecause'
p138
I110
sS'bbq)'
p139
I109
sS"aren't"
p140
I105
sS'dork'
p141
I110
sS'dry'
p142
I107
sS'kids'
p143
I105
sS'daughter'
p144
I104
sS'glm'
p145
I110
sS'jams'
p146
I110
sS'water...:)'
p147
I110
sS'k'
p148
I107
sS'changed'
p149
I107
sS'robin'
p150
I110
sS'tv'
p151
I107
sS"i'd"
p152
I102
sS'ako'
p153
I109
sS'mentor'
p154
I110
sS'smoke'
p155
I109
sS'gdr2'
p156
I110
sS'complicated'
p157
I109
sS"i'm"
p158
I6
sS'poverty'
p159
I110
sS'changes'
p160
I110
sS'$3.79/gallon'
p161
I110
sS'friendzone'
p162
I110
sS'remembering'
p163
I110
sS'tu'
p164
I109
sS'divide'
p165
I109
sS'campaign'
p166
I110
sS'hatred'
p167
I110
sS'bru'
p168
I110
sS'feelings'
p169
I109
sS'bro'
p170
I99
sS'patience'
p171
I110
sS'bekahboo715'
p172
I110
sS'insta'
p173
I109
sS'opportunities'
p174
I110
sS'bri'
p175
I109
sS'offf'
p176
I110
sS'punching'
p177
I110
sS'actions'
p178
I110
sS'zoning'
p179
I110
sS'hoping'
p180
I109
sS'radiohead!"'
p181
I110
sS'rancho'
p182
I106
sS'spoke'
p183
I110
sS'would'
p184
I87
sS'army'
p185
I110
sS'catchy'
p186
I110
sS'sweater'
p187
I109
sS'motivate'
p188
I109
sS'negative'
p189
I109
sS'poached'
p190
I110
sS'cali'
p191
I108
sS'pm)'
p192
I110
sS'symphony'
p193
I110
sS'music'
p194
I96
sS'calm'
p195
I108
sS'passport'
p196
I110
sS'recommend'
p197
I110
sS'"nice'
p198
I110
sS'robertson'
p199
I110
sS'"bre"'
p200
I110
sS'preview'
p201
I110
sS'type'
p202
I107
sS'tell'
p203
I98
sS'tostada'
p204
I110
sS'effin'
p205
I110
sS'highland...you'
p206
I110
sS'holy'
p207
I108
sS'chilli'
p208
I110
sS'successful'
p209
I109
sS'brings'
p210
I108
sS'trousers'
p211
I110
sS'haha'
p212
I90
sS'award'
p213
I110
sS'hurt'
p214
I109
sS'99'
p215
I107
sS'phone'
p216
I93
sS'warm'
p217
I110
sS'surgeon'
p218
I110
sS'adult'
p219
I108
sS'\xe3\x83\x84'
p220
I110
sS'*security'
p221
I110
sS'93'
p222
I110
sS'hold'
p223
I106
sS'blocking'
p224
I110
sS'must'
p225
I104
sS'shoot'
p226
I107
sS'carrdd'
p227
I110
sS'single?"'
p228
I110
sS'word'
p229
I108
sS'room'
p230
I103
sS'divorced'
p231
I110
sS'rights'
p232
I109
sS'gasolina'
p233
I110
sS'mo'
p234
I110
sS'work'
p235
I73
sS'mi'
p236
I109
sS"quinn's"
p237
I110
sS'ilysm'
p238
I110
sS'remedies'
p239
I110
sS'movies'
p240
I104
sS'cuddle'
p241
I110
sS'palmdizzle..enjoy'
p242
I110
sS'a&e'
p243
I109
sS'already'
p244
I91
sS'sizzler'
p245
I105
sS'my'
p246
I8
sS'cone'
p247
I110
sS'vodka'
p248
I109
sS',93551\n448867917145206785,shewantsshakur,2014-03-26'
p249
I110
sS'thirsty'
p250
I110
sS'give'
p251
I88
sS'indie'
p252
I110
sS'"hubby"'
p253
I110
sS'household'
p254
I110
sS'beautifully'
p255
I110
sS'organized'
p256
I110
sS'stressing'
p257
I110
sS'honey'
p258
I107
sS'foods'
p259
I110
sS'homie'
p260
I106
sS'veggies'
p261
I109
sS'want'
p262
I50
sS'knudson'
p263
I110
sS'keep'
p264
I96
sS'attract'
p265
I110
sS'hamburgers)'
p266
I108
sS'absolute'
p267
I110
sS'ceremony'
p268
I110
sS'hoe'
p269
I109
sS'end'
p270
I101
sS'recovery'
p271
I109
sS'tonight\xe2\x80\x9d'
p272
I110
sS'thing'
p273
I86
sS'provide'
p274
I110
sS'hoo'
p275
I110
sS'travel'
p276
I110
sS'sitting'
p277
I106
sS'nuts'
p278
I109
sS'fondant'
p279
I110
sS'orthodontics)'
p280
I110
sS'machine'
p281
I110
sS'how'
p282
I59
sS'amazing'
p283
I97
sS'hop'
p284
I109
sS'boats'
p285
I110
sS'place'
p286
I92
sS'ordinary'
p287
I110
sS'chase'
p288
I110
sS'beach'
p289
I106
sS'checkin'
p290
I109
sS'is-'
p291
I110
sS'pizza'
p292
I95
sS'badly'
p293
I108
sS'instagramming'
p294
I110
sS'kristie'
p295
I110
sS'white-trash'
p296
I110
sS'beauty'
p297
I104
sS'funny'
p298
I99
sS'mess'
p299
I108
sS'jalen'
p300
I110
sS'after'
p301
I87
sS'wrong'
p302
I100
sS'jumping'
p303
I110
sS'vegans'
p304
I110
sS'lay'
p305
I109
sS'rendezvous'
p306
I110
sS'"tickets"'
p307
I110
sS'president'
p308
I110
sS'law'
p309
I110
sS'meaningful'
p310
I110
sS'\xe2\x9b\xb3\xef\xb8\x8f'
p311
I110
sS'types'
p312
I109
sS'las'
p313
I110
sS'bucks'
p314
I110
sS'purchase'
p315
I110
sS'retail'
p316
I110
sS'third'
p317
I108
sS'yess'
p318
I110
sS'dealer'
p319
I110
sS'nike'
p320
I109
sS'appreciate'
p321
I108
sS'smack'
p322
I110
sS'greet'
p323
I110
sS'childhood'
p324
I108
sS'wink'
p325
I109
sS'18th'
p326
I110
sS'green'
p327
I107
sS"'09"
p328
I110
sS'goodbye'
p329
I108
sS'keeps'
p330
I109
sS'uninsured'
p331
I110
sS'fan'
p332
I109
sS'order'
p333
I105
sS'wind'
p334
I108
sS'wine'
p335
I110
sS'blieve'
p336
I110
sS'salon'
p337
I109
sS'office'
p338
I106
sS'wut'
p339
I103
sS'over'
p340
I79
sS'fall'
p341
I108
sS'murray'
p342
I110
sS'lakota'
p343
I110
sS'oct.8th'
p344
I110
sS'honk'
p345
I110
sS'oven'
p346
I109
sS'foreal'
p347
I109
sS"gino's"
p348
I107
sS'windshield'
p349
I110
sS'hook'
p350
I109
sS'mayor'
p351
I92
sS'before'
p352
I89
sS'ima'
p353
I104
sS'fit'
p354
I105
sS'personal'
p355
I108
sS'kaepernick'
p356
I110
sS'fix'
p357
I109
sS'partynextdoor-'
p358
I110
sS'crew'
p359
I109
sS'better'
p360
I85
sS'imp'
p361
I110
sS'hi"'
p362
I110
sS'rly'
p363
I110
sS'blueberry'
p364
I110
sS'fade'
p365
I110
sS'profile'
p366
I110
sS'weeks'
p367
I106
sS'easier'
p368
I110
sS'fil'
p369
I110
sS'eugene'
p370
I110
sS'then'
p371
I65
sS'them'
p372
I90
sS'noogie'
p373
I110
sS'spray'
p374
I110
sS'weakness'
p375
I110
sS'workout'
p376
I99
sS'peoples'
p377
I110
sS'mouth\xe2\x80\x9d'
p378
I110
sS"we'll"
p379
I109
sS'trail'
p380
I110
sS'break'
p381
I105
sS'band'
p382
I107
sS"'nafs'"
p383
I110
sS'therapy'
p384
I110
sS'they'
p385
I60
sS':(('
p386
I110
sS'schools'
p387
I107
sS'17th'
p388
I110
sS'one'
p389
I53
sS'rental'
p390
I110
sS'ther'
p391
I110
sS'bank'
p392
I105
sS'bread'
p393
I110
sS'stinking'
p394
I110
sS'alex'
p395
I108
sS'2birthdays'
p396
I110
sS'ios8'
p397
I110
sS'notified'
p398
I110
sS'potatoes'
p399
I110
sS'l'
p400
I107
sS'"hands'
p401
I110
sS'choir'
p402
I110
sS'mmmmmmmmmmmmmmmmmm'
p403
I110
sS'7.99'
p404
I110
sS'each'
p405
I107
sS'retainers'
p406
I110
sS'went'
p407
I96
sS'yung'
p408
I110
sS'side'
p409
I105
sS'bone'
p410
I108
sS'luck'
p411
I108
sS'signing'
p412
I110
sS'mda'
p413
I110
sS'spider'
p414
I110
sS'rally'
p415
I110
sS'solution'
p416
I110
sS'vibbin'
p417
I110
sS'celebrating'
p418
I110
sS'neiman'
p419
I110
sS'forgot'
p420
I106
sS'2day'
p421
I110
sS'dawn'
p422
I104
sS'publically'
p423
I110
sS'saturday'
p424
I104
sS'whip'
p425
I110
sS"asap...it's"
p426
I110
sS'rt'
p427
I66
sS'oooo'
p428
I110
sS'gon'
p429
I108
sS'flatafter'
p430
I110
sS'driving'
p431
I94
sS'pussies'
p432
I110
sS'idea\xe2\x9d\xa4\xef\xb8\x8f'
p433
I110
sS'god'
p434
I93
sS'motel'
p435
I110
sS'bat'
p436
I110
sS'george'
p437
I110
sS'laid'
p438
I109
sS'daniel'
p439
I110
sS'good\xe2\x80\x9d'
p440
I110
sS'ihop'
p441
I107
sS'smh'
p442
I103
sS'medicine'
p443
I109
sS'got'
p444
I33
sS'rn'
p445
I90
sS'gov'
p446
I110
sS'day"'
p447
I110
sS'24%'
p448
I110
sS'foundation'
p449
I110
sS'nia'
p450
I110
sS'turning'
p451
I109
sS'cutest'
p452
I110
sS"doesn't"
p453
I97
sS'tops'
p454
I110
sS'throwbacks'
p455
I110
sS'little'
p456
I94
sS'free'
p457
I98
sS'fred'
p458
I109
sS'sinning'
p459
I110
sS'gahhh'
p460
I110
sS'appointments'
p461
I110
sS'struggle'
p462
I107
sS'hoodie'
p463
I110
sS'beanies'
p464
I110
sS'fooooooood'
p465
I110
sS'enlightened'
p466
I110
sS'wanted'
p467
I100
sS'westside'
p468
I110
sS'"don\'t'
p469
I110
sS'greasy'
p470
I109
sS'mvp'
p471
I110
sS'dammit'
p472
I110
sS'ate'
p473
I110
sS'dayz'
p474
I110
sS'created'
p475
I110
sS'starts'
p476
I110
sS'atl'
p477
I110
sS'much.fuck'
p478
I110
sS'messages'
p479
I110
sS'days'
p480
I85
sS'ups'
p481
I109
sS'shakur'
p482
I109
sS'heck'
p483
I110
sS'caprica'
p484
I110
sS'nemore'
p485
I110
sS"today's"
p486
I110
sS'unknown'
p487
I110
sS'app'
p488
I110
sS'potions'
p489
I110
sS'(at'
p490
I89
sS'caught'
p491
I110
sS'fuckin'
p492
I100
sS'cleaning'
p493
I110
sS'clarita'
p494
I109
sS'>>'
p495
I110
sS'today\xe2\x80\x9d'
p496
I110
sS'grade'
p497
I108
sS'unicorn'
p498
I110
sS'assumptions'
p499
I110
sS'encouraging'
p500
I110
sS'hearing'
p501
I109
sS"angels'"
p502
I110
sS'wash'
p503
I108
sS'featured'
p504
I110
sS'another'
p505
I96
sS'uno)'
p506
I109
sS'insulation'
p507
I110
sS'antibiotic'
p508
I110
sS'thick'
p509
I110
sS'clarity'
p510
I110
sS'sufferin'
p511
I110
sS'tomarrow'
p512
I110
sS'hood'
p513
I109
sS'specially'
p514
I110
sS'here-'
p515
I110
sS'olds'
p516
I110
sS'basketball'
p517
I109
sS'sweeeet'
p518
I110
sS'service'
p519
I108
sS'rejects'
p520
I110
sS'guinness'
p521
I110
sS'nickname'
p522
I110
sS'top'
p523
I106
sS'girls'
p524
I96
sS'loaders'
p525
I110
sS'needed'
p526
I107
sS'jamba'
p527
I106
sS'(422'
p528
I107
sS'too'
p529
I65
sS'tom'
p530
I109
sS'chugging'
p531
I110
sS'hollywood'
p532
I110
sS'legs'
p533
I109
sS'eats'
p534
I110
sS'dogs'
p535
I110
sS'listen'
p536
I105
sS'toof'
p537
I110
sS'roles'
p538
I110
sS'weddings'
p539
I110
sS'8.5-9.5'
p540
I110
sS'"funny'
p541
I110
sS'strawberrys'
p542
I110
sS'gym'
p543
I105
sS'lumber'
p544
I110
sS'albert'
p545
I110
sS'took'
p546
I103
sS'wisdom'
p547
I107
sS'lately)'
p548
I110
sS'western'
p549
I110
sS'cereal'
p550
I110
sS'hazelnut'
p551
I110
sS'wasted'
p552
I109
sS'horrible'
p553
I110
sS'character'
p554
I110
sS'begins'
p555
I109
sS'mercy'
p556
I109
sS'anxiety'
p557
I109
sS'target'
p558
I82
sS'ew'
p559
I110
sS'hike'
p560
I110
sS'hibachi'
p561
I110
sS'tree'
p562
I110
sS'haah'
p563
I110
sS'medley'
p564
I110
sS'project'
p565
I108
sS'matter'
p566
I105
sS'classes'
p567
I110
sS'silly'
p568
I108
sS'mermaid'
p569
I110
sS'deserving'
p570
I110
sS'10th'
p571
I91
sS'girl"'
p572
I110
sS'mini'
p573
I109
sS'sees'
p574
I109
sS'palace'
p575
I110
sS'modern'
p576
I110
sS'mind'
p577
I99
sS'mine'
p578
I106
sS'fandom'
p579
I110
sS'talking'
p580
I99
sS'lie....not'
p581
I110
sS'rap'
p582
I109
sS'\xe2\x80\xa2escaping'
p583
I110
sS'seen'
p584
I103
sS'ohhhh'
p585
I110
sS'mins'
p586
I109
sS'seek'
p587
I110
sS'tells'
p588
I110
sS"'western"
p589
I109
sS'foundational'
p590
I110
sS'praising'
p591
I110
sS'strength'
p592
I110
sS'mario1288'
p593
I110
sS'karmas'
p594
I110
sS'concrete'
p595
I110
sS'do"'
p596
I110
sS'convenient'
p597
I109
sS'timberlake'
p598
I110
sS'soaked'
p599
I110
sS'-'
p600
I59
sS'others)'
p601
I105
sS'gabriels'
p602
I110
sS'movement'
p603
I110
sS'doors'
p604
I110
sS'lol,93551\n502299910469718016,dubbcoop,2014-08-21'
p605
I110
sS'mormon."'
p606
I110
sS'grips'
p607
I110
sS'morninggo'
p608
I110
sS'yucky'
p609
I110
sS'blue'
p610
I108
sS'gravy'
p611
I110
sS'nobody'
p612
I109
sS'though'
p613
I104
sS'thrilled'
p614
I110
sS'fast2'
p615
I110
sS'doin'
p616
I108
sS"viennoise'"
p617
I110
sS'wells'
p618
I109
sS'espressoso'
p619
I110
sS'"i'
p620
I110
sS'regular'
p621
I110
sS'mouth'
p622
I106
sS'hike...now'
p623
I110
sS'letter'
p624
I110
sS'exercises'
p625
I110
sS'proverb'
p626
I110
sS'see-'
p627
I110
sS'hahahahaaaa'
p628
I110
sS'macbook'
p629
I109
sS'grave'
p630
I110
sS'maria'
p631
I110
sS'dummy'
p632
I109
sS'rooster'
p633
I110
sS'episode'
p634
I108
sS'neighborhoods'
p635
I110
sS'dom'
p636
I110
sS'accord'
p637
I110
sS'qris'
p638
I110
sS'camp'
p639
I109
sS'm'
p640
I109
sS'dog'
p641
I105
sS'roommates'
p642
I110
sS'doe'
p643
I108
sS'freeway'
p644
I108
sS'swamp'
p645
I110
sS'please!?\xe2\x80\x9d'
p646
I110
sS'definitely'
p647
I108
sS'principle'
p648
I110
sS'pineapple'
p649
I109
sS'consultations'
p650
I110
sS'hotdog'
p651
I110
sS'annoyed'
p652
I109
sS'came'
p653
I102
sS'saying'
p654
I98
sS'tuhhdaaayyy'
p655
I110
sS'selected'
p656
I110
sS'bomb'
p657
I101
sS'lyrics'
p658
I109
sS'juss'
p659
I110
sS'bitchhing'
p660
I110
sS'random'
p661
I108
sS'areaaaa'
p662
I110
sS'nominated'
p663
I110
sS'ending'
p664
I110
sS'pops'
p665
I110
sS'v.v'
p666
I109
sS'soccer\xe2\x80\xa6'
p667
I110
sS'radio'
p668
I105
sS'liberty'
p669
I110
sS'subtle'
p670
I110
sS'toilet'
p671
I110
sS'cout'
p672
I110
sS'1billion'
p673
I110
sS'fuckn'
p674
I109
sS'judges'
p675
I110
sS'busy'
p676
I110
sS'smartass'
p677
I110
sS'3rd-part'
p678
I110
sS'bbt'
p679
I110
sS'explain'
p680
I109
sS"baby's"
p681
I108
sS'bust'
p682
I109
sS'liquitex'
p683
I110
sS'rihanna'
p684
I110
sS'cougar'
p685
I110
sS'theme'
p686
I110
sS'version'
p687
I110
sS'bliss'
p688
I110
sS'judged'
p689
I110
sS'rich'
p690
I110
sS'photo'
p691
I109
sS'mend'
p692
I110
sS'attitudes'
p693
I110
sS'chipotle'
p694
I108
sS'rice'
p695
I110
sS'goalie'
p696
I110
sS'smaller'
p697
I110
sS'wearing'
p698
I103
sS'do'
p699
I36
sS'dm'
p700
I109
sS'colorful'
p701
I110
sS'$15'
p702
I110
sS"'i"
p703
I110
sS'honda'
p704
I106
sS'watch'
p705
I90
sS'dope"'
p706
I110
sS'coast'
p707
I109
sS'amazon'
p708
I110
sS'despite'
p709
I108
sS'nathan'
p710
I110
sS'dr'
p711
I108
sS'nurse'
p712
I110
sS'sandy'
p713
I110
sS'14'
p714
I109
sS'bransn'
p715
I110
sS'\xe2\x9c\xa8\xe2\x9c\xa8\xe2\x9c\xa8\xe2\x9c\xa8\xe2\x9c\xa8'
p716
I110
sS'runs'
p717
I109
sS'6ft'
p718
I110
sS'bar'
p719
I107
sS'die'
p720
I110
sS'covering'
p721
I109
sS'w/u'
p722
I110
sS'fields'
p723
I110
sS'excel'
p724
I110
sS'pretzel'
p725
I110
sS'disco'
p726
I109
sS'twice'
p727
I107
sS'bad'
p728
I93
sS'bae'
p729
I103
sS'34th'
p730
I110
sS'shots'
p731
I102
sS'18'
p732
I109
sS'release'
p733
I109
sS'wannabe'
p734
I110
sS'steak'
p735
I109
sS'ruins'
p736
I109
sS'effing'
p737
I110
sS'thumbs'
p738
I110
sS'headed'
p739
I109
sS'blew'
p740
I107
sS'decides'
p741
I110
sS'fair'
p742
I106
sS'habit'
p743
I108
sS'w/'
p744
I86
sS'makeover'
p745
I110
sS'lemonade'
p746
I108
sS'girly'
p747
I110
sS'facts'
p748
I110
sS'pads'
p749
I110
sS'decided'
p750
I109
sS'go\xe2\x80\x9d'
p751
I110
sS'result'
p752
I110
sS'nuh'
p753
I110
sS'fail'
p754
I109
sS'christian'
p755
I110
sS'bevmo'
p756
I109
sS'excited\xee\x90\x84\xee\x90\x84'
p757
I110
sS'hammer'
p758
I110
sS'smoothies'
p759
I110
sS'best'
p760
I60
sS'lancaster'
p761
I105
sS'hahahahahahahaha'
p762
I110
sS'said'
p763
I93
sS'onto'
p764
I109
sS'pedicure'
p765
I109
sS'lots'
p766
I107
sS'analyze'
p767
I110
sS'away'
p768
I102
sS't-mobile'
p769
I110
sS'grandmother'
p770
I110
sS'avery'
p771
I110
sS'*brodie'
p772
I110
sS'future'
p773
I106
sS'olympics'
p774
I110
sS'discovers'
p775
I110
sS'hopefully'
p776
I106
sS'yogurt'
p777
I109
sS'babye'
p778
I110
sS'chickfila'
p779
I110
sS'involved'
p780
I110
sS'(not'
p781
I110
sS'warrior'
p782
I110
sS'we'
p783
I55
sS'men'
p784
I107
sS'omg'
p785
I96
sS'nature'
p786
I110
sS'lupe'
p787
I110
sS'wrapping'
p788
I110
sS'restricting'
p789
I110
sS'weak'
p790
I107
sS'however'
p791
I109
sS'boss'
p792
I109
sS'aaliyah'
p793
I110
sS'wear'
p794
I102
sS'wtf'
p795
I97
sS'werk'
p796
I110
sS'wth'
p797
I107
sS'cousin'
p798
I107
sS'picking'
p799
I110
sS'intelligent'
p800
I110
sS'cop'
p801
I110
sS'joe'
p802
I110
sS'eggnog'
p803
I110
sS'talkingpeople'
p804
I110
sS'\xe2\x9d\xa4\xef\xb8\x8f'
p805
I108
sS'country'
p806
I106
sS'ill'
p807
I105
sS'jelly'
p808
I110
sS'against'
p809
I108
sS"'ponies"
p810
I110
sS'players'
p811
I110
sS'avii'
p812
I110
sS'games'
p813
I107
sS'planned'
p814
I110
sS'lookin'
p815
I110
sS'faces'
p816
I109
sS'pinansin'
p817
I110
sS'brah'
p818
I110
sS'asked'
p819
I103
sS"bj's"
p820
I110
sS'uno'
p821
I106
sS'us/por'
p822
I110
sS'skill'
p823
I109
sS'motherfuckers'
p824
I110
sS'tough'
p825
I110
sS'tong'
p826
I110
sS'napapangiti'
p827
I110
sS'had'
p828
I70
sS'(40130'
p829
I110
sS'fido'
p830
I110
sS'nig'
p831
I110
sS'20s'
p832
I110
sS'okkkk'
p833
I109
sS'height'
p834
I110
sS'tons'
p835
I110
sS'written'
p836
I110
sS'favoriteeee'
p837
I110
sS'foray'
p838
I110
sS'club\xe2\x80\xa6'
p839
I110
sS'tony'
p840
I110
sS'loaded'
p841
I110
sS'refill'
p842
I110
sS'trust'
p843
I106
sS"you're*"
p844
I110
sS'speak'
p845
I109
sS'analyst"-'
p846
I110
sS'workplace'
p847
I110
sS"tim's"
p848
I110
sS'puts'
p849
I105
sS'"you'
p850
I109
sS'union'
p851
I109
sS"beyonc\xc3\xa9's"
p852
I110
sS'3.89'
p853
I109
sS'sororities'
p854
I110
sS'fro'
p855
I110
sS'three'
p856
I108
sS'been'
p857
I71
sS'cyrus'
p858
I109
sS'advert'
p859
I110
sS'confident'
p860
I110
sS'beer'
p861
I108
sS'much'
p862
I63
sS'tailgate'
p863
I110
sS'nomination'
p864
I110
sS'expected'
p865
I108
sS'vampire_mom_14'
p866
I110
sS'compellin'
p867
I110
sS'lovely'
p868
I110
sS'towns'
p869
I110
sS'doooo'
p870
I110
sS'"one'
p871
I110
sS'yeeeebudddyyy'
p872
I110
sS'digits'
p873
I110
sS'life'
p874
I69
sS'ooooo'
p875
I109
sS'relaxing'
p876
I110
sS'newschool'
p877
I110
sS'drugs'
p878
I110
sS"g35's"
p879
I110
sS'prison'
p880
I109
sS'sooooo'
p881
I110
sS'riyadh'
p882
I110
sS'madhouse'
p883
I110
sS'locations'
p884
I110
sS'lift'
p885
I110
sS'benefits'
p886
I110
sS'catch'
p887
I108
sS'clam'
p888
I110
sS'worked'
p889
I106
sS'haters'
p890
I109
sS'chill'
p891
I107
sS'hello?"'
p892
I110
sS'mulligans'
p893
I108
sS'tank'
p894
I108
sS'"business'
p895
I109
sS'shooooooot'
p896
I110
sS'neal'
p897
I110
sS'air'
p898
I108
sS'"selfie"'
p899
I110
sS'ugly'
p900
I107
sS'near'
p901
I109
sS'bulking'
p902
I110
sS'him/her'
p903
I110
sS'buffet)'
p904
I107
sS'aid'
p905
I110
sS'weezer'
p906
I109
sS'voice'
p907
I109
sS'study'
p908
I109
sS'chilling'
p909
I110
sS'mongolian'
p910
I110
sS'spawn'
p911
I110
sS'pyramid'
p912
I110
sS'"those"'
p913
I110
sS'played'
p914
I108
sS'thursdays'
p915
I110
sS'is'
p916
I11
sS'sushi'
p917
I83
sS'coffee.sometimes'
p918
I110
sS'it'
p919
I15
sS'eswin'
p920
I110
sS'cant'
p921
I102
sS'im'
p922
I74
sS'experience'
p923
I109
sS'process'
p924
I110
sS'in'
p925
I11
sS'dazzler'
p926
I105
sS'id'
p927
I104
sS'if'
p928
I44
sS'grown'
p929
I110
sS'fantine'
p930
I110
sS'2themselves'
p931
I110
sS'credit'
p932
I108
sS'chilis'
p933
I110
sS'things'
p934
I87
sS'make'
p935
I79
sS'wound'
p936
I110
sS'"rappers"'
p937
I110
sS'jesus.sometimes'
p938
I110
sS'bottled'
p939
I110
sS'caffe'
p940
I110
sS'hahah'
p941
I106
sS'decibel'
p942
I109
sS'stix)'
p943
I110
sS'sat'
p944
I110
sS'grows'
p945
I109
sS"70's"
p946
I110
sS'fairly'
p947
I110
sS'outside'
p948
I106
sS'sittin'
p949
I110
sS'yousay'
p950
I110
sS'cindy'
p951
I110
sS'""'
p952
I110
sS'sings'
p953
I110
sS'social'
p954
I109
sS'hang'
p955
I108
sS'coachella'
p956
I110
sS'rain'
p957
I109
sS'hand'
p958
I104
sS'kik'
p959
I110
sS'scubba'
p960
I110
sS'realness'
p961
I110
sS'kim'
p962
I109
sS'mentions'
p963
I110
sS'jealous'
p964
I109
sS'positives'
p965
I109
sS'kia'
p966
I110
sS'"who'
p967
I110
sS'thoughts'
p968
I110
sS'kid'
p969
I104
sS'butter'
p970
I110
sS'milkshake\xe2\x9d\x97\xef\xb8\x8f'
p971
I110
sS'bell)'
p972
I110
sS"mother's"
p973
I110
sS'pot!)'
p974
I110
sS'charlie'
p975
I110
sS'youre'
p976
I110
sS'youngins'
p977
I110
sS'kyle'
p978
I110
sS'ocean'
p979
I110
sS'tho'
p980
I89
sS'burgers'
p981
I107
sS'client'
p982
I110
sS'palmdale.\xe2\x80\x9dlmao'
p983
I110
sS'greatest'
p984
I110
sS'norco'
p985
I110
sS'floating'
p986
I110
sS'hearts'
p987
I110
sS'the'
p988
I4
sS'flops'
p989
I110
sS'musical'
p990
I110
sS'dipshit'
p991
I110
sS'left'
p992
I103
sS'yeh'
p993
I110
sS'background'
p994
I110
sS'just'
p995
I21
sS'yea'
p996
I103
sS'gods'
p997
I109
sS'laptop'
p998
I109
sS'newton'
p999
I110
sS'did!i'
p1000
I110
sS'mid'
p1001
I110
sS'verses'
p1002
I110
sS'quotes'
p1003
I110
sS'appetite'
p1004
I110
sS'thanks'
p1005
I91
sS'human'
p1006
I107
sS'515-230am'
p1007
I110
sS'analyst"-omg'
p1008
I110
sS'yep'
p1009
I110
sS'yes'
p1010
I102
sS'waffles'
p1011
I110
sS'yet'
p1012
I98
sS'adding'
p1013
I110
sS'regulars'
p1014
I110
sS'broncos'
p1015
I110
sS'hills'
p1016
I109
sS'sunday/monday'
p1017
I110
sS'furry'
p1018
I110
sS'associates'
p1019
I110
sS'josh'
p1020
I108
sS'ideal'
p1021
I110
sS'pharmacy'
p1022
I110
sS'(los'
p1023
I109
sS'shout'
p1024
I109
sS'spread'
p1025
I110
sS'banger'
p1026
I110
sS'advanced'
p1027
I77
sS'easy'
p1028
I108
sS'starbucks)'
p1029
I64
sS'has'
p1030
I71
sS'hat'
p1031
I109
sS'(as'
p1032
I110
sS'gave'
p1033
I107
sS'*still*'
p1034
I110
sS'popping'
p1035
I110
sS'bands'
p1036
I110
sS'confection'
p1037
I110
sS'mayn'
p1038
I110
sS'possible'
p1039
I110
sS'lmmfao'
p1040
I110
sS'cultural'
p1041
I107
sS'injuring'
p1042
I110
sS'birth'
p1043
I110
sS'wanting'
p1044
I109
sS'god"'
p1045
I110
sS'shakeys'
p1046
I109
sS'shadow'
p1047
I109
sS'strap'
p1048
I110
sS'burnt'
p1049
I109
sS'korean'
p1050
I110
sS'dreams'
p1051
I105
sS'd'
p1052
I110
sS'brought'
p1053
I107
sS'insurgent'
p1054
I109
sS"eton's"
p1055
I110
sS'58'
p1056
I110
sS'gift'
p1057
I106
sS'texts'
p1058
I110
sS'mani/pedi'
p1059
I110
sS'grizzly'
p1060
I110
sS'\xe2\x98\x95'
p1061
I110
sS'50'
p1062
I110
sS'steph'
p1063
I109
sS'specific'
p1064
I110
sS'remind'
p1065
I108
sS'gkg'
p1066
I110
sS'zombies'
p1067
I110
sS'night'
p1068
I80
sS'5%'
p1069
I110
sS'5$'
p1070
I110
sS'security'
p1071
I110
sS'toughest'
p1072
I110
sS'mmmmmmmmm'
p1073
I110
sS'clementine'
p1074
I110
sS'goodmorning!\xe2\x98\x80'
p1075
I110
sS'bets'
p1076
I110
sS'right'
p1077
I69
sS'old'
p1078
I94
sS'deal'
p1079
I106
sS'people'
p1080
I51
sS'backs'
p1081
I110
sS'crown'
p1082
I110
sS'dead'
p1083
I101
sS'jennifer'
p1084
I109
sS"applebee's"
p1085
I105
sS'born'
p1086
I106
sS'neva'
p1087
I109
sS'escape'
p1088
I110
sS'dear'
p1089
I108
sS'xbox'
p1090
I110
sS"gentlemen's"
p1091
I110
sS'creep'
p1092
I110
sS"daddy's"
p1093
I110
sS'for'
p1094
I17
sS'bottom'
p1095
I109
sS'purple'
p1096
I109
sS'opposite'
p1097
I110
sS'fox'
p1098
I110
sS'ice'
p1099
I104
sS'tornado'
p1100
I109
sS'asking'
p1101
I109
sS'shakespeare'
p1102
I110
sS'umm'
p1103
I110
sS'aaaaah'
p1104
I110
sS'beating'
p1105
I109
sS'christmas'
p1106
I106
sS'nwts'
p1107
I110
sS'cord'
p1108
I110
sS'core'
p1109
I110
sS'columbus'
p1110
I110
sS'club"'
p1111
I110
sS'dunkin'
p1112
I110
sS'club)'
p1113
I106
sS'dental'
p1114
I110
sS'pose'
p1115
I109
sS'grindin'
p1116
I110
sS'fullest'
p1117
I110
sS'numero'
p1118
I104
sS'starring'
p1119
I110
sS'situation,93551\n448868136901558272,shewantsshakur,2014-03-26'
p1120
I110
sS'graduated'
p1121
I110
sS'post'
p1122
I106
sS'super'
p1123
I107
sS'"have'
p1124
I110
sS'pelvic'
p1125
I110
sS'selfie\xe2\x80\x9d'
p1126
I110
sS'oreo'
p1127
I110
sS'yelling'
p1128
I110
sS'bluejackets'
p1129
I110
sS'me\xe2\x80\x9d'
p1130
I110
sS'dollars'
p1131
I110
sS'valentines'
p1132
I108
sS'uoeno'
p1133
I110
sS'surround'
p1134
I109
sS'"westpoint"'
p1135
I110
sS'dinner'
p1136
I96
sS'plus'
p1137
I104
sS'afternoon'
p1138
I110
sS'stoked'
p1139
I110
sS'cherish'
p1140
I110
sS"'im"
p1141
I110
sS'nooooooo'
p1142
I110
sS'octopus'
p1143
I110
sS'hospital'
p1144
I110
sS'automatically'
p1145
I110
sS'bath'
p1146
I109
sS'nerve'
p1147
I110
sS'contains'
p1148
I110
sS'statements'
p1149
I110
sS'subs'
p1150
I110
sS'lied'
p1151
I110
sS'twitcon'
p1152
I110
sS'wasting'
p1153
I110
sS'pays'
p1154
I110
sS'selfie'
p1155
I105
sS'awh'
p1156
I110
sS'bound'
p1157
I107
sS'soo'
p1158
I108
sS'son'
p1159
I106
sS'down'
p1160
I88
sS'lies'
p1161
I109
sS'juicing'
p1162
I110
sS"marie's"
p1163
I106
sS'yanni'
p1164
I110
sS"albertson's"
p1165
I110
sS'wrap'
p1166
I110
sS'gamestop)'
p1167
I110
sS'federal'
p1168
I110
sS'rant'
p1169
I110
sS'birdies'
p1170
I104
sS'gaines'
p1171
I110
sS'parade'
p1172
I110
sS'east'
p1173
I110
sS'wal'
p1174
I108
sS'fabric'
p1175
I110
sS'comparing'
p1176
I110
sS'amazingly'
p1177
I110
sS'support'
p1178
I107
sS'tennis'
p1179
I107
sS'fight'
p1180
I107
sS'omgee'
p1181
I110
sS'stuck'
p1182
I105
sS'fought'
p1183
I110
sS'way'
p1184
I79
sS'call'
p1185
I98
sS'appts'
p1186
I110
sS'qhhs'
p1187
I109
sS'war'
p1188
I108
sS'leading'
p1189
I110
sS'happy'
p1190
I81
sS'allwwaaaayysss'
p1191
I110
sS'starve'
p1192
I110
sS'head'
p1193
I90
sS'toward'
p1194
I110
sS'palmdale...mention'
p1195
I110
sS'michelle'
p1196
I109
sS'maddy'
p1197
I110
sS'northrop'
p1198
I110
sS'22%'
p1199
I110
sS'converse'
p1200
I110
sS'lawn'
p1201
I110
sS'alirght'
p1202
I110
sS'jansen'
p1203
I110
sS'......only'
p1204
I110
sS'shits'
p1205
I110
sS'heat'
p1206
I104
sS'hear'
p1207
I104
sS'marrin'
p1208
I110
sS'survive'
p1209
I110
sS'olaya'
p1210
I110
sS'removed'
p1211
I110
sS'true'
p1212
I106
sS'mazie'
p1213
I110
sS'barista'
p1214
I110
sS'commitment'
p1215
I110
sS'tryin'
p1216
I110
sS'humbled'
p1217
I110
sS'captive'
p1218
I110
sS'kohls'
p1219
I110
sS'soju'
p1220
I110
sS'inside'
p1221
I105
sS'fakest'
p1222
I110
sS'strongest'
p1223
I110
sS'stores'
p1224
I110
sS'until'
p1225
I99
sS"tristan's"
p1226
I110
sS'lawd'
p1227
I110
sS'r.i.p'
p1228
I110
sS'makikita'
p1229
I110
sS'adore'
p1230
I110
sS'lays'
p1231
I110
sS'(cont)'
p1232
I105
sS'faking'
p1233
I110
sS'kbbq'
p1234
I110
sS'email'
p1235
I110
sS'90%'
p1236
I110
sS'promises'
p1237
I110
sS'later'
p1238
I105
sS'shin'
p1239
I110
sS'beaten'
p1240
I110
sS'flat'
p1241
I110
sS"ma'am"
p1242
I110
sS'gabrielle'
p1243
I110
sS'proven'
p1244
I110
sS'sale'
p1245
I107
sS'shiz'
p1246
I110
sS'juice('
p1247
I110
sS'juice)'
p1248
I110
sS'exist'
p1249
I110
sS'trix'
p1250
I110
sS'prayer'
p1251
I110
sS'awhile'
p1252
I108
sS'annoying'
p1253
I105
sS'trip'
p1254
I105
sS'shit'
p1255
I69
sS'physical'
p1256
I110
sS'holla'
p1257
I110
sS'vista'
p1258
I107
sS'lungs'
p1259
I110
sS'dying'
p1260
I105
sS'no'
p1261
I45
sS'na'
p1262
I109
sS'insane'
p1263
I110
sS'when'
p1264
I35
sS'reality'
p1265
I109
sS'til'
p1266
I104
sS'coffee\xe2\x80\xa6'
p1267
I110
sS'setting'
p1268
I109
sS'holding'
p1269
I108
sS'digital'
p1270
I110
sS'test'
p1271
I109
sS'tie'
p1272
I109
sS'depot'
p1273
I110
sS'smell'
p1274
I107
sS'roll'
p1275
I108
sS'whooptie'
p1276
I110
sS'eternity'
p1277
I110
sS'picture'
p1278
I104
sS'starburst'
p1279
I110
sS'brothers'
p1280
I108
sS'garland'
p1281
I110
sS"o'clock"
p1282
I109
sS'dies'
p1283
I110
sS'felt'
p1284
I105
sS'outreach'
p1285
I110
sS'diet'
p1286
I110
sS"let's"
p1287
I96
sS'outback'
p1288
I110
sS'journey'
p1289
I110
sS"'a"
p1290
I109
sS'smelling'
p1291
I110
sS'rolling'
p1292
I110
sS'ramiro\xe2\x80\xa6'
p1293
I110
sS'detox'
p1294
I110
sS'weekend'
p1295
I105
sS'died'
p1296
I108
sS'younger'
p1297
I110
sS'tweeting'
p1298
I109
sS'happening'
p1299
I109
sS'rockers'
p1300
I110
sS'assume'
p1301
I110
sS'bedi'
p1302
I110
sS'flag'
p1303
I110
sS'daily'
p1304
I108
sS"n'"
p1305
I108
sS'jacket'
p1306
I110
sS'bball'
p1307
I110
sS'loyal'
p1308
I110
sS':):):):):)'
p1309
I110
sS'teeth'
p1310
I107
sS'push'
p1311
I109
sS'serious'
p1312
I107
sS'drag\xe2\x80\x9d'
p1313
I110
sS'laws'
p1314
I110
sS'dust'
p1315
I110
sS'varsity'
p1316
I109
sS'uninterested'
p1317
I110
sS'beans'
p1318
I110
sS':/'
p1319
I105
sS':('
p1320
I96
sS':)'
p1321
I84
sS'impression'
p1322
I110
sS'dance'
p1323
I107
sS'therei\xe2\x80\x99m'
p1324
I110
sS'madison'
p1325
I110
sS"wendy's"
p1326
I108
sS'manager'
p1327
I107
sS'skate'
p1328
I103
sS'tha'
p1329
I110
sS'/'
p1330
I102
sS'grateful'
p1331
I110
sS'skin'
p1332
I108
sS'chair'
p1333
I110
sS'seller'
p1334
I110
sS'hole'
p1335
I110
sS'row'
p1336
I106
sS'conditioner'
p1337
I110
sS'adoptive'
p1338
I110
sS'ballet'
p1339
I110
sS'yummy'
p1340
I110
sS'everything'
p1341
I97
sS'hump'
p1342
I108
sS'obamacare'
p1343
I110
sS'disgusting'
p1344
I110
sS'thighs'
p1345
I110
sS'ranchito'
p1346
I109
sS'0'
p1347
I108
sS'finally'
p1348
I89
sS'oz'
p1349
I110
sS'burlington'
p1350
I109
sS'battery...no'
p1351
I110
sS'determinations'
p1352
I110
sS'sing'
p1353
I109
sS'96'
p1354
I110
sS'veterans'
p1355
I110
sS"carl's"
p1356
I110
sS'me'
p1357
I13
sS'feeeels'
p1358
I110
sS':o'
p1359
I110
sS'paychecks'
p1360
I110
sS'life.\xe2\x80\x9drtrtrtrt\xe2\x80\x9d'
p1361
I110
sS':d'
p1362
I107
sS'changers'
p1363
I110
sS'keeping'
p1364
I108
sS"tyler's"
p1365
I110
sS'tacos'
p1366
I108
sS'vegas'
p1367
I107
sS'tylers'
p1368
I110
sS'cook'
p1369
I109
sS'ma'
p1370
I108
sS'trouble'
p1371
I109
sS'blast'
p1372
I107
sS':p'
p1373
I108
sS'chinosc_8'
p1374
I110
sS'minute'
p1375
I107
sS'cool'
p1376
I93
sS"starbuck's"
p1377
I110
sS'peg'
p1378
I110
sS'clouds'
p1379
I109
sS'mc'
p1380
I110
sS'hugest'
p1381
I110
sS'level'
p1382
I110
sS'did'
p1383
I82
sS'turns'
p1384
I107
sS'cheapest'
p1385
I110
sS'peeps'
p1386
I110
sS'brother'
p1387
I109
sS'turnt'
p1388
I109
sS'leave'
p1389
I96
sS'p'
p1390
I104
sS'soooo'
p1391
I108
sS'subway'
p1392
I109
sS'hittin'
p1393
I110
sS'team'
p1394
I105
sS'quick'
p1395
I107
sS'guy'
p1396
I93
sS'spent'
p1397
I110
sS'dip'
p1398
I110
sS'round'
p1399
I108
sS'yall'
p1400
I109
sS'upcover'
p1401
I110
sS'publised'
p1402
I110
sS'besties\xe2\x9d\xa4\xef\xb8\x8f\xe2\x9d\xa4\xef\xb8\x8f\xe2\x9d\xa4\xef\xb8\x8f\xe2\x9d\xa4\xef\xb8\x8f'
p1403
I110
sS'spiritual'
p1404
I110
sS'unexpected'
p1405
I110
sS'says'
p1406
I101
sS'regret'
p1407
I109
sS'niggahs'
p1408
I110
sS'naame'
p1409
I109
sS'sigh'
p1410
I110
sS'refreshment'
p1411
I110
sS'hawwwwwwwwt'
p1412
I110
sS'sign'
p1413
I109
sS'linda'
p1414
I110
sS'colin'
p1415
I110
sS'cost'
p1416
I109
sS'shirts'
p1417
I110
sS'reply'
p1418
I110
sS'run'
p1419
I101
sS'\xe2\x99\xa1\xe2\x99\xa1\xe2\x80\x9d'
p1420
I110
sS'\xee\x90\x91'
p1421
I110
sS'fear'
p1422
I110
sS'substitute'
p1423
I110
sS'drinks'
p1424
I108
sS'lmbo'
p1425
I110
sS'afghanistan'
p1426
I110
sS'stop\xe2\x80\xa6'
p1427
I110
sS'roxanne'
p1428
I110
sS'stressful'
p1429
I108
sS'mt'
p1430
I110
sS'angered'
p1431
I110
sS'plp'
p1432
I110
sS'realizing'
p1433
I110
sS'melt'
p1434
I109
sS'uniform'
p1435
I109
sS'current'
p1436
I110
sS'athena'
p1437
I110
sS'contagious'
p1438
I110
sS'goes'
p1439
I104
sS'nm'
p1440
I110
sS'supplies'
p1441
I109
sS'falling'
p1442
I110
sS"'soul'"
p1443
I110
sS'boost'
p1444
I110
sS'(39000'
p1445
I110
sS'ridic'
p1446
I110
sS'burn'
p1447
I110
sS'transportation'
p1448
I101
sS'youtube'
p1449
I110
sS'target)'
p1450
I106
sS'time.what'
p1451
I110
sS'muslim'
p1452
I108
sS'anti-gay'
p1453
I110
sS'french'
p1454
I110
sS'understanding'
p1455
I109
sS'water'
p1456
I107
sS'drug'
p1457
I110
sS'woot'
p1458
I106
sS'baseball'
p1459
I108
sS'obsessing'
p1460
I110
sS'alone'
p1461
I106
sS'blond/brown/red/orange'
p1462
I110
sS'along'
p1463
I107
sS'teacher'
p1464
I109
sS'change'
p1465
I104
sS'wait'
p1466
I89
sS'box'
p1467
I106
sS'boy'
p1468
I105
sS'yessss'
p1469
I110
sS"shakey's"
p1470
I102
sS'thrasher'
p1471
I110
sS'healthy'
p1472
I109
sS'shift'
p1473
I107
sS'bruises'
p1474
I109
sS'earned'
p1475
I110
sS'screamin'
p1476
I110
sS'shooter'
p1477
I110
sS"anybody's"
p1478
I110
sS'sucks\xe2\x80\x9d'
p1479
I110
sS'cinnamon'
p1480
I109
sS'coffffffeeeeeeeeee'
p1481
I110
sS'boo'
p1482
I107
sS'usually'
p1483
I110
sS'priceless'
p1484
I110
sS'weird'
p1485
I109
sS'45%-insane'
p1486
I110
sS'pillow'
p1487
I110
sS'homecoming'
p1488
I109
sS'satan'
p1489
I110
sS'suicided'
p1490
I110
sS'motherfucking'
p1491
I110
sS'teenage'
p1492
I110
sS'creepily'
p1493
I110
sS'love'
p1494
I47
sS'bloods'
p1495
I110
sS'hiking'
p1496
I110
sS'extra'
p1497
I107
sS'jar'
p1498
I110
sS'krillin'
p1499
I110
sS'prefer'
p1500
I109
sS'compare'
p1501
I110
sS'ipl'
p1502
I110
sS'cloak'
p1503
I110
sS'losing'
p1504
I110
sS'g-r-e-a-t'
p1505
I110
sS'fake'
p1506
I105
sS'touchdown'
p1507
I109
sS'embarrassing'
p1508
I110
sS'fambam'
p1509
I110
sS'mobil'
p1510
I110
sS'crisis'
p1511
I110
sS'market'
p1512
I102
sS'everybody'
p1513
I107
sS'terminal'
p1514
I110
sS'finally\xe2\x9d\xa4\xef\xb8\x8f\xe2\x9d\xa4\xef\xb8\x8f\xe2\x9d\xa4\xef\xb8\x8f\xe2\x9d\xa4\xef\xb8\x8f'
p1515
I110
sS'working'
p1516
I95
sS'homesick'
p1517
I110
sS'aye'
p1518
I108
sS'positive'
p1519
I110
sS'mumford'
p1520
I109
sS'dude'
p1521
I94
sS'ferrr20'
p1522
I110
sS'sherman'
p1523
I110
sS'sports'
p1524
I107
sS'ca)'
p1525
I16
sS'scirred'
p1526
I110
sS'iphone'
p1527
I106
sS'wondering'
p1528
I109
sS'schlock'
p1529
I110
sS'tape'
p1530
I110
sS'thru'
p1531
I99
sS'angels'
p1532
I110
sS'prep'
p1533
I109
sS'today'
p1534
I61
sS'loving'
p1535
I109
sS'chapter'
p1536
I110
sS'commissioner'
p1537
I110
sS'w/out'
p1538
I109
sS'sprite'
p1539
I109
sS'forget/'
p1540
I110
sS'club'
p1541
I86
sS'suggestions'
p1542
I110
sS'cashier'
p1543
I110
sS'kiwanis'
p1544
I103
sS'drown'
p1545
I109
sS'everywhere'
p1546
I109
sS'comfortable\xe2\x98\xba\xef\xb8\x8f'
p1547
I110
sS'olive'
p1548
I110
sS'sunscreen'
p1549
I110
sS'palmdale)'
p1550
I64
sS'riders'
p1551
I110
sS'fly'
p1552
I107
sS'mermaids'
p1553
I110
sS'so\xe2\x80\xa6'
p1554
I110
sS'edible'
p1555
I110
sS'niggas'
p1556
I103
sS'car'
p1557
I80
sS'pretend'
p1558
I109
sS'soul'
p1559
I109
sS'niggaz'
p1560
I108
sS'cat'
p1561
I108
sS'purge'
p1562
I110
sS'soup'
p1563
I110
sS'\xe2\x98\x95\xef\xb8\x8f'
p1564
I110
sS'can'
p1565
I49
sS'co-workers'
p1566
I110
sS'following'
p1567
I108
sS'making'
p1568
I105
sS'girdle'
p1569
I110
sS'arrive'
p1570
I110
sS'whaaaaa'
p1571
I110
sS'yoshinoya'
p1572
I110
sS'heart'
p1573
I98
sS'crazy'
p1574
I98
sS'months'
p1575
I106
sS'souplantation)'
p1576
I109
sS'nursing'
p1577
I110
sS'figure'
p1578
I110
sS'mirrors'
p1579
I110
sS'kiddos'
p1580
I110
sS'awesome'
p1581
I102
sS"comin'"
p1582
I110
sS"didn't"
p1583
I88
sS'fuck'
p1584
I53
sS'sake'
p1585
I109
sS'heard'
p1586
I105
sS'stroke'
p1587
I110
sS'posing'
p1588
I110
sS'o'
p1589
I110
sS'unveiled'
p1590
I110
sS'11:00'
p1591
I110
sS'chic'
p1592
I110
sS'(firewater)'
p1593
I110
sS'tgif'
p1594
I110
sS'stole'
p1595
I110
sS'pong'
p1596
I110
sS'pink'
p1597
I108
sS'sidglamx'
p1598
I110
sS'walmart...-_-'
p1599
I110
sS'shleep'
p1600
I110
sS'bullshiting'
p1601
I110
sS'nerd'
p1602
I110
sS'means'
p1603
I109
sS'ping'
p1604
I110
sS'magazine'
p1605
I110
sS'1&2'
p1606
I110
sS'gasol'
p1607
I110
sS'1'
p1608
I103
sS'till'
p1609
I104
sS'sunday'
p1610
I101
sS'tyesha'
p1611
I110
sS'fourth'
p1612
I110
sS'\xe2\x9d\xa4\xef\xb8\x8f\xe2\x9d\xa4\xef\xb8\x8f\xe2\x9d\xa4\xef\xb8\x8f'
p1613
I110
sS'dougles'
p1614
I110
sS'speaks'
p1615
I109
sS'flosser'
p1616
I110
sS'map'
p1617
I110
sS'product'
p1618
I110
sS'cranky'
p1619
I110
sS'may'
p1620
I102
sS'max'
p1621
I110
sS'dennys!!:)'
p1622
I110
sS'proving'
p1623
I110
sS'disgusted'
p1624
I110
sS'islamic'
p1625
I110
sS'mac'
p1626
I108
sS'birthday'
p1627
I87
sS'*deletes'
p1628
I110
sS'mad'
p1629
I97
sS'date'
p1630
I104
sS'such'
p1631
I102
sS'suck'
p1632
I109
sS'guys'
p1633
I96
sS'grow'
p1634
I106
sS'mao'
p1635
I110
sS'man'
p1636
I82
sS'yaaaaaaay'
p1637
I110
sS'stress'
p1638
I109
sS'knit'
p1639
I110
sS'remember'
p1640
I97
sS'liquid'
p1641
I110
sS'naaalala'
p1642
I110
sS'whenever'
p1643
I110
sS'maybe'
p1644
I96
sS'sq'
p1645
I109
sS'carriers'
p1646
I110
sS'rico.\xe2\x80\x9d'
p1647
I110
sS'benny'
p1648
I110
sS'ohh"'
p1649
I110
sS'st'
p1650
I96
sS'q'
p1651
I88
sS'jackiee_a'
p1652
I108
sS'switch'
p1653
I110
sS'mango'
p1654
I109
sS'jail'
p1655
I109
sS'tangled'
p1656
I110
sS'african'
p1657
I110
sS'sc'
p1658
I109
sS'tall'
p1659
I108
sS'sa'
p1660
I110
sS'fireball'
p1661
I110
sS'pulled'
p1662
I110
sS'talk'
p1663
I94
sS'cute'
p1664
I103
sS'tagged'
p1665
I110
sS'comfort'
p1666
I110
sS'shoes'
p1667
I106
sS'carting'
p1668
I110
sS'indeed'
p1669
I109
sS'haircut'
p1670
I104
sS'romantic'
p1671
I110
sS'years'
p1672
I99
sS'twiticons'
p1673
I110
sS'ended'
p1674
I107
sS'*realizes'
p1675
I110
sS'wolf'
p1676
I110
sS'shake'
p1677
I108
sS'whats'
p1678
I110
sS'cold'
p1679
I103
sS'still'
p1680
I78
sS'owl'
p1681
I110
sS'worship'
p1682
I110
sS'blocked'
p1683
I110
sS'mait'
p1684
I110
sS'please"'
p1685
I110
sS'group'
p1686
I108
sS'thank'
p1687
I91
sS'curcial'
p1688
I110
sS"he's"
p1689
I98
sS'lieing'
p1690
I110
sS'thang'
p1691
I109
sS'bagels'
p1692
I110
sS'hahahshahahhaa'
p1693
I110
sS'troubles'
p1694
I110
sS'hot'
p1695
I95
sS'=('
p1696
I110
sS'soonn'
p1697
I110
sS'continue'
p1698
I110
sS'tweets'
p1699
I110
sS'mail'
p1700
I110
sS'main'
p1701
I110
sS'mommy'
p1702
I110
sS'petition'
p1703
I108
sS'happened'
p1704
I104
sS'trophy\xe2\x80\x99'
p1705
I110
sS'nom'
p1706
I108
sS'non'
p1707
I109
sS'unplanned'
p1708
I110
sS'red__ruby'
p1709
I110
sS'moms'
p1710
I105
sS'bcoming'
p1711
I110
sS'massively'
p1712
I110
sS'wooo'
p1713
I110
sS'lunch'
p1714
I83
sS'touching'
p1715
I110
sS'hamilton'
p1716
I110
sS'litmus'
p1717
I110
sS'disneyland'
p1718
I110
sS'half'
p1719
I109
sS'not'
p1720
I42
sS'nov'
p1721
I110
sS'now'
p1722
I47
sS'ahaha'
p1723
I110
sS'killed'
p1724
I109
sS'wont'
p1725
I110
sS'lier'
p1726
I110
sS'term'
p1727
I109
sS'tuawans'
p1728
I110
sS'name'
p1729
I98
sS'sophomore'
p1730
I110
sS'servant'
p1731
I110
sS'explains'
p1732
I110
sS'drop'
p1733
I107
sS'kerr'
p1734
I110
sS'sos'
p1735
I110
sS'debating'
p1736
I110
sS'charging'
p1737
I109
sS'outrageously'
p1738
I110
sS'testing'
p1739
I110
sS'rock'
p1740
I108
sS'dabs'
p1741
I110
sS'entirely'
p1742
I109
sS'stahp'
p1743
I110
sS'em'
p1744
I110
sS'el'
p1745
I109
sS'lowkey'
p1746
I108
sS'mexico'
p1747
I110
sS'mueller'
p1748
I110
sS'feeling...i'
p1749
I110
sS'ed'
p1750
I109
sS'2the'
p1751
I110
sS'yeah'
p1752
I88
sS'"such'
p1753
I110
sS'co-pay'
p1754
I110
sS'challenges'
p1755
I110
sS'catching'
p1756
I108
sS'year'
p1757
I88
sS'gtfo'
p1758
I109
sS'girl'
p1759
I77
sS'avoided'
p1760
I110
sS'obsession'
p1761
I110
sS"robertson's"
p1762
I110
sS'plans'
p1763
I109
sS'album'
p1764
I109
sS'living'
p1765
I108
sS'container'
p1766
I110
sS'opened'
p1767
I110
sS'blu'
p1768
I110
sS'brisket'
p1769
I110
sS'"grit"'
p1770
I110
sS'sunburnt'
p1771
I110
sS"''my"
p1772
I110
sS'factory'
p1773
I109
sS'astray'
p1774
I110
sS"jennifer's"
p1775
I109
sS'looking'
p1776
I97
sS'bday'
p1777
I109
sS'seriously'
p1778
I104
sS'miles'
p1779
I108
sS'trauma'
p1780
I110
sS"shouldn't"
p1781
I108
sS'hacked'
p1782
I110
sS's5'
p1783
I110
sS'fargo'
p1784
I109
sS'roger'
p1785
I110
sS'nudes'
p1786
I106
sS'correct'
p1787
I110
sS'managed'
p1788
I110
sS'shows'
p1789
I109
sS'mcgriddle'
p1790
I110
sS'lexi'
p1791
I110
sS'smfh'
p1792
I109
sS'earlier'
p1793
I110
sS'monster'
p1794
I107
sS'quran'
p1795
I110
sS"crushin'"
p1796
I110
sS'brooks'
p1797
I110
sS'quite'
p1798
I110
sS'hulu'
p1799
I110
sS'brandon'
p1800
I110
sS'dig'
p1801
I110
sS'california'
p1802
I107
sS'besides'
p1803
I108
sS'anchor'
p1804
I110
sS'bio-play'
p1805
I110
sS'responsibilty'
p1806
I110
sS'cough'
p1807
I109
sS'marine'
p1808
I110
sS"wendy's)"
p1809
I110
sS'card'
p1810
I108
sS'care'
p1811
I89
sS'partner'
p1812
I110
sS'training'
p1813
I110
sS'placr'
p1814
I110
sS'pizza\xe2\x80\xa6'
p1815
I110
sS'language'
p1816
I110
sS'deck'
p1817
I110
sS'yup'
p1818
I106
sS'100%'
p1819
I110
sS'headphones'
p1820
I110
sS'punk'
p1821
I110
sS'worrying'
p1822
I109
sS"lookin'"
p1823
I109
sS'turn'
p1824
I99
sS'yum'
p1825
I107
sS'pepperoni'
p1826
I110
sS'swing'
p1827
I110
sS'promotion'
p1828
I109
sS'view'
p1829
I110
sS'star'
p1830
I108
sS'think'
p1831
I73
sS'teammates'
p1832
I110
sS'first'
p1833
I78
sS"dr's"
p1834
I110
sS'cheese'
p1835
I104
sS'constantly'
p1836
I108
sS"brian's"
p1837
I110
sS'name?"-'
p1838
I110
sS'xoxo'
p1839
I110
sS'pooky'
p1840
I110
sS'softball'
p1841
I109
sS'potter'
p1842
I110
sS'xd'
p1843
I104
sS'yourself'
p1844
I105
sS'05:16:22.0,34.58717925,-118.14732512,9102.01,currently'
p1845
I110
sS'williams'
p1846
I110
sS'rachet'
p1847
I110
sS'americans'
p1848
I109
sS'long'
p1849
I87
sS'directly'
p1850
I110
sS'spanish'
p1851
I108
sS'sounds'
p1852
I107
sS'drove'
p1853
I110
sS'open'
p1854
I106
sS'tomorrow'
p1855
I85
sS'size'
p1856
I108
sS'sheep'
p1857
I110
sS'city'
p1858
I106
sS'given'
p1859
I108
sS'day\xe2\x80\x9d'
p1860
I110
sS'sheet'
p1861
I108
sS'silent'
p1862
I110
sS'district'
p1863
I110
sS'ikr'
p1864
I110
sS'bite'
p1865
I110
sS'waist'
p1866
I110
sS'plastic'
p1867
I110
sS'anyone'
p1868
I101
sS'-barack'
p1869
I110
sS'bahahah'
p1870
I110
sS'2'
p1871
I67
sS'chem'
p1872
I110
sS'stuffed'
p1873
I109
sS'white'
p1874
I106
sS'asian-pacific'
p1875
I110
sS'bars*'
p1876
I110
sS'friend'
p1877
I96
sS'gives'
p1878
I109
sS'nutrition'
p1879
I110
sS'eyes'
p1880
I103
sS'hug'
p1881
I110
sS'bridesmaids'
p1882
I110
sS'mostly'
p1883
I110
sS'that'
p1884
I20
sS'season'
p1885
I104
sS'suit'
p1886
I110
sS'huh'
p1887
I107
sS'jovi'
p1888
I110
sS'fashoo'
p1889
I110
sS'non-jukebox'
p1890
I110
sS'cops'
p1891
I107
sS'dudes'
p1892
I110
sS"lowe's"
p1893
I108
sS'pnm'
p1894
I110
sS'w/an'
p1895
I110
sS'baja'
p1896
I110
sS'quad'
p1897
I110
sS'thai'
p1898
I105
sS'clients'
p1899
I110
sS'bobs'
p1900
I110
sS'than'
p1901
I86
sS'becuz'
p1902
I110
sS'boyfriend'
p1903
I107
sS'11'
p1904
I105
sS'10'
p1905
I97
sS'12'
p1906
I109
sS'15'
p1907
I106
sS'lmao'
p1908
I73
sS'17'
p1909
I110
sS'16'
p1910
I108
sS'19'
p1911
I109
sS'was'
p1912
I40
sS'gotta'
p1913
I93
sS'automakers'
p1914
I110
sS'halls'
p1915
I110
sS'coats'
p1916
I110
sS'ventura'
p1917
I109
sS'r'
p1918
I105
sS'apples'
p1919
I110
sS'cymbals'
p1920
I110
sS'were'
p1921
I87
sS'college'
p1922
I107
sS'mulligan'
p1923
I106
sS'sophia'
p1924
I110
sS'depresses'
p1925
I110
sS'and'
p1926
I10
sS'fork'
p1927
I110
sS'gathering'
p1928
I110
sS'ang'
p1929
I110
sS'san'
p1930
I110
sS'acknowledged'
p1931
I110
sS'hoes'
p1932
I104
sS'turned'
p1933
I109
sS'argument'
p1934
I110
sS'slap'
p1935
I110
sS'sad'
p1936
I100
sS'ruuuude'
p1937
I110
sS'say'
p1938
I71
sS'princess_pouty'
p1939
I110
sS'climbed'
p1940
I110
sS'exchanging'
p1941
I110
sS'\xe2\x99\xa5.\xe2\x99\xa5'
p1942
I110
sS'breakfast'
p1943
I105
sS'recover'
p1944
I110
sS'saw'
p1945
I97
sS'any'
p1946
I97
sS'kevin'
p1947
I109
sS'superman'
p1948
I110
sS'speakers'
p1949
I110
sS'form'
p1950
I110
sS'wcw'
p1951
I107
sS'yeahyeahyeaaaah'
p1952
I110
sS'warriors'
p1953
I110
sS'fucking'
p1954
I93
sS'answering'
p1955
I110
sS'hmm'
p1956
I110
sS'somethings'
p1957
I110
sS'note'
p1958
I110
sS'prayyy'
p1959
I110
sS'(41520'
p1960
I109
sS'arleta'
p1961
I110
sS'hookah'
p1962
I110
sS'take'
p1963
I76
sS'"yeah'
p1964
I110
sS'online'
p1965
I108
sS'destroy'
p1966
I109
sS'words"-'
p1967
I110
sS'pimple'
p1968
I110
sS'channel'
p1969
I110
sS'flattered'
p1970
I110
sS'begin'
p1971
I109
sS'sure'
p1972
I96
sS'pain'
p1973
I107
sS'kasra'
p1974
I109
sS'theatre'
p1975
I110
sS'normal'
p1976
I109
sS'deli)'
p1977
I105
sS'cheesecake'
p1978
I110
sS'unang'
p1979
I110
sS'knew'
p1980
I104
sS'fails'
p1981
I110
sS'buffet'
p1982
I92
sS'netflix'
p1983
I109
sS'rehearsal'
p1984
I110
sS'staunton'
p1985
I110
sS'satisfying'
p1986
I110
sS'20%'
p1987
I110
sS'pair'
p1988
I109
sS'knee'
p1989
I109
sS'flannel'
p1990
I110
sS'america'
p1991
I109
sS'thou'
p1992
I110
sS'causality'
p1993
I110
sS'sippinnnn'
p1994
I110
sS'sutton'
p1995
I109
sS'forever'
p1996
I104
sS'claushia'
p1997
I110
sS'especially'
p1998
I110
sS"as'f"
p1999
I110
sS'angst'
p2000
I110
sS'proud'
p2001
I107
sS'hungry'
p2002
I104
sS'wing'
p2003
I107
sS'24/7'
p2004
I110
sS'ha........gayy'
p2005
I110
sS'sunset'
p2006
I110
sS'mri'
p2007
I110
sS"alone'"
p2008
I110
sS'<3\xe2\x80\x9d'
p2009
I110
sS'blvd)'
p2010
I110
sS'uncle'
p2011
I109
sS'senior'
p2012
I110
sS'salt'
p2013
I109
sS'thst'
p2014
I110
sS'"jamal'
p2015
I110
sS'shop'
p2016
I105
sS'half-naked'
p2017
I110
sS'walking'
p2018
I102
sS'bootleg'
p2019
I110
sS'shot'
p2020
I108
sS'cherry'
p2021
I110
sS'show'
p2022
I94
sS'hustled'
p2023
I110
sS'ralph'
p2024
I110
sS'kalamig'
p2025
I110
sS"everything's"
p2026
I110
sS'bright'
p2027
I110
sS'spaces'
p2028
I110
sS'shoe'
p2029
I110
sS'"place'
p2030
I110
sS'flack'
p2031
I110
sS'corner'
p2032
I110
sS'takin'
p2033
I109
sS'unloaders'
p2034
I110
sS'ground'
p2035
I108
sS'aint'
p2036
I108
sS'\xe2\x9c\x8c'
p2037
I109
sS'slow'
p2038
I107
sS'touted'
p2039
I110
sS'\xe2\x9c\x8b'
p2040
I110
sS'woop'
p2041
I110
sS'scion'
p2042
I110
sS'dick'
p2043
I109
sS'3'
p2044
I95
sS'to\xe2\x80\xa6'
p2045
I110
sS'only'
p2046
I76
sS'going'
p2047
I51
sS'black'
p2048
I106
sS'nadia'
p2049
I101
sS'sierra'
p2050
I107
sS'harvey'
p2051
I110
sS'stain'
p2052
I110
sS'\xe2\x99\xa1'
p2053
I110
sS'thankful'
p2054
I110
sS'pumpkin'
p2055
I110
sS'friendship'
p2056
I110
sS'get'
p2057
I29
sS'goodluck'
p2058
I110
sS'lighten'
p2059
I110
sS'congratss'
p2060
I110
sS'freezing'
p2061
I110
sS'truly'
p2062
I108
sS'180'
p2063
I110
sS'cannot'
p2064
I110
sS'gee'
p2065
I109
sS'wheelin'
p2066
I110
sS'geo'
p2067
I109
sS'gen'
p2068
I110
sS'celebrate'
p2069
I109
sS'freaking'
p2070
I106
sS'buuuut'
p2071
I110
sS'held'
p2072
I110
sS'leather'
p2073
I110
sS'well....las'
p2074
I110
sS'isnt'
p2075
I110
sS'packed'
p2076
I110
sS'morning'
p2077
I82
sS'naked'
p2078
I108
sS":')"
p2079
I110
sS'stupid'
p2080
I100
sS'\xee\x84\x9d'
p2081
I110
sS"could've"
p2082
I109
sS'920'
p2083
I110
sS'miley'
p2084
I109
sS'finishing'
p2085
I110
sS'pants'
p2086
I107
sS'where'
p2087
I78
sS'xmas'
p2088
I109
sS'-horace'
p2089
I110
sS"y'all"
p2090
I93
sS'concert'
p2091
I109
sS'burst'
p2092
I110
sS'attached'
p2093
I110
sS'replies'
p2094
I110
sS'caliiswagg'
p2095
I110
sS'seat'
p2096
I109
sS'cologne'
p2097
I110
sS'\xe2\x80\x98gold'
p2098
I110
sS'asleep'
p2099
I108
sS'"aww'
p2100
I110
sS'replied'
p2101
I110
sS'parking'
p2102
I108
sS'stanley'
p2103
I110
sS'sport'
p2104
I105
sS'mcdonalds'
p2105
I110
sS'wonder'
p2106
I107
sS'sloooow'
p2107
I110
sS'um'
p2108
I110
sS'830'
p2109
I109
sS'giver'
p2110
I110
sS'earth-sized'
p2111
I110
sS'camping'
p2112
I109
sS'[via'
p2113
I110
sS'ways'
p2114
I108
sS'carts'
p2115
I110
sS'senate'
p2116
I110
sS'opening'
p2117
I109
sS'-chinese'
p2118
I110
sS'uve'
p2119
I110
sS'cafe)'
p2120
I107
sS'enough'
p2121
I102
sS'gaga'
p2122
I109
sS'john'
p2123
I110
sS"cd's"
p2124
I110
sS'shoppe'
p2125
I110
sS'reading'
p2126
I107
sS'across'
p2127
I109
sS'affordable'
p2128
I110
sS'notice'
p2129
I109
sS'jobs'
p2130
I110
sS'august'
p2131
I109
sS'parent'
p2132
I110
sS'mexicans'
p2133
I108
sS'fearless'
p2134
I110
sS'screen'
p2135
I109
sS'faded'
p2136
I110
sS'26'
p2137
I110
sS'jr'
p2138
I109
sS'killing'
p2139
I108
sS'guitar'
p2140
I108
sS'yeauh'
p2141
I110
sS'concentrate'
p2142
I110
sS'woodfired'
p2143
I92
sS'whoa'
p2144
I110
sS'tun'
p2145
I110
sS'jk'
p2146
I104
sS'coma'
p2147
I110
sS'pens'
p2148
I110
sS'tub'
p2149
I110
sS'comb'
p2150
I109
sS'come'
p2151
I86
sS'tuf'
p2152
I110
sS'bopping'
p2153
I110
sS'blame'
p2154
I109
sS'mans'
p2155
I110
sS'mudada'
p2156
I110
sS'signed'
p2157
I110
sS'mob'
p2158
I110
sS'embarrassment'
p2159
I109
sS'many'
p2160
I96
sS'his)'
p2161
I110
sS'awwh'
p2162
I110
sS'flipped'
p2163
I109
sS'stereotypes'
p2164
I110
sS'somewhere'
p2165
I109
sS'tour'
p2166
I109
sS'berry'
p2167
I108
sS'awards'
p2168
I110
sS'delete'
p2169
I110
sS'traded'
p2170
I110
sS'backpack'
p2171
I110
sS"can't"
p2172
I58
sS'nearby'
p2173
I110
sS'duty'
p2174
I110
sS'(39176'
p2175
I110
sS'buttercup'
p2176
I110
sS'twix'
p2177
I110
sS'spoil'
p2178
I110
sS'gangnam'
p2179
I110
sS'pot'
p2180
I109
sS'hurts'
p2181
I108
sS'jeans'
p2182
I109
sS'midgets'
p2183
I110
sS'pop'
p2184
I106
sS'disease'
p2185
I110
sS'60'
p2186
I109
sS'twin'
p2187
I110
sS'whatchu'
p2188
I110
sS'yofo'
p2189
I110
sS"couldn't"
p2190
I106
sS'goth'
p2191
I110
sS'constant'
p2192
I110
sS'mattress'
p2193
I110
sS'nicole'
p2194
I109
sS'moore'
p2195
I110
sS'save'
p2196
I109
sS"ya'all"
p2197
I110
sS'cares'
p2198
I110
sS'west'
p2199
I101
sS'50%'
p2200
I110
sS'ucla'
p2201
I110
sS'soosheee'
p2202
I110
sS'mart'
p2203
I108
sS'pujols'
p2204
I110
sS'legit'
p2205
I110
sS'judging'
p2206
I109
sS'sesh'
p2207
I109
sS'crashers'
p2208
I110
sS'mary'
p2209
I109
sS'500'
p2210
I110
sS'moreeeeee'
p2211
I110
sS'wants'
p2212
I101
sS'chalet'
p2213
I108
sS'shopping'
p2214
I95
sS'non-conforming'
p2215
I110
sS"d'oh"
p2216
I110
sS'valley."'
p2217
I110
sS'ritalin-'
p2218
I110
sS'whoops'
p2219
I110
sS'andrew'
p2220
I110
sS'output'
p2221
I110
sS'streached'
p2222
I110
sS'mocking'
p2223
I110
sS'\xe2\x80\x9camazon'
p2224
I110
sS'fruits'
p2225
I110
sS'wake'
p2226
I106
sS'covers'
p2227
I110
sS'asks'
p2228
I110
sS'hashtag'
p2229
I110
sS'summat'
p2230
I110
sS'careful'
p2231
I110
sS'irrelevant'
p2232
I110
sS'spirit'
p2233
I104
sS'those'
p2234
I101
sS'case'
p2235
I109
sS'myself'
p2236
I97
sS'kappa'
p2237
I109
sS'50k'
p2238
I110
sS'csuav'
p2239
I110
sS'these'
p2240
I72
sS'davesjuly'
p2241
I110
sS'worried'
p2242
I110
sS'slappong'
p2243
I110
sS'arnold'
p2244
I110
sS'kellin'
p2245
I110
sS'trick'
p2246
I109
sS'cast'
p2247
I110
sS'03:42:56.0,34.6072308,-118.1337178,9102.01,great'
p2248
I110
sS'sometime'
p2249
I110
sS'ratchet'
p2250
I109
sS'blackberry'
p2251
I110
sS'saltwater'
p2252
I110
sS'shops'
p2253
I109
sS'cya'
p2254
I110
sS'invited'
p2255
I109
sS'coolest'
p2256
I110
sS'pushin'
p2257
I110
sS'penthouse'
p2258
I110
sS'ive'
p2259
I108
sS'shitty'
p2260
I110
sS'awww'
p2261
I110
sS'eventually'
p2262
I109
sS'cheer)'
p2263
I109
sS'turns,93551\n448871073996472321,shewantsshakur,2014-03-26'
p2264
I110
sS'engaged'
p2265
I110
sS'coffee'
p2266
I96
sS'sleeping'
p2267
I109
sS'middle'
p2268
I108
sS'someone'
p2269
I80
sS'boulders'
p2270
I110
sS'fcna'
p2271
I110
sS'12th'
p2272
I110
sS'heels'
p2273
I110
sS'return'
p2274
I109
sS'protein'
p2275
I110
sS'obnoxious'
p2276
I109
sS'everyday'
p2277
I106
sS'worry'
p2278
I106
sS'comments'
p2279
I110
sS'for\xe2\x80\xa6'
p2280
I110
sS'different'
p2281
I107
sS'sippin'
p2282
I110
sS'fierstein'
p2283
I110
sS'man:('
p2284
I110
sS'pay'
p2285
I106
sS'granted'
p2286
I110
sS'10:30'
p2287
I110
sS'bowl'
p2288
I108
sS'same'
p2289
I89
sS'check'
p2290
I97
sS'fatass'
p2291
I110
sS'ya'
p2292
I101
sS'bows'
p2293
I110
sS'pad'
p2294
I109
sS'urself'
p2295
I109
sS'coworkers'
p2296
I108
sS"it'"
p2297
I110
sS'sams'
p2298
I109
sS'streams'
p2299
I110
sS'stripper'
p2300
I110
sS'pal'
p2301
I110
sS'thee'
p2302
I109
sS'dated'
p2303
I110
sS'week'
p2304
I97
sS'noble'
p2305
I78
sS'finish'
p2306
I109
sS'pulled:0'
p2307
I110
sS'gibson'
p2308
I110
sS'prefences'
p2309
I110
sS'munch'
p2310
I108
sS'aaaaaah'
p2311
I110
sS'mutha'
p2312
I108
sS'weed'
p2313
I106
sS'cheers'
p2314
I110
sS'running'
p2315
I108
sS'fruit'
p2316
I108
sS'barber'
p2317
I110
sS'yg'
p2318
I110
sS'favorites'
p2319
I110
sS'rides'
p2320
I110
sS'changing'
p2321
I109
sS'chuuuu'
p2322
I110
sS'totally'
p2323
I108
sS'butts"'
p2324
I110
sS'mentally'
p2325
I110
sS'weave'
p2326
I109
sS'\xe2\x9c\x8c\xef\xb8\x8f'
p2327
I106
sS'breezt'
p2328
I110
sS'drain'
p2329
I110
sS'burrito'
p2330
I110
sS'galindas'
p2331
I110
sS'charger'
p2332
I109
sS'update'
p2333
I110
sS'magical'
p2334
I109
sS'nothin'
p2335
I110
sS'yhe'
p2336
I110
sS'hubbs'
p2337
I110
sS'severe'
p2338
I110
sS'without'
p2339
I102
sS'comes'
p2340
I104
sS'bottle'
p2341
I109
sS'motorcycle'
p2342
I110
sS'reward'
p2343
I109
sS'timpani'
p2344
I110
sS'^up'
p2345
I110
sS"you've"
p2346
I108
sS'honesty'
p2347
I110
sS'summer'
p2348
I105
sS'sprayed'
p2349
I110
sS'selfhave'
p2350
I110
sS'\xe2\x98\xba\xef\xb8\x8f'
p2351
I103
sS'being'
p2352
I79
sS'money'
p2353
I97
sS'names'
p2354
I110
sS'neon'
p2355
I110
sS'engel'
p2356
I110
sS'rest'
p2357
I109
sS'wrestleme'
p2358
I110
sS'gain"-'
p2359
I110
sS'chent_021611'
p2360
I110
sS'gurrrrl'
p2361
I110
sS'kill'
p2362
I106
sS'yeddotail'
p2363
I110
sS'aspect'
p2364
I110
sS'touch'
p2365
I109
sS"he'll"
p2366
I110
sS'ng'
p2367
I109
sS'robins'
p2368
I110
sS'ps4'
p2369
I110
sS'afterwards'
p2370
I110
sS'blow'
p2371
I110
sS'76'
p2372
I110
sS'death'
p2373
I108
sS'classsss'
p2374
I110
sS'ny'
p2375
I110
sS'thinking'
p2376
I103
sS"we've"
p2377
I109
sS'daydreaming'
p2378
I110
sS"'exebyte'"
p2379
I110
sS'seems'
p2380
I106
sS'except'
p2381
I108
sS'improvement'
p2382
I104
sS'blog'
p2383
I110
sS'cc'
p2384
I110
sS'lets'
p2385
I109
sS'interested'
p2386
I109
sS'4'
p2387
I99
sS'theyre'
p2388
I110
sS'old\xe2\x80\x9d'
p2389
I110
sS'ca'
p2390
I85
sS'ross'
p2391
I108
sS'real'
p2392
I90
sS'prostituting'
p2393
I110
sS'around'
p2394
I96
sS'psl'
p2395
I108
sS'easily'
p2396
I109
sS'read'
p2397
I104
sS'clarify'
p2398
I110
sS'gonna'
p2399
I64
sS'early'
p2400
I103
sS'traffic'
p2401
I110
sS'spank'
p2402
I110
sS'listening'
p2403
I105
sS'(-'
p2404
I110
sS"alan's"
p2405
I110
sS'using'
p2406
I107
sS'mueler'
p2407
I110
sS'accepted'
p2408
I110
sS'lady'
p2409
I105
sS'svidler'
p2410
I110
sS'ef'
p2411
I110
sS'veggie'
p2412
I110
sS'christina'
p2413
I110
sS'oomfs'
p2414
I110
sS'fortune'
p2415
I110
sS'shoppingggg'
p2416
I110
sS'stranger'
p2417
I110
sS'quible'
p2418
I110
sS'hova'
p2419
I110
sS'nissan'
p2420
I109
sS'buddies'
p2421
I110
sS'gyms'
p2422
I110
sS'muthafuckas'
p2423
I110
sS'server'
p2424
I110
sS'either'
p2425
I106
sS'hallelujah'
p2426
I110
sS'fully'
p2427
I110
sS'claw'
p2428
I110
sS"malhi's"
p2429
I108
sS'trying'
p2430
I92
sS'oregano'
p2431
I110
sS'grub'
p2432
I110
sS'denicelove25'
p2433
I110
sS'shirks'
p2434
I110
sS'naam'
p2435
I110
sS'bette'
p2436
I110
sS'nnaman'
p2437
I110
sS'butt'
p2438
I110
sS'table'
p2439
I109
sS'incase'
p2440
I110
sS'root'
p2441
I110
sS'faceright'
p2442
I110
sS'bigger'
p2443
I110
sS'thinks'
p2444
I106
sS'yesss'
p2445
I110
sS'express)'
p2446
I109
sS'gross'
p2447
I110
sS'gamestop'
p2448
I109
sS'cavity'
p2449
I110
sS'memories'
p2450
I109
sS'wendys'
p2451
I109
sS'legal'
p2452
I109
sS'moon'
p2453
I109
sS'tots'
p2454
I110
sS'throat'
p2455
I110
sS'dealership'
p2456
I107
sS'hipster'
p2457
I110
sS'runaway'
p2458
I110
sS'^-^'
p2459
I110
sS'non-profit'
p2460
I110
sS'tacotuesday'
p2461
I110
sS'station)'
p2462
I104
sS'nuggets'
p2463
I110
sS'hustle'
p2464
I110
sS'yaaaaasss'
p2465
I110
sS'welcome'
p2466
I109
sS'power'
p2467
I108
sS'asap'
p2468
I108
sS'lmfao'
p2469
I102
sS'papa'
p2470
I110
sS'nails'
p2471
I107
sS'2c'
p2472
I110
sS'highly'
p2473
I110
sS'tuition'
p2474
I110
sS'lost*'
p2475
I110
sS'broken'
p2476
I110
sS'pooch'
p2477
I110
sS'drums'
p2478
I110
sS'terrified'
p2479
I110
sS'raul'
p2480
I110
sS';)'
p2481
I104
sS'palmdale'
p2482
I32
sS'throw'
p2483
I107
sS'shmoke'
p2484
I110
sS'scookies'
p2485
I110
sS'on'
p2486
I22
sS'stone'
p2487
I109
sS'ol'
p2488
I109
sS'ok'
p2489
I104
sS'babbbbbby'
p2490
I110
sS'oh'
p2491
I82
sS'roar'
p2492
I110
sS'of'
p2493
I12
sS'industry'
p2494
I110
sS'marc'
p2495
I110
sS'favorite'
p2496
I101
sS'bonding'
p2497
I110
sS'shrimp'
p2498
I108
sS'informing'
p2499
I110
sS'fell'
p2500
I110
sS'bit\xe2\x98\xba\xef\xb8\x8f\xe2\x98\xba\xef\xb8\x8f\xe2\x98\xba\xef\xb8\x8f'
p2501
I110
sS'trailer'
p2502
I109
sS'act'
p2503
I102
sS'mixed'
p2504
I110
sS'mean'
p2505
I92
sS'or'
p2506
I56
sS'road'
p2507
I107
sS'amber'
p2508
I110
sS'blowssssss'
p2509
I110
sS'explanations."'
p2510
I110
sS'curses'
p2511
I109
sS'coupon'
p2512
I110
sS'image'
p2513
I110
sS'blessed'
p2514
I106
sS'snapchat'
p2515
I106
sS'vacation'
p2516
I110
sS'ambrosia'
p2517
I110
sS'harness'
p2518
I110
sS'cent'
p2519
I110
sS'homeless'
p2520
I109
sS'heated'
p2521
I110
sS'effort'
p2522
I110
sS'lmszg'
p2523
I110
sS'your'
p2524
I39
sS'mental'
p2525
I110
sS'breath'
p2526
I109
sS'pizzas'
p2527
I110
sS'fill'
p2528
I110
sS'her'
p2529
I52
sS'area'
p2530
I108
sS'removing'
p2531
I110
sS'there'
p2532
I72
sS'hey'
p2533
I100
sS'lol'
p2534
I27
sS'ehy'
p2535
I110
sS'lmfaooo'
p2536
I110
sS'start'
p2537
I85
sS'mindless'
p2538
I110
sS'lions'
p2539
I110
sS'low'
p2540
I109
sS'lot'
p2541
I96
sS'colder'
p2542
I110
sS'reznor'
p2543
I110
sS'valley'
p2544
I103
sS'bubble'
p2545
I110
sS'fish'
p2546
I108
sS'yasiel'
p2547
I110
sS'vicente'
p2548
I110
sS'tycoon'
p2549
I110
sS'spicy'
p2550
I109
sS'complete'
p2551
I105
sS'kittens'
p2552
I109
sS'haley'
p2553
I110
sS"duuuuuuuuuh'"
p2554
I110
sS'regard'
p2555
I110
sS'you"'
p2556
I109
sS'shrunk'
p2557
I110
sS'sherry'
p2558
I110
sS'slushy'
p2559
I110
sS'katuwa'
p2560
I110
sS'grumman'
p2561
I110
sS'cycle'
p2562
I109
sS'e'
p2563
I109
sS'mice'
p2564
I110
sS'costco'
p2565
I108
sS'with'
p2566
I19
sS'a1'
p2567
I110
sS'buying'
p2568
I104
sS'handsome'
p2569
I109
sS'illustrous'
p2570
I110
sS"they're"
p2571
I98
sS'rush'
p2572
I110
sS'fraud'
p2573
I110
sS'bullet'
p2574
I110
sS'rescuing'
p2575
I109
sS'engage'
p2576
I110
sS"wasn't"
p2577
I106
sS'drills'
p2578
I109
sS'tyga'
p2579
I110
sS"brother's"
p2580
I110
sS'owenlol'
p2581
I110
sS'tonite'
p2582
I110
sS"rt's"
p2583
I110
sS'dirty'
p2584
I107
sS'flex'
p2585
I110
sS'organize'
p2586
I110
sS'flats'
p2587
I110
sS'chapped'
p2588
I110
sS'trips'
p2589
I110
sS'darker'
p2590
I110
sS'aa'
p2591
I110
sS'gone'
p2592
I104
sS'rva'
p2593
I109
sS'taylor'
p2594
I107
sS'ohh'
p2595
I109
sS'ad'
p2596
I110
sS'videos'
p2597
I108
sS'af'
p2598
I95
sS'taste'
p2599
I107
sS'certain'
p2600
I110
sS'ignorant'
p2601
I110
sS'am'
p2602
I75
sS'sales'
p2603
I109
sS'deep'
p2604
I109
sS'an'
p2605
I64
sS'wildly'
p2606
I110
sS'as'
p2607
I50
sS'intro'
p2608
I110
sS'at'
p2609
I5
sS'aw'
p2610
I110
sS'av'
p2611
I106
sS'girlfriend'
p2612
I108
sS'watched'
p2613
I110
sS're-tried'
p2614
I110
sS'e.o.e'
p2615
I110
sS'drood'
p2616
I110
sS'guuurl'
p2617
I110
sS'cream'
p2618
I107
sS'selfish'
p2619
I108
sS'spice'
p2620
I110
sS'yoga'
p2621
I110
sS'[1]'
p2622
I110
sS'stepmom'
p2623
I110
sS'hitchhikers'
p2624
I110
sS'deserve'
p2625
I110
sS'crunch'
p2626
I110
sS'slushes'
p2627
I110
sS'tight'
p2628
I105
sS'implied'
p2629
I110
sS'5'
p2630
I96
sS'(but'
p2631
I110
sS'you'
p2632
I9
sS'really'
p2633
I48
sS'w/lady'
p2634
I110
sS'sherryyyyy'
p2635
I110
sS'data'
p2636
I110
sS'sushiiii'
p2637
I110
sS'pallet'
p2638
I110
sS'all\xe2\x80\xa6'
p2639
I110
sS'obsessed'
p2640
I109
sS'offensive'
p2641
I110
sS'desolation'
p2642
I110
sS'time'
p2643
I43
sS'day:)'
p2644
I110
sS'twiticon'
p2645
I110
sS'baragained'
p2646
I110
sS'supercenter'
p2647
I85
sS'podium'
p2648
I110
sS'important'
p2649
I109
sS'track'
p2650
I109
sS'hwy'
p2651
I108
sS'lifelessness'
p2652
I110
sS'lemons'
p2653
I110
sS'sneeze'
p2654
I110
sS'finals'
p2655
I110
sS'pool'
p2656
I109
sS'alcohol'
p2657
I109
sS'building'
p2658
I110
sS'mind\xe2\x80\x9d'
p2659
I110
sS'oras'
p2660
I110
sS'*\xe2\x80\x9d'
p2661
I110
sS'calls'
p2662
I110
sS'wife'
p2663
I107
sS'tricks'
p2664
I110
sS'wifi'
p2665
I110
sS'mask'
p2666
I110
sS'fangirling'
p2667
I110
sS'dyed'
p2668
I109
sS'having'
p2669
I93
sS'17:09:26.0,34.60155,-118.145595,9102.01,im'
p2670
I110
sS'lipstick'
p2671
I110
sS'u'
p2672
I70
sS'adam'
p2673
I110
sS'restricted'
p2674
I110
sS'alright'
p2675
I107
sS'marriage'
p2676
I110
sS'songs'
p2677
I110
sS'starting'
p2678
I104
sS'original'
p2679
I109
sS'2010-2014'
p2680
I110
sS'default'
p2681
I110
sS'all'
p2682
I34
sS'liar'
p2683
I110
sS'forget'
p2684
I102
sS'ceases'
p2685
I110
sS'caused'
p2686
I110
sS'lack'
p2687
I108
sS'delariva19'
p2688
I110
sS'month'
p2689
I109
sS'robert'
p2690
I110
sS'coach'
p2691
I108
sS'shitstain'
p2692
I110
sS'talks'
p2693
I110
sS'follow'
p2694
I106
sS'faster'
p2695
I110
sS'decisions'
p2696
I110
sS'sung'
p2697
I110
sS'hmmm'
p2698
I109
sS'l-m-m-f-a-o'
p2699
I110
sS'jessie'
p2700
I110
sS'killers'
p2701
I110
sS'imma'
p2702
I106
sS'killinshit21'
p2703
I110
sS'wassup'
p2704
I109
sS'thursday'
p2705
I106
sS'to'
p2706
I3
sS'aaron'
p2707
I110
sS'bye\xe2\x9d\xa4\xef\xb8\x8f\xe2\x9d\xa4\xef\xb8\x8f\xe2\x9d\xa4\xef\xb8\x8f\xe2\x9d\xa4\xef\xb8\x8f\xe2\x9d\xa4\xef\xb8\x8f\xe2\x9d\xa4\xef\xb8\x8f'
p2708
I110
sS'dressing'
p2709
I109
sS'tf'
p2710
I107
sS'smile'
p2711
I109
sS'enjoying'
p2712
I108
sS'slushies'
p2713
I109
sS'paying'
p2714
I110
sS'woman'
p2715
I107
sS'appointment'
p2716
I108
sS'worse'
p2717
I106
sS'song'
p2718
I97
sS'very'
p2719
I99
sS'haaaaate'
p2720
I110
sS'horror'
p2721
I109
sS'grinds'
p2722
I110
sS'fav'
p2723
I108
sS'e40'
p2724
I110
sS'fat'
p2725
I103
sS'selfies'
p2726
I106
sS'psychologist'
p2727
I110
sS'sons'
p2728
I107
sS'worst'
p2729
I105
sS'decide'
p2730
I110
sS'fam'
p2731
I107
sS'awful'
p2732
I110
sS'casa'
p2733
I109
sS'sofia'
p2734
I110
sS'ramen'
p2735
I109
sS'baristas'
p2736
I109
sS'sarcastic'
p2737
I110
sS'treating'
p2738
I109
sS'heaven'
p2739
I109
sS'w/my'
p2740
I110
sS'turtles'
p2741
I110
sS'--'
p2742
I109
sS'list'
p2743
I109
sS'ge'
p2744
I110
sS'large'
p2745
I108
sS'w/individuality'
p2746
I110
sS'vibes'
p2747
I110
sS'harry'
p2748
I110
sS'small'
p2749
I107
sS'groceries'
p2750
I110
sS'sank'
p2751
I110
sS"i'll"
p2752
I76
sS'cookies'
p2753
I109
sS"anyway...i'm"
p2754
I110
sS'neighborhood'
p2755
I109
sS'instagram'
p2756
I108
sS'ten'
p2757
I109
sS'(palmdale)'
p2758
I109
sS'tea'
p2759
I64
sS'streets'
p2760
I110
sS'(40015'
p2761
I110
sS'190'
p2762
I110
sS'mcdon'
p2763
I110
sS'past'
p2764
I108
sS'winds'
p2765
I110
sS'zero'
p2766
I109
sS'arizona'
p2767
I110
sS'pass'
p2768
I104
sS'further'
p2769
I110
sS'wins'
p2770
I110
sS'\xe2\x9d\xa4\xef\xb8\x8f\xe2\x9d\xa4\xef\xb8\x8f'
p2771
I110
sS'day.i'
p2772
I110
sS'what'
p2773
I41
sS'tweeted'
p2774
I110
sS'clock'
p2775
I108
sS'sun'
p2776
I107
sS'section'
p2777
I108
sS'deliciousness'
p2778
I110
sS'caffeine'
p2779
I110
sS'overshot'
p2780
I110
sS'crush'
p2781
I107
sS'abs'
p2782
I110
sS'sus'
p2783
I110
sS'pic*'
p2784
I110
sS'garth'
p2785
I110
sS'10days'
p2786
I110
sS'learned'
p2787
I109
sS'seemed'
p2788
I110
sS'public'
p2789
I105
sS'fucka'
p2790
I109
sS'tattoos'
p2791
I109
sS'full'
p2792
I102
sS'03:47:05.0,34.6072345,-118.1337062,9102.01,i'
p2793
I110
sS'did\xe2\x98\xba\xef\xb8\x8f'
p2794
I110
sS'loose'
p2795
I110
sS'"rapper"'
p2796
I110
sS'jonah'
p2797
I110
sS'hours'
p2798
I98
sS'fucks'
p2799
I110
sS'$2.50'
p2800
I110
sS'cloverfield/pico2'
p2801
I110
sS'situation'
p2802
I110
sS'directions'
p2803
I109
sS'depend'
p2804
I110
sS'strong'
p2805
I108
sS'observing'
p2806
I110
sS's&40th'
p2807
I110
sS'\xe2\x84\xa2\xe2\x9c\x94\xef\xb8\x8f'
p2808
I110
sS'bible'
p2809
I109
sS'misinterpret'
p2810
I110
sS'hybrid'
p2811
I110
sS'ahead'
p2812
I107
sS'dues'
p2813
I110
sS'bullshit'
p2814
I110
sS'inspired'
p2815
I110
sS'shouldn\xe2\x80\x99t'
p2816
I110
sS'(all'
p2817
I110
sS'creepy'
p2818
I106
sS'pics'
p2819
I107
sS'host'
p2820
I110
sS'drawers'
p2821
I110
sS'base'
p2822
I110
sS'15%'
p2823
I110
sS'arent'
p2824
I110
sS'gear'
p2825
I109
sS'pick'
p2826
I102
sS'action'
p2827
I110
sS"would've"
p2828
I108
sS'options'
p2829
I109
sS'point'
p2830
I109
sS'sticking'
p2831
I110
sS'wonka'
p2832
I110
sS'via'
p2833
I110
sS'followed'
p2834
I110
sS'jrb'
p2835
I110
sS'family'
p2836
I88
sS'father'
p2837
I110
sS'layer'
p2838
I110
sS'halle'
p2839
I110
sS'ask'
p2840
I104
sS'semester'
p2841
I109
sS'revelled'
p2842
I110
sS'appliances'
p2843
I110
sS'whoever'
p2844
I110
sS'tia'
p2845
I110
sS'"peculiar'
p2846
I110
sS'merri'
p2847
I110
sS'environment'
p2848
I110
sS'dgaf'
p2849
I110
sS'eye'
p2850
I109
sS'takes'
p2851
I105
sS'levine'
p2852
I110
sS'intense'
p2853
I110
sS'donuts'
p2854
I110
sS'\xe2\x98\x9d\xef\xb8\x8f'
p2855
I110
sS'texting'
p2856
I107
sS'two'
p2857
I98
sS'firms'
p2858
I110
sS'sbux'
p2859
I110
sS'dumplings'
p2860
I110
sS'anger'
p2861
I110
sS'praised'
p2862
I110
sS'warmed'
p2863
I110
sS'6'
p2864
I99
sS'taken'
p2865
I109
sS'injury'
p2866
I110
sS'"we\'re'
p2867
I110
sS'more'
p2868
I76
sS'goodnight'
p2869
I110
sS'tryna'
p2870
I105
sS'diddddddd'
p2871
I110
sS'clocking'
p2872
I110
sS'door'
p2873
I110
sS'knows'
p2874
I104
sS'testes'
p2875
I110
sS'grabbing'
p2876
I110
sS'purse'
p2877
I110
sS'company'
p2878
I110
sS'blows.i'
p2879
I110
sS'this\xe2\x80\x9d'
p2880
I110
sS"family's"
p2881
I110
sS'mixtape'
p2882
I109
sS'plant'
p2883
I110
sS'excuse'
p2884
I109
sS'antibiotics'
p2885
I110
sS'floyd'
p2886
I110
sS"ain't"
p2887
I95
sS'stick'
p2888
I108
sS'broke'
p2889
I107
sS'glam'
p2890
I110
sS'known'
p2891
I108
sS'bates'
p2892
I110
sS'hurry'
p2893
I108
sS'nineteen'
p2894
I110
sS'matagal'
p2895
I110
sS'glad'
p2896
I106
sS'luv'
p2897
I110
sS'town'
p2898
I109
sS'grill'
p2899
I93
sS'none'
p2900
I108
sS'yessssssssssss'
p2901
I110
sS'syang'
p2902
I110
sS'hour'
p2903
I104
sS'strain'
p2904
I110
sS'4&1/2'
p2905
I110
sS'guy"'
p2906
I110
sS'sucks'
p2907
I100
sS'4am'
p2908
I110
sS'dew'
p2909
I110
sS'nina'
p2910
I110
sS'offended'
p2911
I110
sS'mall'
p2912
I106
sS'paragraph'
p2913
I110
sS'del'
p2914
I110
sS'resources'
p2915
I110
sS'learn'
p2916
I103
sS'facelift'
p2917
I110
sS'male'
p2918
I109
sS'spontaneous'
p2919
I110
sS'alyssa'
p2920
I110
sS'history'
p2921
I108
sS'beautiful'
p2922
I95
sS':l'
p2923
I110
sS'shark'
p2924
I109
sS'woooooo'
p2925
I110
sS'shade'
p2926
I110
sS'fricken'
p2927
I110
sS'brown'
p2928
I108
sS'rodriguez'
p2929
I110
sS'share'
p2930
I110
sS'accept'
p2931
I110
sS'socal'
p2932
I109
sS'collision'
p2933
I110
sS'wal-mart'
p2934
I110
sS'smartphone'
p2935
I110
sS'salty'
p2936
I109
sS'numbers'
p2937
I109
sS'sense'
p2938
I107
sS'gallon'
p2939
I110
sS'talents'
p2940
I110
sS'disliked'
p2941
I110
sS'dress'
p2942
I107
sS'arabic'
p2943
I110
sS'hamburgers'
p2944
I109
sS'bearded'
p2945
I110
sS'huge'
p2946
I109
sS'needs'
p2947
I104
sS'beef'
p2948
I110
sS'mai'
p2949
I110
sS'goal'
p2950
I109
sS'awkward'
p2951
I108
sS'rather'
p2952
I105
sS'breaking'
p2953
I109
sS'hugh'
p2954
I110
sS'+1'
p2955
I110
sS'stayed'
p2956
I109
sS'sayles'
p2957
I110
sS'hannah'
p2958
I109
sS'ish'
p2959
I110
sS'pampering..best'
p2960
I110
sS'stix'
p2961
I110
sS'hugs'
p2962
I110
sS'csu'
p2963
I110
sS'"no'
p2964
I110
sS'stir'
p2965
I110
sS'rooting'
p2966
I110
sS'wigs'
p2967
I110
sS'(they'
p2968
I110
sS'fr'
p2969
I108
sS'okay'
p2970
I98
sS'tried'
p2971
I104
sS'rude'
p2972
I110
sS'me...besides'
p2973
I110
sS'kitty'
p2974
I110
sS'racking'
p2975
I110
sS'soda'
p2976
I110
sS'perf-ness'
p2977
I110
sS'brownie'
p2978
I110
sS'aaaah'
p2979
I110
sS'crashed'
p2980
I110
sS'palmers'
p2981
I110
sS'blood'
p2982
I110
sS'numb'
p2983
I109
sS'coming'
p2984
I103
sS'invasion'
p2985
I110
sS'horizontal'
p2986
I110
sS'choice'
p2987
I110
sS'response'
p2988
I110
sS'fo'
p2989
I110
sS'a'
p2990
I7
sS'rich"'
p2991
I110
sS'ulta'
p2992
I106
sS'short'
p2993
I107
sS'hearts-'
p2994
I110
sS'loud'
p2995
I108
sS'shady'
p2996
I110
sS'doctor'
p2997
I110
sS'children'
p2998
I110
sS'bugs'
p2999
I109
sS'anytime'
p3000
I110
sS'dragon'
p3001
I110
sS'ortho'
p3002
I108
sS'daves'
p3003
I110
sS'grande'
p3004
I110
sS'scaring'
p3005
I110
sS'media'
p3006
I109
sS'"are'
p3007
I110
sS'dream'
p3008
I107
sS'playing'
p3009
I101
sS'patio'
p3010
I109
sS"that's"
p3011
I78
sS'roshe'
p3012
I110
sS'feeds'
p3013
I110
sS'mexican'
p3014
I90
sS'help'
p3015
I100
sS"don't"
p3016
I30
sS'september'
p3017
I109
sS'reminded'
p3018
I107
sS'sooo'
p3019
I110
sS'soon'
p3020
I101
sS'trade'
p3021
I109
sS'performance'
p3022
I109
sS'wiener'
p3023
I110
sS'paper'
p3024
I108
sS'through'
p3025
I95
sS'orton'
p3026
I110
sS'signs'
p3027
I109
sS'hell'
p3028
I96
sS'smiling'
p3029
I108
sS'puff'
p3030
I110
sS'avenue'
p3031
I83
sS'its'
p3032
I72
sS'24'
p3033
I110
sS'islam/muslim'
p3034
I110
sS'style'
p3035
I104
sS'20'
p3036
I109
sS'21'
p3037
I110
sS'pray'
p3038
I110
sS'exact'
p3039
I110
sS'caesars'
p3040
I110
sS'28'
p3041
I110
sS'dolla'
p3042
I110
sS'publicatxns'
p3043
I110
sS'actually'
p3044
I97
sS'late'
p3045
I99
sS'>>>'
p3046
I110
sS'dynasty"'
p3047
I110
sS'pac'
p3048
I110
sS'11yo'
p3049
I110
sS'speech'
p3050
I110
sS'bout'
p3051
I106
sS'soccer'
p3052
I103
sS'might'
p3053
I107
sS'04:05:42.0,34.6072293,-118.1337254,9102.01,met'
p3054
I110
sS"haven't"
p3055
I91
sS'lacey'
p3056
I109
sS'fool'
p3057
I109
sS'good'
p3058
I54
sS'somebody'
p3059
I108
sS'elphabas'
p3060
I110
sS'yo'
p3061
I101
sS'food'
p3062
I96
sS'musket'
p3063
I110
sS'buys'
p3064
I110
sS'hunter'
p3065
I109
sS'woulda'
p3066
I110
sS'cupcake'
p3067
I108
sS'football'
p3068
I110
sS'cigarettes'
p3069
I110
sS'olivia'
p3070
I110
sS'starbucks'
p3071
I68
sS'carnival'
p3072
I110
sS'communities'
p3073
I110
sS'ninja'
p3074
I110
sS'yr'
p3075
I110
sS'complain'
p3076
I110
sS'viewers'
p3077
I110
sS'mystery'
p3078
I110
sS'desperately'
p3079
I109
sS'delia'
p3080
I110
sS'gets'
p3081
I97
sS'..still'
p3082
I110
sS'lak'
p3083
I110
sS'everytime'
p3084
I109
sS'always'
p3085
I87
sS'dik'
p3086
I110
sS'haooen'
p3087
I110
sS'drake'
p3088
I108
sS'bless'
p3089
I110
sS'habits'
p3090
I110
sS'stopped'
p3091
I108
sS'2b'
p3092
I110
sS'shakirra'
p3093
I108
sS'1am'
p3094
I110
sS'found'
p3095
I97
sS'difficult'
p3096
I110
sS'biscuits'
p3097
I110
sS'sonic\xe2\x80\xa6'
p3098
I110
sS"isn't"
p3099
I101
sS'(palmdaleca'
p3100
I110
sS'heavy'
p3101
I110
sS'weighs'
p3102
I109
sS'everyone'
p3103
I91
sS'neil'
p3104
I110
sS'delicious'
p3105
I109
sS'weight'
p3106
I108
sS'needless'
p3107
I109
sS',93551\n448871192837894145,shewantsshakur,2014-03-26'
p3108
I110
sS'house'
p3109
I92
sS'energy'
p3110
I108
sS'hard'
p3111
I99
sS'reduce'
p3112
I110
sS'idea'
p3113
I109
sS'banquet'
p3114
I110
sS'mustang'
p3115
I110
sS'engaging'
p3116
I110
sS'reallt'
p3117
I110
sS'oil'
p3118
I109
sS'expect'
p3119
I104
sS'\xe2\x9c\x8b\xe2\x9c\x8c\xef\xb8\x8f'
p3120
I110
sS'howard'
p3121
I110
sS'beyond'
p3122
I109
sS'todo'
p3123
I110
sS'insurance'
p3124
I109
sS'me.do'
p3125
I110
sS'parlor'
p3126
I104
sS'gullible'
p3127
I110
sS'flower'
p3128
I110
sS'missed'
p3129
I108
sS'childish'
p3130
I110
sS'since'
p3131
I99
sS'publish'
p3132
I110
sS'jolly'
p3133
I110
sS'acting'
p3134
I109
sS'perri'
p3135
I110
sS'krispy'
p3136
I108
sS'hill'
p3137
I109
sS'7'
p3138
I109
sS'quince'
p3139
I109
sS'issue'
p3140
I110
sS'outrun'
p3141
I110
sS'highway'
p3142
I110
sS'ass'
p3143
I70
sS'downs'
p3144
I110
sS'bass'
p3145
I110
sS'chalet)'
p3146
I110
sS'upon'
p3147
I110
sS'auditions'
p3148
I110
sS'friday'
p3149
I103
sS'story'
p3150
I104
sS'drives'
p3151
I110
sS'mmm'
p3152
I110
sS'houses'
p3153
I109
sS'reason'
p3154
I102
sS'killin'
p3155
I109
sS'cookie'
p3156
I109
sS'asf'
p3157
I110
sS'members'
p3158
I109
sS'put'
p3159
I99
sS'done.lmaooo'
p3160
I110
sS'teach'
p3161
I105
sS'ash'
p3162
I109
sS'beginning'
p3163
I109
sS'chips'
p3164
I110
sS'opps'
p3165
I110
sS'today"'
p3166
I110
sS'm.a.a.d'
p3167
I110
sS'revival'
p3168
I109
sS'kiesha'
p3169
I110
sS"sharky's"
p3170
I91
sS'emoji*'
p3171
I110
sS'american'
p3172
I105
sS'compartive'
p3173
I110
sS'sensations'
p3174
I110
sS'w'
p3175
I71
sS'scouts'
p3176
I110
sS'scheduled'
p3177
I110
sS'dis'
p3178
I110
sS'raptors'
p3179
I110
sS'marketplace)'
p3180
I110
sS'feed'
p3181
I108
sS'shave'
p3182
I110
sS'mr'
p3183
I109
sS"worried...i'm"
p3184
I110
sS'dont'
p3185
I96
sS'feel'
p3186
I75
sS'number'
p3187
I108
sS'valentine'
p3188
I109
sS'feet'
p3189
I110
sS'sisters'
p3190
I109
sS'sailor'
p3191
I110
sS'talked'
p3192
I110
sS'done'
p3193
I87
sS'leighton'
p3194
I110
sS'shakes'
p3195
I110
sS'florist'
p3196
I110
sS'legalized'
p3197
I110
sS'*cries*'
p3198
I110
sS'miss'
p3199
I93
sS'\xe2\x80\xa2i'
p3200
I110
sS'somethin'
p3201
I110
sS"you'd"
p3202
I110
sS'passes'
p3203
I110
sS'guess'
p3204
I103
sS'"'
p3205
I108
sS'heads'
p3206
I110
sS'guest'
p3207
I110
sS'jet'
p3208
I110
sS'script'
p3209
I110
sS',93551\n502305516509351936,dubbcoop,2014-08-21'
p3210
I110
sS'together'
p3211
I104
sS'5th'
p3212
I110
sS'porn'
p3213
I110
sS'14:24'
p3214
I110
sS'comfy'
p3215
I108
sS'least'
p3216
I105
sS'qb'
p3217
I110
sS'checkpoint'
p3218
I109
sS'paint'
p3219
I110
sS'(40026'
p3220
I110
sS'station'
p3221
I103
sS'statement'
p3222
I110
sS'arguing'
p3223
I109
sS'mama'
p3224
I105
sS'"wth'
p3225
I110
sS'syllables'
p3226
I110
sS'hundred'
p3227
I110
sS'syrup'
p3228
I110
sS'banana'
p3229
I110
sS'store'
p3230
I98
sS'headache'
p3231
I110
sS'$hort'
p3232
I110
sS'selling'
p3233
I109
sS'passed'
p3234
I110
sS'relationship'
p3235
I107
sS'behind'
p3236
I110
sS'mhmm'
p3237
I109
sS'adi\xc3\xb3s'
p3238
I110
sS'park'
p3239
I107
sS':"('
p3240
I110
sS"i'ma"
p3241
I110
sS'again.\xe2\x80\x9d'
p3242
I110
sS'rockin'
p3243
I110
sS'dentist'
p3244
I99
sS'part'
p3245
I105
sS'doctors'
p3246
I105
sS'ashley'
p3247
I109
sS'albums'
p3248
I110
sS'believe'
p3249
I96
sS'$2'
p3250
I110
sS'reflection'
p3251
I110
sS'leotard'
p3252
I110
sS'ungrateful'
p3253
I110
sS'kind'
p3254
I101
sS'b'
p3255
I107
sS'bag'
p3256
I110
sS'fucktards'
p3257
I110
sS'gotten'
p3258
I110
sS'unbutton'
p3259
I110
sS'kreme'
p3260
I108
sS'661-992-4219'
p3261
I110
sS'(accepted)'
p3262
I110
sS'fuckkkk'
p3263
I110
sS'youth'
p3264
I109
sS'incredibly'
p3265
I110
sS'17:16:18.0,34.60673,-118.13076,9102.01,nigga'
p3266
I110
sS'supposed'
p3267
I106
sS'dang'
p3268
I107
sS'timothy'
p3269
I110
sS'sure/'
p3270
I110
sS'ousted'
p3271
I93
sS"gonna'"
p3272
I110
sS':((('
p3273
I110
sS'outta'
p3274
I108
sS'basically'
p3275
I110
sS'tonguez'
p3276
I110
sS'honeys'
p3277
I109
sS'cheeze-its'
p3278
I110
sS'ages'
p3279
I110
sS'juicy'
p3280
I109
sS'16:10-12)'
p3281
I110
sS'buy)'
p3282
I110
sS'randomly'
p3283
I110
sS'juice'
p3284
I105
sS'\xe2\x9c\x8blie'
p3285
I110
sS'tv\xe2\x80\x99s'
p3286
I110
sS'aged'
p3287
I110
sS'rushing'
p3288
I110
sS'whining'
p3289
I110
sS'oovoo'
p3290
I110
sS'sell'
p3291
I108
sS'lie'
p3292
I106
sS'breathing'
p3293
I110
sS'nights'
p3294
I108
sS'built'
p3295
I109
sS'dancing'
p3296
I108
sS'lil'
p3297
I104
sS'pa'
p3298
I110
sS'self'
p3299
I109
sS'flaming'
p3300
I110
sS'idina'
p3301
I110
sS'(833'
p3302
I110
sS'couch'
p3303
I110
sS'also'
p3304
I103
sS"personality..that's"
p3305
I110
sS'riff'
p3306
I110
sS'build'
p3307
I110
sS'organizations'
p3308
I110
sS'2live'
p3309
I109
sS'finding'
p3310
I109
sS'sonics'
p3311
I110
sS'grandmother(mother)'
p3312
I110
sS'relief'
p3313
I110
sS'se'
p3314
I110
sS'play'
p3315
I99
sS'towards'
p3316
I109
sS'electric'
p3317
I110
sS'populate'
p3318
I110
sS'quote'
p3319
I105
sS'eggs'
p3320
I109
sS'reach'
p3321
I109
sS'mosh'
p3322
I110
sS"sam's"
p3323
I92
sS'serviced'
p3324
I110
sS'most'
p3325
I103
sS'matty'
p3326
I110
sS'btfu'
p3327
I110
sS'plan'
p3328
I107
sS'eaten'
p3329
I110
sS'position'
p3330
I110
sS'nothing'
p3331
I95
sS'gainers'
p3332
I110
sS'kay'
p3333
I110
sS'o-8'
p3334
I109
sS'extremely'
p3335
I109
sS"x's"
p3336
I110
sS'chunti'
p3337
I110
sS'mmmm'
p3338
I110
sS'hubby'
p3339
I110
sS'now\xee\x90\x84'
p3340
I110
sS'bug'
p3341
I110
sS'seize'
p3342
I110
sS'windows'
p3343
I110
sS'performances'
p3344
I110
sS'clear'
p3345
I108
sS'sometimes'
p3346
I102
sS'ko'
p3347
I108
sS'brains'
p3348
I110
sS'bandaging'
p3349
I110
sS'traditional'
p3350
I109
sS'[i]'
p3351
I110
sS'\xe2\x98\x80\xef\xb8\x8f'
p3352
I109
sS'gabe'
p3353
I110
sS'physics'
p3354
I110
sS'lying'
p3355
I107
sS'lmaoooooo'
p3356
I110
sS'ugh'
p3357
I100
sS'golf'
p3358
I107
sS'onsies'
p3359
I110
sS'gold'
p3360
I110
sS'blended'
p3361
I109
sS'authors'
p3362
I110
sS'disappointed'
p3363
I110
sS'atmospherekeep'
p3364
I110
sS'hadnt'
p3365
I110
sS'booze'
p3366
I110
sS'choreography'
p3367
I110
sS'(1871)'
p3368
I110
sS'yaaaa'
p3369
I110
sS'jared'
p3370
I109
sS'melody'
p3371
I110
sS'with\xe2\x80\xa6'
p3372
I110
sS'fine'
p3373
I108
sS'find'
p3374
I103
sS'qoute'
p3375
I110
sS'for?im'
p3376
I110
sS'giant'
p3377
I108
sS'(39720'
p3378
I110
sS'(and'
p3379
I110
sS'restaurant)'
p3380
I108
sS'zumba'
p3381
I109
sS'justice'
p3382
I109
sS'nervous'
p3383
I110
sS'sharing'
p3384
I110
sS'camel'
p3385
I109
sS'poppin'
p3386
I110
sS'19th'
p3387
I110
sS'rare-breeds'
p3388
I110
sS'wifed'
p3389
I110
sS'randy'
p3390
I110
sS'mind?,93551\n502299787320770560,dubbcoop,2014-08-21'
p3391
I110
sS'annotations'
p3392
I110
sS'pretty'
p3393
I95
sS'in,93551\n502300831463374849,dubbcoop,2014-08-21'
p3394
I110
sS'california)'
p3395
I94
sS'8'
p3396
I108
sS'cuba'
p3397
I110
sS'obama'
p3398
I110
sS"mom's"
p3399
I110
sS'jenan'
p3400
I110
sS'giants'
p3401
I110
sS'his'
p3402
I85
sS'hit'
p3403
I102
sS'17:16:46.0,34.60673,-118.13076,9102.01,you'
p3404
I110
sS'ddr'
p3405
I110
sS'express'
p3406
I100
sS'pregnant'
p3407
I110
sS'grocery'
p3408
I109
sS'famous'
p3409
I109
sS'feels'
p3410
I104
sS"muslims'"
p3411
I109
sS'sum1'
p3412
I110
sS"'cokes"
p3413
I110
sS'shared'
p3414
I110
sS'during'
p3415
I108
sS'fruit/veggie'
p3416
I110
sS'him'
p3417
I89
sS'alexander'
p3418
I110
sS'dd214'
p3419
I110
sS'showed'
p3420
I110
sS'sleeve'
p3421
I110
sS'rft'
p3422
I109
sS'lighter'
p3423
I110
sS'cry'
p3424
I105
sS'ilysfm'
p3425
I110
sS'(oscar)'
p3426
I110
sS'pre-show'
p3427
I110
sS'coupons'
p3428
I110
sS'thots'
p3429
I110
sS'(i'
p3430
I110
sS'caramel'
p3431
I108
sS'common'
p3432
I110
sS'lmfaoooooo'
p3433
I110
sS'double'
p3434
I110
sS'gospel'
p3435
I109
sS'undertand'
p3436
I110
sS'tourney'
p3437
I110
sS'wrote'
p3438
I109
sS'badwidth'
p3439
I110
sS'consciously'
p3440
I110
sS'deaddddd'
p3441
I110
sS'set'
p3442
I105
sS'art'
p3443
I110
sS'sep'
p3444
I110
sS'throwing'
p3445
I110
sS'espys'
p3446
I110
sS'sex'
p3447
I110
sS'see'
p3448
I67
sS'bam'
p3449
I110
sS'dumb'
p3450
I109
sS'are'
p3451
I38
sS'sea'
p3452
I108
sS"mj's"
p3453
I110
sS'close'
p3454
I107
sS'refuse'
p3455
I110
sS'virtually.\xe2\x80\x9d'
p3456
I110
sS'retweet'
p3457
I108
sS'considered'
p3458
I110
sS'hibiscus'
p3459
I110
sS'shower'
p3460
I109
sS"'marche"
p3461
I110
sS'rewatch'
p3462
I110
sS'rounds'
p3463
I110
sS'vitamins'
p3464
I110
sS'speeds'
p3465
I110
sS'unsettling'
p3466
I110
sS'deactivate'
p3467
I110
sS'movie'
p3468
I99
sS'wow'
p3469
I103
sS'redemption-'
p3470
I110
sS'please'
p3471
I99
sS'demons'
p3472
I110
sS'crisp'
p3473
I110
sS'fans'
p3474
I108
sS'won'
p3475
I108
sS'various'
p3476
I109
sS'certificate'
p3477
I110
sS'algebramy'
p3478
I110
sS'pist'
p3479
I110
sS'probably'
p3480
I100
sS'rite'
p3481
I110
sS'5/5'
p3482
I110
sS'conditions'
p3483
I110
sS'pictured'
p3484
I110
sS'head"'
p3485
I110
sS'knowing'
p3486
I108
sS'solo'
p3487
I110
sS'makeup'
p3488
I109
sS'tristan'
p3489
I110
sS'waiter'
p3490
I110
sS'unconscious'
p3491
I109
sS'bcome'
p3492
I109
sS'sold'
p3493
I110
sS'sharpies'
p3494
I110
sS'outfit'
p3495
I108
sS'arms'
p3496
I110
sS'carded'
p3497
I110
sS'brandied'
p3498
I110
sS'fame'
p3499
I110
sS'sharkeisha'
p3500
I110
sS'leo'
p3501
I110
sS'pissed'
p3502
I109
sS'both'
p3503
I100
sS'c'
p3504
I104
sS'feeling'
p3505
I106
sS'last'
p3506
I79
sS'license'
p3507
I109
sS'restaurant'
p3508
I108
sS'secrets'
p3509
I108
sS'thot'
p3510
I109
sS"wouldn't"
p3511
I104
sS'barely'
p3512
I107
sS'chisme'
p3513
I110
sS'mcdonald'
p3514
I110
sS'nopgow'
p3515
I109
sS'became'
p3516
I109
sS'spirit"'
p3517
I110
sS'annie'
p3518
I110
sS'boxers'
p3519
I109
sS'vegetarian'
p3520
I110
sS'whole'
p3521
I102
sS'stoplight'
p3522
I110
sS'mickey'
p3523
I110
sS'cakes'
p3524
I101
sS'grill)'
p3525
I107
sS'ranchers'
p3526
I110
sS'bell'
p3527
I106
sS'simple'
p3528
I108
sS'sweet'
p3529
I106
sS'loan'
p3530
I110
sS'pie'
p3531
I110
sS'harbour'
p3532
I92
sS'lauryn'
p3533
I110
sS"hadn't"
p3534
I110
sS'dances'
p3535
I110
sS'likes'
p3536
I108
sS'church'
p3537
I107
sS'raw'
p3538
I110
sS'pocky'
p3539
I110
sS'mission'
p3540
I110
sS'bitchessss'
p3541
I110
sS'expensive'
p3542
I110
sS'belt'
p3543
I110
sS'pr'
p3544
I110
sS'jaylene'
p3545
I109
sS'consuming'
p3546
I110
sS'mentality'
p3547
I110
sS'mikes'
p3548
I110
sS'raise'
p3549
I109
sS'trapmust'
p3550
I110
sS'agree'
p3551
I110
sS'create'
p3552
I109
sS'panera'
p3553
I110
sS'souplantation'
p3554
I107
sS'due'
p3555
I110
sS'[3]'
p3556
I110
sS'earthquake'
p3557
I110
sS'hitting'
p3558
I109
sS'dropping'
p3559
I109
sS'damn'
p3560
I90
sS'pg'
p3561
I110
sS'maintenance'
p3562
I110
sS'pe'
p3563
I110
sS'mindset'
p3564
I110
sS'meeting'
p3565
I103
sS'urgently'
p3566
I110
sS'woke'
p3567
I110
sS'flight'
p3568
I110
sS'gay'
p3569
I101
sS'fire'
p3570
I105
sS"what's"
p3571
I99
sS'gas'
p3572
I100
sS'lowww'
p3573
I110
sS'leaf\xc2\xae'
p3574
I67
sS'else'
p3575
I103
sS'"imma'
p3576
I110
sS'lives'
p3577
I108
sS'whitney'
p3578
I110
sS'bister'
p3579
I110
sS'prices'
p3580
I110
sS"chef's"
p3581
I110
sS'wedding'
p3582
I105
sS'hamill'
p3583
I110
sS'honest'
p3584
I110
sS'?\xe2\x80\x9dkeep'
p3585
I110
sS'motivated'
p3586
I110
sS'digs'
p3587
I110
sS'dicks'
p3588
I110
sS'look'
p3589
I91
sS'all-time'
p3590
I110
sS'frozen'
p3591
I108
sS'pickup'
p3592
I110
sS'straight'
p3593
I104
sS'tip'
p3594
I110
sS'convo'
p3595
I107
sS'pitchfork'
p3596
I110
sS'past\xe2\x9c\x8c\xef\xb8\x8f'
p3597
I110
sS'while'
p3598
I94
sS'night.thanks4understanding'
p3599
I110
sS'accidently'
p3600
I110
sS'kick'
p3601
I105
sS'music.\xe2\x80\x9d'
p3602
I110
sS'fun'
p3603
I90
sS"squirty's"
p3604
I110
sS'atlanta'
p3605
I110
sS'guide'
p3606
I109
sS'comeover'
p3607
I109
sS'theres'
p3608
I110
sS'owed'
p3609
I110
sS'pound'
p3610
I110
sS'<3'
p3611
I108
sS'unheard'
p3612
I110
sS'cents'
p3613
I108
sS'rip'
p3614
I109
sS'sing"\xe2\x80\x9d3'
p3615
I110
sS'itself'
p3616
I109
sS'lakers'
p3617
I110
sS'skype'
p3618
I110
sS'ready'
p3619
I98
sS'aspects'
p3620
I110
sS'rid'
p3621
I110
sS'kings'
p3622
I110
sS'seem'
p3623
I110
sS'slushie'
p3624
I109
sS'cuisine'
p3625
I108
sS'communal'
p3626
I110
sS'sounding'
p3627
I110
sS'shirt'
p3628
I106
sS'anymore'
p3629
I101
sS'noooo'
p3630
I108
sS'barnes'
p3631
I79
sS'belong'
p3632
I108
sS'embarrassingly'
p3633
I110
sS'puig'
p3634
I109
sS'wierd'
p3635
I109
sS'lujah'
p3636
I110
sS'some)'
p3637
I110
sS'changedy'
p3638
I110
sS'metrolink'
p3639
I109
sS'03:38:56.0,34.6072256,-118.1337039,9102.01,my'
p3640
I110
sS'9'
p3641
I109
sS'bridezilla'
p3642
I110
sS'it\xe2\x80\x9d'
p3643
I109
sS'eww'
p3644
I110
sS"money's"
p3645
I110
sS'strawberry'
p3646
I110
sS'sya'
p3647
I110
sS'used'
p3648
I103
sS'temporary'
p3649
I110
sS'fatty'
p3650
I110
sS'itch'
p3651
I110
sS'mountain'
p3652
I110
sS'illest'
p3653
I110
sS'sexist'
p3654
I110
sS'renzo'
p3655
I110
sS'tamory'
p3656
I110
sS'yesterday'
p3657
I107
sS'attempted'
p3658
I110
sS'school/work'
p3659
I110
sS"reese's"
p3660
I110
sS'moment'
p3661
I104
sS'walmart'
p3662
I64
sS'moving'
p3663
I110
sS'purpose'
p3664
I110
sS'yours'
p3665
I110
sS'ab'
p3666
I110
sS'lioking'
p3667
I110
sS'sweating'
p3668
I110
sS'push-ups'
p3669
I110
sS'hows'
p3670
I110
sS'lower'
p3671
I110
sS'picky'
p3672
I110
sS'people"'
p3673
I110
sS'older'
p3674
I107
sS"dad's"
p3675
I109
sS'atcha'
p3676
I110
sS'depending'
p3677
I110
sS'chickens'
p3678
I110
sS'quirky'
p3679
I110
sS'analysis'
p3680
I110
sS'picks'
p3681
I109
sS'person'
p3682
I92
sS'cheer'
p3683
I102
sS'edge'
p3684
I110
sS'flags'
p3685
I106
sS'430'
p3686
I110
sS'grip'
p3687
I110
sS'dark'
p3688
I110
sS'spend'
p3689
I107
sS'uggs'
p3690
I110
sS'know'
p3691
I46
sS'i\xe2\x80\x99m'
p3692
I110
sS'salvi'
p3693
I110
sS'simp'
p3694
I108
sS'mom'
p3695
I82
sS'matter*'
p3696
I110
sS'sound'
p3697
I110
sS"cat's"
p3698
I110
sS'boutta'
p3699
I110
sS'beth'
p3700
I110
sS'shape'
p3701
I109
sS'hercules'
p3702
I110
sS'cocky'
p3703
I110
sS'questions'
p3704
I109
sS'world'
p3705
I102
sS'jv'
p3706
I110
sS'regardless'
p3707
I109
sS'praying'
p3708
I108
sS'bouta'
p3709
I110
sS'crushes'
p3710
I110
sS'noyzrus'
p3711
I110
sS'letting'
p3712
I109
sS'shape"'
p3713
I110
sS'cut'
p3714
I102
sS'cus'
p3715
I110
sS'errand'
p3716
I110
sS'cup'
p3717
I108
sS'blankets'
p3718
I110
sS'excites'
p3719
I110
sS'cuz'
p3720
I102
sS'dc'
p3721
I110
sS'pillars'
p3722
I110
sS'havin'
p3723
I110
sS'parents'
p3724
I106
sS'crying'
p3725
I110
sS'homies'
p3726
I106
sS'snap'
p3727
I110
sS"winco's"
p3728
I110
sS'cum'
p3729
I109
sS'frapee'
p3730
I110
sS'excited'
p3731
I103
sS'surprised'
p3732
I110
sS'nasa'
p3733
I110
sS'bio'
p3734
I110
sS'victims'
p3735
I109
sS"popeye's"
p3736
I110
sS'emergency'
p3737
I110
sS'big'
p3738
I102
sS'couple'
p3739
I105
sS'laughed'
p3740
I110
sS'tiring'
p3741
I110
sS'matters'
p3742
I110
sS'game'
p3743
I82
sS'maniesdeli'
p3744
I110
sS'biz'
p3745
I110
sS'apt'
p3746
I109
sS'donor'
p3747
I110
sS"chive'n"
p3748
I110
sS'bit'
p3749
I110
sS'wings'
p3750
I109
sS'projects'
p3751
I110
sS'wovenwar'
p3752
I110
sS'painted'
p3753
I110
sS'knock'
p3754
I108
sS'uaed'
p3755
I110
sS'lost'
p3756
I99
sS'wingstop'
p3757
I108
sS'message'
p3758
I110
sS'manny'
p3759
I110
sS'glove'
p3760
I110
sS'jota'
p3761
I110
sS'individuals'
p3762
I110
sS'jo-ann'
p3763
I110
sS'honey..i'
p3764
I110
sS'popular'
p3765
I109
sS'itw'
p3766
I110
sS'bamboo'
p3767
I110
sS'fault'
p3768
I107
sS"forever'-"
p3769
I110
sS'collective'
p3770
I110
sS"apple''"
p3771
I110
sS'33rd'
p3772
I110
sS'often'
p3773
I108
sS'brakes'
p3774
I110
sS'absolutely'
p3775
I108
sS'spring'
p3776
I110
sS'1st'
p3777
I109
sS'some'
p3778
I67
sS'back'
p3779
I57
sS'bounce'
p3780
I109
sS'urgent'
p3781
I107
sS'lips'
p3782
I108
sS'orange&pink'
p3783
I110
sS'mmmmm'
p3784
I108
sS'"we'
p3785
I109
sS'sight'
p3786
I110
sS'touchless'
p3787
I110
sS'falafel'
p3788
I110
sS'curious'
p3789
I110
sS'sprint'
p3790
I110
sS'wbu'
p3791
I110
sS'sheesh'
p3792
I110
sS'preparing'
p3793
I110
sS'pronounced'
p3794
I110
sS'sheen'
p3795
I110
sS'"fuck'
p3796
I110
sS'jewelry'
p3797
I109
sS'saay'
p3798
I110
sS'pet'
p3799
I108
sS'redo'
p3800
I110
sS'decision'
p3801
I110
sS'shall'
p3802
I109
sS'pros'
p3803
I110
sS'noises'
p3804
I110
sS'debra'
p3805
I110
sS'marcus'
p3806
I110
sS'prom'
p3807
I109
sS'applebees'
p3808
I110
sS'lipsynching'
p3809
I110
sS'slash'
p3810
I110
sS'innovation'
p3811
I110
sS'pee'
p3812
I109
sS'epic'
p3813
I110
sS'glob'
p3814
I110
sS'laughing'
p3815
I109
sS'be'
p3816
I25
sS'bf'
p3817
I110
sS'eating'
p3818
I104
sS'bc'
p3819
I102
sS"fuckin'"
p3820
I109
sS'wear...happy'
p3821
I110
sS'processing'
p3822
I110
sS'continuing'
p3823
I110
sS'fed'
p3824
I110
sS's/o'
p3825
I110
sS'step'
p3826
I108
sS'negatives'
p3827
I109
sS'santa'
p3828
I109
sS'bs'
p3829
I109
sS'refuses'
p3830
I110
sS'from'
p3831
I60
sS'by'
p3832
I74
sS'elderly'
p3833
I110
sS'usb'
p3834
I110
sS'shine'
p3835
I109
sS'faith'
p3836
I108
sS'goods'
p3837
I110
sS'toanywhere'
p3838
I110
sS'anything'
p3839
I104
sS'wore'
p3840
I109
sS'plaza'
p3841
I110
sS"mcdonald's"
p3842
I110
sS'truck'
p3843
I110
sS'oatmeal'
p3844
I110
sS'drama'
p3845
I110
sS'deserves'
p3846
I109
sS'range'
p3847
I104
sS'economic'
p3848
I110
sS'idk'
p3849
I97
sS'germany'
p3850
I109
sS'bumpin'
p3851
I110
sS'hahahah'
p3852
I109
sS'idc'
p3853
I108
sS'horchatta'
p3854
I110
sS'ppl'
p3855
I106
sS'seeing'
p3856
I106
sS"roscoe's"
p3857
I110
sS'every1'
p3858
I110
sS'*.568'
p3859
I110
sS'haha\xe2\x80\xa6'
p3860
I110
sS'elborate'
p3861
I110
sS'hometown'
p3862
I95
sS'into'
p3863
I93
sS'within'
p3864
I109
sS'tanfit'
p3865
I110
sS'darkest'
p3866
I110
sS'joelle'
p3867
I110
sS'appropriate'
p3868
I110
sS'because'
p3869
I72
sS'ayyy'
p3870
I110
sS'lesson'
p3871
I110
sS'chimbole'
p3872
I110
sS'lebron'
p3873
I108
sS'sometimes.\xe2\x80\x9d'
p3874
I110
sS'smells'
p3875
I109
sS'logged'
p3876
I110
sS'(barnes'
p3877
I110
sS'noisy'
p3878
I110
sS'11:11'
p3879
I110
sS'.-'
p3880
I110
sS',93551\n447856322873028608,shewantsshakur,2014-03-23'
p3881
I110
sS'jameson'
p3882
I110
sS'yummy\xe2\x80\x9d'
p3883
I110
sS'ache'
p3884
I110
sS'placing'
p3885
I110
sS'question'
p3886
I107
sS'live'
p3887
I98
sS'fast'
p3888
I105
sS'proposition.luke'
p3889
I110
sS'handler'
p3890
I110
sS"we're"
p3891
I102
sS'homemade'
p3892
I110
sS'bruh'
p3893
I102
sS'tempurpedic'
p3894
I110
sS"eastside's"
p3895
I109
sS'bored'
p3896
I101
sS'yeahhhh'
p3897
I110
sS'scared'
p3898
I110
sS'opens'
p3899
I110
sS'necessary'
p3900
I110
sS'invite'
p3901
I107
sS'kb'
p3902
I110
sS'froggy'
p3903
I110
sS'registered'
p3904
I110
sS'munch\xee\x8c\xba'
p3905
I110
sS'jacky'
p3906
I110
sS'boys'
p3907
I106
sS'yesssss'
p3908
I108
sS'lydia'
p3909
I110
sS'competition'
p3910
I110
sS'countdown'
p3911
I110
sS'embarassed'
p3912
I110
sS'line'
p3913
I105
sS'\xe2\x99\xa5'
p3914
I110
sS'posted'
p3915
I105
sS'info'
p3916
I107
sS'disappear."\xe2\x80\x9d'
p3917
I110
sS'geting'
p3918
I110
sS'loves\xe2\x9d\xa4\xef\xb8\x8f'
p3919
I110
sS'womeni'
p3920
I110
sS'mrs'
p3921
I109
sS'$30'
p3922
I110
sS'gaby'
p3923
I110
sS'fries'
p3924
I106
sS'up'
p3925
I28
sS'us'
p3926
I92
sS'ur'
p3927
I106
sS'planet'
p3928
I109
sS"tomorrow's"
p3929
I110
sS'sum'
p3930
I110
sS'amaxing'
p3931
I110
sS'highlight'
p3932
I110
sS'wicked'
p3933
I109
sS'similar'
p3934
I110
sS'called'
p3935
I105
sS'(631'
p3936
I88
sS'yelled'
p3937
I110
sS'v'
p3938
I110
sS'ordered'
p3939
I109
sS'adults'
p3940
I109
sS'cin'
p3941
I110
sS'hedwig'
p3942
I110
sS'metal'
p3943
I110
sS'biting-'
p3944
I110
sS'influence'
p3945
I110
sS'merry'
p3946
I110
sS'babe-.-'
p3947
I110
sS'single'
p3948
I110
sS'warning'
p3949
I109
sS'chat'
p3950
I110
sS'checked'
p3951
I110
sS'recent'
p3952
I110
sS'back2back'
p3953
I110
sS'cafe'
p3954
I107
sS'c\xe2\x80\x99mon'
p3955
I110
sS'racial'
p3956
I110
sS'cotton'
p3957
I110
sS'disappoints'
p3958
I110
sS'color'
p3959
I110
sS'nag'
p3960
I110
sS'times\xe2\x80\x9d'
p3961
I110
sS'nah'
p3962
I101
sS'peace'
p3963
I108
sS'kills'
p3964
I110
sS'nopgow)'
p3965
I110
sS'kamay'
p3966
I110
sS'714-776-1847'
p3967
I110
sS'nap'
p3968
I108
sS'naw'
p3969
I106
sS'twact'
p3970
I110
sS'spasm'
p3971
I110
sS'95%'
p3972
I110
sS'*vagina'
p3973
I110
sS'nichols'
p3974
I110
sS'nice'
p3975
I97
sS'pills'
p3976
I110
sS'smiles'
p3977
I110
sS'lol\xee\x90\x84'
p3978
I110
sS'accidental'
p3979
I110
sS'enterprise'
p3980
I110
sS'problems'
p3981
I106
sS'(casino)'
p3982
I110
sS'helping'
p3983
I110
sS'jazaks'
p3984
I110
sS'meaning'
p3985
I109
sS'smiled'
p3986
I109
sS'w/luv'
p3987
I110
sS"bodo's"
p3988
I110
sS'taps'
p3989
I110
sS'desert'
p3990
I108
sS'ago'
p3991
I104
sS'remix'
p3992
I110
sS'land'
p3993
I109
sS'texted'
p3994
I109
sS'caillou'
p3995
I110
sS'cling'
p3996
I110
sS'19th/pearl1'
p3997
I110
sS'stressin'
p3998
I110
sS'age'
p3999
I109
sS'required'
p4000
I110
sS'holes'
p4001
I110
sS'walked'
p4002
I109
sS'hella'
p4003
I107
sS'2006'
p4004
I110
sS'karma'
p4005
I110
sS'2005'
p4006
I110
sS'far'
p4007
I105
sS"she's"
p4008
I100
sS'leaked'
p4009
I110
sS'emily'
p4010
I110
sS'hello'
p4011
I108
sS'necessita'
p4012
I110
sS'once'
p4013
I105
sS'essay'
p4014
I107
sS'\xe2\x98\xba\xef\xb8\x8f\xe2\x98\xba\xef\xb8\x8f\xe2\x98\xba\xef\xb8\x8f'
p4015
I110
sS'jason'
p4016
I110
sS'sensitive'
p4017
I110
sS'stoner'
p4018
I110
sS"leslie's"
p4019
I110
sS'hurricane'
p4020
I110
sS'wide'
p4021
I110
sS'critical'
p4022
I110
sS'ds'
p4023
I110
sS'gf'
p4024
I109
sS'windy'
p4025
I109
sS'chowder'
p4026
I110
sS"puttin'"
p4027
I109
sS'gang'
p4028
I109
sS'"in'
p4029
I110
sS'go'
p4030
I37
sS'gn'
p4031
I109
sS'gm'
p4032
I110
sS'14th'
p4033
I110
sS'chillin'
p4034
I110
sS'kate'
p4035
I110
sS'cody'
p4036
I110
sS'iced'
p4037
I110
sS'drive-in'
p4038
I110
sS'pope'
p4039
I110
sS'(853'
p4040
I109
sS"a's"
p4041
I110
sS'concerned'
p4042
I109
sS'hunger'
p4043
I110
sS'dood'
p4044
I110
sS'young'
p4045
I110
sS'send'
p4046
I107
sS'easiest'
p4047
I110
sS'literary'
p4048
I110
sS'hats'
p4049
I110
sS'woohoo'
p4050
I110
sS'helps'
p4051
I107
sS'/.\\'
p4052
I110
sS'extractions'
p4053
I110
sS'hyperfuse'
p4054
I110
sS'dislike'
p4055
I110
sS'include'
p4056
I110
sS'sent'
p4057
I108
sS'customer'
p4058
I110
sS'queen'
p4059
I108
sS'dreaming'
p4060
I110
sS'garden'
p4061
I110
sS'torture'
p4062
I109
sS'center)'
p4063
I106
sS'automotive'
p4064
I110
sS'continues'
p4065
I110
sS'quadruples'
p4066
I110
sS'facebook'
p4067
I109
sS'trough'
p4068
I110
sS'arrangements)'
p4069
I110
sS'telling'
p4070
I108
sS'drinking'
p4071
I106
sS'yaeah'
p4072
I110
sS'youtbe'
p4073
I110
sS'chevrolet)'
p4074
I110
sS'tri'
p4075
I110
sS'entire'
p4076
I107
sS'prefect'
p4077
I110
sS'alec'
p4078
I110
sS'stiff'
p4079
I110
sS'harbor'
p4080
I110
sS'notes'
p4081
I110
sS'gettin'
p4082
I105
sS'michael'
p4083
I110
sS"they've"
p4084
I110
sS'quitting'
p4085
I110
sS'try'
p4086
I98
sS'race'
p4087
I110
sS'reals'
p4088
I110
sS'congrats'
p4089
I110
sS'colorguard'
p4090
I110
sS'avoiding'
p4091
I110
sS'husband'
p4092
I110
sS'barbara'
p4093
I110
sS'ballz'
p4094
I110
sS'rach'
p4095
I110
sS'joey'
p4096
I110
sS'carls'
p4097
I110
sS'smuther'
p4098
I110
sS'cap'
p4099
I110
sS'booty'
p4100
I109
sS'carter'
p4101
I110
sS'fubus'
p4102
I110
sS'fus'
p4103
I110
sS'bannaners'
p4104
I110
sS'stalker'
p4105
I110
sS'mediterranean'
p4106
I102
sS'nafs'
p4107
I110
sS'week\xee\x81\x96\xee\x81\x97\xee\x80\x87'
p4108
I110
sS'jump'
p4109
I110
sS'~mill'
p4110
I110
sS'video'
p4111
I110
sS"chelly's"
p4112
I110
sS'growing'
p4113
I110
sS'umpteenth'
p4114
I110
sS'pajamas'
p4115
I110
sS'click'
p4116
I110
sS'depression'
p4117
I110
sS'poke'
p4118
I110
sS'plays'
p4119
I108
sS'business'
p4120
I108
sS'cover'
p4121
I110
sS'wallet'
p4122
I110
sS'giving'
p4123
I107
sS'colonel'
p4124
I110
sS'espresso'
p4125
I110
sS'lmfaoooooooo'
p4126
I110
sS'leaf\xc2\xae)'
p4127
I110
sS'cell'
p4128
I110
sS'seconds'
p4129
I110
sS'waiting'
p4130
I99
sS'indian'
p4131
I107
sS'twins'
p4132
I108
sS'currently'
p4133
I110
sS'11th'
p4134
I110
sS't'
p4135
I110
sS'$1000'
p4136
I110
sS'd1'
p4137
I110
sS'chefs'
p4138
I109
sS'exercise'
p4139
I110
sS'body'
p4140
I105
sS'locked'
p4141
I110
sS'gym\xee\x85\x8c'
p4142
I110
sS'leg'
p4143
I109
sS'cages'
p4144
I110
sS'lei'
p4145
I110
sS'*gets'
p4146
I110
sS'punch'
p4147
I109
sS'444'
p4148
I110
sS'up!!--->'
p4149
I110
sS'$3.87/gallon'
p4150
I110
sS'packing'
p4151
I110
sS'sewn'
p4152
I110
sS'let'
p4153
I87
sS'sink'
p4154
I110
sS'others'
p4155
I99
sS'douchey'
p4156
I110
sS'sexy'
p4157
I107
sS'kidnapped'
p4158
I110
sS'sayin'
p4159
I109
sS'vacay'
p4160
I110
sS'great'
p4161
I89
sS'38'
p4162
I110
sS'd-lo'
p4163
I109
sS'biographies'
p4164
I110
sS'didnt'
p4165
I109
sS'eastside'
p4166
I110
sS'30'
p4167
I106
sS'^_^'
p4168
I110
sS'leaving'
p4169
I107
sS'vbs'
p4170
I110
sS'check-in'
p4171
I110
sS'tires'
p4172
I110
sS'erik'
p4173
I110
sS'popcorn'
p4174
I110
sS'845'
p4175
I110
sS'proof'
p4176
I110
sS'makes'
p4177
I90
sS'honor'
p4178
I109
sS'involves'
p4179
I110
sS'thats'
p4180
I100
sS"manny'a"
p4181
I110
sS'named'
p4182
I107
sS'wastin'
p4183
I110
sS'apple'
p4184
I110
sS'clark'
p4185
I110
sS'cashismy1stname'
p4186
I110
sS'win'
p4187
I107
sS'charge'
p4188
I110
sS'worthy'
p4189
I110
sS'dedicated'
p4190
I109
sS'private'
p4191
I109
sS'outcomes'
p4192
I110
sS'sixty'
p4193
I110
sS'saucey'
p4194
I110
sS'wit'
p4195
I109
sS'hrs'
p4196
I110
sS'limb'
p4197
I110
sS'apply'
p4198
I110
sS'stop\xe2\x9c\x8b'
p4199
I110
sS'sugar'
p4200
I110
sS'singing'
p4201
I108
sS'wiz'
p4202
I110
sS'sermon'
p4203
I110
sS'use'
p4204
I103
sS'hahahahaha'
p4205
I110
sS'crap'
p4206
I108
sS'hippie'
p4207
I110
sS'usa'
p4208
I109
sS'&'
p4209
I26
sS'illegal'
p4210
I109
sS'margins'
p4211
I110
sS'ferris'
p4212
I110
sS'next'
p4213
I84
sS'few'
p4214
I103
sS'doubt'
p4215
I110
sS'fer'
p4216
I110
sS'debbie'
p4217
I110
sS'"focus'
p4218
I110
sS'vehicle'
p4219
I109
sS'themselves'
p4220
I109
sS'stage'
p4221
I110
sS'reflects'
p4222
I110
sS'sort'
p4223
I110
sS'tool-'
p4224
I110
sS'babe'
p4225
I105
sS'condom'
p4226
I110
sS'upcoming'
p4227
I109
sS'started'
p4228
I108
sS'far)'
p4229
I110
sS'factor'
p4230
I110
sS'impress'
p4231
I110
sS'about'
p4232
I49
sS'infection'
p4233
I110
sS'confused'
p4234
I106
sS'tgbjif'
p4235
I96
sS'sore'
p4236
I105
sS'grades'
p4237
I110
sS'train'
p4238
I107
sS'palettes'
p4239
I110
sS'ashamed'
p4240
I110
sS'baby'
p4241
I84
sS'gladly'
p4242
I110
sS'tearing'
p4243
I109
sS'rivalry'
p4244
I110
sS'circle'
p4245
I110
sS'starter'
p4246
I110
sS'women'
p4247
I108
sS'annoy'
p4248
I110
sS'account'
p4249
I108
sS'balls'
p4250
I106
sS'animals'
p4251
I110
sS'salad'
p4252
I108
sS'ayfkm'
p4253
I110
sS'this'
p4254
I18
sS'ride'
p4255
I103
sS'package'
p4256
I110
sS'chief'
p4257
I110
sS'girugamesh'
p4258
I110
sS'argue'
p4259
I110
sS'fire,93551\n448869346463322113,shewantsshakur,2014-03-26'
p4260
I110
sS'anywhere'
p4261
I106
sS'obvious'
p4262
I110
sS'pre-order'
p4263
I110
sS'praise'
p4264
I110
sS'palmdale:/'
p4265
I110
sS'aight'
p4266
I109
sS'meet'
p4267
I101
sS'closing'
p4268
I110
sS'drops'
p4269
I110
sS'nubergen'
p4270
I108
sS'spilled'
p4271
I110
sS'ants'
p4272
I110
sS'dropped'
p4273
I110
sS'control'
p4274
I108
sS'b.b.q'
p4275
I110
sS'hey\xe2\x80\x9d'
p4276
I110
sS'*chic'
p4277
I110
sS'judge'
p4278
I110
sS'lock'
p4279
I110
sS'slim'
p4280
I110
sS'halloween'
p4281
I108
sS'dripping'
p4282
I110
sS'1980-2012'
p4283
I110
sS'high'
p4284
I107
sS'bones'
p4285
I110
sS'tag'
p4286
I110
sS'tantrums'
p4287
I110
sS'something'
p4288
I86
sS'slip'
p4289
I110
sS'blvd'
p4290
I104
sS'wonderful'
p4291
I109
sS'tan'
p4292
I110
sS'tao'
p4293
I110
sS'tai'
p4294
I110
sS'sir'
p4295
I109
sS'assuredly'
p4296
I110
sS'sip'
p4297
I110
sS'syndrome'
p4298
I110
sS'sit'
p4299
I102
sS'destroying'
p4300
I110
sS'clothing'
p4301
I110
sS'six'
p4302
I107
sS'arrangement'
p4303
I110
sS'acorn'
p4304
I110
sS'located'
p4305
I110
sS'winners'
p4306
I110
sS'animal'
p4307
I110
sS'galleria'
p4308
I110
sS'instead'
p4309
I107
sS'instinctively'
p4310
I110
sS'"sister"'
p4311
I110
sS'panic'
p4312
I110
sS'sin'
p4313
I110
sS'stand'
p4314
I108
sS'goooood'
p4315
I110
sS'skated'
p4316
I109
sS'person\xe2\x80\x99s'
p4317
I110
sS'hawt'
p4318
I110
sS'attend'
p4319
I110
sS'stop'
p4320
I86
sS'sinsi'
p4321
I110
sS'lmfaoo'
p4322
I109
sS'up\xee\x90\x84\xee\x90\x84\xee\x90\x94'
p4323
I110
sS'doze'
p4324
I110
sS'donating'
p4325
I110
sS'wrist'
p4326
I110
sS'battles'
p4327
I110
sS'taco'
p4328
I105
sS'hahahaha'
p4329
I109
sS'ties'
p4330
I110
sS'live!"not'
p4331
I110
sS'yea?:)'
p4332
I110
sS'lovah\xe2\x9d\xa4\xef\xb8\x8f\xe2\x9d\xa4\xef\xb8\x8f\xe2\x9d\xa4\xef\xb8\x8f\xe2\x9d\xa4\xef\xb8\x8f'
p4333
I110
sS'idgaf'
p4334
I110
sS'roses'
p4335
I109
sS'realized'
p4336
I109
sS'ot'
p4337
I109
sS'solon'
p4338
I110
sS'pag'
p4339
I110
sS'name?"'
p4340
I110
sS'$$$$$'
p4341
I110
sS'light'
p4342
I109
sS'lame'
p4343
I109
sS'gigabyte'
p4344
I110
sS'bakery'
p4345
I108
sS'sangria'
p4346
I110
sS'honestly'
p4347
I107
sS'non-cross'
p4348
I110
sS'foster'
p4349
I110
sS'swimming'
p4350
I110
sS"beendon't"
p4351
I110
sS'transformation'
p4352
I110
sS'exebyte'
p4353
I110
sS'antelope'
p4354
I104
sS'holds'
p4355
I110
sS'heater'
p4356
I110
sS'tropics'
p4357
I110
sS'move'
p4358
I102
sS'petco'
p4359
I110
sS'03:43:25.0,34.6072431,-118.1337012,9102.01,let'
p4360
I110
sS'joanne'
p4361
I110
sS'wow-'
p4362
I110
sS'bitchmicky'
p4363
I110
sS"won't"
p4364
I104
sS'looks'
p4365
I98
sS"george's"
p4366
I110
sS'mentioned'
p4367
I110
sS'maddie!!!\xe2\x9d\xa4\xef\xb8\x8f\xe2\x9d\xa4\xef\xb8\x8f\xe2\x9d\xa4\xef\xb8\x8f'
p4368
I110
sS'horny'
p4369
I110
sS'galaxy'
p4370
I110
sS'bunch'
p4371
I107
sS'perfect'
p4372
I104
sS'thanking'
p4373
I109
sS'tumblr'
p4374
I110
sS'((-:\xe2\x80\x9d'
p4375
I110
sS'la'
p4376
I102
sS':-)'
p4377
I110
sS"it'll"
p4378
I110
sS'supercenter)'
p4379
I107
sS'winning'
p4380
I108
sS'today...i'
p4381
I110
sS'honks'
p4382
I110
sS'vital'
p4383
I110
sS'causal'
p4384
I110
sS'choose'
p4385
I110
sS'orange'
p4386
I108
sS'covered'
p4387
I109
sS'holiday'
p4388
I109
sS'jukebox'
p4389
I110
sS'2013'
p4390
I110
sS'dad'
p4391
I98
sS'hooters'
p4392
I110
sS'loosing'
p4393
I110
sS'tears'
p4394
I110
sS'sikeee\xe2\x80\x9d'
p4395
I110
sS'greater'
p4396
I109
sS'dam'
p4397
I109
sS'practice'
p4398
I96
sS',93551\n483308313782677506,chloemurphs_,2014-06-29'
p4399
I110
sS'earn'
p4400
I110
sS'flew'
p4401
I109
sS'relentless'
p4402
I110
sS'dat'
p4403
I109
sS'saturday:wilson'
p4404
I110
sS'dougie'
p4405
I110
sS'dap'
p4406
I110
sS'snake'
p4407
I110
sS'kiss'
p4408
I107
sS'hands'
p4409
I109
sS'front'
p4410
I103
sS'rotation'
p4411
I110
sS'terrible'
p4412
I110
sS'day'
p4413
I49
sS'emotion'
p4414
I110
sS'lumpy'
p4415
I110
sS'inbound'
p4416
I110
sS'worlds'
p4417
I110
sS'february'
p4418
I110
sS'nya'
p4419
I110
sS'eyyyy'
p4420
I110
sS'panang'
p4421
I109
sS'toes'
p4422
I110
sS'(women)'
p4423
I110
sS'nips'
p4424
I110
sS'ieti'
p4425
I110
sS'guard'
p4426
I110
sS'fag'
p4427
I109
sS'parks'
p4428
I110
sS'emm'
p4429
I110
sS'slide'
p4430
I110
sS'doesnt'
p4431
I110
sS'betty'
p4432
I110
sS'truth'
p4433
I110
sS'acdc>>>>'
p4434
I110
sS'michaels'
p4435
I109
sS'bills'
p4436
I109
sS'tray'
p4437
I110
sS'twerking'
p4438
I110
sS"tommy's"
p4439
I109
sS'dries'
p4440
I110
sS'ratings'
p4441
I110
sS'studios'
p4442
I109
sS'bueno'
p4443
I110
sS'outloud'
p4444
I110
sS'maaaaybe'
p4445
I110
sS'doing'
p4446
I83
sS'rocking'
p4447
I110
sS'adventure'
p4448
I110
sS'parties'
p4449
I110
sS'winked'
p4450
I110
sS'staying'
p4451
I110
sS'books'
p4452
I107
sS'sands'
p4453
I109
sS'us."'
p4454
I110
sS'our'
p4455
I91
sS'80'
p4456
I110
sS'bay'
p4457
I110
sS'sexual'
p4458
I110
sS'couldnt'
p4459
I110
sS'special'
p4460
I105
sS'out'
p4461
I37
sS'\xe2\x98\x80\xef\xb8\x8f\xe2\x98\x80\xef\xb8\x8f'
p4462
I110
sS'buellerrs'
p4463
I110
sS'patriots'
p4464
I110
sS'men-'
p4465
I110
sS'oxford'
p4466
I110
sS'activism'
p4467
I110
sS'strums'
p4468
I110
sS'w/o'
p4469
I110
sS'aaaaalllottt'
p4470
I110
sS'mis'
p4471
I110
sS'upset'
p4472
I110
sS'jailene'
p4473
I110
sS'&\xe2\x80\xa6'
p4474
I110
sS'ily'
p4475
I109
sS'flushing'
p4476
I110
sS'hilarious'
p4477
I110
sS'rec'
p4478
I110
sS'danii'
p4479
I109
sS'cause'
p4480
I100
sS'alter'
p4481
I110
sS'red'
p4482
I102
sS'gears'
p4483
I110
sS'throwback'
p4484
I110
sS'jocks'
p4485
I110
sS'shut'
p4486
I101
sS'uppp'
p4487
I110
sS'younger"'
p4488
I110
sS'bww'
p4489
I107
sS"doin'"
p4490
I109
sS'thinkerbell'
p4491
I110
sS'godly'
p4492
I110
sS'ech'
p4493
I109
sS'w/e'
p4494
I110
sS'completely'
p4495
I110
sS'testosterone'
p4496
I110
sS'que'
p4497
I110
sS'morning\xe2\x9d\xa4'
p4498
I110
sS'krndoqnehcushrjuehd'
p4499
I110
sS'latte'
p4500
I110
sS'"it\'s'
p4501
I110
sS'imortgage)'
p4502
I110
sS'"can'
p4503
I110
sS'scary'
p4504
I110
sS'tunechi'
p4505
I110
sS'squad'
p4506
I110
sS'prepare'
p4507
I110
sS'g'
p4508
I109
sS'applications'
p4509
I110
sS'steal'
p4510
I110
sS'could'
p4511
I83
sS'membership'
p4512
I109
sS'times'
p4513
I104
sS'facetime'
p4514
I110
sS'conversation'
p4515
I110
sS'length'
p4516
I110
sS'4th'
p4517
I109
sS'lte'
p4518
I110
sS'yeahh'
p4519
I110
sS'cunts'
p4520
I110
sS'hollister'
p4521
I110
sS'chills'
p4522
I109
sS'south'
p4523
I109
sS'mankind'
p4524
I110
sS'lupita'
p4525
I110
sS'cinderella'
p4526
I110
sS'seaworld'
p4527
I110
sS'missed\xe2\x80\xa6'
p4528
I110
sS'bars'
p4529
I110
sS'sack'
p4530
I110
sS'jesus'
p4531
I106
sS'whoop'
p4532
I110
sS'mocks'
p4533
I110
sS'phil'
p4534
I110
sS'bitch'
p4535
I77
sS'mah'
p4536
I110
sS'kidding'
p4537
I110
sS'is\xe2\x80\xa6'
p4538
I110
sS'marrow'
p4539
I110
sS'braces'
p4540
I109
sS"you're"
p4541
I76
sS'management'
p4542
I110
sS'unforeseen'
p4543
I110
sS'monkey'
p4544
I110
sS'los'
p4545
I110
sS'journals'
p4546
I110
sS'redondo'
p4547
I110
sS'accent'
p4548
I109
sS'system'
p4549
I108
sS'(luke'
p4550
I110
sS'their'
p4551
I84
sS'attack'
p4552
I109
sS'sally'
p4553
I110
sS'ruin'
p4554
I110
sS'messing'
p4555
I109
sS'final'
p4556
I107
sS'be4'
p4557
I110
sS'heyyyyy'
p4558
I110
sS'married-ava'
p4559
I110
sS'burgers)'
p4560
I106
sS'stomach'
p4561
I109
sS'stars'
p4562
I109
sS'deshawn'
p4563
I110
sS'shorts'
p4564
I108
sS'improvement)'
p4565
I109
sS'explanation'
p4566
I110
sS'exactly'
p4567
I107
sS'squishy'
p4568
I110
sS'tower'
p4569
I110
sS'excercises'
p4570
I110
sS'biggest'
p4571
I110
sS'chemicals'
p4572
I109
sS'shiiiiiiiiiiiit'
p4573
I110
sS'skyrim'
p4574
I110
sS"that'll"
p4575
I109
sS'july'
p4576
I108
sS'payday'
p4577
I110
sS'coughed'
p4578
I110
sS'neck'
p4579
I108
sS'ipad'
p4580
I110
sS'loved'
p4581
I105
sS'frick'
p4582
I110
sS'food4legs'
p4583
I110
sS'dexter'
p4584
I110
sS'isolation'
p4585
I110
sS'bother'
p4586
I109
sS'conscious'
p4587
I110
sS'lion'
p4588
I110
sS'bed'
p4589
I100
sS'bee'
p4590
I110
sS'trenta'
p4591
I110
sS'claudia'
p4592
I110
sS'patients'
p4593
I110
sS'individual'
p4594
I110
sS'amaze'
p4595
I110
sS'loves'
p4596
I108
sS'6th'
p4597
I110
sS'lakig'
p4598
I110
sS'sooner'
p4599
I110
sS'drenching'
p4600
I110
sS'bet'
p4601
I106
sS'whyyy'
p4602
I110
sS'drunk'
p4603
I107
sS'1.5'
p4604
I110
sS'counter'
p4605
I109
sS'false'
p4606
I109
sS'2014'
p4607
I110
sS'ihjt'
p4608
I110
sS'\xe2\x98\xba\xef\xb8\x8f\xe2\x98\xba\xef\xb8\x8f'
p4609
I110
sS'fuckaaaa'
p4610
I110
sS'trainer'
p4611
I110
sS'comfortable'
p4612
I109
sS'tonight'
p4613
I88
sS'mornings'
p4614
I110
sS'me!-'
p4615
I110
sS'receptionist'
p4616
I110
sS'have'
p4617
I27
sS'habitable'
p4618
I110
sS'need'
p4619
I47
sS'youuuuuuu'
p4620
I110
sS'smellin'
p4621
I110
sS'apparently'
p4622
I108
sS'clearly'
p4623
I109
sS'screw'
p4624
I108
sS'afraid'
p4625
I108
sS'mil'
p4626
I110
sS'checkout'
p4627
I110
sS'min'
p4628
I103
sS'studying'
p4629
I110
sS'mic'
p4630
I110
sS'able'
p4631
I107
sS'gravity'
p4632
I110
sS'hangover'
p4633
I110
sS'arm'
p4634
I109
sS'bagel'
p4635
I110
sS'hr'
p4636
I110
sS'sexier'
p4637
I110
sS'which'
p4638
I104
sS'so'
p4639
I23
sS'asshole'
p4640
I108
sS'haaaa'
p4641
I110
sS'soap'
p4642
I110
sS';-)'
p4643
I110
sS'sra'
p4644
I110
sS'motha'
p4645
I110
sS'aaaaaahhhhh'
p4646
I110
sS'thinkers'
p4647
I110
sS'unless'
p4648
I110
sS'2:59'
p4649
I110
sS'obviously'
p4650
I110
sS'repairs'
p4651
I110
sS'aww'
p4652
I109
sS'who'
p4653
I62
sS'camper'
p4654
I110
sS'lmaooo'
p4655
I110
sS"where's"
p4656
I110
sS'basket'
p4657
I110
sS'moths'
p4658
I110
sS'awoken'
p4659
I110
sS'representation'
p4660
I110
sS'bffl'
p4661
I110
sS'medal'
p4662
I110
sS'why'
p4663
I69
sS"cardellio's"
p4664
I110
sS'mainy'
p4665
I110
sS'cellphone'
p4666
I110
sS"lil'"
p4667
I110
sS'heart?was'
p4668
I110
sS'diclemente'
p4669
I110
sS'plasticity'
p4670
I110
sS'cleats'
p4671
I110
sS'breh'
p4672
I110
sS'visiting'
p4673
I110
sS'stronger'
p4674
I110
sS'thanksgiving'
p4675
I109
sS'face'
p4676
I101
sS'looked'
p4677
I108
sS'pure'
p4678
I110
sS"you'll"
p4679
I106
sS'dawgs'
p4680
I109
sS"jules'"
p4681
I110
sS'pictures'
p4682
I107
sS'early?me'
p4683
I110
sS'skinny'
p4684
I108
sS'fact'
p4685
I107
sS'ho'
p4686
I110
sS'mmmmmmmm'
p4687
I110
sS'sells'
p4688
I109
sS'drive-through'
p4689
I110
sS'selection'
p4690
I110
sS'hoodies'
p4691
I110
sS'survived'
p4692
I110
sS'wheeee'
p4693
I110
sS'text'
p4694
I97
sS'rub'
p4695
I110
sS'bum'
p4696
I110
sS'assholes'
p4697
I109
sS'connect'
p4698
I110
sS'bring'
p4699
I107
sS'chokes'
p4700
I110
sS'lmao\xe2\x80\x9d'
p4701
I110
sS"90's"
p4702
I110
sS'w/his'
p4703
I110
sS'healthcare'
p4704
I110
sS'soldiers'
p4705
I110
sS'chicken'
p4706
I107
sS'longer'
p4707
I110
sS'yolky'
p4708
I110
sS'staff'
p4709
I109
sS'ayee'
p4710
I109
sS'narrates'
p4711
I110
sS'inspiring'
p4712
I110
sS'ha'
p4713
I108
sS'based'
p4714
I109
sS'november\xee\x90\x8b\xee\x81\x98'
p4715
I110
sS'tire'
p4716
I109
sS'jay'
p4717
I109
sS'=]'
p4718
I110
sS'('
p4719
I107
sS'frappes'
p4720
I110
sS'rilly'
p4721
I110
sS'woo'
p4722
I110
sS'incident'
p4723
I110
sS'should'
p4724
I79
sS'eeeeh'
p4725
I110
sS"there's"
p4726
I98
sS"anyone's"
p4727
I110
sS'versatile'
p4728
I110
sS'subway)'
p4729
I110
sS'fuel'
p4730
I109
sS'riding'
p4731
I109
sS'wrong.\xe2\x80\x9d'
p4732
I110
sS'local'
p4733
I109
sS'hope'
p4734
I88
sS'melissa'
p4735
I110
sS'meant'
p4736
I110
sS'doubting'
p4737
I110
sS'insight'
p4738
I107
sS'handle'
p4739
I108
sS'listened'
p4740
I110
sS'watching'
p4741
I98
sS'beat'
p4742
I106
sS'grey'
p4743
I110
sS'dope'
p4744
I107
sS'[2]'
p4745
I110
sS'coworker'
p4746
I108
sS'lucky'
p4747
I109
sS'accrue'
p4748
I110
sS'b-2'
p4749
I110
sS'tbh'
p4750
I108
sS'bean'
p4751
I108
sS'ones'
p4752
I105
sS'allegiant'
p4753
I110
sS'words'
p4754
I107
sS'werent'
p4755
I110
sS'boys!willem'
p4756
I110
sS'scrolling'
p4757
I110
sS'routine'
p4758
I110
sS'tatsu'
p4759
I110
sS'finical'
p4760
I110
sS'worthor'
p4761
I110
sS'smash'
p4762
I110
sS'$66'
p4763
I110
sS'qt'
p4764
I110
sS'trucks'
p4765
I110
sS'brain'
p4766
I109
sS'wearin'
p4767
I110
sS'finds'
p4768
I110
sS'married'
p4769
I109
sS'mojito'
p4770
I110
sS'calling'
p4771
I110
sS'comics'
p4772
I110
sS'dome'
p4773
I110
sS'stuff'
p4774
I100
sS'yours\xe2\x80\xa6'
p4775
I110
sS'she'
p4776
I54
sS'favorites>'
p4777
I110
sS'knicks'
p4778
I110
sS'grab'
p4779
I110
sS'fixed'
p4780
I110
sS'slush'
p4781
I110
sS'24hrs'
p4782
I110
sS'preach'
p4783
I109
sS'"duck'
p4784
I109
sS'guessing'
p4785
I109
sS'btw'
p4786
I109
sS'(palmdale'
p4787
I14
sS'exists'
p4788
I110
sS'prayers'
p4789
I108
sS'a.v'
p4790
I110
sS'appliance'
p4791
I110
sS'national'
p4792
I110
sS'salmon'
p4793
I110
sS'lazy'
p4794
I109
sS'hayle'
p4795
I108
sS'freeze'
p4796
I110
sS'widow'
p4797
I110
sS'travis'
p4798
I110
sS'oomf'
p4799
I102
sS'powder'
p4800
I110
sS'desperate'
p4801
I110
sS'skateboarding'
p4802
I109
sS'confrontational'
p4803
I110
sS'terms'
p4804
I110
sS'earler'
p4805
I110
sS'gahd'
p4806
I109
sS'battery'
p4807
I108
sS'closer'
p4808
I108
sS'blunts'
p4809
I110
sS'interview'
p4810
I110
sS'stats'
p4811
I110
sS'playay'
p4812
I110
sS'adriane'
p4813
I110
sS'glasses'
p4814
I110
sS'joys'
p4815
I110
sS'missing'
p4816
I109
sS'windex'
p4817
I110
sS'becoming'
p4818
I110
sS'state'
p4819
I108
sS'dms'
p4820
I110
sS'molla'
p4821
I110
sS'private.,93551\n502298181565022208,dubbcoop,2014-08-21'
p4822
I110
sS'closed'
p4823
I109
sS'smelled'
p4824
I110
sS'spare'
p4825
I110
sS'progress'
p4826
I109
sS'outsiders'
p4827
I109
sS'bought'
p4828
I107
sS'glen'
p4829
I109
sS'ends'
p4830
I110
sS'realized*'
p4831
I110
sS'trynna'
p4832
I110
sS'amen'
p4833
I109
sS'importance'
p4834
I110
sS'joy'
p4835
I109
sS'court'
p4836
I110
sS'iphones.\xee\x81\x97'
p4837
I110
sS'cair'
p4838
I110
sS'vitamin'
p4839
I110
sS'the\xe2\x80\xa6'
p4840
I109
sS'job'
p4841
I103
sS'aayyeee'
p4842
I110
sS'key'
p4843
I110
sS'5%:('
p4844
I110
sS'keely'
p4845
I110
sS'precious'
p4846
I110
sS'swift'
p4847
I110
sS'jon'
p4848
I109
sS'david'
p4849
I110
sS'drum'
p4850
I110
sS'limits'
p4851
I110
sS'joke'
p4852
I109
sS'taking'
p4853
I99
sS'equal'
p4854
I110
sS'minds'
p4855
I110
sS'rams'
p4856
I110
sS'beautyful'
p4857
I110
sS'april'
p4858
I110
sS'figures'
p4859
I110
sS'atleast'
p4860
I109
sS'out.\xe2\x80\x9d'
p4861
I110
sS'tight!\xe2\x80\x9d'
p4862
I110
sS'swim'
p4863
I110
sS'brony'
p4864
I110
sS'passing'
p4865
I109
sS'highland'
p4866
I108
sS'safely'
p4867
I110
sS'retweets'
p4868
I109
sS'jersey'
p4869
I109
sS'zeke'
p4870
I110
sS'swaggy'
p4871
I110
sS'notebooks'
p4872
I110
sS'wala'
p4873
I110
sS'om'
p4874
I110
sS'wall'
p4875
I108
sS'tuesday'
p4876
I107
sS'sissy'
p4877
I110
sS'ac'
p4878
I110
sS'lovers'
p4879
I110
sS'walk'
p4880
I110
sS'sushhiiiii\xee\x84\x86\xee\x84\x86'
p4881
I110
sS'genre'
p4882
I110
sS'like\xe2\x80\x9d'
p4883
I110
sS'math'
p4884
I110
sS'laugh'
p4885
I105
sS'news'
p4886
I110
sS'respect'
p4887
I102
sS'[pic]'
p4888
I99
sS'rent-a-car)'
p4889
I110
sS'muniature'
p4890
I110
sS'gona'
p4891
I110
sS'quit'
p4892
I108
sS'1997'
p4893
I110
sS'yay'
p4894
I108
sS'jam'
p4895
I110
sS'cavities'
p4896
I110
sS'door-to-door'
p4897
I110
sS"it's"
p4898
I40
sS'(39438'
p4899
I110
sS"'bux'"
p4900
I110
sS'expressed'
p4901
I110
sS'shame'
p4902
I110
sS'us/ger'
p4903
I110
sS'drank'
p4904
I110
sS'treat'
p4905
I109
sS'bby'
p4906
I110
sS'dumbass'
p4907
I110
sS'ship'
p4908
I110
sS'pack'
p4909
I110
sS'waste'
p4910
I107
sS'lamig'
p4911
I110
sS'bbq'
p4912
I108
sS'>'
p4913
I109
sS'hernandez'
p4914
I110
sS'trouble?nick'
p4915
I110
sS'wanna'
p4916
I88
sS'puberty'
p4917
I110
sS'pussy.\xe2\x80\x9d'
p4918
I110
sS'mcflurrys'
p4919
I110
sS'prospects'
p4920
I110
sS'finale'
p4921
I110
sS'aka'
p4922
I110
sS'2015'
p4923
I109
sS'finished'
p4924
I107
sS'accident'
p4925
I110
sS'kaso'
p4926
I110
sS'-.-'
p4927
I108
sS'already\xe2\x80\x9d'
p4928
I110
sS'bull'
p4929
I109
sS'smoking'
p4930
I110
sS'brunch'
p4931
I108
sS'present'
p4932
I109
sS"ya'll"
p4933
I110
sS'eyelashes'
p4934
I110
sS'bye'
p4935
I109
sS'laser'
p4936
I110
sS'unlike'
p4937
I110
sS'ap'
p4938
I110
sS"alice's"
p4939
I102
sS'vanilla'
p4940
I109
sS'nd'
p4941
I110
sS'beats'
p4942
I110
sS'duhhh'
p4943
I110
sS'will'
p4944
I64
sS'fiance'
p4945
I110
sS'gucci'
p4946
I110
sS'carole'
p4947
I110
sS'ramisb7'
p4948
I110
sS'hahaha'
p4949
I98
sS'promoted'
p4950
I110
sS'alivenow'
p4951
I110
sS'dykes'
p4952
I110
sS'~'
p4953
I109
sS'supply'
p4954
I110
sS'va'
p4955
I110
sS'stuffing'
p4956
I110
sS'mutant'
p4957
I110
sS'd.wade'
p4958
I110
sS'q.q'
p4959
I110
sS'les'
p4960
I110
sS'eastward'
p4961
I110
sS'almost'
p4962
I101
sS'walks'
p4963
I109
sS'surprisingly'
p4964
I110
sS'duhh'
p4965
I110
sS'adventures'
p4966
I110
sS'helped'
p4967
I109
sS'conditioning'
p4968
I110
sS'vs'
p4969
I109
sS'avi'
p4970
I110
sS'sizzler)'
p4971
I109
sS'ave'
p4972
I109
sS'wks'
p4973
I109
sS'sits'
p4974
I110
sS'musicals'
p4975
I110
sS'whore'
p4976
I109
sS'avc'
p4977
I110
sS'tattoo'
p4978
I110
sS'shooting'
p4979
I110
sS'added'
p4980
I110
sS'shiny'
p4981
I110
sS')'
p4982
I109
sS'funniest'
p4983
I110
sS'bishop'
p4984
I110
sS'member'
p4985
I110
sS'guards'
p4986
I110
sS'crying\xe2\x80\x9d'
p4987
I110
sS'parts'
p4988
I110
sS"flexin'"
p4989
I110
sS'tumbler'
p4990
I110
sS'oppan'
p4991
I110
sS'party'
p4992
I105
sS'inc'
p4993
I107
sS'twelfth'
p4994
I110
sS'brand'
p4995
I110
sS'yooo'
p4996
I110
sS'ball'
p4997
I106
sS'now\xe2\x9d\x84\xef\xb8\x8f'
p4998
I110
sS'again'
p4999
I90
sS"rolled'"
p5000
I110
sS'drink'
p5001
I94
sS'disagree'
p5002
I109
sS'fucker'
p5003
I109
sS'beast'
p5004
I109
sS'fucken'
p5005
I105
sS'introduce'
p5006
I110
sS'student'
p5007
I110
sS'fucked'
p5008
I99
sS'heather'
p5009
I110
sS'invitations'
p5010
I110
sS'identity'
p5011
I109
sS'pull'
p5012
I110
sS'sauce'
p5013
I110
sS'paycheck'
p5014
I110
sS'gutter'
p5015
I110
sS'off'
p5016
I66
sS'center'
p5017
I98
sS'i'
p5018
I1
sS'hey"'
p5019
I110
sS'well'
p5020
I89
sS'banging'
p5021
I110
sS'fighting'
p5022
I108
sS'piss'
p5023
I110
sS'thought'
p5024
I100
sS'"run'
p5025
I110
sS'knotts'
p5026
I110
sS'coo'
p5027
I110
sS'english'
p5028
I108
sS'comparisons'
p5029
I110
sS'muscle'
p5030
I108
sS'anytober'
p5031
I110
sS'drivers'
p5032
I110
sS'mom*her'
p5033
I110
sS'samsclub'
p5034
I110
sS'newest'
p5035
I109
sS'nicknames'
p5036
I110
sS'less'
p5037
I107
sS'moments'
p5038
I109
sS'diarrhea'
p5039
I110
sS"should've"
p5040
I107
sS'gr8'
p5041
I109
sS'liked'
p5042
I109
sS'only)'
p5043
I110
sS'dose'
p5044
I109
sS'cries'
p5045
I110
sS'batteries'
p5046
I109
sS'mistakes'
p5047
I110
sS'daquan'
p5048
I110
sS'\xee\x84\x86\xee\x80\x8e'
p5049
I110
sS'paul'
p5050
I105
sS'lauren'
p5051
I110
sS'happiness'
p5052
I109
sS'population'
p5053
I110
sS'cigarette'
p5054
I109
sS'bicycles'
p5055
I110
sS'foo'
p5056
I110
sS'bragging'
p5057
I109
sS'officially'
p5058
I110
sS'drive'
p5059
I82
sS'sky'
p5060
I106
sS'gum'
p5061
I110
sS'realize'
p5062
I109
sS'drew'
p5063
I109
sS'reasons'
p5064
I108
sS'add'
p5065
I109
sS'other'
p5066
I90
sS"block's"
p5067
I110
sS'wet'
p5068
I110
sS'twerk'
p5069
I109
sS'smart'
p5070
I105
sS'homework'
p5071
I107
sS'flow'
p5072
I110
sS'sonic'
p5073
I88
sS'clock"'
p5074
I110
sS'increased'
p5075
I110
sS'pero'
p5076
I110
sS'billi'
p5077
I110
sS'checking'
p5078
I108
sS'chancellor'
p5079
I110
sS"who's"
p5080
I104
sS'thicker'
p5081
I110
sS'hiatus'
p5082
I110
sS'touch\xc3\xa9'
p5083
I110
sS'five'
p5084
I109
sS'whatever'
p5085
I107
sS'bottoms'
p5086
I110
sS'immediately'
p5087
I109
sS'nvm'
p5088
I110
sS'airso'
p5089
I110
sS'bullets'
p5090
I110
sS'attila'
p5091
I110
sS',93551\n448880550560817152,shewantsshakur,2014-03-26'
p5092
I110
sS'ahahhhahahhahahahah'
p5093
I110
sS'showing'
p5094
I110
sS'like'
p5095
I24
sS'success'
p5096
I107
sS'kitties'
p5097
I110
sS'spanish*'
p5098
I110
sS'candy'
p5099
I110
sS'exhausted'
p5100
I110
sS'kristina'
p5101
I110
sS'hosts'
p5102
I110
sS'arry'
p5103
I110
sS'fianc\xc3\xa9'
p5104
I110
sS'lose'
p5105
I110
sS'\xee\x90\x83\xee\x90\x83\xee\x84\x88\xee\x84\x88\xee\x81\x98'
p5106
I110
sS'become'
p5107
I109
sS'works'
p5108
I109
sS'audible'
p5109
I110
sS'italian'
p5110
I107
sS'floodgates'
p5111
I110
sS'nigga'
p5112
I84
sS'classical'
p5113
I110
sS'lurking'
p5114
I110
sS'\xe2\x98\xba\xef\xb8\x8f\xe2\x98\xba\xef\xb8\x8f\xe2\x98\xba\xef\xb8\x8f\xe2\x98\xba\xef\xb8\x8f\xe2\x98\xba\xef\xb8\x8f'
p5115
I110
sS"'gather"
p5116
I110
sS'twitter'
p5117
I103
sS'thief'
p5118
I110
sS'alive'
p5119
I108
sS'hair'
p5120
I92
sS'yaaa'
p5121
I110
sS'emotions'
p5122
I110
sS'boy\xe2\x9d\xa4\xef\xb8\x8f'
p5123
I110
sS'shes'
p5124
I109
sS"why'd"
p5125
I110
sS'dermatology'
p5126
I77
sS'home'
p5127
I69
sS'liking'
p5128
I110
sS'24.3'
p5129
I110
sS'mulligans)'
p5130
I110
sS'shakira'
p5131
I110
sS'happens'
p5132
I109
sS'"what'
p5133
I110
sS'hatin'
p5134
I110
sS'problem.we'
p5135
I110
sS'competitor'
p5136
I110
sS"youi'll"
p5137
I110
sS'lead'
p5138
I109
sS"gettin'"
p5139
I109
sS'literally'
p5140
I103
sS'lean'
p5141
I105
sS'fedex'
p5142
I108
sS'sharain'
p5143
I110
sS'does'
p5144
I99
sS'wendy'
p5145
I109
sS'screwed'
p5146
I110
sS'bosses'
p5147
I109
sS'da'
p5148
I110
sS'leader'
p5149
I109
sS'unchain'
p5150
I110
sS'duh'
p5151
I110
sS'pepper'
p5152
I109
sS'blowing'
p5153
I109
sS'sidetracked'
p5154
I110
sS'schedule'
p5155
I110
sS'crackheads'
p5156
I110
sS'....and'
p5157
I110
sS'stix-palmdale'
p5158
I110
sS'x10'
p5159
I110
sS'switched'
p5160
I110
sS'devil'
p5161
I110
sS'thanks\xe2\x98\xba\xef\xb8\x8f'
p5162
I110
sS'pasta'
p5163
I110
sS'sandwiches'
p5164
I110
sS"'you"
p5165
I110
sS'annabelle'
p5166
I110
sS'watchinng'
p5167
I110
sS'olds)'
p5168
I110
sS'now)'
p5169
I110
sS'ndi'
p5170
I110
sS'waving'
p5171
I110
sS'sister'
p5172
I103
sS'summer\xe2\x80\x9d'
p5173
I110
sS'emails'
p5174
I110
sS'justin'
p5175
I109
sS'sorry"'
p5176
I110
sS'getting'
p5177
I71
sS'freedom'
p5178
I109
sS"donald's"
p5179
I110
sS'tswift'
p5180
I110
sS'iknow'
p5181
I109
sS'nightclub'
p5182
I110
sS'angeles'
p5183
I109
sS'swear'
p5184
I107
sS'sweat'
p5185
I110
sS'keen-toe'
p5186
I110
sS'saddens'
p5187
I110
sS'ti'
p5188
I110
sS'oct.3rd-wednesday'
p5189
I110
sS'commons'
p5190
I110
sS'dub'
p5191
I109
sS'iknoe'
p5192
I110
sS'turtle'
p5193
I110
sS'own'
p5194
I100
sS'fresh'
p5195
I96
sS'pussy'
p5196
I108
sS'keef'
p5197
I110
sS'errands'
p5198
I108
sS'potential'
p5199
I110
sS'socks'
p5200
I109
sS"globei'd"
p5201
I110
sS'screamed'
p5202
I110
sS'chris'
p5203
I110
sS'anniversary'
p5204
I110
sS'weather'
p5205
I108
sS'promise'
p5206
I109
sS'brush'
p5207
I110
sS'female'
p5208
I110
sS'artists'
p5209
I110
sS'baskin'
p5210
I110
sS'pointless'
p5211
I109
sS'lmaooooo'
p5212
I110
sS'-dodgers'
p5213
I110
sS'wack'
p5214
I110
sS'macisso'
p5215
I110
sS'platoon'
p5216
I110
sS'responding'
p5217
I110
sS'at&t'
p5218
I110
sS'*'
p5219
I109
sS'limit'
p5220
I110
sS'noticed'
p5221
I110
sS'12/04/09'
p5222
I110
sS'overtime'
p5223
I110
sS'yorkshire1'
p5224
I110
sS'bees'
p5225
I110
sS'jo2therge'
p5226
I110
sS"will've"
p5227
I110
sS'immune'
p5228
I110
sS'gotze'
p5229
I110
sS'goin'
p5230
I110
sS'fuuuud'
p5231
I110
sS'toothpaste'
p5232
I110
sS'knife\xe2\x80\x9d'
p5233
I110
sS'quinto'
p5234
I110
sS'disorder'
p5235
I110
sS'buy'
p5236
I82
sS"i've"
p5237
I84
sS'fasho'
p5238
I108
sS'bus'
p5239
I108
sS'coke'
p5240
I108
sS'bitches'
p5241
I99
sS'guiltyyyyyyy'
p5242
I110
sS'hw'
p5243
I106
sS'but'
p5244
I31
sS'hated'
p5245
I110
sS'insured'
p5246
I110
sS'hi'
p5247
I102
sS'contradictory'
p5248
I110
sS'goals'
p5249
I110
sS'courts'
p5250
I110
sS'larger'
p5251
I110
sS'other..,93551\n502298780163534848,dubbcoop,2014-08-21'
p5252
I110
sS'ear'
p5253
I108
sS'eat'
p5254
I88
sS'bud'
p5255
I110
sS'he'
p5256
I67
sS'count'
p5257
I110
sS'made'
p5258
I96
sS'2gether'
p5259
I110
sS'places'
p5260
I109
sS'hahahahabha'
p5261
I110
sS'whether'
p5262
I107
sS'wish'
p5263
I95
sS'j'
p5264
I110
sS'flip'
p5265
I110
sS'birthdate'
p5266
I110
sS'competition\xe2\x80\xa6'
p5267
I110
sS'karts'
p5268
I110
sS'below'
p5269
I110
sS'convince'
p5270
I109
sS'nuu'
p5271
I110
sS'idol'
p5272
I110
sS'dmv'
p5273
I110
sS'cake'
p5274
I105
sS'instagram...while'
p5275
I110
sS'problem'
p5276
I106
sS'piece'
p5277
I108
sS'minutes'
p5278
I109
sS'3-5'
p5279
I110
sS'ughhh'
p5280
I110
sS'skating'
p5281
I108
sS'._|'
p5282
I110
sS'marketplace'
p5283
I84
sS'youngbull'
p5284
I110
sS'toilets'
p5285
I110
sS'pic'
p5286
I109
sS'kisses'
p5287
I109
sS'mcm'
p5288
I109
sS'erin'
p5289
I110
sS'upward'
p5290
I110
sS"nothing's"
p5291
I110
sS'is?"'
p5292
I110
sS'vines'
p5293
I110
sS'2001'
p5294
I110
sS'pits'
p5295
I110
sS'rhythm'
p5296
I110
sS'pit'
p5297
I110
sS'happen'
p5298
I109
sS'subject-"those'
p5299
I110
sS'jesse'
p5300
I108
sS"world'"
p5301
I110
sS'macchiato'
p5302
I110
sS'spell'
p5303
I110
sS'incredible'
p5304
I110
sS'dressed'
p5305
I110
sS'45'
p5306
I110
sS'42'
p5307
I110
sS'virtual'
p5308
I110
sS'lately'
p5309
I109
sS'deserved'
p5310
I110
sS'book'
p5311
I104
sS'compares'
p5312
I110
sS'boom'
p5313
I109
sS'sick'
p5314
I106
sS'er'
p5315
I110
sS'jamming'
p5316
I110
sS'dresses'
p5317
I110
sS'estatic'
p5318
I110
sS'stat'
p5319
I110
sS'sunshine'
p5320
I110
sS'kinds'
p5321
I108
sS'monday'
p5322
I109
sS'noahsk8r25'
p5323
I110
sS'class'
p5324
I104
sS'tumble'
p5325
I110
sS'bundle'
p5326
I110
sS'stay'
p5327
I98
sS'margaret'
p5328
I110
sS'chance'
p5329
I110
sS"dave's"
p5330
I110
sS'in)'
p5331
I109
sS'kinda'
p5332
I106
sS'numbing'
p5333
I110
sS'waffle'
p5334
I110
sS'jackson'
p5335
I110
sS'badass'
p5336
I110
sS'friends'
p5337
I86
sS'inspiration'
p5338
I110
sS'ghost'
p5339
I110
sS'jen'
p5340
I110
sS'coat'
p5341
I109
sS'\xe2\x80\x94'
p5342
I59
sS'batting'
p5343
I110
sS'samsung'
p5344
I109
sS'autumns'
p5345
I110
sS'nose'
p5346
I110
sS'lasted'
p5347
I110
sS'rule'
p5348
I110
sS'assassin'
p5349
I110
sS'treshawn'
p5350
I110
sS'portion'
p5351
I109
sS'craft'
p5352
I110
sS'tryout'
p5353
I110
sS'17:57:36.0,34.59617944,-118.14755486,9102.01,the'
p5354
I110
sS'understand'
p5355
I102
sS'yell'
p5356
I110
sS'baked'
p5357
I109
sS'frap'
p5358
I110
s.