(dp0
S''
p1
I2
sS'horrible'
p2
I35
sS'all'
p3
I26
sS':/'
p4
I23
sS':('
p5
I33
sS':)'
p6
I26
sS'11days'
p7
I35
sS'sleep'
p8
I32
sS'hanging'
p9
I34
sS'go'
p10
I25
sS'jason'
p11
I35
sS'hate'
p12
I29
sS'marching'
p13
I35
sS'cow'
p14
I35
sS'yummy'
p15
I35
sS'million'
p16
I35
sS'imma'
p17
I34
sS'tweet'
p18
I35
sS'\xe2\x98\xba\xef\xb8\x8f'
p19
I35
sS'acting'
p20
I35
sS'thursday'
p21
I34
sS'to'
p22
I4
sS'finally'
p23
I33
sS'asking'
p24
I34
sS'sorry'
p25
I35
sS'worth'
p26
I35
sS'me'
p27
I9
sS'nichole'
p28
I35
sS'garden'
p29
I35
sS'song'
p30
I35
sS':d'
p31
I20
sS'caught'
p32
I35
sS'every'
p33
I34
sS'jack'
p34
I35
sS'stays'
p35
I34
sS'telling'
p36
I35
sS'ap2)'
p37
I35
sS'drinking'
p38
I35
sS'screaming'
p39
I35
sS'cool'
p40
I34
sS'treating'
p41
I35
sS'school'
p42
I32
sS'bestfriend'
p43
I35
sS'did'
p44
I34
sS'turns'
p45
I35
sS'posts'
p46
I35
sS'ryan'
p47
I34
sS'leave'
p48
I34
sS':]'
p49
I34
sS'(pearblossom'
p50
I35
sS'quick'
p51
I34
sS'study'
p52
I35
sS'havent'
p53
I35
sS'dodger'
p54
I33
sS'deleting'
p55
I35
sS'clothes'
p56
I33
sS"i'll"
p57
I35
sS'stoppppp'
p58
I35
sS'talked'
p59
I35
sS'says'
p60
I35
sS'go."'
p61
I35
sS'tired'
p62
I30
sS'miller'
p63
I35
sS'streets'
p64
I35
sS'pubic'
p65
I35
sS'past'
p66
I34
sS'second'
p67
I34
sS'video'
p68
I34
sS'shirts'
p69
I33
sS'picked'
p70
I35
sS'pass'
p71
I35
sS'eating'
p72
I35
sS"eff'n"
p73
I35
sS'hopefully'
p74
I35
sS'even'
p75
I32
sS'what'
p76
I24
sS'poke'
p77
I35
sS'd."'
p78
I35
sS'sun'
p79
I35
sS'clocked'
p80
I35
sS'schedule'
p81
I35
sS'near'
p82
I35
sS'barhos'
p83
I35
sS'lights'
p84
I35
sS'bipolar'
p85
I35
sS'cuddle'
p86
I35
sS'suspect'
p87
I35
sS'goes'
p88
I35
sS'new'
p89
I30
sS'ever'
p90
I33
sS'told'
p91
I35
sS'body'
p92
I35
sS'toes'
p93
I35
sS'pancakes'
p94
I35
sS'grandparents'
p95
I35
sS'hairs'
p96
I35
sS'never'
p97
I31
sS'here'
p98
I32
sS'automatic'
p99
I35
sS'hours'
p100
I34
sS'\xe2\x9d\xa4\xef\xb8\x8f'
p101
I35
sS'packing'
p102
I35
sS'let'
p103
I33
sS'transmission?"'
p104
I35
sS'alone'
p105
I33
sS'slater'
p106
I35
sS'change'
p107
I34
sS'wait'
p108
I32
sS'dry'
p109
I35
sS'great'
p110
I34
sS'lol'
p111
I16
sS'healthy'
p112
I33
sS'homeless...again'
p113
I35
sS'31'
p114
I35
sS'changed'
p115
I34
sS'piercing'
p116
I35
sS'creepy'
p117
I35
sS'leaving'
p118
I34
sS'airport'
p119
I35
sS'ah'
p120
I35
sS'smoke'
p121
I35
sS'pick'
p122
I34
sS"i'm"
p123
I17
sS'pack'
p124
I35
sS'makes'
p125
I35
sS'sci'
p126
I35
sS'thats'
p127
I30
sS'motherfucking'
p128
I35
sS'*coma'
p129
I35
sS'love'
p130
I16
sS'family'
p131
I30
sS'win'
p132
I34
sS'ap4)'
p133
I35
sS'bro'
p134
I35
sS'ask'
p135
I35
sS'follower'
p136
I35
sS'toys'
p137
I35
sS'market'
p138
I34
sS'hotels'
p139
I35
sS'yourself'
p140
I34
sS'cheating'
p141
I35
sS'from'
p142
I30
sS'would'
p143
I29
sS'&'
p144
I33
sS'super'
p145
I34
sS'pooped'
p146
I35
sS'texting'
p147
I35
sS'two'
p148
I31
sS'next'
p149
I32
sS'few'
p150
I34
sS'ca)'
p151
I34
sS'call'
p152
I35
sS'6'
p153
I34
sS'means'
p154
I35
sS'today'
p155
I22
sS'more'
p156
I32
sS'cheescake'
p157
I35
sS'babe'
p158
I35
sS'pismo'
p159
I33
sS'holy'
p160
I35
sS'started'
p161
I33
sS'haha'
p162
I29
sS'about'
p163
I26
sS'phone'
p164
I32
sS"ain't"
p165
I35
sS'baby'
p166
I35
sS'sleeping'
p167
I35
sS'glad'
p168
I33
sS'must'
p169
I35
sS'shoot'
p170
I34
sS'out.lol'
p171
I35
sS'join'
p172
I35
sS'room'
p173
I32
sS'hour'
p174
I34
sS'this'
p175
I17
sS'car'
p176
I32
sS'ride'
p177
I35
sS'work'
p178
I27
sS'sucks'
p179
I32
sS'anywhere'
p180
I35
sS'del'
p181
I35
sS'can'
p182
I35
sS'starts'
p183
I35
sS'making'
p184
I33
sS'my'
p185
I3
sS'addictive'
p186
I35
sS'history'
p187
I35
sS'crazy'
p188
I31
sS'goooooooooooolllllllll'
p189
I35
sS'give'
p190
I34
sS'ringing'
p191
I35
sS'awesome'
p192
I35
sS'skype'
p193
I35
sS"didn't"
p194
I34
sS'fuck'
p195
I21
sS'high'
p196
I35
sS'kopi'
p197
I35
sS'chin'
p198
I34
sS'something'
p199
I35
sS'want'
p200
I34
sS'mmmmmm'
p201
I35
sS'needs'
p202
I35
sS'end'
p203
I34
sS'afi'
p204
I35
sS'awkward'
p205
I35
sS'eng'
p206
I35
sS'country'
p207
I35
sS'watching'
p208
I34
sS'ping'
p209
I35
sS'hyuck'
p210
I35
sS'1'
p211
I33
sS'how'
p212
I32
sS'sunday'
p213
I34
sS'chicks'
p214
I35
sS'fourth'
p215
I35
sS'hating'
p216
I35
sS'tangled'
p217
I35
sS'clink'
p218
I34
sS'pizza'
p219
I35
sS'profile'
p220
I35
sS'pre-gaming'
p221
I35
sS'staying'
p222
I35
sS'de'
p223
I35
sS'laundry'
p224
I35
sS'tried'
p225
I35
sS'rude'
p226
I35
sS'tattoo'
p227
I35
sS'after'
p228
I35
sS'spot'
p229
I35
sS'them'
p230
I35
sS'wrong'
p231
I35
sS'birthday'
p232
I30
sS'lay'
p233
I35
sS'coming'
p234
I33
sS'date'
p235
I33
sS'court'
p236
I35
sS'guys'
p237
I34
sS'man'
p238
I32
sS'a'
p239
I6
sS'stress'
p240
I35
sS'elusive'
p241
I35
sS'remember'
p242
I33
sS'save'
p243
I35
sS'maybe'
p244
I34
sS'goal'
p245
I35
sS'sit'
p246
I35
sS'st'
p247
I35
sS'so'
p248
I13
sS'block'
p249
I35
sS'things'
p250
I32
sS'fan'
p251
I35
sS'hates'
p252
I35
sS'pulled'
p253
I35
sS'playing'
p254
I30
sS"that's"
p255
I34
sS'cute'
p256
I33
sS'breaking'
p257
I35
sS"don't"
p258
I34
sS'over'
p259
I33
sS'fam'
p260
I34
sS'sooo'
p261
I34
sS'irriated'
p262
I35
sS'years'
p263
I35
sS'hiring'
p264
I35
sS'industrial'
p265
I35
sS'through'
p266
I34
sS'looks'
p267
I35
sS'hell'
p268
I34
sS'still'
p269
I33
sS'its'
p270
I26
sS'before'
p271
I31
sS'bummed'
p272
I35
sS'gta'
p273
I35
sS'yawning'
p274
I35
sS'thank'
p275
I35
sS'till'
p276
I31
sS'somewhere'
p277
I35
sS'amazing'
p278
I33
sS'better'
p279
I29
sS'bummer'
p280
I35
sS'pays'
p281
I35
sS'orange'
p282
I34
sS'asb1)'
p283
I35
sS'weeks'
p284
I34
sS'into'
p285
I35
sS"haven't"
p286
I33
sS'happened'
p287
I34
sS'then'
p288
I24
sS'cuss'
p289
I35
sS'good'
p290
I27
sS'env'
p291
I35
sS'ya'
p292
I31
sS'auto'
p293
I35
sS'break'
p294
I35
sS'band'
p295
I34
sS'snake'
p296
I35
sS'they'
p297
I31
sS'aldean'
p298
I35
sS'not'
p299
I27
sS'nov'
p300
I35
sS'now'
p301
I26
sS'ahaha'
p302
I35
sS'day'
p303
I22
sS'wont'
p304
I34
sS'way..no'
p305
I35
sS'giiiiiiiiibbbbbbbssssssoooooonnnnn'
p306
I35
sS'lies'
p307
I35
sS'sundays'
p308
I35
sS'always'
p309
I32
sS'ap3)'
p310
I35
sS'letting'
p311
I35
sS'found'
p312
I34
sS'photoshoot'
p313
I35
sS'side'
p314
I35
sS"isn't"
p315
I35
sS'mean'
p316
I34
sS'wheel'
p317
I35
sS'everyone'
p318
I31
sS'fired'
p319
I35
sS'doing'
p320
I35
sS'house'
p321
I30
sS'energy'
p322
I35
sS'idea'
p323
I34
sS'skank'
p324
I35
sS'insulation'
p325
I35
sS'begun'
p326
I35
sS'year'
p327
I35
sS's&f'
p328
I35
sS'our'
p329
I35
sS'girl'
p330
I33
sS'saturday'
p331
I32
sS'out'
p332
I23
sS'rt'
p333
I33
sS'living'
p334
I32
sS'rey'
p335
I35
sS'missed'
p336
I35
sS'since'
p337
I33
sS'seriously'
p338
I34
sS'got'
p339
I30
sS'rn'
p340
I35
sS'gov'
p341
I35
sS'correct'
p342
I35
sS'red'
p343
I35
sS'smart'
p344
I35
sS'ass'
p345
I33
sS'model'
p346
I35
sS'shut'
p347
I35
sS'dodgers'
p348
I35
sS'older'
p349
I35
sS'friday'
p350
I33
sS'boobs'
p351
I34
sS'little'
p352
I31
sS'houses'
p353
I35
sS'disneyland'
p354
I35
sS'grandma'
p355
I32
sS'put'
p356
I33
sS'ore'
p357
I35
sS'care'
p358
I35
sS'scary'
p359
I35
sS'training'
p360
I35
sS'ate'
p361
I35
sS'yup'
p362
I33
sS'could'
p363
I34
sS'days'
p364
I30
sS'times'
p365
I34
sS'thing'
p366
I34
sS'gosling'
p367
I35
sS'place'
p368
I35
sS"today's"
p369
I35
sS'guitarbass'
p370
I35
sS'think'
p371
I32
sS'first'
p372
I35
sS'emotion'
p373
I35
sS'already'
p374
I30
sS'dont'
p375
I35
sS'xl'
p376
I35
sS'feel'
p377
I26
sS'one'
p378
I28
sS'feet'
p379
I35
sS'hahahaha'
p380
I35
sS'done'
p381
I30
sS'bitch'
p382
I31
sS'another'
p383
I34
sS'such'
p384
I35
sS'owner'
p385
I35
sS'sounds'
p386
I35
sS'noticed'
p387
I35
sS'miss'
p388
I31
sS'tomorrow'
p389
I29
sS"'em"
p390
I35
sS'size'
p391
I35
sS"you're"
p392
I33
sS'guess'
p393
I34
sS'personalities'
p394
I35
sS'needed'
p395
I35
sS'5th'
p396
I35
sS'slept'
p397
I34
sS'girls'
p398
I35
sS'comfy'
p399
I35
sS"he'll"
p400
I35
sS'anyone'
p401
I32
sS'their'
p402
I35
sS'2'
p403
I30
sS'too'
p404
I29
sS'white'
p405
I35
sS'dogs'
p406
I35
sS'friend'
p407
I34
sS'headache'
p408
I34
sS'eyes'
p409
I35
sS'selling'
p410
I35
sS'way'
p411
I35
sS'relationship'
p412
I35
sS'that'
p413
I16
sS'season'
p414
I35
sS'park'
p415
I35
sS'drive?"'
p416
I35
sS'part'
p417
I35
sS'because'
p418
I35
sS'whores'
p419
I35
sS'july'
p420
I35
sS'copy'
p421
I35
sS'than'
p422
I35
sS'10'
p423
I34
sS'12'
p424
I34
sS'lmao'
p425
I33
sS'showed'
p426
I35
sS'gotta'
p427
I33
sS'thx'
p428
I35
sS'scenes'
p429
I35
sS'bed'
p430
I30
sS'merch'
p431
I35
sS'r'
p432
I35
sS'were'
p433
I34
sS'beard'
p434
I35
sS'anyways'
p435
I35
sS'and'
p436
I7
sS'san'
p437
I34
sS'wasnt'
p438
I35
sS'mine'
p439
I32
sS'sad'
p440
I35
sS'tonight'
p441
I33
sS'talking'
p442
I33
sS'say'
p443
I32
sS'have'
p444
I22
sS'cleaned'
p445
I35
sS'need'
p446
I25
sS'breakfast'
p447
I34
sS'mins'
p448
I34
sS'saw'
p449
I33
sS'4months'
p450
I35
sS'mia'
p451
I35
sS'studying'
p452
I35
sS'ap7)'
p453
I35
sS'lit'
p454
I34
sS'also'
p455
I34
sS'edge'
p456
I35
sS'i\xc2\xb4m'
p457
I35
sS'take'
p458
I34
sS'online'
p459
I35
sS'jail'
p460
I35
sS'(she'
p461
I35
sS'many'
p462
I35
sS'hell!!!\xe2\x80\x9d'
p463
I35
sS'play'
p464
I34
sS'towards'
p465
I35
sS'lightskin'
p466
I35
sS'though'
p467
I35
sS'bruce'
p468
I35
sS'"...k"'
p469
I35
sS'keeps'
p470
I35
sS'salmon'
p471
I35
sS'netflix'
p472
I35
sS'most'
p473
I35
sS'said'
p474
I35
sS'addict'
p475
I35
sS'sheets'
p476
I35
sS'sb'
p477
I35
sS'nothing'
p478
I35
sS'payment'
p479
I34
sS'sometimes'
p480
I34
sS'drive'
p481
I33
sS'face'
p482
I35
sS'aunt'
p483
I34
sS'clean'
p484
I33
sS'nuclear'
p485
I35
sS'grandpa'
p486
I35
sS'wow'
p487
I35
sS'ugh'
p488
I31
sS'\xe2\x9c\xa8'
p489
I35
sS'show'
p490
I33
sS'text'
p491
I35
sS'random'
p492
I34
sS'ahhh'
p493
I35
sS'bring'
p494
I35
sS'stfu'
p495
I35
sS'radio'
p496
I35
sS'in!......not'
p497
I35
sS'king'
p498
I35
sS'find'
p499
I31
sS':o'
p500
I35
sS'proposed'
p501
I35
sS'('
p502
I35
sS'fresno'
p503
I34
sS'state'
p504
I35
sS"won't"
p505
I35
sS'should'
p506
I33
sS'yea'
p507
I35
sS'only'
p508
I32
sS'going'
p509
I31
sS'black'
p510
I34
sS'pretty'
p511
I35
sS'money'
p512
I35
sS'8'
p513
I35
sS'oct'
p514
I35
sS"mom's"
p515
I35
sS'do'
p516
I24
sS'his'
p517
I34
sS'hit'
p518
I35
sS"mr.dlv's"
p519
I35
sS'get'
p520
I22
sS'honda'
p521
I35
sS'stop'
p522
I29
sS'lucky'
p523
I35
sS'tbh'
p524
I35
sS'feels'
p525
I33
sS'b'
p526
I34
sS'assface'
p527
I35
sS'trade'
p528
I35
sS'workouts'
p529
I35
sS'him'
p530
I30
sS'ghetto'
p531
I34
sS'blind)'
p532
I35
sS'lame'
p533
I35
sS'married'
p534
I35
sS'borrow'
p535
I35
sS'packed'
p536
I35
sS'morning'
p537
I32
sS'bag'
p538
I35
sS'bad'
p539
I26
sS'stupid'
p540
I33
sS'she'
p541
I32
sS'comma'
p542
I35
sS'fixed'
p543
I35
sS'where'
p544
I34
sS'roundhouse'
p545
I35
sS'concert'
p546
I35
sS'3days'
p547
I35
sS'liquor'
p548
I35
sS'orphan'
p549
I35
sS'lazy'
p550
I34
sS'see'
p551
I32
sS'gnome'
p552
I35
sS'college'
p553
I35
sS'are'
p554
I26
sS'omg'
p555
I35
sS'news'
p556
I35
sS'nocturnal'
p557
I33
sS'retweet'
p558
I35
sS'best'
p559
I34
sS'project'
p560
I35
sS'138'
p561
I34
sS'stats'
p562
I35
sS'waiting'
p563
I35
sS"water?!!'"
p564
I35
sS'movie'
p565
I35
sS'away'
p566
I33
sS'amen'
p567
I35
sS'please'
p568
I35
sS'r&b'
p569
I35
sS'3'
p570
I33
sS"there's"
p571
I35
sS'between'
p572
I35
sS'probably'
p573
I35
sS'0)'
p574
I35
sS'3day'
p575
I35
sS'blow'
p576
I35
sS'we'
p577
I30
sS'jobs'
p578
I34
sS'missing'
p579
I35
sS'kristal'
p580
I35
sS'guitar'
p581
I35
sS'job'
p582
I35
sS'coffee'
p583
I35
sS'gnomes'
p584
I35
sS'hurts'
p585
I35
sS'daleee'
p586
I35
sS'cousin'
p587
I31
sS'come'
p588
I32
sS'blasted'
p589
I35
sS'hahaha'
p590
I35
sS'brown'
p591
I35
sS'joke'
p592
I34
sS'ill'
p593
I34
sS"he's"
p594
I35
sS'quiet'
p595
I35
sS'drug'
p596
I35
sS'bandit'
p597
I32
sS'tour'
p598
I34
sS'games'
p599
I35
sS'8am'
p600
I35
sS'faces'
p601
I35
sS'reply'
p602
I35
sS'elves'
p603
I35
sS'whole'
p604
I34
sS"can't"
p605
I33
sS'withdraws'
p606
I35
sS'relevant'
p607
I35
sS'6:30'
p608
I35
sS'bell'
p609
I35
sS'color'
p610
I35
sS'sweet'
p611
I35
sS'pop'
p612
I35
sS'walk'
p613
I35
sS'directions'
p614
I35
sS'65'
p615
I35
sS'laugh'
p616
I34
sS'sexy'
p617
I35
sS'fucker'
p618
I35
sS"wouldn't"
p619
I34
sS'blonde'
p620
I35
sS'throughout'
p621
I35
sS'late'
p622
I34
sS'light'
p623
I35
sS'yay'
p624
I33
sS'woof'
p625
I35
sS'cares'
p626
I35
sS"it's"
p627
I27
sS'vacation'
p628
I35
sS'been'
p629
I32
sS'ran'
p630
I35
sS'beer'
p631
I35
sS'much'
p632
I26
sS'damn'
p633
I32
sS'treat'
p634
I35
sS'damm'
p635
I35
sS'sesh'
p636
I35
sS'lovely'
p637
I35
sS'okayy'
p638
I35
sS'bbq'
p639
I34
sS'wants'
p640
I33
sS'life'
p641
I31
sS'pic'
p642
I35
sS'shopping'
p643
I35
sS'gay'
p644
I34
sS'drugs'
p645
I35
sS'deadliest'
p646
I35
sS'homie'
p647
I35
sS'anthony'
p648
I35
sS'tweets'
p649
I35
sS'finished'
p650
I35
sS'awake'
p651
I35
sS'turn'
p652
I35
sS'gag'
p653
I35
sS'wedding'
p654
I35
sS'pig'
p655
I34
sS'those'
p656
I34
sS'chill'
p657
I35
sS'sound'
p658
I35
sS'dicks'
p659
I35
sS'look'
p660
I34
sS'these'
p661
I35
sS'plain'
p662
I35
sS'bill'
p663
I35
sS'cash'
p664
I35
sS'will'
p665
I30
sS'ugly'
p666
I35
sS'while'
p667
I34
sS'suppose'
p668
I35
sS'kick'
p669
I35
sS'shift'
p670
I35
sS'fun'
p671
I33
sS'pictures'
p672
I35
sS'35th'
p673
I35
sS'taking'
p674
I33
sS"cousin's"
p675
I35
sS'remembering'
p676
I35
sS'drunked'
p677
I35
sS'<3'
p678
I34
sS"t's"
p679
I35
sS'almost'
p680
I33
sS'violently'
p681
I35
sS'is'
p682
I11
sS'dumped'
p683
I34
sS'it'
p684
I12
sS'rip'
p685
I35
sS'ducks'
p686
I35
sS'cant'
p687
I29
sS'someone'
p688
I33
sS'im'
p689
I13
sS'in'
p690
I10
sS'bucks'
p691
I34
sS'bow'
p692
I35
sS'everyday'
p693
I35
sS'whore'
p694
I35
sS'if'
p695
I28
sS'funny'
p696
I33
sS'night..then'
p697
I35
sS'-___-'
p698
I32
sS')'
p699
I35
sS'pay'
p700
I34
sS'make'
p701
I32
sS'same'
p702
I35
sS'check'
p703
I35
sS'food'
p704
I35
sS'swift'
p705
I35
sS'bands'
p706
I35
sS'party'
p707
I35
sS'gets'
p708
I34
sS'killed'
p709
I35
sS'week'
p710
I34
sS'hopes'
p711
I35
sS'abandoned'
p712
I35
sS'buzz'
p713
I35
sS'evil'
p714
I34
sS'weed'
p715
I35
sS'kik'
p716
I35
sS'moment'
p717
I35
sS'fruit'
p718
I35
sS'fury'
p719
I35
sS'(palmdale'
p720
I35
sS'weird'
p721
I31
sS'single'
p722
I35
sS'kid'
p723
I34
sS'off'
p724
I31
sS'center'
p725
I35
sS'lunch'
p726
I35
sS'i'
p727
I1
sS'try'
p728
I34
sS'well'
p729
I33
sS'spent'
p730
I35
sS'tho'
p731
I35
sS'person'
p732
I35
sS'ap6)'
p733
I35
sS'without'
p734
I35
sS'oops'
p735
I35
sS'mother'
p736
I35
sS'very'
p737
I34
sS'gift'
p738
I35
sS'the'
p739
I5
sS'dads'
p740
I35
sS"you've"
p741
I35
sS'faggots'
p742
I35
sS'doughty'
p743
I35
sS'\xe2\x9d\xa4'
p744
I34
sS'just'
p745
I20
sS'being'
p746
I29
sS'when'
p747
I27
sS'kill'
p748
I35
sS'thanks'
p749
I35
sS'irritable'
p750
I35
sS'campbell'
p751
I35
sS'yes'
p752
I34
sS'october'
p753
I35
sS'yet'
p754
I35
sS'move'
p755
I35
sS'toffffiiiiiii'
p756
I35
sS'cus'
p757
I35
sS'stray'
p758
I35
sS'thinking'
p759
I35
sS'point'
p760
I35
sS'had'
p761
I35
sS'cuz'
p762
I32
sS'bullshit'
p763
I32
sS'9:30'
p764
I35
sS'4'
p765
I31
sS'has'
p766
I32
sS'excited'
p767
I33
sS'homework'
p768
I33
sS'real'
p769
I34
sS'bio'
p770
I35
sS'fucked'
p771
I35
sS'read'
p772
I35
sS'big'
p773
I34
sS'amd'
p774
I35
sS'gonna'
p775
I28
sS'early'
p776
I32
sS'shitty'
p777
I35
sS'game'
p778
I33
sS'5am'
p779
I34
sS'know'
p780
I34
sS'mom'
p781
I33
sS'judge'
p782
I35
sS'bit'
p783
I35
sS'asshole'
p784
I35
sS'd'
p785
I35
sS'like'
p786
I23
sS'-_-'
p787
I23
sS'53'
p788
I35
sS'tia'
p789
I35
sS'serious'
p790
I35
sS'night'
p791
I27
sS'bunch'
p792
I35
sS'chick'
p793
I34
sS'likes'
p794
I35
sS'nigga'
p795
I33
sS'old'
p796
I34
sS'people'
p797
I27
sS'fucking'
p798
I29
sS'twitter'
p799
I34
sS'some'
p800
I34
sS'back'
p801
I28
sS'dead'
p802
I34
sS'oh'
p803
I35
sS'hair'
p804
I32
sS'sure'
p805
I35
sS'palm'
p806
I35
sS'table'
p807
I35
sS'dear'
p808
I35
sS'home'
p809
I26
sS'liking'
p810
I35
sS'rules'
p811
I35
sS'humor'
p812
I35
sS'for'
p813
I9
sS'inkmaster'
p814
I35
sS'everything'
p815
I34
sS'does'
p816
I33
sS'liiiiiiife'
p817
I35
sS'portlandia'
p818
I35
sS'screwed'
p819
I35
sS'420'
p820
I35
sS'be'
p821
I21
sS'who'
p822
I35
sS'run'
p823
I35
sS'roofing'
p824
I35
sS'remembered'
p825
I35
sS'ap5)'
p826
I35
sS'lose'
p827
I35
sS'slut'
p828
I35
sS'burp'
p829
I35
sS'drums'
p830
I35
sS'eye'
p831
I35
sS'post'
p832
I33
sS'palmdale'
p833
I33
sS'by'
p834
I32
sS'on'
p835
I18
sS'sister'
p836
I34
sS':-)'
p837
I35
sS'ok'
p838
I35
sS'working'
p839
I34
sS'anything'
p840
I35
sS'getting'
p841
I27
sS'chinny'
p842
I35
sS'of'
p843
I20
sS'favorite'
p844
I35
sS'greater'
p845
I35
sS'hot'
p846
I35
sS'dinner'
p847
I35
sS'hired'
p848
I35
sS'plus'
p849
I35
sS'idk'
p850
I34
sS'stoked'
p851
I35
sS'puppies'
p852
I35
sS'luck'
p853
I35
sS'wanna'
p854
I28
sS'or'
p855
I30
sS'silence'
p856
I35
sS'plan'
p857
I35
sS'bath'
p858
I35
sS'seeing'
p859
I35
sS'h8'
p860
I35
sS'dude'
p861
I35
sS'ahh'
p862
I35
sS'within'
p863
I35
sS'lil'
p864
I35
sS'ppl'
p865
I35
sS'down'
p866
I33
sS'freaked'
p867
I35
sS'weather'
p868
I34
sS'parties'
p869
I35
sS'birthday\xe2\x99\xa5\xe2\x99\xa5\xe2\x99\xa5'
p870
I35
sS'shoots'
p871
I35
sS'springs'
p872
I35
sS'your'
p873
I19
sS'fast'
p874
I35
sS'span'
p875
I35
sS'her'
p876
I32
sS'anymore'
p877
I35
sS'spending'
p878
I35
sS'friends'
p879
I32
sS'there'
p880
I32
sS'live'
p881
I34
sS'long'
p882
I34
sS'why'
p883
I31
sS'start'
p884
I30
sS'cats'
p885
I35
sS"we're"
p886
I34
sS'lot'
p887
I35
sS'music'
p888
I35
sS'was'
p889
I33
sS'scared'
p890
I35
sS'happy'
p891
I32
sS'stopping'
p892
I35
sS'head'
p893
I35
sS'buy'
p894
I34
sS'north'
p895
I35
sS"burnin'"
p896
I35
sS"i've"
p897
I32
sS'$200'
p898
I35
sS'basic'
p899
I35
sS'hw'
p900
I35
sS'but'
p901
I21
sS'yeah'
p902
I35
sS'hi'
p903
I35
sS'boyz'
p904
I35
sS'trying'
p905
I31
sS'with'
p906
I14
sS'eat'
p907
I35
sS'peepee'
p908
I35
sS'he'
p909
I28
sS'*out'
p910
I35
sS'made'
p911
I32
sS'applying'
p912
I35
sS"wasn't"
p913
I35
sS'wish'
p914
I32
sS'up'
p915
I15
sS'us'
p916
I35
sS'woke'
p917
I34
sS'loving'
p918
I35
sS'called'
p919
I33
sS'fans'
p920
I35
sS'exhausted'
p921
I33
sS'toss'
p922
I35
sS';d'
p923
I35
sS'am'
p924
I32
sS'an'
p925
I31
sS'as'
p926
I30
sS'right'
p927
I33
sS'at'
p928
I19
sS'aw'
p929
I35
sS'av'
p930
I35
sS'girlfriend'
p931
I35
sS'mck'
p932
I35
sS'moves'
p933
I35
sS'obessed'
p934
I35
sS'shit'
p935
I29
sS'again'
p936
I29
sS'stumbled'
p937
I35
sS'aunts'
p938
I34
sS'no'
p939
I26
sS'deserve'
p940
I34
sS'......to'
p941
I35
sS'"does'
p942
I34
sS'til'
p943
I35
sS'club'
p944
I35
sS'nap'
p945
I32
sS'other'
p946
I35
sS'sick'
p947
I32
sS'you'
p948
I8
sS'really'
p949
I29
sS'roll'
p950
I35
sS'nice'
p951
I35
sS'poor'
p952
I34
sS'francisco'
p953
I34
sS'la'
p954
I35
sS'football'
p955
I34
sS'stay'
p956
I35
sS'helping'
p957
I34
sS'kinda'
p958
I34
sS'hwy'
p959
I35
sS'weekend'
p960
I33
sS'finals'
p961
I35
sS'died'
p962
I35
sS'ago'
p963
I34
sS'texted'
p964
I35
sS'lana'
p965
I35
sS'moved'
p966
I35
sS'dog'
p967
I31
sS'together'
p968
I34
sS'heath'
p969
I35
sS'u'
p970
I33
sS'drank'
p971
I35
sS'coffee='
p972
I35
sS'time'
p973
I31
sS"she's"
p974
I34
sS'yell'
p975
I35
sS'starting'
p976
I33
sS'having'
p977
I34
sS'once'
p978
I34
s.