(dp0
S''
p1
I1
sS'all'
p2
I19
sS'go'
p3
I18
sS'vietnamese'
p4
I23
sS'tv'
p5
I23
sS'lining'
p6
I23
sS'tweet'
p7
I23
sS'hunger'
p8
I23
sS'to'
p9
I3
sS'asking'
p10
I23
sS'smile'
p11
I23
sS'garden'
p12
I23
sS'hahahahahahaha'
p13
I23
sS'every'
p14
I22
sS'cook'
p15
I23
sS'did'
p16
I21
sS'forgets'
p17
I23
sS'try'
p18
I23
sS'soooo'
p19
I22
sS'quick'
p20
I22
sS'guy'
p21
I22
sS'clothes'
p22
I23
sS'work'
p23
I20
sS'suess'
p24
I23
sS'bacon'
p25
I23
sS'translating'
p26
I23
sS'chicken'
p27
I23
sS'even'
p28
I19
sS'what'
p29
I18
sS'chicago'
p30
I23
sS'\xe2\x98\x9d\xef\xb8\x8f\xe2\x98\x9d\xef\xb8\x8f\xe2\x98\x9d\xef\xb8\x8f\xe2\x98\x9d\xef\xb8\x8f'
p31
I23
sS'hahahahahahahahaha'
p32
I23
sS'near'
p33
I23
sS'goes'
p34
I23
sS'reply'
p35
I22
sS'net'
p36
I23
sS'ever'
p37
I22
sS'ahhhhh'
p38
I23
sS'disney'
p39
I22
sS'22:59:18'
p40
I23
sS'mamas'
p41
I23
sS'christian'
p42
I23
sS'chose'
p43
I23
sS'jokkkkkee'
p44
I23
sS'never'
p45
I22
sS'drew'
p46
I21
sS'hours'
p47
I23
sS'\xe2\x9d\xa4\xef\xb8\x8f'
p48
I22
sS'meet'
p49
I23
sS"aren't"
p50
I22
sS'earthquake'
p51
I21
sS'change'
p52
I23
sS'boy'
p53
I23
sS'great'
p54
I21
sS'my'
p55
I6
sS'study'
p56
I23
sS'shades'
p57
I23
sS'finnish'
p58
I23
sS'reports'
p59
I23
sS'fuk'
p60
I23
sS"i'm"
p61
I7
sS'love'
p62
I17
sS'win'
p63
I23
sS'semester'
p64
I23
sS'"i\'ve'
p65
I23
sS'use'
p66
I23
sS'hahahahaha'
p67
I22
sS'from'
p68
I18
sS'would'
p69
I22
sS'&'
p70
I22
sS'watering'
p71
I22
sS'two'
p72
I23
sS'next'
p73
I23
sS'camera'
p74
I21
sS'6'
p75
I23
sS'today'
p76
I19
sS'more'
p77
I22
sS'knows'
p78
I23
sS'started'
p79
I23
sS'mad'
p80
I23
sS'occurred'
p81
I21
sS'phone'
p82
I23
sS'drown'
p83
I23
sS"ain't"
p84
I22
sS'broke'
p85
I23
sS'hold'
p86
I22
sS'glad'
p87
I22
sS'me'
p88
I12
sS'word'
p89
I23
sS'this'
p90
I12
sS'pretend'
p91
I23
sS'mi'
p92
I21
sS'dew'
p93
I23
sS'can'
p94
I19
sS'den'
p95
I23
sS'growing'
p96
I23
sS'making'
p97
I23
sS'didnt'
p98
I23
sS'beautiful'
p99
I22
sS'heart'
p100
I23
sS'-07:00'
p101
I23
sS"didn't"
p102
I22
sS'fuck'
p103
I23
sS'accept'
p104
I23
sS'states'
p105
I22
sS'want'
p106
I23
sS'wonderful'
p107
I23
sS'"this'
p108
I23
sS'onions'
p109
I23
sS'worse'
p110
I23
sS'united'
p111
I22
sS'ene'
p112
I22
sS'knowsmaybe'
p113
I23
sS'turn'
p114
I23
sS'watching'
p115
I23
sS'1'
p116
I22
sS'how'
p117
I17
sS'sunday'
p118
I23
sS'pair'
p119
I23
sS'pure'
p120
I23
sS'godparents'
p121
I23
sS'9/29/14'
p122
I23
sS'beach'
p123
I23
sS'pizza'
p124
I22
sS'map'
p125
I21
sS'me..well'
p126
I23
sS'okay'
p127
I22
sS'rude'
p128
I23
sS'bday'
p129
I23
sS'[usgs]'
p130
I23
sS'waters'
p131
I23
sS'after'
p132
I23
sS'adventure'
p133
I23
sS'such'
p134
I23
sS'gtfu'
p135
I23
sS'goal'
p136
I23
sS'a'
p137
I4
sS'realized'
p138
I23
sS'tbh'
p139
I23
sS'bing'
p140
I23
sS'sit'
p141
I23
sS'so'
p142
I7
sS'offend'
p143
I23
sS'fan'
p144
I23
sS"that's"
p145
I21
sS'"in'
p146
I23
sS'cute'
p147
I23
sS"don't"
p148
I19
sS'over'
p149
I23
sS'move'
p150
I23
sS"won't"
p151
I22
sS'pitch'
p152
I23
sS'hell'
p153
I22
sS'still'
p154
I22
sS'its'
p155
I23
sS'before'
p156
I23
sS'perfect'
p157
I23
sS'0.62mi'
p158
I22
sS'thank'
p159
I20
sS"he's"
p160
I19
sS'smoothie'
p161
I23
sS'hot'
p162
I23
sS'actually'
p163
I23
sS'better'
p164
I23
sS'bye'
p165
I23
sS'might'
p166
I23
sS'mommy'
p167
I23
sS"haven't"
p168
I23
sS'then'
p169
I22
sS'them'
p170
I23
sS'good'
p171
I19
sS'ya'
p172
I23
sS'conversations'
p173
I23
sS'safe'
p174
I23
sS'dat'
p175
I22
sS'hahahahahaha'
p176
I23
sS'\xe2\x98\xba\xef\xb8\x8f'
p177
I22
sS'not'
p178
I16
sS'now'
p179
I22
sS'day'
p180
I19
sS'usgs'
p181
I23
sS'nfg'
p182
I23
sS'name'
p183
I23
sS'lies'
p184
I23
sS'always'
p185
I20
sS'nauseous'
p186
I23
sS'3.11mi'
p187
I23
sS'someone'
p188
I22
sS'magnitude'
p189
I18
sS'trap'
p190
I23
sS'went'
p191
I21
sS'house"'
p192
I23
sS'doing'
p193
I23
sS'series'
p194
I23
sS'our'
p195
I21
sS'happen'
p196
I21
sS'out'
p197
I20
sS'epicen'
p198
I23
sS'by'
p199
I23
sS'3rd'
p200
I23
sS'actor'
p201
I23
sS'god'
p202
I22
sS'since'
p203
I23
sS'thirst'
p204
I23
sS'looking'
p205
I22
sS'mess'
p206
I23
sS'7'
p207
I22
sS'1.73'
p208
I23
sS'got'
p209
I19
sS'cause'
p210
I23
sS'independence'
p211
I23
sS'ass'
p212
I23
sS'dodgers'
p213
I23
sS'jessica'
p214
I23
sS'reason'
p215
I23
sS'california'
p216
I19
sS'imagine'
p217
I23
sS'care'
p218
I23
sS'dammit'
p219
I23
sS'could'
p220
I22
sS'skateboard'
p221
I23
sS'keep'
p222
I22
sS'thing'
p223
I22
sS'3km'
p224
I23
sS'chills'
p225
I23
sS'think'
p226
I22
sS'silver'
p227
I23
sS'first'
p228
I21
sS'emotion'
p229
I23
sS'cheese'
p230
I23
sS'major'
p231
I23
sS'already'
p232
I23
sS'feel'
p233
I20
sS'reassure'
p234
I23
sS'one'
p235
I18
sS'done'
p236
I22
sS'long'
p237
I23
sS'unattainable'
p238
I23
sS'clarity'
p239
I23
sS'miss'
p240
I23
sS'tomorrow'
p241
I23
sS'millions'
p242
I23
sS"you're"
p243
I19
sS'little'
p244
I21
sS'basketball'
p245
I23
sS"there's"
p246
I23
sS'overtime'
p247
I23
sS'girls'
p248
I23
sS'anyone'
p249
I22
sS'throwing'
p250
I23
sS'2'
p251
I22
sS'too'
p252
I22
sS'messing'
p253
I23
sS'eyes'
p254
I22
sS'way'
p255
I21
sS'that'
p256
I13
sS'gym'
p257
I23
sS'exactly'
p258
I23
sS'took'
p259
I23
sS'i-g-g-y'
p260
I23
sS'seat'
p261
I23
sS'boyfriend'
p262
I23
sS'grocery'
p263
I23
sS'ew'
p264
I23
sS'double'
p265
I23
sS'grey'
p266
I23
sS'hahahahahahahaha'
p267
I23
sS'were'
p268
I23
sS'sister'
p269
I23
sS'feeling'
p270
I21
sS'and'
p271
I8
sS'goooooaaalllll'
p272
I23
sS':((('
p273
I23
sS'1.7'
p274
I22
sS'1.1'
p275
I23
sS'mind'
p276
I23
sS'sad'
p277
I22
sS'tonight'
p278
I20
sS'talking'
p279
I23
sS'say'
p280
I22
sS'boyyyy'
p281
I23
sS'have'
p282
I18
sS'need'
p283
I23
sS'seen'
p284
I23
sS'saw'
p285
I23
sS'mmmmmff'
p286
I23
sS'regretting'
p287
I23
sS'studying'
p288
I21
sS'able'
p289
I23
sS'without'
p290
I23
sS'take'
p291
I23
sS'green'
p292
I23
sS'pocono'
p293
I23
sS'play'
p294
I22
sS'"fuckboy"'
p295
I23
sS'though'
p296
I23
sS'cheesecake'
p297
I23
sS'who'
p298
I20
sS"where's"
p299
I23
sS'most'
p300
I23
sS'said'
p301
I23
sS'awh'
p302
I22
sS'nothing'
p303
I22
sS'why'
p304
I20
sS'won\xe2\x80\x99t'
p305
I23
sS'alarm'
p306
I23
sS'proud'
p307
I23
sS'm'
p308
I23
sS'drive'
p309
I23
sS'looked'
p310
I22
sS'93550'
p311
I23
sS'15:14:42'
p312
I23
sS'uncle'
p313
I23
sS'ky'
p314
I22
sS'ommmmmmg'
p315
I23
sS'lying'
p316
I23
sS'stalked'
p317
I23
sS'ugh'
p318
I23
sS'hyperventalating'
p319
I23
sS'gold'
p320
I23
sS'show'
p321
I23
sS'text'
p322
I23
sS'random'
p323
I23
sS'watch'
p324
I23
sS'aggressive'
p325
I23
sS'find'
p326
I23
sS'trying'
p327
I23
sS'true'
p328
I23
sS'outside'
p329
I23
sS'rico'
p330
I23
sS'only'
p331
I22
sS'going'
p332
I16
sS'pretty'
p333
I22
sS'riding'
p334
I23
sS'hip'
p335
I23
sS'do'
p336
I17
sS'haircut'
p337
I23
sS'above'
p338
I23
sS'get'
p339
I19
sS'honda'
p340
I23
sS'stop'
p341
I22
sS"they'd"
p342
I23
sS'cannot'
p343
I21
sS'watermelon'
p344
I23
sS'nearly'
p345
I23
sS'progress'
p346
I23
sS'gooooallll'
p347
I23
sS'celebrate'
p348
I23
sS'bar'
p349
I23
sS'countries'
p350
I23
sS'morning'
p351
I23
sS'jokes'
p352
I23
sS'stuff'
p353
I23
sS'she'
p354
I22
sS'through'
p355
I23
sS'vincent'
p356
I19
sS'where'
p357
I23
sS'guessing'
p358
I23
sS'dump'
p359
I23
sS'physically'
p360
I23
sS'testing'
p361
I23
sS'instagram"'
p362
I23
sS'we'
p363
I23
sS"hasn't"
p364
I23
sS'see'
p365
I21
sS'are'
p366
I19
sS'1.97'
p367
I23
sS'stanley'
p368
I23
sS'best'
p369
I23
sS"c'mon"
p370
I22
sS'wire'
p371
I23
sS'pictures'
p372
I22
sS'currently'
p373
I23
sS'r&b'
p374
I23
sS'3'
p375
I23
sS'm1.9'
p376
I23
sS'probably'
p377
I23
sS'sorts'
p378
I23
sS'reading'
p379
I23
sS'bought'
p380
I23
sS'24'
p381
I23
sS'lazy'
p382
I23
sS'makeup'
p383
I23
sS'omg'
p384
I23
sS'comebacks'
p385
I23
sS'succeed'
p386
I23
sS'here'
p387
I22
sS'come'
p388
I22
sS'pissed'
p389
I23
sS'hahaha'
p390
I22
sS'last'
p391
I22
sS'met'
p392
I23
sS'many'
p393
I23
sS'somewhere'
p394
I23
sS's'
p395
I23
sS'games'
p396
I22
sS"we've"
p397
I23
sS'asked'
p398
I23
sS'coo'
p399
I23
sS'1.4'
p400
I23
sS'12:06'
p401
I23
sS'ca'
p402
I20
sS'period'
p403
I21
sS'63'
p404
I23
sS'likes'
p405
I23
sS'learning'
p406
I23
sS'kings'
p407
I21
sS'runaway'
p408
I23
sS'airbrush'
p409
I23
sS"it's"
p410
I22
sS'been'
p411
I21
sS'much'
p412
I20
sS'damn'
p413
I22
sS'yah'
p414
I22
sS'craaaaving'
p415
I23
sS'workout.\xe2\x98\x80\xef\xb8\x8f'
p416
I23
sS'>'
p417
I22
sS'life'
p418
I23
sS'shopping'
p419
I23
sS'easy'
p420
I23
sS'fire'
p421
I23
sS'1.8'
p422
I23
sS"what's"
p423
I23
sS'else'
p424
I23
sS'wake'
p425
I23
sS'bmw'
p426
I23
sS'champions'
p427
I23
sS'myself'
p428
I22
sS'save'
p429
I23
sS'look'
p430
I22
sS'these'
p431
I23
sS'boardwalk'
p432
I23
sS'rhymes'
p433
I23
sS'choices'
p434
I23
sS'will'
p435
I23
sS'evening'
p436
I23
sS'"dr'
p437
I23
sS'fun'
p438
I22
sS'k'
p439
I23
sS'lingo'
p440
I23
sS'<3'
p441
I23
sS'is'
p442
I10
sS'it'
p443
I9
sS'100th'
p444
I23
sS'skipped'
p445
I23
sS'in'
p446
I13
sS'ready'
p447
I21
sS'dumpy'
p448
I23
sS'if'
p449
I21
sS'funny'
p450
I23
sS'shaw'
p451
I23
sS'things'
p452
I22
sS'make'
p453
I23
sS'chants'
p454
I23
sS'marathon'
p455
I23
sS'pelon'
p456
I23
sS'yesterday'
p457
I23
sS'kit'
p458
I23
sS'purpose'
p459
I23
sS'totally'
p460
I20
sS'weird'
p461
I23
sS'mentally'
p462
I23
sS'kid'
p463
I23
sS'not\xe2\x80\x9d'
p464
I23
sS'off'
p465
I21
sS'center'
p466
I22
sS"mother's"
p467
I23
sS'i'
p468
I2
sS'ranch'
p469
I23
sS'well'
p470
I21
sS'kyle'
p471
I22
sS'thought'
p472
I23
sS'person'
p473
I22
sS'costs'
p474
I23
sS"can't"
p475
I23
sS'the'
p476
I5
sS'loveeee'
p477
I23
sS'left'
p478
I23
sS'i\xe2\x80\x99m'
p479
I23
sS'summer'
p480
I23
sS'simp'
p481
I23
sS'they'
p482
I21
sS'just'
p483
I12
sS'being'
p484
I22
sS'-'
p485
I23
sS'accurate'
p486
I23
sS'front'
p487
I23
sS'(('
p488
I23
sS'thanks'
p489
I22
sS'yes'
p490
I22
sS'ham'
p491
I23
sS'cup'
p492
I23
sS'thinking'
p493
I22
sS'photographer'
p494
I23
sS'had'
p495
I23
sS'bullshit'
p496
I23
sS'add'
p497
I23
sS'4'
p498
I23
sS'crying'
p499
I23
sS'kels'
p500
I23
sS'input'
p501
I23
sS'has'
p502
I23
sS'teriyaki'
p503
I23
sS'excited'
p504
I20
sS'niece'
p505
I23
sS'around'
p506
I23
sS'aahhhhhhh'
p507
I23
sS'read'
p508
I23
sS'sorry2'
p509
I23
sS'gonna'
p510
I20
sS'early'
p511
I23
sS'game'
p512
I21
sS'know'
p513
I17
sS'disappointed'
p514
I23
sS'like'
p515
I19
sS'lost'
p516
I23
sS'utc2014-10-19'
p517
I23
sS'honestly'
p518
I23
sS'gimme'
p519
I21
sS'lose'
p520
I20
sS'beverly'
p521
I23
sS'because'
p522
I21
sS'old'
p523
I22
sS'fucking'
p524
I23
sS'twitter'
p525
I22
sS'some'
p526
I21
sS'back'
p527
I22
sS'50'
p528
I23
sS'whaaaaat'
p529
I23
sS'home'
p530
I23
sS'finna'
p531
I22
sS'delivered'
p532
I23
sS'obsessed'
p533
I23
sS'for'
p534
I11
sS'literally'
p535
I23
sS'absolutely'
p536
I23
sS'pelo'
p537
I23
sS'does'
p538
I22
sS'quote'
p539
I23
sS'prob'
p540
I23
sS'blurry'
p541
I23
sS'be'
p542
I17
sS'bf'
p543
I23
sS'power'
p544
I23
sS'schedule'
p545
I23
sS'night'
p546
I21
sS'withdrawals'
p547
I23
sS'uneasy'
p548
I23
sS'fuckboyyyy'
p549
I23
sS'throwback'
p550
I23
sS'yay'
p551
I23
sS'((('
p552
I23
sS'palmdale'
p553
I22
sS'throw'
p554
I20
sS'on'
p555
I17
sS'about'
p556
I19
sS'anything'
p557
I22
sS'oh'
p558
I22
sS'of'
p559
I11
sS'dollars'
p560
I23
sS'practical'
p561
I23
sS'dinner'
p562
I23
sS'idk'
p563
I23
sS'uhhhhhhh'
p564
I23
sS'you:1'
p565
I23
sS'puppies'
p566
I23
sS'slightly'
p567
I23
sS'or'
p568
I20
sS'road'
p569
I23
sS'seeing'
p570
I23
sS'burning'
p571
I23
sS'twitcon'
p572
I23
sS'pussy'
p573
I23
sS'selfie'
p574
I23
sS'skilled'
p575
I23
sS'som'
p576
I23
sS'getting'
p577
I22
sS'down'
p578
I22
sS'thankful'
p579
I23
sS'right'
p580
I22
sS'annoys'
p581
I23
sS'your'
p582
I18
sS'fast'
p583
I23
sS'her'
p584
I23
sS'apparently'
p585
I23
sS'there'
p586
I20
sS'hey'
p587
I22
sS'lol'
p588
I16
sS'start'
p589
I23
sS'22:14:42'
p590
I23
sS'lot'
p591
I20
sS'bored'
p592
I22
sS'was'
p593
I19
sS'happy'
p594
I23
sS'head'
p595
I23
sS"i've"
p596
I22
sS'but'
p597
I20
sS'boys'
p598
I19
sS'hear'
p599
I22
sS'ha'
p600
I21
sS'with'
p601
I11
sS'he'
p602
I22
sS"they're"
p603
I23
sS'cat"'
p604
I23
sS'made'
p605
I23
sS"wasn't"
p606
I23
sS'wish'
p607
I21
sS'up'
p608
I15
sS'ur'
p609
I23
sS'fuckboy'
p610
I23
sS'problem'
p611
I22
sS'daddy'
p612
I23
sS'gone'
p613
I23
sS'sometimes'
p614
I23
sS'ordered'
p615
I23
sS'utc'
p616
I23
sS'nne'
p617
I23
sS'am'
p618
I21
sS'an'
p619
I23
sS'imagination'
p620
I23
sS'as'
p621
I19
sS'scanned'
p622
I23
sS'at'
p623
I14
sS'annoying'
p624
I23
sS'girl'
p625
I22
sS'shit'
p626
I23
sS'time2014-10-19'
p627
I23
sS'bed"'
p628
I23
sS'aunts'
p629
I23
sS'no'
p630
I20
sS'when'
p631
I17
sS'tonight.\xe2\x80\x9d'
p632
I23
sS'topped'
p633
I23
sS'thinks'
p634
I23
sS'acton'
p635
I23
sS'5'
p636
I23
sS'details'
p637
I21
sS'sick'
p638
I23
sS'you'
p639
I4
sS'really'
p640
I21
sS'smell'
p641
I23
sS'roll'
p642
I23
sS'nice'
p643
I23
sS'1km'
p644
I23
sS'stay'
p645
I23
sS'chance'
p646
I23
sS'fell'
p647
I23
sS'again3'
p648
I23
sS'nikes'
p649
I23
sS'uhhhhh'
p650
I23
sS'e'
p651
I23
sS'together'
p652
I21
sS'2003'
p653
I23
sS'u'
p654
I23
sS'time'
p655
I22
sS'alright'
p656
I23
sS"she's"
p657
I22
sS'starting'
p658
I23
sS'having'
p659
I22
s.