(dp0
S''
p1
I5
sS'all'
p2
I10
sS'just'
p3
I10
sS'photo'
p4
I10
sS'world'
p5
I10
sS'danity'
p6
I10
sS'('
p7
I10
sS'tu'
p8
I10
sS'ese'
p9
I8
sS'to'
p10
I9
sS'~happy'
p11
I10
sS'innocent'
p12
I10
sS'enjoying'
p13
I10
sS'crest'
p14
I10
sS'200000'
p15
I10
sS'good'
p16
I10
sS'hit'
p17
I10
sS'ssw'
p18
I4
sS'agua'
p19
I10
sS'9.32mi'
p20
I10
sS'they'
p21
I8
sS'using'
p22
I10
sS'day'
p23
I10
sS'die'
p24
I10
sS'serves'
p25
I10
sS'3.11mi'
p26
I5
sS'2.29'
p27
I10
sS'night'
p28
I10
sS'vincent'
p29
I8
sS'pals'
p30
I9
sS'lemonade'
p31
I10
sS'7.46mi'
p32
I10
sS'pacific'
p33
I10
sS'are'
p34
I10
sS'follow'
p35
I10
sS'2.3'
p36
I9
sS'2.1'
p37
I10
sS'for'
p38
I6
sS'shizzz'
p39
I10
sS'weapons'
p40
I10
sS'suv'
p41
I10
sS'waiting'
p42
I10
sS'magnitude'
p43
I1
sS'4.35mi'
p44
I10
sS'free'
p45
I10
sS'california'
p46
I1
sS'post'
p47
I10
sS'earthquake'
p48
I2
sS'on'
p49
I10
sS'last'
p50
I10
sS'of'
p51
I1
sS's'
p52
I7
sS'weird'
p53
I10
sS'purpose'
p54
I10
sS'own'
p55
I10
sS'ca'
p56
I10
sS'yourself'
p57
I10
sS'directly'
p58
I10
sS'moonrise'
p59
I10
sS'shoots'
p60
I10
sS'from'
p61
I10
sS'fight'
p62
I10
sS'their'
p63
I9
sS'themselves'
p64
I10
sS'war'
p65
I10
sS'more'
p66
I9
sS'butchers'
p67
I10
sS'life'
p68
I10
sS'buy'
p69
I10
sS'occurred'
p70
I2
sS'trail'
p71
I10
sS'nomad'
p72
I10
sS'posted'
p73
I10
sS'10'
p74
I10
sS'car'
p75
I10
sS'mount'
p76
I9
sS'mi'
p77
I9
sS'pawns'
p78
I10
sS'aid'
p79
I10
sS'my'
p80
I9
sS'1.4'
p81
I10
sS'1.5'
p82
I10
sS'1.6'
p83
I9
sS'1.7'
p84
I10
sS'1.0'
p85
I10
sS'1.1'
p86
I9
sS'1.2'
p87
I8
sS'1.3'
p88
I10
sS'3.73mi'
p89
I7
sS'is'
p90
I10
sS'it'
p91
I10
sS'states'
p92
I10
sS'as'
p93
I10
sS'embrace'
p94
I10
sS'want'
p95
I9
sS'7km'
p96
I10
sS'united'
p97
I10
sS'kane'
p98
I10
sS'4.97mi'
p99
I10
sS'things'
p100
I10
sS'responsible'
p101
I10
sS'-'
p102
I10
sS'hamas)'
p103
I10
sS'acton'
p104
I9
sS'details'
p105
I2
sS'finding'
p106
I10
sS'map'
p107
I2
sS'gleason'
p108
I9
sS"'s"
p109
I10
sS'after'
p110
I10
sS'journey'
p111
I10
sS'littlerock'
p112
I3
sS'a'
p113
I1
sS'dulce'
p114
I10
sS'm'
p115
I10
sS'mammoth'
p116
I10
sS'media'
p117
I10
sS'the'
p118
I5
sS'sw'
p119
I10
s.