(dp0
S''
p1
I2
sS'all'
p2
I23
sS'steve'
p3
I25
sS'yapping'
p4
I25
sS'woods'
p5
I23
sS'go'
p6
I25
sS'row'
p7
I25
sS'machu'
p8
I25
sS'flats)'
p9
I20
sS'hunting'
p10
I25
sS'speeded'
p11
I25
sS'young'
p12
I25
sS'to'
p13
I7
sS'finally'
p14
I25
sS'bike'
p15
I24
sS'crest'
p16
I19
sS'very'
p17
I25
sS'cool'
p18
I24
sS'entire'
p19
I25
sS'clouds'
p20
I24
sS'cable'
p21
I25
sS'did'
p22
I24
sS'accidentally'
p23
I25
sS'hooray'
p24
I25
sS'vibes'
p25
I24
sS'red'
p26
I25
sS'car'
p27
I25
sS'small'
p28
I25
sS'guy'
p29
I25
sS'triumph'
p30
I25
sS'unexpected'
p31
I25
sS'tired'
p32
I25
sS'trails'
p33
I23
sS'bacon'
p34
I25
sS'boots'
p35
I25
sS'shirts'
p36
I25
sS'pass'
p37
I25
sS'others)'
p38
I25
sS'even'
p39
I24
sS'what'
p40
I25
sS'sun'
p41
I25
sS'twins'
p42
I25
sS'above'
p43
I24
sS'new'
p44
I23
sS'hero'
p45
I25
sS'4.35mi'
p46
I25
sS'never'
p47
I24
sS'inspiring'
p48
I25
sS'here'
p49
I19
sS'hours'
p50
I24
sS'earthquake'
p51
I22
sS'box'
p52
I25
sS'boy'
p53
I25
sS'great'
p54
I23
sS'bruises'
p55
I25
sS'experience'
p56
I25
sS'weekday'
p57
I25
sS'defeat'
p58
I25
sS'que'
p59
I25
sS"i'm"
p60
I20
sS"someone's"
p61
I25
sS'via'
p62
I24
sS'love'
p63
I21
sS'hiking'
p64
I18
sS'60-incher'
p65
I25
sS'private'
p66
I25
sS'switzer'
p67
I24
sS'guests'
p68
I25
sS'popular"'
p69
I25
sS'1905'
p70
I25
sS'1900'
p71
I25
sS'bulbs'
p72
I25
sS'eye'
p73
I25
sS'would'
p74
I24
sS'&'
p75
I21
sS'faint'
p76
I25
sS'wrongs'
p77
I25
sS'few'
p78
I25
sS'ca)'
p79
I23
sS'6'
p80
I25
sS'thru'
p81
I25
sS'today'
p82
I21
sS'clever'
p83
I25
sS'grabbing'
p84
I25
sS'haha'
p85
I23
sS':-('
p86
I25
sS'it'
p87
I11
sS'downtown'
p88
I25
sS'trail'
p89
I15
sS'broke'
p90
I25
sS'dragonboat'
p91
I25
sS'hole'
p92
I25
sS'hold'
p93
I25
sS'iii'
p94
I25
sS'hola'
p95
I25
sS'women'
p96
I25
sS'me'
p97
I23
sS'high'
p98
I23
sS'keeping'
p99
I25
sS'wore'
p100
I25
sS'eden'
p101
I25
sS'this'
p102
I10
sS'gabriel'
p103
I25
sS'ride'
p104
I24
sS'work'
p105
I24
sS'mi'
p106
I25
sS'mk'
p107
I25
sS'mt'
p108
I4
sS'unreal'
p109
I25
sS'can'
p110
I23
sS'knocked'
p111
I25
sS'my'
p112
I17
sS'beautiful'
p113
I24
sS'(yet'
p114
I25
sS'december'
p115
I25
sS'awesome'
p116
I23
sS'socal'
p117
I24
sS'states'
p118
I25
sS'want'
p119
I25
sS'station'
p120
I24
sS'tan'
p121
I25
sS'attract'
p122
I25
sS'needs'
p123
I25
sS'united'
p124
I25
sS'end'
p125
I25
sS'ene'
p126
I25
sS'rather'
p127
I25
sS'get'
p128
I23
sS'stayed'
p129
I25
sS'write'
p130
I24
sS'how'
p131
I24
sS'sunday'
p132
I25
sS'cures'
p133
I25
sS'instead'
p134
I25
sS'map'
p135
I22
sS'okay'
p136
I25
sS'w'
p137
I25
sS'lad'
p138
I25
sS'max'
p139
I25
sS'after'
p140
I25
sS'm\xc3\x81s'
p141
I25
sS'jumping'
p142
I25
sS'adventure'
p143
I25
sS'mag'
p144
I25
sS'such'
p145
I25
sS'winter'
p146
I25
sS'a'
p147
I3
sS'outline'
p148
I25
sS'wknd'
p149
I25
sS'claire'
p150
I25
sS'so'
p151
I20
sS'nancy'
p152
I25
sS'cute'
p153
I25
sS'breaking'
p154
I24
sS"don't"
p155
I24
sS'over'
p156
I25
sS'years'
p157
I25
sS'ended'
p158
I25
sS'through'
p159
I23
sS'looks'
p160
I24
sS'bunch'
p161
I25
sS'perfect'
p162
I25
sS'25'
p163
I25
sS'group'
p164
I25
sS'thank'
p165
I25
sS'la'
p166
I20
sS'lo'
p167
I25
sS'amazing'
p168
I25
sS'[pic]'
p169
I24
sS'madre'
p170
I25
sS'degrees'
p171
I25
sS'2)'
p172
I22
sS'2013'
p173
I25
sS'2012'
p174
I25
sS'dad'
p175
I25
sS'then'
p176
I24
sS'them'
p177
I25
sS'good'
p178
I24
sS'junction'
p179
I25
sS'yo'
p180
I25
sS'food'
p181
I25
sS'conversations'
p182
I25
sS'practice'
p183
I25
sS'dat'
p184
I25
sS'beaut'
p185
I25
sS'not'
p186
I24
sS'echo'
p187
I17
sS'day'
p188
I22
sS'transmitter'
p189
I24
sS'larunr'
p190
I25
sS'magnitude'
p191
I22
sS'went'
p192
I24
sS'higher'
p193
I25
sS'side'
p194
I25
sS"isn't"
p195
I25
sS'mean'
p196
I25
sS'square'
p197
I25
sS'telescope'
p198
I23
sS'house'
p199
I24
sS'hard'
p200
I23
sS'ft'
p201
I24
sS'used'
p202
I25
sS'catching'
p203
I25
sS"nature's"
p204
I25
sS'our'
p205
I24
sS'80'
p206
I25
sS'saturday'
p207
I25
sS'really'
p208
I22
sS'try'
p209
I25
sS'space'
p210
I25
sS'crescenta-montrose'
p211
I25
sS'looking'
p212
I23
sS'maple'
p213
I25
sS'7'
p214
I25
sS'got'
p215
I25
sS'rn'
p216
I25
sS'sliding'
p217
I25
sS'highway'
p218
I22
sS'ass'
p219
I24
sS'turning'
p220
I25
sS'oasis'
p221
I25
sS'california'
p222
I22
sS'chantry'
p223
I6
sS'care'
p224
I25
sS'training'
p225
I25
sS'could'
p226
I25
sS'cosmic'
p227
I25
sS'days'
p228
I25
sS'david'
p229
I25
sS'thing'
p230
I25
sS'shred'
p231
I24
sS'place'
p232
I25
sS"today's"
p233
I23
sS'testament'
p234
I25
sS'(at'
p235
I25
sS'anita'
p236
I21
sS'first'
p237
I24
sS'usda'
p238
I25
sS'feel'
p239
I25
sS'one'
p240
I24
sS'your\xe2\x80\xa6'
p241
I25
sS'done'
p242
I23
sS'quality'
p243
I25
sS"'em"
p244
I25
sS'city'
p245
I25
sS'heads'
p246
I25
sS'bears'
p247
I25
sS'top'
p248
I20
sS'girls'
p249
I25
sS'needed'
p250
I25
sS'2'
p251
I24
sS'too'
p252
I25
sS'tom'
p253
I25
sS'mama'
p254
I25
sS'purposefully'
p255
I25
sS'circa'
p256
I25
sS'trails)'
p257
I25
sS'lot'
p258
I25
sS'that'
p259
I24
sS'hotel'
p260
I25
sS'took'
p261
I25
sS'rivest'
p262
I25
sS'part'
p263
I24
sS'wasted'
p264
I25
sS'than'
p265
I25
sS"here's"
p266
I25
sS'11'
p267
I25
sS'observatory'
p268
I18
sS'15'
p269
I25
sS'lmao'
p270
I25
sS'hike'
p271
I16
sS"hoagee's"
p272
I25
sS'hot)'
p273
I25
sS'are'
p274
I25
sS'and'
p275
I15
sS'rag'
p276
I25
sS'1.7'
p277
I23
sS'1.0'
p278
I25
sS'san'
p279
I25
sS'sad'
p280
I25
sS"4500'"
p281
I25
sS'saw'
p282
I23
sS'mountain'
p283
I18
sS'wilson'
p284
I3
sS'm996pu'
p285
I25
sS'it\xe2\x80\xa6'
p286
I25
sS'point)'
p287
I24
sS'-'
p288
I25
sS'snow'
p289
I25
sS'casual'
p290
I25
sS'finding'
p291
I25
sS'exagerado'
p292
I25
sS'channel'
p293
I24
sS'unless'
p294
I25
sS'equestrian'
p295
I25
sS'though'
p296
I24
sS'edison'
p297
I25
sS'falls'
p298
I20
sS'comps'
p299
I25
sS'fack'
p300
I25
sS'cima'
p301
I25
sS'altadena'
p302
I25
sS'clear'
p303
I24
sS'dog'
p304
I24
sS'looked'
p305
I25
sS'reflecting'
p306
I25
sS'1.24mi'
p307
I25
sS'crest\xe2\x80\xa6'
p308
I25
sS'walking'
p309
I25
sS'catalina'
p310
I25
sS'pops'
p311
I25
sS'bring'
p312
I25
sS'trailhead'
p313
I25
sS'find'
p314
I25
sS'ground'
p315
I25
sS'giant'
p316
I24
sS'tnicolefit'
p317
I25
sS'\xe2\x9c\x85'
p318
I25
sS'with'
p319
I12
sS'only'
p320
I24
sS'going'
p321
I25
sS'pretty'
p322
I25
sS'sierra'
p323
I25
sS'he'
p324
I25
sS'palos'
p325
I25
sS'do'
p326
I24
sS'watching'
p327
I25
sS'de'
p328
I25
sS'bear'
p329
I24
sS'12'
p330
I25
sS'haunted'
p331
I25
sS'words'
p332
I24
sS'frying'
p333
I25
sS'him'
p334
I25
sS'runs'
p335
I25
sS'morning'
p336
I21
sS'skyline'
p337
I25
sS'miles'
p338
I24
sS'she'
p339
I25
sS'waterfalls'
p340
I25
sS'river'
p341
I25
sS'ruins'
p342
I24
sS'view'
p343
I21
sS'bars'
p344
I25
sS'w/'
p345
I21
sS'national'
p346
I25
sS'around'
p347
I25
sS'see'
p348
I24
sS'decided'
p349
I25
sS'result'
p350
I25
sS'2.3'
p351
I25
sS'close'
p352
I25
sS'sport'
p353
I25
sS'said'
p354
I25
sS'killing\xe2\x80\xa6'
p355
I25
sS'visiting'
p356
I24
sS'smoggy'
p357
I25
sS'jumped'
p358
I25
sS'3'
p359
I25
sS'probably'
p360
I25
sS'caves'
p361
I25
sS'bought'
p362
I25
sS'we'
p363
I20
sS'nature'
p364
I24
sS'patstrami'
p365
I25
sS'attention'
p366
I25
sS'(los'
p367
I25
sS'come'
p368
I25
sS'12.97mi'
p369
I25
sS'last'
p370
I25
sS'many'
p371
I24
sS'adventures'
p372
I25
sS'pb&j'
p373
I25
sS'point'
p374
I14
sS'ca'
p375
I25
sS'60'
p376
I25
sS'canyon'
p377
I16
sS'"theme'
p378
I25
sS'actually'
p379
I25
sS'neat'
p380
I25
sS'pr'
p381
I25
sS'putt'
p382
I25
sS'most'
p383
I24
sS'selfie'
p384
I25
sS"it's"
p385
I21
sS'mari'
p386
I25
sS'15mi'
p387
I25
sS'beer'
p388
I25
sS'\xe2\x98\x80'
p389
I25
sS'general'
p390
I25
sS'both'
p391
I25
sS'am'
p392
I25
sS'irundaley\xe2\x80\xa6'
p393
I25
sS'cloudburst'
p394
I25
sS'andrea'
p395
I25
sS'runnin'
p396
I25
sS'look'
p397
I25
sS'these'
p398
I25
sS'mount'
p399
I19
sS'ahah'
p400
I25
sS'n'
p401
I24
sS'monrovia'
p402
I24
sS'eaton'
p403
I25
sS'expecting'
p404
I25
sS'hahaha'
p405
I25
sS'11\xe2\x80\xa6'
p406
I25
sS'inspired'
p407
I25
sS'loop'
p408
I21
sS'almost'
p409
I25
sS'is'
p410
I15
sS'60"'
p411
I25
sS'site'
p412
I24
sS'middle'
p413
I25
sS'in'
p414
I10
sS'ready'
p415
I23
sS'elevation'
p416
I25
sS'if'
p417
I24
sS'annoying'
p418
I25
sS'odors'
p419
I25
sS'shire'
p420
I25
sS'hecho'
p421
I25
sS'inch'
p422
I25
sS'events'
p423
I25
sS'hermit'
p424
I23
sS'status'
p425
I25
sS'killer'
p426
I25
sS'infinity'
p427
I25
sS'effect'
p428
I25
sS'waterfall'
p429
I25
sS'moving'
p430
I25
sS'byebye'
p431
I25
sS'climbing'
p432
I22
sS'l.a'
p433
I25
sS'climb'
p434
I25
sS'3.73mi'
p435
I24
sS'off'
p436
I24
sS'center'
p437
I25
sS'i'
p438
I14
sS'spent'
p439
I25
sS'mother'
p440
I25
sS'the'
p441
I1
sS'my\xe2\x80\xa6'
p442
I25
sS'summer'
p443
I25
sS'they'
p444
I25
sS'just'
p445
I17
sS'being'
p446
I25
sS'photo'
p447
I21
sS'birthday'
p448
I25
sS'schools'
p449
I25
sS'thanks'
p450
I25
sS'forrest'
p451
I25
sS'yet'
p452
I24
sS'now'
p453
I25
sS'thinking'
p454
I25
sS'drive'
p455
I25
sS'had'
p456
I24
sS'4'
p457
I23
sS'5k'
p458
I25
sS'has'
p459
I25
sS'real'
p460
I25
sS'will\xe2\x80\xa6'
p461
I25
sS'anita\xe2\x80\xa6'
p462
I25
sS'checking'
p463
I25
sS'big'
p464
I25
sS'gonna'
p465
I25
sS'early'
p466
I25
sS'shitty'
p467
I25
sS'world'
p468
I24
sS'melting'
p469
I25
sS'puppy'
p470
I25
sS'like'
p471
I23
sS'success'
p472
I25
sS'50'
p473
I24
sS'either'
p474
I25
sS'night'
p475
I23
sS'4mi'
p476
I25
sS'parity'
p477
I24
sS'because'
p478
I24
sS'old'
p479
I23
sS'creek'
p480
I25
sS'people'
p481
I25
sS'fucking'
p482
I24
sS'some'
p483
I23
sS'back'
p484
I25
sS'hair'
p485
I25
sS'mirror'
p486
I25
sS'pain'
p487
I25
sS'matching'
p488
I25
sS'leaf'
p489
I25
sS'for'
p490
I14
sS'everything'
p491
I25
sS'epic'
p492
I25
sS'be'
p493
I25
sS'run'
p494
I24
sS'seconds'
p495
I25
sS'santa'
p496
I20
sS'shack'
p497
I25
sS'from'
p498
I20
sS'henninger'
p499
I16
sS'by'
p500
I24
sS'on'
p501
I17
sS'about'
p502
I24
sS'cliffs'
p503
I25
sS'ok'
p504
I25
sS'oh'
p505
I24
sS'of'
p506
I8
sS'terrycrews'
p507
I25
sS'kabc-tv'
p508
I25
sS'hot'
p509
I25
sS'angeles'
p510
I18
sS'afternoon'
p511
I25
sS'or'
p512
I24
sS'road'
p513
I25
sS'swimming'
p514
I24
sS'ladies'
p515
I25
sS'into'
p516
I25
sS'bound'
p517
I24
sS'getting'
p518
I25
sS'down'
p519
I21
sS'everyone'
p520
I25
sS'yanni'
p521
I25
sS'summmmahhhh'
p522
I25
sS'smells'
p523
I25
sS'lowkey'
p524
I25
sS'there'
p525
I25
sS'gopro'
p526
I25
sS'long'
p527
I24
sS'forrest)'
p528
I25
sS"we're"
p529
I25
sS'way'
p530
I24
sS'inspiration'
p531
I13
sS'was'
p532
I18
sS'war'
p533
I25
sS'happy'
p534
I25
sS'mountains'
p535
I23
sS'lowe'
p536
I22
sS'north'
p537
I25
sS'patstar'
p538
I25
sS'fireworks'
p539
I25
sS'but'
p540
I24
sS'hear'
p541
I25
sS'adults'
p542
I25
sS'trying'
p543
I25
sS'true'
p544
I24
sS'posted'
p545
I21
sS'made'
p546
I22
sS"3500'"
p547
I25
sS"wasn't"
p548
I25
sS'dangerous'
p549
I25
sS'up'
p550
I13
sS'ur'
p551
I25
sS'(ca'
p552
I22
sS'stories'
p553
I24
sS'\xef\xbd\x89\xef\xbd\x8e\xef\xbd\x93\xef\xbd\x90\xef\xbd\x89\xef\xbd\x92\xef\xbd\x85'
p554
I25
sS'flats'
p555
I5
sS'(pasadena'
p556
I24
sS'gone'
p557
I25
sS'sticks'
p558
I25
sS'johnny'
p559
I25
sS'nne'
p560
I25
sS'kisses'
p561
I25
sS'deep'
p562
I25
sS'an'
p563
I24
sS'right'
p564
I25
sS'at'
p565
I10
sS'home'
p566
I25
sS'cafe'
p567
I25
sS'disappoints'
p568
I25
sS'no'
p569
I24
sS'water'
p570
I25
sS'forestry'
p571
I25
sS'5'
p572
I25
sS'details'
p573
I22
sS'picchu'
p574
I25
sS'you'
p575
I19
sS'out'
p576
I20
sS'nice'
p577
I23
sS'picture'
p578
I25
sS'verdes'
p579
I25
sS'problems'
p580
I25
sS'occurred'
p581
I22
sS'peak'
p582
I9
sS'of\xe2\x80\xa6'
p583
I25
sS'weekend'
p584
I25
sS'pool'
p585
I24
sS'cliff'
p586
I24
sS'ago'
p587
I25
sS'\xe2\x80\x94'
p588
I24
sS'hiked'
p589
I25
sS'phone'
p590
I25
sS'wifi'
p591
I25
sS'rule'
p592
I25
sS'summit'
p593
I23
sS'time'
p594
I23
sS'yell'
p595
I25
sS'hello'
p596
I25
sS'once'
p597
I25
s.