(dp0
S''
p1
I3
sS'all'
p2
I15
sS':)'
p3
I14
sS'ocean)'
p4
I15
sS'windy'
p5
I15
sS'commute'
p6
I15
sS'sleep'
p7
I15
sS'go'
p8
I13
sS'follow'
p9
I15
sS'pedro'
p10
I13
sS'young'
p11
I15
sS'to'
p12
I5
sS'sitting'
p13
I15
sS':d'
p14
I15
sS'oceans'
p15
I15
sS'vegas'
p16
I15
sS'clouds'
p17
I15
sS'harbor'
p18
I12
sS'dodger'
p19
I15
sS'heading'
p20
I15
sS"i'll"
p21
I15
sS'says'
p22
I15
sS'jump'
p23
I15
sS'video'
p24
I15
sS'picked'
p25
I15
sS'blue'
p26
I15
sS'what'
p27
I15
sS'chicago'
p28
I15
sS'goes'
p29
I15
sS'new'
p30
I15
sS'ever'
p31
I14
sS'full'
p32
I15
sS'4.35mi'
p33
I13
sS'never'
p34
I15
sS'here'
p35
I15
sS'water'
p36
I14
sS'let'
p37
I15
sS'earthquake'
p38
I8
sS'31'
p39
I15
sS'amount'
p40
I15
sS'social'
p41
I15
sS"i'm"
p42
I9
sS"dad's"
p43
I15
sS'maker'
p44
I15
sS'love'
p45
I15
sS'marchetti'
p46
I15
sS'rancho'
p47
I11
sS'from'
p48
I10
sS'would'
p49
I15
sS'&'
p50
I15
sS'two'
p51
I14
sS'next'
p52
I15
sS'call'
p53
I14
sS'calm'
p54
I15
sS'6'
p55
I15
sS'today'
p56
I13
sS'flat'
p57
I15
sS'holy'
p58
I15
sS'haha'
p59
I15
sS'occurred'
p60
I8
sS'phone'
p61
I15
sS'baby'
p62
I15
sS'women'
p63
I15
sS'me'
p64
I14
sS'thanks'
p65
I15
sS'this'
p66
I9
sS'mi'
p67
I15
sS'of'
p68
I5
sS'my'
p69
I11
sS'crazy'
p70
I15
sS'3.73mi'
p71
I14
sS'awesome'
p72
I15
sS'dolphin'
p73
I15
sS'states'
p74
I15
sS'want'
p75
I15
sS'united'
p76
I15
sS'watching'
p77
I14
sS'how'
p78
I13
sS'answer'
p79
I14
sS'gate'
p80
I15
sS'beach'
p81
I12
sS'map'
p82
I9
sS'after'
p83
I15
sS'birthday'
p84
I15
sS'waves'
p85
I15
sS'such'
p86
I15
sS'obvi'
p87
I15
sS'whale'
p88
I14
sS'boat)'
p89
I14
sS'third'
p90
I15
sS'light'
p91
I15
sS'sw'
p92
I14
sS'so'
p93
I13
sS'halos'
p94
I15
sS'dream'
p95
I15
sS"that's"
p96
I15
sS"don't"
p97
I13
sS'indeed'
p98
I15
sS'over'
p99
I13
sS'midnight'
p100
I15
sS"won't"
p101
I15
sS'ma\xc3\xb1ana'
p102
I15
sS'mayor'
p103
I15
sS'thank'
p104
I15
sS'la'
p105
I13
sS'[pic]'
p106
I14
sS'thums'
p107
I15
sS'400'
p108
I15
sS'2014'
p109
I15
sS'bye'
p110
I15
sS'dad'
p111
I15
sS'freeman'
p112
I15
sS'good'
p113
I15
sS'7km'
p114
I15
sS'ya'
p115
I14
sS'safe'
p116
I15
sS'records'
p117
I15
sS'instead'
p118
I15
sS'now'
p119
I12
sS'day'
p120
I12
sS'weekened'
p121
I15
sS'did'
p122
I15
sS'magnitude'
p123
I8
sS'went'
p124
I15
sS'side'
p125
I15
sS'everyone'
p126
I15
sS'house'
p127
I15
sS'pitts'
p128
I15
sS'our'
p129
I14
sS'girl'
p130
I15
sS'props'
p131
I15
sS'out'
p132
I11
sS'seriously'
p133
I15
sS'opener'
p134
I15
sS'7'
p135
I15
sS'paradise'
p136
I15
sS'got'
p137
I14
sS'"mom'
p138
I15
sS"doesn't"
p139
I15
sS'free'
p140
I15
sS'california'
p141
I7
sS'wanted'
p142
I15
sS'yard'
p143
I15
sS'days'
p144
I15
sS'round'
p145
I15
sS'thing'
p146
I15
sS'first'
p147
I15
sS'>>'
p148
I15
sS'nhl'
p149
I15
sS'coming'
p150
I15
sS'"dont'
p151
I15
sS'one'
p152
I13
sS'long'
p153
I11
sS'miss'
p154
I15
sS'tomorrow'
p155
I15
sS"you're"
p156
I15
sS'little'
p157
I14
sS"valentine's"
p158
I15
sS'caught'
p159
I15
sS'wonderful'
p160
I15
sS'too'
p161
I15
sS'a'
p162
I4
sS'stomach'
p163
I15
sS'that'
p164
I14
sS'ridiculous'
p165
I15
sS'past'
p166
I15
sS'sailing'
p167
I15
sS'were'
p168
I15
sS'sister'
p169
I15
sS'1.4'
p170
I15
sS'1.6'
p171
I15
sS'1.1'
p172
I15
sS'1.8'
p173
I15
sS'1.9'
p174
I15
sS'comfortable'
p175
I15
sS'tonight'
p176
I15
sS'talking'
p177
I15
sS'have'
p178
I15
sS'need'
p179
I14
sS'seen'
p180
I15
sS'saw'
p181
I15
sS'any'
p182
I15
sS'-'
p183
I15
sS'okie'
p184
I15
sS'also'
p185
I15
sS'take'
p186
I15
sS'\xe2\x9b\xb5'
p187
I15
sS'sure'
p188
I15
sS'though'
p189
I15
sS'aww'
p190
I15
sS'most'
p191
I15
sS'jul'
p192
I15
sS'mi)'
p193
I15
sS'm'
p194
I15
sS'km'
p195
I15
sS'sunset'
p196
I14
sS'1.24mi'
p197
I15
sS'catalina'
p198
I8
sS'\xe2\x9c\xa8'
p199
I15
sS'fletcher'
p200
I14
sS'sharks'
p201
I15
sS'nervous'
p202
I15
sS'controls'
p203
I15
sS'only'
p204
I15
sS'going'
p205
I12
sS'buying'
p206
I15
sS'pretty'
p207
I15
sS'hb.\xe2\x80\x9d'
p208
I15
sS'he'
p209
I15
sS'hope'
p210
I15
sS'palos'
p211
I10
sS'his'
p212
I15
sS'get'
p213
I14
sS'ssw'
p214
I14
sS'express'
p215
I14
sS'coast'
p216
I15
sS'fastest'
p217
I15
sS'sse'
p218
I12
sS'luhhhhhhh'
p219
I15
sS'1.86mi'
p220
I15
sS'him'
p221
I14
sS'morning'
p222
I14
sS'common'
p223
I15
sS'skythrills'
p224
I12
sS'tanker'
p225
I15
sS'where'
p226
I14
sS'view'
p227
I15
sS'.im'
p228
I13
sS'see'
p229
I14
sS'are'
p230
I14
sS'sea'
p231
I15
sS'2.1'
p232
I14
sS'2.5'
p233
I13
sS'sf-260'
p234
I15
sS'please'
p235
I15
sS'superb'
p236
I15
sS'oooohhh'
p237
I15
sS'between'
p238
I15
sS'23:28:18'
p239
I15
sS'solo'
p240
I15
sS'we'
p241
I12
sS'happened..aww'
p242
I15
sS'wtf'
p243
I15
sS'come'
p244
I15
sS'hours'
p245
I15
sS'check('
p246
I15
sS'many'
p247
I15
sS'ill'
p248
I15
sS's'
p249
I15
sS'became'
p250
I15
sS'whole'
p251
I15
sS'con'
p252
I15
sS'and'
p253
I7
sS'comadre'
p254
I15
sS'headed'
p255
I15
sS'ca'
p256
I15
sS'co.)'
p257
I15
sS'boat'
p258
I9
sS'san'
p259
I13
sS'lighthouse'
p260
I15
sS'cares'
p261
I15
sS"it's"
p262
I15
sS'damn'
p263
I15
sS'territory'
p264
I15
sS'on\xe2\x80\xa6'
p265
I15
sS'resting'
p266
I15
sS'lived'
p267
I15
sS'mine'
p268
I14
sS'child'
p269
I15
sS'spin'
p270
I15
sS'cutie'
p271
I15
sS'solid'
p272
I15
sS'knowwwww'
p273
I15
sS'will'
p274
I13
sS'near'
p275
I14
sS'hammar'
p276
I15
sS'then'
p277
I15
sS'is'
p278
I14
sS'it'
p279
I14
sS'middle'
p280
I12
sS'vs'
p281
I15
sS'in'
p282
I9
sS'drive"'
p283
I15
sS'floating'
p284
I15
sS'worry'
p285
I14
sS'if'
p286
I15
sS'different'
p287
I15
sS'shirt'
p288
I15
sS'media'
p289
I15
sS'same'
p290
I15
sS'week'
p291
I15
sS'used'
p292
I15
sS'drink'
p293
I14
sS'effect'
p294
I15
sS'flown'
p295
I15
sS'outcheaaa'
p296
I15
sS'tuna'
p297
I15
sS'\xe2\x9c\x8c\xef\xb8\x8f'
p298
I15
sS'off'
p299
I15
sS'i'
p300
I2
sS'ocean'
p301
I6
sS'tho'
p302
I15
sS'greatest'
p303
I15
sS'very'
p304
I15
sS'the'
p305
I1
sS'left'
p306
I15
sS'summer'
p307
I15
sS'lobsters'
p308
I15
sS'just'
p309
I9
sS'money'
p310
I15
sS'fishing'
p311
I13
sS'field'
p312
I15
sS'drunk'
p313
I15
sS'had'
p314
I15
sS'killed'
p315
I15
sS'drive"mom'
p316
I15
sS'balloons'
p317
I15
sS'excited'
p318
I14
sS'real'
p319
I15
sS'preseason'
p320
I15
sS'(4'
p321
I15
sS'early'
p322
I15
sS'game'
p323
I14
sS'know'
p324
I15
sS'.but'
p325
I15
sS'like'
p326
I15
sS'signal'
p327
I15
sS's-2c'
p328
I15
sS'night'
p329
I15
sS'right'
p330
I14
sS'back'
p331
I13
sS'pacific'
p332
I8
sS'lobster'
p333
I14
sS'palo'
p334
I15
sS'kings'
p335
I15
sS'home'
p336
I14
sS'for'
p337
I11
sS'everything'
p338
I15
sS'wind...so'
p339
I15
sS'be'
p340
I8
sS'schedule'
p341
I14
sS'super'
p342
I14
sS'on'
p343
I6
sS'about'
p344
I13
sS'ok'
p345
I15
sS'island'
p346
I12
sS'scott'
p347
I15
sS'angeles'
p348
I15
sS'longbeach'
p349
I15
sS'bound'
p350
I15
sS'waco'
p351
I15
sS'whales'
p352
I15
sS'there'
p353
I14
sS'lol'
p354
I14
sS'los'
p355
I15
sS'missy'
p356
I15
sS"we're"
p357
I15
sS'way'
p358
I15
sS'babysitting'
p359
I15
sS'was'
p360
I13
sS'buy'
p361
I15
sS"i've"
p362
I14
sS'fasho'
p363
I15
sS'but'
p364
I14
sS'verde'
p365
I15
sS'highest'
p366
I15
sS'with'
p367
I12
sS'eat'
p368
I15
sS'mylar'
p369
I15
sS'posted'
p370
I15
sS'utc'
p371
I15
sS'made'
p372
I14
sS'pavilion'
p373
I15
sS'wish'
p374
I14
sS'up'
p375
I14
sS'flight...clouds'
p376
I15
sS'daddy'
p377
I15
sS'deep'
p378
I15
sS'as'
p379
I14
sS"queen's"
p380
I15
sS'at'
p381
I12
sS'diving'
p382
I15
sS'ship'
p383
I14
sS'again'
p384
I15
sS'maybe'
p385
I15
sS'alliston'
p386
I15
sS'no'
p387
I14
sS'when'
p388
I13
sS'tight'
p389
I15
sS'setting'
p390
I15
sS'5'
p391
I15
sS'details'
p392
I9
sS'you'
p393
I11
sS'monday'
p394
I15
sS'verdes'
p395
I10
sS"let's"
p396
I15
sS'ymf-5c'
p397
I15
sS'else'
p398
I15
sS'weekend'
p399
I15
sS'dolphins'
p400
I15
sS'ago'
p401
I15
sS'u'
p402
I15
sS'time'
p403
I14
sS'far'
p404
I15
s.